 human_Recorder

 Timestamp is 51ba515c (Fri Jun 14 01:10:20 2013)

 Preferred load address is 10000000

 Start         Length     Name                   Class
 0001:00000000 000b92f2H .text                   CODE
 0001:000b9300 00004f83H .text$x                 CODE
 0001:000be290 00000e9dH .text$yc                CODE
 0001:000bf130 000002afH .text$yd                CODE
 0002:00000000 000001ecH .idata$5                DATA
 0002:000001ec 00000004H .CRT$XCA                DATA
 0002:000001f0 00000084H .CRT$XCC                DATA
 0002:00000274 0000001cH .CRT$XCL                DATA
 0002:00000290 00000094H .CRT$XCU                DATA
 0002:00000324 00000004H .CRT$XCZ                DATA
 0002:00000328 00000004H .CRT$XIA                DATA
 0002:0000032c 00000014H .CRT$XIC                DATA
 0002:00000340 00000004H .CRT$XIZ                DATA
 0002:00000344 00000004H .CRT$XPA                DATA
 0002:00000348 00000008H .CRT$XPX                DATA
 0002:00000350 00000004H .CRT$XPXA               DATA
 0002:00000354 00000004H .CRT$XPZ                DATA
 0002:00000358 00000004H .CRT$XTA                DATA
 0002:0000035c 00000004H .CRT$XTZ                DATA
 0002:00000360 000230a8H .rdata                  DATA
 0002:00023408 00000094H .rdata$debug            DATA
 0002:0002349c 00001aa0H .rdata$r                DATA
 0002:00024f40 000004f0H .rdata$sxdata           DATA
 0002:00025430 00000004H .rtc$IAA                DATA
 0002:00025434 0000001cH .rtc$IMZ                DATA
 0002:00025450 00000004H .rtc$IZZ                DATA
 0002:00025454 00000004H .rtc$TAA                DATA
 0002:00025458 0000001cH .rtc$TMZ                DATA
 0002:00025474 00000004H .rtc$TZZ                DATA
 0002:00025478 00005584H .xdata$x                DATA
 0002:0002a9fc 00000050H .idata$2                DATA
 0002:0002aa4c 00000014H .idata$3                DATA
 0002:0002aa60 000001ecH .idata$4                DATA
 0002:0002ac4c 000008feH .idata$6                DATA
 0002:0002b550 00000054H .edata                  DATA
 0003:00000000 00002ac0H .data                   DATA
 0003:00002ac0 000047e0H .bss                    DATA

  Address         Publics by Value              Rva+Base       Lib:Object

 0000:00000000       __except_list              00000000     <absolute>
 0000:0000013c       ___safe_se_handler_count   0000013c     <absolute>
 0000:00000000       ___ImageBase               10000000     <linker-defined>
 0001:00001fa0       ?DllEntryPoint@@YGHPAUHINSTANCE__@@KPAX@Z 10002fa0 f   human_Recorder.obj
 0001:00002210       _human_Recorder            10003210 f   human_Recorder.obj
 0001:00005730       ??$?6U?$char_traits@D@std@@@std@@YAAAV?$basic_ostream@DU?$char_traits@D@std@@@0@AAV10@PBD@Z 10006730 f i human_Recorder.obj
 0001:00005aa0       ??$?8DD@std@@YA_NABV?$allocator@D@0@0@Z 10006aa0 f i human_Recorder.obj
 0001:00005ab0       ??$?8V?$allocator@D@std@@V01@@std@@YA_NABU?$_Wrap_alloc@V?$allocator@D@std@@@0@0@Z 10006ab0 f i human_Recorder.obj
 0001:00005af0       ??$?9DD@std@@YA_NABV?$allocator@D@0@0@Z 10006af0 f i human_Recorder.obj
 0001:00005b40       ??$?9V?$allocator@D@std@@V01@@std@@YA_NABU?$_Wrap_alloc@V?$allocator@D@std@@@0@0@Z 10006b40 f i human_Recorder.obj
 0001:00005b90       ??$_Allocate@D@std@@YAPADIPAD@Z 10006b90 f i human_Recorder.obj
 0001:00005be0       ??$_Allocate@U_Container_proxy@std@@@std@@YAPAU_Container_proxy@0@IPAU10@@Z 10006be0 f i human_Recorder.obj
 0001:00005c40       ??$_DebugHeapDelete@V_Facet_base@std@@@std@@YAXPAV_Facet_base@0@@Z 10006c40 f i human_Recorder.obj
 0001:00005c80       ??$_DebugHeapDelete@Vfacet@locale@std@@@std@@YAXPAVfacet@locale@0@@Z 10006c80 f i human_Recorder.obj
 0001:00005cc0       ??$_DebugHeapDelete@Vlocale@std@@@std@@YAXPAVlocale@0@@Z 10006cc0 f i human_Recorder.obj
 0001:00005cf0       ??$_DebugHeapDelete@X@std@@YAXPAX@Z 10006cf0 f i human_Recorder.obj
 0001:00005d10       ??$_Debug_pointer@$$A6AAAV?$basic_ostream@DU?$char_traits@D@std@@@std@@AAV12@@Z@std@@YAXP6AAAV?$basic_ostream@DU?$char_traits@D@std@@@0@AAV10@@ZPB_WI@Z 10006d10 f i human_Recorder.obj
 0001:00005d40       ??$_Debug_pointer@D@std@@YAXPADPB_WI@Z 10006d40 f i human_Recorder.obj
 0001:00005d70       ??$_Debug_pointer@D@std@@YAXPBDPB_WI@Z 10006d70 f i human_Recorder.obj
 0001:00005da0       ??$_Debug_pointer@V?$ostreambuf_iterator@DU?$char_traits@D@std@@@std@@@std@@YAXAAV?$ostreambuf_iterator@DU?$char_traits@D@std@@@0@PB_WI@Z 10006da0 f i human_Recorder.obj
 0001:00005db0       ??$_Debug_range2@PBD@std@@YAXPBD0PB_WIUrandom_access_iterator_tag@0@@Z 10006db0 f i human_Recorder.obj
 0001:00005e10       ??$_Debug_range@PBD@std@@YAXPBD0PB_WI@Z 10006e10 f i human_Recorder.obj
 0001:00005e60       ??$_Fgetc@D@std@@YA_NAADPAU_iobuf@@@Z 10006e60 f i human_Recorder.obj
 0001:00005ea0       ??$_Fputc@D@std@@YA_NDPAU_iobuf@@@Z 10006ea0 f i human_Recorder.obj
 0001:00005ef0       ??$_Getvals@D@?$numpunct@D@std@@IAEXDPBUlconv@@U_Cvtvec@@@Z 10006ef0 f i human_Recorder.obj
 0001:00005f60       ??$_Iter_cat@PBD@std@@YA?AUrandom_access_iterator_tag@0@ABQBD@Z 10006f60 f i human_Recorder.obj
 0001:00005fc0       ??$_Maklocchr@D@std@@YADDPADABU_Cvtvec@@@Z 10006fc0 f i human_Recorder.obj
 0001:00005fd0       ??$_Maklocstr@D@std@@YAPADPBDPADABU_Cvtvec@@@Z 10006fd0 f i human_Recorder.obj
 0001:00006070       ??$_Ungetc@D@std@@YA_NABDPAU_iobuf@@@Z 10007070 f i human_Recorder.obj
 0001:000060c0       ??$addressof@D@std@@YAPADAAD@Z 100070c0 f i human_Recorder.obj
 0001:000060d0       ??$construct@PADAAPAD@?$_Wrap_alloc@V?$allocator@D@std@@@std@@QAEXPAPADAAPAD@Z 100070d0 f i human_Recorder.obj
 0001:00006110       ??$construct@PADAAPAD@?$allocator@D@std@@QAEXPAPADAAPAD@Z 10007110 f i human_Recorder.obj
 0001:000061c0       ??$construct@PADAAPAD@?$allocator_traits@V?$allocator@D@std@@@std@@SAXAAV?$allocator@D@1@PAPADAAPAD@Z 100071c0 f i human_Recorder.obj
 0001:000061f0       ??$construct@U_Container_proxy@std@@U12@@?$allocator@U_Container_proxy@std@@@std@@QAEXPAU_Container_proxy@1@$$QAU21@@Z 100071f0 f i human_Recorder.obj
 0001:000062a0       ??$destroy@PAD@?$_Wrap_alloc@V?$allocator@D@std@@@std@@QAEXPAPAD@Z 100072a0 f i human_Recorder.obj
 0001:000062d0       ??$destroy@PAD@?$allocator@D@std@@QAEXPAPAD@Z 100072d0 f i human_Recorder.obj
 0001:000062f0       ??$destroy@PAD@?$allocator_traits@V?$allocator@D@std@@@std@@SAXAAV?$allocator@D@1@PAPAD@Z 100072f0 f i human_Recorder.obj
 0001:00006310       ??$destroy@U_Container_proxy@std@@@?$allocator@U_Container_proxy@std@@@std@@QAEXPAU_Container_proxy@1@@Z 10007310 f i human_Recorder.obj
 0001:00006330       ??$forward@AAPAD@std@@YAAAPADAAPAD@Z 10007330 f i human_Recorder.obj
 0001:00006340       ??$forward@U_Container_proxy@std@@@std@@YA$$QAU_Container_proxy@0@AAU10@@Z 10007340 f i human_Recorder.obj
 0001:00006350       ??$forward@V?$basic_string@DU?$char_traits@D@std@@V?$allocator@D@2@@std@@@std@@YA$$QAV?$basic_string@DU?$char_traits@D@std@@V?$allocator@D@2@@0@AAV10@@Z 10007350 f i human_Recorder.obj
 0001:00006360       ??$use_facet@V?$codecvt@DDH@std@@@std@@YAABV?$codecvt@DDH@0@ABVlocale@0@@Z 10007360 f i human_Recorder.obj
 0001:000064c0       ??$use_facet@V?$ctype@D@std@@@std@@YAABV?$ctype@D@0@ABVlocale@0@@Z 100074c0 f i human_Recorder.obj
 0001:00006620       ??$use_facet@V?$num_put@DV?$ostreambuf_iterator@DU?$char_traits@D@std@@@std@@@std@@@std@@YAABV?$num_put@DV?$ostreambuf_iterator@DU?$char_traits@D@std@@@std@@@0@ABVlocale@0@@Z 10007620 f i human_Recorder.obj
 0001:00006780       ??$use_facet@V?$numpunct@D@std@@@std@@YAABV?$numpunct@D@0@ABVlocale@0@@Z 10007780 f i human_Recorder.obj
 0001:000068e0       ??0?$_Iterator012@Urandom_access_iterator_tag@std@@DHPBDABDU_Iterator_base12@2@@std@@QAE@XZ 100078e0 f i human_Recorder.obj
 0001:00006910       ??0?$_String_alloc@$0A@U?$_String_base_types@DV?$allocator@D@std@@@std@@@std@@QAE@ABV?$allocator@D@1@@Z 10007910 f i human_Recorder.obj
 0001:00006980       ??0?$_String_const_iterator@V?$_String_val@U?$_Simple_types@D@std@@@std@@@std@@QAE@PBDPBU_Container_base12@1@@Z 10007980 f i human_Recorder.obj
 0001:00006a00       ??0?$_String_iterator@V?$_String_val@U?$_Simple_types@D@std@@@std@@@std@@QAE@PADPBU_Container_base12@1@@Z 10007a00 f i human_Recorder.obj
 0001:00006a40       ??0?$_String_val@U?$_Simple_types@D@std@@@std@@QAE@XZ 10007a40 f i human_Recorder.obj
 0001:00006a80       ??0?$_Wrap_alloc@V?$allocator@D@std@@@std@@QAE@XZ 10007a80 f i human_Recorder.obj
 0001:00006ab0       ??0?$_Yarn@D@std@@QAE@XZ   10007ab0 f i human_Recorder.obj
 0001:00006ae0       ??0?$_Yarn@_W@std@@QAE@XZ  10007ae0 f i human_Recorder.obj
 0001:00006b10       ??0?$allocator@D@std@@QAE@ABV01@@Z 10007b10 f i human_Recorder.obj
 0001:00006b30       ??0?$allocator@D@std@@QAE@XZ 10007b30 f i human_Recorder.obj
 0001:00006b50       ??0?$allocator@U_Container_proxy@std@@@std@@QAE@XZ 10007b50 f i human_Recorder.obj
 0001:00006b70       ??0?$basic_filebuf@DU?$char_traits@D@std@@@std@@QAE@PAU_iobuf@@@Z 10007b70 f i human_Recorder.obj
 0001:00006bf0       ??0?$basic_ios@DU?$char_traits@D@std@@@std@@IAE@XZ 10007bf0 f i human_Recorder.obj
 0001:00006c20       ??0?$basic_ofstream@DU?$char_traits@D@std@@@std@@QAE@XZ 10007c20 f i human_Recorder.obj
 0001:00006d00       ??0?$basic_ostream@DU?$char_traits@D@std@@@std@@QAE@PAV?$basic_streambuf@DU?$char_traits@D@std@@@1@_N@Z 10007d00 f i human_Recorder.obj
 0001:00006de0       ??0?$basic_streambuf@DU?$char_traits@D@std@@@std@@IAE@XZ 10007de0 f i human_Recorder.obj
 0001:00006e60       ??0?$basic_string@DU?$char_traits@D@std@@V?$allocator@D@2@@std@@QAE@ID@Z 10007e60 f i human_Recorder.obj
 0001:00006ef0       ??0?$basic_string@DU?$char_traits@D@std@@V?$allocator@D@2@@std@@QAE@PBD@Z 10007ef0 f i human_Recorder.obj
 0001:00006f80       ??0?$basic_string@DU?$char_traits@D@std@@V?$allocator@D@2@@std@@QAE@XZ 10007f80 f i human_Recorder.obj
 0001:00007000       ??0?$codecvt@DDH@std@@QAE@ABV_Locinfo@1@I@Z 10008000 f i human_Recorder.obj
 0001:00007080       ??0?$ctype@D@std@@QAE@ABV_Locinfo@1@I@Z 10008080 f i human_Recorder.obj
 0001:00007100       ??0?$fpos@H@std@@QAE@H_J@Z 10008100 f i human_Recorder.obj
 0001:00007140       ??0?$fpos@H@std@@QAE@_J@Z  10008140 f i human_Recorder.obj
 0001:00007180       ??0?$num_put@DV?$ostreambuf_iterator@DU?$char_traits@D@std@@@std@@@std@@QAE@ABV_Locinfo@1@I@Z 10008180 f i human_Recorder.obj
 0001:00007200       ??0?$numpunct@D@std@@QAE@ABV_Locinfo@1@I_N@Z 10008200 f i human_Recorder.obj
 0001:00007280       ??0?$ostreambuf_iterator@DU?$char_traits@D@std@@@std@@QAE@PAV?$basic_streambuf@DU?$char_traits@D@std@@@1@@Z 10008280 f i human_Recorder.obj
 0001:000072b0       ??0_Container_base12@std@@QAE@XZ 100082b0 f i human_Recorder.obj
 0001:000072d0       ??0_Container_proxy@std@@QAE@XZ 100082d0 f i human_Recorder.obj
 0001:00007300       ??0_Facet_base@std@@QAE@XZ 10008300 f i human_Recorder.obj
 0001:00007320       ??0_Generic_error_category@std@@QAE@XZ 10008320 f i human_Recorder.obj
 0001:00007350       ??0_Iostream_error_category@std@@QAE@XZ 10008350 f i human_Recorder.obj
 0001:00007380       ??0_Iterator_base12@std@@QAE@XZ 10008380 f i human_Recorder.obj
 0001:000073b0       ??0_Locinfo@std@@QAE@PBD@Z 100083b0 f i human_Recorder.obj
 0001:000074b0       ??0_Sentry_base@?$basic_ostream@DU?$char_traits@D@std@@@std@@QAE@AAV12@@Z 100084b0 f i human_Recorder.obj
 0001:00007540       ??0_System_error_category@std@@QAE@XZ 10008540 f i human_Recorder.obj
 0001:00007570       ??0codecvt_base@std@@QAE@I@Z 10008570 f i human_Recorder.obj
 0001:000075b0       ??0ctype_base@std@@QAE@I@Z 100085b0 f i human_Recorder.obj
 0001:000075f0       ??0error_category@std@@QAE@XZ 100085f0 f i human_Recorder.obj
 0001:00007610       ??0error_code@std@@QAE@HABVerror_category@1@@Z 10008610 f i human_Recorder.obj
 0001:00007640       ??0error_condition@std@@QAE@HABVerror_category@1@@Z 10008640 f i human_Recorder.obj
 0001:00007670       ??0facet@locale@std@@IAE@I@Z 10008670 f i human_Recorder.obj
 0001:000076f0       ??0failure@ios_base@std@@QAE@ABV012@@Z 100086f0 f i human_Recorder.obj
 0001:00007730       ??0failure@ios_base@std@@QAE@PBDABVerror_code@2@@Z 10008730 f i human_Recorder.obj
 0001:000077f0       ??0id@locale@std@@QAE@I@Z  100087f0 f i human_Recorder.obj
 0001:00007810       ??0ios_base@std@@IAE@XZ    10008810 f i human_Recorder.obj
 0001:00007830       ??0locale@std@@QAE@ABV01@@Z 10008830 f i human_Recorder.obj
 0001:00007880       ??0locale@std@@QAE@XZ      10008880 f i human_Recorder.obj
 0001:000078b0       ??0runtime_error@std@@QAE@ABV01@@Z 100088b0 f i human_Recorder.obj
 0001:000078f0       ??0runtime_error@std@@QAE@ABV?$basic_string@DU?$char_traits@D@std@@V?$allocator@D@2@@1@@Z 100088f0 f i human_Recorder.obj
 0001:00007940       ??0runtime_error@std@@QAE@PBD@Z 10008940 f i human_Recorder.obj
 0001:00007980       ??0sentry@?$basic_ostream@DU?$char_traits@D@std@@@std@@QAE@AAV12@@Z 10008980 f i human_Recorder.obj
 0001:00007a50       ??0system_error@std@@QAE@ABV01@@Z 10008a50 f i human_Recorder.obj
 0001:00007aa0       ??0system_error@std@@QAE@Verror_code@1@ABV?$basic_string@DU?$char_traits@D@std@@V?$allocator@D@2@@1@@Z 10008aa0 f i human_Recorder.obj
 0001:00007b30       ??1?$_Iterator012@Urandom_access_iterator_tag@std@@DHPBDABDU_Iterator_base12@2@@std@@QAE@XZ 10008b30 f i human_Recorder.obj
 0001:00007b60       ??1?$_String_alloc@$0A@U?$_String_base_types@DV?$allocator@D@std@@@std@@@std@@QAE@XZ 10008b60 f i human_Recorder.obj
 0001:00007b90       ??1?$_String_const_iterator@V?$_String_val@U?$_Simple_types@D@std@@@std@@@std@@QAE@XZ 10008b90 f i human_Recorder.obj
 0001:00007bc0       ??1?$_String_iterator@V?$_String_val@U?$_Simple_types@D@std@@@std@@@std@@QAE@XZ 10008bc0 f i human_Recorder.obj
 0001:00007bf0       ??1?$_String_val@U?$_Simple_types@D@std@@@std@@QAE@XZ 10008bf0 f i human_Recorder.obj
 0001:00007c20       ??1?$_Yarn@D@std@@QAE@XZ   10008c20 f i human_Recorder.obj
 0001:00007c50       ??1?$_Yarn@_W@std@@QAE@XZ  10008c50 f i human_Recorder.obj
 0001:00007c80       ??1?$basic_filebuf@DU?$char_traits@D@std@@@std@@UAE@XZ 10008c80 f i human_Recorder.obj
 0001:00007ce0       ??1?$basic_ios@DU?$char_traits@D@std@@@std@@UAE@XZ 10008ce0 f i human_Recorder.obj
 0001:00007d10       ??1?$basic_ofstream@DU?$char_traits@D@std@@@std@@UAE@XZ 10008d10 f i human_Recorder.obj
 0001:00007d80       ??1?$basic_ostream@DU?$char_traits@D@std@@@std@@UAE@XZ 10008d80 f i human_Recorder.obj
 0001:00007dd0       ??1?$basic_streambuf@DU?$char_traits@D@std@@@std@@UAE@XZ 10008dd0 f i human_Recorder.obj
 0001:00007e10       ??1?$basic_string@DU?$char_traits@D@std@@V?$allocator@D@2@@std@@QAE@XZ 10008e10 f i human_Recorder.obj
 0001:00007e40       ??1?$codecvt@DDH@std@@MAE@XZ 10008e40 f i human_Recorder.obj
 0001:00007e70       ??1?$ctype@D@std@@MAE@XZ   10008e70 f i human_Recorder.obj
 0001:00007eb0       ??1?$num_put@DV?$ostreambuf_iterator@DU?$char_traits@D@std@@@std@@@std@@MAE@XZ 10008eb0 f i human_Recorder.obj
 0001:00007ee0       ??1?$numpunct@D@std@@MAE@XZ 10008ee0 f i human_Recorder.obj
 0001:00007f20       ??1_Container_base12@std@@QAE@XZ 10008f20 f i human_Recorder.obj
 0001:00007f50       ??1_Facet_base@std@@UAE@XZ 10008f50 f i human_Recorder.obj
 0001:00007f70       ??1_Generic_error_category@std@@UAE@XZ 10008f70 f i human_Recorder.obj
 0001:00007fa0       ??1_Iostream_error_category@std@@UAE@XZ 10008fa0 f i human_Recorder.obj
 0001:00007fd0       ??1_Iterator_base12@std@@QAE@XZ 10008fd0 f i human_Recorder.obj
 0001:00008040       ??1_Locinfo@std@@QAE@XZ    10009040 f i human_Recorder.obj
 0001:000080c0       ??1_Sentry_base@?$basic_ostream@DU?$char_traits@D@std@@@std@@QAE@XZ 100090c0 f i human_Recorder.obj
 0001:00008140       ??1_System_error_category@std@@UAE@XZ 10009140 f i human_Recorder.obj
 0001:00008170       ??1codecvt_base@std@@UAE@XZ 10009170 f i human_Recorder.obj
 0001:000081a0       ??1ctype_base@std@@UAE@XZ  100091a0 f i human_Recorder.obj
 0001:000081d0       ??1error_category@std@@UAE@XZ 100091d0 f i human_Recorder.obj
 0001:000081f0       ??1facet@locale@std@@MAE@XZ 100091f0 f i human_Recorder.obj
 0001:00008220       ??1failure@ios_base@std@@UAE@XZ 10009220 f i human_Recorder.obj
 0001:00008250       ??1ios_base@std@@UAE@XZ    10009250 f i human_Recorder.obj
 0001:00008290       ??1locale@std@@QAE@XZ      10009290 f i human_Recorder.obj
 0001:000082e0       ??1runtime_error@std@@UAE@XZ 100092e0 f i human_Recorder.obj
 0001:00008310       ??1sentry@?$basic_ostream@DU?$char_traits@D@std@@@std@@QAE@XZ 10009310 f i human_Recorder.obj
 0001:00008350       ??1system_error@std@@UAE@XZ 10009350 f i human_Recorder.obj
 0001:00008380       ??2@YAPAXIPAX@Z            10009380 f i human_Recorder.obj
 0001:00008390       ??2facet@locale@std@@SAPAXIABU_DebugHeapTag_t@2@PADH@Z 10009390 f i human_Recorder.obj
 0001:000083c0       ??3@YAXPAX0@Z              100093c0 f i human_Recorder.obj
 0001:000083d0       ??3facet@locale@std@@SAXPAX@Z 100093d0 f i human_Recorder.obj
 0001:000083f0       ??3facet@locale@std@@SAXPAXABU_DebugHeapTag_t@2@PADH@Z 100093f0 f i human_Recorder.obj
 0001:00008410       ??4?$basic_string@DU?$char_traits@D@std@@V?$allocator@D@2@@std@@QAEAAV01@ABV01@@Z 10009410 f i human_Recorder.obj
 0001:000084a0       ??4?$ostreambuf_iterator@DU?$char_traits@D@std@@@std@@QAEAAV01@D@Z 100094a0 f i human_Recorder.obj
 0001:00008520       ??6?$basic_ostream@DU?$char_traits@D@std@@@std@@QAEAAV01@H@Z 10009520 f i human_Recorder.obj
 0001:00008740       ??6?$basic_ostream@DU?$char_traits@D@std@@@std@@QAEAAV01@M@Z 10009740 f i human_Recorder.obj
 0001:00008930       ??6?$basic_ostream@DU?$char_traits@D@std@@@std@@QAEAAV01@N@Z 10009930 f i human_Recorder.obj
 0001:00008b20       ??6?$basic_ostream@DU?$char_traits@D@std@@@std@@QAEAAV01@P6AAAV01@AAV01@@Z@Z 10009b20 f i human_Recorder.obj
 0001:00008b70       ??8error_category@std@@QBE_NABV01@@Z 10009b70 f i human_Recorder.obj
 0001:00008bb0       ??8error_condition@std@@QBE_NABV01@@Z 10009bb0 f i human_Recorder.obj
 0001:00008c30       ??A?$basic_string@DU?$char_traits@D@std@@V?$allocator@D@2@@std@@QAEAADI@Z 10009c30 f i human_Recorder.obj
 0001:00008c80       ??A?$basic_string@DU?$char_traits@D@std@@V?$allocator@D@2@@std@@QBEABDI@Z 10009c80 f i human_Recorder.obj
 0001:00008cd0       ??B?$fpos@H@std@@QBE_JXZ   10009cd0 f i human_Recorder.obj
 0001:00008d00       ??Bid@locale@std@@QAEIXZ   10009d00 f i human_Recorder.obj
 0001:00008da0       ??Bsentry@?$basic_ostream@DU?$char_traits@D@std@@@std@@QBEPQ?$_Bool_struct@V?$basic_ostream@DU?$char_traits@D@std@@@std@@@2@HXZ 10009da0 f i human_Recorder.obj
 0001:00008de0       ??D?$_String_const_iterator@V?$_String_val@U?$_Simple_types@D@std@@@std@@@std@@QBEABDXZ 10009de0 f i human_Recorder.obj
 0001:00008ec0       ??D?$_String_iterator@V?$_String_val@U?$_Simple_types@D@std@@@std@@@std@@QBEAADXZ 10009ec0 f i human_Recorder.obj
 0001:00008ef0       ??D?$ostreambuf_iterator@DU?$char_traits@D@std@@@std@@QAEAAV01@XZ 10009ef0 f i human_Recorder.obj
 0001:00008f10       ??E?$ostreambuf_iterator@DU?$char_traits@D@std@@@std@@QAEAAV01@XZ 10009f10 f i human_Recorder.obj
 0001:00008f30       ??_D?$basic_ofstream@DU?$char_traits@D@std@@@std@@QAEXXZ 10009f30 f i human_Recorder.obj
 0001:00008f70       ??_D?$basic_ostream@DU?$char_traits@D@std@@@std@@QAEXXZ 10009f70 f i human_Recorder.obj
 0001:00008fa2       ??_E?$basic_ofstream@DU?$char_traits@D@std@@@std@@$4PPPPPPPM@A@AEPAXI@Z 10009fa2 f i human_Recorder.obj
 0001:00008faa       ??_E?$basic_ostream@DU?$char_traits@D@std@@@std@@$4PPPPPPPM@A@AEPAXI@Z 10009faa f i human_Recorder.obj
 0001:00008fc0       ??_E?$basic_filebuf@DU?$char_traits@D@std@@@std@@UAEPAXI@Z 10009fc0 f i human_Recorder.obj
 0001:00008fc0       ??_G?$basic_filebuf@DU?$char_traits@D@std@@@std@@UAEPAXI@Z 10009fc0 f i human_Recorder.obj
 0001:00009000       ??_E?$basic_ios@DU?$char_traits@D@std@@@std@@UAEPAXI@Z 1000a000 f i human_Recorder.obj
 0001:00009000       ??_G?$basic_ios@DU?$char_traits@D@std@@@std@@UAEPAXI@Z 1000a000 f i human_Recorder.obj
 0001:00009040       ??_E?$basic_ofstream@DU?$char_traits@D@std@@@std@@UAEPAXI@Z 1000a040 f i human_Recorder.obj
 0001:00009040       ??_G?$basic_ofstream@DU?$char_traits@D@std@@@std@@UAEPAXI@Z 1000a040 f i human_Recorder.obj
 0001:00009090       ??_G?$basic_ostream@DU?$char_traits@D@std@@@std@@UAEPAXI@Z 1000a090 f i human_Recorder.obj
 0001:00009090       ??_E?$basic_ostream@DU?$char_traits@D@std@@@std@@UAEPAXI@Z 1000a090 f i human_Recorder.obj
 0001:000090e0       ??_E?$basic_streambuf@DU?$char_traits@D@std@@@std@@UAEPAXI@Z 1000a0e0 f i human_Recorder.obj
 0001:000090e0       ??_G?$basic_streambuf@DU?$char_traits@D@std@@@std@@UAEPAXI@Z 1000a0e0 f i human_Recorder.obj
 0001:00009120       ??_G?$codecvt@DDH@std@@MAEPAXI@Z 1000a120 f i human_Recorder.obj
 0001:00009120       ??_E?$codecvt@DDH@std@@MAEPAXI@Z 1000a120 f i human_Recorder.obj
 0001:00009160       ??_E?$ctype@D@std@@MAEPAXI@Z 1000a160 f i human_Recorder.obj
 0001:00009160       ??_G?$ctype@D@std@@MAEPAXI@Z 1000a160 f i human_Recorder.obj
 0001:000091a0       ??_E?$num_put@DV?$ostreambuf_iterator@DU?$char_traits@D@std@@@std@@@std@@MAEPAXI@Z 1000a1a0 f i human_Recorder.obj
 0001:000091a0       ??_G?$num_put@DV?$ostreambuf_iterator@DU?$char_traits@D@std@@@std@@@std@@MAEPAXI@Z 1000a1a0 f i human_Recorder.obj
 0001:000091e0       ??_G?$numpunct@D@std@@MAEPAXI@Z 1000a1e0 f i human_Recorder.obj
 0001:000091e0       ??_E?$numpunct@D@std@@MAEPAXI@Z 1000a1e0 f i human_Recorder.obj
 0001:00009220       ??_GMyCar@@QAEPAXI@Z       1000a220 f i human_Recorder.obj
 0001:00009260       ??_GSensors@@QAEPAXI@Z     1000a260 f i human_Recorder.obj
 0001:000092a0       ??_GTrackDesc@@QAEPAXI@Z   1000a2a0 f i human_Recorder.obj
 0001:000092e0       ??_E_Facet_base@std@@UAEPAXI@Z 1000a2e0 f i human_Recorder.obj
 0001:000092e0       ??_G_Facet_base@std@@UAEPAXI@Z 1000a2e0 f i human_Recorder.obj
 0001:00009320       ??_E_Generic_error_category@std@@UAEPAXI@Z 1000a320 f i human_Recorder.obj
 0001:00009320       ??_G_Generic_error_category@std@@UAEPAXI@Z 1000a320 f i human_Recorder.obj
 0001:00009360       ??_E_Iostream_error_category@std@@UAEPAXI@Z 1000a360 f i human_Recorder.obj
 0001:00009360       ??_G_Iostream_error_category@std@@UAEPAXI@Z 1000a360 f i human_Recorder.obj
 0001:000093a0       ??_E_System_error_category@std@@UAEPAXI@Z 1000a3a0 f i human_Recorder.obj
 0001:000093a0       ??_G_System_error_category@std@@UAEPAXI@Z 1000a3a0 f i human_Recorder.obj
 0001:000093e0       ??_Gcodecvt_base@std@@UAEPAXI@Z 1000a3e0 f i human_Recorder.obj
 0001:000093e0       ??_Ecodecvt_base@std@@UAEPAXI@Z 1000a3e0 f i human_Recorder.obj
 0001:00009420       ??_Gctype_base@std@@UAEPAXI@Z 1000a420 f i human_Recorder.obj
 0001:00009420       ??_Ectype_base@std@@UAEPAXI@Z 1000a420 f i human_Recorder.obj
 0001:00009460       ??_Eerror_category@std@@UAEPAXI@Z 1000a460 f i human_Recorder.obj
 0001:00009460       ??_Gerror_category@std@@UAEPAXI@Z 1000a460 f i human_Recorder.obj
 0001:000094a0       ??_Gfacet@locale@std@@MAEPAXI@Z 1000a4a0 f i human_Recorder.obj
 0001:000094a0       ??_Efacet@locale@std@@MAEPAXI@Z 1000a4a0 f i human_Recorder.obj
 0001:000094e0       ??_Efailure@ios_base@std@@UAEPAXI@Z 1000a4e0 f i human_Recorder.obj
 0001:000094e0       ??_Gfailure@ios_base@std@@UAEPAXI@Z 1000a4e0 f i human_Recorder.obj
 0001:00009520       ??_Eios_base@std@@UAEPAXI@Z 1000a520 f i human_Recorder.obj
 0001:00009520       ??_Gios_base@std@@UAEPAXI@Z 1000a520 f i human_Recorder.obj
 0001:00009560       ??_Glocale@std@@QAEPAXI@Z  1000a560 f i human_Recorder.obj
 0001:000095a0       ??_Eruntime_error@std@@UAEPAXI@Z 1000a5a0 f i human_Recorder.obj
 0001:000095a0       ??_Gruntime_error@std@@UAEPAXI@Z 1000a5a0 f i human_Recorder.obj
 0001:000095e0       ??_Esystem_error@std@@UAEPAXI@Z 1000a5e0 f i human_Recorder.obj
 0001:000095e0       ??_Gsystem_error@std@@UAEPAXI@Z 1000a5e0 f i human_Recorder.obj
 0001:00009620       ?_Add_vtordisp1@?$basic_ios@DU?$char_traits@D@std@@@std@@UAEXXZ 1000a620 f i human_Recorder.obj
 0001:00009640       ?_Add_vtordisp2@?$basic_ios@DU?$char_traits@D@std@@@std@@UAEXXZ 1000a640 f i human_Recorder.obj
 0001:00009652       ?_Add_vtordisp2@?$basic_ostream@DU?$char_traits@D@std@@@std@@$4PPPPPPPM@A@AEXXZ 1000a652 f i human_Recorder.obj
 0001:0000965a       ?_Add_vtordisp2@?$basic_ostream@DU?$char_traits@D@std@@@std@@$4PPPPPPPM@FI@AEXXZ 1000a65a f i human_Recorder.obj
 0001:00009670       ?_Add_vtordisp2@?$basic_ostream@DU?$char_traits@D@std@@@std@@UAEXXZ 1000a670 f i human_Recorder.obj
 0001:00009690       ?_Adopt@_Iterator_base12@std@@QAEXPBU_Container_base12@2@@Z 1000a690 f i human_Recorder.obj
 0001:000097c0       ?_Alloc_proxy@?$_String_alloc@$0A@U?$_String_base_types@DV?$allocator@D@std@@@std@@@std@@QAEXXZ 1000a7c0 f i human_Recorder.obj
 0001:00009860       ?_Assign_rv@?$basic_string@DU?$char_traits@D@std@@V?$allocator@D@2@@std@@QAEX$$QAV12@@Z 1000a860 f i human_Recorder.obj
 0001:00009910       ?_Change_alloc@?$_String_alloc@$0A@U?$_String_base_types@DV?$allocator@D@std@@@std@@@std@@QAEXABU?$_Wrap_alloc@V?$allocator@D@std@@@2@@Z 1000a910 f i human_Recorder.obj
 0001:00009930       ?_Chassign@?$basic_string@DU?$char_traits@D@std@@V?$allocator@D@2@@std@@QAEXIID@Z 1000a930 f i human_Recorder.obj
 0001:00009990       ?_Copy@?$basic_string@DU?$char_traits@D@std@@V?$allocator@D@2@@std@@QAEXII@Z 1000a990 f i human_Recorder.obj
 0001:00009b90       ?_Decref@facet@locale@std@@UAEPAV_Facet_base@3@XZ 1000ab90 f i human_Recorder.obj
 0001:00009bc0       ?_Endwrite@?$basic_filebuf@DU?$char_traits@D@std@@@std@@IAE_NXZ 1000abc0 f i human_Recorder.obj
 0001:00009f60       ?_Eos@?$basic_string@DU?$char_traits@D@std@@V?$allocator@D@2@@std@@QAEXI@Z 1000af60 f i human_Recorder.obj
 0001:00009fb0       ?_Ffmt@?$num_put@DV?$ostreambuf_iterator@DU?$char_traits@D@std@@@std@@@std@@ABAPADPADDH@Z 1000afb0 f i human_Recorder.obj
 0001:0000a100       ?_Fput@?$num_put@DV?$ostreambuf_iterator@DU?$char_traits@D@std@@@std@@@std@@ABA?AV?$ostreambuf_iterator@DU?$char_traits@D@std@@@2@V32@AAVios_base@2@DPBDIIII@Z 1000b100 f i human_Recorder.obj
 0001:0000a760       ?_Free_proxy@?$_String_alloc@$0A@U?$_String_base_types@DV?$allocator@D@std@@@std@@@std@@QAEXXZ 1000b760 f i human_Recorder.obj
 0001:0000a7f0       ?_Getal@?$_String_alloc@$0A@U?$_String_base_types@DV?$allocator@D@std@@@std@@@std@@QBE?AU?$_Wrap_alloc@V?$allocator@D@std@@@2@XZ 1000b7f0 f i human_Recorder.obj
 0001:0000a820       ?_Getcat@?$codecvt@DDH@std@@SAIPAPBVfacet@locale@2@PBV42@@Z 1000b820 f i human_Recorder.obj
 0001:0000a940       ?_Getcat@?$ctype@D@std@@SAIPAPBVfacet@locale@2@PBV42@@Z 1000b940 f i human_Recorder.obj
 0001:0000aa60       ?_Getcat@?$num_put@DV?$ostreambuf_iterator@DU?$char_traits@D@std@@@std@@@std@@SAIPAPBVfacet@locale@2@PBV42@@Z 1000ba60 f i human_Recorder.obj
 0001:0000ab80       ?_Getcat@?$numpunct@D@std@@SAIPAPBVfacet@locale@2@PBV42@@Z 1000bb80 f i human_Recorder.obj
 0001:0000aca0       ?_Getcont@_Iterator_base12@std@@QBEPBU_Container_base12@2@XZ 1000bca0 f i human_Recorder.obj
 0001:0000ace0       ?_Getctype@_Locinfo@std@@QBE?AU_Ctypevec@@XZ 1000bce0 f i human_Recorder.obj
 0001:0000ad60       ?_Getcvt@_Locinfo@std@@QBE?AU_Cvtvec@@XZ 1000bd60 f i human_Recorder.obj
 0001:0000add0       ?_Getfacet@locale@std@@QBEPBVfacet@12@I@Z 1000bdd0 f i human_Recorder.obj
 0001:0000ae80       ?_Getfalse@_Locinfo@std@@QBEPBDXZ 1000be80 f i human_Recorder.obj
 0001:0000aea0       ?_Getlconv@_Locinfo@std@@QBEPBUlconv@@XZ 1000bea0 f i human_Recorder.obj
 0001:0000aed0       ?_Gettrue@_Locinfo@std@@QBEPBDXZ 1000bed0 f i human_Recorder.obj
 0001:0000aef0       ?_Gnavail@?$basic_streambuf@DU?$char_traits@D@std@@@std@@IBE_JXZ 1000bef0 f i human_Recorder.obj
 0001:0000af30       ?_Gndec@?$basic_streambuf@DU?$char_traits@D@std@@@std@@IAEPADXZ 1000bf30 f i human_Recorder.obj
 0001:0000af80       ?_Gninc@?$basic_streambuf@DU?$char_traits@D@std@@@std@@IAEPADXZ 1000bf80 f i human_Recorder.obj
 0001:0000afd0       ?_Grow@?$basic_string@DU?$char_traits@D@std@@V?$allocator@D@2@@std@@QAE_NI_N@Z 1000bfd0 f i human_Recorder.obj
 0001:0000b0a0       ?_Ifmt@?$num_put@DV?$ostreambuf_iterator@DU?$char_traits@D@std@@@std@@@std@@ABAPADPADPBDH@Z 1000c0a0 f i human_Recorder.obj
 0001:0000b1d0       ?_Incref@facet@locale@std@@UAEXXZ 1000c1d0 f i human_Recorder.obj
 0001:0000b200       ?_Init@?$basic_filebuf@DU?$char_traits@D@std@@@std@@IAEXPAU_iobuf@@W4_Initfl@12@@Z 1000c200 f i human_Recorder.obj
 0001:0000b2d0       ?_Init@?$basic_streambuf@DU?$char_traits@D@std@@@std@@IAEXPAPAD0PAH001@Z 1000c2d0 f i human_Recorder.obj
 0001:0000b320       ?_Init@?$basic_streambuf@DU?$char_traits@D@std@@@std@@IAEXXZ 1000c320 f i human_Recorder.obj
 0001:0000b3a0       ?_Init@?$codecvt@DDH@std@@IAEXABV_Locinfo@2@@Z 1000c3a0 f i human_Recorder.obj
 0001:0000b3c0       ?_Init@?$ctype@D@std@@IAEXABV_Locinfo@2@@Z 1000c3c0 f i human_Recorder.obj
 0001:0000b420       ?_Init@?$num_put@DV?$ostreambuf_iterator@DU?$char_traits@D@std@@@std@@@std@@IAEXABV_Locinfo@2@@Z 1000c420 f i human_Recorder.obj
 0001:0000b440       ?_Init@?$numpunct@D@std@@IAEXABV_Locinfo@2@_N@Z 1000c440 f i human_Recorder.obj
 0001:0000b660       ?_Init@ios_base@std@@IAEXXZ 1000c660 f i human_Recorder.obj
 0001:0000b740       ?_Init_atomic_counter@std@@YAXAAKK@Z 1000c740 f i human_Recorder.obj
 0001:0000b750       ?_Initcvt@?$basic_filebuf@DU?$char_traits@D@std@@@std@@IAEXPBV?$codecvt@DDH@2@@Z 1000c750 f i human_Recorder.obj
 0001:0000b7a0       ?_Inside@?$basic_string@DU?$char_traits@D@std@@V?$allocator@D@2@@std@@QAE_NPBD@Z 1000c7a0 f i human_Recorder.obj
 0001:0000b7f0       ?_Iput@?$num_put@DV?$ostreambuf_iterator@DU?$char_traits@D@std@@@std@@@std@@ABA?AV?$ostreambuf_iterator@DU?$char_traits@D@std@@@2@V32@AAVios_base@2@DPADI@Z 1000c7f0 f i human_Recorder.obj
 0001:0000bcd0       ?_Lock@?$basic_filebuf@DU?$char_traits@D@std@@@std@@UAEXXZ 1000ccd0 f i human_Recorder.obj
 0001:0000bd10       ?_Lock@?$basic_streambuf@DU?$char_traits@D@std@@@std@@UAEXXZ 1000cd10 f i human_Recorder.obj
 0001:0000bd30       ?_Makestr@system_error@std@@AAEXXZ 1000cd30 f i human_Recorder.obj
 0001:0000bd50       ?_Myptr@?$_String_val@U?$_Simple_types@D@std@@@std@@QAEPADXZ 1000cd50 f i human_Recorder.obj
 0001:0000bda0       ?_Myptr@?$_String_val@U?$_Simple_types@D@std@@@std@@QBEPBDXZ 1000cda0 f i human_Recorder.obj
 0001:0000bdf0       ?_Orphan_all@_Container_base12@std@@QAEXXZ 1000cdf0 f i human_Recorder.obj
 0001:0000bea0       ?_Orphan_me@_Iterator_base12@std@@QAEXXZ 1000cea0 f i human_Recorder.obj
 0001:0000bf30       ?_Osfx@?$basic_ostream@DU?$char_traits@D@std@@@std@@QAEXXZ 1000cf30 f i human_Recorder.obj
 0001:0000c020       ?_Pnavail@?$basic_streambuf@DU?$char_traits@D@std@@@std@@IBE_JXZ 1000d020 f i human_Recorder.obj
 0001:0000c060       ?_Pninc@?$basic_streambuf@DU?$char_traits@D@std@@@std@@IAEPADXZ 1000d060 f i human_Recorder.obj
 0001:0000c0b0       ?_Put@?$num_put@DV?$ostreambuf_iterator@DU?$char_traits@D@std@@@std@@@std@@ABA?AV?$ostreambuf_iterator@DU?$char_traits@D@std@@@2@V32@PBDI@Z 1000d0b0 f i human_Recorder.obj
 0001:0000c110       ?_Rep@?$num_put@DV?$ostreambuf_iterator@DU?$char_traits@D@std@@@std@@@std@@ABA?AV?$ostreambuf_iterator@DU?$char_traits@D@std@@@2@V32@DI@Z 1000d110 f i human_Recorder.obj
 0001:0000c160       ?_Reset_back@?$basic_filebuf@DU?$char_traits@D@std@@@std@@AAEXXZ 1000d160 f i human_Recorder.obj
 0001:0000c1b0       ?_Set_back@?$basic_filebuf@DU?$char_traits@D@std@@@std@@AAEXXZ 1000d1b0 f i human_Recorder.obj
 0001:0000c220       ?_Tidy@?$_Yarn@D@std@@AAEXXZ 1000d220 f i human_Recorder.obj
 0001:0000c260       ?_Tidy@?$_Yarn@_W@std@@AAEXXZ 1000d260 f i human_Recorder.obj
 0001:0000c2a0       ?_Tidy@?$basic_string@DU?$char_traits@D@std@@V?$allocator@D@2@@std@@QAEX_NI@Z 1000d2a0 f i human_Recorder.obj
 0001:0000c370       ?_Tidy@?$ctype@D@std@@IAEXXZ 1000d370 f i human_Recorder.obj
 0001:0000c3e0       ?_Tidy@?$numpunct@D@std@@AAEXXZ 1000d3e0 f i human_Recorder.obj
 0001:0000c430       ?_Unlock@?$basic_filebuf@DU?$char_traits@D@std@@@std@@UAEXXZ 1000d430 f i human_Recorder.obj
 0001:0000c470       ?_Unlock@?$basic_streambuf@DU?$char_traits@D@std@@@std@@UAEXXZ 1000d470 f i human_Recorder.obj
 0001:0000c490       ?_Xlen@?$basic_string@DU?$char_traits@D@std@@V?$allocator@D@2@@std@@QBEXXZ 1000d490 f i human_Recorder.obj
 0001:0000c4c0       ?_Xran@?$basic_string@DU?$char_traits@D@std@@V?$allocator@D@2@@std@@QBEXXZ 1000d4c0 f i human_Recorder.obj
 0001:0000c4f0       ?allocate@?$_Wrap_alloc@V?$allocator@D@std@@@std@@QAEPADI@Z 1000d4f0 f i human_Recorder.obj
 0001:0000c520       ?allocate@?$allocator@D@std@@QAEPADI@Z 1000d520 f i human_Recorder.obj
 0001:0000c550       ?allocate@?$allocator@U_Container_proxy@std@@@std@@QAEPAU_Container_proxy@2@I@Z 1000d550 f i human_Recorder.obj
 0001:0000c580       ?always_noconv@codecvt_base@std@@QBE_NXZ 1000d580 f i human_Recorder.obj
 0001:0000c5c0       ?append@?$basic_string@DU?$char_traits@D@std@@V?$allocator@D@2@@std@@QAEAAV12@ID@Z 1000d5c0 f i human_Recorder.obj
 0001:0000c650       ?assign@?$basic_string@DU?$char_traits@D@std@@V?$allocator@D@2@@std@@QAEAAV12@$$QAV12@@Z 1000d650 f i human_Recorder.obj
 0001:0000c6f0       ?assign@?$basic_string@DU?$char_traits@D@std@@V?$allocator@D@2@@std@@QAEAAV12@ABV12@@Z 1000d6f0 f i human_Recorder.obj
 0001:0000c730       ?assign@?$basic_string@DU?$char_traits@D@std@@V?$allocator@D@2@@std@@QAEAAV12@ABV12@II@Z 1000d730 f i human_Recorder.obj
 0001:0000c800       ?assign@?$basic_string@DU?$char_traits@D@std@@V?$allocator@D@2@@std@@QAEAAV12@ID@Z 1000d800 f i human_Recorder.obj
 0001:0000c870       ?assign@?$basic_string@DU?$char_traits@D@std@@V?$allocator@D@2@@std@@QAEAAV12@PBD@Z 1000d870 f i human_Recorder.obj
 0001:0000c8c0       ?assign@?$basic_string@DU?$char_traits@D@std@@V?$allocator@D@2@@std@@QAEAAV12@PBDI@Z 1000d8c0 f i human_Recorder.obj
 0001:0000c970       ?assign@?$char_traits@D@std@@SAPADPADID@Z 1000d970 f i human_Recorder.obj
 0001:0000c9a0       ?assign@?$char_traits@D@std@@SAXAADABD@Z 1000d9a0 f i human_Recorder.obj
 0001:0000c9b0       ?atan2@@YAMMM@Z            1000d9b0 f i human_Recorder.obj
 0001:0000c9e0       ?begin@?$basic_string@DU?$char_traits@D@std@@V?$allocator@D@2@@std@@QAE?AV?$_String_iterator@V?$_String_val@U?$_Simple_types@D@std@@@std@@@2@XZ 1000d9e0 f i human_Recorder.obj
 0001:0000ca20       ?c_str@?$_Yarn@D@std@@QBEPBDXZ 1000da20 f i human_Recorder.obj
 0001:0000ca60       ?c_str@?$basic_string@DU?$char_traits@D@std@@V?$allocator@D@2@@std@@QBEPBDXZ 1000da60 f i human_Recorder.obj
 0001:0000ca90       ?c_str@locale@std@@QBEPBDXZ 1000da90 f i human_Recorder.obj
 0001:0000cae0       ?category@error_code@std@@QBEABVerror_category@2@XZ 1000dae0 f i human_Recorder.obj
 0001:0000cb00       ?category@error_condition@std@@QBEABVerror_category@2@XZ 1000db00 f i human_Recorder.obj
 0001:0000cb20       ?clear@?$basic_ios@DU?$char_traits@D@std@@@std@@QAEXH_N@Z 1000db20 f i human_Recorder.obj
 0001:0000cb80       ?clear@ios_base@std@@QAEXH@Z 1000db80 f i human_Recorder.obj
 0001:0000cbb0       ?clear@ios_base@std@@QAEXH_N@Z 1000dbb0 f i human_Recorder.obj
 0001:0000ccc0       ?close@?$basic_filebuf@DU?$char_traits@D@std@@@std@@QAEPAV12@XZ 1000dcc0 f i human_Recorder.obj
 0001:0000cd40       ?copy@?$char_traits@D@std@@SAPADPADPBDI@Z 1000dd40 f i human_Recorder.obj
 0001:0000cd90       ?cos@@YAMM@Z               1000dd90 f i human_Recorder.obj
 0001:0000cdb0       ?deallocate@?$_Wrap_alloc@V?$allocator@D@std@@@std@@QAEXPADI@Z 1000ddb0 f i human_Recorder.obj
 0001:0000cde0       ?deallocate@?$allocator@D@std@@QAEXPADI@Z 1000dde0 f i human_Recorder.obj
 0001:0000ce10       ?deallocate@?$allocator@U_Container_proxy@std@@@std@@QAEXPAU_Container_proxy@2@I@Z 1000de10 f i human_Recorder.obj
 0001:0000ce40       ?decimal_point@?$numpunct@D@std@@QBEDXZ 1000de40 f i human_Recorder.obj
 0001:0000ce80       ?default_error_condition@_System_error_category@std@@UBE?AVerror_condition@2@H@Z 1000de80 f i human_Recorder.obj
 0001:0000cee0       ?default_error_condition@error_category@std@@UBE?AVerror_condition@2@H@Z 1000dee0 f i human_Recorder.obj
 0001:0000cf20       ?do_always_noconv@?$codecvt@DDH@std@@MBE_NXZ 1000df20 f i human_Recorder.obj
 0001:0000cf40       ?do_always_noconv@codecvt_base@std@@MBE_NXZ 1000df40 f i human_Recorder.obj
 0001:0000cf60       ?do_decimal_point@?$numpunct@D@std@@MBEDXZ 1000df60 f i human_Recorder.obj
 0001:0000cf80       ?do_encoding@codecvt_base@std@@MBEHXZ 1000df80 f i human_Recorder.obj
 0001:0000cfa0       ?do_falsename@?$numpunct@D@std@@MBE?AV?$basic_string@DU?$char_traits@D@std@@V?$allocator@D@2@@2@XZ 1000dfa0 f i human_Recorder.obj
 0001:0000cff0       ?do_grouping@?$numpunct@D@std@@MBE?AV?$basic_string@DU?$char_traits@D@std@@V?$allocator@D@2@@2@XZ 1000dff0 f i human_Recorder.obj
 0001:0000d040       ?do_in@?$codecvt@DDH@std@@MBEHAAHPBD1AAPBDPAD3AAPAD@Z 1000e040 f i human_Recorder.obj
 0001:0000d0c0       ?do_length@?$codecvt@DDH@std@@MBEHAAHPBD1I@Z 1000e0c0 f i human_Recorder.obj
 0001:0000d100       ?do_max_length@codecvt_base@std@@MBEHXZ 1000e100 f i human_Recorder.obj
 0001:0000d120       ?do_narrow@?$ctype@D@std@@MBEDDD@Z 1000e120 f i human_Recorder.obj
 0001:0000d140       ?do_narrow@?$ctype@D@std@@MBEPBDPBD0DPAD@Z 1000e140 f i human_Recorder.obj
 0001:0000d1b0       ?do_out@?$codecvt@DDH@std@@MBEHAAHPBD1AAPBDPAD3AAPAD@Z 1000e1b0 f i human_Recorder.obj
 0001:0000d230       ?do_put@?$num_put@DV?$ostreambuf_iterator@DU?$char_traits@D@std@@@std@@@std@@MBE?AV?$ostreambuf_iterator@DU?$char_traits@D@std@@@2@V32@AAVios_base@2@DJ@Z 1000e230 f i human_Recorder.obj
 0001:0000d310       ?do_put@?$num_put@DV?$ostreambuf_iterator@DU?$char_traits@D@std@@@std@@@std@@MBE?AV?$ostreambuf_iterator@DU?$char_traits@D@std@@@2@V32@AAVios_base@2@DK@Z 1000e310 f i human_Recorder.obj
 0001:0000d3f0       ?do_put@?$num_put@DV?$ostreambuf_iterator@DU?$char_traits@D@std@@@std@@@std@@MBE?AV?$ostreambuf_iterator@DU?$char_traits@D@std@@@2@V32@AAVios_base@2@DN@Z 1000e3f0 f i human_Recorder.obj
 0001:0000d740       ?do_put@?$num_put@DV?$ostreambuf_iterator@DU?$char_traits@D@std@@@std@@@std@@MBE?AV?$ostreambuf_iterator@DU?$char_traits@D@std@@@2@V32@AAVios_base@2@DO@Z 1000e740 f i human_Recorder.obj
 0001:0000da80       ?do_put@?$num_put@DV?$ostreambuf_iterator@DU?$char_traits@D@std@@@std@@@std@@MBE?AV?$ostreambuf_iterator@DU?$char_traits@D@std@@@2@V32@AAVios_base@2@DPBX@Z 1000ea80 f i human_Recorder.obj
 0001:0000db30       ?do_put@?$num_put@DV?$ostreambuf_iterator@DU?$char_traits@D@std@@@std@@@std@@MBE?AV?$ostreambuf_iterator@DU?$char_traits@D@std@@@2@V32@AAVios_base@2@D_J@Z 1000eb30 f i human_Recorder.obj
 0001:0000dc10       ?do_put@?$num_put@DV?$ostreambuf_iterator@DU?$char_traits@D@std@@@std@@@std@@MBE?AV?$ostreambuf_iterator@DU?$char_traits@D@std@@@2@V32@AAVios_base@2@D_K@Z 1000ec10 f i human_Recorder.obj
 0001:0000dcf0       ?do_put@?$num_put@DV?$ostreambuf_iterator@DU?$char_traits@D@std@@@std@@@std@@MBE?AV?$ostreambuf_iterator@DU?$char_traits@D@std@@@2@V32@AAVios_base@2@D_N@Z 1000ecf0 f i human_Recorder.obj
 0001:0000dfd0       ?do_thousands_sep@?$numpunct@D@std@@MBEDXZ 1000efd0 f i human_Recorder.obj
 0001:0000dff0       ?do_tolower@?$ctype@D@std@@MBEDD@Z 1000eff0 f i human_Recorder.obj
 0001:0000e030       ?do_tolower@?$ctype@D@std@@MBEPBDPADPBD@Z 1000f030 f i human_Recorder.obj
 0001:0000e0a0       ?do_toupper@?$ctype@D@std@@MBEDD@Z 1000f0a0 f i human_Recorder.obj
 0001:0000e0e0       ?do_toupper@?$ctype@D@std@@MBEPBDPADPBD@Z 1000f0e0 f i human_Recorder.obj
 0001:0000e150       ?do_truename@?$numpunct@D@std@@MBE?AV?$basic_string@DU?$char_traits@D@std@@V?$allocator@D@2@@2@XZ 1000f150 f i human_Recorder.obj
 0001:0000e1a0       ?do_unshift@?$codecvt@DDH@std@@MBEHAAHPAD1AAPAD@Z 1000f1a0 f i human_Recorder.obj
 0001:0000e1c0       ?do_widen@?$ctype@D@std@@MBEDD@Z 1000f1c0 f i human_Recorder.obj
 0001:0000e1e0       ?do_widen@?$ctype@D@std@@MBEPBDPBD0PAD@Z 1000f1e0 f i human_Recorder.obj
 0001:0000e250       ?eback@?$basic_streambuf@DU?$char_traits@D@std@@@std@@IBEPADXZ 1000f250 f i human_Recorder.obj
 0001:0000e270       ?egptr@?$basic_streambuf@DU?$char_traits@D@std@@@std@@IBEPADXZ 1000f270 f i human_Recorder.obj
 0001:0000e2a0       ?endl@std@@YAAAV?$basic_ostream@DU?$char_traits@D@std@@@1@AAV21@@Z 1000f2a0 f i human_Recorder.obj
 0001:0000e2d0       ?eof@?$char_traits@D@std@@SAHXZ 1000f2d0 f i human_Recorder.obj
 0001:0000e2e0       ?epptr@?$basic_streambuf@DU?$char_traits@D@std@@@std@@IBEPADXZ 1000f2e0 f i human_Recorder.obj
 0001:0000e310       ?eq_int_type@?$char_traits@D@std@@SA_NABH0@Z 1000f310 f i human_Recorder.obj
 0001:0000e340       ?equivalent@error_category@std@@UBE_NABVerror_code@2@H@Z 1000f340 f i human_Recorder.obj
 0001:0000e3a0       ?equivalent@error_category@std@@UBE_NHABVerror_condition@2@@Z 1000f3a0 f i human_Recorder.obj
 0001:0000e400       ?erase@?$basic_string@DU?$char_traits@D@std@@V?$allocator@D@2@@std@@QAEAAV12@I@Z 1000f400 f i human_Recorder.obj
 0001:0000e440       ?erase@?$basic_string@DU?$char_traits@D@std@@V?$allocator@D@2@@std@@QAEAAV12@II@Z 1000f440 f i human_Recorder.obj
 0001:0000e4f0       ?fabs@@YAMM@Z              1000f4f0 f i human_Recorder.obj
 0001:0000e510       ?failed@?$ostreambuf_iterator@DU?$char_traits@D@std@@@std@@QBE_NXZ 1000f510 f i human_Recorder.obj
 0001:0000e530       ?falsename@?$numpunct@D@std@@QBE?AV?$basic_string@DU?$char_traits@D@std@@V?$allocator@D@2@@2@XZ 1000f530 f i human_Recorder.obj
 0001:0000e590       ?fill@?$basic_ios@DU?$char_traits@D@std@@@std@@QBEDXZ 1000f590 f i human_Recorder.obj
 0001:0000e5b0       ?flags@ios_base@std@@QBEHXZ 1000f5b0 f i human_Recorder.obj
 0001:0000e5d0       ?flush@?$basic_ostream@DU?$char_traits@D@std@@@std@@QAEAAV12@XZ 1000f5d0 f i human_Recorder.obj
 0001:0000e6d0       ?gbump@?$basic_streambuf@DU?$char_traits@D@std@@@std@@IAEXH@Z 1000f6d0 f i human_Recorder.obj
 0001:0000e710       ?generic_category@std@@YAABVerror_category@1@XZ 1000f710 f i human_Recorder.obj
 0001:0000e720       ?getDeltaPitch@MyCar@@QAENXZ 1000f720 f i human_Recorder.obj
 0001:0000e740       ?getLoc@PathSeg@@QAEPAVv3d@@XZ 1000f740 f i human_Recorder.obj
 0001:0000e760       ?getSpeed@AbstractCar@@QAENXZ 1000f760 f i human_Recorder.obj
 0001:0000e780       ?get_allocator@?$basic_string@DU?$char_traits@D@std@@V?$allocator@D@2@@std@@QBE?AV?$allocator@D@2@XZ 1000f780 f i human_Recorder.obj
 0001:0000e7c0       ?getloc@?$basic_streambuf@DU?$char_traits@D@std@@@std@@QBE?AVlocale@2@XZ 1000f7c0 f i human_Recorder.obj
 0001:0000e810       ?getloc@ios_base@std@@QBE?AVlocale@2@XZ 1000f810 f i human_Recorder.obj
 0001:0000e860       ?good@ios_base@std@@QBE_NXZ 1000f860 f i human_Recorder.obj
 0001:0000e8b0       ?gptr@?$basic_streambuf@DU?$char_traits@D@std@@@std@@IBEPADXZ 1000f8b0 f i human_Recorder.obj
 0001:0000e8d0       ?grouping@?$numpunct@D@std@@QBE?AV?$basic_string@DU?$char_traits@D@std@@V?$allocator@D@2@@2@XZ 1000f8d0 f i human_Recorder.obj
 0001:0000e930       ?imbue@?$basic_filebuf@DU?$char_traits@D@std@@@std@@MAEXABVlocale@2@@Z 1000f930 f i human_Recorder.obj
 0001:0000e970       ?imbue@?$basic_streambuf@DU?$char_traits@D@std@@@std@@MAEXABVlocale@2@@Z 1000f970 f i human_Recorder.obj
 0001:0000e990       ?in@?$codecvt@DDH@std@@QBEHAAHPBD1AAPBDPAD3AAPAD@Z 1000f990 f i human_Recorder.obj
 0001:0000e9f0       ?init@?$basic_ios@DU?$char_traits@D@std@@@std@@IAEXPAV?$basic_streambuf@DU?$char_traits@D@std@@@2@_N@Z 1000f9f0 f i human_Recorder.obj
 0001:0000ea70       ?insert@?$basic_string@DU?$char_traits@D@std@@V?$allocator@D@2@@std@@QAEAAV12@IID@Z 1000fa70 f i human_Recorder.obj
 0001:0000eb40       ?iostream_category@std@@YAABVerror_category@1@XZ 1000fb40 f i human_Recorder.obj
 0001:0000eb50       ?length@?$char_traits@D@std@@SAIPBD@Z 1000fb50 f i human_Recorder.obj
 0001:0000eb90       ?make_error_code@std@@YA?AVerror_code@1@W4io_errc@31@@Z 1000fb90 f i human_Recorder.obj
 0001:0000ebc0       ?max_size@?$_Wrap_alloc@V?$allocator@D@std@@@std@@QBEIXZ 1000fbc0 f i human_Recorder.obj
 0001:0000ebf0       ?max_size@?$allocator@D@std@@QBEIXZ 1000fbf0 f i human_Recorder.obj
 0001:0000ec10       ?max_size@?$allocator_traits@V?$allocator@D@std@@@std@@SAIABV?$allocator@D@2@@Z 1000fc10 f i human_Recorder.obj
 0001:0000ec30       ?max_size@?$basic_string@DU?$char_traits@D@std@@V?$allocator@D@2@@std@@QBEIXZ 1000fc30 f i human_Recorder.obj
 0001:0000ec90       ?message@_Generic_error_category@std@@UBE?AV?$basic_string@DU?$char_traits@D@std@@V?$allocator@D@2@@2@H@Z 1000fc90 f i human_Recorder.obj
 0001:0000ed00       ?message@_Iostream_error_category@std@@UBE?AV?$basic_string@DU?$char_traits@D@std@@V?$allocator@D@2@@2@H@Z 1000fd00 f i human_Recorder.obj
 0001:0000ed70       ?message@_System_error_category@std@@UBE?AV?$basic_string@DU?$char_traits@D@std@@V?$allocator@D@2@@2@H@Z 1000fd70 f i human_Recorder.obj
 0001:0000ede0       ?move@?$char_traits@D@std@@SAPADPADPBDI@Z 1000fde0 f i human_Recorder.obj
 0001:0000ee30       ?name@_Generic_error_category@std@@UBEPBDXZ 1000fe30 f i human_Recorder.obj
 0001:0000ee50       ?name@_Iostream_error_category@std@@UBEPBDXZ 1000fe50 f i human_Recorder.obj
 0001:0000ee70       ?name@_System_error_category@std@@UBEPBDXZ 1000fe70 f i human_Recorder.obj
 0001:0000ee90       ?not_eof@?$char_traits@D@std@@SAHABH@Z 1000fe90 f i human_Recorder.obj
 0001:0000eef0       ?open@?$basic_filebuf@DU?$char_traits@D@std@@@std@@QAEPAV12@PBDHH@Z 1000fef0 f i human_Recorder.obj
 0001:0000efd0       ?open@?$basic_ofstream@DU?$char_traits@D@std@@@std@@QAEXABV?$basic_string@DU?$char_traits@D@std@@V?$allocator@D@2@@2@HH@Z 1000ffd0 f i human_Recorder.obj
 0001:0000f010       ?open@?$basic_ofstream@DU?$char_traits@D@std@@@std@@QAEXPBDHH@Z 10010010 f i human_Recorder.obj
 0001:0000f080       ?out@?$codecvt@DDH@std@@QBEHAAHPBD1AAPBDPAD3AAPAD@Z 10010080 f i human_Recorder.obj
 0001:0000f0e0       ?overflow@?$basic_filebuf@DU?$char_traits@D@std@@@std@@MAEHH@Z 100100e0 f i human_Recorder.obj
 0001:0000f5d0       ?overflow@?$basic_streambuf@DU?$char_traits@D@std@@@std@@MAEHH@Z 100105d0 f i human_Recorder.obj
 0001:0000f600       ?pbackfail@?$basic_filebuf@DU?$char_traits@D@std@@@std@@MAEHH@Z 10010600 f i human_Recorder.obj
 0001:0000f770       ?pbackfail@?$basic_streambuf@DU?$char_traits@D@std@@@std@@MAEHH@Z 10010770 f i human_Recorder.obj
 0001:0000f7a0       ?pbump@?$basic_streambuf@DU?$char_traits@D@std@@@std@@IAEXH@Z 100107a0 f i human_Recorder.obj
 0001:0000f7e0       ?pow@@YAMMM@Z              100107e0 f i human_Recorder.obj
 0001:0000f810       ?pptr@?$basic_streambuf@DU?$char_traits@D@std@@@std@@IBEPADXZ 10010810 f i human_Recorder.obj
 0001:0000f830       ?precision@ios_base@std@@QBE_JXZ 10010830 f i human_Recorder.obj
 0001:0000f850       ?pubsync@?$basic_streambuf@DU?$char_traits@D@std@@@std@@QAEHXZ 10010850 f i human_Recorder.obj
 0001:0000f890       ?put@?$basic_ostream@DU?$char_traits@D@std@@@std@@QAEAAV12@D@Z 10010890 f i human_Recorder.obj
 0001:0000fa00       ?put@?$num_put@DV?$ostreambuf_iterator@DU?$char_traits@D@std@@@std@@@std@@QBE?AV?$ostreambuf_iterator@DU?$char_traits@D@std@@@2@V32@AAVios_base@2@DJ@Z 10010a00 f i human_Recorder.obj
 0001:0000fa60       ?put@?$num_put@DV?$ostreambuf_iterator@DU?$char_traits@D@std@@@std@@@std@@QBE?AV?$ostreambuf_iterator@DU?$char_traits@D@std@@@2@V32@AAVios_base@2@DN@Z 10010a60 f i human_Recorder.obj
 0001:0000fac0       ?rdbuf@?$basic_ios@DU?$char_traits@D@std@@@std@@QBEPAV?$basic_streambuf@DU?$char_traits@D@std@@@2@XZ 10010ac0 f i human_Recorder.obj
 0001:0000fae0       ?rdstate@ios_base@std@@QBEHXZ 10010ae0 f i human_Recorder.obj
 0001:0000fb00       ?seekoff@?$basic_filebuf@DU?$char_traits@D@std@@@std@@MAE?AV?$fpos@H@2@_JHH@Z 10010b00 f i human_Recorder.obj
 0001:0000fc30       ?seekoff@?$basic_streambuf@DU?$char_traits@D@std@@@std@@MAE?AV?$fpos@H@2@_JHH@Z 10010c30 f i human_Recorder.obj
 0001:0000fc70       ?seekpos@?$basic_filebuf@DU?$char_traits@D@std@@@std@@MAE?AV?$fpos@H@2@V32@H@Z 10010c70 f i human_Recorder.obj
 0001:0000fdb0       ?seekpos@?$basic_streambuf@DU?$char_traits@D@std@@@std@@MAE?AV?$fpos@H@2@V32@H@Z 10010db0 f i human_Recorder.obj
 0001:0000fdf0       ?seekpos@?$fpos@H@std@@QBE_JXZ 10010df0 f i human_Recorder.obj
 0001:0000fe10       ?setbuf@?$basic_filebuf@DU?$char_traits@D@std@@@std@@MAEPAV?$basic_streambuf@DU?$char_traits@D@std@@@2@PAD_J@Z 10010e10 f i human_Recorder.obj
 0001:0000fea0       ?setbuf@?$basic_streambuf@DU?$char_traits@D@std@@@std@@MAEPAV12@PAD_J@Z 10010ea0 f i human_Recorder.obj
 0001:0000fec0       ?setg@?$basic_streambuf@DU?$char_traits@D@std@@@std@@IAEXPAD00@Z 10010ec0 f i human_Recorder.obj
 0001:0000ff00       ?setp@?$basic_streambuf@DU?$char_traits@D@std@@@std@@IAEXPAD0@Z 10010f00 f i human_Recorder.obj
 0001:0000ff40       ?setstate@?$basic_ios@DU?$char_traits@D@std@@@std@@QAEXH_N@Z 10010f40 f i human_Recorder.obj
 0001:0000ff80       ?sgdMakeCoordMat4@@YAXQAY03NPBUsgdCoord@@@Z 10010f80 f i human_Recorder.obj
 0001:0000ffb0       ?sgdMakeCoordMat4@@YAXQAY03NQBN1@Z 10010fb0 f i human_Recorder.obj
 0001:00010060       ?showmanyc@?$basic_streambuf@DU?$char_traits@D@std@@@std@@MAE_JXZ 10011060 f i human_Recorder.obj
 0001:00010080       ?size@?$basic_string@DU?$char_traits@D@std@@V?$allocator@D@2@@std@@QBEIXZ 10011080 f i human_Recorder.obj
 0001:000100a0       ?sputc@?$basic_streambuf@DU?$char_traits@D@std@@@std@@QAEHD@Z 100110a0 f i human_Recorder.obj
 0001:00010140       ?sputn@?$basic_streambuf@DU?$char_traits@D@std@@@std@@QAE_JPBD_J@Z 10011140 f i human_Recorder.obj
 0001:00010190       ?state@?$fpos@H@std@@QBEHXZ 10011190 f i human_Recorder.obj
 0001:000101b0       ?strchr@@YAPADPADH@Z       100111b0 f i human_Recorder.obj
 0001:000101d0       ?strrchr@@YAPADPADH@Z      100111d0 f i human_Recorder.obj
 0001:000101f0       ?sync@?$basic_filebuf@DU?$char_traits@D@std@@@std@@MAEHXZ 100111f0 f i human_Recorder.obj
 0001:00010290       ?sync@?$basic_streambuf@DU?$char_traits@D@std@@@std@@MAEHXZ 10011290 f i human_Recorder.obj
 0001:000102b0       ?system_category@std@@YAABVerror_category@1@XZ 100112b0 f i human_Recorder.obj
 0001:000102c0       ?thousands_sep@?$numpunct@D@std@@QBEDXZ 100112c0 f i human_Recorder.obj
 0001:00010300       ?tie@?$basic_ios@DU?$char_traits@D@std@@@std@@QBEPAV?$basic_ostream@DU?$char_traits@D@std@@@2@XZ 10011300 f i human_Recorder.obj
 0001:00010320       ?to_char_type@?$char_traits@D@std@@SADABH@Z 10011320 f i human_Recorder.obj
 0001:00010330       ?to_int_type@?$char_traits@D@std@@SAHABD@Z 10011330 f i human_Recorder.obj
 0001:00010340       ?truename@?$numpunct@D@std@@QBE?AV?$basic_string@DU?$char_traits@D@std@@V?$allocator@D@2@@2@XZ 10011340 f i human_Recorder.obj
 0001:000103a0       ?uflow@?$basic_filebuf@DU?$char_traits@D@std@@@std@@MAEHXZ 100113a0 f i human_Recorder.obj
 0001:00010830       ?uflow@?$basic_streambuf@DU?$char_traits@D@std@@@std@@MAEHXZ 10011830 f i human_Recorder.obj
 0001:000108c0       ?underflow@?$basic_filebuf@DU?$char_traits@D@std@@@std@@MAEHXZ 100118c0 f i human_Recorder.obj
 0001:000109b0       ?underflow@?$basic_streambuf@DU?$char_traits@D@std@@@std@@MAEHXZ 100119b0 f i human_Recorder.obj
 0001:000109e0       ?unshift@?$codecvt@DDH@std@@QBEHAAHPAD1AAPAD@Z 100119e0 f i human_Recorder.obj
 0001:00010a30       ?value@error_code@std@@QBEHXZ 10011a30 f i human_Recorder.obj
 0001:00010a50       ?value@error_condition@std@@QBEHXZ 10011a50 f i human_Recorder.obj
 0001:00010a70       ?widen@?$basic_ios@DU?$char_traits@D@std@@@std@@QBEDD@Z 10011a70 f i human_Recorder.obj
 0001:00010b10       ?widen@?$ctype@D@std@@QBEDD@Z 10011b10 f i human_Recorder.obj
 0001:00010b50       ?widen@?$ctype@D@std@@QBEPBDPBD0PAD@Z 10011b50 f i human_Recorder.obj
 0001:00010ba0       ?width@ios_base@std@@QAE_J_J@Z 10011ba0 f i human_Recorder.obj
 0001:00010bf0       ?width@ios_base@std@@QBE_JXZ 10011bf0 f i human_Recorder.obj
 0001:00010c10       ?xsgetn@?$basic_streambuf@DU?$char_traits@D@std@@@std@@MAE_JPAD_J@Z 10011c10 f i human_Recorder.obj
 0001:00010db0       ?xsputn@?$basic_streambuf@DU?$char_traits@D@std@@@std@@MAE_JPBD_J@Z 10011db0 f i human_Recorder.obj
 0001:00010f20       _atan2f                    10011f20 f i human_Recorder.obj
 0001:00010f80       _cosf                      10011f80 f i human_Recorder.obj
 0001:00010fe0       _fabsf                     10011fe0 f i human_Recorder.obj
 0001:00011040       _powf                      10012040 f i human_Recorder.obj
 0001:000110a0       ??0MyCar@@QAE@PAVTrackDesc@@PAUCarElt@@PAUSituation@@@Z 100120a0 f   mycar.obj
 0001:00011980       ??1MyCar@@QAE@XZ           10012980 f   mycar.obj
 0001:00011a20       ?info@MyCar@@QAEXXZ        10012a20 f   mycar.obj
 0001:00011bd0       ?update@MyCar@@QAEXPAVTrackDesc@@PAUCarElt@@PAUSituation@@@Z 10012bd0 f   mycar.obj
 0001:00011f30       ?loadBehaviour@MyCar@@QAEXH@Z 10012f30 f   mycar.obj
 0001:00012080       ?querySlipSpeed@MyCar@@QAENPAUCarElt@@@Z 10013080 f   mycar.obj
 0001:00012230       ?queryAcceleration@MyCar@@QAENPAUCarElt@@N@Z 10013230 f   mycar.obj
 0001:00012390       ?updateCa@MyCar@@AAEXXZ    10013390 f   mycar.obj
 0001:00012630       ?updateDError@MyCar@@AAEXXZ 10013630 f   mycar.obj
 0001:000126f0       ?initCarGeometry@MyCar@@AAEXXZ 100136f0 f   mycar.obj
 0001:00012740       ?init@OtherCar@@QAEXPAVTrackDesc@@PAUCarElt@@PAUSituation@@@Z 10013740 f   mycar.obj
 0001:000127c0       ?update@OtherCar@@QAEXXZ   100137c0 f   mycar.obj
 0001:000128c0       ??0AbstractCar@@QAE@XZ     100138c0 f i mycar.obj
 0001:00012900       ??0v3d@@QAE@NNN@Z          10013900 f i mycar.obj
 0001:00012940       ??0v3d@@QAE@XZ             10013940 f i mycar.obj
 0001:00012960       ??1AbstractCar@@QAE@XZ     10013960 f i mycar.obj
 0001:00012980       ??Dv3d@@QAENABV0@@Z        10013980 f i mycar.obj
 0001:000129f0       ??Gv3d@@QAE?AV0@ABV0@@Z    100139f0 f i mycar.obj
 0001:00012a60       ??_GPathfinder@@QAEPAXI@Z  10013a60 f i mycar.obj
 0001:00012aa0       ?crossProduct@v3d@@QAEXPBV1@PAV1@@Z 10013aa0 f i mycar.obj
 0001:00012b40       ?distToMiddleSqr3D@TrackSegment@@QAENNNN@Z 10013b40 f i mycar.obj
 0001:00012c00       ?distToPath@Pathfinder@@QAENHPAVv3d@@@Z 10013c00 f i mycar.obj
 0001:00012d40       ?getCarPtr@AbstractCar@@QAEPAUCarElt@@XZ 10013d40 f i mycar.obj
 0001:00012d60       ?getCurrentSegment@Pathfinder@@QAEHPAUCarElt@@@Z 10013d60 f i mycar.obj
 0001:00012db0       ?getCurrentSegment@Pathfinder@@QAEHPAUCarElt@@H@Z 10013db0 f i mycar.obj
 0001:00012e00       ?getCurrentSegment@TrackDesc@@QAEHPAUCarElt@@HH@Z 10013e00 f i mycar.obj
 0001:00012f20       ?getDir@PathSeg@@QAEPAVv3d@@XZ 10013f20 f i mycar.obj
 0001:00012f40       ?getKgamma@TrackSegment@@QAEMXZ 10013f40 f i mycar.obj
 0001:00012f60       ?getLength@PathSeg@@QAEMXZ 10013f60 f i mycar.obj
 0001:00012f80       ?getPathSeg@Pathfinder@@QAEPAVPathSeg@@H@Z 10013f80 f i mycar.obj
 0001:00012fb0       ?getSegmentPtr@TrackDesc@@QAEPAVTrackSegment@@H@Z 10013fb0 f i mycar.obj
 0001:00012fe0       ?getToRight@TrackSegment@@QAEPAVv3d@@XZ 10013fe0 f i mycar.obj
 0001:00013000       ?getnPathSeg@Pathfinder@@QAEHXZ 10014000 f i mycar.obj
 0001:00013020       ?getnTrackSegments@TrackDesc@@QAEHXZ 10014020 f i mycar.obj
 0001:00013040       ?initCGh@AbstractCar@@IAEXXZ 10014040 f i mycar.obj
 0001:00013090       ?len@v3d@@QAENXZ           10014090 f i mycar.obj
 0001:00013100       ?setCarPtr@AbstractCar@@IAEXPAUCarElt@@@Z 10014100 f i mycar.obj
 0001:00013120       ?sin@@YAMM@Z               10014120 f i mycar.obj
 0001:00013140       ?sqr@TrackSegment@@QAENN@Z 10014140 f i mycar.obj
 0001:00013180       ?updateDir@AbstractCar@@IAEXXZ 10014180 f i mycar.obj
 0001:000131f0       ?updatePos@AbstractCar@@IAEXXZ 100141f0 f i mycar.obj
 0001:00013250       ?updateSpeed@AbstractCar@@IAEXXZ 10014250 f i mycar.obj
 0001:00013290       ?updateSpeedSqr@AbstractCar@@IAEXXZ 10014290 f i mycar.obj
 0001:00013310       _sinf                      10014310 f i mycar.obj
 0001:00013370       ??0Pathfinder@@QAE@PAVTrackDesc@@PAUCarElt@@PAUSituation@@@Z 10014370 f   pathfinder.obj
 0001:00013720       ??1Pathfinder@@QAE@XZ      10014720 f   pathfinder.obj
 0001:000137c0       ?plan@Pathfinder@@QAEXHPAUCarElt@@PAUSituation@@PAVMyCar@@PAVOtherCar@@@Z 100147c0 f   pathfinder.obj
 0001:00014310       ?plan@Pathfinder@@QAEXPAVMyCar@@@Z 10015310 f   pathfinder.obj
 0001:00014840       ?initPit@Pathfinder@@QAEXPAUCarElt@@@Z 10015840 f   pathfinder.obj
 0001:00014d00       ?plotPitStopPath@Pathfinder@@QAEXPAD@Z 10015d00 f   pathfinder.obj
 0001:00014dd0       ?plotPath@Pathfinder@@QAEXPAD@Z 10015dd0 f   pathfinder.obj
 0001:00014ea0       ?initPitStopPath@Pathfinder@@AAEXXZ 10015ea0 f   pathfinder.obj
 0001:000155a0       ?collision@Pathfinder@@AAEHHPAUCarElt@@PAUSituation@@PAVMyCar@@PAVOtherCar@@@Z 100165a0 f   pathfinder.obj
 0001:00015ae0       ?overtake@Pathfinder@@AAEHHPAUSituation@@PAVMyCar@@PAVOtherCar@@@Z 10016ae0 f   pathfinder.obj
 0001:00016c80       ?stepInterpolate@Pathfinder@@AAEXHHH@Z 10017c80 f   pathfinder.obj
 0001:00016ef0       ?interpolate@Pathfinder@@AAEXH@Z 10017ef0 f   pathfinder.obj
 0001:00016f80       ?smooth@Pathfinder@@AAEXH@Z 10017f80 f   pathfinder.obj
 0001:000172a0       ?correctPath@Pathfinder@@AAEHHPAUCarElt@@PAVMyCar@@@Z 100182a0 f   pathfinder.obj
 0001:00017c40       ?smooth@Pathfinder@@AAEXHHHN@Z 10018c40 f   pathfinder.obj
 0001:00017de0       ?smooth@Pathfinder@@AAEXHNN@Z 10018de0 f   pathfinder.obj
 0001:00018510       ?optimize@Pathfinder@@AAEXHHN@Z 10019510 f   pathfinder.obj
 0001:000185c0       ?optimize2@Pathfinder@@AAEXHHN@Z 100195c0 f   pathfinder.obj
 0001:000186a0       ?optimize3@Pathfinder@@AAEXHHN@Z 100196a0 f   pathfinder.obj
 0001:00018780       ?letoverlap@Pathfinder@@AAEHHPAUSituation@@PAVMyCar@@PAVOtherCar@@PAUtOverlapTimer@@@Z 10019780 f   pathfinder.obj
 0001:00018fb0       ??0PathSeg@@QAE@XZ         10019fb0 f i pathfinder.obj
 0001:00018ff0       ??0v3d@@QAE@ABV0@@Z        10019ff0 f i pathfinder.obj
 0001:00019040       ??4v3d@@QAEAAV0@ABV0@@Z    1001a040 f i pathfinder.obj
 0001:00019090       ??D@YA?AVv3d@@NABV0@@Z     1001a090 f i pathfinder.obj
 0001:000190f0       ??Dv3d@@QAE?AV0@N@Z        1001a0f0 f i pathfinder.obj
 0001:00019160       ??Hv3d@@QAE?AV0@ABV0@@Z    1001a160 f i pathfinder.obj
 0001:000191d0       ??_H@YGXPAXIHP6EPAX0@Z@Z   1001a1d0 f i pathfinder.obj
 0001:00019210       ?adjustRadius@Pathfinder@@AAEXHHHNN@Z 1001a210 f i pathfinder.obj
 0001:00019850       ?countSegments@Pathfinder@@AAEHHH@Z 1001a850 f i pathfinder.obj
 0001:00019890       ?curvature@Pathfinder@@AAENNNNNNN@Z 1001a890 f i pathfinder.obj
 0001:000199d0       ?diffSegId@TrackDesc@@QAEHHH@Z 1001a9d0 f i pathfinder.obj
 0001:00019a50       ?dirVector2D@TrackDesc@@SAXPAVv3d@@00@Z 1001aa50 f i pathfinder.obj
 0001:00019aa0       ?dirVector@v3d@@QAEXPBV1@PAV1@@Z 1001aaa0 f i pathfinder.obj
 0001:00019b00       ?dist@Pathfinder@@QAENPAVv3d@@0@Z 1001ab00 f i pathfinder.obj
 0001:00019bd0       ?distGFromPoint@TrackDesc@@QAENPAVv3d@@00@Z 1001abd0 f i pathfinder.obj
 0001:00019ca0       ?distToMiddle@TrackDesc@@QAENHPAVv3d@@@Z 1001aca0 f i pathfinder.obj
 0001:00019d10       ?getCurrentPos@AbstractCar@@QAEPAVv3d@@XZ 1001ad10 f i pathfinder.obj
 0001:00019d30       ?getCurrentSegId@AbstractCar@@QAEHXZ 1001ad30 f i pathfinder.obj
 0001:00019d50       ?getDir@AbstractCar@@QAEPAVv3d@@XZ 1001ad50 f i pathfinder.obj
 0001:00019d70       ?getKalpha@TrackSegment@@QAEMXZ 1001ad70 f i pathfinder.obj
 0001:00019d90       ?getKbeta@TrackSegment@@QAEMXZ 1001ad90 f i pathfinder.obj
 0001:00019db0       ?getKfriction@TrackSegment@@QAEMXZ 1001adb0 f i pathfinder.obj
 0001:00019dd0       ?getLeftBorder@TrackSegment@@QAEPAVv3d@@XZ 1001add0 f i pathfinder.obj
 0001:00019df0       ?getMiddle@TrackSegment@@QAEPAVv3d@@XZ 1001adf0 f i pathfinder.obj
 0001:00019e10       ?getOptLoc@PathSeg@@QAEPAVv3d@@XZ 1001ae10 f i pathfinder.obj
 0001:00019e30       ?getPitEntryStartId@TrackDesc@@QAEHXZ 1001ae30 f i pathfinder.obj
 0001:00019e50       ?getPitExitEndId@TrackDesc@@QAEHXZ 1001ae50 f i pathfinder.obj
 0001:00019e70       ?getPitLoc@PathSeg@@QAEPAVv3d@@XZ 1001ae70 f i pathfinder.obj
 0001:00019e90       ?getPitSpeedSqrLimit@Pathfinder@@QAENXZ 1001ae90 f i pathfinder.obj
 0001:00019eb0       ?getRadius@TrackSegment@@QAEMXZ 1001aeb0 f i pathfinder.obj
 0001:00019ed0       ?getRightBorder@TrackSegment@@QAEPAVv3d@@XZ 1001aed0 f i pathfinder.obj
 0001:00019ef0       ?getSpeedSqr@AbstractCar@@QAENXZ 1001aef0 f i pathfinder.obj
 0001:00019f10       ?getSpeedsqr@PathSeg@@QAEMXZ 1001af10 f i pathfinder.obj
 0001:00019f30       ?getTorcsTrack@TrackDesc@@QAEPAUtTrack@@XZ 1001af30 f i pathfinder.obj
 0001:00019f50       ?getWidth@TrackSegment@@QAEMXZ 1001af50 f i pathfinder.obj
 0001:00019f70       ?isBetween@TrackDesc@@QAE_NHHH@Z 1001af70 f i pathfinder.obj
 0001:00019fe0       ?isPitAvailable@Pathfinder@@QAE_NXZ 1001afe0 f i pathfinder.obj
 0001:0001a000       ?normalize@v3d@@QAEXXZ     1001b000 f i pathfinder.obj
 0001:0001a080       ?pathSlope@Pathfinder@@AAENH@Z 1001b080 f i pathfinder.obj
 0001:0001a1c0       ?radius@@YANNNNNNN@Z       1001b1c0 f i pathfinder.obj
 0001:0001a310       ?segmentsToPit@Pathfinder@@QAEHH@Z 1001b310 f i pathfinder.obj
 0001:0001a370       ?set@PathSeg@@QAEXMMPAVv3d@@@Z 1001b370 f i pathfinder.obj
 0001:0001a3c0       ?setLoc@PathSeg@@QAEXPAVv3d@@@Z 1001b3c0 f i pathfinder.obj
 0001:0001a3f0       ?setOptLoc@PathSeg@@QAEXPAVv3d@@@Z 1001b3f0 f i pathfinder.obj
 0001:0001a420       ?setPitLoc@PathSeg@@QAEXPAVv3d@@@Z 1001b420 f i pathfinder.obj
 0001:0001a440       ?setRadius@PathSeg@@QAEXM@Z 1001b440 f i pathfinder.obj
 0001:0001a470       ?setSpeedsqr@PathSeg@@QAEXM@Z 1001b470 f i pathfinder.obj
 0001:0001a490       ?setWeight@PathSeg@@QAEXM@Z 1001b490 f i pathfinder.obj
 0001:0001a4c0       ?sign@@YANN@Z              1001b4c0 f i pathfinder.obj
 0001:0001a510       ?sqr@Pathfinder@@QAENN@Z   1001b510 f i pathfinder.obj
 0001:0001a550       ?updateOCar@Pathfinder@@AAEHHPAUSituation@@PAVMyCar@@PAVOtherCar@@PAUtOCar@@@Z 1001b550 f i pathfinder.obj
 0001:0001abe0       ?updateOverlapTimer@Pathfinder@@AAEXHPAUSituation@@PAVMyCar@@PAVOtherCar@@PAUtOCar@@PAUtOverlapTimer@@@Z 1001bbe0 f i pathfinder.obj
 0001:0001ae30       ?HmReadPrefs@@YAXH@Z       1001be30 f   pref.obj
 0001:0001bb60       ?setSingleSensor@SingleSensor@@QAEXMM@Z 1001cb60 f   sensors.obj
 0001:0001bbb0       ?update@SingleSensor@@QAEXXZ 1001cbb0 f   sensors.obj
 0001:0001bde0       ?sensor_calc_str@SingleSensor@@IAEMPAUtrackSeg@@MMMM@Z 1001cde0 f   sensors.obj
 0001:0001caa0       ?sensor_calc_lft_rgt@SingleSensor@@IAEMPAUtrackSeg@@MMMM@Z 1001daa0 f   sensors.obj
 0001:0001cf50       ?check_max_circle_intersect@SingleSensor@@IAE_NMMMMMMAAM@Z 1001df50 f   sensors.obj
 0001:0001d470       ?check_min_circle_intersect@SingleSensor@@IAE_NMMMMMMAAM@Z 1001e470 f   sensors.obj
 0001:0001d730       ?check_up_border_intersect@SingleSensor@@IAE_NMMMMMAAM00@Z 1001e730 f   sensors.obj
 0001:0001d9a0       ?check_down_border_intersect@SingleSensor@@IAE_NMMMMMAAM00@Z 1001e9a0 f   sensors.obj
 0001:0001de60       ??0Sensors@@QAE@XZ         1001ee60 f   sensors.obj
 0001:0001de80       ??0Sensors@@QAE@PAUCarElt@@H@Z 1001ee80 f   sensors.obj
 0001:0001df20       ??1Sensors@@QAE@XZ         1001ef20 f   sensors.obj
 0001:0001df60       ?setSensor@Sensors@@QAEXHMM@Z 1001ef60 f   sensors.obj
 0001:0001dfb0       ?getSensorOut@Sensors@@QAEMH@Z 1001efb0 f   sensors.obj
 0001:0001dfe0       ?sensors_update@Sensors@@QAEXXZ 1001efe0 f   sensors.obj
 0001:0001e040       ?acos@@YAMM@Z              1001f040 f i sensors.obj
 0001:0001e060       ?getSingleSensorOut@SingleSensor@@QAEMXZ 1001f060 f i sensors.obj
 0001:0001e080       ?init@SingleSensor@@QAEXPAUCarElt@@@Z 1001f080 f i sensors.obj
 0001:0001e0a0       ?tan@@YAMM@Z               1001f0a0 f i sensors.obj
 0001:0001e0c0       _acosf                     1001f0c0 f i sensors.obj
 0001:0001e120       _tanf                      1001f120 f i sensors.obj
 0001:0001e180       ?tridiagonal@@YAXHPAUSplineEquationData@@PAN@Z 1001f180 f   spline.obj
 0001:0001e4e0       ?tridiagonal2@@YAXHPAUSplineEquationData2@@@Z 1001f4e0 f   spline.obj
 0001:0001ea10       ?slopesp@@YAXHQBN0QAN@Z    1001fa10 f   spline.obj
 0001:0001ee60       ?slopesn@@YAXHQBN0QAN@Z    1001fe60 f   spline.obj
 0001:0001f120       ?parametricslopesp@@YAXHQBN0QAN11@Z 10020120 f   spline.obj
 0001:0001f250       ?parametricslopesn@@YAXHQBN0QAN11@Z 10020250 f   spline.obj
 0001:0001f380       ?spline@@YANHNQBN00@Z      10020380 f   spline.obj
 0001:0001f4d0       ??0TrackSegment@@QAE@XZ    100204d0 f   trackdesc.obj
 0001:0001f520       ??1TrackSegment@@QAE@XZ    10020520 f   trackdesc.obj
 0001:0001f540       ?init@TrackSegment@@QAEXHPBUtrackSeg@@PBVv3d@@11@Z 10020540 f   trackdesc.obj
 0001:0001f7e0       ??0TrackDesc@@QAE@PBUtTrack@@@Z 100207e0 f   trackdesc.obj
 0001:00020750       ??1TrackDesc@@QAE@XZ       10021750 f   trackdesc.obj
 0001:000207b0       ?plot@TrackDesc@@QAEXPAD@Z 100217b0 f   trackdesc.obj
 0001:000208f0       ?getCurrentSegment@TrackDesc@@QAEHPAUCarElt@@@Z 100218f0 f   trackdesc.obj
 0001:000209d0       ?getNearestId@TrackDesc@@QAEHPAVv3d@@@Z 100219d0 f   trackdesc.obj
 0001:00020a80       ??Kv3d@@QAE?AV0@N@Z        10021a80 f i trackdesc.obj
 0001:00020af0       ??_ETrackSegment@@QAEPAXI@Z 10021af0 f i trackdesc.obj
 0001:00020b70       ?distToLeft3D@TrackSegment@@QAENPAVv3d@@@Z 10021b70 f i trackdesc.obj
 0001:00020c40       ?distToMiddle2D@TrackSegment@@QAENNN@Z 10021c40 f i trackdesc.obj
 0001:00020ce0       ?distToMiddle3D@TrackSegment@@QAENNNN@Z 10021ce0 f i trackdesc.obj
 0001:00020da0       ?distToMiddle3D@TrackSegment@@QAENPAVv3d@@@Z 10021da0 f i trackdesc.obj
 0001:00020e70       ?getRaceType@TrackSegment@@QAEIXZ 10021e70 f i trackdesc.obj
 0001:00020e90       ?setKbeta@TrackSegment@@QAEXN@Z 10021e90 f i trackdesc.obj
 0001:00020ec0       ?setKgamma@TrackSegment@@QAEXN@Z 10021ec0 f i trackdesc.obj
 0001:00020ef0       ?setLength@TrackSegment@@QAEXN@Z 10021ef0 f i trackdesc.obj
 0001:00020f14       ?GfScrGetSize@@YAXPAH000@Z 10021f14 f   client:client.dll
 0001:00020f1a       ?GfuiKeyEventRegisterCurrent@@YAXP6AHEHH@Z@Z 10021f1a f   client:client.dll
 0001:00020f20       ?GfuiSKeyEventRegisterCurrent@@YAXP6AHHHH@Z@Z 10021f20 f   client:client.dll
 0001:00020f26       ?GfuiMouseShow@@YAXXZ      10021f26 f   client:client.dll
 0001:00020f2c       ?GfctrlJoyInit@@YAPAUtCtrlJoyInfo@@XZ 10021f2c f   client:client.dll
 0001:00020f32       ?GfctrlJoyGetCurrent@@YAHPAUtCtrlJoyInfo@@@Z 10021f32 f   client:client.dll
 0001:00020f38       ?GfctrlJoyRelease@@YAXPAUtCtrlJoyInfo@@@Z 10021f38 f   client:client.dll
 0001:00020f3e       ?GfctrlMouseInit@@YAPAUtCtrlMouseInfo@@XZ 10021f3e f   client:client.dll
 0001:00020f44       ?GfctrlMouseGetCurrent@@YAHPAUtCtrlMouseInfo@@@Z 10021f44 f   client:client.dll
 0001:00020f4a       ?GfctrlMouseRelease@@YAXPAUtCtrlMouseInfo@@@Z 10021f4a f   client:client.dll
 0001:00020f50       ?GfctrlMouseCenter@@YAXXZ  10021f50 f   client:client.dll
 0001:00020f56       ?GfctrlMouseInitCenter@@YAXXZ 10021f56 f   client:client.dll
 0001:00020f5c       ?GfctrlGetRefByName@@YAPAUtCtrlRef@@PBD@Z 10021f5c f   client:client.dll
 0001:00020f62       ?GfctrlGetNameByRef@@YAPBDHH@Z 10021f62 f   client:client.dll
 0001:00020f68       ?_tgf_win_calloc@@YAPAXII@Z 10021f68 f   tgf:tgf.dll
 0001:00020f6e       ?_tgf_win_free@@YAXPAX@Z   10021f6e f   tgf:tgf.dll
 0001:00020f74       ?_tgf_win_strdup@@YAPADPBD@Z 10021f74 f   tgf:tgf.dll
 0001:00020f7a       ?GfParmReadFile@@YAPAXPBDH@Z 10021f7a f   tgf:tgf.dll
 0001:00020f80       ?GfParmWriteFile@@YAHPBDPAX0@Z 10021f80 f   tgf:tgf.dll
 0001:00020f86       ?GfParmGetStr@@YAPBDPAXPBD11@Z 10021f86 f   tgf:tgf.dll
 0001:00020f8c       ?GfParmSetStr@@YAHPAXPBD11@Z 10021f8c f   tgf:tgf.dll
 0001:00020f92       ?GfParmGetNum@@YAMPAXPBD11M@Z 10021f92 f   tgf:tgf.dll
 0001:00020f98       ?GfParmSetNum@@YAHPAXPBD11M@Z 10021f98 f   tgf:tgf.dll
 0001:00020f9e       ?GfParmReleaseHandle@@YAXPAX@Z 10021f9e f   tgf:tgf.dll
 0001:00020fa4       ?GetLocalDir@@YAPADXZ      10021fa4 f   tgf:tgf.dll
 0001:00020faa       ?RtTrackSideTgAngleL@@YAMPAUtTrkLocPos@@@Z 10021faa f   robottools:robottools.dll
 0001:00020fb0       ?RtGetDistFromStart@@YAMPAUCarElt@@@Z 10021fb0 f   robottools:robottools.dll
 0001:00020fc0       ?sgdSqrt@@YANN@Z           10021fc0 f i sg_vs2008_32:sgd.obj
 0001:00020fd0       ?sgdSquare@@YANN@Z         10021fd0 f i sg_vs2008_32:sgd.obj
 0001:00020fe0       ?sgdAbs@@YANN@Z            10021fe0 f i sg_vs2008_32:sgd.obj
 0001:00021000       ?sgdASin@@YANN@Z           10022000 f i sg_vs2008_32:sgd.obj
 0001:00021010       ?sgdACos@@YANN@Z           10022010 f i sg_vs2008_32:sgd.obj
 0001:00021020       ?sgdATan2@@YANNN@Z         10022020 f i sg_vs2008_32:sgd.obj
 0001:00021040       ?sgdSin@@YANN@Z            10022040 f i sg_vs2008_32:sgd.obj
 0001:00021050       ?sgdCos@@YANN@Z            10022050 f i sg_vs2008_32:sgd.obj
 0001:00021060       ?sgdZeroVec3@@YAXQAN@Z     10022060 f i sg_vs2008_32:sgd.obj
 0001:00021070       ?sgdSetVec3@@YAXQANNNN@Z   10022070 f i sg_vs2008_32:sgd.obj
 0001:00021090       ?sgdSetVec4@@YAXQANNNNN@Z  10022090 f i sg_vs2008_32:sgd.obj
 0001:000210b0       ?sgdCopyVec3@@YAXQANQBN@Z  100220b0 f i sg_vs2008_32:sgd.obj
 0001:000210d0       ?sgdCopyVec4@@YAXQANQBN@Z  100220d0 f i sg_vs2008_32:sgd.obj
 0001:000210f0       ?sgdAddVec3@@YAXQANQBN1@Z  100220f0 f i sg_vs2008_32:sgd.obj
 0001:00021120       ?sgdSubVec2@@YAXQANQBN1@Z  10022120 f i sg_vs2008_32:sgd.obj
 0001:00021140       ?sgdSubVec3@@YAXQANQBN1@Z  10022140 f i sg_vs2008_32:sgd.obj
 0001:00021170       ?sgdNegateVec3@@YAXQAN@Z   10022170 f i sg_vs2008_32:sgd.obj
 0001:00021190       ?sgdScaleVec2@@YAXQANN@Z   10022190 f i sg_vs2008_32:sgd.obj
 0001:000211b0       ?sgdScaleVec3@@YAXQANN@Z   100221b0 f i sg_vs2008_32:sgd.obj
 0001:000211d0       ?sgdScaleVec3@@YAXQANQBNN@Z 100221d0 f i sg_vs2008_32:sgd.obj
 0001:00021200       ?sgdScaleVec4@@YAXQANQBNN@Z 10022200 f i sg_vs2008_32:sgd.obj
 0001:00021230       ?sgdAddScaledVec3@@YAXQANQBN1N@Z 10022230 f i sg_vs2008_32:sgd.obj
 0001:00021260       ?sgdScalarProductVec2@@YANQBN0@Z 10022260 f i sg_vs2008_32:sgd.obj
 0001:00021280       ?sgdScalarProductVec3@@YANQBN0@Z 10022280 f i sg_vs2008_32:sgd.obj
 0001:000212a0       ?sgdScalarProductVec4@@YANQBN0@Z 100222a0 f i sg_vs2008_32:sgd.obj
 0001:000212d0       ?sgdDistanceSquaredVec3@@YANQBN0@Z 100222d0 f i sg_vs2008_32:sgd.obj
 0001:00021300       ?sgdDistanceVec3@@YANQBN0@Z 10022300 f i sg_vs2008_32:sgd.obj
 0001:00021330       ?sgdLengthVec2@@YANQBN@Z   10022330 f i sg_vs2008_32:sgd.obj
 0001:00021350       ?sgdLengthVec3@@YANQBN@Z   10022350 f i sg_vs2008_32:sgd.obj
 0001:00021380       ?sgdNormaliseVec2@@YAXQAN@Z 10022380 f i sg_vs2008_32:sgd.obj
 0001:000213b0       ?sgdNormaliseVec3@@YAXQAN@Z 100223b0 f i sg_vs2008_32:sgd.obj
 0001:000213f0       ?sgdNormaliseVec3@@YAXQANQBN@Z 100223f0 f i sg_vs2008_32:sgd.obj
 0001:00021430       ?sgdCopyMat4@@YAXQAY03NQAY03$$CBN@Z 10022430 f i sg_vs2008_32:sgd.obj
 0001:000214a0       ?sgdScaleMat4@@YAXQAY03NQAY03$$CBNN@Z 100224a0 f i sg_vs2008_32:sgd.obj
 0001:00021530       ?sgdMakeIdentMat4@@YAXQAY03N@Z 10022530 f i sg_vs2008_32:sgd.obj
 0001:00021570       ?sgdLineSegment3ToLine3@@YAXPAUsgdLine3@@UsgdLineSegment3@@@Z 10022570 f i sg_vs2008_32:sgd.obj
 0001:000215e0       ?sgdAngleBetweenNormalizedVec3@@YANQAN0@Z 100225e0 f i sg_vs2008_32:sgd.obj
 0001:00021650       ?getCenter@sgdSphere@@QBEPBNXZ 10022650 f i sg_vs2008_32:sgd.obj
 0001:00021660       ?getRadius@sgdSphere@@QBENXZ 10022660 f i sg_vs2008_32:sgd.obj
 0001:00021670       ?isEmpty@sgdSphere@@QBEHXZ 10022670 f i sg_vs2008_32:sgd.obj
 0001:00021690       ?getMin@sgdBox@@QBEPBNXZ   10022690 f i sg_vs2008_32:sgd.obj
 0001:000216a0       ?getMax@sgdBox@@QBEPBNXZ   100226a0 f i sg_vs2008_32:sgd.obj
 0001:000216b0       ?isEmpty@sgdBox@@QBEHXZ    100226b0 f i sg_vs2008_32:sgd.obj
 0001:000216e0       ?sgdVectorProductVec3@@YAXQANQBN1@Z 100226e0 f   sg_vs2008_32:sgd.obj
 0001:00021720       ?_sgdClampToUnity@@YANN@Z  10022720 f i sg_vs2008_32:sgd.obj
 0001:00021750       ?sgdCompare3DSqdDist@@YAHQBN0N@Z 10022750 f   sg_vs2008_32:sgd.obj
 0001:000217b0       ?sgdMakeRotMat4@@YAXQAY03NNQBN@Z 100227b0 f   sg_vs2008_32:sgd.obj
 0001:000218e0       ?sgdMakePickMatrix@@YAXQAY03NNNNNQAN@Z 100228e0 f   sg_vs2008_32:sgd.obj
 0001:00021960       ?sgdMakeLookAtMat4@@YAXQAY03NQBN11@Z 10022960 f   sg_vs2008_32:sgd.obj
 0001:00021ae0       ?sgdAngleBetweenVec3@@YANQAN0@Z 10022ae0 f   sg_vs2008_32:sgd.obj
 0001:00021b80       ?sgdAngleBetweenNormalizedVec3@@YANQAN00@Z 10022b80 f   sg_vs2008_32:sgd.obj
 0001:00021d10       ?sgdAngleBetweenVec3@@YANQAN00@Z 10022d10 f   sg_vs2008_32:sgd.obj
 0001:00021db0       ?extend@sgdBox@@QAEXQBN@Z  10022db0 f   sg_vs2008_32:sgd.obj
 0001:00021e80       ?extend@sgdBox@@QAEXPBV1@@Z 10022e80 f   sg_vs2008_32:sgd.obj
 0001:00021f10       ?extend@sgdBox@@QAEXPBVsgdSphere@@@Z 10022f10 f   sg_vs2008_32:sgd.obj
 0001:00021f80       ?intersects@sgdBox@@QBEHQBN@Z 10022f80 f   sg_vs2008_32:sgd.obj
 0001:000220c0       ?extend@sgdSphere@@QAEXQBN@Z 100230c0 f   sg_vs2008_32:sgd.obj
 0001:00022170       ?extend@sgdSphere@@QAEXPBVsgdBox@@@Z 10023170 f   sg_vs2008_32:sgd.obj
 0001:00022300       ?extend@sgdSphere@@QAEXPBV1@@Z 10023300 f   sg_vs2008_32:sgd.obj
 0001:000223d0       ?intersects@sgdSphere@@QBEHPBVsgdBox@@@Z 100233d0 f   sg_vs2008_32:sgd.obj
 0001:00022480       ?update@sgdFrustum@@AAEXXZ 10023480 f   sg_vs2008_32:sgd.obj
 0001:00022880       ?contains@sgdFrustum@@QBEHPBVsgdSphere@@@Z 10023880 f   sg_vs2008_32:sgd.obj
 0001:000229f0       ?sgdDistSquaredToLineVec3@@YANUsgdLine3@@QBN@Z 100239f0 f   sg_vs2008_32:sgd.obj
 0001:00022a30       ?sgdDistSquaredToLineSegmentVec3@@YANUsgdLineSegment3@@QBN@Z 10023a30 f   sg_vs2008_32:sgd.obj
 0001:00022b40       ?sgdMakeCoordMat4@@YAXQAY03NNNNNNN@Z 10023b40 f   sg_vs2008_32:sgd.obj
 0001:00022d00       ?sgdMakeTransMat4@@YAXQAY03NQBN@Z 10023d00 f   sg_vs2008_32:sgd.obj
 0001:00022d50       ?sgdMakeTransMat4@@YAXQAY03NNNN@Z 10023d50 f   sg_vs2008_32:sgd.obj
 0001:00022da0       ?sgdSetCoord@@YAXPAUsgdCoord@@QAY03$$CBN@Z 10023da0 f   sg_vs2008_32:sgd.obj
 0001:000230a0       ?sgdMakeNormal@@YAXQANQBN1@Z 100240a0 f   sg_vs2008_32:sgd.obj
 0001:000230f0       ?sgdMakeNormal@@YAXQANQBN11@Z 100240f0 f   sg_vs2008_32:sgd.obj
 0001:00023190       ?sgdMultMat4@@YAXQAY03NQAY03$$CBN1@Z 10024190 f   sg_vs2008_32:sgd.obj
 0001:00023240       ?sgdTransposeNegateMat4@@YAXQAY03NQAY03$$CBN@Z 10024240 f   sg_vs2008_32:sgd.obj
 0001:000232e0       ?sgdTransposeNegateMat4@@YAXQAY03N@Z 100242e0 f   sg_vs2008_32:sgd.obj
 0001:00023310       ?sgdInvertMat4@@YAXQAY03NQAY03$$CBN@Z 10024310 f   sg_vs2008_32:sgd.obj
 0001:00023530       ?sgdXformVec3@@YAXQANQBNQAY03$$CBN@Z 10024530 f   sg_vs2008_32:sgd.obj
 0001:00023590       ?sgdXformPnt3@@YAXQANQBNQAY03$$CBN@Z 10024590 f   sg_vs2008_32:sgd.obj
 0001:000235f0       ?sgdXformPnt4@@YAXQANQBNQAY03$$CBN@Z 100245f0 f   sg_vs2008_32:sgd.obj
 0001:00023680       ?sgdFullXformPnt3@@YAXQANQBNQAY03$$CBN@Z 10024680 f   sg_vs2008_32:sgd.obj
 0001:000236e0       ?sgdHPRfromVec3@@YAXQAN0@Z 100246e0 f   sg_vs2008_32:sgd.obj
 0001:00023780       ?sgdQuatToAngleAxis@@YAXPANQANQBN@Z 10024780 f   sg_vs2008_32:sgd.obj
 0001:00023800       ?sgdAngleAxisToQuat@@YAXQANNQBN@Z 10024800 f   sg_vs2008_32:sgd.obj
 0001:000238a0       ?sgdMatrixToQuat@@YAXQANQAY03$$CBN@Z 100248a0 f   sg_vs2008_32:sgd.obj
 0001:00023a00       ?sgdMultQuat@@YAXQANQBN1@Z 10024a00 f   sg_vs2008_32:sgd.obj
 0001:00023ad0       ?sgdMultQuat2@@YAXQANQBN1@Z 10024ad0 f   sg_vs2008_32:sgd.obj
 0001:00023ba0       ?sgdEulerToQuat@@YAXQANQBN@Z 10024ba0 f   sg_vs2008_32:sgd.obj
 0001:00023c90       ?sgdQuatToEuler@@YAXQANQBN@Z 10024c90 f   sg_vs2008_32:sgd.obj
 0001:00023df0       ?sgdQuatToMatrix@@YAXQAY03NQBN@Z 10024df0 f   sg_vs2008_32:sgd.obj
 0001:00023ec0       ?sgdMakeRotMat42@@YAXQAY03NQAN@Z 10024ec0 f   sg_vs2008_32:sgd.obj
 0001:00023f90       ?sgdSlerpQuat2@@YAXQANQBN1N@Z 10024f90 f   sg_vs2008_32:sgd.obj
 0001:000240b0       ?sgdSlerpQuat@@YAXQANQBN1N@Z 100250b0 f   sg_vs2008_32:sgd.obj
 0001:000241a0       ?sgdRotateVecQuat@@YAXQAN0@Z 100251a0 f   sg_vs2008_32:sgd.obj
 0001:00024290       ?sgdRotateCoordQuat@@YAXQAN0@Z 10025290 f   sg_vs2008_32:sgd.obj
 0001:00024380       ?sgdDistSquaredToLineLineSegment@@YANUsgdLineSegment3@@UsgdLine3@@@Z 10025380 f   sg_vs2008_32:sgd.obj
 0001:00024590       ?sgdReflectInPlaneVec3@@YAXQANQBN1@Z 10025590 f   sg_vs2008_32:sgd.obj
 0001:000245e0       ?sgdClassifyMat4@@YAHQAY03$$CBN@Z 100255e0 f   sg_vs2008_32:sgd.obj
 0001:000248a0       ?sgdTriangleSolver_SAStoArea@@YANNNN@Z 100258a0 f   sg_vs2008_32:sgd.obj
 0001:000248c0       ?sgdTriangleSolver_SSStoArea@@YANNNN@Z 100258c0 f   sg_vs2008_32:sgd.obj
 0001:00024910       ?sgdTriangleSolver_SSStoAAA@@YAXNNNPAN00@Z 10025910 f   sg_vs2008_32:sgd.obj
 0001:00024ab0       ?sgdTriangleSolver_SAStoASA@@YAXNNNPAN00@Z 10025ab0 f   sg_vs2008_32:sgd.obj
 0001:00024b30       ?sgdTriangleSolver_ASAtoSAS@@YAXNNNPAN00@Z 10025b30 f   sg_vs2008_32:sgd.obj
 0001:00024be0       ?sgdTriangleSolver_ASStoSAA@@YAXNNNHPAN00@Z 10025be0 f   sg_vs2008_32:sgd.obj
 0001:00024c70       ?sgdTriangleSolver_SAAtoASS@@YAXNNNPAN00@Z 10025c70 f   sg_vs2008_32:sgd.obj
 0001:00024cc0       ?sgdTriArea@@YANQAN00@Z    10025cc0 f   sg_vs2008_32:sgd.obj
 0001:00024da0       ?getOutcode@sgdFrustum@@ABEHQBN@Z 10025da0 f   sg_vs2008_32:sgd.obj
 0001:00024e80       ?contains@sgdFrustum@@QBEHQBN@Z 10025e80 f   sg_vs2008_32:sgd.obj
 0001:00024ea0       ?contains@sgdFrustum@@QBEHPBVsgdBox@@@Z 10025ea0 f   sg_vs2008_32:sgd.obj
 0001:00024fc0       ?sgdPreMultMat4@@YAXQAY03NQAY03$$CBN@Z 10025fc0 f   sg_vs2008_32:sgd.obj
 0001:00025000       ?sgdPostMultMat4@@YAXQAY03NQAY03$$CBN@Z 10026000 f   sg_vs2008_32:sgd.obj
 0001:00025040       ?sgdQuatToAngleAxis@@YAXPAN000QBN@Z 10026040 f   sg_vs2008_32:sgd.obj
 0001:00025080       ?sgdAngleAxisToQuat@@YAXQANNNNN@Z 10026080 f   sg_vs2008_32:sgd.obj
 0001:000250c0       ?sgdTriangleSolver_ASAtoArea@@YANNNN@Z 100260c0 f   sg_vs2008_32:sgd.obj
 0001:00025130       ?sgdTriangleSolver_ASStoArea@@YANNNNH@Z 10026130 f   sg_vs2008_32:sgd.obj
 0001:00025190       ?sgdTriangleSolver_SAAtoArea@@YANNNN@Z 10026190 f   sg_vs2008_32:sgd.obj
 0001:000251f0       ?ulSetError@@YAXW4ulSeverity@@PBDZZ 100261f0 f   ul_vs2008_32:ulError.obj
 0001:00025260       ?ulGetError@@YAPADXZ       10026260 f   ul_vs2008_32:ulError.obj
 0001:00025270       ?ulClearError@@YAXXZ       10026270 f   ul_vs2008_32:ulError.obj
 0001:00025280       ?ulGetErrorCallback@@YAP6AXW4ulSeverity@@PAD@ZXZ 10026280 f   ul_vs2008_32:ulError.obj
 0001:00025290       ?ulSetErrorCallback@@YAXP6AXW4ulSeverity@@PAD@Z@Z 10026290 f   ul_vs2008_32:ulError.obj
 0001:000252a0       ??0_Init_locks@std@@QAE@XZ 100262a0 f   libcpmtd:xlock.obj
 0001:000252f0       ??0_Lockit@std@@QAE@H@Z    100262f0 f   libcpmtd:xlock.obj
 0001:00025340       ??0_Lockit@std@@QAE@XZ     10026340 f   libcpmtd:xlock.obj
 0001:00025390       ??1_Init_locks@std@@QAE@XZ 10026390 f   libcpmtd:xlock.obj
 0001:000253e0       ??1_Lockit@std@@QAE@XZ     100263e0 f   libcpmtd:xlock.obj
 0001:00025420       ?_Init_locks_ctor@_Init_locks@std@@CAXPAV12@@Z 10026420 f   libcpmtd:xlock.obj
 0001:00025470       ?_Init_locks_dtor@_Init_locks@std@@CAXPAV12@@Z 10026470 f   libcpmtd:xlock.obj
 0001:000254c0       ?_Lockit_ctor@_Lockit@std@@CAXPAV12@@Z 100264c0 f   libcpmtd:xlock.obj
 0001:000254e0       ?_Lockit_ctor@_Lockit@std@@CAXPAV12@H@Z 100264e0 f   libcpmtd:xlock.obj
 0001:00025520       ?_Lockit_ctor@_Lockit@std@@SAXH@Z 10026520 f   libcpmtd:xlock.obj
 0001:00025550       ?_Lockit_dtor@_Lockit@std@@CAXPAV12@@Z 10026550 f   libcpmtd:xlock.obj
 0001:00025570       ?_Lockit_dtor@_Lockit@std@@SAXH@Z 10026570 f   libcpmtd:xlock.obj
 0001:000255a0       ?uncaught_exception@std@@YA_NXZ 100265a0 f   libcpmtd:uncaught.obj
 0001:000255b0       ?_Debug_message@std@@YAXPBG0I@Z 100265b0 f   libcpmtd:stdthrow.obj
 0001:000255d0       ?_Debug_message@std@@YAXPB_W0I@Z 100265d0 f   libcpmtd:stdthrow.obj
 0001:00025600       ??0_Ignore@std@@QAE@XZ     10026600 f i libcpmtd:xthrow.obj
 0001:00025610       ??0bad_alloc@std@@QAE@ABV01@@Z 10026610 f i libcpmtd:xthrow.obj
 0001:00025640       ??0bad_alloc@std@@QAE@XZ   10026640 f i libcpmtd:xthrow.obj
 0001:00025670       ??0bad_function_call@std@@QAE@ABV01@@Z 10026670 f i libcpmtd:xthrow.obj
 0001:000256a0       ??0bad_function_call@std@@QAE@PBD@Z 100266a0 f i libcpmtd:xthrow.obj
 0001:000256d0       ??0invalid_argument@std@@QAE@ABV01@@Z 100266d0 f i libcpmtd:xthrow.obj
 0001:00025700       ??0invalid_argument@std@@QAE@PBD@Z 10026700 f i libcpmtd:xthrow.obj
 0001:00025730       ??0length_error@std@@QAE@ABV01@@Z 10026730 f i libcpmtd:xthrow.obj
 0001:00025760       ??0length_error@std@@QAE@PBD@Z 10026760 f i libcpmtd:xthrow.obj
 0001:00025790       ??0logic_error@std@@QAE@ABV01@@Z 10026790 f i libcpmtd:xthrow.obj
 0001:000257c0       ??0logic_error@std@@QAE@PBD@Z 100267c0 f i libcpmtd:xthrow.obj
 0001:000257f0       ??0out_of_range@std@@QAE@ABV01@@Z 100267f0 f i libcpmtd:xthrow.obj
 0001:00025820       ??0out_of_range@std@@QAE@PBD@Z 10026820 f i libcpmtd:xthrow.obj
 0001:00025850       ??0overflow_error@std@@QAE@ABV01@@Z 10026850 f i libcpmtd:xthrow.obj
 0001:00025880       ??0overflow_error@std@@QAE@PBD@Z 10026880 f i libcpmtd:xthrow.obj
 0001:000258b0       ??0regex_error@std@@QAE@ABV01@@Z 100268b0 f i libcpmtd:xthrow.obj
 0001:000258f0       ??0regex_error@std@@QAE@W4error_type@regex_constants@1@@Z 100268f0 f i libcpmtd:xthrow.obj
 0001:00025930       ??1bad_alloc@std@@UAE@XZ   10026930 f i libcpmtd:xthrow.obj
 0001:00025950       ??1bad_function_call@std@@UAE@XZ 10026950 f i libcpmtd:xthrow.obj
 0001:00025970       ??1invalid_argument@std@@UAE@XZ 10026970 f i libcpmtd:xthrow.obj
 0001:00025990       ??1length_error@std@@UAE@XZ 10026990 f i libcpmtd:xthrow.obj
 0001:000259b0       ??1logic_error@std@@UAE@XZ 100269b0 f i libcpmtd:xthrow.obj
 0001:000259d0       ??1out_of_range@std@@UAE@XZ 100269d0 f i libcpmtd:xthrow.obj
 0001:000259f0       ??1overflow_error@std@@UAE@XZ 100269f0 f i libcpmtd:xthrow.obj
 0001:00025a10       ??1regex_error@std@@UAE@XZ 10026a10 f i libcpmtd:xthrow.obj
 0001:00025a30       ??_Ebad_alloc@std@@UAEPAXI@Z 10026a30 f i libcpmtd:xthrow.obj
 0001:00025a30       ??_Gbad_alloc@std@@UAEPAXI@Z 10026a30 f i libcpmtd:xthrow.obj
 0001:00025a60       ??_Ebad_function_call@std@@UAEPAXI@Z 10026a60 f i libcpmtd:xthrow.obj
 0001:00025a60       ??_Gbad_function_call@std@@UAEPAXI@Z 10026a60 f i libcpmtd:xthrow.obj
 0001:00025a90       ??_Ginvalid_argument@std@@UAEPAXI@Z 10026a90 f i libcpmtd:xthrow.obj
 0001:00025a90       ??_Einvalid_argument@std@@UAEPAXI@Z 10026a90 f i libcpmtd:xthrow.obj
 0001:00025ac0       ??_Glength_error@std@@UAEPAXI@Z 10026ac0 f i libcpmtd:xthrow.obj
 0001:00025ac0       ??_Elength_error@std@@UAEPAXI@Z 10026ac0 f i libcpmtd:xthrow.obj
 0001:00025af0       ??_Glogic_error@std@@UAEPAXI@Z 10026af0 f i libcpmtd:xthrow.obj
 0001:00025af0       ??_Elogic_error@std@@UAEPAXI@Z 10026af0 f i libcpmtd:xthrow.obj
 0001:00025b20       ??_Gout_of_range@std@@UAEPAXI@Z 10026b20 f i libcpmtd:xthrow.obj
 0001:00025b20       ??_Eout_of_range@std@@UAEPAXI@Z 10026b20 f i libcpmtd:xthrow.obj
 0001:00025b50       ??_Eoverflow_error@std@@UAEPAXI@Z 10026b50 f i libcpmtd:xthrow.obj
 0001:00025b50       ??_Goverflow_error@std@@UAEPAXI@Z 10026b50 f i libcpmtd:xthrow.obj
 0001:00025b80       ??_Gregex_error@std@@UAEPAXI@Z 10026b80 f i libcpmtd:xthrow.obj
 0001:00025b80       ??_Eregex_error@std@@UAEPAXI@Z 10026b80 f i libcpmtd:xthrow.obj
 0001:00025bb0       ?_Stringify@regex_error@std@@CAPBDW4error_type@regex_constants@2@@Z 10026bb0 f i libcpmtd:xthrow.obj
 0001:00025c80       ?_Xbad_alloc@std@@YAXXZ    10026c80 f   libcpmtd:xthrow.obj
 0001:00025ca0       ?_Xbad_function_call@std@@YAXXZ 10026ca0 f   libcpmtd:xthrow.obj
 0001:00025cd0       ?_Xinvalid_argument@std@@YAXPBD@Z 10026cd0 f   libcpmtd:xthrow.obj
 0001:00025d00       ?_Xlength_error@std@@YAXPBD@Z 10026d00 f   libcpmtd:xthrow.obj
 0001:00025d30       ?_Xout_of_range@std@@YAXPBD@Z 10026d30 f   libcpmtd:xthrow.obj
 0001:00025d60       ?_Xoverflow_error@std@@YAXPBD@Z 10026d60 f   libcpmtd:xthrow.obj
 0001:00025d90       ?_Xregex_error@std@@YAXW4error_type@regex_constants@1@@Z 10026d90 f   libcpmtd:xthrow.obj
 0001:00025dc0       ?_Xruntime_error@std@@YAXPBD@Z 10026dc0 f   libcpmtd:xthrow.obj
 0001:00025df0       ?what@bad_function_call@std@@UBEPBDXZ 10026df0 f i libcpmtd:xthrow.obj
 0001:00025e00       __Getctype                 10026e00 f   libcpmtd:_tolower.obj
 0001:00025eb0       __Tolower                  10026eb0 f   libcpmtd:_tolower.obj
 0001:000260a0       __Getcvt                   100270a0 f   libcpmtd:xwctomb.obj
 0001:00026190       __Wcrtomb                  10027190 f   libcpmtd:xwctomb.obj
 0001:00026260       ___Wcrtomb_lk              10027260 f   libcpmtd:xwctomb.obj
 0001:00026280       __Toupper                  10027280 f   libcpmtd:_toupper.obj
 0001:00026470       ??$_DebugHeapDelete@U_Fac_node@std@@@std@@YAXPAU_Fac_node@0@@Z 10027470 f i libcpmtd:locale0.obj
 0001:000264a0       ??0?$_Yarn@D@std@@QAE@PBD@Z 100274a0 f i libcpmtd:locale0.obj
 0001:000264d0       ??0_Fac_node@std@@QAE@PAU01@PAV_Facet_base@1@@Z 100274d0 f i libcpmtd:locale0.obj
 0001:00026500       ??0_Locimp@locale@std@@AAE@ABV012@@Z 10027500 f i libcpmtd:locale0.obj
 0001:000265c0       ??0_Locimp@locale@std@@AAE@_N@Z 100275c0 f i libcpmtd:locale0.obj
 0001:00026660       ??0locale@std@@AAE@PAV_Locimp@01@@Z 10027660 f i libcpmtd:locale0.obj
 0001:00026680       ??0locale@std@@QAE@W4_Uninitialized@1@@Z 10027680 f i libcpmtd:locale0.obj
 0001:00026690       ??1_Fac_node@std@@QAE@XZ   10027690 f i libcpmtd:locale0.obj
 0001:000266c0       ??1_Fac_tidy_reg_t@std@@QAE@XZ 100276c0 f i libcpmtd:locale0.obj
 0001:00026700       ??1_Locimp@locale@std@@MAE@XZ 10027700 f i libcpmtd:locale0.obj
 0001:00026740       ??4?$_Yarn@D@std@@QAEAAV01@PBD@Z 10027740 f i libcpmtd:locale0.obj
 0001:000267e0       ??_G_Fac_node@std@@QAEPAXI@Z 100277e0 f i libcpmtd:locale0.obj
 0001:00026810       ??_G_Locimp@locale@std@@MAEPAXI@Z 10027810 f i libcpmtd:locale0.obj
 0001:00026810       ??_E_Locimp@locale@std@@MAEPAXI@Z 10027810 f i libcpmtd:locale0.obj
 0001:00026840       ?_C_str@?$_Yarn@D@std@@QBEPBDXZ 10027840 f i libcpmtd:locale0.obj
 0001:00026870       ?_Empty@?$_Yarn@D@std@@QBE_NXZ 10027870 f i libcpmtd:locale0.obj
 0001:000268a0       ?_Facet_Register@std@@YAXPAV_Facet_base@1@@Z 100278a0 f   libcpmtd:locale0.obj
 0001:00026940       ?_Getgloballocale@locale@std@@CAPAV_Locimp@12@XZ 10027940 f   libcpmtd:locale0.obj
 0001:00026950       ?_Init@locale@std@@CAPAV_Locimp@12@_N@Z 10027950 f   libcpmtd:locale0.obj
 0001:00026a70       ?_Locimp_dtor@_Locimp@locale@std@@CAXPAV123@@Z 10027a70 f   libcpmtd:locale0.obj
 0001:00026b30       ?_Locinfo_ctor@_Locinfo@std@@SAXPAV12@PBD@Z 10027b30 f   libcpmtd:locale0.obj
 0001:00026bb0       ?_Locinfo_dtor@_Locinfo@std@@SAXPAV12@@Z 10027bb0 f   libcpmtd:locale0.obj
 0001:00026be0       ?_New_Locimp@_Locimp@locale@std@@CAPAV123@ABV123@@Z 10027be0 f   libcpmtd:locale0.obj
 0001:00026c70       ?_New_Locimp@_Locimp@locale@std@@CAPAV123@_N@Z 10027c70 f   libcpmtd:locale0.obj
 0001:00026d00       ?_Setgloballocale@locale@std@@CAXPAX@Z 10027d00 f   libcpmtd:locale0.obj
 0001:00026d30       ?classic@locale@std@@SAABV12@XZ 10027d30 f   libcpmtd:locale0.obj
 0001:00026d50       ?empty@locale@std@@SA?AV12@XZ 10027d50 f   libcpmtd:locale0.obj
 0001:00026d90       __Deletegloballocale       10027d90 f   libcpmtd:locale0.obj
 0001:00026e00       ??2@YAPAXIABU_DebugHeapTag_t@std@@PADH@Z 10027e00 f   libcpmtd:xdebug.obj
 0001:00026e40       ??3@YAXPAXABU_DebugHeapTag_t@std@@PADH@Z 10027e40 f   libcpmtd:xdebug.obj
 0001:00026e60       ??_U@YAPAXIABU_DebugHeapTag_t@std@@PADH@Z 10027e60 f   libcpmtd:xdebug.obj
 0001:00026e80       ??_V@YAXPAXABU_DebugHeapTag_t@std@@PADH@Z 10027e80 f   libcpmtd:xdebug.obj
 0001:00026ea0       ?_DebugHeapTag_func@std@@YAABU_DebugHeapTag_t@1@XZ 10027ea0 f   libcpmtd:xdebug.obj
 0001:00026eb0       ?_Syserror_map@std@@YAPBDH@Z 10027eb0 f   libcpmtd:syserror.obj
 0001:00026f00       ?_Winerror_map@std@@YAPBDH@Z 10027f00 f   libcpmtd:syserror.obj
 0001:00026f50       ??$_DebugHeapDelete@U_Fnarray@ios_base@std@@@std@@YAXPAU_Fnarray@ios_base@0@@Z 10027f50 f i libcpmtd:ios.obj
 0001:00026f70       ??$_DebugHeapDelete@U_Iosarray@ios_base@std@@@std@@YAXPAU_Iosarray@ios_base@0@@Z 10027f70 f i libcpmtd:ios.obj
 0001:00026f90       ?_Addstd@ios_base@std@@SAXPAV12@@Z 10027f90 f   libcpmtd:ios.obj
 0001:00027030       ?_Callfns@ios_base@std@@AAEXW4event@12@@Z 10028030 f i libcpmtd:ios.obj
 0001:00027080       ?_Ios_base_dtor@ios_base@std@@CAXPAV12@@Z 10028080 f   libcpmtd:ios.obj
 0001:000270e0       ?_Tidy@ios_base@std@@AAEXXZ 100280e0 f i libcpmtd:ios.obj
 0001:00027170       ??$_Xfiopen@D@std@@YAPAU_iobuf@@PBDHH@Z 10028170 f i libcpmtd:fiopen.obj
 0001:000272b0       ??$_Xfiopen@_W@std@@YAPAU_iobuf@@PB_WHH@Z 100282b0 f i libcpmtd:fiopen.obj
 0001:000273f0       ?_Fiopen@std@@YAPAU_iobuf@@PBDHH@Z 100283f0 f   libcpmtd:fiopen.obj
 0001:00027410       ?_Fiopen@std@@YAPAU_iobuf@@PBGHH@Z 10028410 f   libcpmtd:fiopen.obj
 0001:00027430       ?_Fiopen@std@@YAPAU_iobuf@@PB_WHH@Z 10028430 f   libcpmtd:fiopen.obj
 0001:00027450       ?_Xfsopen@std@@YAPAU_iobuf@@PBDHH@Z 10028450 f   libcpmtd:fiopen.obj
 0001:00027470       ?_Xfsopen@std@@YAPAU_iobuf@@PB_WHH@Z 10028470 f   libcpmtd:fiopen.obj
 0001:00027490       __Mtxdst                   10028490 f   libcpmtd:xmtx.obj
 0001:000274a0       __Mtxinit                  100284a0 f   libcpmtd:xmtx.obj
 0001:000274c0       __Mtxlock                  100284c0 f   libcpmtd:xmtx.obj
 0001:000274d0       __Mtxunlock                100284d0 f   libcpmtd:xmtx.obj
 0001:000274e0       __Once                     100284e0 f   libcpmtd:xmtx.obj
 0001:00027540       ??1_Init_atexit@@QAE@XZ    10028540 f i libcpmtd:iosptrs.obj
 0001:00027590       ?_Atexit@@YAXP6AXXZ@Z      10028590 f   libcpmtd:iosptrs.obj
 0001:000275d0       ??$?8DU?$char_traits@D@std@@@std@@YA_NABV?$istreambuf_iterator@DU?$char_traits@D@std@@@0@0@Z 100285d0 f i libcpmtd:locale.obj
 0001:000275f0       ??$?9DU?$char_traits@D@std@@@std@@YA_NABV?$istreambuf_iterator@DU?$char_traits@D@std@@@0@0@Z 100285f0 f i libcpmtd:locale.obj
 0001:00027630       ??$_Debug_range2@V?$istreambuf_iterator@DU?$char_traits@D@std@@@std@@@std@@YAXV?$istreambuf_iterator@DU?$char_traits@D@std@@@0@0PB_WIUinput_iterator_tag@0@@Z 10028630 f i libcpmtd:locale.obj
 0001:00027660       ??$_Debug_range@V?$istreambuf_iterator@DU?$char_traits@D@std@@@std@@@std@@YAXV?$istreambuf_iterator@DU?$char_traits@D@std@@@0@0PB_WI@Z 10028660 f i libcpmtd:locale.obj
 0001:000276a0       ??$_Find_elem@D@std@@YAIPADD@Z 100286a0 f i libcpmtd:locale.obj
 0001:000276e0       ??$_Getloctxt@DV?$istreambuf_iterator@DU?$char_traits@D@std@@@std@@@std@@YAHAAV?$istreambuf_iterator@DU?$char_traits@D@std@@@0@0IPBD@Z 100286e0 f i libcpmtd:locale.obj
 0001:00027930       ??$_Iter_cat@V?$istreambuf_iterator@DU?$char_traits@D@std@@@std@@@std@@YA?AUinput_iterator_tag@0@ABV?$istreambuf_iterator@DU?$char_traits@D@std@@@0@@Z 10028930 f i libcpmtd:locale.obj
 0001:00027940       ??$use_facet@V?$num_get@DV?$istreambuf_iterator@DU?$char_traits@D@std@@@std@@@std@@@std@@YAABV?$num_get@DV?$istreambuf_iterator@DU?$char_traits@D@std@@@std@@@0@ABVlocale@0@@Z 10028940 f i libcpmtd:locale.obj
 0001:00027a40       ??0?$num_get@DV?$istreambuf_iterator@DU?$char_traits@D@std@@@std@@@std@@QAE@ABV_Locinfo@1@I@Z 10028a40 f i libcpmtd:locale.obj
 0001:00027ab0       ??1?$num_get@DV?$istreambuf_iterator@DU?$char_traits@D@std@@@std@@@std@@MAE@XZ 10028ab0 f i libcpmtd:locale.obj
 0001:00027ad0       ??D?$istreambuf_iterator@DU?$char_traits@D@std@@@std@@QBEABDXZ 10028ad0 f i libcpmtd:locale.obj
 0001:00027b20       ??E?$istreambuf_iterator@DU?$char_traits@D@std@@@std@@QAEAAV01@XZ 10028b20 f i libcpmtd:locale.obj
 0001:00027b60       ??Y?$basic_string@DU?$char_traits@D@std@@V?$allocator@D@2@@std@@QAEAAV01@ABV01@@Z 10028b60 f i libcpmtd:locale.obj
 0001:00027b80       ??Y?$basic_string@DU?$char_traits@D@std@@V?$allocator@D@2@@std@@QAEAAV01@D@Z 10028b80 f i libcpmtd:locale.obj
 0001:00027ba0       ??_E?$num_get@DV?$istreambuf_iterator@DU?$char_traits@D@std@@@std@@@std@@MAEPAXI@Z 10028ba0 f i libcpmtd:locale.obj
 0001:00027ba0       ??_G?$num_get@DV?$istreambuf_iterator@DU?$char_traits@D@std@@@std@@@std@@MAEPAXI@Z 10028ba0 f i libcpmtd:locale.obj
 0001:00027bd0       ?_Addfac@_Locimp@locale@std@@AAEXPAVfacet@23@I@Z 10028bd0 f i libcpmtd:locale.obj
 0001:00027c00       ?_Getcat@?$num_get@DV?$istreambuf_iterator@DU?$char_traits@D@std@@@std@@@std@@SAIPAPBVfacet@locale@2@PBV42@@Z 10028c00 f i libcpmtd:locale.obj
 0001:00027d00       ?_Getffld@?$num_get@DV?$istreambuf_iterator@DU?$char_traits@D@std@@@std@@@std@@ABAHPADAAV?$istreambuf_iterator@DU?$char_traits@D@std@@@2@1AAVios_base@2@PAH@Z 10028d00 f i libcpmtd:locale.obj
 0001:00028510       ?_Getffldx@?$num_get@DV?$istreambuf_iterator@DU?$char_traits@D@std@@@std@@@std@@ABAHPADAAV?$istreambuf_iterator@DU?$char_traits@D@std@@@2@1AAVios_base@2@PAH@Z 10029510 f i libcpmtd:locale.obj
 0001:00028e00       ?_Getifld@?$num_get@DV?$istreambuf_iterator@DU?$char_traits@D@std@@@std@@@std@@ABAHPADAAV?$istreambuf_iterator@DU?$char_traits@D@std@@@2@1HABVlocale@2@@Z 10029e00 f i libcpmtd:locale.obj
 0001:00029340       ?_Getname@_Locinfo@std@@QBEPBDXZ 1002a340 f i libcpmtd:locale.obj
 0001:00029360       ?_Inc@?$istreambuf_iterator@DU?$char_traits@D@std@@@std@@AAEXXZ 1002a360 f i libcpmtd:locale.obj
 0001:000293c0       ?_Init@?$num_get@DV?$istreambuf_iterator@DU?$char_traits@D@std@@@std@@@std@@IAEXABV_Locinfo@2@@Z 1002a3c0 f i libcpmtd:locale.obj
 0001:000293d0       ?_Locimp_Addfac@_Locimp@locale@std@@CAXPAV123@PAVfacet@23@I@Z 1002a3d0 f   libcpmtd:locale.obj
 0001:00029510       ?_Locimp_ctor@_Locimp@locale@std@@CAXPAV123@ABV123@@Z 1002a510 f   libcpmtd:locale.obj
 0001:00029640       ?_Locinfo_Addcats@_Locinfo@std@@SAAAV12@PAV12@HPBD@Z 1002a640 f   libcpmtd:locale.obj
 0001:00029750       ?_Locinfo_ctor@_Locinfo@std@@SAXPAV12@HPBD@Z 1002a750 f   libcpmtd:locale.obj
 0001:000297b0       ?_Makeloc@_Locimp@locale@std@@CAPAV123@ABV_Locinfo@3@HPAV123@PBV23@@Z 1002a7b0 f   libcpmtd:locale.obj
 0001:00029be0       ?_Peek@?$istreambuf_iterator@DU?$char_traits@D@std@@@std@@ABEDXZ 1002abe0 f i libcpmtd:locale.obj
 0001:00029c50       ?append@?$basic_string@DU?$char_traits@D@std@@V?$allocator@D@2@@std@@QAEAAV12@ABV12@@Z 1002ac50 f i libcpmtd:locale.obj
 0001:00029c80       ?append@?$basic_string@DU?$char_traits@D@std@@V?$allocator@D@2@@std@@QAEAAV12@ABV12@II@Z 1002ac80 f i libcpmtd:locale.obj
 0001:00029d40       ?do_get@?$num_get@DV?$istreambuf_iterator@DU?$char_traits@D@std@@@std@@@std@@MBE?AV?$istreambuf_iterator@DU?$char_traits@D@std@@@2@V32@0AAVios_base@2@AAHAAG@Z 1002ad40 f i libcpmtd:locale.obj
 0001:00029ed0       ?do_get@?$num_get@DV?$istreambuf_iterator@DU?$char_traits@D@std@@@std@@@std@@MBE?AV?$istreambuf_iterator@DU?$char_traits@D@std@@@2@V32@0AAVios_base@2@AAHAAI@Z 1002aed0 f i libcpmtd:locale.obj
 0001:0002a060       ?do_get@?$num_get@DV?$istreambuf_iterator@DU?$char_traits@D@std@@@std@@@std@@MBE?AV?$istreambuf_iterator@DU?$char_traits@D@std@@@2@V32@0AAVios_base@2@AAHAAJ@Z 1002b060 f i libcpmtd:locale.obj
 0001:0002a1a0       ?do_get@?$num_get@DV?$istreambuf_iterator@DU?$char_traits@D@std@@@std@@@std@@MBE?AV?$istreambuf_iterator@DU?$char_traits@D@std@@@2@V32@0AAVios_base@2@AAHAAK@Z 1002b1a0 f i libcpmtd:locale.obj
 0001:0002a2e0       ?do_get@?$num_get@DV?$istreambuf_iterator@DU?$char_traits@D@std@@@std@@@std@@MBE?AV?$istreambuf_iterator@DU?$char_traits@D@std@@@2@V32@0AAVios_base@2@AAHAAM@Z 1002b2e0 f i libcpmtd:locale.obj
 0001:0002a3f0       ?do_get@?$num_get@DV?$istreambuf_iterator@DU?$char_traits@D@std@@@std@@@std@@MBE?AV?$istreambuf_iterator@DU?$char_traits@D@std@@@2@V32@0AAVios_base@2@AAHAAN@Z 1002b3f0 f i libcpmtd:locale.obj
 0001:0002a500       ?do_get@?$num_get@DV?$istreambuf_iterator@DU?$char_traits@D@std@@@std@@@std@@MBE?AV?$istreambuf_iterator@DU?$char_traits@D@std@@@2@V32@0AAVios_base@2@AAHAAO@Z 1002b500 f i libcpmtd:locale.obj
 0001:0002a610       ?do_get@?$num_get@DV?$istreambuf_iterator@DU?$char_traits@D@std@@@std@@@std@@MBE?AV?$istreambuf_iterator@DU?$char_traits@D@std@@@2@V32@0AAVios_base@2@AAHAAPAX@Z 1002b610 f i libcpmtd:locale.obj
 0001:0002a780       ?do_get@?$num_get@DV?$istreambuf_iterator@DU?$char_traits@D@std@@@std@@@std@@MBE?AV?$istreambuf_iterator@DU?$char_traits@D@std@@@2@V32@0AAVios_base@2@AAHAA_J@Z 1002b780 f i libcpmtd:locale.obj
 0001:0002a8c0       ?do_get@?$num_get@DV?$istreambuf_iterator@DU?$char_traits@D@std@@@std@@@std@@MBE?AV?$istreambuf_iterator@DU?$char_traits@D@std@@@2@V32@0AAVios_base@2@AAHAA_K@Z 1002b8c0 f i libcpmtd:locale.obj
 0001:0002aa00       ?do_get@?$num_get@DV?$istreambuf_iterator@DU?$char_traits@D@std@@@std@@@std@@MBE?AV?$istreambuf_iterator@DU?$char_traits@D@std@@@2@V32@0AAVios_base@2@AAHAA_N@Z 1002ba00 f i libcpmtd:locale.obj
 0001:0002acf0       ?equal@?$istreambuf_iterator@DU?$char_traits@D@std@@@std@@QBE_NABV12@@Z 1002bcf0 f i libcpmtd:locale.obj
 0001:0002ad60       ?global@locale@std@@SA?AV12@ABV12@@Z 1002bd60 f   libcpmtd:locale.obj
 0001:0002aec0       ?sbumpc@?$basic_streambuf@DU?$char_traits@D@std@@@std@@QAEHXZ 1002bec0 f i libcpmtd:locale.obj
 0001:0002af20       ?sgetc@?$basic_streambuf@DU?$char_traits@D@std@@@std@@QAEHXZ 1002bf20 f i libcpmtd:locale.obj
 0001:0002af80       _ldexpf                    1002bf80 f i libcpmtd:locale.obj
 0001:0002afb0       _ldexpl                    1002bfb0 f i libcpmtd:locale.obj
 0001:0002afd0       ??$?8GG@std@@YA_NABV?$allocator@G@0@0@Z 1002bfd0 f i libcpmtd:wlocale.obj
 0001:0002afe0       ??$?8GU?$char_traits@G@std@@@std@@YA_NABV?$istreambuf_iterator@GU?$char_traits@G@std@@@0@0@Z 1002bfe0 f i libcpmtd:wlocale.obj
 0001:0002b000       ??$?8V?$allocator@G@std@@V01@@std@@YA_NABU?$_Wrap_alloc@V?$allocator@G@std@@@0@0@Z 1002c000 f i libcpmtd:wlocale.obj
 0001:0002b030       ??$?8V?$allocator@_W@std@@V01@@std@@YA_NABU?$_Wrap_alloc@V?$allocator@_W@std@@@0@0@Z 1002c030 f i libcpmtd:wlocale.obj
 0001:0002b060       ??$?8_WU?$char_traits@_W@std@@@std@@YA_NABV?$istreambuf_iterator@_WU?$char_traits@_W@std@@@0@0@Z 1002c060 f i libcpmtd:wlocale.obj
 0001:0002b080       ??$?8_W_W@std@@YA_NABV?$allocator@_W@0@0@Z 1002c080 f i libcpmtd:wlocale.obj
 0001:0002b090       ??$?9GG@std@@YA_NABV?$allocator@G@0@0@Z 1002c090 f i libcpmtd:wlocale.obj
 0001:0002b0d0       ??$?9GU?$char_traits@G@std@@@std@@YA_NABV?$istreambuf_iterator@GU?$char_traits@G@std@@@0@0@Z 1002c0d0 f i libcpmtd:wlocale.obj
 0001:0002b110       ??$?9V?$allocator@G@std@@V01@@std@@YA_NABU?$_Wrap_alloc@V?$allocator@G@std@@@0@0@Z 1002c110 f i libcpmtd:wlocale.obj
 0001:0002b150       ??$?9V?$allocator@_W@std@@V01@@std@@YA_NABU?$_Wrap_alloc@V?$allocator@_W@std@@@0@0@Z 1002c150 f i libcpmtd:wlocale.obj
 0001:0002b190       ??$?9_WU?$char_traits@_W@std@@@std@@YA_NABV?$istreambuf_iterator@_WU?$char_traits@_W@std@@@0@0@Z 1002c190 f i libcpmtd:wlocale.obj
 0001:0002b1d0       ??$?9_W_W@std@@YA_NABV?$allocator@_W@0@0@Z 1002c1d0 f i libcpmtd:wlocale.obj
 0001:0002b210       ??$_Allocate@G@std@@YAPAGIPAG@Z 1002c210 f i libcpmtd:wlocale.obj
 0001:0002b250       ??$_Allocate@_W@std@@YAPA_WIPA_W@Z 1002c250 f i libcpmtd:wlocale.obj
 0001:0002b290       ??$_Copy_impl@PA_WV?$ostreambuf_iterator@GU?$char_traits@G@std@@@std@@@std@@YA?AV?$ostreambuf_iterator@GU?$char_traits@G@std@@@0@PA_W0V10@@Z 1002c290 f i libcpmtd:wlocale.obj
 0001:0002b2d0       ??$_Copy_impl@PA_WV?$ostreambuf_iterator@GU?$char_traits@G@std@@@std@@@std@@YA?AV?$ostreambuf_iterator@GU?$char_traits@G@std@@@0@PA_W0V10@U?$integral_constant@_N$00@0@@Z 1002c2d0 f i libcpmtd:wlocale.obj
 0001:0002b320       ??$_Copy_impl@PA_WV?$ostreambuf_iterator@GU?$char_traits@G@std@@@std@@@std@@YA?AV?$ostreambuf_iterator@GU?$char_traits@G@std@@@0@PA_W0V10@U_Nonscalar_ptr_iterator_tag@0@@Z 1002c320 f i libcpmtd:wlocale.obj
 0001:0002b370       ??$_Copy_impl@PA_WV?$ostreambuf_iterator@GU?$char_traits@G@std@@@std@@@std@@YA?AV?$ostreambuf_iterator@GU?$char_traits@G@std@@@0@PA_W0V10@Uinput_iterator_tag@0@Uoutput_iterator_tag@0@@Z 1002c370 f i libcpmtd:wlocale.obj
 0001:0002b3a0       ??$_Copy_impl@PA_WV?$ostreambuf_iterator@_WU?$char_traits@_W@std@@@std@@@std@@YA?AV?$ostreambuf_iterator@_WU?$char_traits@_W@std@@@0@PA_W0V10@@Z 1002c3a0 f i libcpmtd:wlocale.obj
 0001:0002b3e0       ??$_Copy_impl@PA_WV?$ostreambuf_iterator@_WU?$char_traits@_W@std@@@std@@@std@@YA?AV?$ostreambuf_iterator@_WU?$char_traits@_W@std@@@0@PA_W0V10@U?$integral_constant@_N$00@0@@Z 1002c3e0 f i libcpmtd:wlocale.obj
 0001:0002b430       ??$_Copy_impl@PA_WV?$ostreambuf_iterator@_WU?$char_traits@_W@std@@@std@@@std@@YA?AV?$ostreambuf_iterator@_WU?$char_traits@_W@std@@@0@PA_W0V10@U_Nonscalar_ptr_iterator_tag@0@@Z 1002c430 f i libcpmtd:wlocale.obj
 0001:0002b480       ??$_Copy_impl@PA_WV?$ostreambuf_iterator@_WU?$char_traits@_W@std@@@std@@@std@@YA?AV?$ostreambuf_iterator@_WU?$char_traits@_W@std@@@0@PA_W0V10@Uinput_iterator_tag@0@Uoutput_iterator_tag@0@@Z 1002c480 f i libcpmtd:wlocale.obj
 0001:0002b4b0       ??$_Debug_pointer@F@std@@YAXPAFPB_WI@Z 1002c4b0 f i libcpmtd:wlocale.obj
 0001:0002b4d0       ??$_Debug_pointer@G@std@@YAXPAGPB_WI@Z 1002c4d0 f i libcpmtd:wlocale.obj
 0001:0002b4f0       ??$_Debug_pointer@G@std@@YAXPBGPB_WI@Z 1002c4f0 f i libcpmtd:wlocale.obj
 0001:0002b510       ??$_Debug_pointer@Utm@@@std@@YAXPAUtm@@PB_WI@Z 1002c510 f i libcpmtd:wlocale.obj
 0001:0002b530       ??$_Debug_pointer@Utm@@@std@@YAXPBUtm@@PB_WI@Z 1002c530 f i libcpmtd:wlocale.obj
 0001:0002b550       ??$_Debug_pointer@V?$ostreambuf_iterator@GU?$char_traits@G@std@@@std@@@std@@YAXAAV?$ostreambuf_iterator@GU?$char_traits@G@std@@@0@PB_WI@Z 1002c550 f i libcpmtd:wlocale.obj
 0001:0002b560       ??$_Debug_pointer@V?$ostreambuf_iterator@_WU?$char_traits@_W@std@@@std@@@std@@YAXAAV?$ostreambuf_iterator@_WU?$char_traits@_W@std@@@0@PB_WI@Z 1002c560 f i libcpmtd:wlocale.obj
 0001:0002b570       ??$_Debug_pointer@_W@std@@YAXPA_WPB_WI@Z 1002c570 f i libcpmtd:wlocale.obj
 0001:0002b590       ??$_Debug_pointer@_W@std@@YAXPB_W0I@Z 1002c590 f i libcpmtd:wlocale.obj
 0001:0002b5b0       ??$_Debug_range2@PAD@std@@YAXPAD0PB_WIUrandom_access_iterator_tag@0@@Z 1002c5b0 f i libcpmtd:wlocale.obj
 0001:0002b610       ??$_Debug_range2@PAG@std@@YAXPAG0PB_WIUrandom_access_iterator_tag@0@@Z 1002c610 f i libcpmtd:wlocale.obj
 0001:0002b670       ??$_Debug_range2@PA_W@std@@YAXPA_W0PB_WIUrandom_access_iterator_tag@0@@Z 1002c670 f i libcpmtd:wlocale.obj
 0001:0002b6d0       ??$_Debug_range2@PBG@std@@YAXPBG0PB_WIUrandom_access_iterator_tag@0@@Z 1002c6d0 f i libcpmtd:wlocale.obj
 0001:0002b730       ??$_Debug_range2@PB_W@std@@YAXPB_W00IUrandom_access_iterator_tag@0@@Z 1002c730 f i libcpmtd:wlocale.obj
 0001:0002b790       ??$_Debug_range2@V?$istreambuf_iterator@GU?$char_traits@G@std@@@std@@@std@@YAXV?$istreambuf_iterator@GU?$char_traits@G@std@@@0@0PB_WIUinput_iterator_tag@0@@Z 1002c790 f i libcpmtd:wlocale.obj
 0001:0002b7c0       ??$_Debug_range2@V?$istreambuf_iterator@_WU?$char_traits@_W@std@@@std@@@std@@YAXV?$istreambuf_iterator@_WU?$char_traits@_W@std@@@0@0PB_WIUinput_iterator_tag@0@@Z 1002c7c0 f i libcpmtd:wlocale.obj
 0001:0002b7f0       ??$_Debug_range@PAD@std@@YAXPAD0PB_WI@Z 1002c7f0 f i libcpmtd:wlocale.obj
 0001:0002b830       ??$_Debug_range@PAG@std@@YAXPAG0PB_WI@Z 1002c830 f i libcpmtd:wlocale.obj
 0001:0002b870       ??$_Debug_range@PA_W@std@@YAXPA_W0PB_WI@Z 1002c870 f i libcpmtd:wlocale.obj
 0001:0002b8b0       ??$_Debug_range@PBG@std@@YAXPBG0PB_WI@Z 1002c8b0 f i libcpmtd:wlocale.obj
 0001:0002b8f0       ??$_Debug_range@PB_W@std@@YAXPB_W00I@Z 1002c8f0 f i libcpmtd:wlocale.obj
 0001:0002b930       ??$_Debug_range@V?$istreambuf_iterator@GU?$char_traits@G@std@@@std@@@std@@YAXV?$istreambuf_iterator@GU?$char_traits@G@std@@@0@0PB_WI@Z 1002c930 f i libcpmtd:wlocale.obj
 0001:0002b970       ??$_Debug_range@V?$istreambuf_iterator@_WU?$char_traits@_W@std@@@std@@@std@@YAXV?$istreambuf_iterator@_WU?$char_traits@_W@std@@@0@0PB_WI@Z 1002c970 f i libcpmtd:wlocale.obj
 0001:0002b9b0       ??$_Find_elem@G@std@@YAIPAGG@Z 1002c9b0 f i libcpmtd:wlocale.obj
 0001:0002b9f0       ??$_Find_elem@_W@std@@YAIPA_W_W@Z 1002c9f0 f i libcpmtd:wlocale.obj
 0001:0002ba30       ??$_Getloctxt@DV?$istreambuf_iterator@GU?$char_traits@G@std@@@std@@@std@@YAHAAV?$istreambuf_iterator@GU?$char_traits@G@std@@@0@0IPBD@Z 1002ca30 f i libcpmtd:wlocale.obj
 0001:0002bc80       ??$_Getloctxt@DV?$istreambuf_iterator@_WU?$char_traits@_W@std@@@std@@@std@@YAHAAV?$istreambuf_iterator@_WU?$char_traits@_W@std@@@0@0IPBD@Z 1002cc80 f i libcpmtd:wlocale.obj
 0001:0002bed0       ??$_Getloctxt@GV?$istreambuf_iterator@GU?$char_traits@G@std@@@std@@@std@@YAHAAV?$istreambuf_iterator@GU?$char_traits@G@std@@@0@0IPBG@Z 1002ced0 f i libcpmtd:wlocale.obj
 0001:0002c130       ??$_Getloctxt@_WV?$istreambuf_iterator@_WU?$char_traits@_W@std@@@std@@@std@@YAHAAV?$istreambuf_iterator@_WU?$char_traits@_W@std@@@0@0IPB_W@Z 1002d130 f i libcpmtd:wlocale.obj
 0001:0002c390       ??$_Getvals@G@?$_Mpunct@G@std@@IAEXGPBUlconv@@@Z 1002d390 f i libcpmtd:wlocale.obj
 0001:0002c4b0       ??$_Getvals@G@?$numpunct@G@std@@IAEXGPBUlconv@@U_Cvtvec@@@Z 1002d4b0 f i libcpmtd:wlocale.obj
 0001:0002c510       ??$_Getvals@G@?$time_get@GV?$istreambuf_iterator@GU?$char_traits@G@std@@@std@@@std@@IAEXGABV_Locinfo@1@@Z 1002d510 f i libcpmtd:wlocale.obj
 0001:0002c5b0       ??$_Getvals@_W@?$_Mpunct@_W@std@@IAEX_WPBUlconv@@@Z 1002d5b0 f i libcpmtd:wlocale.obj
 0001:0002c690       ??$_Getvals@_W@?$numpunct@_W@std@@IAEX_WPBUlconv@@U_Cvtvec@@@Z 1002d690 f i libcpmtd:wlocale.obj
 0001:0002c6d0       ??$_Getvals@_W@?$time_get@_WV?$istreambuf_iterator@_WU?$char_traits@_W@std@@@std@@@std@@IAEX_WABV_Locinfo@1@@Z 1002d6d0 f i libcpmtd:wlocale.obj
 0001:0002c760       ??$_Is_checked@V?$ostreambuf_iterator@GU?$char_traits@G@std@@@std@@@std@@YA?AU?$integral_constant@_N$00@0@V?$ostreambuf_iterator@GU?$char_traits@G@std@@@0@@Z 1002d760 f i libcpmtd:wlocale.obj
 0001:0002c770       ??$_Is_checked@V?$ostreambuf_iterator@_WU?$char_traits@_W@std@@@std@@@std@@YA?AU?$integral_constant@_N$00@0@V?$ostreambuf_iterator@_WU?$char_traits@_W@std@@@0@@Z 1002d770 f i libcpmtd:wlocale.obj
 0001:0002c780       ??$_Iter_cat@PAD@std@@YA?AUrandom_access_iterator_tag@0@ABQAD@Z 1002d780 f i libcpmtd:wlocale.obj
 0001:0002c7a0       ??$_Iter_cat@PAG@std@@YA?AUrandom_access_iterator_tag@0@ABQAG@Z 1002d7a0 f i libcpmtd:wlocale.obj
 0001:0002c7c0       ??$_Iter_cat@PA_W@std@@YA?AUrandom_access_iterator_tag@0@ABQA_W@Z 1002d7c0 f i libcpmtd:wlocale.obj
 0001:0002c7e0       ??$_Iter_cat@PBG@std@@YA?AUrandom_access_iterator_tag@0@ABQBG@Z 1002d7e0 f i libcpmtd:wlocale.obj
 0001:0002c800       ??$_Iter_cat@PB_W@std@@YA?AUrandom_access_iterator_tag@0@ABQB_W@Z 1002d800 f i libcpmtd:wlocale.obj
 0001:0002c820       ??$_Iter_cat@V?$istreambuf_iterator@GU?$char_traits@G@std@@@std@@@std@@YA?AUinput_iterator_tag@0@ABV?$istreambuf_iterator@GU?$char_traits@G@std@@@0@@Z 1002d820 f i libcpmtd:wlocale.obj
 0001:0002c830       ??$_Iter_cat@V?$istreambuf_iterator@_WU?$char_traits@_W@std@@@std@@@std@@YA?AUinput_iterator_tag@0@ABV?$istreambuf_iterator@_WU?$char_traits@_W@std@@@0@@Z 1002d830 f i libcpmtd:wlocale.obj
 0001:0002c840       ??$_Iter_cat@V?$ostreambuf_iterator@GU?$char_traits@G@std@@@std@@@std@@YA?AUoutput_iterator_tag@0@ABV?$ostreambuf_iterator@GU?$char_traits@G@std@@@0@@Z 1002d840 f i libcpmtd:wlocale.obj
 0001:0002c850       ??$_Iter_cat@V?$ostreambuf_iterator@_WU?$char_traits@_W@std@@@std@@@std@@YA?AUoutput_iterator_tag@0@ABV?$ostreambuf_iterator@_WU?$char_traits@_W@std@@@0@@Z 1002d850 f i libcpmtd:wlocale.obj
 0001:0002c860       ??$_LStrcoll@G@std@@YAHPBG000PBU_Collvec@@@Z 1002d860 f i libcpmtd:wlocale.obj
 0001:0002c8f0       ??$_LStrcoll@_W@std@@YAHPB_W000PBU_Collvec@@@Z 1002d8f0 f i libcpmtd:wlocale.obj
 0001:0002c920       ??$_LStrxfrm@G@std@@YAIPAG0PBG1PBU_Collvec@@@Z 1002d920 f i libcpmtd:wlocale.obj
 0001:0002c970       ??$_LStrxfrm@_W@std@@YAIPA_W0PB_W1PBU_Collvec@@@Z 1002d970 f i libcpmtd:wlocale.obj
 0001:0002c9a0       ??$_Maklocchr@G@std@@YAGDPAGABU_Cvtvec@@@Z 1002d9a0 f i libcpmtd:wlocale.obj
 0001:0002c9e0       ??$_Maklocchr@_W@std@@YA_WDPA_WABU_Cvtvec@@@Z 1002d9e0 f i libcpmtd:wlocale.obj
 0001:0002ca20       ??$_Maklocstr@G@std@@YAPAGPBDPAGABU_Cvtvec@@@Z 1002da20 f i libcpmtd:wlocale.obj
 0001:0002cb50       ??$_Maklocstr@_W@std@@YAPA_WPBDPA_WABU_Cvtvec@@@Z 1002db50 f i libcpmtd:wlocale.obj
 0001:0002cc80       ??$_Ptr_cat@PA_WV?$ostreambuf_iterator@GU?$char_traits@G@std@@@std@@@std@@YA?AU_Nonscalar_ptr_iterator_tag@0@AAPA_WAAV?$ostreambuf_iterator@GU?$char_traits@G@std@@@0@@Z 1002dc80 f i libcpmtd:wlocale.obj
 0001:0002cc90       ??$_Ptr_cat@PA_WV?$ostreambuf_iterator@_WU?$char_traits@_W@std@@@std@@@std@@YA?AU_Nonscalar_ptr_iterator_tag@0@AAPA_WAAV?$ostreambuf_iterator@_WU?$char_traits@_W@std@@@0@@Z 1002dc90 f i libcpmtd:wlocale.obj
 0001:0002cca0       ??$_Unchecked@PA_W@std@@YAPA_WPA_W@Z 1002dca0 f i libcpmtd:wlocale.obj
 0001:0002ccb0       ??$addressof@G@std@@YAPAGAAG@Z 1002dcb0 f i libcpmtd:wlocale.obj
 0001:0002ccc0       ??$addressof@_W@std@@YAPA_WAA_W@Z 1002dcc0 f i libcpmtd:wlocale.obj
 0001:0002ccd0       ??$assign@V?$_String_iterator@V?$_String_val@U?$_Simple_types@G@std@@@std@@@std@@@?$basic_string@GU?$char_traits@G@std@@V?$allocator@G@2@@std@@QAEAAV01@V?$_String_iterator@V?$_String_val@U?$_Simple_types@G@std@@@std@@@1@0@Z 1002dcd0 f i libcpmtd:wlocale.obj
 0001:0002ce00       ??$assign@V?$_String_iterator@V?$_String_val@U?$_Simple_types@_W@std@@@std@@@std@@@?$basic_string@_WU?$char_traits@_W@std@@V?$allocator@_W@2@@std@@QAEAAV01@V?$_String_iterator@V?$_String_val@U?$_Simple_types@_W@std@@@std@@@1@0@Z 1002de00 f i libcpmtd:wlocale.obj
 0001:0002cf30       ??$construct@PAGAAPAG@?$_Wrap_alloc@V?$allocator@G@std@@@std@@QAEXPAPAGAAPAG@Z 1002df30 f i libcpmtd:wlocale.obj
 0001:0002cf60       ??$construct@PAGAAPAG@?$allocator@G@std@@QAEXPAPAGAAPAG@Z 1002df60 f i libcpmtd:wlocale.obj
 0001:0002cff0       ??$construct@PAGAAPAG@?$allocator_traits@V?$allocator@G@std@@@std@@SAXAAV?$allocator@G@1@PAPAGAAPAG@Z 1002dff0 f i libcpmtd:wlocale.obj
 0001:0002d010       ??$construct@PA_WAAPA_W@?$_Wrap_alloc@V?$allocator@_W@std@@@std@@QAEXPAPA_WAAPA_W@Z 1002e010 f i libcpmtd:wlocale.obj
 0001:0002d040       ??$construct@PA_WAAPA_W@?$allocator@_W@std@@QAEXPAPA_WAAPA_W@Z 1002e040 f i libcpmtd:wlocale.obj
 0001:0002d0d0       ??$construct@PA_WAAPA_W@?$allocator_traits@V?$allocator@_W@std@@@std@@SAXAAV?$allocator@_W@1@PAPA_WAAPA_W@Z 1002e0d0 f i libcpmtd:wlocale.obj
 0001:0002d0f0       ??$copy@PA_WV?$ostreambuf_iterator@GU?$char_traits@G@std@@@std@@@std@@YA?AV?$ostreambuf_iterator@GU?$char_traits@G@std@@@0@PA_W0V10@@Z 1002e0f0 f i libcpmtd:wlocale.obj
 0001:0002d190       ??$copy@PA_WV?$ostreambuf_iterator@_WU?$char_traits@_W@std@@@std@@@std@@YA?AV?$ostreambuf_iterator@_WU?$char_traits@_W@std@@@0@PA_W0V10@@Z 1002e190 f i libcpmtd:wlocale.obj
 0001:0002d230       ??$destroy@PAG@?$_Wrap_alloc@V?$allocator@G@std@@@std@@QAEXPAPAG@Z 1002e230 f i libcpmtd:wlocale.obj
 0001:0002d250       ??$destroy@PAG@?$allocator@G@std@@QAEXPAPAG@Z 1002e250 f i libcpmtd:wlocale.obj
 0001:0002d260       ??$destroy@PAG@?$allocator_traits@V?$allocator@G@std@@@std@@SAXAAV?$allocator@G@1@PAPAG@Z 1002e260 f i libcpmtd:wlocale.obj
 0001:0002d280       ??$destroy@PA_W@?$_Wrap_alloc@V?$allocator@_W@std@@@std@@QAEXPAPA_W@Z 1002e280 f i libcpmtd:wlocale.obj
 0001:0002d2a0       ??$destroy@PA_W@?$allocator@_W@std@@QAEXPAPA_W@Z 1002e2a0 f i libcpmtd:wlocale.obj
 0001:0002d2b0       ??$destroy@PA_W@?$allocator_traits@V?$allocator@_W@std@@@std@@SAXAAV?$allocator@_W@1@PAPA_W@Z 1002e2b0 f i libcpmtd:wlocale.obj
 0001:0002d2d0       ??$forward@AAPAG@std@@YAAAPAGAAPAG@Z 1002e2d0 f i libcpmtd:wlocale.obj
 0001:0002d2e0       ??$forward@AAPA_W@std@@YAAAPA_WAAPA_W@Z 1002e2e0 f i libcpmtd:wlocale.obj
 0001:0002d2f0       ??$forward@V?$basic_string@GU?$char_traits@G@std@@V?$allocator@G@2@@std@@@std@@YA$$QAV?$basic_string@GU?$char_traits@G@std@@V?$allocator@G@2@@0@AAV10@@Z 1002e2f0 f i libcpmtd:wlocale.obj
 0001:0002d300       ??$forward@V?$basic_string@_WU?$char_traits@_W@std@@V?$allocator@_W@2@@std@@@std@@YA$$QAV?$basic_string@_WU?$char_traits@_W@std@@V?$allocator@_W@2@@0@AAV10@@Z 1002e300 f i libcpmtd:wlocale.obj
 0001:0002d310       ??$use_facet@V?$codecvt@GDH@std@@@std@@YAABV?$codecvt@GDH@0@ABVlocale@0@@Z 1002e310 f i libcpmtd:wlocale.obj
 0001:0002d410       ??$use_facet@V?$codecvt@_WDH@std@@@std@@YAABV?$codecvt@_WDH@0@ABVlocale@0@@Z 1002e410 f i libcpmtd:wlocale.obj
 0001:0002d510       ??$use_facet@V?$collate@G@std@@@std@@YAABV?$collate@G@0@ABVlocale@0@@Z 1002e510 f i libcpmtd:wlocale.obj
 0001:0002d610       ??$use_facet@V?$collate@_W@std@@@std@@YAABV?$collate@_W@0@ABVlocale@0@@Z 1002e610 f i libcpmtd:wlocale.obj
 0001:0002d710       ??$use_facet@V?$ctype@G@std@@@std@@YAABV?$ctype@G@0@ABVlocale@0@@Z 1002e710 f i libcpmtd:wlocale.obj
 0001:0002d810       ??$use_facet@V?$ctype@_W@std@@@std@@YAABV?$ctype@_W@0@ABVlocale@0@@Z 1002e810 f i libcpmtd:wlocale.obj
 0001:0002d910       ??$use_facet@V?$messages@G@std@@@std@@YAABV?$messages@G@0@ABVlocale@0@@Z 1002e910 f i libcpmtd:wlocale.obj
 0001:0002da10       ??$use_facet@V?$messages@_W@std@@@std@@YAABV?$messages@_W@0@ABVlocale@0@@Z 1002ea10 f i libcpmtd:wlocale.obj
 0001:0002db10       ??$use_facet@V?$money_get@GV?$istreambuf_iterator@GU?$char_traits@G@std@@@std@@@std@@@std@@YAABV?$money_get@GV?$istreambuf_iterator@GU?$char_traits@G@std@@@std@@@0@ABVlocale@0@@Z 1002eb10 f i libcpmtd:wlocale.obj
 0001:0002dc10       ??$use_facet@V?$money_get@_WV?$istreambuf_iterator@_WU?$char_traits@_W@std@@@std@@@std@@@std@@YAABV?$money_get@_WV?$istreambuf_iterator@_WU?$char_traits@_W@std@@@std@@@0@ABVlocale@0@@Z 1002ec10 f i libcpmtd:wlocale.obj
 0001:0002dd10       ??$use_facet@V?$money_put@GV?$ostreambuf_iterator@GU?$char_traits@G@std@@@std@@@std@@@std@@YAABV?$money_put@GV?$ostreambuf_iterator@GU?$char_traits@G@std@@@std@@@0@ABVlocale@0@@Z 1002ed10 f i libcpmtd:wlocale.obj
 0001:0002de10       ??$use_facet@V?$money_put@_WV?$ostreambuf_iterator@_WU?$char_traits@_W@std@@@std@@@std@@@std@@YAABV?$money_put@_WV?$ostreambuf_iterator@_WU?$char_traits@_W@std@@@std@@@0@ABVlocale@0@@Z 1002ee10 f i libcpmtd:wlocale.obj
 0001:0002df10       ??$use_facet@V?$moneypunct@G$00@std@@@std@@YAABV?$moneypunct@G$00@0@ABVlocale@0@@Z 1002ef10 f i libcpmtd:wlocale.obj
 0001:0002e010       ??$use_facet@V?$moneypunct@G$0A@@std@@@std@@YAABV?$moneypunct@G$0A@@0@ABVlocale@0@@Z 1002f010 f i libcpmtd:wlocale.obj
 0001:0002e110       ??$use_facet@V?$moneypunct@_W$00@std@@@std@@YAABV?$moneypunct@_W$00@0@ABVlocale@0@@Z 1002f110 f i libcpmtd:wlocale.obj
 0001:0002e210       ??$use_facet@V?$moneypunct@_W$0A@@std@@@std@@YAABV?$moneypunct@_W$0A@@0@ABVlocale@0@@Z 1002f210 f i libcpmtd:wlocale.obj
 0001:0002e310       ??$use_facet@V?$num_get@GV?$istreambuf_iterator@GU?$char_traits@G@std@@@std@@@std@@@std@@YAABV?$num_get@GV?$istreambuf_iterator@GU?$char_traits@G@std@@@std@@@0@ABVlocale@0@@Z 1002f310 f i libcpmtd:wlocale.obj
 0001:0002e410       ??$use_facet@V?$num_get@_WV?$istreambuf_iterator@_WU?$char_traits@_W@std@@@std@@@std@@@std@@YAABV?$num_get@_WV?$istreambuf_iterator@_WU?$char_traits@_W@std@@@std@@@0@ABVlocale@0@@Z 1002f410 f i libcpmtd:wlocale.obj
 0001:0002e510       ??$use_facet@V?$num_put@GV?$ostreambuf_iterator@GU?$char_traits@G@std@@@std@@@std@@@std@@YAABV?$num_put@GV?$ostreambuf_iterator@GU?$char_traits@G@std@@@std@@@0@ABVlocale@0@@Z 1002f510 f i libcpmtd:wlocale.obj
 0001:0002e610       ??$use_facet@V?$num_put@_WV?$ostreambuf_iterator@_WU?$char_traits@_W@std@@@std@@@std@@@std@@YAABV?$num_put@_WV?$ostreambuf_iterator@_WU?$char_traits@_W@std@@@std@@@0@ABVlocale@0@@Z 1002f610 f i libcpmtd:wlocale.obj
 0001:0002e710       ??$use_facet@V?$numpunct@G@std@@@std@@YAABV?$numpunct@G@0@ABVlocale@0@@Z 1002f710 f i libcpmtd:wlocale.obj
 0001:0002e810       ??$use_facet@V?$numpunct@_W@std@@@std@@YAABV?$numpunct@_W@0@ABVlocale@0@@Z 1002f810 f i libcpmtd:wlocale.obj
 0001:0002e910       ??$use_facet@V?$time_get@GV?$istreambuf_iterator@GU?$char_traits@G@std@@@std@@@std@@@std@@YAABV?$time_get@GV?$istreambuf_iterator@GU?$char_traits@G@std@@@std@@@0@ABVlocale@0@@Z 1002f910 f i libcpmtd:wlocale.obj
 0001:0002ea10       ??$use_facet@V?$time_get@_WV?$istreambuf_iterator@_WU?$char_traits@_W@std@@@std@@@std@@@std@@YAABV?$time_get@_WV?$istreambuf_iterator@_WU?$char_traits@_W@std@@@std@@@0@ABVlocale@0@@Z 1002fa10 f i libcpmtd:wlocale.obj
 0001:0002eb10       ??$use_facet@V?$time_put@GV?$ostreambuf_iterator@GU?$char_traits@G@std@@@std@@@std@@@std@@YAABV?$time_put@GV?$ostreambuf_iterator@GU?$char_traits@G@std@@@std@@@0@ABVlocale@0@@Z 1002fb10 f i libcpmtd:wlocale.obj
 0001:0002ec10       ??$use_facet@V?$time_put@_WV?$ostreambuf_iterator@_WU?$char_traits@_W@std@@@std@@@std@@@std@@YAABV?$time_put@_WV?$ostreambuf_iterator@_WU?$char_traits@_W@std@@@std@@@0@ABVlocale@0@@Z 1002fc10 f i libcpmtd:wlocale.obj
 0001:0002ed10       ??0?$_Iterator012@Urandom_access_iterator_tag@std@@GHPBGABGU_Iterator_base12@2@@std@@QAE@ABU01@@Z 1002fd10 f i libcpmtd:wlocale.obj
 0001:0002ed30       ??0?$_Iterator012@Urandom_access_iterator_tag@std@@GHPBGABGU_Iterator_base12@2@@std@@QAE@XZ 1002fd30 f i libcpmtd:wlocale.obj
 0001:0002ed50       ??0?$_Iterator012@Urandom_access_iterator_tag@std@@_WHPB_WAB_WU_Iterator_base12@2@@std@@QAE@ABU01@@Z 1002fd50 f i libcpmtd:wlocale.obj
 0001:0002ed70       ??0?$_Iterator012@Urandom_access_iterator_tag@std@@_WHPB_WAB_WU_Iterator_base12@2@@std@@QAE@XZ 1002fd70 f i libcpmtd:wlocale.obj
 0001:0002ed90       ??0?$_Mpunct@G@std@@QAE@ABV_Locinfo@1@I_N1@Z 1002fd90 f i libcpmtd:wlocale.obj
 0001:0002ee10       ??0?$_Mpunct@_W@std@@QAE@ABV_Locinfo@1@I_N1@Z 1002fe10 f i libcpmtd:wlocale.obj
 0001:0002ee90       ??0?$_String_alloc@$0A@U?$_String_base_types@GV?$allocator@G@std@@@std@@@std@@QAE@ABV?$allocator@G@1@@Z 1002fe90 f i libcpmtd:wlocale.obj
 0001:0002eef0       ??0?$_String_alloc@$0A@U?$_String_base_types@_WV?$allocator@_W@std@@@std@@@std@@QAE@ABV?$allocator@_W@1@@Z 1002fef0 f i libcpmtd:wlocale.obj
 0001:0002ef50       ??0?$_String_const_iterator@V?$_String_val@U?$_Simple_types@G@std@@@std@@@std@@QAE@ABV01@@Z 1002ff50 f i libcpmtd:wlocale.obj
 0001:0002ef80       ??0?$_String_const_iterator@V?$_String_val@U?$_Simple_types@G@std@@@std@@@std@@QAE@PBGPBU_Container_base12@1@@Z 1002ff80 f i libcpmtd:wlocale.obj
 0001:0002eff0       ??0?$_String_const_iterator@V?$_String_val@U?$_Simple_types@G@std@@@std@@@std@@QAE@XZ 1002fff0 f i libcpmtd:wlocale.obj
 0001:0002f010       ??0?$_String_const_iterator@V?$_String_val@U?$_Simple_types@_W@std@@@std@@@std@@QAE@ABV01@@Z 10030010 f i libcpmtd:wlocale.obj
 0001:0002f040       ??0?$_String_const_iterator@V?$_String_val@U?$_Simple_types@_W@std@@@std@@@std@@QAE@PB_WPBU_Container_base12@1@@Z 10030040 f i libcpmtd:wlocale.obj
 0001:0002f0b0       ??0?$_String_const_iterator@V?$_String_val@U?$_Simple_types@_W@std@@@std@@@std@@QAE@XZ 100300b0 f i libcpmtd:wlocale.obj
 0001:0002f0d0       ??0?$_String_iterator@V?$_String_val@U?$_Simple_types@G@std@@@std@@@std@@QAE@ABV01@@Z 100300d0 f i libcpmtd:wlocale.obj
 0001:0002f0f0       ??0?$_String_iterator@V?$_String_val@U?$_Simple_types@G@std@@@std@@@std@@QAE@PAGPBU_Container_base12@1@@Z 100300f0 f i libcpmtd:wlocale.obj
 0001:0002f110       ??0?$_String_iterator@V?$_String_val@U?$_Simple_types@_W@std@@@std@@@std@@QAE@ABV01@@Z 10030110 f i libcpmtd:wlocale.obj
 0001:0002f130       ??0?$_String_iterator@V?$_String_val@U?$_Simple_types@_W@std@@@std@@@std@@QAE@PA_WPBU_Container_base12@1@@Z 10030130 f i libcpmtd:wlocale.obj
 0001:0002f150       ??0?$_String_val@U?$_Simple_types@G@std@@@std@@QAE@XZ 10030150 f i libcpmtd:wlocale.obj
 0001:0002f180       ??0?$_String_val@U?$_Simple_types@_W@std@@@std@@QAE@XZ 10030180 f i libcpmtd:wlocale.obj
 0001:0002f1b0       ??0?$_Wrap_alloc@V?$allocator@G@std@@@std@@QAE@ABV?$allocator@G@1@@Z 100301b0 f i libcpmtd:wlocale.obj
 0001:0002f1d0       ??0?$_Wrap_alloc@V?$allocator@G@std@@@std@@QAE@XZ 100301d0 f i libcpmtd:wlocale.obj
 0001:0002f1f0       ??0?$_Wrap_alloc@V?$allocator@_W@std@@@std@@QAE@ABV?$allocator@_W@1@@Z 100301f0 f i libcpmtd:wlocale.obj
 0001:0002f210       ??0?$_Wrap_alloc@V?$allocator@_W@std@@@std@@QAE@XZ 10030210 f i libcpmtd:wlocale.obj
 0001:0002f230       ??0?$allocator@G@std@@QAE@ABV01@@Z 10030230 f i libcpmtd:wlocale.obj
 0001:0002f240       ??0?$allocator@G@std@@QAE@XZ 10030240 f i libcpmtd:wlocale.obj
 0001:0002f250       ??0?$allocator@_W@std@@QAE@ABV01@@Z 10030250 f i libcpmtd:wlocale.obj
 0001:0002f260       ??0?$allocator@_W@std@@QAE@XZ 10030260 f i libcpmtd:wlocale.obj
 0001:0002f270       ??0?$basic_string@DU?$char_traits@D@std@@V?$allocator@D@2@@std@@QAE@$$QAV01@@Z 10030270 f i libcpmtd:wlocale.obj
 0001:0002f2c0       ??0?$basic_string@GU?$char_traits@G@std@@V?$allocator@G@2@@std@@QAE@$$QAV01@@Z 100302c0 f i libcpmtd:wlocale.obj
 0001:0002f310       ??0?$basic_string@GU?$char_traits@G@std@@V?$allocator@G@2@@std@@QAE@ABV01@@Z 10030310 f i libcpmtd:wlocale.obj
 0001:0002f3a0       ??0?$basic_string@GU?$char_traits@G@std@@V?$allocator@G@2@@std@@QAE@IG@Z 100303a0 f i libcpmtd:wlocale.obj
 0001:0002f420       ??0?$basic_string@GU?$char_traits@G@std@@V?$allocator@G@2@@std@@QAE@PBG@Z 10030420 f i libcpmtd:wlocale.obj
 0001:0002f4a0       ??0?$basic_string@GU?$char_traits@G@std@@V?$allocator@G@2@@std@@QAE@PBGI@Z 100304a0 f i libcpmtd:wlocale.obj
 0001:0002f520       ??0?$basic_string@GU?$char_traits@G@std@@V?$allocator@G@2@@std@@QAE@XZ 10030520 f i libcpmtd:wlocale.obj
 0001:0002f590       ??0?$basic_string@_WU?$char_traits@_W@std@@V?$allocator@_W@2@@std@@QAE@$$QAV01@@Z 10030590 f i libcpmtd:wlocale.obj
 0001:0002f5e0       ??0?$basic_string@_WU?$char_traits@_W@std@@V?$allocator@_W@2@@std@@QAE@ABV01@@Z 100305e0 f i libcpmtd:wlocale.obj
 0001:0002f670       ??0?$basic_string@_WU?$char_traits@_W@std@@V?$allocator@_W@2@@std@@QAE@I_W@Z 10030670 f i libcpmtd:wlocale.obj
 0001:0002f6f0       ??0?$basic_string@_WU?$char_traits@_W@std@@V?$allocator@_W@2@@std@@QAE@PB_W@Z 100306f0 f i libcpmtd:wlocale.obj
 0001:0002f770       ??0?$basic_string@_WU?$char_traits@_W@std@@V?$allocator@_W@2@@std@@QAE@PB_WI@Z 10030770 f i libcpmtd:wlocale.obj
 0001:0002f7f0       ??0?$basic_string@_WU?$char_traits@_W@std@@V?$allocator@_W@2@@std@@QAE@XZ 100307f0 f i libcpmtd:wlocale.obj
 0001:0002f860       ??0?$codecvt@GDH@std@@QAE@ABV_Locinfo@1@I@Z 10030860 f i libcpmtd:wlocale.obj
 0001:0002f8d0       ??0?$codecvt@_WDH@std@@QAE@ABV_Locinfo@1@I@Z 100308d0 f i libcpmtd:wlocale.obj
 0001:0002f940       ??0?$collate@G@std@@QAE@ABV_Locinfo@1@I@Z 10030940 f i libcpmtd:wlocale.obj
 0001:0002f9b0       ??0?$collate@_W@std@@QAE@ABV_Locinfo@1@I@Z 100309b0 f i libcpmtd:wlocale.obj
 0001:0002fa20       ??0?$ctype@G@std@@QAE@ABV_Locinfo@1@I@Z 10030a20 f i libcpmtd:wlocale.obj
 0001:0002fa90       ??0?$ctype@_W@std@@QAE@ABV_Locinfo@1@I@Z 10030a90 f i libcpmtd:wlocale.obj
 0001:0002fb00       ??0?$messages@G@std@@QAE@ABV_Locinfo@1@I@Z 10030b00 f i libcpmtd:wlocale.obj
 0001:0002fb70       ??0?$messages@_W@std@@QAE@ABV_Locinfo@1@I@Z 10030b70 f i libcpmtd:wlocale.obj
 0001:0002fbe0       ??0?$money_get@GV?$istreambuf_iterator@GU?$char_traits@G@std@@@std@@@std@@QAE@ABV_Locinfo@1@I@Z 10030be0 f i libcpmtd:wlocale.obj
 0001:0002fc50       ??0?$money_get@_WV?$istreambuf_iterator@_WU?$char_traits@_W@std@@@std@@@std@@QAE@ABV_Locinfo@1@I@Z 10030c50 f i libcpmtd:wlocale.obj
 0001:0002fcc0       ??0?$money_put@GV?$ostreambuf_iterator@GU?$char_traits@G@std@@@std@@@std@@QAE@ABV_Locinfo@1@I@Z 10030cc0 f i libcpmtd:wlocale.obj
 0001:0002fd30       ??0?$money_put@_WV?$ostreambuf_iterator@_WU?$char_traits@_W@std@@@std@@@std@@QAE@ABV_Locinfo@1@I@Z 10030d30 f i libcpmtd:wlocale.obj
 0001:0002fda0       ??0?$moneypunct@G$00@std@@QAE@ABV_Locinfo@1@I_N@Z 10030da0 f i libcpmtd:wlocale.obj
 0001:0002fdd0       ??0?$moneypunct@G$0A@@std@@QAE@ABV_Locinfo@1@I_N@Z 10030dd0 f i libcpmtd:wlocale.obj
 0001:0002fe00       ??0?$moneypunct@_W$00@std@@QAE@ABV_Locinfo@1@I_N@Z 10030e00 f i libcpmtd:wlocale.obj
 0001:0002fe30       ??0?$moneypunct@_W$0A@@std@@QAE@ABV_Locinfo@1@I_N@Z 10030e30 f i libcpmtd:wlocale.obj
 0001:0002fe60       ??0?$num_get@GV?$istreambuf_iterator@GU?$char_traits@G@std@@@std@@@std@@QAE@ABV_Locinfo@1@I@Z 10030e60 f i libcpmtd:wlocale.obj
 0001:0002fed0       ??0?$num_get@_WV?$istreambuf_iterator@_WU?$char_traits@_W@std@@@std@@@std@@QAE@ABV_Locinfo@1@I@Z 10030ed0 f i libcpmtd:wlocale.obj
 0001:0002ff40       ??0?$num_put@GV?$ostreambuf_iterator@GU?$char_traits@G@std@@@std@@@std@@QAE@ABV_Locinfo@1@I@Z 10030f40 f i libcpmtd:wlocale.obj
 0001:0002ffb0       ??0?$num_put@_WV?$ostreambuf_iterator@_WU?$char_traits@_W@std@@@std@@@std@@QAE@ABV_Locinfo@1@I@Z 10030fb0 f i libcpmtd:wlocale.obj
 0001:00030020       ??0?$numpunct@G@std@@QAE@ABV_Locinfo@1@I_N@Z 10031020 f i libcpmtd:wlocale.obj
 0001:00030090       ??0?$numpunct@_W@std@@QAE@ABV_Locinfo@1@I_N@Z 10031090 f i libcpmtd:wlocale.obj
 0001:00030100       ??0?$time_get@GV?$istreambuf_iterator@GU?$char_traits@G@std@@@std@@@std@@QAE@ABV_Locinfo@1@I@Z 10031100 f i libcpmtd:wlocale.obj
 0001:00030170       ??0?$time_get@_WV?$istreambuf_iterator@_WU?$char_traits@_W@std@@@std@@@std@@QAE@ABV_Locinfo@1@I@Z 10031170 f i libcpmtd:wlocale.obj
 0001:000301e0       ??0?$time_put@GV?$ostreambuf_iterator@GU?$char_traits@G@std@@@std@@@std@@QAE@ABV_Locinfo@1@I@Z 100311e0 f i libcpmtd:wlocale.obj
 0001:00030260       ??0?$time_put@_WV?$ostreambuf_iterator@_WU?$char_traits@_W@std@@@std@@@std@@QAE@ABV_Locinfo@1@I@Z 10031260 f i libcpmtd:wlocale.obj
 0001:000302e0       ??0_Iterator_base12@std@@QAE@ABU01@@Z 100312e0 f i libcpmtd:wlocale.obj
 0001:00030310       ??0_Timevec@std@@QAE@PAX@Z 10031310 f i libcpmtd:wlocale.obj
 0001:00030330       ??0messages_base@std@@QAE@I@Z 10031330 f i libcpmtd:wlocale.obj
 0001:00030360       ??0money_base@std@@QAE@I@Z 10031360 f i libcpmtd:wlocale.obj
 0001:00030390       ??0time_base@std@@QAE@I@Z  10031390 f i libcpmtd:wlocale.obj
 0001:000303c0       ??1?$_Iterator012@Urandom_access_iterator_tag@std@@GHPBGABGU_Iterator_base12@2@@std@@QAE@XZ 100313c0 f i libcpmtd:wlocale.obj
 0001:000303e0       ??1?$_Iterator012@Urandom_access_iterator_tag@std@@_WHPB_WAB_WU_Iterator_base12@2@@std@@QAE@XZ 100313e0 f i libcpmtd:wlocale.obj
 0001:00030400       ??1?$_Mpunct@G@std@@MAE@XZ 10031400 f i libcpmtd:wlocale.obj
 0001:00030430       ??1?$_Mpunct@_W@std@@MAE@XZ 10031430 f i libcpmtd:wlocale.obj
 0001:00030460       ??1?$_String_alloc@$0A@U?$_String_base_types@GV?$allocator@G@std@@@std@@@std@@QAE@XZ 10031460 f i libcpmtd:wlocale.obj
 0001:00030480       ??1?$_String_alloc@$0A@U?$_String_base_types@_WV?$allocator@_W@std@@@std@@@std@@QAE@XZ 10031480 f i libcpmtd:wlocale.obj
 0001:000304a0       ??1?$_String_const_iterator@V?$_String_val@U?$_Simple_types@G@std@@@std@@@std@@QAE@XZ 100314a0 f i libcpmtd:wlocale.obj
 0001:000304c0       ??1?$_String_const_iterator@V?$_String_val@U?$_Simple_types@_W@std@@@std@@@std@@QAE@XZ 100314c0 f i libcpmtd:wlocale.obj
 0001:000304e0       ??1?$_String_iterator@V?$_String_val@U?$_Simple_types@G@std@@@std@@@std@@QAE@XZ 100314e0 f i libcpmtd:wlocale.obj
 0001:00030500       ??1?$_String_iterator@V?$_String_val@U?$_Simple_types@_W@std@@@std@@@std@@QAE@XZ 10031500 f i libcpmtd:wlocale.obj
 0001:00030520       ??1?$_String_val@U?$_Simple_types@G@std@@@std@@QAE@XZ 10031520 f i libcpmtd:wlocale.obj
 0001:00030540       ??1?$_String_val@U?$_Simple_types@_W@std@@@std@@QAE@XZ 10031540 f i libcpmtd:wlocale.obj
 0001:00030560       ??1?$basic_string@GU?$char_traits@G@std@@V?$allocator@G@2@@std@@QAE@XZ 10031560 f i libcpmtd:wlocale.obj
 0001:00030580       ??1?$basic_string@_WU?$char_traits@_W@std@@V?$allocator@_W@2@@std@@QAE@XZ 10031580 f i libcpmtd:wlocale.obj
 0001:000305a0       ??1?$codecvt@GDH@std@@MAE@XZ 100315a0 f i libcpmtd:wlocale.obj
 0001:000305c0       ??1?$codecvt@_WDH@std@@MAE@XZ 100315c0 f i libcpmtd:wlocale.obj
 0001:000305e0       ??1?$collate@G@std@@MAE@XZ 100315e0 f i libcpmtd:wlocale.obj
 0001:00030610       ??1?$collate@_W@std@@MAE@XZ 10031610 f i libcpmtd:wlocale.obj
 0001:00030640       ??1?$ctype@G@std@@MAE@XZ   10031640 f i libcpmtd:wlocale.obj
 0001:00030690       ??1?$ctype@_W@std@@MAE@XZ  10031690 f i libcpmtd:wlocale.obj
 0001:000306e0       ??1?$messages@G@std@@MAE@XZ 100316e0 f i libcpmtd:wlocale.obj
 0001:00030700       ??1?$messages@_W@std@@MAE@XZ 10031700 f i libcpmtd:wlocale.obj
 0001:00030720       ??1?$money_get@GV?$istreambuf_iterator@GU?$char_traits@G@std@@@std@@@std@@MAE@XZ 10031720 f i libcpmtd:wlocale.obj
 0001:00030740       ??1?$money_get@_WV?$istreambuf_iterator@_WU?$char_traits@_W@std@@@std@@@std@@MAE@XZ 10031740 f i libcpmtd:wlocale.obj
 0001:00030760       ??1?$money_put@GV?$ostreambuf_iterator@GU?$char_traits@G@std@@@std@@@std@@MAE@XZ 10031760 f i libcpmtd:wlocale.obj
 0001:00030780       ??1?$money_put@_WV?$ostreambuf_iterator@_WU?$char_traits@_W@std@@@std@@@std@@MAE@XZ 10031780 f i libcpmtd:wlocale.obj
 0001:000307a0       ??1?$moneypunct@G$00@std@@MAE@XZ 100317a0 f i libcpmtd:wlocale.obj
 0001:000307c0       ??1?$moneypunct@G$0A@@std@@MAE@XZ 100317c0 f i libcpmtd:wlocale.obj
 0001:000307e0       ??1?$moneypunct@_W$00@std@@MAE@XZ 100317e0 f i libcpmtd:wlocale.obj
 0001:00030800       ??1?$moneypunct@_W$0A@@std@@MAE@XZ 10031800 f i libcpmtd:wlocale.obj
 0001:00030820       ??1?$num_get@GV?$istreambuf_iterator@GU?$char_traits@G@std@@@std@@@std@@MAE@XZ 10031820 f i libcpmtd:wlocale.obj
 0001:00030840       ??1?$num_get@_WV?$istreambuf_iterator@_WU?$char_traits@_W@std@@@std@@@std@@MAE@XZ 10031840 f i libcpmtd:wlocale.obj
 0001:00030860       ??1?$num_put@GV?$ostreambuf_iterator@GU?$char_traits@G@std@@@std@@@std@@MAE@XZ 10031860 f i libcpmtd:wlocale.obj
 0001:00030880       ??1?$num_put@_WV?$ostreambuf_iterator@_WU?$char_traits@_W@std@@@std@@@std@@MAE@XZ 10031880 f i libcpmtd:wlocale.obj
 0001:000308a0       ??1?$numpunct@G@std@@MAE@XZ 100318a0 f i libcpmtd:wlocale.obj
 0001:000308d0       ??1?$numpunct@_W@std@@MAE@XZ 100318d0 f i libcpmtd:wlocale.obj
 0001:00030900       ??1?$time_get@GV?$istreambuf_iterator@GU?$char_traits@G@std@@@std@@@std@@MAE@XZ 10031900 f i libcpmtd:wlocale.obj
 0001:00030930       ??1?$time_get@_WV?$istreambuf_iterator@_WU?$char_traits@_W@std@@@std@@@std@@MAE@XZ 10031930 f i libcpmtd:wlocale.obj
 0001:00030960       ??1?$time_put@GV?$ostreambuf_iterator@GU?$char_traits@G@std@@@std@@@std@@MAE@XZ 10031960 f i libcpmtd:wlocale.obj
 0001:00030990       ??1?$time_put@_WV?$ostreambuf_iterator@_WU?$char_traits@_W@std@@@std@@@std@@MAE@XZ 10031990 f i libcpmtd:wlocale.obj
 0001:000309c0       ??1_Timevec@std@@QAE@XZ    100319c0 f i libcpmtd:wlocale.obj
 0001:000309e0       ??1messages_base@std@@UAE@XZ 100319e0 f i libcpmtd:wlocale.obj
 0001:00030a00       ??1money_base@std@@UAE@XZ  10031a00 f i libcpmtd:wlocale.obj
 0001:00030a20       ??1time_base@std@@UAE@XZ   10031a20 f i libcpmtd:wlocale.obj
 0001:00030a40       ??4?$_Iterator012@Urandom_access_iterator_tag@std@@GHPBGABGU_Iterator_base12@2@@std@@QAEAAU01@ABU01@@Z 10031a40 f i libcpmtd:wlocale.obj
 0001:00030a60       ??4?$_Iterator012@Urandom_access_iterator_tag@std@@_WHPB_WAB_WU_Iterator_base12@2@@std@@QAEAAU01@ABU01@@Z 10031a60 f i libcpmtd:wlocale.obj
 0001:00030a80       ??4?$_String_const_iterator@V?$_String_val@U?$_Simple_types@G@std@@@std@@@std@@QAEAAV01@ABV01@@Z 10031a80 f i libcpmtd:wlocale.obj
 0001:00030ab0       ??4?$_String_const_iterator@V?$_String_val@U?$_Simple_types@_W@std@@@std@@@std@@QAEAAV01@ABV01@@Z 10031ab0 f i libcpmtd:wlocale.obj
 0001:00030ae0       ??4?$_Yarn@_W@std@@QAEAAV01@PB_W@Z 10031ae0 f i libcpmtd:wlocale.obj
 0001:00030b80       ??4?$basic_string@GU?$char_traits@G@std@@V?$allocator@G@2@@std@@QAEAAV01@$$QAV01@@Z 10031b80 f i libcpmtd:wlocale.obj
 0001:00030c60       ??4?$basic_string@GU?$char_traits@G@std@@V?$allocator@G@2@@std@@QAEAAV01@ABV01@@Z 10031c60 f i libcpmtd:wlocale.obj
 0001:00030ce0       ??4?$basic_string@_WU?$char_traits@_W@std@@V?$allocator@_W@2@@std@@QAEAAV01@$$QAV01@@Z 10031ce0 f i libcpmtd:wlocale.obj
 0001:00030dc0       ??4?$basic_string@_WU?$char_traits@_W@std@@V?$allocator@_W@2@@std@@QAEAAV01@ABV01@@Z 10031dc0 f i libcpmtd:wlocale.obj
 0001:00030e40       ??4?$ostreambuf_iterator@GU?$char_traits@G@std@@@std@@QAEAAV01@G@Z 10031e40 f i libcpmtd:wlocale.obj
 0001:00030ea0       ??4?$ostreambuf_iterator@_WU?$char_traits@_W@std@@@std@@QAEAAV01@_W@Z 10031ea0 f i libcpmtd:wlocale.obj
 0001:00030f00       ??4_Iterator_base12@std@@QAEAAU01@ABU01@@Z 10031f00 f i libcpmtd:wlocale.obj
 0001:00030f90       ??4_Timevec@std@@QAEAAV01@ABV01@@Z 10031f90 f i libcpmtd:wlocale.obj
 0001:00030fc0       ??8?$_String_const_iterator@V?$_String_val@U?$_Simple_types@G@std@@@std@@@std@@QBE_NABV01@@Z 10031fc0 f i libcpmtd:wlocale.obj
 0001:00031000       ??8?$_String_const_iterator@V?$_String_val@U?$_Simple_types@_W@std@@@std@@@std@@QBE_NABV01@@Z 10032000 f i libcpmtd:wlocale.obj
 0001:00031040       ??9?$_String_const_iterator@V?$_String_val@U?$_Simple_types@G@std@@@std@@@std@@QBE_NABV01@@Z 10032040 f i libcpmtd:wlocale.obj
 0001:00031080       ??9?$_String_const_iterator@V?$_String_val@U?$_Simple_types@_W@std@@@std@@@std@@QBE_NABV01@@Z 10032080 f i libcpmtd:wlocale.obj
 0001:000310c0       ??A?$basic_string@GU?$char_traits@G@std@@V?$allocator@G@2@@std@@QAEAAGI@Z 100320c0 f i libcpmtd:wlocale.obj
 0001:00031100       ??A?$basic_string@GU?$char_traits@G@std@@V?$allocator@G@2@@std@@QBEABGI@Z 10032100 f i libcpmtd:wlocale.obj
 0001:00031140       ??A?$basic_string@_WU?$char_traits@_W@std@@V?$allocator@_W@2@@std@@QAEAA_WI@Z 10032140 f i libcpmtd:wlocale.obj
 0001:00031180       ??A?$basic_string@_WU?$char_traits@_W@std@@V?$allocator@_W@2@@std@@QBEAB_WI@Z 10032180 f i libcpmtd:wlocale.obj
 0001:000311c0       ??D?$_String_const_iterator@V?$_String_val@U?$_Simple_types@G@std@@@std@@@std@@QBEABGXZ 100321c0 f i libcpmtd:wlocale.obj
 0001:00031290       ??D?$_String_const_iterator@V?$_String_val@U?$_Simple_types@_W@std@@@std@@@std@@QBEAB_WXZ 10032290 f i libcpmtd:wlocale.obj
 0001:00031360       ??D?$_String_iterator@V?$_String_val@U?$_Simple_types@G@std@@@std@@@std@@QBEAAGXZ 10032360 f i libcpmtd:wlocale.obj
 0001:00031380       ??D?$_String_iterator@V?$_String_val@U?$_Simple_types@_W@std@@@std@@@std@@QBEAA_WXZ 10032380 f i libcpmtd:wlocale.obj
 0001:000313a0       ??D?$istreambuf_iterator@GU?$char_traits@G@std@@@std@@QBEABGXZ 100323a0 f i libcpmtd:wlocale.obj
 0001:000313f0       ??D?$istreambuf_iterator@_WU?$char_traits@_W@std@@@std@@QBEAB_WXZ 100323f0 f i libcpmtd:wlocale.obj
 0001:00031440       ??D?$ostreambuf_iterator@GU?$char_traits@G@std@@@std@@QAEAAV01@XZ 10032440 f i libcpmtd:wlocale.obj
 0001:00031450       ??D?$ostreambuf_iterator@_WU?$char_traits@_W@std@@@std@@QAEAAV01@XZ 10032450 f i libcpmtd:wlocale.obj
 0001:00031460       ??E?$_String_const_iterator@V?$_String_val@U?$_Simple_types@G@std@@@std@@@std@@QAEAAV01@XZ 10032460 f i libcpmtd:wlocale.obj
 0001:00031520       ??E?$_String_const_iterator@V?$_String_val@U?$_Simple_types@_W@std@@@std@@@std@@QAEAAV01@XZ 10032520 f i libcpmtd:wlocale.obj
 0001:000315e0       ??E?$istreambuf_iterator@GU?$char_traits@G@std@@@std@@QAEAAV01@XZ 100325e0 f i libcpmtd:wlocale.obj
 0001:00031620       ??E?$istreambuf_iterator@_WU?$char_traits@_W@std@@@std@@QAEAAV01@XZ 10032620 f i libcpmtd:wlocale.obj
 0001:00031660       ??E?$ostreambuf_iterator@GU?$char_traits@G@std@@@std@@QAEAAV01@H@Z 10032660 f i libcpmtd:wlocale.obj
 0001:00031670       ??E?$ostreambuf_iterator@GU?$char_traits@G@std@@@std@@QAEAAV01@XZ 10032670 f i libcpmtd:wlocale.obj
 0001:00031680       ??E?$ostreambuf_iterator@_WU?$char_traits@_W@std@@@std@@QAEAAV01@H@Z 10032680 f i libcpmtd:wlocale.obj
 0001:00031690       ??E?$ostreambuf_iterator@_WU?$char_traits@_W@std@@@std@@QAEAAV01@XZ 10032690 f i libcpmtd:wlocale.obj
 0001:000316a0       ??G?$_String_const_iterator@V?$_String_val@U?$_Simple_types@G@std@@@std@@@std@@QBEHABV01@@Z 100326a0 f i libcpmtd:wlocale.obj
 0001:000316d0       ??G?$_String_const_iterator@V?$_String_val@U?$_Simple_types@_W@std@@@std@@@std@@QBEHABV01@@Z 100326d0 f i libcpmtd:wlocale.obj
 0001:00031700       ??G?$_String_iterator@V?$_String_val@U?$_Simple_types@G@std@@@std@@@std@@QBE?AV01@H@Z 10032700 f i libcpmtd:wlocale.obj
 0001:00031790       ??G?$_String_iterator@V?$_String_val@U?$_Simple_types@G@std@@@std@@@std@@QBEHABV?$_String_const_iterator@V?$_String_val@U?$_Simple_types@G@std@@@std@@@1@@Z 10032790 f i libcpmtd:wlocale.obj
 0001:00031810       ??G?$_String_iterator@V?$_String_val@U?$_Simple_types@_W@std@@@std@@@std@@QBE?AV01@H@Z 10032810 f i libcpmtd:wlocale.obj
 0001:000318a0       ??G?$_String_iterator@V?$_String_val@U?$_Simple_types@_W@std@@@std@@@std@@QBEHABV?$_String_const_iterator@V?$_String_val@U?$_Simple_types@_W@std@@@std@@@1@@Z 100328a0 f i libcpmtd:wlocale.obj
 0001:00031920       ??H?$_String_iterator@V?$_String_val@U?$_Simple_types@G@std@@@std@@@std@@QBE?AV01@H@Z 10032920 f i libcpmtd:wlocale.obj
 0001:000319b0       ??H?$_String_iterator@V?$_String_val@U?$_Simple_types@_W@std@@@std@@@std@@QBE?AV01@H@Z 100329b0 f i libcpmtd:wlocale.obj
 0001:00031a40       ??Y?$_String_const_iterator@V?$_String_val@U?$_Simple_types@G@std@@@std@@@std@@QAEAAV01@H@Z 10032a40 f i libcpmtd:wlocale.obj
 0001:00031b30       ??Y?$_String_const_iterator@V?$_String_val@U?$_Simple_types@_W@std@@@std@@@std@@QAEAAV01@H@Z 10032b30 f i libcpmtd:wlocale.obj
 0001:00031c20       ??Y?$_String_iterator@V?$_String_val@U?$_Simple_types@G@std@@@std@@@std@@QAEAAV01@H@Z 10032c20 f i libcpmtd:wlocale.obj
 0001:00031c40       ??Y?$_String_iterator@V?$_String_val@U?$_Simple_types@_W@std@@@std@@@std@@QAEAAV01@H@Z 10032c40 f i libcpmtd:wlocale.obj
 0001:00031c60       ??Y?$basic_string@GU?$char_traits@G@std@@V?$allocator@G@2@@std@@QAEAAV01@ABV01@@Z 10032c60 f i libcpmtd:wlocale.obj
 0001:00031c80       ??Y?$basic_string@GU?$char_traits@G@std@@V?$allocator@G@2@@std@@QAEAAV01@G@Z 10032c80 f i libcpmtd:wlocale.obj
 0001:00031ca0       ??Y?$basic_string@_WU?$char_traits@_W@std@@V?$allocator@_W@2@@std@@QAEAAV01@ABV01@@Z 10032ca0 f i libcpmtd:wlocale.obj
 0001:00031cc0       ??Y?$basic_string@_WU?$char_traits@_W@std@@V?$allocator@_W@2@@std@@QAEAAV01@_W@Z 10032cc0 f i libcpmtd:wlocale.obj
 0001:00031ce0       ??Z?$_String_iterator@V?$_String_val@U?$_Simple_types@G@std@@@std@@@std@@QAEAAV01@H@Z 10032ce0 f i libcpmtd:wlocale.obj
 0001:00031d00       ??Z?$_String_iterator@V?$_String_val@U?$_Simple_types@_W@std@@@std@@@std@@QAEAAV01@H@Z 10032d00 f i libcpmtd:wlocale.obj
 0001:00031d20       ??_G?$_Mpunct@G@std@@MAEPAXI@Z 10032d20 f i libcpmtd:wlocale.obj
 0001:00031d20       ??_E?$_Mpunct@G@std@@MAEPAXI@Z 10032d20 f i libcpmtd:wlocale.obj
 0001:00031d50       ??_E?$_Mpunct@_W@std@@MAEPAXI@Z 10032d50 f i libcpmtd:wlocale.obj
 0001:00031d50       ??_G?$_Mpunct@_W@std@@MAEPAXI@Z 10032d50 f i libcpmtd:wlocale.obj
 0001:00031d80       ??_E?$codecvt@GDH@std@@MAEPAXI@Z 10032d80 f i libcpmtd:wlocale.obj
 0001:00031d80       ??_G?$codecvt@GDH@std@@MAEPAXI@Z 10032d80 f i libcpmtd:wlocale.obj
 0001:00031db0       ??_E?$codecvt@_WDH@std@@MAEPAXI@Z 10032db0 f i libcpmtd:wlocale.obj
 0001:00031db0       ??_G?$codecvt@_WDH@std@@MAEPAXI@Z 10032db0 f i libcpmtd:wlocale.obj
 0001:00031de0       ??_E?$collate@G@std@@MAEPAXI@Z 10032de0 f i libcpmtd:wlocale.obj
 0001:00031de0       ??_G?$collate@G@std@@MAEPAXI@Z 10032de0 f i libcpmtd:wlocale.obj
 0001:00031e10       ??_G?$collate@_W@std@@MAEPAXI@Z 10032e10 f i libcpmtd:wlocale.obj
 0001:00031e10       ??_E?$collate@_W@std@@MAEPAXI@Z 10032e10 f i libcpmtd:wlocale.obj
 0001:00031e40       ??_G?$ctype@G@std@@MAEPAXI@Z 10032e40 f i libcpmtd:wlocale.obj
 0001:00031e40       ??_E?$ctype@G@std@@MAEPAXI@Z 10032e40 f i libcpmtd:wlocale.obj
 0001:00031e70       ??_G?$ctype@_W@std@@MAEPAXI@Z 10032e70 f i libcpmtd:wlocale.obj
 0001:00031e70       ??_E?$ctype@_W@std@@MAEPAXI@Z 10032e70 f i libcpmtd:wlocale.obj
 0001:00031ea0       ??_E?$messages@G@std@@MAEPAXI@Z 10032ea0 f i libcpmtd:wlocale.obj
 0001:00031ea0       ??_G?$messages@G@std@@MAEPAXI@Z 10032ea0 f i libcpmtd:wlocale.obj
 0001:00031ed0       ??_E?$messages@_W@std@@MAEPAXI@Z 10032ed0 f i libcpmtd:wlocale.obj
 0001:00031ed0       ??_G?$messages@_W@std@@MAEPAXI@Z 10032ed0 f i libcpmtd:wlocale.obj
 0001:00031f00       ??_G?$money_get@GV?$istreambuf_iterator@GU?$char_traits@G@std@@@std@@@std@@MAEPAXI@Z 10032f00 f i libcpmtd:wlocale.obj
 0001:00031f00       ??_E?$money_get@GV?$istreambuf_iterator@GU?$char_traits@G@std@@@std@@@std@@MAEPAXI@Z 10032f00 f i libcpmtd:wlocale.obj
 0001:00031f30       ??_E?$money_get@_WV?$istreambuf_iterator@_WU?$char_traits@_W@std@@@std@@@std@@MAEPAXI@Z 10032f30 f i libcpmtd:wlocale.obj
 0001:00031f30       ??_G?$money_get@_WV?$istreambuf_iterator@_WU?$char_traits@_W@std@@@std@@@std@@MAEPAXI@Z 10032f30 f i libcpmtd:wlocale.obj
 0001:00031f60       ??_G?$money_put@GV?$ostreambuf_iterator@GU?$char_traits@G@std@@@std@@@std@@MAEPAXI@Z 10032f60 f i libcpmtd:wlocale.obj
 0001:00031f60       ??_E?$money_put@GV?$ostreambuf_iterator@GU?$char_traits@G@std@@@std@@@std@@MAEPAXI@Z 10032f60 f i libcpmtd:wlocale.obj
 0001:00031f90       ??_G?$money_put@_WV?$ostreambuf_iterator@_WU?$char_traits@_W@std@@@std@@@std@@MAEPAXI@Z 10032f90 f i libcpmtd:wlocale.obj
 0001:00031f90       ??_E?$money_put@_WV?$ostreambuf_iterator@_WU?$char_traits@_W@std@@@std@@@std@@MAEPAXI@Z 10032f90 f i libcpmtd:wlocale.obj
 0001:00031fc0       ??_G?$moneypunct@G$00@std@@MAEPAXI@Z 10032fc0 f i libcpmtd:wlocale.obj
 0001:00031fc0       ??_E?$moneypunct@G$00@std@@MAEPAXI@Z 10032fc0 f i libcpmtd:wlocale.obj
 0001:00031ff0       ??_E?$moneypunct@G$0A@@std@@MAEPAXI@Z 10032ff0 f i libcpmtd:wlocale.obj
 0001:00031ff0       ??_G?$moneypunct@G$0A@@std@@MAEPAXI@Z 10032ff0 f i libcpmtd:wlocale.obj
 0001:00032020       ??_G?$moneypunct@_W$00@std@@MAEPAXI@Z 10033020 f i libcpmtd:wlocale.obj
 0001:00032020       ??_E?$moneypunct@_W$00@std@@MAEPAXI@Z 10033020 f i libcpmtd:wlocale.obj
 0001:00032050       ??_G?$moneypunct@_W$0A@@std@@MAEPAXI@Z 10033050 f i libcpmtd:wlocale.obj
 0001:00032050       ??_E?$moneypunct@_W$0A@@std@@MAEPAXI@Z 10033050 f i libcpmtd:wlocale.obj
 0001:00032080       ??_E?$num_get@GV?$istreambuf_iterator@GU?$char_traits@G@std@@@std@@@std@@MAEPAXI@Z 10033080 f i libcpmtd:wlocale.obj
 0001:00032080       ??_G?$num_get@GV?$istreambuf_iterator@GU?$char_traits@G@std@@@std@@@std@@MAEPAXI@Z 10033080 f i libcpmtd:wlocale.obj
 0001:000320b0       ??_G?$num_get@_WV?$istreambuf_iterator@_WU?$char_traits@_W@std@@@std@@@std@@MAEPAXI@Z 100330b0 f i libcpmtd:wlocale.obj
 0001:000320b0       ??_E?$num_get@_WV?$istreambuf_iterator@_WU?$char_traits@_W@std@@@std@@@std@@MAEPAXI@Z 100330b0 f i libcpmtd:wlocale.obj
 0001:000320e0       ??_G?$num_put@GV?$ostreambuf_iterator@GU?$char_traits@G@std@@@std@@@std@@MAEPAXI@Z 100330e0 f i libcpmtd:wlocale.obj
 0001:000320e0       ??_E?$num_put@GV?$ostreambuf_iterator@GU?$char_traits@G@std@@@std@@@std@@MAEPAXI@Z 100330e0 f i libcpmtd:wlocale.obj
 0001:00032110       ??_E?$num_put@_WV?$ostreambuf_iterator@_WU?$char_traits@_W@std@@@std@@@std@@MAEPAXI@Z 10033110 f i libcpmtd:wlocale.obj
 0001:00032110       ??_G?$num_put@_WV?$ostreambuf_iterator@_WU?$char_traits@_W@std@@@std@@@std@@MAEPAXI@Z 10033110 f i libcpmtd:wlocale.obj
 0001:00032140       ??_G?$numpunct@G@std@@MAEPAXI@Z 10033140 f i libcpmtd:wlocale.obj
 0001:00032140       ??_E?$numpunct@G@std@@MAEPAXI@Z 10033140 f i libcpmtd:wlocale.obj
 0001:00032170       ??_G?$numpunct@_W@std@@MAEPAXI@Z 10033170 f i libcpmtd:wlocale.obj
 0001:00032170       ??_E?$numpunct@_W@std@@MAEPAXI@Z 10033170 f i libcpmtd:wlocale.obj
 0001:000321a0       ??_E?$time_get@GV?$istreambuf_iterator@GU?$char_traits@G@std@@@std@@@std@@MAEPAXI@Z 100331a0 f i libcpmtd:wlocale.obj
 0001:000321a0       ??_G?$time_get@GV?$istreambuf_iterator@GU?$char_traits@G@std@@@std@@@std@@MAEPAXI@Z 100331a0 f i libcpmtd:wlocale.obj
 0001:000321d0       ??_G?$time_get@_WV?$istreambuf_iterator@_WU?$char_traits@_W@std@@@std@@@std@@MAEPAXI@Z 100331d0 f i libcpmtd:wlocale.obj
 0001:000321d0       ??_E?$time_get@_WV?$istreambuf_iterator@_WU?$char_traits@_W@std@@@std@@@std@@MAEPAXI@Z 100331d0 f i libcpmtd:wlocale.obj
 0001:00032200       ??_G?$time_put@GV?$ostreambuf_iterator@GU?$char_traits@G@std@@@std@@@std@@MAEPAXI@Z 10033200 f i libcpmtd:wlocale.obj
 0001:00032200       ??_E?$time_put@GV?$ostreambuf_iterator@GU?$char_traits@G@std@@@std@@@std@@MAEPAXI@Z 10033200 f i libcpmtd:wlocale.obj
 0001:00032230       ??_E?$time_put@_WV?$ostreambuf_iterator@_WU?$char_traits@_W@std@@@std@@@std@@MAEPAXI@Z 10033230 f i libcpmtd:wlocale.obj
 0001:00032230       ??_G?$time_put@_WV?$ostreambuf_iterator@_WU?$char_traits@_W@std@@@std@@@std@@MAEPAXI@Z 10033230 f i libcpmtd:wlocale.obj
 0001:00032260       ??_Emessages_base@std@@UAEPAXI@Z 10033260 f i libcpmtd:wlocale.obj
 0001:00032260       ??_Gmessages_base@std@@UAEPAXI@Z 10033260 f i libcpmtd:wlocale.obj
 0001:00032290       ??_Emoney_base@std@@UAEPAXI@Z 10033290 f i libcpmtd:wlocale.obj
 0001:00032290       ??_Gmoney_base@std@@UAEPAXI@Z 10033290 f i libcpmtd:wlocale.obj
 0001:000322c0       ??_Gtime_base@std@@UAEPAXI@Z 100332c0 f i libcpmtd:wlocale.obj
 0001:000322c0       ??_Etime_base@std@@UAEPAXI@Z 100332c0 f i libcpmtd:wlocale.obj
 0001:000322f0       ?_Alloc_proxy@?$_String_alloc@$0A@U?$_String_base_types@GV?$allocator@G@std@@@std@@@std@@QAEXXZ 100332f0 f i libcpmtd:wlocale.obj
 0001:00032340       ?_Alloc_proxy@?$_String_alloc@$0A@U?$_String_base_types@_WV?$allocator@_W@std@@@std@@@std@@QAEXXZ 10033340 f i libcpmtd:wlocale.obj
 0001:00032390       ?_Assign_rv@?$basic_string@GU?$char_traits@G@std@@V?$allocator@G@2@@std@@QAEX$$QAV12@@Z 10033390 f i libcpmtd:wlocale.obj
 0001:00032420       ?_Assign_rv@?$basic_string@_WU?$char_traits@_W@std@@V?$allocator@_W@2@@std@@QAEX$$QAV12@@Z 10033420 f i libcpmtd:wlocale.obj
 0001:000324b0       ?_C_str@?$_Yarn@_W@std@@QBEPB_WXZ 100334b0 f i libcpmtd:wlocale.obj
 0001:000324e0       ?_Change_alloc@?$_String_alloc@$0A@U?$_String_base_types@GV?$allocator@G@std@@@std@@@std@@QAEXABU?$_Wrap_alloc@V?$allocator@G@std@@@2@@Z 100334e0 f i libcpmtd:wlocale.obj
 0001:000324f0       ?_Change_alloc@?$_String_alloc@$0A@U?$_String_base_types@_WV?$allocator@_W@std@@@std@@@std@@QAEXABU?$_Wrap_alloc@V?$allocator@_W@std@@@2@@Z 100334f0 f i libcpmtd:wlocale.obj
 0001:00032500       ?_Chassign@?$basic_string@GU?$char_traits@G@std@@V?$allocator@G@2@@std@@QAEXIIG@Z 10033500 f i libcpmtd:wlocale.obj
 0001:00032550       ?_Chassign@?$basic_string@_WU?$char_traits@_W@std@@V?$allocator@_W@2@@std@@QAEXII_W@Z 10033550 f i libcpmtd:wlocale.obj
 0001:000325a0       ?_Compat@?$_String_const_iterator@V?$_String_val@U?$_Simple_types@G@std@@@std@@@std@@QBEXABV12@@Z 100335a0 f i libcpmtd:wlocale.obj
 0001:00032640       ?_Compat@?$_String_const_iterator@V?$_String_val@U?$_Simple_types@_W@std@@@std@@@std@@QBEXABV12@@Z 10033640 f i libcpmtd:wlocale.obj
 0001:000326e0       ?_Copy@?$basic_string@GU?$char_traits@G@std@@V?$allocator@G@2@@std@@QAEXII@Z 100336e0 f i libcpmtd:wlocale.obj
 0001:000328a0       ?_Copy@?$basic_string@_WU?$char_traits@_W@std@@V?$allocator@_W@2@@std@@QAEXII@Z 100338a0 f i libcpmtd:wlocale.obj
 0001:00032a60       ?_Donarrow@?$ctype@G@std@@IBEDGD@Z 10033a60 f i libcpmtd:wlocale.obj
 0001:00032ad0       ?_Donarrow@?$ctype@_W@std@@IBED_WD@Z 10033ad0 f i libcpmtd:wlocale.obj
 0001:00032b40       ?_Dowiden@?$ctype@G@std@@IBEGD@Z 10033b40 f i libcpmtd:wlocale.obj
 0001:00032b90       ?_Dowiden@?$ctype@_W@std@@IBE_WD@Z 10033b90 f i libcpmtd:wlocale.obj
 0001:00032be0       ?_Empty@?$_Yarn@_W@std@@QBE_NXZ 10033be0 f i libcpmtd:wlocale.obj
 0001:00032c10       ?_Eos@?$basic_string@GU?$char_traits@G@std@@V?$allocator@G@2@@std@@QAEXI@Z 10033c10 f i libcpmtd:wlocale.obj
 0001:00032c50       ?_Eos@?$basic_string@_WU?$char_traits@_W@std@@V?$allocator@_W@2@@std@@QAEXI@Z 10033c50 f i libcpmtd:wlocale.obj
 0001:00032c90       ?_Ffmt@?$num_put@GV?$ostreambuf_iterator@GU?$char_traits@G@std@@@std@@@std@@ABAPADPADDH@Z 10033c90 f i libcpmtd:wlocale.obj
 0001:00032dd0       ?_Ffmt@?$num_put@_WV?$ostreambuf_iterator@_WU?$char_traits@_W@std@@@std@@@std@@ABAPADPADDH@Z 10033dd0 f i libcpmtd:wlocale.obj
 0001:00032f10       ?_Fput@?$num_put@GV?$ostreambuf_iterator@GU?$char_traits@G@std@@@std@@@std@@ABA?AV?$ostreambuf_iterator@GU?$char_traits@G@std@@@2@V32@AAVios_base@2@GPBDIIII@Z 10033f10 f i libcpmtd:wlocale.obj
 0001:00033490       ?_Fput@?$num_put@_WV?$ostreambuf_iterator@_WU?$char_traits@_W@std@@@std@@@std@@ABA?AV?$ostreambuf_iterator@_WU?$char_traits@_W@std@@@2@V32@AAVios_base@2@_WPBDIIII@Z 10034490 f i libcpmtd:wlocale.obj
 0001:00033a10       ?_Free_proxy@?$_String_alloc@$0A@U?$_String_base_types@GV?$allocator@G@std@@@std@@@std@@QAEXXZ 10034a10 f i libcpmtd:wlocale.obj
 0001:00033a60       ?_Free_proxy@?$_String_alloc@$0A@U?$_String_base_types@_WV?$allocator@_W@std@@@std@@@std@@QAEXXZ 10034a60 f i libcpmtd:wlocale.obj
 0001:00033ab0       ?_Getal@?$_String_alloc@$0A@U?$_String_base_types@GV?$allocator@G@std@@@std@@@std@@QBE?AU?$_Wrap_alloc@V?$allocator@G@std@@@2@XZ 10034ab0 f i libcpmtd:wlocale.obj
 0001:00033ad0       ?_Getal@?$_String_alloc@$0A@U?$_String_base_types@_WV?$allocator@_W@std@@@std@@@std@@QBE?AU?$_Wrap_alloc@V?$allocator@_W@std@@@2@XZ 10034ad0 f i libcpmtd:wlocale.obj
 0001:00033af0       ?_Getcat@?$codecvt@GDH@std@@SAIPAPBVfacet@locale@2@PBV42@@Z 10034af0 f i libcpmtd:wlocale.obj
 0001:00033bf0       ?_Getcat@?$codecvt@_WDH@std@@SAIPAPBVfacet@locale@2@PBV42@@Z 10034bf0 f i libcpmtd:wlocale.obj
 0001:00033cf0       ?_Getcat@?$collate@G@std@@SAIPAPBVfacet@locale@2@PBV42@@Z 10034cf0 f i libcpmtd:wlocale.obj
 0001:00033e40       ?_Getcat@?$collate@_W@std@@SAIPAPBVfacet@locale@2@PBV42@@Z 10034e40 f i libcpmtd:wlocale.obj
 0001:00033f90       ?_Getcat@?$ctype@G@std@@SAIPAPBVfacet@locale@2@PBV42@@Z 10034f90 f i libcpmtd:wlocale.obj
 0001:00034090       ?_Getcat@?$ctype@_W@std@@SAIPAPBVfacet@locale@2@PBV42@@Z 10035090 f i libcpmtd:wlocale.obj
 0001:00034190       ?_Getcat@?$messages@G@std@@SAIPAPBVfacet@locale@2@PBV42@@Z 10035190 f i libcpmtd:wlocale.obj
 0001:00034290       ?_Getcat@?$messages@_W@std@@SAIPAPBVfacet@locale@2@PBV42@@Z 10035290 f i libcpmtd:wlocale.obj
 0001:00034390       ?_Getcat@?$money_get@GV?$istreambuf_iterator@GU?$char_traits@G@std@@@std@@@std@@SAIPAPBVfacet@locale@2@PBV42@@Z 10035390 f i libcpmtd:wlocale.obj
 0001:00034490       ?_Getcat@?$money_get@_WV?$istreambuf_iterator@_WU?$char_traits@_W@std@@@std@@@std@@SAIPAPBVfacet@locale@2@PBV42@@Z 10035490 f i libcpmtd:wlocale.obj
 0001:00034590       ?_Getcat@?$money_put@GV?$ostreambuf_iterator@GU?$char_traits@G@std@@@std@@@std@@SAIPAPBVfacet@locale@2@PBV42@@Z 10035590 f i libcpmtd:wlocale.obj
 0001:00034690       ?_Getcat@?$money_put@_WV?$ostreambuf_iterator@_WU?$char_traits@_W@std@@@std@@@std@@SAIPAPBVfacet@locale@2@PBV42@@Z 10035690 f i libcpmtd:wlocale.obj
 0001:00034790       ?_Getcat@?$moneypunct@G$00@std@@SAIPAPBVfacet@locale@2@PBV42@@Z 10035790 f i libcpmtd:wlocale.obj
 0001:00034890       ?_Getcat@?$moneypunct@G$0A@@std@@SAIPAPBVfacet@locale@2@PBV42@@Z 10035890 f i libcpmtd:wlocale.obj
 0001:00034990       ?_Getcat@?$moneypunct@_W$00@std@@SAIPAPBVfacet@locale@2@PBV42@@Z 10035990 f i libcpmtd:wlocale.obj
 0001:00034a90       ?_Getcat@?$moneypunct@_W$0A@@std@@SAIPAPBVfacet@locale@2@PBV42@@Z 10035a90 f i libcpmtd:wlocale.obj
 0001:00034b90       ?_Getcat@?$num_get@GV?$istreambuf_iterator@GU?$char_traits@G@std@@@std@@@std@@SAIPAPBVfacet@locale@2@PBV42@@Z 10035b90 f i libcpmtd:wlocale.obj
 0001:00034c90       ?_Getcat@?$num_get@_WV?$istreambuf_iterator@_WU?$char_traits@_W@std@@@std@@@std@@SAIPAPBVfacet@locale@2@PBV42@@Z 10035c90 f i libcpmtd:wlocale.obj
 0001:00034d90       ?_Getcat@?$num_put@GV?$ostreambuf_iterator@GU?$char_traits@G@std@@@std@@@std@@SAIPAPBVfacet@locale@2@PBV42@@Z 10035d90 f i libcpmtd:wlocale.obj
 0001:00034e90       ?_Getcat@?$num_put@_WV?$ostreambuf_iterator@_WU?$char_traits@_W@std@@@std@@@std@@SAIPAPBVfacet@locale@2@PBV42@@Z 10035e90 f i libcpmtd:wlocale.obj
 0001:00034f90       ?_Getcat@?$numpunct@G@std@@SAIPAPBVfacet@locale@2@PBV42@@Z 10035f90 f i libcpmtd:wlocale.obj
 0001:00035090       ?_Getcat@?$numpunct@_W@std@@SAIPAPBVfacet@locale@2@PBV42@@Z 10036090 f i libcpmtd:wlocale.obj
 0001:00035190       ?_Getcat@?$time_get@GV?$istreambuf_iterator@GU?$char_traits@G@std@@@std@@@std@@SAIPAPBVfacet@locale@2@PBV42@@Z 10036190 f i libcpmtd:wlocale.obj
 0001:00035290       ?_Getcat@?$time_get@_WV?$istreambuf_iterator@_WU?$char_traits@_W@std@@@std@@@std@@SAIPAPBVfacet@locale@2@PBV42@@Z 10036290 f i libcpmtd:wlocale.obj
 0001:00035390       ?_Getcat@?$time_put@GV?$ostreambuf_iterator@GU?$char_traits@G@std@@@std@@@std@@SAIPAPBVfacet@locale@2@PBV42@@Z 10036390 f i libcpmtd:wlocale.obj
 0001:00035490       ?_Getcat@?$time_put@_WV?$ostreambuf_iterator@_WU?$char_traits@_W@std@@@std@@@std@@SAIPAPBVfacet@locale@2@PBV42@@Z 10036490 f i libcpmtd:wlocale.obj
 0001:00035590       ?_Getcoll@_Locinfo@std@@QBE?AU_Collvec@@XZ 10036590 f i libcpmtd:wlocale.obj
 0001:000355c0       ?_Getdateorder@_Locinfo@std@@QBEHXZ 100365c0 f i libcpmtd:wlocale.obj
 0001:000355d0       ?_Getdays@_Locinfo@std@@QBEPBDXZ 100365d0 f i libcpmtd:wlocale.obj
 0001:00035640       ?_Getffld@?$num_get@GV?$istreambuf_iterator@GU?$char_traits@G@std@@@std@@@std@@ABAHPADAAV?$istreambuf_iterator@GU?$char_traits@G@std@@@2@1AAVios_base@2@PAH@Z 10036640 f i libcpmtd:wlocale.obj
 0001:00035ea0       ?_Getffld@?$num_get@_WV?$istreambuf_iterator@_WU?$char_traits@_W@std@@@std@@@std@@ABAHPADAAV?$istreambuf_iterator@_WU?$char_traits@_W@std@@@2@1AAVios_base@2@PAH@Z 10036ea0 f i libcpmtd:wlocale.obj
 0001:00036700       ?_Getffldx@?$num_get@GV?$istreambuf_iterator@GU?$char_traits@G@std@@@std@@@std@@ABAHPADAAV?$istreambuf_iterator@GU?$char_traits@G@std@@@2@1AAVios_base@2@PAH@Z 10037700 f i libcpmtd:wlocale.obj
 0001:00037170       ?_Getffldx@?$num_get@_WV?$istreambuf_iterator@_WU?$char_traits@_W@std@@@std@@@std@@ABAHPADAAV?$istreambuf_iterator@_WU?$char_traits@_W@std@@@2@1AAVios_base@2@PAH@Z 10038170 f i libcpmtd:wlocale.obj
 0001:00037be0       ?_Getfmt@?$time_get@GV?$istreambuf_iterator@GU?$char_traits@G@std@@@std@@@std@@IBE?AV?$istreambuf_iterator@GU?$char_traits@G@std@@@2@V32@0AAVios_base@2@AAHPAUtm@@PBD@Z 10038be0 f i libcpmtd:wlocale.obj
 0001:00037d90       ?_Getfmt@?$time_get@_WV?$istreambuf_iterator@_WU?$char_traits@_W@std@@@std@@@std@@IBE?AV?$istreambuf_iterator@_WU?$char_traits@_W@std@@@2@V32@0AAVios_base@2@AAHPAUtm@@PBD@Z 10038d90 f i libcpmtd:wlocale.obj
 0001:00037f40       ?_Getifld@?$num_get@GV?$istreambuf_iterator@GU?$char_traits@G@std@@@std@@@std@@ABAHPADAAV?$istreambuf_iterator@GU?$char_traits@G@std@@@2@1HABVlocale@2@@Z 10038f40 f i libcpmtd:wlocale.obj
 0001:00038560       ?_Getifld@?$num_get@_WV?$istreambuf_iterator@_WU?$char_traits@_W@std@@@std@@@std@@ABAHPADAAV?$istreambuf_iterator@_WU?$char_traits@_W@std@@@2@1HABVlocale@2@@Z 10039560 f i libcpmtd:wlocale.obj
 0001:00038b80       ?_Getint@?$time_get@GV?$istreambuf_iterator@GU?$char_traits@G@std@@@std@@@std@@ABAHAAV?$istreambuf_iterator@GU?$char_traits@G@std@@@2@0HHAAHABV?$ctype@G@2@@Z 10039b80 f i libcpmtd:wlocale.obj
 0001:00038d90       ?_Getint@?$time_get@_WV?$istreambuf_iterator@_WU?$char_traits@_W@std@@@std@@@std@@ABAHAAV?$istreambuf_iterator@_WU?$char_traits@_W@std@@@2@0HHAAHABV?$ctype@_W@2@@Z 10039d90 f i libcpmtd:wlocale.obj
 0001:00038fa0       ?_Getmfld@?$money_get@GV?$istreambuf_iterator@GU?$char_traits@G@std@@@std@@@std@@ABE?AV?$basic_string@DU?$char_traits@D@std@@V?$allocator@D@2@@2@AAV?$istreambuf_iterator@GU?$char_traits@G@std@@@2@0_NAAVios_base@2@PAG@Z 10039fa0 f i libcpmtd:wlocale.obj
 0001:00039fa0       ?_Getmfld@?$money_get@_WV?$istreambuf_iterator@_WU?$char_traits@_W@std@@@std@@@std@@ABE?AV?$basic_string@DU?$char_traits@D@std@@V?$allocator@D@2@@2@AAV?$istreambuf_iterator@_WU?$char_traits@_W@std@@@2@0_NAAVios_base@2@PA_W@Z 1003afa0 f i libcpmtd:wlocale.obj
 0001:0003afa0       ?_Getmonths@_Locinfo@std@@QBEPBDXZ 1003bfa0 f i libcpmtd:wlocale.obj
 0001:0003b010       ?_Getptr@_Timevec@std@@QBEPAXXZ 1003c010 f i libcpmtd:wlocale.obj
 0001:0003b020       ?_Gnavail@?$basic_streambuf@GU?$char_traits@G@std@@@std@@IBE_JXZ 1003c020 f i libcpmtd:wlocale.obj
 0001:0003b050       ?_Gnavail@?$basic_streambuf@_WU?$char_traits@_W@std@@@std@@IBE_JXZ 1003c050 f i libcpmtd:wlocale.obj
 0001:0003b080       ?_Gninc@?$basic_streambuf@GU?$char_traits@G@std@@@std@@IAEPAGXZ 1003c080 f i libcpmtd:wlocale.obj
 0001:0003b0d0       ?_Gninc@?$basic_streambuf@_WU?$char_traits@_W@std@@@std@@IAEPA_WXZ 1003c0d0 f i libcpmtd:wlocale.obj
 0001:0003b120       ?_Grow@?$basic_string@GU?$char_traits@G@std@@V?$allocator@G@2@@std@@QAE_NI_N@Z 1003c120 f i libcpmtd:wlocale.obj
 0001:0003b1d0       ?_Grow@?$basic_string@_WU?$char_traits@_W@std@@V?$allocator@_W@2@@std@@QAE_NI_N@Z 1003c1d0 f i libcpmtd:wlocale.obj
 0001:0003b280       ?_Hash_seq@std@@YAIPBEI@Z  1003c280 f i libcpmtd:wlocale.obj
 0001:0003b2e0       ?_Ifmt@?$num_put@GV?$ostreambuf_iterator@GU?$char_traits@G@std@@@std@@@std@@ABAPADPADPBDH@Z 1003c2e0 f i libcpmtd:wlocale.obj
 0001:0003b400       ?_Ifmt@?$num_put@_WV?$ostreambuf_iterator@_WU?$char_traits@_W@std@@@std@@@std@@ABAPADPADPBDH@Z 1003c400 f i libcpmtd:wlocale.obj
 0001:0003b520       ?_Inc@?$istreambuf_iterator@GU?$char_traits@G@std@@@std@@AAEXXZ 1003c520 f i libcpmtd:wlocale.obj
 0001:0003b580       ?_Inc@?$istreambuf_iterator@_WU?$char_traits@_W@std@@@std@@AAEXXZ 1003c580 f i libcpmtd:wlocale.obj
 0001:0003b5e0       ?_Init@?$_Mpunct@G@std@@IAEXABV_Locinfo@2@_N@Z 1003c5e0 f i libcpmtd:wlocale.obj
 0001:0003b7b0       ?_Init@?$_Mpunct@_W@std@@IAEXABV_Locinfo@2@_N@Z 1003c7b0 f i libcpmtd:wlocale.obj
 0001:0003b980       ?_Init@?$codecvt@GDH@std@@IAEXABV_Locinfo@2@@Z 1003c980 f i libcpmtd:wlocale.obj
 0001:0003b9d0       ?_Init@?$codecvt@_WDH@std@@IAEXABV_Locinfo@2@@Z 1003c9d0 f i libcpmtd:wlocale.obj
 0001:0003ba20       ?_Init@?$collate@G@std@@IAEXABV_Locinfo@2@@Z 1003ca20 f i libcpmtd:wlocale.obj
 0001:0003ba50       ?_Init@?$collate@_W@std@@IAEXABV_Locinfo@2@@Z 1003ca50 f i libcpmtd:wlocale.obj
 0001:0003ba80       ?_Init@?$ctype@G@std@@IAEXABV_Locinfo@2@@Z 1003ca80 f i libcpmtd:wlocale.obj
 0001:0003baf0       ?_Init@?$ctype@_W@std@@IAEXABV_Locinfo@2@@Z 1003caf0 f i libcpmtd:wlocale.obj
 0001:0003bb60       ?_Init@?$messages@G@std@@IAEXABV_Locinfo@2@@Z 1003cb60 f i libcpmtd:wlocale.obj
 0001:0003bb70       ?_Init@?$messages@_W@std@@IAEXABV_Locinfo@2@@Z 1003cb70 f i libcpmtd:wlocale.obj
 0001:0003bb80       ?_Init@?$money_get@GV?$istreambuf_iterator@GU?$char_traits@G@std@@@std@@@std@@IAEXABV_Locinfo@2@@Z 1003cb80 f i libcpmtd:wlocale.obj
 0001:0003bb90       ?_Init@?$money_get@_WV?$istreambuf_iterator@_WU?$char_traits@_W@std@@@std@@@std@@IAEXABV_Locinfo@2@@Z 1003cb90 f i libcpmtd:wlocale.obj
 0001:0003bba0       ?_Init@?$money_put@GV?$ostreambuf_iterator@GU?$char_traits@G@std@@@std@@@std@@IAEXABV_Locinfo@2@@Z 1003cba0 f i libcpmtd:wlocale.obj
 0001:0003bbb0       ?_Init@?$money_put@_WV?$ostreambuf_iterator@_WU?$char_traits@_W@std@@@std@@@std@@IAEXABV_Locinfo@2@@Z 1003cbb0 f i libcpmtd:wlocale.obj
 0001:0003bbc0       ?_Init@?$num_get@GV?$istreambuf_iterator@GU?$char_traits@G@std@@@std@@@std@@IAEXABV_Locinfo@2@@Z 1003cbc0 f i libcpmtd:wlocale.obj
 0001:0003bbd0       ?_Init@?$num_get@_WV?$istreambuf_iterator@_WU?$char_traits@_W@std@@@std@@@std@@IAEXABV_Locinfo@2@@Z 1003cbd0 f i libcpmtd:wlocale.obj
 0001:0003bbe0       ?_Init@?$num_put@GV?$ostreambuf_iterator@GU?$char_traits@G@std@@@std@@@std@@IAEXABV_Locinfo@2@@Z 1003cbe0 f i libcpmtd:wlocale.obj
 0001:0003bbf0       ?_Init@?$num_put@_WV?$ostreambuf_iterator@_WU?$char_traits@_W@std@@@std@@@std@@IAEXABV_Locinfo@2@@Z 1003cbf0 f i libcpmtd:wlocale.obj
 0001:0003bc00       ?_Init@?$numpunct@G@std@@IAEXABV_Locinfo@2@_N@Z 1003cc00 f i libcpmtd:wlocale.obj
 0001:0003bdc0       ?_Init@?$numpunct@_W@std@@IAEXABV_Locinfo@2@_N@Z 1003cdc0 f i libcpmtd:wlocale.obj
 0001:0003bf80       ?_Init@?$time_get@GV?$istreambuf_iterator@GU?$char_traits@G@std@@@std@@@std@@IAEXABV_Locinfo@2@@Z 1003cf80 f i libcpmtd:wlocale.obj
 0001:0003c040       ?_Init@?$time_get@_WV?$istreambuf_iterator@_WU?$char_traits@_W@std@@@std@@@std@@IAEXABV_Locinfo@2@@Z 1003d040 f i libcpmtd:wlocale.obj
 0001:0003c100       ?_Init@?$time_put@GV?$ostreambuf_iterator@GU?$char_traits@G@std@@@std@@@std@@IAEXABV_Locinfo@2@@Z 1003d100 f i libcpmtd:wlocale.obj
 0001:0003c180       ?_Init@?$time_put@_WV?$ostreambuf_iterator@_WU?$char_traits@_W@std@@@std@@@std@@IAEXABV_Locinfo@2@@Z 1003d180 f i libcpmtd:wlocale.obj
 0001:0003c200       ?_Inside@?$basic_string@GU?$char_traits@G@std@@V?$allocator@G@2@@std@@QAE_NPBG@Z 1003d200 f i libcpmtd:wlocale.obj
 0001:0003c240       ?_Inside@?$basic_string@_WU?$char_traits@_W@std@@V?$allocator@_W@2@@std@@QAE_NPB_W@Z 1003d240 f i libcpmtd:wlocale.obj
 0001:0003c280       ?_Iput@?$num_put@GV?$ostreambuf_iterator@GU?$char_traits@G@std@@@std@@@std@@ABA?AV?$ostreambuf_iterator@GU?$char_traits@G@std@@@2@V32@AAVios_base@2@GPADI@Z 1003d280 f i libcpmtd:wlocale.obj
 0001:0003c6d0       ?_Iput@?$num_put@_WV?$ostreambuf_iterator@_WU?$char_traits@_W@std@@@std@@@std@@ABA?AV?$ostreambuf_iterator@_WU?$char_traits@_W@std@@@2@V32@AAVios_base@2@_WPADI@Z 1003d6d0 f i libcpmtd:wlocale.obj
 0001:0003cb20       ?_Makeushloc@_Locimp@locale@std@@CAXABV_Locinfo@3@HPAV123@PBV23@@Z 1003db20 f   libcpmtd:wlocale.obj
 0001:0003d510       ?_Makewloc@_Locimp@locale@std@@CAXABV_Locinfo@3@HPAV123@PBV23@@Z 1003e510 f   libcpmtd:wlocale.obj
 0001:0003df00       ?_Maklocwcs@std@@YAPA_WPB_W@Z 1003ef00 f i libcpmtd:wlocale.obj
 0001:0003df70       ?_Makpat@?$_Mpunct@G@std@@AAEXAAUpattern@money_base@2@III@Z 1003ef70 f i libcpmtd:wlocale.obj
 0001:0003dfe0       ?_Makpat@?$_Mpunct@_W@std@@AAEXAAUpattern@money_base@2@III@Z 1003efe0 f i libcpmtd:wlocale.obj
 0001:0003e050       ?_Myptr@?$_String_val@U?$_Simple_types@G@std@@@std@@QAEPAGXZ 1003f050 f i libcpmtd:wlocale.obj
 0001:0003e090       ?_Myptr@?$_String_val@U?$_Simple_types@G@std@@@std@@QBEPBGXZ 1003f090 f i libcpmtd:wlocale.obj
 0001:0003e0d0       ?_Myptr@?$_String_val@U?$_Simple_types@_W@std@@@std@@QAEPA_WXZ 1003f0d0 f i libcpmtd:wlocale.obj
 0001:0003e110       ?_Myptr@?$_String_val@U?$_Simple_types@_W@std@@@std@@QBEPB_WXZ 1003f110 f i libcpmtd:wlocale.obj
 0001:0003e150       ?_Pdif@?$basic_string@GU?$char_traits@G@std@@V?$allocator@G@2@@std@@SAIV?$_String_const_iterator@V?$_String_val@U?$_Simple_types@G@std@@@std@@@2@0@Z 1003f150 f i libcpmtd:wlocale.obj
 0001:0003e1d0       ?_Pdif@?$basic_string@_WU?$char_traits@_W@std@@V?$allocator@_W@2@@std@@SAIV?$_String_const_iterator@V?$_String_val@U?$_Simple_types@_W@std@@@std@@@2@0@Z 1003f1d0 f i libcpmtd:wlocale.obj
 0001:0003e250       ?_Peek@?$istreambuf_iterator@GU?$char_traits@G@std@@@std@@ABEGXZ 1003f250 f i libcpmtd:wlocale.obj
 0001:0003e2c0       ?_Peek@?$istreambuf_iterator@_WU?$char_traits@_W@std@@@std@@ABE_WXZ 1003f2c0 f i libcpmtd:wlocale.obj
 0001:0003e330       ?_Pnavail@?$basic_streambuf@GU?$char_traits@G@std@@@std@@IBE_JXZ 1003f330 f i libcpmtd:wlocale.obj
 0001:0003e360       ?_Pnavail@?$basic_streambuf@_WU?$char_traits@_W@std@@@std@@IBE_JXZ 1003f360 f i libcpmtd:wlocale.obj
 0001:0003e390       ?_Pninc@?$basic_streambuf@GU?$char_traits@G@std@@@std@@IAEPAGXZ 1003f390 f i libcpmtd:wlocale.obj
 0001:0003e3e0       ?_Pninc@?$basic_streambuf@_WU?$char_traits@_W@std@@@std@@IAEPA_WXZ 1003f3e0 f i libcpmtd:wlocale.obj
 0001:0003e430       ?_Put@?$money_put@GV?$ostreambuf_iterator@GU?$char_traits@G@std@@@std@@@std@@CA?AV?$ostreambuf_iterator@GU?$char_traits@G@std@@@2@V32@V?$_String_const_iterator@V?$_String_val@U?$_Simple_types@G@std@@@std@@@2@I@Z 1003f430 f i libcpmtd:wlocale.obj
 0001:0003e4d0       ?_Put@?$money_put@_WV?$ostreambuf_iterator@_WU?$char_traits@_W@std@@@std@@@std@@CA?AV?$ostreambuf_iterator@_WU?$char_traits@_W@std@@@2@V32@V?$_String_const_iterator@V?$_String_val@U?$_Simple_types@_W@std@@@std@@@2@I@Z 1003f4d0 f i libcpmtd:wlocale.obj
 0001:0003e570       ?_Put@?$num_put@GV?$ostreambuf_iterator@GU?$char_traits@G@std@@@std@@@std@@ABA?AV?$ostreambuf_iterator@GU?$char_traits@G@std@@@2@V32@PBGI@Z 1003f570 f i libcpmtd:wlocale.obj
 0001:0003e5c0       ?_Put@?$num_put@_WV?$ostreambuf_iterator@_WU?$char_traits@_W@std@@@std@@@std@@ABA?AV?$ostreambuf_iterator@_WU?$char_traits@_W@std@@@2@V32@PB_WI@Z 1003f5c0 f i libcpmtd:wlocale.obj
 0001:0003e610       ?_Putmfld@?$money_put@GV?$ostreambuf_iterator@GU?$char_traits@G@std@@@std@@@std@@ABE?AV?$ostreambuf_iterator@GU?$char_traits@G@std@@@2@V32@_NAAVios_base@2@G1V?$basic_string@GU?$char_traits@G@std@@V?$allocator@G@2@@2@G@Z 1003f610 f i libcpmtd:wlocale.obj
 0001:0003f2e0       ?_Putmfld@?$money_put@_WV?$ostreambuf_iterator@_WU?$char_traits@_W@std@@@std@@@std@@ABE?AV?$ostreambuf_iterator@_WU?$char_traits@_W@std@@@2@V32@_NAAVios_base@2@_W1V?$basic_string@_WU?$char_traits@_W@std@@V?$allocator@_W@2@@2@3@Z 100402e0 f i libcpmtd:wlocale.obj
 0001:0003ffb0       ?_Rep@?$money_put@GV?$ostreambuf_iterator@GU?$char_traits@G@std@@@std@@@std@@CA?AV?$ostreambuf_iterator@GU?$char_traits@G@std@@@2@V32@GI@Z 10040fb0 f i libcpmtd:wlocale.obj
 0001:00040000       ?_Rep@?$money_put@_WV?$ostreambuf_iterator@_WU?$char_traits@_W@std@@@std@@@std@@CA?AV?$ostreambuf_iterator@_WU?$char_traits@_W@std@@@2@V32@_WI@Z 10041000 f i libcpmtd:wlocale.obj
 0001:00040050       ?_Rep@?$num_put@GV?$ostreambuf_iterator@GU?$char_traits@G@std@@@std@@@std@@ABA?AV?$ostreambuf_iterator@GU?$char_traits@G@std@@@2@V32@GI@Z 10041050 f i libcpmtd:wlocale.obj
 0001:000400a0       ?_Rep@?$num_put@_WV?$ostreambuf_iterator@_WU?$char_traits@_W@std@@@std@@@std@@ABA?AV?$ostreambuf_iterator@_WU?$char_traits@_W@std@@@2@V32@_WI@Z 100410a0 f i libcpmtd:wlocale.obj
 0001:000400f0       ?_Tidy@?$_Mpunct@G@std@@AAEXXZ 100410f0 f i libcpmtd:wlocale.obj
 0001:00040140       ?_Tidy@?$_Mpunct@_W@std@@AAEXXZ 10041140 f i libcpmtd:wlocale.obj
 0001:00040190       ?_Tidy@?$basic_string@GU?$char_traits@G@std@@V?$allocator@G@2@@std@@QAEX_NI@Z 10041190 f i libcpmtd:wlocale.obj
 0001:00040240       ?_Tidy@?$basic_string@_WU?$char_traits@_W@std@@V?$allocator@_W@2@@std@@QAEX_NI@Z 10041240 f i libcpmtd:wlocale.obj
 0001:000402f0       ?_Tidy@?$numpunct@G@std@@AAEXXZ 100412f0 f i libcpmtd:wlocale.obj
 0001:00040330       ?_Tidy@?$numpunct@_W@std@@AAEXXZ 10041330 f i libcpmtd:wlocale.obj
 0001:00040370       ?_Tidy@?$time_get@GV?$istreambuf_iterator@GU?$char_traits@G@std@@@std@@@std@@AAEXXZ 10041370 f i libcpmtd:wlocale.obj
 0001:000403b0       ?_Tidy@?$time_get@_WV?$istreambuf_iterator@_WU?$char_traits@_W@std@@@std@@@std@@AAEXXZ 100413b0 f i libcpmtd:wlocale.obj
 0001:000403f0       ?_W_Getdays@_Locinfo@std@@QBEPBGXZ 100413f0 f i libcpmtd:wlocale.obj
 0001:00040460       ?_W_Getmonths@_Locinfo@std@@QBEPBGXZ 10041460 f i libcpmtd:wlocale.obj
 0001:000404d0       ?_W_Gettnames@_Locinfo@std@@QBE?AV_Timevec@2@XZ 100414d0 f i libcpmtd:wlocale.obj
 0001:00040500       ?_Xlen@?$basic_string@GU?$char_traits@G@std@@V?$allocator@G@2@@std@@QBEXXZ 10041500 f i libcpmtd:wlocale.obj
 0001:00040520       ?_Xlen@?$basic_string@_WU?$char_traits@_W@std@@V?$allocator@_W@2@@std@@QBEXXZ 10041520 f i libcpmtd:wlocale.obj
 0001:00040540       ?_Xran@?$basic_string@GU?$char_traits@G@std@@V?$allocator@G@2@@std@@QBEXXZ 10041540 f i libcpmtd:wlocale.obj
 0001:00040560       ?_Xran@?$basic_string@_WU?$char_traits@_W@std@@V?$allocator@_W@2@@std@@QBEXXZ 10041560 f i libcpmtd:wlocale.obj
 0001:00040580       ?allocate@?$_Wrap_alloc@V?$allocator@G@std@@@std@@QAEPAGI@Z 10041580 f i libcpmtd:wlocale.obj
 0001:000405a0       ?allocate@?$_Wrap_alloc@V?$allocator@_W@std@@@std@@QAEPA_WI@Z 100415a0 f i libcpmtd:wlocale.obj
 0001:000405c0       ?allocate@?$allocator@G@std@@QAEPAGI@Z 100415c0 f i libcpmtd:wlocale.obj
 0001:000405e0       ?allocate@?$allocator@_W@std@@QAEPA_WI@Z 100415e0 f i libcpmtd:wlocale.obj
 0001:00040600       ?append@?$basic_string@GU?$char_traits@G@std@@V?$allocator@G@2@@std@@QAEAAV12@ABV12@@Z 10041600 f i libcpmtd:wlocale.obj
 0001:00040630       ?append@?$basic_string@GU?$char_traits@G@std@@V?$allocator@G@2@@std@@QAEAAV12@ABV12@II@Z 10041630 f i libcpmtd:wlocale.obj
 0001:000406f0       ?append@?$basic_string@GU?$char_traits@G@std@@V?$allocator@G@2@@std@@QAEAAV12@IG@Z 100416f0 f i libcpmtd:wlocale.obj
 0001:00040770       ?append@?$basic_string@_WU?$char_traits@_W@std@@V?$allocator@_W@2@@std@@QAEAAV12@ABV12@@Z 10041770 f i libcpmtd:wlocale.obj
 0001:000407a0       ?append@?$basic_string@_WU?$char_traits@_W@std@@V?$allocator@_W@2@@std@@QAEAAV12@ABV12@II@Z 100417a0 f i libcpmtd:wlocale.obj
 0001:00040860       ?append@?$basic_string@_WU?$char_traits@_W@std@@V?$allocator@_W@2@@std@@QAEAAV12@I_W@Z 10041860 f i libcpmtd:wlocale.obj
 0001:000408e0       ?assign@?$basic_string@GU?$char_traits@G@std@@V?$allocator@G@2@@std@@QAEAAV12@$$QAV12@@Z 100418e0 f i libcpmtd:wlocale.obj
 0001:00040960       ?assign@?$basic_string@GU?$char_traits@G@std@@V?$allocator@G@2@@std@@QAEAAV12@ABV12@@Z 10041960 f i libcpmtd:wlocale.obj
 0001:00040990       ?assign@?$basic_string@GU?$char_traits@G@std@@V?$allocator@G@2@@std@@QAEAAV12@ABV12@II@Z 10041990 f i libcpmtd:wlocale.obj
 0001:00040a40       ?assign@?$basic_string@GU?$char_traits@G@std@@V?$allocator@G@2@@std@@QAEAAV12@IG@Z 10041a40 f i libcpmtd:wlocale.obj
 0001:00040aa0       ?assign@?$basic_string@GU?$char_traits@G@std@@V?$allocator@G@2@@std@@QAEAAV12@PBG@Z 10041aa0 f i libcpmtd:wlocale.obj
 0001:00040ae0       ?assign@?$basic_string@GU?$char_traits@G@std@@V?$allocator@G@2@@std@@QAEAAV12@PBGI@Z 10041ae0 f i libcpmtd:wlocale.obj
 0001:00040b80       ?assign@?$basic_string@_WU?$char_traits@_W@std@@V?$allocator@_W@2@@std@@QAEAAV12@$$QAV12@@Z 10041b80 f i libcpmtd:wlocale.obj
 0001:00040c00       ?assign@?$basic_string@_WU?$char_traits@_W@std@@V?$allocator@_W@2@@std@@QAEAAV12@ABV12@@Z 10041c00 f i libcpmtd:wlocale.obj
 0001:00040c30       ?assign@?$basic_string@_WU?$char_traits@_W@std@@V?$allocator@_W@2@@std@@QAEAAV12@ABV12@II@Z 10041c30 f i libcpmtd:wlocale.obj
 0001:00040ce0       ?assign@?$basic_string@_WU?$char_traits@_W@std@@V?$allocator@_W@2@@std@@QAEAAV12@I_W@Z 10041ce0 f i libcpmtd:wlocale.obj
 0001:00040d40       ?assign@?$basic_string@_WU?$char_traits@_W@std@@V?$allocator@_W@2@@std@@QAEAAV12@PB_W@Z 10041d40 f i libcpmtd:wlocale.obj
 0001:00040d80       ?assign@?$basic_string@_WU?$char_traits@_W@std@@V?$allocator@_W@2@@std@@QAEAAV12@PB_WI@Z 10041d80 f i libcpmtd:wlocale.obj
 0001:00040e20       ?assign@?$char_traits@G@std@@SAPAGPAGIG@Z 10041e20 f i libcpmtd:wlocale.obj
 0001:00040e40       ?assign@?$char_traits@G@std@@SAXAAGABG@Z 10041e40 f i libcpmtd:wlocale.obj
 0001:00040e60       ?assign@?$char_traits@_W@std@@SAPA_WPA_WI_W@Z 10041e60 f i libcpmtd:wlocale.obj
 0001:00040e80       ?assign@?$char_traits@_W@std@@SAXAA_WAB_W@Z 10041e80 f i libcpmtd:wlocale.obj
 0001:00040ea0       ?begin@?$basic_string@GU?$char_traits@G@std@@V?$allocator@G@2@@std@@QAE?AV?$_String_iterator@V?$_String_val@U?$_Simple_types@G@std@@@std@@@2@XZ 10041ea0 f i libcpmtd:wlocale.obj
 0001:00040ed0       ?begin@?$basic_string@_WU?$char_traits@_W@std@@V?$allocator@_W@2@@std@@QAE?AV?$_String_iterator@V?$_String_val@U?$_Simple_types@_W@std@@@std@@@2@XZ 10041ed0 f i libcpmtd:wlocale.obj
 0001:00040f00       ?c_str@?$basic_string@GU?$char_traits@G@std@@V?$allocator@G@2@@std@@QBEPBGXZ 10041f00 f i libcpmtd:wlocale.obj
 0001:00040f20       ?c_str@?$basic_string@_WU?$char_traits@_W@std@@V?$allocator@_W@2@@std@@QBEPB_WXZ 10041f20 f i libcpmtd:wlocale.obj
 0001:00040f40       ?copy@?$char_traits@G@std@@SAPAGPAGPBGI@Z 10041f40 f i libcpmtd:wlocale.obj
 0001:00040f70       ?copy@?$char_traits@_W@std@@SAPA_WPA_WPB_WI@Z 10041f70 f i libcpmtd:wlocale.obj
 0001:00040fa0       ?curr_symbol@?$_Mpunct@G@std@@QBE?AV?$basic_string@GU?$char_traits@G@std@@V?$allocator@G@2@@2@XZ 10041fa0 f i libcpmtd:wlocale.obj
 0001:00040fe0       ?curr_symbol@?$_Mpunct@_W@std@@QBE?AV?$basic_string@_WU?$char_traits@_W@std@@V?$allocator@_W@2@@2@XZ 10041fe0 f i libcpmtd:wlocale.obj
 0001:00041020       ?date_order@?$time_get@GV?$istreambuf_iterator@GU?$char_traits@G@std@@@std@@@std@@QBE?AW4dateorder@time_base@2@XZ 10042020 f i libcpmtd:wlocale.obj
 0001:00041040       ?date_order@?$time_get@_WV?$istreambuf_iterator@_WU?$char_traits@_W@std@@@std@@@std@@QBE?AW4dateorder@time_base@2@XZ 10042040 f i libcpmtd:wlocale.obj
 0001:00041060       ?deallocate@?$_Wrap_alloc@V?$allocator@G@std@@@std@@QAEXPAGI@Z 10042060 f i libcpmtd:wlocale.obj
 0001:00041080       ?deallocate@?$_Wrap_alloc@V?$allocator@_W@std@@@std@@QAEXPA_WI@Z 10042080 f i libcpmtd:wlocale.obj
 0001:000410a0       ?deallocate@?$allocator@G@std@@QAEXPAGI@Z 100420a0 f i libcpmtd:wlocale.obj
 0001:000410c0       ?deallocate@?$allocator@_W@std@@QAEXPA_WI@Z 100420c0 f i libcpmtd:wlocale.obj
 0001:000410e0       ?decimal_point@?$_Mpunct@G@std@@QBEGXZ 100420e0 f i libcpmtd:wlocale.obj
 0001:00041100       ?decimal_point@?$_Mpunct@_W@std@@QBE_WXZ 10042100 f i libcpmtd:wlocale.obj
 0001:00041120       ?decimal_point@?$numpunct@G@std@@QBEGXZ 10042120 f i libcpmtd:wlocale.obj
 0001:00041140       ?decimal_point@?$numpunct@_W@std@@QBE_WXZ 10042140 f i libcpmtd:wlocale.obj
 0001:00041160       ?do_always_noconv@?$codecvt@GDH@std@@MBE_NXZ 10042160 f i libcpmtd:wlocale.obj
 0001:00041170       ?do_always_noconv@?$codecvt@_WDH@std@@MBE_NXZ 10042170 f i libcpmtd:wlocale.obj
 0001:00041180       ?do_close@?$messages@G@std@@MBEXH@Z 10042180 f i libcpmtd:wlocale.obj
 0001:00041190       ?do_close@?$messages@_W@std@@MBEXH@Z 10042190 f i libcpmtd:wlocale.obj
 0001:000411a0       ?do_compare@?$collate@G@std@@MBEHPBG000@Z 100421a0 f i libcpmtd:wlocale.obj
 0001:00041230       ?do_compare@?$collate@_W@std@@MBEHPB_W000@Z 10042230 f i libcpmtd:wlocale.obj
 0001:000412c0       ?do_curr_symbol@?$_Mpunct@G@std@@MBE?AV?$basic_string@GU?$char_traits@G@std@@V?$allocator@G@2@@2@XZ 100422c0 f i libcpmtd:wlocale.obj
 0001:00041300       ?do_curr_symbol@?$_Mpunct@_W@std@@MBE?AV?$basic_string@_WU?$char_traits@_W@std@@V?$allocator@_W@2@@2@XZ 10042300 f i libcpmtd:wlocale.obj
 0001:00041340       ?do_date_order@?$time_get@GV?$istreambuf_iterator@GU?$char_traits@G@std@@@std@@@std@@MBE?AW4dateorder@time_base@2@XZ 10042340 f i libcpmtd:wlocale.obj
 0001:00041360       ?do_date_order@?$time_get@_WV?$istreambuf_iterator@_WU?$char_traits@_W@std@@@std@@@std@@MBE?AW4dateorder@time_base@2@XZ 10042360 f i libcpmtd:wlocale.obj
 0001:00041380       ?do_decimal_point@?$_Mpunct@G@std@@MBEGXZ 10042380 f i libcpmtd:wlocale.obj
 0001:000413a0       ?do_decimal_point@?$_Mpunct@_W@std@@MBE_WXZ 100423a0 f i libcpmtd:wlocale.obj
 0001:000413c0       ?do_decimal_point@?$numpunct@G@std@@MBEGXZ 100423c0 f i libcpmtd:wlocale.obj
 0001:000413e0       ?do_decimal_point@?$numpunct@_W@std@@MBE_WXZ 100423e0 f i libcpmtd:wlocale.obj
 0001:00041400       ?do_encoding@?$codecvt@GDH@std@@MBEHXZ 10042400 f i libcpmtd:wlocale.obj
 0001:00041410       ?do_encoding@?$codecvt@_WDH@std@@MBEHXZ 10042410 f i libcpmtd:wlocale.obj
 0001:00041420       ?do_falsename@?$numpunct@G@std@@MBE?AV?$basic_string@GU?$char_traits@G@std@@V?$allocator@G@2@@2@XZ 10042420 f i libcpmtd:wlocale.obj
 0001:00041460       ?do_falsename@?$numpunct@_W@std@@MBE?AV?$basic_string@_WU?$char_traits@_W@std@@V?$allocator@_W@2@@2@XZ 10042460 f i libcpmtd:wlocale.obj
 0001:000414a0       ?do_frac_digits@?$_Mpunct@G@std@@MBEHXZ 100424a0 f i libcpmtd:wlocale.obj
 0001:000414c0       ?do_frac_digits@?$_Mpunct@_W@std@@MBEHXZ 100424c0 f i libcpmtd:wlocale.obj
 0001:000414e0       ?do_get@?$messages@G@std@@MBE?AV?$basic_string@GU?$char_traits@G@std@@V?$allocator@G@2@@2@HHHABV32@@Z 100424e0 f i libcpmtd:wlocale.obj
 0001:00041510       ?do_get@?$messages@_W@std@@MBE?AV?$basic_string@_WU?$char_traits@_W@std@@V?$allocator@_W@2@@2@HHHABV32@@Z 10042510 f i libcpmtd:wlocale.obj
 0001:00041540       ?do_get@?$money_get@GV?$istreambuf_iterator@GU?$char_traits@G@std@@@std@@@std@@MBE?AV?$istreambuf_iterator@GU?$char_traits@G@std@@@2@V32@0_NAAVios_base@2@AAHAAO@Z 10042540 f i libcpmtd:wlocale.obj
 0001:00041660       ?do_get@?$money_get@GV?$istreambuf_iterator@GU?$char_traits@G@std@@@std@@@std@@MBE?AV?$istreambuf_iterator@GU?$char_traits@G@std@@@2@V32@0_NAAVios_base@2@AAHAAV?$basic_string@GU?$char_traits@G@std@@V?$allocator@G@2@@2@@Z 10042660 f i libcpmtd:wlocale.obj
 0001:000417d0       ?do_get@?$money_get@_WV?$istreambuf_iterator@_WU?$char_traits@_W@std@@@std@@@std@@MBE?AV?$istreambuf_iterator@_WU?$char_traits@_W@std@@@2@V32@0_NAAVios_base@2@AAHAAO@Z 100427d0 f i libcpmtd:wlocale.obj
 0001:000418f0       ?do_get@?$money_get@_WV?$istreambuf_iterator@_WU?$char_traits@_W@std@@@std@@@std@@MBE?AV?$istreambuf_iterator@_WU?$char_traits@_W@std@@@2@V32@0_NAAVios_base@2@AAHAAV?$basic_string@_WU?$char_traits@_W@std@@V?$allocator@_W@2@@2@@Z 100428f0 f i libcpmtd:wlocale.obj
 0001:00041a60       ?do_get@?$num_get@GV?$istreambuf_iterator@GU?$char_traits@G@std@@@std@@@std@@MBE?AV?$istreambuf_iterator@GU?$char_traits@G@std@@@2@V32@0AAVios_base@2@AAHAAG@Z 10042a60 f i libcpmtd:wlocale.obj
 0001:00041bf0       ?do_get@?$num_get@GV?$istreambuf_iterator@GU?$char_traits@G@std@@@std@@@std@@MBE?AV?$istreambuf_iterator@GU?$char_traits@G@std@@@2@V32@0AAVios_base@2@AAHAAI@Z 10042bf0 f i libcpmtd:wlocale.obj
 0001:00041d80       ?do_get@?$num_get@GV?$istreambuf_iterator@GU?$char_traits@G@std@@@std@@@std@@MBE?AV?$istreambuf_iterator@GU?$char_traits@G@std@@@2@V32@0AAVios_base@2@AAHAAJ@Z 10042d80 f i libcpmtd:wlocale.obj
 0001:00041ec0       ?do_get@?$num_get@GV?$istreambuf_iterator@GU?$char_traits@G@std@@@std@@@std@@MBE?AV?$istreambuf_iterator@GU?$char_traits@G@std@@@2@V32@0AAVios_base@2@AAHAAK@Z 10042ec0 f i libcpmtd:wlocale.obj
 0001:00042000       ?do_get@?$num_get@GV?$istreambuf_iterator@GU?$char_traits@G@std@@@std@@@std@@MBE?AV?$istreambuf_iterator@GU?$char_traits@G@std@@@2@V32@0AAVios_base@2@AAHAAM@Z 10043000 f i libcpmtd:wlocale.obj
 0001:00042110       ?do_get@?$num_get@GV?$istreambuf_iterator@GU?$char_traits@G@std@@@std@@@std@@MBE?AV?$istreambuf_iterator@GU?$char_traits@G@std@@@2@V32@0AAVios_base@2@AAHAAN@Z 10043110 f i libcpmtd:wlocale.obj
 0001:00042220       ?do_get@?$num_get@GV?$istreambuf_iterator@GU?$char_traits@G@std@@@std@@@std@@MBE?AV?$istreambuf_iterator@GU?$char_traits@G@std@@@2@V32@0AAVios_base@2@AAHAAO@Z 10043220 f i libcpmtd:wlocale.obj
 0001:00042330       ?do_get@?$num_get@GV?$istreambuf_iterator@GU?$char_traits@G@std@@@std@@@std@@MBE?AV?$istreambuf_iterator@GU?$char_traits@G@std@@@2@V32@0AAVios_base@2@AAHAAPAX@Z 10043330 f i libcpmtd:wlocale.obj
 0001:000424a0       ?do_get@?$num_get@GV?$istreambuf_iterator@GU?$char_traits@G@std@@@std@@@std@@MBE?AV?$istreambuf_iterator@GU?$char_traits@G@std@@@2@V32@0AAVios_base@2@AAHAA_J@Z 100434a0 f i libcpmtd:wlocale.obj
 0001:000425e0       ?do_get@?$num_get@GV?$istreambuf_iterator@GU?$char_traits@G@std@@@std@@@std@@MBE?AV?$istreambuf_iterator@GU?$char_traits@G@std@@@2@V32@0AAVios_base@2@AAHAA_K@Z 100435e0 f i libcpmtd:wlocale.obj
 0001:00042720       ?do_get@?$num_get@GV?$istreambuf_iterator@GU?$char_traits@G@std@@@std@@@std@@MBE?AV?$istreambuf_iterator@GU?$char_traits@G@std@@@2@V32@0AAVios_base@2@AAHAA_N@Z 10043720 f i libcpmtd:wlocale.obj
 0001:00042a10       ?do_get@?$num_get@_WV?$istreambuf_iterator@_WU?$char_traits@_W@std@@@std@@@std@@MBE?AV?$istreambuf_iterator@_WU?$char_traits@_W@std@@@2@V32@0AAVios_base@2@AAHAAG@Z 10043a10 f i libcpmtd:wlocale.obj
 0001:00042ba0       ?do_get@?$num_get@_WV?$istreambuf_iterator@_WU?$char_traits@_W@std@@@std@@@std@@MBE?AV?$istreambuf_iterator@_WU?$char_traits@_W@std@@@2@V32@0AAVios_base@2@AAHAAI@Z 10043ba0 f i libcpmtd:wlocale.obj
 0001:00042d30       ?do_get@?$num_get@_WV?$istreambuf_iterator@_WU?$char_traits@_W@std@@@std@@@std@@MBE?AV?$istreambuf_iterator@_WU?$char_traits@_W@std@@@2@V32@0AAVios_base@2@AAHAAJ@Z 10043d30 f i libcpmtd:wlocale.obj
 0001:00042e70       ?do_get@?$num_get@_WV?$istreambuf_iterator@_WU?$char_traits@_W@std@@@std@@@std@@MBE?AV?$istreambuf_iterator@_WU?$char_traits@_W@std@@@2@V32@0AAVios_base@2@AAHAAK@Z 10043e70 f i libcpmtd:wlocale.obj
 0001:00042fb0       ?do_get@?$num_get@_WV?$istreambuf_iterator@_WU?$char_traits@_W@std@@@std@@@std@@MBE?AV?$istreambuf_iterator@_WU?$char_traits@_W@std@@@2@V32@0AAVios_base@2@AAHAAM@Z 10043fb0 f i libcpmtd:wlocale.obj
 0001:000430c0       ?do_get@?$num_get@_WV?$istreambuf_iterator@_WU?$char_traits@_W@std@@@std@@@std@@MBE?AV?$istreambuf_iterator@_WU?$char_traits@_W@std@@@2@V32@0AAVios_base@2@AAHAAN@Z 100440c0 f i libcpmtd:wlocale.obj
 0001:000431d0       ?do_get@?$num_get@_WV?$istreambuf_iterator@_WU?$char_traits@_W@std@@@std@@@std@@MBE?AV?$istreambuf_iterator@_WU?$char_traits@_W@std@@@2@V32@0AAVios_base@2@AAHAAO@Z 100441d0 f i libcpmtd:wlocale.obj
 0001:000432e0       ?do_get@?$num_get@_WV?$istreambuf_iterator@_WU?$char_traits@_W@std@@@std@@@std@@MBE?AV?$istreambuf_iterator@_WU?$char_traits@_W@std@@@2@V32@0AAVios_base@2@AAHAAPAX@Z 100442e0 f i libcpmtd:wlocale.obj
 0001:00043450       ?do_get@?$num_get@_WV?$istreambuf_iterator@_WU?$char_traits@_W@std@@@std@@@std@@MBE?AV?$istreambuf_iterator@_WU?$char_traits@_W@std@@@2@V32@0AAVios_base@2@AAHAA_J@Z 10044450 f i libcpmtd:wlocale.obj
 0001:00043590       ?do_get@?$num_get@_WV?$istreambuf_iterator@_WU?$char_traits@_W@std@@@std@@@std@@MBE?AV?$istreambuf_iterator@_WU?$char_traits@_W@std@@@2@V32@0AAVios_base@2@AAHAA_K@Z 10044590 f i libcpmtd:wlocale.obj
 0001:000436d0       ?do_get@?$num_get@_WV?$istreambuf_iterator@_WU?$char_traits@_W@std@@@std@@@std@@MBE?AV?$istreambuf_iterator@_WU?$char_traits@_W@std@@@2@V32@0AAVios_base@2@AAHAA_N@Z 100446d0 f i libcpmtd:wlocale.obj
 0001:000439c0       ?do_get@?$time_get@GV?$istreambuf_iterator@GU?$char_traits@G@std@@@std@@@std@@MBE?AV?$istreambuf_iterator@GU?$char_traits@G@std@@@2@V32@0AAVios_base@2@AAHPAUtm@@DD@Z 100449c0 f i libcpmtd:wlocale.obj
 0001:00044090       ?do_get@?$time_get@_WV?$istreambuf_iterator@_WU?$char_traits@_W@std@@@std@@@std@@MBE?AV?$istreambuf_iterator@_WU?$char_traits@_W@std@@@2@V32@0AAVios_base@2@AAHPAUtm@@DD@Z 10045090 f i libcpmtd:wlocale.obj
 0001:00044760       ?do_get_date@?$time_get@GV?$istreambuf_iterator@GU?$char_traits@G@std@@@std@@@std@@MBE?AV?$istreambuf_iterator@GU?$char_traits@G@std@@@2@V32@0AAVios_base@2@AAHPAUtm@@@Z 10045760 f i libcpmtd:wlocale.obj
 0001:00044d80       ?do_get_date@?$time_get@_WV?$istreambuf_iterator@_WU?$char_traits@_W@std@@@std@@@std@@MBE?AV?$istreambuf_iterator@_WU?$char_traits@_W@std@@@2@V32@0AAVios_base@2@AAHPAUtm@@@Z 10045d80 f i libcpmtd:wlocale.obj
 0001:000453a0       ?do_get_monthname@?$time_get@GV?$istreambuf_iterator@GU?$char_traits@G@std@@@std@@@std@@MBE?AV?$istreambuf_iterator@GU?$char_traits@G@std@@@2@V32@0AAVios_base@2@AAHPAUtm@@@Z 100463a0 f i libcpmtd:wlocale.obj
 0001:00045440       ?do_get_monthname@?$time_get@_WV?$istreambuf_iterator@_WU?$char_traits@_W@std@@@std@@@std@@MBE?AV?$istreambuf_iterator@_WU?$char_traits@_W@std@@@2@V32@0AAVios_base@2@AAHPAUtm@@@Z 10046440 f i libcpmtd:wlocale.obj
 0001:000454e0       ?do_get_time@?$time_get@GV?$istreambuf_iterator@GU?$char_traits@G@std@@@std@@@std@@MBE?AV?$istreambuf_iterator@GU?$char_traits@G@std@@@2@V32@0AAVios_base@2@AAHPAUtm@@@Z 100464e0 f i libcpmtd:wlocale.obj
 0001:000456a0       ?do_get_time@?$time_get@_WV?$istreambuf_iterator@_WU?$char_traits@_W@std@@@std@@@std@@MBE?AV?$istreambuf_iterator@_WU?$char_traits@_W@std@@@2@V32@0AAVios_base@2@AAHPAUtm@@@Z 100466a0 f i libcpmtd:wlocale.obj
 0001:00045860       ?do_get_weekday@?$time_get@GV?$istreambuf_iterator@GU?$char_traits@G@std@@@std@@@std@@MBE?AV?$istreambuf_iterator@GU?$char_traits@G@std@@@2@V32@0AAVios_base@2@AAHPAUtm@@@Z 10046860 f i libcpmtd:wlocale.obj
 0001:00045900       ?do_get_weekday@?$time_get@_WV?$istreambuf_iterator@_WU?$char_traits@_W@std@@@std@@@std@@MBE?AV?$istreambuf_iterator@_WU?$char_traits@_W@std@@@2@V32@0AAVios_base@2@AAHPAUtm@@@Z 10046900 f i libcpmtd:wlocale.obj
 0001:000459a0       ?do_get_year@?$time_get@GV?$istreambuf_iterator@GU?$char_traits@G@std@@@std@@@std@@MBE?AV?$istreambuf_iterator@GU?$char_traits@G@std@@@2@V32@0AAVios_base@2@AAHPAUtm@@@Z 100469a0 f i libcpmtd:wlocale.obj
 0001:00045ad0       ?do_get_year@?$time_get@_WV?$istreambuf_iterator@_WU?$char_traits@_W@std@@@std@@@std@@MBE?AV?$istreambuf_iterator@_WU?$char_traits@_W@std@@@2@V32@0AAVios_base@2@AAHPAUtm@@@Z 10046ad0 f i libcpmtd:wlocale.obj
 0001:00045c00       ?do_grouping@?$_Mpunct@G@std@@MBE?AV?$basic_string@DU?$char_traits@D@std@@V?$allocator@D@2@@2@XZ 10046c00 f i libcpmtd:wlocale.obj
 0001:00045c40       ?do_grouping@?$_Mpunct@_W@std@@MBE?AV?$basic_string@DU?$char_traits@D@std@@V?$allocator@D@2@@2@XZ 10046c40 f i libcpmtd:wlocale.obj
 0001:00045c80       ?do_grouping@?$numpunct@G@std@@MBE?AV?$basic_string@DU?$char_traits@D@std@@V?$allocator@D@2@@2@XZ 10046c80 f i libcpmtd:wlocale.obj
 0001:00045cc0       ?do_grouping@?$numpunct@_W@std@@MBE?AV?$basic_string@DU?$char_traits@D@std@@V?$allocator@D@2@@2@XZ 10046cc0 f i libcpmtd:wlocale.obj
 0001:00045d00       ?do_hash@?$collate@G@std@@MBEJPBG0@Z 10046d00 f i libcpmtd:wlocale.obj
 0001:00045d40       ?do_hash@?$collate@_W@std@@MBEJPB_W0@Z 10046d40 f i libcpmtd:wlocale.obj
 0001:00045d80       ?do_in@?$codecvt@GDH@std@@MBEHAAHPBD1AAPBDPAG3AAPAG@Z 10046d80 f i libcpmtd:wlocale.obj
 0001:00045ec0       ?do_in@?$codecvt@_WDH@std@@MBEHAAHPBD1AAPBDPA_W3AAPA_W@Z 10046ec0 f i libcpmtd:wlocale.obj
 0001:00046000       ?do_is@?$ctype@G@std@@MBEPBGPBG0PAF@Z 10047000 f i libcpmtd:wlocale.obj
 0001:00046060       ?do_is@?$ctype@G@std@@MBE_NFG@Z 10047060 f i libcpmtd:wlocale.obj
 0001:000460b0       ?do_is@?$ctype@_W@std@@MBEPB_WPB_W0PAF@Z 100470b0 f i libcpmtd:wlocale.obj
 0001:00046110       ?do_is@?$ctype@_W@std@@MBE_NF_W@Z 10047110 f i libcpmtd:wlocale.obj
 0001:00046160       ?do_length@?$codecvt@GDH@std@@MBEHAAHPBD1I@Z 10047160 f i libcpmtd:wlocale.obj
 0001:00046240       ?do_length@?$codecvt@_WDH@std@@MBEHAAHPBD1I@Z 10047240 f i libcpmtd:wlocale.obj
 0001:00046320       ?do_max_length@?$codecvt@GDH@std@@MBEHXZ 10047320 f i libcpmtd:wlocale.obj
 0001:00046330       ?do_max_length@?$codecvt@_WDH@std@@MBEHXZ 10047330 f i libcpmtd:wlocale.obj
 0001:00046340       ?do_narrow@?$ctype@G@std@@MBEDGD@Z 10047340 f i libcpmtd:wlocale.obj
 0001:00046360       ?do_narrow@?$ctype@G@std@@MBEPBGPBG0DPAD@Z 10047360 f i libcpmtd:wlocale.obj
 0001:000463e0       ?do_narrow@?$ctype@_W@std@@MBED_WD@Z 100473e0 f i libcpmtd:wlocale.obj
 0001:00046400       ?do_narrow@?$ctype@_W@std@@MBEPB_WPB_W0DPAD@Z 10047400 f i libcpmtd:wlocale.obj
 0001:00046480       ?do_neg_format@?$_Mpunct@G@std@@MBE?AUpattern@money_base@2@XZ 10047480 f i libcpmtd:wlocale.obj
 0001:000464a0       ?do_neg_format@?$_Mpunct@_W@std@@MBE?AUpattern@money_base@2@XZ 100474a0 f i libcpmtd:wlocale.obj
 0001:000464c0       ?do_negative_sign@?$_Mpunct@G@std@@MBE?AV?$basic_string@GU?$char_traits@G@std@@V?$allocator@G@2@@2@XZ 100474c0 f i libcpmtd:wlocale.obj
 0001:00046500       ?do_negative_sign@?$_Mpunct@_W@std@@MBE?AV?$basic_string@_WU?$char_traits@_W@std@@V?$allocator@_W@2@@2@XZ 10047500 f i libcpmtd:wlocale.obj
 0001:00046540       ?do_open@?$messages@G@std@@MBEHABV?$basic_string@DU?$char_traits@D@std@@V?$allocator@D@2@@2@ABVlocale@2@@Z 10047540 f i libcpmtd:wlocale.obj
 0001:00046550       ?do_open@?$messages@_W@std@@MBEHABV?$basic_string@DU?$char_traits@D@std@@V?$allocator@D@2@@2@ABVlocale@2@@Z 10047550 f i libcpmtd:wlocale.obj
 0001:00046560       ?do_out@?$codecvt@GDH@std@@MBEHAAHPBG1AAPBGPAD3AAPAD@Z 10047560 f i libcpmtd:wlocale.obj
 0001:00046710       ?do_out@?$codecvt@_WDH@std@@MBEHAAHPB_W1AAPB_WPAD3AAPAD@Z 10047710 f i libcpmtd:wlocale.obj
 0001:000468c0       ?do_pos_format@?$_Mpunct@G@std@@MBE?AUpattern@money_base@2@XZ 100478c0 f i libcpmtd:wlocale.obj
 0001:000468e0       ?do_pos_format@?$_Mpunct@_W@std@@MBE?AUpattern@money_base@2@XZ 100478e0 f i libcpmtd:wlocale.obj
 0001:00046900       ?do_positive_sign@?$_Mpunct@G@std@@MBE?AV?$basic_string@GU?$char_traits@G@std@@V?$allocator@G@2@@2@XZ 10047900 f i libcpmtd:wlocale.obj
 0001:00046940       ?do_positive_sign@?$_Mpunct@_W@std@@MBE?AV?$basic_string@_WU?$char_traits@_W@std@@V?$allocator@_W@2@@2@XZ 10047940 f i libcpmtd:wlocale.obj
 0001:00046980       ?do_put@?$money_put@GV?$ostreambuf_iterator@GU?$char_traits@G@std@@@std@@@std@@MBE?AV?$ostreambuf_iterator@GU?$char_traits@G@std@@@2@V32@_NAAVios_base@2@GABV?$basic_string@GU?$char_traits@G@std@@V?$allocator@G@2@@2@@Z 10047980 f i libcpmtd:wlocale.obj
 0001:00046b60       ?do_put@?$money_put@GV?$ostreambuf_iterator@GU?$char_traits@G@std@@@std@@@std@@MBE?AV?$ostreambuf_iterator@GU?$char_traits@G@std@@@2@V32@_NAAVios_base@2@GO@Z 10047b60 f i libcpmtd:wlocale.obj
 0001:00046d20       ?do_put@?$money_put@_WV?$ostreambuf_iterator@_WU?$char_traits@_W@std@@@std@@@std@@MBE?AV?$ostreambuf_iterator@_WU?$char_traits@_W@std@@@2@V32@_NAAVios_base@2@_WABV?$basic_string@_WU?$char_traits@_W@std@@V?$allocator@_W@2@@2@@Z 10047d20 f i libcpmtd:wlocale.obj
 0001:00046f00       ?do_put@?$money_put@_WV?$ostreambuf_iterator@_WU?$char_traits@_W@std@@@std@@@std@@MBE?AV?$ostreambuf_iterator@_WU?$char_traits@_W@std@@@2@V32@_NAAVios_base@2@_WO@Z 10047f00 f i libcpmtd:wlocale.obj
 0001:000470c0       ?do_put@?$num_put@GV?$ostreambuf_iterator@GU?$char_traits@G@std@@@std@@@std@@MBE?AV?$ostreambuf_iterator@GU?$char_traits@G@std@@@2@V32@AAVios_base@2@GJ@Z 100480c0 f i libcpmtd:wlocale.obj
 0001:00047140       ?do_put@?$num_put@GV?$ostreambuf_iterator@GU?$char_traits@G@std@@@std@@@std@@MBE?AV?$ostreambuf_iterator@GU?$char_traits@G@std@@@2@V32@AAVios_base@2@GK@Z 10048140 f i libcpmtd:wlocale.obj
 0001:000471c0       ?do_put@?$num_put@GV?$ostreambuf_iterator@GU?$char_traits@G@std@@@std@@@std@@MBE?AV?$ostreambuf_iterator@GU?$char_traits@G@std@@@2@V32@AAVios_base@2@GN@Z 100481c0 f i libcpmtd:wlocale.obj
 0001:00047470       ?do_put@?$num_put@GV?$ostreambuf_iterator@GU?$char_traits@G@std@@@std@@@std@@MBE?AV?$ostreambuf_iterator@GU?$char_traits@G@std@@@2@V32@AAVios_base@2@GO@Z 10048470 f i libcpmtd:wlocale.obj
 0001:00047710       ?do_put@?$num_put@GV?$ostreambuf_iterator@GU?$char_traits@G@std@@@std@@@std@@MBE?AV?$ostreambuf_iterator@GU?$char_traits@G@std@@@2@V32@AAVios_base@2@GPBX@Z 10048710 f i libcpmtd:wlocale.obj
 0001:00047780       ?do_put@?$num_put@GV?$ostreambuf_iterator@GU?$char_traits@G@std@@@std@@@std@@MBE?AV?$ostreambuf_iterator@GU?$char_traits@G@std@@@2@V32@AAVios_base@2@G_J@Z 10048780 f i libcpmtd:wlocale.obj
 0001:00047810       ?do_put@?$num_put@GV?$ostreambuf_iterator@GU?$char_traits@G@std@@@std@@@std@@MBE?AV?$ostreambuf_iterator@GU?$char_traits@G@std@@@2@V32@AAVios_base@2@G_K@Z 10048810 f i libcpmtd:wlocale.obj
 0001:000478a0       ?do_put@?$num_put@GV?$ostreambuf_iterator@GU?$char_traits@G@std@@@std@@@std@@MBE?AV?$ostreambuf_iterator@GU?$char_traits@G@std@@@2@V32@AAVios_base@2@G_N@Z 100488a0 f i libcpmtd:wlocale.obj
 0001:00047b10       ?do_put@?$num_put@_WV?$ostreambuf_iterator@_WU?$char_traits@_W@std@@@std@@@std@@MBE?AV?$ostreambuf_iterator@_WU?$char_traits@_W@std@@@2@V32@AAVios_base@2@_WJ@Z 10048b10 f i libcpmtd:wlocale.obj
 0001:00047b90       ?do_put@?$num_put@_WV?$ostreambuf_iterator@_WU?$char_traits@_W@std@@@std@@@std@@MBE?AV?$ostreambuf_iterator@_WU?$char_traits@_W@std@@@2@V32@AAVios_base@2@_WK@Z 10048b90 f i libcpmtd:wlocale.obj
 0001:00047c10       ?do_put@?$num_put@_WV?$ostreambuf_iterator@_WU?$char_traits@_W@std@@@std@@@std@@MBE?AV?$ostreambuf_iterator@_WU?$char_traits@_W@std@@@2@V32@AAVios_base@2@_WN@Z 10048c10 f i libcpmtd:wlocale.obj
 0001:00047ec0       ?do_put@?$num_put@_WV?$ostreambuf_iterator@_WU?$char_traits@_W@std@@@std@@@std@@MBE?AV?$ostreambuf_iterator@_WU?$char_traits@_W@std@@@2@V32@AAVios_base@2@_WO@Z 10048ec0 f i libcpmtd:wlocale.obj
 0001:00048160       ?do_put@?$num_put@_WV?$ostreambuf_iterator@_WU?$char_traits@_W@std@@@std@@@std@@MBE?AV?$ostreambuf_iterator@_WU?$char_traits@_W@std@@@2@V32@AAVios_base@2@_WPBX@Z 10049160 f i libcpmtd:wlocale.obj
 0001:000481d0       ?do_put@?$num_put@_WV?$ostreambuf_iterator@_WU?$char_traits@_W@std@@@std@@@std@@MBE?AV?$ostreambuf_iterator@_WU?$char_traits@_W@std@@@2@V32@AAVios_base@2@_W_J@Z 100491d0 f i libcpmtd:wlocale.obj
 0001:00048260       ?do_put@?$num_put@_WV?$ostreambuf_iterator@_WU?$char_traits@_W@std@@@std@@@std@@MBE?AV?$ostreambuf_iterator@_WU?$char_traits@_W@std@@@2@V32@AAVios_base@2@_W_K@Z 10049260 f i libcpmtd:wlocale.obj
 0001:000482f0       ?do_put@?$num_put@_WV?$ostreambuf_iterator@_WU?$char_traits@_W@std@@@std@@@std@@MBE?AV?$ostreambuf_iterator@_WU?$char_traits@_W@std@@@2@V32@AAVios_base@2@_W_N@Z 100492f0 f i libcpmtd:wlocale.obj
 0001:00048560       ?do_put@?$time_put@GV?$ostreambuf_iterator@GU?$char_traits@G@std@@@std@@@std@@MBE?AV?$ostreambuf_iterator@GU?$char_traits@G@std@@@2@V32@AAVios_base@2@GPBUtm@@DD@Z 10049560 f i libcpmtd:wlocale.obj
 0001:00048730       ?do_put@?$time_put@_WV?$ostreambuf_iterator@_WU?$char_traits@_W@std@@@std@@@std@@MBE?AV?$ostreambuf_iterator@_WU?$char_traits@_W@std@@@2@V32@AAVios_base@2@_WPBUtm@@DD@Z 10049730 f i libcpmtd:wlocale.obj
 0001:00048900       ?do_scan_is@?$ctype@G@std@@MBEPBGFPBG0@Z 10049900 f i libcpmtd:wlocale.obj
 0001:00048960       ?do_scan_is@?$ctype@_W@std@@MBEPB_WFPB_W0@Z 10049960 f i libcpmtd:wlocale.obj
 0001:000489c0       ?do_scan_not@?$ctype@G@std@@MBEPBGFPBG0@Z 100499c0 f i libcpmtd:wlocale.obj
 0001:00048a20       ?do_scan_not@?$ctype@_W@std@@MBEPB_WFPB_W0@Z 10049a20 f i libcpmtd:wlocale.obj
 0001:00048a80       ?do_thousands_sep@?$_Mpunct@G@std@@MBEGXZ 10049a80 f i libcpmtd:wlocale.obj
 0001:00048aa0       ?do_thousands_sep@?$_Mpunct@_W@std@@MBE_WXZ 10049aa0 f i libcpmtd:wlocale.obj
 0001:00048ac0       ?do_thousands_sep@?$numpunct@G@std@@MBEGXZ 10049ac0 f i libcpmtd:wlocale.obj
 0001:00048ae0       ?do_thousands_sep@?$numpunct@_W@std@@MBE_WXZ 10049ae0 f i libcpmtd:wlocale.obj
 0001:00048b00       ?do_tolower@?$ctype@G@std@@MBEGG@Z 10049b00 f i libcpmtd:wlocale.obj
 0001:00048b30       ?do_tolower@?$ctype@G@std@@MBEPBGPAGPBG@Z 10049b30 f i libcpmtd:wlocale.obj
 0001:00048b90       ?do_tolower@?$ctype@_W@std@@MBEPB_WPA_WPB_W@Z 10049b90 f i libcpmtd:wlocale.obj
 0001:00048bf0       ?do_tolower@?$ctype@_W@std@@MBE_W_W@Z 10049bf0 f i libcpmtd:wlocale.obj
 0001:00048c20       ?do_toupper@?$ctype@G@std@@MBEGG@Z 10049c20 f i libcpmtd:wlocale.obj
 0001:00048c50       ?do_toupper@?$ctype@G@std@@MBEPBGPAGPBG@Z 10049c50 f i libcpmtd:wlocale.obj
 0001:00048cb0       ?do_toupper@?$ctype@_W@std@@MBEPB_WPA_WPB_W@Z 10049cb0 f i libcpmtd:wlocale.obj
 0001:00048d10       ?do_toupper@?$ctype@_W@std@@MBE_W_W@Z 10049d10 f i libcpmtd:wlocale.obj
 0001:00048d40       ?do_transform@?$collate@G@std@@MBE?AV?$basic_string@GU?$char_traits@G@std@@V?$allocator@G@2@@2@PBG0@Z 10049d40 f i libcpmtd:wlocale.obj
 0001:00048ec0       ?do_transform@?$collate@_W@std@@MBE?AV?$basic_string@_WU?$char_traits@_W@std@@V?$allocator@_W@2@@2@PB_W0@Z 10049ec0 f i libcpmtd:wlocale.obj
 0001:00049040       ?do_truename@?$numpunct@G@std@@MBE?AV?$basic_string@GU?$char_traits@G@std@@V?$allocator@G@2@@2@XZ 1004a040 f i libcpmtd:wlocale.obj
 0001:00049080       ?do_truename@?$numpunct@_W@std@@MBE?AV?$basic_string@_WU?$char_traits@_W@std@@V?$allocator@_W@2@@2@XZ 1004a080 f i libcpmtd:wlocale.obj
 0001:000490c0       ?do_unshift@?$codecvt@GDH@std@@MBEHAAHPAD1AAPAD@Z 1004a0c0 f i libcpmtd:wlocale.obj
 0001:000491a0       ?do_unshift@?$codecvt@_WDH@std@@MBEHAAHPAD1AAPAD@Z 1004a1a0 f i libcpmtd:wlocale.obj
 0001:00049280       ?do_widen@?$ctype@G@std@@MBEGD@Z 1004a280 f i libcpmtd:wlocale.obj
 0001:000492a0       ?do_widen@?$ctype@G@std@@MBEPBDPBD0PAG@Z 1004a2a0 f i libcpmtd:wlocale.obj
 0001:00049320       ?do_widen@?$ctype@_W@std@@MBEPBDPBD0PA_W@Z 1004a320 f i libcpmtd:wlocale.obj
 0001:000493a0       ?do_widen@?$ctype@_W@std@@MBE_WD@Z 1004a3a0 f i libcpmtd:wlocale.obj
 0001:000493c0       ?empty@?$basic_string@GU?$char_traits@G@std@@V?$allocator@G@2@@std@@QBE_NXZ 1004a3c0 f i libcpmtd:wlocale.obj
 0001:000493f0       ?empty@?$basic_string@_WU?$char_traits@_W@std@@V?$allocator@_W@2@@std@@QBE_NXZ 1004a3f0 f i libcpmtd:wlocale.obj
 0001:00049420       ?end@?$basic_string@GU?$char_traits@G@std@@V?$allocator@G@2@@std@@QAE?AV?$_String_iterator@V?$_String_val@U?$_Simple_types@G@std@@@std@@@2@XZ 1004a420 f i libcpmtd:wlocale.obj
 0001:00049450       ?end@?$basic_string@_WU?$char_traits@_W@std@@V?$allocator@_W@2@@std@@QAE?AV?$_String_iterator@V?$_String_val@U?$_Simple_types@_W@std@@@std@@@2@XZ 1004a450 f i libcpmtd:wlocale.obj
 0001:00049480       ?eof@?$char_traits@G@std@@SAGXZ 1004a480 f i libcpmtd:wlocale.obj
 0001:00049490       ?eof@?$char_traits@_W@std@@SAGXZ 1004a490 f i libcpmtd:wlocale.obj
 0001:000494a0       ?eq_int_type@?$char_traits@G@std@@SA_NABG0@Z 1004a4a0 f i libcpmtd:wlocale.obj
 0001:000494d0       ?eq_int_type@?$char_traits@_W@std@@SA_NABG0@Z 1004a4d0 f i libcpmtd:wlocale.obj
 0001:00049500       ?equal@?$istreambuf_iterator@GU?$char_traits@G@std@@@std@@QBE_NABV12@@Z 1004a500 f i libcpmtd:wlocale.obj
 0001:00049570       ?equal@?$istreambuf_iterator@_WU?$char_traits@_W@std@@@std@@QBE_NABV12@@Z 1004a570 f i libcpmtd:wlocale.obj
 0001:000495e0       ?erase@?$basic_string@GU?$char_traits@G@std@@V?$allocator@G@2@@std@@QAEAAV12@I@Z 1004a5e0 f i libcpmtd:wlocale.obj
 0001:00049610       ?erase@?$basic_string@GU?$char_traits@G@std@@V?$allocator@G@2@@std@@QAEAAV12@II@Z 1004a610 f i libcpmtd:wlocale.obj
 0001:000496a0       ?erase@?$basic_string@_WU?$char_traits@_W@std@@V?$allocator@_W@2@@std@@QAEAAV12@I@Z 1004a6a0 f i libcpmtd:wlocale.obj
 0001:000496d0       ?erase@?$basic_string@_WU?$char_traits@_W@std@@V?$allocator@_W@2@@std@@QAEAAV12@II@Z 1004a6d0 f i libcpmtd:wlocale.obj
 0001:00049760       ?falsename@?$numpunct@G@std@@QBE?AV?$basic_string@GU?$char_traits@G@std@@V?$allocator@G@2@@2@XZ 1004a760 f i libcpmtd:wlocale.obj
 0001:000497a0       ?falsename@?$numpunct@_W@std@@QBE?AV?$basic_string@_WU?$char_traits@_W@std@@V?$allocator@_W@2@@2@XZ 1004a7a0 f i libcpmtd:wlocale.obj
 0001:000497e0       ?frac_digits@?$_Mpunct@G@std@@QBEHXZ 1004a7e0 f i libcpmtd:wlocale.obj
 0001:00049800       ?frac_digits@?$_Mpunct@_W@std@@QBEHXZ 1004a800 f i libcpmtd:wlocale.obj
 0001:00049820       ?get_allocator@?$basic_string@GU?$char_traits@G@std@@V?$allocator@G@2@@std@@QBE?AV?$allocator@G@2@XZ 1004a820 f i libcpmtd:wlocale.obj
 0001:00049850       ?get_allocator@?$basic_string@_WU?$char_traits@_W@std@@V?$allocator@_W@2@@std@@QBE?AV?$allocator@_W@2@XZ 1004a850 f i libcpmtd:wlocale.obj
 0001:00049880       ?get_monthname@?$time_get@GV?$istreambuf_iterator@GU?$char_traits@G@std@@@std@@@std@@QBE?AV?$istreambuf_iterator@GU?$char_traits@G@std@@@2@V32@0AAVios_base@2@AAHPAUtm@@@Z 1004a880 f i libcpmtd:wlocale.obj
 0001:000498c0       ?get_monthname@?$time_get@_WV?$istreambuf_iterator@_WU?$char_traits@_W@std@@@std@@@std@@QBE?AV?$istreambuf_iterator@_WU?$char_traits@_W@std@@@2@V32@0AAVios_base@2@AAHPAUtm@@@Z 1004a8c0 f i libcpmtd:wlocale.obj
 0001:00049900       ?get_weekday@?$time_get@GV?$istreambuf_iterator@GU?$char_traits@G@std@@@std@@@std@@QBE?AV?$istreambuf_iterator@GU?$char_traits@G@std@@@2@V32@0AAVios_base@2@AAHPAUtm@@@Z 1004a900 f i libcpmtd:wlocale.obj
 0001:00049940       ?get_weekday@?$time_get@_WV?$istreambuf_iterator@_WU?$char_traits@_W@std@@@std@@@std@@QBE?AV?$istreambuf_iterator@_WU?$char_traits@_W@std@@@2@V32@0AAVios_base@2@AAHPAUtm@@@Z 1004a940 f i libcpmtd:wlocale.obj
 0001:00049980       ?get_year@?$time_get@GV?$istreambuf_iterator@GU?$char_traits@G@std@@@std@@@std@@QBE?AV?$istreambuf_iterator@GU?$char_traits@G@std@@@2@V32@0AAVios_base@2@AAHPAUtm@@@Z 1004a980 f i libcpmtd:wlocale.obj
 0001:000499c0       ?get_year@?$time_get@_WV?$istreambuf_iterator@_WU?$char_traits@_W@std@@@std@@@std@@QBE?AV?$istreambuf_iterator@_WU?$char_traits@_W@std@@@2@V32@0AAVios_base@2@AAHPAUtm@@@Z 1004a9c0 f i libcpmtd:wlocale.obj
 0001:00049a00       ?gptr@?$basic_streambuf@GU?$char_traits@G@std@@@std@@IBEPAGXZ 1004aa00 f i libcpmtd:wlocale.obj
 0001:00049a20       ?gptr@?$basic_streambuf@_WU?$char_traits@_W@std@@@std@@IBEPA_WXZ 1004aa20 f i libcpmtd:wlocale.obj
 0001:00049a40       ?grouping@?$_Mpunct@G@std@@QBE?AV?$basic_string@DU?$char_traits@D@std@@V?$allocator@D@2@@2@XZ 1004aa40 f i libcpmtd:wlocale.obj
 0001:00049a80       ?grouping@?$_Mpunct@_W@std@@QBE?AV?$basic_string@DU?$char_traits@D@std@@V?$allocator@D@2@@2@XZ 1004aa80 f i libcpmtd:wlocale.obj
 0001:00049ac0       ?grouping@?$numpunct@G@std@@QBE?AV?$basic_string@DU?$char_traits@D@std@@V?$allocator@D@2@@2@XZ 1004aac0 f i libcpmtd:wlocale.obj
 0001:00049b00       ?grouping@?$numpunct@_W@std@@QBE?AV?$basic_string@DU?$char_traits@D@std@@V?$allocator@D@2@@2@XZ 1004ab00 f i libcpmtd:wlocale.obj
 0001:00049b40       ?insert@?$basic_string@GU?$char_traits@G@std@@V?$allocator@G@2@@std@@QAEAAV12@IIG@Z 1004ab40 f i libcpmtd:wlocale.obj
 0001:00049c00       ?insert@?$basic_string@_WU?$char_traits@_W@std@@V?$allocator@_W@2@@std@@QAEAAV12@II_W@Z 1004ac00 f i libcpmtd:wlocale.obj
 0001:00049cc0       ?is@?$ctype@G@std@@QBE_NFG@Z 1004acc0 f i libcpmtd:wlocale.obj
 0001:00049cf0       ?is@?$ctype@_W@std@@QBE_NF_W@Z 1004acf0 f i libcpmtd:wlocale.obj
 0001:00049d20       ?length@?$char_traits@G@std@@SAIPBG@Z 1004ad20 f i libcpmtd:wlocale.obj
 0001:00049d50       ?length@?$char_traits@_W@std@@SAIPB_W@Z 1004ad50 f i libcpmtd:wlocale.obj
 0001:00049d80       ?max_size@?$_Wrap_alloc@V?$allocator@G@std@@@std@@QBEIXZ 1004ad80 f i libcpmtd:wlocale.obj
 0001:00049da0       ?max_size@?$_Wrap_alloc@V?$allocator@_W@std@@@std@@QBEIXZ 1004ada0 f i libcpmtd:wlocale.obj
 0001:00049dc0       ?max_size@?$allocator@G@std@@QBEIXZ 1004adc0 f i libcpmtd:wlocale.obj
 0001:00049dd0       ?max_size@?$allocator@_W@std@@QBEIXZ 1004add0 f i libcpmtd:wlocale.obj
 0001:00049de0       ?max_size@?$allocator_traits@V?$allocator@G@std@@@std@@SAIABV?$allocator@G@2@@Z 1004ade0 f i libcpmtd:wlocale.obj
 0001:00049df0       ?max_size@?$allocator_traits@V?$allocator@_W@std@@@std@@SAIABV?$allocator@_W@2@@Z 1004adf0 f i libcpmtd:wlocale.obj
 0001:00049e00       ?max_size@?$basic_string@GU?$char_traits@G@std@@V?$allocator@G@2@@std@@QBEIXZ 1004ae00 f i libcpmtd:wlocale.obj
 0001:00049e40       ?max_size@?$basic_string@_WU?$char_traits@_W@std@@V?$allocator@_W@2@@std@@QBEIXZ 1004ae40 f i libcpmtd:wlocale.obj
 0001:00049e80       ?move@?$char_traits@G@std@@SAPAGPAGPBGI@Z 1004ae80 f i libcpmtd:wlocale.obj
 0001:00049eb0       ?move@?$char_traits@_W@std@@SAPA_WPA_WPB_WI@Z 1004aeb0 f i libcpmtd:wlocale.obj
 0001:00049ee0       ?name@locale@std@@QBE?AV?$basic_string@DU?$char_traits@D@std@@V?$allocator@D@2@@2@XZ 1004aee0 f i libcpmtd:wlocale.obj
 0001:00049fe0       ?narrow@?$ctype@G@std@@QBEDGD@Z 1004afe0 f i libcpmtd:wlocale.obj
 0001:0004a010       ?narrow@?$ctype@_W@std@@QBED_WD@Z 1004b010 f i libcpmtd:wlocale.obj
 0001:0004a040       ?neg_format@?$_Mpunct@G@std@@QBE?AUpattern@money_base@2@XZ 1004b040 f i libcpmtd:wlocale.obj
 0001:0004a070       ?neg_format@?$_Mpunct@_W@std@@QBE?AUpattern@money_base@2@XZ 1004b070 f i libcpmtd:wlocale.obj
 0001:0004a0a0       ?negative_sign@?$_Mpunct@G@std@@QBE?AV?$basic_string@GU?$char_traits@G@std@@V?$allocator@G@2@@2@XZ 1004b0a0 f i libcpmtd:wlocale.obj
 0001:0004a0e0       ?negative_sign@?$_Mpunct@_W@std@@QBE?AV?$basic_string@_WU?$char_traits@_W@std@@V?$allocator@_W@2@@2@XZ 1004b0e0 f i libcpmtd:wlocale.obj
 0001:0004a120       ?pos_format@?$_Mpunct@G@std@@QBE?AUpattern@money_base@2@XZ 1004b120 f i libcpmtd:wlocale.obj
 0001:0004a150       ?pos_format@?$_Mpunct@_W@std@@QBE?AUpattern@money_base@2@XZ 1004b150 f i libcpmtd:wlocale.obj
 0001:0004a180       ?positive_sign@?$_Mpunct@G@std@@QBE?AV?$basic_string@GU?$char_traits@G@std@@V?$allocator@G@2@@2@XZ 1004b180 f i libcpmtd:wlocale.obj
 0001:0004a1c0       ?positive_sign@?$_Mpunct@_W@std@@QBE?AV?$basic_string@_WU?$char_traits@_W@std@@V?$allocator@_W@2@@2@XZ 1004b1c0 f i libcpmtd:wlocale.obj
 0001:0004a200       ?replace@?$basic_string@GU?$char_traits@G@std@@V?$allocator@G@2@@std@@QAEAAV12@IIABV12@II@Z 1004b200 f i libcpmtd:wlocale.obj
 0001:0004a520       ?replace@?$basic_string@GU?$char_traits@G@std@@V?$allocator@G@2@@std@@QAEAAV12@IIPBGI@Z 1004b520 f i libcpmtd:wlocale.obj
 0001:0004a6c0       ?replace@?$basic_string@GU?$char_traits@G@std@@V?$allocator@G@2@@std@@QAEAAV12@V?$_String_const_iterator@V?$_String_val@U?$_Simple_types@G@std@@@std@@@2@0V?$_String_iterator@V?$_String_val@U?$_Simple_types@G@std@@@std@@@2@1@Z 1004b6c0 f i libcpmtd:wlocale.obj
 0001:0004a8f0       ?replace@?$basic_string@_WU?$char_traits@_W@std@@V?$allocator@_W@2@@std@@QAEAAV12@IIABV12@II@Z 1004b8f0 f i libcpmtd:wlocale.obj
 0001:0004ac10       ?replace@?$basic_string@_WU?$char_traits@_W@std@@V?$allocator@_W@2@@std@@QAEAAV12@IIPB_WI@Z 1004bc10 f i libcpmtd:wlocale.obj
 0001:0004adb0       ?replace@?$basic_string@_WU?$char_traits@_W@std@@V?$allocator@_W@2@@std@@QAEAAV12@V?$_String_const_iterator@V?$_String_val@U?$_Simple_types@_W@std@@@std@@@2@0V?$_String_iterator@V?$_String_val@U?$_Simple_types@_W@std@@@std@@@2@1@Z 1004bdb0 f i libcpmtd:wlocale.obj
 0001:0004afe0       ?resize@?$basic_string@GU?$char_traits@G@std@@V?$allocator@G@2@@std@@QAEXI@Z 1004bfe0 f i libcpmtd:wlocale.obj
 0001:0004b000       ?resize@?$basic_string@GU?$char_traits@G@std@@V?$allocator@G@2@@std@@QAEXIG@Z 1004c000 f i libcpmtd:wlocale.obj
 0001:0004b040       ?resize@?$basic_string@_WU?$char_traits@_W@std@@V?$allocator@_W@2@@std@@QAEXI@Z 1004c040 f i libcpmtd:wlocale.obj
 0001:0004b060       ?resize@?$basic_string@_WU?$char_traits@_W@std@@V?$allocator@_W@2@@std@@QAEXI_W@Z 1004c060 f i libcpmtd:wlocale.obj
 0001:0004b0a0       ?sbumpc@?$basic_streambuf@GU?$char_traits@G@std@@@std@@QAEGXZ 1004c0a0 f i libcpmtd:wlocale.obj
 0001:0004b100       ?sbumpc@?$basic_streambuf@_WU?$char_traits@_W@std@@@std@@QAEGXZ 1004c100 f i libcpmtd:wlocale.obj
 0001:0004b160       ?select_on_container_copy_construction@?$_Wrap_alloc@V?$allocator@G@std@@@std@@QBE?AU12@XZ 1004c160 f i libcpmtd:wlocale.obj
 0001:0004b190       ?select_on_container_copy_construction@?$_Wrap_alloc@V?$allocator@_W@std@@@std@@QBE?AU12@XZ 1004c190 f i libcpmtd:wlocale.obj
 0001:0004b1c0       ?select_on_container_copy_construction@?$allocator@G@std@@QBE?AV12@XZ 1004c1c0 f i libcpmtd:wlocale.obj
 0001:0004b1e0       ?select_on_container_copy_construction@?$allocator@_W@std@@QBE?AV12@XZ 1004c1e0 f i libcpmtd:wlocale.obj
 0001:0004b200       ?select_on_container_copy_construction@?$allocator_traits@V?$allocator@G@std@@@std@@SA?AV?$allocator@G@2@ABV32@@Z 1004c200 f i libcpmtd:wlocale.obj
 0001:0004b220       ?select_on_container_copy_construction@?$allocator_traits@V?$allocator@_W@std@@@std@@SA?AV?$allocator@_W@2@ABV32@@Z 1004c220 f i libcpmtd:wlocale.obj
 0001:0004b240       ?sgetc@?$basic_streambuf@GU?$char_traits@G@std@@@std@@QAEGXZ 1004c240 f i libcpmtd:wlocale.obj
 0001:0004b2a0       ?sgetc@?$basic_streambuf@_WU?$char_traits@_W@std@@@std@@QAEGXZ 1004c2a0 f i libcpmtd:wlocale.obj
 0001:0004b300       ?size@?$basic_string@GU?$char_traits@G@std@@V?$allocator@G@2@@std@@QBEIXZ 1004c300 f i libcpmtd:wlocale.obj
 0001:0004b320       ?size@?$basic_string@_WU?$char_traits@_W@std@@V?$allocator@_W@2@@std@@QBEIXZ 1004c320 f i libcpmtd:wlocale.obj
 0001:0004b340       ?sputc@?$basic_streambuf@GU?$char_traits@G@std@@@std@@QAEGG@Z 1004c340 f i libcpmtd:wlocale.obj
 0001:0004b3c0       ?sputc@?$basic_streambuf@_WU?$char_traits@_W@std@@@std@@QAEG_W@Z 1004c3c0 f i libcpmtd:wlocale.obj
 0001:0004b440       ?thousands_sep@?$_Mpunct@G@std@@QBEGXZ 1004c440 f i libcpmtd:wlocale.obj
 0001:0004b460       ?thousands_sep@?$_Mpunct@_W@std@@QBE_WXZ 1004c460 f i libcpmtd:wlocale.obj
 0001:0004b480       ?thousands_sep@?$numpunct@G@std@@QBEGXZ 1004c480 f i libcpmtd:wlocale.obj
 0001:0004b4a0       ?thousands_sep@?$numpunct@_W@std@@QBE_WXZ 1004c4a0 f i libcpmtd:wlocale.obj
 0001:0004b4c0       ?to_char_type@?$char_traits@G@std@@SAGABG@Z 1004c4c0 f i libcpmtd:wlocale.obj
 0001:0004b4d0       ?to_char_type@?$char_traits@_W@std@@SA_WABG@Z 1004c4d0 f i libcpmtd:wlocale.obj
 0001:0004b4e0       ?to_int_type@?$char_traits@G@std@@SAGABG@Z 1004c4e0 f i libcpmtd:wlocale.obj
 0001:0004b4f0       ?to_int_type@?$char_traits@_W@std@@SAGAB_W@Z 1004c4f0 f i libcpmtd:wlocale.obj
 0001:0004b500       ?truename@?$numpunct@G@std@@QBE?AV?$basic_string@GU?$char_traits@G@std@@V?$allocator@G@2@@2@XZ 1004c500 f i libcpmtd:wlocale.obj
 0001:0004b540       ?truename@?$numpunct@_W@std@@QBE?AV?$basic_string@_WU?$char_traits@_W@std@@V?$allocator@_W@2@@2@XZ 1004c540 f i libcpmtd:wlocale.obj
 0001:0004b580       ?widen@?$ctype@G@std@@QBEGD@Z 1004c580 f i libcpmtd:wlocale.obj
 0001:0004b5a0       ?widen@?$ctype@G@std@@QBEPBDPBD0PAG@Z 1004c5a0 f i libcpmtd:wlocale.obj
 0001:0004b5d0       ?widen@?$ctype@_W@std@@QBEPBDPBD0PA_W@Z 1004c5d0 f i libcpmtd:wlocale.obj
 0001:0004b600       ?widen@?$ctype@_W@std@@QBE_WD@Z 1004c600 f i libcpmtd:wlocale.obj
 0001:0004b620       _wmemcpy                   1004c620 f i libcpmtd:wlocale.obj
 0001:0004b640       _wmemmove                  1004c640 f i libcpmtd:wlocale.obj
 0001:0004b660       _wmemset                   1004c660 f i libcpmtd:wlocale.obj
 0001:0004b6a0       ??$_Getvals@D@?$_Mpunct@D@std@@IAEXDPBUlconv@@@Z 1004c6a0 f i libcpmtd:xlocale.obj
 0001:0004b7b0       ??$_Getvals@D@?$time_get@DV?$istreambuf_iterator@DU?$char_traits@D@std@@@std@@@std@@IAEXDABV_Locinfo@1@@Z 1004c7b0 f i libcpmtd:xlocale.obj
 0001:0004b850       ??$_LStrcoll@D@std@@YAHPBD000PBU_Collvec@@@Z 1004c850 f i libcpmtd:xlocale.obj
 0001:0004b880       ??$_LStrxfrm@D@std@@YAIPAD0PBD1PBU_Collvec@@@Z 1004c880 f i libcpmtd:xlocale.obj
 0001:0004b8b0       ??$assign@V?$_String_iterator@V?$_String_val@U?$_Simple_types@D@std@@@std@@@std@@@?$basic_string@DU?$char_traits@D@std@@V?$allocator@D@2@@std@@QAEAAV01@V?$_String_iterator@V?$_String_val@U?$_Simple_types@D@std@@@std@@@1@0@Z 1004c8b0 f i libcpmtd:xlocale.obj
 0001:0004b9e0       ??$use_facet@V?$collate@D@std@@@std@@YAABV?$collate@D@0@ABVlocale@0@@Z 1004c9e0 f i libcpmtd:xlocale.obj
 0001:0004bae0       ??$use_facet@V?$messages@D@std@@@std@@YAABV?$messages@D@0@ABVlocale@0@@Z 1004cae0 f i libcpmtd:xlocale.obj
 0001:0004bbe0       ??$use_facet@V?$money_get@DV?$istreambuf_iterator@DU?$char_traits@D@std@@@std@@@std@@@std@@YAABV?$money_get@DV?$istreambuf_iterator@DU?$char_traits@D@std@@@std@@@0@ABVlocale@0@@Z 1004cbe0 f i libcpmtd:xlocale.obj
 0001:0004bce0       ??$use_facet@V?$money_put@DV?$ostreambuf_iterator@DU?$char_traits@D@std@@@std@@@std@@@std@@YAABV?$money_put@DV?$ostreambuf_iterator@DU?$char_traits@D@std@@@std@@@0@ABVlocale@0@@Z 1004cce0 f i libcpmtd:xlocale.obj
 0001:0004bde0       ??$use_facet@V?$moneypunct@D$00@std@@@std@@YAABV?$moneypunct@D$00@0@ABVlocale@0@@Z 1004cde0 f i libcpmtd:xlocale.obj
 0001:0004bee0       ??$use_facet@V?$moneypunct@D$0A@@std@@@std@@YAABV?$moneypunct@D$0A@@0@ABVlocale@0@@Z 1004cee0 f i libcpmtd:xlocale.obj
 0001:0004bfe0       ??$use_facet@V?$time_get@DV?$istreambuf_iterator@DU?$char_traits@D@std@@@std@@@std@@@std@@YAABV?$time_get@DV?$istreambuf_iterator@DU?$char_traits@D@std@@@std@@@0@ABVlocale@0@@Z 1004cfe0 f i libcpmtd:xlocale.obj
 0001:0004c0e0       ??$use_facet@V?$time_put@DV?$ostreambuf_iterator@DU?$char_traits@D@std@@@std@@@std@@@std@@YAABV?$time_put@DV?$ostreambuf_iterator@DU?$char_traits@D@std@@@std@@@0@ABVlocale@0@@Z 1004d0e0 f i libcpmtd:xlocale.obj
 0001:0004c1e0       ??0?$_Iterator012@Urandom_access_iterator_tag@std@@DHPBDABDU_Iterator_base12@2@@std@@QAE@ABU01@@Z 1004d1e0 f i libcpmtd:xlocale.obj
 0001:0004c200       ??0?$_Mpunct@D@std@@QAE@ABV_Locinfo@1@I_N1@Z 1004d200 f i libcpmtd:xlocale.obj
 0001:0004c280       ??0?$_String_const_iterator@V?$_String_val@U?$_Simple_types@D@std@@@std@@@std@@QAE@ABV01@@Z 1004d280 f i libcpmtd:xlocale.obj
 0001:0004c2b0       ??0?$_String_const_iterator@V?$_String_val@U?$_Simple_types@D@std@@@std@@@std@@QAE@XZ 1004d2b0 f i libcpmtd:xlocale.obj
 0001:0004c2d0       ??0?$_String_iterator@V?$_String_val@U?$_Simple_types@D@std@@@std@@@std@@QAE@ABV01@@Z 1004d2d0 f i libcpmtd:xlocale.obj
 0001:0004c2f0       ??0?$_Wrap_alloc@V?$allocator@D@std@@@std@@QAE@ABV?$allocator@D@1@@Z 1004d2f0 f i libcpmtd:xlocale.obj
 0001:0004c310       ??0?$basic_string@DU?$char_traits@D@std@@V?$allocator@D@2@@std@@QAE@ABV01@@Z 1004d310 f i libcpmtd:xlocale.obj
 0001:0004c3a0       ??0?$basic_string@DU?$char_traits@D@std@@V?$allocator@D@2@@std@@QAE@PBDI@Z 1004d3a0 f i libcpmtd:xlocale.obj
 0001:0004c420       ??0?$collate@D@std@@QAE@ABV_Locinfo@1@I@Z 1004d420 f i libcpmtd:xlocale.obj
 0001:0004c490       ??0?$messages@D@std@@QAE@ABV_Locinfo@1@I@Z 1004d490 f i libcpmtd:xlocale.obj
 0001:0004c500       ??0?$money_get@DV?$istreambuf_iterator@DU?$char_traits@D@std@@@std@@@std@@QAE@ABV_Locinfo@1@I@Z 1004d500 f i libcpmtd:xlocale.obj
 0001:0004c570       ??0?$money_put@DV?$ostreambuf_iterator@DU?$char_traits@D@std@@@std@@@std@@QAE@ABV_Locinfo@1@I@Z 1004d570 f i libcpmtd:xlocale.obj
 0001:0004c5e0       ??0?$moneypunct@D$00@std@@QAE@ABV_Locinfo@1@I_N@Z 1004d5e0 f i libcpmtd:xlocale.obj
 0001:0004c610       ??0?$moneypunct@D$0A@@std@@QAE@ABV_Locinfo@1@I_N@Z 1004d610 f i libcpmtd:xlocale.obj
 0001:0004c640       ??0?$time_get@DV?$istreambuf_iterator@DU?$char_traits@D@std@@@std@@@std@@QAE@ABV_Locinfo@1@I@Z 1004d640 f i libcpmtd:xlocale.obj
 0001:0004c6b0       ??0?$time_put@DV?$ostreambuf_iterator@DU?$char_traits@D@std@@@std@@@std@@QAE@ABV_Locinfo@1@I@Z 1004d6b0 f i libcpmtd:xlocale.obj
 0001:0004c730       ??1?$_Mpunct@D@std@@MAE@XZ 1004d730 f i libcpmtd:xlocale.obj
 0001:0004c760       ??1?$collate@D@std@@MAE@XZ 1004d760 f i libcpmtd:xlocale.obj
 0001:0004c790       ??1?$messages@D@std@@MAE@XZ 1004d790 f i libcpmtd:xlocale.obj
 0001:0004c7b0       ??1?$money_get@DV?$istreambuf_iterator@DU?$char_traits@D@std@@@std@@@std@@MAE@XZ 1004d7b0 f i libcpmtd:xlocale.obj
 0001:0004c7d0       ??1?$money_put@DV?$ostreambuf_iterator@DU?$char_traits@D@std@@@std@@@std@@MAE@XZ 1004d7d0 f i libcpmtd:xlocale.obj
 0001:0004c7f0       ??1?$moneypunct@D$00@std@@MAE@XZ 1004d7f0 f i libcpmtd:xlocale.obj
 0001:0004c810       ??1?$moneypunct@D$0A@@std@@MAE@XZ 1004d810 f i libcpmtd:xlocale.obj
 0001:0004c830       ??1?$time_get@DV?$istreambuf_iterator@DU?$char_traits@D@std@@@std@@@std@@MAE@XZ 1004d830 f i libcpmtd:xlocale.obj
 0001:0004c860       ??1?$time_put@DV?$ostreambuf_iterator@DU?$char_traits@D@std@@@std@@@std@@MAE@XZ 1004d860 f i libcpmtd:xlocale.obj
 0001:0004c890       ??4?$_Iterator012@Urandom_access_iterator_tag@std@@DHPBDABDU_Iterator_base12@2@@std@@QAEAAU01@ABU01@@Z 1004d890 f i libcpmtd:xlocale.obj
 0001:0004c8b0       ??4?$_String_const_iterator@V?$_String_val@U?$_Simple_types@D@std@@@std@@@std@@QAEAAV01@ABV01@@Z 1004d8b0 f i libcpmtd:xlocale.obj
 0001:0004c8e0       ??4?$basic_string@DU?$char_traits@D@std@@V?$allocator@D@2@@std@@QAEAAV01@$$QAV01@@Z 1004d8e0 f i libcpmtd:xlocale.obj
 0001:0004c9c0       ??8?$_String_const_iterator@V?$_String_val@U?$_Simple_types@D@std@@@std@@@std@@QBE_NABV01@@Z 1004d9c0 f i libcpmtd:xlocale.obj
 0001:0004ca00       ??9?$_String_const_iterator@V?$_String_val@U?$_Simple_types@D@std@@@std@@@std@@QBE_NABV01@@Z 1004da00 f i libcpmtd:xlocale.obj
 0001:0004ca40       ??E?$_String_const_iterator@V?$_String_val@U?$_Simple_types@D@std@@@std@@@std@@QAEAAV01@XZ 1004da40 f i libcpmtd:xlocale.obj
 0001:0004cb00       ??E?$ostreambuf_iterator@DU?$char_traits@D@std@@@std@@QAEAAV01@H@Z 1004db00 f i libcpmtd:xlocale.obj
 0001:0004cb10       ??G?$_String_const_iterator@V?$_String_val@U?$_Simple_types@D@std@@@std@@@std@@QBEHABV01@@Z 1004db10 f i libcpmtd:xlocale.obj
 0001:0004cb40       ??G?$_String_iterator@V?$_String_val@U?$_Simple_types@D@std@@@std@@@std@@QBE?AV01@H@Z 1004db40 f i libcpmtd:xlocale.obj
 0001:0004cbd0       ??G?$_String_iterator@V?$_String_val@U?$_Simple_types@D@std@@@std@@@std@@QBEHABV?$_String_const_iterator@V?$_String_val@U?$_Simple_types@D@std@@@std@@@1@@Z 1004dbd0 f i libcpmtd:xlocale.obj
 0001:0004cc50       ??H?$_String_iterator@V?$_String_val@U?$_Simple_types@D@std@@@std@@@std@@QBE?AV01@H@Z 1004dc50 f i libcpmtd:xlocale.obj
 0001:0004cce0       ??Y?$_String_const_iterator@V?$_String_val@U?$_Simple_types@D@std@@@std@@@std@@QAEAAV01@H@Z 1004dce0 f i libcpmtd:xlocale.obj
 0001:0004cdd0       ??Y?$_String_iterator@V?$_String_val@U?$_Simple_types@D@std@@@std@@@std@@QAEAAV01@H@Z 1004ddd0 f i libcpmtd:xlocale.obj
 0001:0004cdf0       ??Z?$_String_iterator@V?$_String_val@U?$_Simple_types@D@std@@@std@@@std@@QAEAAV01@H@Z 1004ddf0 f i libcpmtd:xlocale.obj
 0001:0004ce10       ??_E?$_Mpunct@D@std@@MAEPAXI@Z 1004de10 f i libcpmtd:xlocale.obj
 0001:0004ce10       ??_G?$_Mpunct@D@std@@MAEPAXI@Z 1004de10 f i libcpmtd:xlocale.obj
 0001:0004ce40       ??_E?$collate@D@std@@MAEPAXI@Z 1004de40 f i libcpmtd:xlocale.obj
 0001:0004ce40       ??_G?$collate@D@std@@MAEPAXI@Z 1004de40 f i libcpmtd:xlocale.obj
 0001:0004ce70       ??_E?$messages@D@std@@MAEPAXI@Z 1004de70 f i libcpmtd:xlocale.obj
 0001:0004ce70       ??_G?$messages@D@std@@MAEPAXI@Z 1004de70 f i libcpmtd:xlocale.obj
 0001:0004cea0       ??_G?$money_get@DV?$istreambuf_iterator@DU?$char_traits@D@std@@@std@@@std@@MAEPAXI@Z 1004dea0 f i libcpmtd:xlocale.obj
 0001:0004cea0       ??_E?$money_get@DV?$istreambuf_iterator@DU?$char_traits@D@std@@@std@@@std@@MAEPAXI@Z 1004dea0 f i libcpmtd:xlocale.obj
 0001:0004ced0       ??_G?$money_put@DV?$ostreambuf_iterator@DU?$char_traits@D@std@@@std@@@std@@MAEPAXI@Z 1004ded0 f i libcpmtd:xlocale.obj
 0001:0004ced0       ??_E?$money_put@DV?$ostreambuf_iterator@DU?$char_traits@D@std@@@std@@@std@@MAEPAXI@Z 1004ded0 f i libcpmtd:xlocale.obj
 0001:0004cf00       ??_G?$moneypunct@D$00@std@@MAEPAXI@Z 1004df00 f i libcpmtd:xlocale.obj
 0001:0004cf00       ??_E?$moneypunct@D$00@std@@MAEPAXI@Z 1004df00 f i libcpmtd:xlocale.obj
 0001:0004cf30       ??_E?$moneypunct@D$0A@@std@@MAEPAXI@Z 1004df30 f i libcpmtd:xlocale.obj
 0001:0004cf30       ??_G?$moneypunct@D$0A@@std@@MAEPAXI@Z 1004df30 f i libcpmtd:xlocale.obj
 0001:0004cf60       ??_G?$time_get@DV?$istreambuf_iterator@DU?$char_traits@D@std@@@std@@@std@@MAEPAXI@Z 1004df60 f i libcpmtd:xlocale.obj
 0001:0004cf60       ??_E?$time_get@DV?$istreambuf_iterator@DU?$char_traits@D@std@@@std@@@std@@MAEPAXI@Z 1004df60 f i libcpmtd:xlocale.obj
 0001:0004cf90       ??_E?$time_put@DV?$ostreambuf_iterator@DU?$char_traits@D@std@@@std@@@std@@MAEPAXI@Z 1004df90 f i libcpmtd:xlocale.obj
 0001:0004cf90       ??_G?$time_put@DV?$ostreambuf_iterator@DU?$char_traits@D@std@@@std@@@std@@MAEPAXI@Z 1004df90 f i libcpmtd:xlocale.obj
 0001:0004cfc0       ?_Compat@?$_String_const_iterator@V?$_String_val@U?$_Simple_types@D@std@@@std@@@std@@QBEXABV12@@Z 1004dfc0 f i libcpmtd:xlocale.obj
 0001:0004d060       ?_Getcat@?$collate@D@std@@SAIPAPBVfacet@locale@2@PBV42@@Z 1004e060 f i libcpmtd:xlocale.obj
 0001:0004d1b0       ?_Getcat@?$messages@D@std@@SAIPAPBVfacet@locale@2@PBV42@@Z 1004e1b0 f i libcpmtd:xlocale.obj
 0001:0004d2b0       ?_Getcat@?$money_get@DV?$istreambuf_iterator@DU?$char_traits@D@std@@@std@@@std@@SAIPAPBVfacet@locale@2@PBV42@@Z 1004e2b0 f i libcpmtd:xlocale.obj
 0001:0004d3b0       ?_Getcat@?$money_put@DV?$ostreambuf_iterator@DU?$char_traits@D@std@@@std@@@std@@SAIPAPBVfacet@locale@2@PBV42@@Z 1004e3b0 f i libcpmtd:xlocale.obj
 0001:0004d4b0       ?_Getcat@?$moneypunct@D$00@std@@SAIPAPBVfacet@locale@2@PBV42@@Z 1004e4b0 f i libcpmtd:xlocale.obj
 0001:0004d5b0       ?_Getcat@?$moneypunct@D$0A@@std@@SAIPAPBVfacet@locale@2@PBV42@@Z 1004e5b0 f i libcpmtd:xlocale.obj
 0001:0004d6b0       ?_Getcat@?$time_get@DV?$istreambuf_iterator@DU?$char_traits@D@std@@@std@@@std@@SAIPAPBVfacet@locale@2@PBV42@@Z 1004e6b0 f i libcpmtd:xlocale.obj
 0001:0004d7b0       ?_Getcat@?$time_put@DV?$ostreambuf_iterator@DU?$char_traits@D@std@@@std@@@std@@SAIPAPBVfacet@locale@2@PBV42@@Z 1004e7b0 f i libcpmtd:xlocale.obj
 0001:0004d8b0       ?_Getfmt@?$time_get@DV?$istreambuf_iterator@DU?$char_traits@D@std@@@std@@@std@@IBE?AV?$istreambuf_iterator@DU?$char_traits@D@std@@@2@V32@0AAVios_base@2@AAHPAUtm@@PBD@Z 1004e8b0 f i libcpmtd:xlocale.obj
 0001:0004da60       ?_Getint@?$time_get@DV?$istreambuf_iterator@DU?$char_traits@D@std@@@std@@@std@@ABAHAAV?$istreambuf_iterator@DU?$char_traits@D@std@@@2@0HHAAHABV?$ctype@D@2@@Z 1004ea60 f i libcpmtd:xlocale.obj
 0001:0004dc70       ?_Getmfld@?$money_get@DV?$istreambuf_iterator@DU?$char_traits@D@std@@@std@@@std@@ABE?AV?$basic_string@DU?$char_traits@D@std@@V?$allocator@D@2@@2@AAV?$istreambuf_iterator@DU?$char_traits@D@std@@@2@0_NAAVios_base@2@PAD@Z 1004ec70 f i libcpmtd:xlocale.obj
 0001:0004ec60       ?_Gettnames@_Locinfo@std@@QBE?AV_Timevec@2@XZ 1004fc60 f i libcpmtd:xlocale.obj
 0001:0004ec90       ?_Init@?$_Mpunct@D@std@@IAEXABV_Locinfo@2@_N@Z 1004fc90 f i libcpmtd:xlocale.obj
 0001:0004ee60       ?_Init@?$collate@D@std@@IAEXABV_Locinfo@2@@Z 1004fe60 f i libcpmtd:xlocale.obj
 0001:0004ee90       ?_Init@?$messages@D@std@@IAEXABV_Locinfo@2@@Z 1004fe90 f i libcpmtd:xlocale.obj
 0001:0004eea0       ?_Init@?$money_get@DV?$istreambuf_iterator@DU?$char_traits@D@std@@@std@@@std@@IAEXABV_Locinfo@2@@Z 1004fea0 f i libcpmtd:xlocale.obj
 0001:0004eeb0       ?_Init@?$money_put@DV?$ostreambuf_iterator@DU?$char_traits@D@std@@@std@@@std@@IAEXABV_Locinfo@2@@Z 1004feb0 f i libcpmtd:xlocale.obj
 0001:0004eec0       ?_Init@?$time_get@DV?$istreambuf_iterator@DU?$char_traits@D@std@@@std@@@std@@IAEXABV_Locinfo@2@@Z 1004fec0 f i libcpmtd:xlocale.obj
 0001:0004ef80       ?_Init@?$time_put@DV?$ostreambuf_iterator@DU?$char_traits@D@std@@@std@@@std@@IAEXABV_Locinfo@2@@Z 1004ff80 f i libcpmtd:xlocale.obj
 0001:0004f000       ?_Makexloc@_Locimp@locale@std@@CAXABV_Locinfo@3@HPAV123@PBV23@@Z 10050000 f   libcpmtd:xlocale.obj
 0001:0004f5f0       ?_Makpat@?$_Mpunct@D@std@@AAEXAAUpattern@money_base@2@III@Z 100505f0 f i libcpmtd:xlocale.obj
 0001:0004f660       ?_Pdif@?$basic_string@DU?$char_traits@D@std@@V?$allocator@D@2@@std@@SAIV?$_String_const_iterator@V?$_String_val@U?$_Simple_types@D@std@@@std@@@2@0@Z 10050660 f i libcpmtd:xlocale.obj
 0001:0004f6e0       ?_Put@?$money_put@DV?$ostreambuf_iterator@DU?$char_traits@D@std@@@std@@@std@@CA?AV?$ostreambuf_iterator@DU?$char_traits@D@std@@@2@V32@V?$_String_const_iterator@V?$_String_val@U?$_Simple_types@D@std@@@std@@@2@I@Z 100506e0 f i libcpmtd:xlocale.obj
 0001:0004f780       ?_Putmfld@?$money_put@DV?$ostreambuf_iterator@DU?$char_traits@D@std@@@std@@@std@@ABE?AV?$ostreambuf_iterator@DU?$char_traits@D@std@@@2@V32@_NAAVios_base@2@D1V?$basic_string@DU?$char_traits@D@std@@V?$allocator@D@2@@2@D@Z 10050780 f i libcpmtd:xlocale.obj
 0001:00050450       ?_Rep@?$money_put@DV?$ostreambuf_iterator@DU?$char_traits@D@std@@@std@@@std@@CA?AV?$ostreambuf_iterator@DU?$char_traits@D@std@@@2@V32@DI@Z 10051450 f i libcpmtd:xlocale.obj
 0001:000504a0       ?_Tidy@?$_Mpunct@D@std@@AAEXXZ 100514a0 f i libcpmtd:xlocale.obj
 0001:000504f0       ?_Tidy@?$time_get@DV?$istreambuf_iterator@DU?$char_traits@D@std@@@std@@@std@@AAEXXZ 100514f0 f i libcpmtd:xlocale.obj
 0001:00050530       ?curr_symbol@?$_Mpunct@D@std@@QBE?AV?$basic_string@DU?$char_traits@D@std@@V?$allocator@D@2@@2@XZ 10051530 f i libcpmtd:xlocale.obj
 0001:00050570       ?date_order@?$time_get@DV?$istreambuf_iterator@DU?$char_traits@D@std@@@std@@@std@@QBE?AW4dateorder@time_base@2@XZ 10051570 f i libcpmtd:xlocale.obj
 0001:00050590       ?decimal_point@?$_Mpunct@D@std@@QBEDXZ 10051590 f i libcpmtd:xlocale.obj
 0001:000505b0       ?do_close@?$messages@D@std@@MBEXH@Z 100515b0 f i libcpmtd:xlocale.obj
 0001:000505c0       ?do_compare@?$collate@D@std@@MBEHPBD000@Z 100515c0 f i libcpmtd:xlocale.obj
 0001:00050650       ?do_curr_symbol@?$_Mpunct@D@std@@MBE?AV?$basic_string@DU?$char_traits@D@std@@V?$allocator@D@2@@2@XZ 10051650 f i libcpmtd:xlocale.obj
 0001:00050690       ?do_date_order@?$time_get@DV?$istreambuf_iterator@DU?$char_traits@D@std@@@std@@@std@@MBE?AW4dateorder@time_base@2@XZ 10051690 f i libcpmtd:xlocale.obj
 0001:000506b0       ?do_decimal_point@?$_Mpunct@D@std@@MBEDXZ 100516b0 f i libcpmtd:xlocale.obj
 0001:000506d0       ?do_frac_digits@?$_Mpunct@D@std@@MBEHXZ 100516d0 f i libcpmtd:xlocale.obj
 0001:000506f0       ?do_get@?$messages@D@std@@MBE?AV?$basic_string@DU?$char_traits@D@std@@V?$allocator@D@2@@2@HHHABV32@@Z 100516f0 f i libcpmtd:xlocale.obj
 0001:00050720       ?do_get@?$money_get@DV?$istreambuf_iterator@DU?$char_traits@D@std@@@std@@@std@@MBE?AV?$istreambuf_iterator@DU?$char_traits@D@std@@@2@V32@0_NAAVios_base@2@AAHAAO@Z 10051720 f i libcpmtd:xlocale.obj
 0001:00050840       ?do_get@?$money_get@DV?$istreambuf_iterator@DU?$char_traits@D@std@@@std@@@std@@MBE?AV?$istreambuf_iterator@DU?$char_traits@D@std@@@2@V32@0_NAAVios_base@2@AAHAAV?$basic_string@DU?$char_traits@D@std@@V?$allocator@D@2@@2@@Z 10051840 f i libcpmtd:xlocale.obj
 0001:000509a0       ?do_get@?$time_get@DV?$istreambuf_iterator@DU?$char_traits@D@std@@@std@@@std@@MBE?AV?$istreambuf_iterator@DU?$char_traits@D@std@@@2@V32@0AAVios_base@2@AAHPAUtm@@DD@Z 100519a0 f i libcpmtd:xlocale.obj
 0001:00051070       ?do_get_date@?$time_get@DV?$istreambuf_iterator@DU?$char_traits@D@std@@@std@@@std@@MBE?AV?$istreambuf_iterator@DU?$char_traits@D@std@@@2@V32@0AAVios_base@2@AAHPAUtm@@@Z 10052070 f i libcpmtd:xlocale.obj
 0001:00051690       ?do_get_monthname@?$time_get@DV?$istreambuf_iterator@DU?$char_traits@D@std@@@std@@@std@@MBE?AV?$istreambuf_iterator@DU?$char_traits@D@std@@@2@V32@0AAVios_base@2@AAHPAUtm@@@Z 10052690 f i libcpmtd:xlocale.obj
 0001:00051730       ?do_get_time@?$time_get@DV?$istreambuf_iterator@DU?$char_traits@D@std@@@std@@@std@@MBE?AV?$istreambuf_iterator@DU?$char_traits@D@std@@@2@V32@0AAVios_base@2@AAHPAUtm@@@Z 10052730 f i libcpmtd:xlocale.obj
 0001:000518f0       ?do_get_weekday@?$time_get@DV?$istreambuf_iterator@DU?$char_traits@D@std@@@std@@@std@@MBE?AV?$istreambuf_iterator@DU?$char_traits@D@std@@@2@V32@0AAVios_base@2@AAHPAUtm@@@Z 100528f0 f i libcpmtd:xlocale.obj
 0001:00051990       ?do_get_year@?$time_get@DV?$istreambuf_iterator@DU?$char_traits@D@std@@@std@@@std@@MBE?AV?$istreambuf_iterator@DU?$char_traits@D@std@@@2@V32@0AAVios_base@2@AAHPAUtm@@@Z 10052990 f i libcpmtd:xlocale.obj
 0001:00051ac0       ?do_grouping@?$_Mpunct@D@std@@MBE?AV?$basic_string@DU?$char_traits@D@std@@V?$allocator@D@2@@2@XZ 10052ac0 f i libcpmtd:xlocale.obj
 0001:00051b00       ?do_hash@?$collate@D@std@@MBEJPBD0@Z 10052b00 f i libcpmtd:xlocale.obj
 0001:00051b40       ?do_neg_format@?$_Mpunct@D@std@@MBE?AUpattern@money_base@2@XZ 10052b40 f i libcpmtd:xlocale.obj
 0001:00051b60       ?do_negative_sign@?$_Mpunct@D@std@@MBE?AV?$basic_string@DU?$char_traits@D@std@@V?$allocator@D@2@@2@XZ 10052b60 f i libcpmtd:xlocale.obj
 0001:00051ba0       ?do_open@?$messages@D@std@@MBEHABV?$basic_string@DU?$char_traits@D@std@@V?$allocator@D@2@@2@ABVlocale@2@@Z 10052ba0 f i libcpmtd:xlocale.obj
 0001:00051bb0       ?do_pos_format@?$_Mpunct@D@std@@MBE?AUpattern@money_base@2@XZ 10052bb0 f i libcpmtd:xlocale.obj
 0001:00051bd0       ?do_positive_sign@?$_Mpunct@D@std@@MBE?AV?$basic_string@DU?$char_traits@D@std@@V?$allocator@D@2@@2@XZ 10052bd0 f i libcpmtd:xlocale.obj
 0001:00051c10       ?do_put@?$money_put@DV?$ostreambuf_iterator@DU?$char_traits@D@std@@@std@@@std@@MBE?AV?$ostreambuf_iterator@DU?$char_traits@D@std@@@2@V32@_NAAVios_base@2@DABV?$basic_string@DU?$char_traits@D@std@@V?$allocator@D@2@@2@@Z 10052c10 f i libcpmtd:xlocale.obj
 0001:00051df0       ?do_put@?$money_put@DV?$ostreambuf_iterator@DU?$char_traits@D@std@@@std@@@std@@MBE?AV?$ostreambuf_iterator@DU?$char_traits@D@std@@@2@V32@_NAAVios_base@2@DO@Z 10052df0 f i libcpmtd:xlocale.obj
 0001:00051fb0       ?do_put@?$time_put@DV?$ostreambuf_iterator@DU?$char_traits@D@std@@@std@@@std@@MBE?AV?$ostreambuf_iterator@DU?$char_traits@D@std@@@2@V32@AAVios_base@2@DPBUtm@@DD@Z 10052fb0 f i libcpmtd:xlocale.obj
 0001:000521b0       ?do_thousands_sep@?$_Mpunct@D@std@@MBEDXZ 100531b0 f i libcpmtd:xlocale.obj
 0001:000521d0       ?do_transform@?$collate@D@std@@MBE?AV?$basic_string@DU?$char_traits@D@std@@V?$allocator@D@2@@2@PBD0@Z 100531d0 f i libcpmtd:xlocale.obj
 0001:00052350       ?empty@?$basic_string@DU?$char_traits@D@std@@V?$allocator@D@2@@std@@QBE_NXZ 10053350 f i libcpmtd:xlocale.obj
 0001:00052380       ?end@?$basic_string@DU?$char_traits@D@std@@V?$allocator@D@2@@std@@QAE?AV?$_String_iterator@V?$_String_val@U?$_Simple_types@D@std@@@std@@@2@XZ 10053380 f i libcpmtd:xlocale.obj
 0001:000523b0       ?frac_digits@?$_Mpunct@D@std@@QBEHXZ 100533b0 f i libcpmtd:xlocale.obj
 0001:000523d0       ?get_monthname@?$time_get@DV?$istreambuf_iterator@DU?$char_traits@D@std@@@std@@@std@@QBE?AV?$istreambuf_iterator@DU?$char_traits@D@std@@@2@V32@0AAVios_base@2@AAHPAUtm@@@Z 100533d0 f i libcpmtd:xlocale.obj
 0001:00052410       ?get_weekday@?$time_get@DV?$istreambuf_iterator@DU?$char_traits@D@std@@@std@@@std@@QBE?AV?$istreambuf_iterator@DU?$char_traits@D@std@@@2@V32@0AAVios_base@2@AAHPAUtm@@@Z 10053410 f i libcpmtd:xlocale.obj
 0001:00052450       ?get_year@?$time_get@DV?$istreambuf_iterator@DU?$char_traits@D@std@@@std@@@std@@QBE?AV?$istreambuf_iterator@DU?$char_traits@D@std@@@2@V32@0AAVios_base@2@AAHPAUtm@@@Z 10053450 f i libcpmtd:xlocale.obj
 0001:00052490       ?grouping@?$_Mpunct@D@std@@QBE?AV?$basic_string@DU?$char_traits@D@std@@V?$allocator@D@2@@2@XZ 10053490 f i libcpmtd:xlocale.obj
 0001:000524d0       ?is@?$ctype@D@std@@QBE_NFD@Z 100534d0 f i libcpmtd:xlocale.obj
 0001:00052510       ?narrow@?$ctype@D@std@@QBEDDD@Z 10053510 f i libcpmtd:xlocale.obj
 0001:00052540       ?neg_format@?$_Mpunct@D@std@@QBE?AUpattern@money_base@2@XZ 10053540 f i libcpmtd:xlocale.obj
 0001:00052570       ?negative_sign@?$_Mpunct@D@std@@QBE?AV?$basic_string@DU?$char_traits@D@std@@V?$allocator@D@2@@2@XZ 10053570 f i libcpmtd:xlocale.obj
 0001:000525b0       ?pos_format@?$_Mpunct@D@std@@QBE?AUpattern@money_base@2@XZ 100535b0 f i libcpmtd:xlocale.obj
 0001:000525e0       ?positive_sign@?$_Mpunct@D@std@@QBE?AV?$basic_string@DU?$char_traits@D@std@@V?$allocator@D@2@@2@XZ 100535e0 f i libcpmtd:xlocale.obj
 0001:00052620       ?replace@?$basic_string@DU?$char_traits@D@std@@V?$allocator@D@2@@std@@QAEAAV12@IIABV12@II@Z 10053620 f i libcpmtd:xlocale.obj
 0001:000528e0       ?replace@?$basic_string@DU?$char_traits@D@std@@V?$allocator@D@2@@std@@QAEAAV12@IIPBDI@Z 100538e0 f i libcpmtd:xlocale.obj
 0001:00052a60       ?replace@?$basic_string@DU?$char_traits@D@std@@V?$allocator@D@2@@std@@QAEAAV12@V?$_String_const_iterator@V?$_String_val@U?$_Simple_types@D@std@@@std@@@2@0V?$_String_iterator@V?$_String_val@U?$_Simple_types@D@std@@@std@@@2@1@Z 10053a60 f i libcpmtd:xlocale.obj
 0001:00052c90       ?resize@?$basic_string@DU?$char_traits@D@std@@V?$allocator@D@2@@std@@QAEXI@Z 10053c90 f i libcpmtd:xlocale.obj
 0001:00052cb0       ?resize@?$basic_string@DU?$char_traits@D@std@@V?$allocator@D@2@@std@@QAEXID@Z 10053cb0 f i libcpmtd:xlocale.obj
 0001:00052cf0       ?select_on_container_copy_construction@?$_Wrap_alloc@V?$allocator@D@std@@@std@@QBE?AU12@XZ 10053cf0 f i libcpmtd:xlocale.obj
 0001:00052d20       ?select_on_container_copy_construction@?$allocator@D@std@@QBE?AV12@XZ 10053d20 f i libcpmtd:xlocale.obj
 0001:00052d40       ?select_on_container_copy_construction@?$allocator_traits@V?$allocator@D@std@@@std@@SA?AV?$allocator@D@2@ABV32@@Z 10053d40 f i libcpmtd:xlocale.obj
 0001:00052d60       ?thousands_sep@?$_Mpunct@D@std@@QBEDXZ 10053d60 f i libcpmtd:xlocale.obj
 0001:00052d80       __Stof                     10053d80 f   libcpmtd:xstof.obj
 0001:00052da0       __Stofx                    10053da0 f   libcpmtd:xstof.obj
 0001:000530c0       __Stod                     100540c0 f   libcpmtd:xstod.obj
 0001:000530e0       __Stodx                    100540e0 f   libcpmtd:xstod.obj
 0001:00053420       __Stold                    10054420 f   libcpmtd:xstold.obj
 0001:00053440       __Stoldx                   10054440 f   libcpmtd:xstold.obj
 0001:00053780       __Stolx                    10054780 f   libcpmtd:xstol.obj
 0001:000538b0       __Stoul                    100548b0 f   libcpmtd:xstoul.obj
 0001:000538d0       __Stoulx                   100548d0 f   libcpmtd:xstoul.obj
 0001:00053b50       __Stoll                    10054b50 f   libcpmtd:xstoll.obj
 0001:00053b70       __Stollx                   10054b70 f   libcpmtd:xstoll.obj
 0001:00053ce0       __Stoull                   10054ce0 f   libcpmtd:xstoull.obj
 0001:00053d00       __Stoullx                  10054d00 f   libcpmtd:xstoull.obj
 0001:00054000       __Getcoll                  10055000 f   libcpmtd:xstrcoll.obj
 0001:00054040       __Strcoll                  10055040 f   libcpmtd:xstrcoll.obj
 0001:00054160       __Getdateorder             10055160 f   libcpmtd:xdateord.obj
 0001:00054200       __Mbrtowc                  10055200 f   libcpmtd:xmbtowc.obj
 0001:00054480       __Wcscoll                  10055480 f   libcpmtd:xwcscoll.obj
 0001:00054600       __Wcsxfrm                  10055600 f   libcpmtd:xwcsxfrm.obj
 0001:00054750       __Getwctype                10055750 f   libcpmtd:xgetwctype.obj
 0001:00054790       __Getwctypes               10055790 f   libcpmtd:xgetwctype.obj
 0001:000547c0       __Towlower                 100557c0 f   libcpmtd:xtowlower.obj
 0001:00054850       __Towupper                 10055850 f   libcpmtd:xtowupper.obj
 0001:000548e0       __Strxfrm                  100558e0 f   libcpmtd:xstrxfrm.obj
 0001:000549d0       __Stopfx                   100559d0 f   libcpmtd:xstopfx.obj
 0001:00054c70       __Stoflt                   10055c70 f   libcpmtd:xstoflt.obj
 0001:000550d0       __Stoxflt                  100560d0 f   libcpmtd:xstoxflt.obj
 0001:00055580       __FDscale                  10056580 f   libcpmtd:xfdscale.obj
 0001:00055960       __FXp_addh                 10056960 f   libcpmtd:xfprec.obj
 0001:00055e30       __FXp_addx                 10056e30 f   libcpmtd:xfprec.obj
 0001:00055e90       __FXp_getw                 10056e90 f   libcpmtd:xfprec.obj
 0001:00056020       __FXp_invx                 10057020 f   libcpmtd:xfprec.obj
 0001:000561d0       __FXp_ldexpx               100571d0 f   libcpmtd:xfprec.obj
 0001:00056240       __FXp_movx                 10057240 f   libcpmtd:xfprec.obj
 0001:00056260       __FXp_mulh                 10057260 f   libcpmtd:xfprec.obj
 0001:000564b0       __FXp_mulx                 100574b0 f   libcpmtd:xfprec.obj
 0001:000565f0       __FXp_setn                 100575f0 f   libcpmtd:xfprec.obj
 0001:00056670       __FXp_setw                 10057670 f   libcpmtd:xfprec.obj
 0001:00056800       __FXp_sqrtx                10057800 f   libcpmtd:xfprec.obj
 0001:000569f0       __FXp_subx                 100579f0 f   libcpmtd:xfprec.obj
 0001:00056a50       __FDtento                  10057a50 f   libcpmtd:xfdtento.obj
 0001:00056ba0       __Dscale                   10057ba0 f   libcpmtd:xdscale.obj
 0001:00057130       __Xp_addh                  10058130 f   libcpmtd:xprec.obj
 0001:00057600       __Xp_addx                  10058600 f   libcpmtd:xprec.obj
 0001:00057660       __Xp_getw                  10058660 f   libcpmtd:xprec.obj
 0001:000577e0       __Xp_invx                  100587e0 f   libcpmtd:xprec.obj
 0001:00057980       __Xp_ldexpx                10058980 f   libcpmtd:xprec.obj
 0001:000579f0       __Xp_movx                  100589f0 f   libcpmtd:xprec.obj
 0001:00057a10       __Xp_mulh                  10058a10 f   libcpmtd:xprec.obj
 0001:00057c50       __Xp_mulx                  10058c50 f   libcpmtd:xprec.obj
 0001:00057d90       __Xp_setn                  10058d90 f   libcpmtd:xprec.obj
 0001:00057dc0       __Xp_setw                  10058dc0 f   libcpmtd:xprec.obj
 0001:00057f80       __Xp_sqrtx                 10058f80 f   libcpmtd:xprec.obj
 0001:00058150       __Xp_subx                  10059150 f   libcpmtd:xprec.obj
 0001:000581b0       __Dtento                   100591b0 f   libcpmtd:xdtento.obj
 0001:00058300       __LDscale                  10059300 f   libcpmtd:xldscale.obj
 0001:00058320       __LXp_addh                 10059320 f   libcpmtd:xlprec.obj
 0001:000587f0       __LXp_addx                 100597f0 f   libcpmtd:xlprec.obj
 0001:00058850       __LXp_getw                 10059850 f   libcpmtd:xlprec.obj
 0001:000589d0       __LXp_invx                 100599d0 f   libcpmtd:xlprec.obj
 0001:00058b70       __LXp_ldexpx               10059b70 f   libcpmtd:xlprec.obj
 0001:00058be0       __LXp_movx                 10059be0 f   libcpmtd:xlprec.obj
 0001:00058c00       __LXp_mulh                 10059c00 f   libcpmtd:xlprec.obj
 0001:00058e40       __LXp_mulx                 10059e40 f   libcpmtd:xlprec.obj
 0001:00058f80       __LXp_setn                 10059f80 f   libcpmtd:xlprec.obj
 0001:00058fb0       __LXp_setw                 10059fb0 f   libcpmtd:xlprec.obj
 0001:00059170       __LXp_sqrtx                1005a170 f   libcpmtd:xlprec.obj
 0001:00059340       __LXp_subx                 1005a340 f   libcpmtd:xlprec.obj
 0001:000593a0       __LDtento                  1005a3a0 f   libcpmtd:xldtento.obj
 0001:000594f0       __FDnorm                   1005a4f0 f   libcpmtd:xfdnorm.obj
 0001:00059700       __Feraise                  1005a700 f   libcpmtd:xferaise.obj
 0001:00059730       __FDtest                   1005a730 f   libcpmtd:xfdtest.obj
 0001:00059800       __FDint                    1005a800 f   libcpmtd:xfdint.obj
 0001:000599d0       __FDunscale                1005a9d0 f   libcpmtd:xfdunsca.obj
 0001:00059ac0       __Dnorm                    1005aac0 f   libcpmtd:xdnorm.obj
 0001:00059e00       __Dtest                    1005ae00 f   libcpmtd:xdtest.obj
 0001:00059f10       __Dint                     1005af10 f   libcpmtd:xdint.obj
 0001:0005a1b0       __Dunscale                 1005b1b0 f   libcpmtd:xdunscal.obj
 0001:0005a2c0       __LDtest                   1005b2c0 f   libcpmtd:xldtest.obj
 0001:0005a2e0       __LDint                    1005b2e0 f   libcpmtd:xldint.obj
 0001:0005a300       __LDunscale                1005b300 f   libcpmtd:xldunsca.obj
 0001:0005a320       __get_purecall_handler     1005b320 f   LIBCMTD:purevirt.obj
 0001:0005a340       __purecall                 1005b340 f   LIBCMTD:purevirt.obj
 0001:0005a380       __set_purecall_handler     1005b380 f   LIBCMTD:purevirt.obj
 0001:0005a3b0       ??2@YAPAXI@Z               1005b3b0 f   LIBCMTD:new.obj
 0001:0005a400       ??3@YAXPAX@Z               1005b400 f   LIBCMTD:dbgdel.obj
 0001:0005a4f0       ___onexitinit              1005b4f0 f   LIBCMTD:onexit.obj
 0001:0005a550       __onexit                   1005b550 f   LIBCMTD:onexit.obj
 0001:0005a710       _atexit                    1005b710 f   LIBCMTD:onexit.obj
 0001:0005a740       ___raise_securityfailure   1005b740 f   LIBCMTD:gs_report.obj
 0001:0005a790       ___report_gsfailure        1005b790 f   LIBCMTD:gs_report.obj
 0001:0005a8a0       ___report_rangecheckfailure 1005b8a0 f   LIBCMTD:gs_report.obj
 0001:0005a8b0       ___report_securityfailure  1005b8b0 f   LIBCMTD:gs_report.obj
 0001:0005a990       ___report_securityfailureEx 1005b990 f   LIBCMTD:gs_report.obj
 0001:0005aac0       ?_invalid_parameter@@YAXPBG00II@Z 1005bac0 f   LIBCMTD:invarg.obj
 0001:0005aaf0       ?_invoke_watson@@YAXPBG00II@Z 1005baf0 f   LIBCMTD:invarg.obj
 0001:0005ab10       __call_reportfault         1005bb10 f   LIBCMTD:invarg.obj
 0001:0005ac70       __get_invalid_parameter_handler 1005bc70 f   LIBCMTD:invarg.obj
 0001:0005aca0       __initp_misc_invarg        1005bca0 f   LIBCMTD:invarg.obj
 0001:0005acb0       __invalid_parameter        1005bcb0 f   LIBCMTD:invarg.obj
 0001:0005ad10       __invoke_watson            1005bd10 f   LIBCMTD:invarg.obj
 0001:0005ad50       __set_invalid_parameter_handler 1005bd50 f   LIBCMTD:invarg.obj
 0001:0005ad90       _memcpy                    1005bd90 f   LIBCMTD:memcpy.obj
 0001:0005b3e0       _memcpy_s                  1005c3e0 f   LIBCMTD:memcpy_s.obj
 0001:0005b5b0       _memset                    1005c5b0 f   LIBCMTD:memset.obj
 0001:0005b640       _strcmp                    1005c640 f   LIBCMTD:strcmp.obj
 0001:0005b6d0       _strlen                    1005c6d0 f   LIBCMTD:strlen.obj
 0001:0005b760       _memmove                   1005c760 f   LIBCMTD:memmove.obj
 0001:0005bdb0       _strchr                    1005cdb0 f   LIBCMTD:strchr.obj
 0001:0005be1e       ___from_strstr_to_strchr   1005ce1e     LIBCMTD:strchr.obj
 0001:0005bee0       _strcspn                   1005cee0 f   LIBCMTD:strcspn.obj
 0001:0005bf30       _strncpy                   1005cf30 f   LIBCMTD:strncpy.obj
 0001:0005c060       _strrchr                   1005d060 f   LIBCMTD:strrchr.obj
 0001:0005c1a0       _free                      1005d1a0 f   LIBCMTD:dbgfree.obj
 0001:0005c1c0       __fclose_nolock            1005d1c0 f   LIBCMTD:fclose.obj
 0001:0005c2d0       _fclose                    1005d2d0 f   LIBCMTD:fclose.obj
 0001:0005c3f0       __fflush_nolock            1005d3f0 f   LIBCMTD:fflush.obj
 0001:0005c460       __flush                    1005d460 f   LIBCMTD:fflush.obj
 0001:0005c520       __flushall                 1005d520 f   LIBCMTD:fflush.obj
 0001:0005c530       _fflush                    1005d530 f   LIBCMTD:fflush.obj
 0001:0005c770       __getc_nolock              1005d770 f   LIBCMTD:fgetc.obj
 0001:0005c7d0       _fgetc                     1005d7d0 f   LIBCMTD:fgetc.obj
 0001:0005ca30       _getc                      1005da30 f   LIBCMTD:fgetc.obj
 0001:0005cc90       _fgetpos                   1005dc90 f   LIBCMTD:fgetpos.obj
 0001:0005cdc0       _fputc                     1005ddc0 f   LIBCMTD:fputc.obj
 0001:0005d030       _putc                      1005e030 f   LIBCMTD:fputc.obj
 0001:0005d2a0       _fsetpos                   1005e2a0 f   LIBCMTD:fsetpos.obj
 0001:0005d3c0       __fseeki64                 1005e3c0 f   LIBCMTD:fseeki64.obj
 0001:0005d550       __fseeki64_nolock          1005e550 f   LIBCMTD:fseeki64.obj
 0001:0005d690       __fwrite_nolock            1005e690 f   LIBCMTD:fwrite.obj
 0001:0005daa0       _fwrite                    1005eaa0 f   LIBCMTD:fwrite.obj
 0001:0005dbc0       __get_printf_count_output  1005ebc0 f   LIBCMTD:printf.obj
 0001:0005dbf0       __printf_l                 1005ebf0 f   LIBCMTD:printf.obj
 0001:0005dc20       __printf_p                 1005ec20 f   LIBCMTD:printf.obj
 0001:0005dc40       __printf_p_l               1005ec40 f   LIBCMTD:printf.obj
 0001:0005dc70       __printf_s_l               1005ec70 f   LIBCMTD:printf.obj
 0001:0005dca0       __set_printf_count_output  1005eca0 f   LIBCMTD:printf.obj
 0001:0005dd00       _printf                    1005ed00 f   LIBCMTD:printf.obj
 0001:0005de70       _printf_s                  1005ee70 f   LIBCMTD:printf.obj
 0001:0005de90       _setvbuf                   1005ee90 f   LIBCMTD:setvbuf.obj
 0001:0005e190       __scprintf                 1005f190 f   LIBCMTD:sprintf.obj
 0001:0005e1b0       __scprintf_l               1005f1b0 f   LIBCMTD:sprintf.obj
 0001:0005e1e0       __scprintf_p               1005f1e0 f   LIBCMTD:sprintf.obj
 0001:0005e200       __scprintf_p_l             1005f200 f   LIBCMTD:sprintf.obj
 0001:0005e230       __snprintf_s               1005f230 f   LIBCMTD:sprintf.obj
 0001:0005e260       __snprintf_s_l             1005f260 f   LIBCMTD:sprintf.obj
 0001:0005e290       __sprintf_l                1005f290 f   LIBCMTD:sprintf.obj
 0001:0005e2c0       __sprintf_p                1005f2c0 f   LIBCMTD:sprintf.obj
 0001:0005e2f0       __sprintf_p_l              1005f2f0 f   LIBCMTD:sprintf.obj
 0001:0005e320       __sprintf_s_l              1005f320 f   LIBCMTD:sprintf.obj
 0001:0005e350       _sprintf                   1005f350 f   LIBCMTD:sprintf.obj
 0001:0005e510       _sprintf_s                 1005f510 f   LIBCMTD:sprintf.obj
 0001:0005e540       __ungetc_nolock            1005f540 f   LIBCMTD:ungetc.obj
 0001:0005e770       _ungetc                    1005f770 f   LIBCMTD:ungetc.obj
 0001:0005e870       __snprintf                 1005f870 f   LIBCMTD:snprintf.obj
 0001:0005ea50       __snprintf_l               1005fa50 f   LIBCMTD:snprintf.obj
 0001:0005ea80       ___initstdio               1005fa80 f   LIBCMTD:_file.obj
 0001:0005eb50       ___endstdio                1005fb50 f   LIBCMTD:_file.obj
 0001:0005eb90       ___iob_func                1005fb90 f   LIBCMTD:_file.obj
 0001:0005eba0       __lock_file                1005fba0 f   LIBCMTD:_file.obj
 0001:0005ec00       __lock_file2               1005fc00 f   LIBCMTD:_file.obj
 0001:0005ec40       __unlock_file              1005fc40 f   LIBCMTD:_file.obj
 0001:0005eca0       __unlock_file2             1005fca0 f   LIBCMTD:_file.obj
 0001:0005ece0       _atan2                     1005fce0 f   LIBCMTD:87ctriga.obj
 0001:0005ecea       __CIatan2                  1005fcea f   LIBCMTD:87ctriga.obj
 0001:0005ed00       _cos                       1005fd00 f   LIBCMTD:cos.obj
 0001:0005ed40       __CIcos                    1005fd40 f   LIBCMTD:cos.obj
 0001:0005ed7b       __CIcos_default            1005fd7b f   LIBCMTD:cos.obj
 0001:0005ed8f       __cos_default              1005fd8f     LIBCMTD:cos.obj
 0001:0005ee30       _fabs                      1005fe30 f   LIBCMTD:fabs.obj
 0001:0005ef30       _pow                       1005ff30 f   LIBCMTD:pow.obj
 0001:0005ef70       __CIpow                    1005ff70 f   LIBCMTD:pow.obj
 0001:0005efab       __CIpow_default            1005ffab f   LIBCMTD:pow.obj
 0001:0005efc4       __pow_default              1005ffc4     LIBCMTD:pow.obj
 0001:0005f1c0       __chgsign                  100601c0 f   LIBCMTD:ieeemisc.obj
 0001:0005f200       __copysign                 10060200 f   LIBCMTD:ieeemisc.obj
 0001:0005f230       __finite                   10060230 f   LIBCMTD:ieeemisc.obj
 0001:0005f250       __fpclass                  10060250 f   LIBCMTD:ieeemisc.obj
 0001:0005f340       __isnan                    10060340 f   LIBCMTD:ieeemisc.obj
 0001:0005f380       __logb                     10060380 f   LIBCMTD:ieeemisc.obj
 0001:0005f4b0       __nextafter                100604b0 f   LIBCMTD:ieeemisc.obj
 0001:0005f7d0       __scalb                    100607d0 f   LIBCMTD:ieeemisc.obj
 0001:0005f7f0       ??0__non_rtti_object@std@@QAE@ABV01@@Z 100607f0 f   LIBCMTD:stdexcpt.obj
 0001:0005f820       ??0__non_rtti_object@std@@QAE@PBD@Z 10060820 f   LIBCMTD:stdexcpt.obj
 0001:0005f850       ??0bad_cast@std@@QAE@ABV01@@Z 10060850 f   LIBCMTD:stdexcpt.obj
 0001:0005f880       ??0bad_cast@std@@QAE@PBD@Z 10060880 f   LIBCMTD:stdexcpt.obj
 0001:0005f8b0       ??0bad_typeid@std@@QAE@ABV01@@Z 100608b0 f   LIBCMTD:stdexcpt.obj
 0001:0005f8e0       ??0bad_typeid@std@@QAE@PBD@Z 100608e0 f   LIBCMTD:stdexcpt.obj
 0001:0005f910       ??0exception@std@@QAE@ABQBD@Z 10060910 f   LIBCMTD:stdexcpt.obj
 0001:0005f950       ??0exception@std@@QAE@ABQBDH@Z 10060950 f   LIBCMTD:stdexcpt.obj
 0001:0005f980       ??0exception@std@@QAE@ABV01@@Z 10060980 f   LIBCMTD:stdexcpt.obj
 0001:0005f9c0       ??0exception@std@@QAE@XZ   100609c0 f   LIBCMTD:stdexcpt.obj
 0001:0005f9f0       ??1__non_rtti_object@std@@UAE@XZ 100609f0 f   LIBCMTD:stdexcpt.obj
 0001:0005fa10       ??1bad_cast@std@@UAE@XZ    10060a10 f   LIBCMTD:stdexcpt.obj
 0001:0005fa30       ??1bad_typeid@std@@UAE@XZ  10060a30 f   LIBCMTD:stdexcpt.obj
 0001:0005fa50       ??1exception@std@@UAE@XZ   10060a50 f   LIBCMTD:stdexcpt.obj
 0001:0005fa70       ??4exception@std@@QAEAAV01@ABV01@@Z 10060a70 f   LIBCMTD:stdexcpt.obj
 0001:0005fac0       ??_E__non_rtti_object@std@@UAEPAXI@Z 10060ac0 f i LIBCMTD:stdexcpt.obj
 0001:0005fac0       ??_G__non_rtti_object@std@@UAEPAXI@Z 10060ac0 f i LIBCMTD:stdexcpt.obj
 0001:0005faf0       ??_Gbad_cast@std@@UAEPAXI@Z 10060af0 f i LIBCMTD:stdexcpt.obj
 0001:0005faf0       ??_Ebad_cast@std@@UAEPAXI@Z 10060af0 f i LIBCMTD:stdexcpt.obj
 0001:0005fb20       ??_Ebad_typeid@std@@UAEPAXI@Z 10060b20 f i LIBCMTD:stdexcpt.obj
 0001:0005fb20       ??_Gbad_typeid@std@@UAEPAXI@Z 10060b20 f i LIBCMTD:stdexcpt.obj
 0001:0005fb50       ??_Gexception@std@@UAEPAXI@Z 10060b50 f i LIBCMTD:stdexcpt.obj
 0001:0005fb50       ??_Eexception@std@@UAEPAXI@Z 10060b50 f i LIBCMTD:stdexcpt.obj
 0001:0005fb80       ?_Copy_str@exception@std@@AAEXPBD@Z 10060b80 f   LIBCMTD:stdexcpt.obj
 0001:0005fbe0       ?_Tidy@exception@std@@AAEXXZ 10060be0 f   LIBCMTD:stdexcpt.obj
 0001:0005fc20       ?what@exception@std@@UBEPBDXZ 10060c20 f   LIBCMTD:stdexcpt.obj
 0001:0005fc50       ??_V@YAXPAX@Z              10060c50 f   LIBCMTD:delete2.obj
 0001:0005fc70       ?_CrtDbgReportW@@YAHHPBGH00ZZ 10060c70 f   LIBCMTD:dbgrptw.obj
 0001:0005fcc0       __CrtDbgReportW            10060cc0 f   LIBCMTD:dbgrptw.obj
 0001:0005fd10       __CrtDbgReportWV           10060d10 f i LIBCMTD:dbgrptw.obj
 0001:0005fd40       __CrtSetReportHookW2       10060d40 f   LIBCMTD:dbgrptw.obj
 0001:00060090       ___crtMessageWindowW       10061090 f   LIBCMTD:dbgrptw.obj
 0001:00060540       __invoke_watson_if_error   10061540 f i LIBCMTD:dbgrptw.obj
 0001:00060570       __invoke_watson_if_oneof   10061570 f i LIBCMTD:dbgrptw.obj
 0001:000605b0       ??0_LocaleUpdate@@QAE@PAUlocaleinfo_struct@@@Z 100615b0 f i LIBCMTD:dbgheap.obj
 0001:00060690       ??1_LocaleUpdate@@QAE@XZ   10061690 f i LIBCMTD:dbgheap.obj
 0001:000606c0       ?GetLocaleT@_LocaleUpdate@@QAEPAUlocaleinfo_struct@@XZ 100616c0 f i LIBCMTD:dbgheap.obj
 0001:00060b60       __CrtCheckMemory           10061b60 f   LIBCMTD:dbgheap.obj
 0001:00060fc0       __CrtDoForAllClientObjects 10061fc0 f   LIBCMTD:dbgheap.obj
 0001:000610f0       __CrtDumpMemoryLeaks       100620f0 f   LIBCMTD:dbgheap.obj
 0001:00061190       __CrtGetAllocHook          10062190 f   LIBCMTD:dbgheap.obj
 0001:000611a0       __CrtGetCheckCount         100621a0 f   LIBCMTD:dbgheap.obj
 0001:000611b0       __CrtGetDumpClient         100621b0 f   LIBCMTD:dbgheap.obj
 0001:000611c0       __CrtIsMemoryBlock         100621c0 f   LIBCMTD:dbgheap.obj
 0001:00061330       __CrtIsValidHeapPointer    10062330 f   LIBCMTD:dbgheap.obj
 0001:00061370       __CrtIsValidPointer        10062370 f   LIBCMTD:dbgheap.obj
 0001:000613a0       __CrtMemCheckpoint         100623a0 f   LIBCMTD:dbgheap.obj
 0001:000615d0       __CrtMemDifference         100625d0 f   LIBCMTD:dbgheap.obj
 0001:00061830       __CrtMemDumpAllObjectsSince 10062830 f   LIBCMTD:dbgheap.obj
 0001:00061870       __CrtMemDumpStatistics     10062870 f   LIBCMTD:dbgheap.obj
 0001:00061990       __CrtReportBlockType       10062990 f   LIBCMTD:dbgheap.obj
 0001:000619c0       __CrtSetAllocHook          100629c0 f   LIBCMTD:dbgheap.obj
 0001:000619e0       __CrtSetBreakAlloc         100629e0 f   LIBCMTD:dbgheap.obj
 0001:00061a00       __CrtSetCheckCount         10062a00 f   LIBCMTD:dbgheap.obj
 0001:00061a20       __CrtSetDbgBlockType       10062a20 f   LIBCMTD:dbgheap.obj
 0001:00061b10       __CrtSetDbgFlag            10062b10 f   LIBCMTD:dbgheap.obj
 0001:00061c60       __CrtSetDebugFillThreshold 10062c60 f   LIBCMTD:dbgheap.obj
 0001:00061c80       __CrtSetDumpClient         10062c80 f   LIBCMTD:dbgheap.obj
 0001:00061ca0       __aligned_free             10062ca0 f   LIBCMTD:dbgheap.obj
 0001:00061cc0       __aligned_free_dbg         10062cc0 f   LIBCMTD:dbgheap.obj
 0001:00061d70       __aligned_malloc           10062d70 f   LIBCMTD:dbgheap.obj
 0001:00061d90       __aligned_malloc_dbg       10062d90 f   LIBCMTD:dbgheap.obj
 0001:00061db0       __aligned_msize            10062db0 f   LIBCMTD:dbgheap.obj
 0001:00061dd0       __aligned_msize_dbg        10062dd0 f   LIBCMTD:dbgheap.obj
 0001:00061ef0       __aligned_offset_malloc    10062ef0 f   LIBCMTD:dbgheap.obj
 0001:00061f10       __aligned_offset_malloc_dbg 10062f10 f   LIBCMTD:dbgheap.obj
 0001:000620f0       __aligned_offset_realloc   100630f0 f   LIBCMTD:dbgheap.obj
 0001:00062120       __aligned_offset_realloc_dbg 10063120 f   LIBCMTD:dbgheap.obj
 0001:00062430       __aligned_offset_recalloc  10063430 f   LIBCMTD:dbgheap.obj
 0001:00062460       __aligned_offset_recalloc_dbg 10063460 f   LIBCMTD:dbgheap.obj
 0001:00062520       __aligned_realloc          10063520 f   LIBCMTD:dbgheap.obj
 0001:00062540       __aligned_realloc_dbg      10063540 f   LIBCMTD:dbgheap.obj
 0001:00062570       __aligned_recalloc         10063570 f   LIBCMTD:dbgheap.obj
 0001:000625a0       __aligned_recalloc_dbg     100635a0 f   LIBCMTD:dbgheap.obj
 0001:000625d0       __calloc_dbg               100635d0 f   LIBCMTD:dbgheap.obj
 0001:00062630       __calloc_dbg_impl          10063630 f   LIBCMTD:dbgheap.obj
 0001:000626b0       __expand                   100636b0 f   LIBCMTD:dbgheap.obj
 0001:000626e0       __expand_dbg               100636e0 f   LIBCMTD:dbgheap.obj
 0001:00062800       __free_dbg                 10063800 f   LIBCMTD:dbgheap.obj
 0001:00062880       __free_dbg_nolock          10063880 f   LIBCMTD:dbgheap.obj
 0001:00062d80       __free_nolock              10063d80 f   LIBCMTD:dbgheap.obj
 0001:00062da0       __heap_alloc               10063da0 f   LIBCMTD:dbgheap.obj
 0001:00062dc0       __heap_alloc_dbg           10063dc0 f   LIBCMTD:dbgheap.obj
 0001:000631e0       __malloc_dbg               100641e0 f   LIBCMTD:dbgheap.obj
 0001:00063210       __msize                    10064210 f   LIBCMTD:dbgheap.obj
 0001:00063230       __msize_dbg                10064230 f   LIBCMTD:dbgheap.obj
 0001:00063440       __nh_malloc                10064440 f   LIBCMTD:dbgheap.obj
 0001:00063460       __nh_malloc_dbg            10064460 f   LIBCMTD:dbgheap.obj
 0001:000636f0       __realloc_dbg              100646f0 f   LIBCMTD:dbgheap.obj
 0001:00063780       __recalloc                 10064780 f   LIBCMTD:dbgheap.obj
 0001:000637b0       __recalloc_dbg             100647b0 f   LIBCMTD:dbgheap.obj
 0001:00063e70       _localeconv                10064e70 f   LIBCMTD:lconv.obj
 0001:00063ec0       @_RTC_AllocaHelper@12      10064ec0 f   LIBCMTD:stack.obj
 0001:00063f00       @_RTC_CheckStackVars2@12   10064f00 f   LIBCMTD:stack.obj
 0001:00063fe0       @_RTC_CheckStackVars@8     10064fe0 f   LIBCMTD:stack.obj
 0001:00064040       __RTC_CheckEsp             10065040 f   LIBCMTD:stack.obj
 0001:00064070       @__security_check_cookie@4 10065070 f   LIBCMTD:secchk.obj
 0001:00064080       __CxxThrowException@8      10065080 f   LIBCMTD:throw.obj
 0001:00064110       __RTC_InitBase             10065110 f   LIBCMTD:init.obj
 0001:00064140       __RTC_Shutdown             10065140 f   LIBCMTD:init.obj
 0001:00064260       ?_CallCatchBlock2@@YAPAXPAUEHRegistrationNode@@PBU_s_FuncInfo@@PAXHK@Z 10065260 f   LIBCMTD:_trnsctrl_.obj
 0001:000642d0       ?_CallMemberFunction0@@YGXPAX0@Z 100652d0 f   LIBCMTD:_trnsctrl_.obj
 0001:000642e0       ?_CallMemberFunction1@@YGXPAX00@Z 100652e0 f   LIBCMTD:_trnsctrl_.obj
 0001:000642f0       ?_CallMemberFunction2@@YGXPAX00H@Z 100652f0 f   LIBCMTD:_trnsctrl_.obj
 0001:00064300       ?_CallSETranslator@@YAHPAUEHExceptionRecord@@PAUEHRegistrationNode@@PAX2PBU_s_FuncInfo@@H1@Z 10065300 f   LIBCMTD:_trnsctrl_.obj
 0001:000643f0       ?_GetRangeOfTrysToCheck@@YAPBU_s_TryBlockMapEntry@@PBU_s_FuncInfo@@HHPAI1@Z 100653f0 f   LIBCMTD:_trnsctrl_.obj
 0001:00064480       ?_JumpToContinuation@@YGXPAXPAUEHRegistrationNode@@@Z 10065480 f   LIBCMTD:_trnsctrl_.obj
 0001:000644c0       ?_UnwindNestedFrames@@YGXPAUEHRegistrationNode@@PAUEHExceptionRecord@@@Z 100654c0 f   LIBCMTD:_trnsctrl_.obj
 0001:00064520       __CreateFrameInfo          10065520 f   LIBCMTD:_trnsctrl_.obj
 0001:00064550       __FindAndUnlinkFrame       10065550 f   LIBCMTD:_trnsctrl_.obj
 0001:000645b0       __IsExceptionObjectToBeDestroyed 100655b0 f   LIBCMTD:_trnsctrl_.obj
 0001:000645e0       ___CxxFrameHandler         100655e0 f   LIBCMTD:_trnsctrl_.obj
 0001:00064620       ___CxxFrameHandler2        10065620 f   LIBCMTD:_trnsctrl_.obj
 0001:00064660       ___CxxFrameHandler3        10065660 f   LIBCMTD:_trnsctrl_.obj
 0001:000646a0       ___CxxLongjmpUnwind@4      100656a0 f   LIBCMTD:_trnsctrl_.obj
 0001:000646d0       __ftol2_sse                100656d0 f   LIBCMTD:ftol2.obj
 0001:000646d9       __ftol2_pentium4           100656d9 f   LIBCMTD:ftol2.obj
 0001:000646ec       __ftol2_sse_excpt          100656ec f   LIBCMTD:ftol2.obj
 0001:00064706       __ftol2                    10065706 f   LIBCMTD:ftol2.obj
 0001:00064780       ??0type_info@@AAE@ABV0@@Z  10065780 f   LIBCMTD:typinfo.obj
 0001:000647a0       ??1type_info@@UAE@XZ       100657a0 f   LIBCMTD:typinfo.obj
 0001:000647c0       ??4type_info@@AAEAAV0@ABV0@@Z 100657c0 f   LIBCMTD:typinfo.obj
 0001:000647d0       ??8type_info@@QBE_NABV0@@Z 100657d0 f   LIBCMTD:typinfo.obj
 0001:00064810       ??9type_info@@QBE_NABV0@@Z 10065810 f   LIBCMTD:typinfo.obj
 0001:00064850       ??_Gtype_info@@UAEPAXI@Z   10065850 f i LIBCMTD:typinfo.obj
 0001:00064850       ??_Etype_info@@UAEPAXI@Z   10065850 f i LIBCMTD:typinfo.obj
 0001:00064880       ?_name_internal_method@type_info@@QBEPBDPAU__type_info_node@@@Z 10065880 f   LIBCMTD:typinfo.obj
 0001:000648a0       ?_type_info_dtor_internal_method@type_info@@QAEXXZ 100658a0 f   LIBCMTD:typinfo.obj
 0001:000648c0       ?before@type_info@@QBE_NABV1@@Z 100658c0 f   LIBCMTD:typinfo.obj
 0001:00064900       ?name@type_info@@QBEPBDPAU__type_info_node@@@Z 10065900 f   LIBCMTD:typinfo.obj
 0001:00064920       ?raw_name@type_info@@QBEPBDXZ 10065920 f   LIBCMTD:typinfo.obj
 0001:00064940       __fpmath                   10065940 f   LIBCMTD:fpinit.obj
 0001:00064960       ___setfflag                10065960 f   LIBCMTD:fpinit.obj
 0001:00064980       __cfltcvt_init             10065980 f   LIBCMTD:fpinit.obj
 0001:00064a40       _exp                       10065a40 f   LIBCMTD:87ctran.obj
 0001:00064a7c       __CIexp                    10065a7c f   LIBCMTD:87ctran.obj
 0001:00064ab7       __exp_default              10065ab7 f   LIBCMTD:87ctran.obj
 0001:00064ac1       __CIexp_default            10065ac1 f   LIBCMTD:87ctran.obj
 0001:00064ad0       _sin                       10065ad0 f   LIBCMTD:sin.obj
 0001:00064b10       __CIsin                    10065b10 f   LIBCMTD:sin.obj
 0001:00064b4b       __CIsin_default            10065b4b f   LIBCMTD:sin.obj
 0001:00064b5f       __sin_default              10065b5f     LIBCMTD:sin.obj
 0001:00064c00       __CIsqrt                   10065c00 f   LIBCMTD:sqrt.obj
 0001:00064c14       _sqrt                      10065c14     LIBCMTD:sqrt.obj
 0001:00064cc0       _ceil                      10065cc0 f   LIBCMTD:ceil_pentium4.obj
 0001:00064d00       __ceil_pentium4            10065d00 f   LIBCMTD:ceil_pentium4.obj
 0001:00064de0       __fsopen                   10065de0 f   LIBCMTD:fopen.obj
 0001:00065030       _fopen                     10066030 f   LIBCMTD:fopen.obj
 0001:00065050       _fopen_s                   10066050 f   LIBCMTD:fopen.obj
 0001:00065110       __fprintf_l                10066110 f   LIBCMTD:fprintf.obj
 0001:00065140       __fprintf_p                10066140 f   LIBCMTD:fprintf.obj
 0001:00065170       __fprintf_p_l              10066170 f   LIBCMTD:fprintf.obj
 0001:000651a0       __fprintf_s_l              100661a0 f   LIBCMTD:fprintf.obj
 0001:000651d0       _fprintf                   100661d0 f   LIBCMTD:fprintf.obj
 0001:000654a0       _fprintf_s                 100664a0 f   LIBCMTD:fprintf.obj
 0001:000654d0       _acos                      100664d0 f   LIBCMTD:acos.obj
 0001:00065510       __CIacos                   10066510 f   LIBCMTD:acos.obj
 0001:0006554b       __CIacos_default           1006654b f   LIBCMTD:acos.obj
 0001:0006555f       __acos_default             1006655f     LIBCMTD:acos.obj
 0001:00065620       _tan                       10066620 f   LIBCMTD:tan.obj
 0001:00065660       __CItan                    10066660 f   LIBCMTD:tan.obj
 0001:0006569b       __CItan_default            1006669b f   LIBCMTD:tan.obj
 0001:000656af       __tan_default              100666af     LIBCMTD:tan.obj
 0001:00065750       __chkstk                   10066750 f   LIBCMTD:chkstk.obj
 0001:00065750       __alloca_probe             10066750     LIBCMTD:chkstk.obj
 0001:00065780       _malloc                    10066780 f   LIBCMTD:dbgmalloc.obj
 0001:000657b0       ??_L@YGXPAXIHP6EX0@Z1@Z    100667b0 f   LIBCMTD:ehvecctr.obj
 0001:00065860       ??_M@YGXPAXIHP6EX0@Z@Z     10066860 f   LIBCMTD:ehvecdtr.obj
 0001:00065940       ?__ArrayUnwind@@YGXPAXIHP6EX0@Z@Z 10066940 f   LIBCMTD:ehvecdtr.obj
 0001:000659d0       _asin                      100669d0 f   LIBCMTD:asin.obj
 0001:00065a10       __CIasin                   10066a10 f   LIBCMTD:asin.obj
 0001:00065a4b       __CIasin_default           10066a4b f   LIBCMTD:asin.obj
 0001:00065a5f       __asin_default             10066a5f     LIBCMTD:asin.obj
 0001:00065b20       _atan                      10066b20 f   LIBCMTD:atan.obj
 0001:00065b60       __CIatan                   10066b60 f   LIBCMTD:atan.obj
 0001:00065b9b       __CIatan_default           10066b9b f   LIBCMTD:atan.obj
 0001:00065baf       __atan_default             10066baf     LIBCMTD:atan.obj
 0001:00065c40       _floor                     10066c40 f   LIBCMTD:floor_pentium4.obj
 0001:00065c80       __floor_pentium4           10066c80 f   LIBCMTD:floor_pentium4.obj
 0001:00065d70       __CRT_INIT@12              10066d70 f   LIBCMTD:dllcrt0.obj
 0001:00065fa0       __DllMainCRTStartup@12     10066fa0 f   LIBCMTD:dllcrt0.obj
 0001:00066190       ___DllXcptFilter           10067190 f   LIBCMTD:dllcrt0.obj
 0001:000661c0       ___copy_path_to_wide_string 100671c0 f   LIBCMTD:crt0dat.obj
 0001:000663b0       ___crtCorExitProcess       100673b0 f   LIBCMTD:crt0dat.obj
 0001:000663f0       ___crtExitProcess          100673f0 f   LIBCMTD:crt0dat.obj
 0001:00066410       ___freeCrtMemory           10067410 f   LIBCMTD:crt0dat.obj
 0001:000665e0       __amsg_exit                100675e0 f   LIBCMTD:crt0dat.obj
 0001:00066600       __c_exit                   10067600 f   LIBCMTD:crt0dat.obj
 0001:00066620       __cexit                    10067620 f   LIBCMTD:crt0dat.obj
 0001:00066640       __cinit                    10067640 f   LIBCMTD:crt0dat.obj
 0001:000666e0       __exit                     100676e0 f   LIBCMTD:crt0dat.obj
 0001:00066700       __get_pgmptr               10067700 f   LIBCMTD:crt0dat.obj
 0001:00066820       __get_wpgmptr              10067820 f   LIBCMTD:crt0dat.obj
 0001:00066940       __init_pointers            10067940 f   LIBCMTD:crt0dat.obj
 0001:000669d0       __initterm_e               100679d0 f   LIBCMTD:crt0dat.obj
 0001:00066a10       __lockexit                 10067a10 f   LIBCMTD:crt0dat.obj
 0001:00066a20       __unlockexit               10067a20 f   LIBCMTD:crt0dat.obj
 0001:00066c30       _exit                      10067c30 f   LIBCMTD:crt0dat.obj
 0001:00066c50       __vscprintf                10067c50 f   LIBCMTD:vsprintf.obj
 0001:00066c70       __vscprintf_helper         10067c70 f   LIBCMTD:vsprintf.obj
 0001:00066d60       __vscprintf_l              10067d60 f   LIBCMTD:vsprintf.obj
 0001:00066d80       __vscprintf_p              10067d80 f   LIBCMTD:vsprintf.obj
 0001:00066da0       __vscprintf_p_l            10067da0 f   LIBCMTD:vsprintf.obj
 0001:00066dc0       __vsprintf_l               10067dc0 f   LIBCMTD:vsprintf.obj
 0001:00066f80       _vsprintf                  10067f80 f   LIBCMTD:vsprintf.obj
 0001:00066fa0       __lock                     10067fa0 f   LIBCMTD:mlock.obj
 0001:00066fe0       __lockerr_exit             10067fe0 f   LIBCMTD:mlock.obj
 0001:00067010       __mtdeletelocks            10068010 f   LIBCMTD:mlock.obj
 0001:000670d0       __mtinitlocknum            100680d0 f   LIBCMTD:mlock.obj
 0001:000671f0       __mtinitlocks              100681f0 f   LIBCMTD:mlock.obj
 0001:00067270       __unlock                   10068270 f   LIBCMTD:mlock.obj
 0001:00067290       ___DestructExceptionObject 10068290 f   LIBCMTD:frame.obj
 0001:000673b0       ??0bad_exception@std@@QAE@ABV01@@Z 100683b0 f i LIBCMTD:frame.obj
 0001:000673e0       ??0bad_exception@std@@QAE@PBD@Z 100683e0 f i LIBCMTD:frame.obj
 0001:00067410       ??1bad_exception@std@@UAE@XZ 10068410 f i LIBCMTD:frame.obj
 0001:00067430       ??_Ebad_exception@std@@UAEPAXI@Z 10068430 f i LIBCMTD:frame.obj
 0001:00067430       ??_Gbad_exception@std@@UAEPAXI@Z 10068430 f i LIBCMTD:frame.obj
 0001:00068030       ?__uncaught_exception@@YA_NXZ 10069030 f   LIBCMTD:frame.obj
 0001:00068060       ?_is_exception_typeof@@YAHABVtype_info@@PAU_EXCEPTION_POINTERS@@@Z 10069060 f   LIBCMTD:frame.obj
 0001:00068140       ___AdjustPointer           10069140 f   LIBCMTD:frame.obj
 0001:00068190       ___BuildCatchObject        10069190 f   LIBCMTD:frame.obj
 0001:000682a0       ___BuildCatchObjectHelper  100692a0 f   LIBCMTD:frame.obj
 0001:00068520       ___CxxDetectRethrow        10069520 f   LIBCMTD:frame.obj
 0001:000685a0       ___CxxExceptionFilter      100695a0 f   LIBCMTD:frame.obj
 0001:000687a0       ___CxxQueryExceptionSize   100697a0 f   LIBCMTD:frame.obj
 0001:000687b0       ___CxxRegisterExceptionObject 100697b0 f   LIBCMTD:frame.obj
 0001:000688f0       ___CxxUnregisterExceptionObject 100698f0 f   LIBCMTD:frame.obj
 0001:00068a70       ___FrameUnwindFilter       10069a70 f   LIBCMTD:frame.obj
 0001:00068af0       ___FrameUnwindToState      10069af0 f   LIBCMTD:frame.obj
 0001:00068c70       ___InternalCxxFrameHandler 10069c70 f   LIBCMTD:frame.obj
 0001:00068de0       ___TypeMatch               10069de0 f   LIBCMTD:frame.obj
 0001:00068ea0       ___pctype_func             10069ea0 f   LIBCMTD:ctype.obj
 0001:00068ef0       ___pwctype_func            10069ef0 f   LIBCMTD:ctype.obj
 0001:00068f00       ___isascii                 10069f00 f i LIBCMTD:_ctype.obj
 0001:00068f30       ___iscsym                  10069f30 f i LIBCMTD:_ctype.obj
 0001:00068f70       ___iscsymf                 10069f70 f i LIBCMTD:_ctype.obj
 0001:00068fb0       ___toascii                 10069fb0 f i LIBCMTD:_ctype.obj
 0001:00068fc0       __isalnum_l                10069fc0 f i LIBCMTD:_ctype.obj
 0001:00069040       __isalpha_l                1006a040 f i LIBCMTD:_ctype.obj
 0001:000690c0       __iscntrl_l                1006a0c0 f i LIBCMTD:_ctype.obj
 0001:00069140       __iscsym_l                 1006a140 f i LIBCMTD:_ctype.obj
 0001:00069180       __iscsymf_l                1006a180 f i LIBCMTD:_ctype.obj
 0001:000691c0       __isdigit_l                1006a1c0 f i LIBCMTD:_ctype.obj
 0001:00069240       __isgraph_l                1006a240 f i LIBCMTD:_ctype.obj
 0001:000692c0       __islower_l                1006a2c0 f i LIBCMTD:_ctype.obj
 0001:00069340       __isprint_l                1006a340 f i LIBCMTD:_ctype.obj
 0001:000693c0       __ispunct_l                1006a3c0 f i LIBCMTD:_ctype.obj
 0001:00069440       __isspace_l                1006a440 f i LIBCMTD:_ctype.obj
 0001:000694c0       __isupper_l                1006a4c0 f i LIBCMTD:_ctype.obj
 0001:00069540       __isxdigit_l               1006a540 f i LIBCMTD:_ctype.obj
 0001:000695c0       _isalnum                   1006a5c0 f i LIBCMTD:_ctype.obj
 0001:00069600       _isalpha                   1006a600 f i LIBCMTD:_ctype.obj
 0001:00069640       _iscntrl                   1006a640 f i LIBCMTD:_ctype.obj
 0001:00069670       _isdigit                   1006a670 f i LIBCMTD:_ctype.obj
 0001:000696a0       _isgraph                   1006a6a0 f i LIBCMTD:_ctype.obj
 0001:000696e0       _islower                   1006a6e0 f i LIBCMTD:_ctype.obj
 0001:00069710       _isprint                   1006a710 f i LIBCMTD:_ctype.obj
 0001:00069750       _ispunct                   1006a750 f i LIBCMTD:_ctype.obj
 0001:00069780       _isspace                   1006a780 f i LIBCMTD:_ctype.obj
 0001:000697b0       _isupper                   1006a7b0 f i LIBCMTD:_ctype.obj
 0001:000697e0       _isxdigit                  1006a7e0 f i LIBCMTD:_ctype.obj
 0001:00069820       __wcsdup                   1006a820 f   LIBCMTD:wcsdup.obj
 0001:00069840       __wcsdup_dbg               1006a840 f   LIBCMTD:wcsdup.obj
 0001:000698d0       ____lc_codepage_func       1006a8d0 f   LIBCMTD:initctyp.obj
 0001:00069920       ____lc_collate_cp_func     1006a920 f   LIBCMTD:initctyp.obj
 0001:00069970       ____lc_locale_name_func    1006a970 f   LIBCMTD:initctyp.obj
 0001:000699c0       ____mb_cur_max_func        1006a9c0 f   LIBCMTD:initctyp.obj
 0001:00069a10       ____mb_cur_max_l_func      1006aa10 f   LIBCMTD:initctyp.obj
 0001:00069a40       ___init_ctype              1006aa40 f   LIBCMTD:initctyp.obj
 0001:0006a370       __MarkAllocaS              1006b370 f i LIBCMTD:a_map.obj
 0001:0006a390       ___crtLCMapStringA         1006b390 f   LIBCMTD:a_map.obj
 0001:0006a3f0       __freea                    1006b3f0 f i LIBCMTD:a_map.obj
 0001:0006a460       ___doserrno                1006b460 f   LIBCMTD:dosmap.obj
 0001:0006a490       __dosmaperr                1006b490 f   LIBCMTD:dosmap.obj
 0001:0006a4c0       __errno                    1006b4c0 f   LIBCMTD:dosmap.obj
 0001:0006a4f0       __get_doserrno             1006b4f0 f   LIBCMTD:dosmap.obj
 0001:0006a580       __get_errno                1006b580 f   LIBCMTD:dosmap.obj
 0001:0006a610       __get_errno_from_oserr     1006b610 f   LIBCMTD:dosmap.obj
 0001:0006a690       __set_doserrno             1006b690 f   LIBCMTD:dosmap.obj
 0001:0006a6c0       __set_errno                1006b6c0 f   LIBCMTD:dosmap.obj
 0001:0006a7b0       __ismbbalnum               1006b7b0 f   LIBCMTD:ismbbyte.obj
 0001:0006a7d0       __ismbbalnum_l             1006b7d0 f   LIBCMTD:ismbbyte.obj
 0001:0006a7f0       __ismbbalpha               1006b7f0 f   LIBCMTD:ismbbyte.obj
 0001:0006a810       __ismbbalpha_l             1006b810 f   LIBCMTD:ismbbyte.obj
 0001:0006a830       __ismbbgraph               1006b830 f   LIBCMTD:ismbbyte.obj
 0001:0006a850       __ismbbgraph_l             1006b850 f   LIBCMTD:ismbbyte.obj
 0001:0006a870       __ismbbkalnum              1006b870 f   LIBCMTD:ismbbyte.obj
 0001:0006a890       __ismbbkalnum_l            1006b890 f   LIBCMTD:ismbbyte.obj
 0001:0006a8b0       __ismbbkana                1006b8b0 f   LIBCMTD:ismbbyte.obj
 0001:0006a8d0       __ismbbkana_l              1006b8d0 f   LIBCMTD:ismbbyte.obj
 0001:0006a940       __ismbbkprint              1006b940 f   LIBCMTD:ismbbyte.obj
 0001:0006a960       __ismbbkprint_l            1006b960 f   LIBCMTD:ismbbyte.obj
 0001:0006a980       __ismbbkpunct              1006b980 f   LIBCMTD:ismbbyte.obj
 0001:0006a9a0       __ismbbkpunct_l            1006b9a0 f   LIBCMTD:ismbbyte.obj
 0001:0006a9c0       __ismbblead                1006b9c0 f   LIBCMTD:ismbbyte.obj
 0001:0006a9e0       __ismbblead_l              1006b9e0 f   LIBCMTD:ismbbyte.obj
 0001:0006aa00       __ismbbprint               1006ba00 f   LIBCMTD:ismbbyte.obj
 0001:0006aa20       __ismbbprint_l             1006ba20 f   LIBCMTD:ismbbyte.obj
 0001:0006aa40       __ismbbpunct               1006ba40 f   LIBCMTD:ismbbyte.obj
 0001:0006aa60       __ismbbpunct_l             1006ba60 f   LIBCMTD:ismbbyte.obj
 0001:0006aa80       __ismbbtrail               1006ba80 f   LIBCMTD:ismbbyte.obj
 0001:0006aaa0       __ismbbtrail_l             1006baa0 f   LIBCMTD:ismbbyte.obj
 0001:0006aac0       _setlocale                 1006bac0 f   LIBCMTD:setlocal.obj
 0001:0006ae50       __fseek_nolock             1006be50 f   LIBCMTD:fseek.obj
 0001:0006af40       _fseek                     1006bf40 f   LIBCMTD:fseek.obj
 0001:0006b0d0       __wfopen                   1006c0d0 f   LIBCMTD:wfopen.obj
 0001:0006b0f0       __wfopen_s                 1006c0f0 f   LIBCMTD:wfopen.obj
 0001:0006b1b0       __wfsopen                  1006c1b0 f   LIBCMTD:wfopen.obj
 0001:0006b450       ___crtCloseThreadpoolTimer 1006c450 f   LIBCMTD:winapisupp.obj
 0001:0006b480       ___crtCloseThreadpoolWait  1006c480 f   LIBCMTD:winapisupp.obj
 0001:0006b4b0       ___crtCreateSemaphoreExW@24 1006c4b0 f   LIBCMTD:winapisupp.obj
 0001:0006b510       ___crtCreateSymbolicLinkW  1006c510 f   LIBCMTD:winapisupp.obj
 0001:0006b550       ___crtCreateThreadpoolTimer 1006c550 f   LIBCMTD:winapisupp.obj
 0001:0006b590       ___crtCreateThreadpoolWait 1006c590 f   LIBCMTD:winapisupp.obj
 0001:0006b5d0       ___crtFlsAlloc             1006c5d0 f   LIBCMTD:winapisupp.obj
 0001:0006b600       ___crtFlsFree              1006c600 f   LIBCMTD:winapisupp.obj
 0001:0006b640       ___crtFlsGetValue          1006c640 f   LIBCMTD:winapisupp.obj
 0001:0006b680       ___crtFlsSetValue          1006c680 f   LIBCMTD:winapisupp.obj
 0001:0006b6c0       ___crtFlushProcessWriteBuffers 1006c6c0 f   LIBCMTD:winapisupp.obj
 0001:0006b6f0       ___crtFreeLibraryWhenCallbackReturns 1006c6f0 f   LIBCMTD:winapisupp.obj
 0001:0006b720       ___crtGetCurrentProcessorNumber 1006c720 f   LIBCMTD:winapisupp.obj
 0001:0006b750       ___crtGetLogicalProcessorInformation 1006c750 f   LIBCMTD:winapisupp.obj
 0001:0006b790       ___crtGetShowWindowMode    1006c790 f   LIBCMTD:winapisupp.obj
 0001:0006b7c0       ___crtInitializeCriticalSectionEx 1006c7c0 f   LIBCMTD:winapisupp.obj
 0001:0006b810       ___crtIsPackagedApp        1006c810 f   LIBCMTD:winapisupp.obj
 0001:0006b850       ___crtLoadWinApiPointers   1006c850 f   LIBCMTD:winapisupp.obj
 0001:0006bc60       ___crtSetThreadStackGuarantee 1006cc60 f   LIBCMTD:winapisupp.obj
 0001:0006bc90       ___crtSetThreadpoolTimer   1006cc90 f   LIBCMTD:winapisupp.obj
 0001:0006bcd0       ___crtSetThreadpoolWait    1006ccd0 f   LIBCMTD:winapisupp.obj
 0001:0006bd00       ___crtSetUnhandledExceptionFilter 1006cd00 f   LIBCMTD:winapisupp.obj
 0001:0006bd10       ___crtTerminateProcess     1006cd10 f   LIBCMTD:winapisupp.obj
 0001:0006bd30       ___crtUnhandledException   1006cd30 f   LIBCMTD:winapisupp.obj
 0001:0006bd50       ___crtWaitForThreadpoolTimerCallbacks 1006cd50 f   LIBCMTD:winapisupp.obj
 0001:0006bd80       __set_abort_behavior       1006cd80 f   LIBCMTD:abort.obj
 0001:0006bdb0       _abort                     1006cdb0 f   LIBCMTD:abort.obj
 0001:0006be20       _ldexp                     1006ce20 f   LIBCMTD:ldexp.obj
 0001:0006c100       _wcslen                    1006d100 f   LIBCMTD:wcslen.obj
 0001:0006c140       __Getdays                  1006d140 f   LIBCMTD:strftime.obj
 0001:0006c150       __Getdays_l                1006d150 f   LIBCMTD:strftime.obj
 0001:0006c300       __Getmonths                1006d300 f   LIBCMTD:strftime.obj
 0001:0006c310       __Getmonths_l              1006d310 f   LIBCMTD:strftime.obj
 0001:0006c4c0       __Gettnames                1006d4c0 f   LIBCMTD:strftime.obj
 0001:0006c4d0       __Strftime                 1006d4d0 f   LIBCMTD:strftime.obj
 0001:0006c500       __Strftime_l               1006d500 f   LIBCMTD:strftime.obj
 0001:0006c8d0       __strftime_l               1006d8d0 f   LIBCMTD:strftime.obj
 0001:0006c900       _strftime                  1006d900 f   LIBCMTD:strftime.obj
 0001:0006e2a0       __W_Getdays                1006f2a0 f   LIBCMTD:wcsftime.obj
 0001:0006e2b0       __W_Getdays_l              1006f2b0 f   LIBCMTD:wcsftime.obj
 0001:0006e490       __W_Getmonths              1006f490 f   LIBCMTD:wcsftime.obj
 0001:0006e4a0       __W_Getmonths_l            1006f4a0 f   LIBCMTD:wcsftime.obj
 0001:0006e680       __W_Gettnames              1006f680 f   LIBCMTD:wcsftime.obj
 0001:0006e690       __W_Gettnames_l            1006f690 f   LIBCMTD:wcsftime.obj
 0001:0006f2f0       __Wcsftime                 100702f0 f   LIBCMTD:wcsftime.obj
 0001:0006f320       __Wcsftime_l               10070320 f   LIBCMTD:wcsftime.obj
 0001:0006f760       __wcsftime_l               10070760 f   LIBCMTD:wcsftime.obj
 0001:0006f790       _wcsftime                  10070790 f   LIBCMTD:wcsftime.obj
 0001:0006f7c0       __tolower                  100707c0 f   LIBCMTD:tolower.obj
 0001:0006f7d0       __tolower_l                100707d0 f   LIBCMTD:tolower.obj
 0001:0006fa10       _tolower                   10070a10 f   LIBCMTD:tolower.obj
 0001:0006fa60       _memchr                    10070a60 f   LIBCMTD:memchr.obj
 0001:0006fb10       __allmul                   10070b10 f   LIBCMTD:llmul.obj
 0001:0006fb50       __aulldiv                  10070b50 f   LIBCMTD:ulldiv.obj
 0001:0006fd70       _memcmp                    10070d70 f   LIBCMTD:memcmp.obj
 0001:00070a70       ___crtCompareStringA       10071a70 f   LIBCMTD:a_cmp.obj
 0001:00070ad0       _GetTableIndexFromLcid     10071ad0 f   LIBCMTD:winapinls.obj
 0001:00070b40       _GetTableIndexFromLocaleName 10071b40 f   LIBCMTD:winapinls.obj
 0001:00070bd0       ___crtCompareStringEx      10071bd0 f   LIBCMTD:winapinls.obj
 0001:00070c40       ___crtDownlevelLCIDToLocaleName 10071c40 f   LIBCMTD:winapinls.obj
 0001:00070d10       ___crtDownlevelLocaleNameToLCID 10071d10 f   LIBCMTD:winapinls.obj
 0001:00070d70       ___crtEnumSystemLocalesEx  10071d70 f   LIBCMTD:winapinls.obj
 0001:00070de0       ___crtGetDateFormatEx      10071de0 f   LIBCMTD:winapinls.obj
 0001:00070e50       ___crtGetLocaleInfoEx      10071e50 f   LIBCMTD:winapinls.obj
 0001:00070eb0       ___crtGetTimeFormatEx      10071eb0 f   LIBCMTD:winapinls.obj
 0001:00070f20       ___crtGetUserDefaultLocaleName 10071f20 f   LIBCMTD:winapinls.obj
 0001:00070f70       ___crtIsValidLocaleName    10071f70 f   LIBCMTD:winapinls.obj
 0001:00070fb0       ___crtLCMapStringEx        10071fb0 f   LIBCMTD:winapinls.obj
 0001:00071020       ___wcsnicmp_ascii          10072020 f   LIBCMTD:winapinls.obj
 0001:000710f0       ___crtCompareStringW       100720f0 f   LIBCMTD:w_cmp.obj
 0001:00071190       ___crtLCMapStringW         10072190 f   LIBCMTD:w_map.obj
 0001:000711d0       __FF_MSGBANNER             100721d0 f   LIBCMTD:crt0msg.obj
 0001:00071220       __GET_RTERRMSG             10072220 f   LIBCMTD:crt0msg.obj
 0001:00071260       __NMSG_WRITE               10072260 f   LIBCMTD:crt0msg.obj
 0001:00071620       ___getlocaleinfo           10072620 f   LIBCMTD:inithelp.obj
 0001:00071920       __initp_misc_purevirt      10072920 f   LIBCMTD:inithelp.obj
 0001:00071930       ?_query_new_handler@@YAP6AHI@ZXZ 10072930 f   LIBCMTD:handler.obj
 0001:00071950       ?_set_new_handler@@YAP6AHI@ZH@Z 10072950 f   LIBCMTD:handler.obj
 0001:00071990       ?_set_new_handler@@YAP6AHI@ZP6AHI@Z@Z 10072990 f   LIBCMTD:handler.obj
 0001:000719d0       __callnewh                 100729d0 f   LIBCMTD:handler.obj
 0001:00071a10       __initp_heap_handler       10072a10 f   LIBCMTD:handler.obj
 0001:00071a80       __except_handler4          10072a80 f   LIBCMTD:chandler4.obj
 0001:00071c40       __CrtDefaultAllocHook      10072c40 f   LIBCMTD:dbghook.obj
 0001:00071c50       __crt_debugger_hook        10072c50 f   LIBCMTD:dbghook.obj
 0001:00071c60       ___isa_available_init      10072c60 f   LIBCMTD:cpu_disp.obj
 0001:00071e60       __VEC_memset               10072e60 f   LIBCMTD:p4_memset.obj
 0001:00071f30       __fileno                   10072f30 f   LIBCMTD:fileno.obj
 0001:00071fc0       __close                    10072fc0 f   LIBCMTD:close.obj
 0001:000721f0       __close_nolock             100731f0 f   LIBCMTD:close.obj
 0001:000722d0       __freebuf                  100732d0 f   LIBCMTD:_freebuf.obj
 0001:00072360       __commit                   10073360 f   LIBCMTD:commit.obj
 0001:000725a0       __write                    100735a0 f   LIBCMTD:write.obj
 0001:000727f0       __write_nolock             100737f0 f   LIBCMTD:write.obj
 0001:00073580       __filbuf                   10074580 f   LIBCMTD:_filbuf.obj
 0001:000737f0       __ioinit                   100747f0 f   LIBCMTD:ioinit.obj
 0001:00073cd0       __ioterm                   10074cd0 f   LIBCMTD:ioinit.obj
 0001:00073d70       __ftelli64                 10074d70 f   LIBCMTD:ftelli64.obj
 0001:00073e80       __ftelli64_nolock          10074e80 f   LIBCMTD:ftelli64.obj
 0001:000745b0       __flsbuf                   100755b0 f   LIBCMTD:_flsbuf.obj
 0001:00074880       __lseeki64                 10075880 f   LIBCMTD:lseeki64.obj
 0001:00074af0       __lseeki64_nolock          10075af0 f   LIBCMTD:lseeki64.obj
 0001:00074bc0       __vprintf_l                10075bc0 f   LIBCMTD:vprintf.obj
 0001:00074be0       __vprintf_p                10075be0 f   LIBCMTD:vprintf.obj
 0001:00074c00       __vprintf_p_l              10075c00 f   LIBCMTD:vprintf.obj
 0001:00074c20       __vprintf_s_l              10075c20 f   LIBCMTD:vprintf.obj
 0001:00074c40       _vprintf                   10075c40 f   LIBCMTD:vprintf.obj
 0001:00074c60       _vprintf_helper            10075c60 f   LIBCMTD:vprintf.obj
 0001:00074da0       _vprintf_s                 10075da0 f   LIBCMTD:vprintf.obj
 0001:00074dc0       __ftbuf                    10075dc0 f   LIBCMTD:_sftbuf.obj
 0001:00074e50       __stbuf                    10075e50 f   LIBCMTD:_sftbuf.obj
 0001:00074fc0       __output_l                 10075fc0 f   LIBCMTD:output.obj
 0001:00076660       _get_int64_arg             10077660 f i LIBCMTD:output.obj
 0001:00076680       _get_int_arg               10077680 f i LIBCMTD:output.obj
 0001:000766a0       _get_short_arg             100776a0 f i LIBCMTD:output.obj
 0001:00076860       __vsnprintf_c              10077860 f   LIBCMTD:vsnprnc.obj
 0001:000768b0       __vsnprintf_c_l            100778b0 f   LIBCMTD:vsnprnc.obj
 0001:00076900       __vsnprintf_helper         10077900 f   LIBCMTD:vsnprnc.obj
 0001:00076b00       __vsnprintf_s              10077b00 f   LIBCMTD:vsnprnc.obj
 0001:00076b30       __vsnprintf_s_l            10077b30 f   LIBCMTD:vsnprnc.obj
 0001:00076ef0       __vsprintf_p               10077ef0 f   LIBCMTD:vsnprnc.obj
 0001:00076f40       __vsprintf_p_l             10077f40 f   LIBCMTD:vsnprnc.obj
 0001:00076f90       __vsprintf_s_l             10077f90 f   LIBCMTD:vsnprnc.obj
 0001:00077220       _vsprintf_s                10078220 f   LIBCMTD:vsnprnc.obj
 0001:00077240       __getbuf                   10078240 f   LIBCMTD:_getbuf.obj
 0001:00077310       __vsnprintf                10078310 f   LIBCMTD:vsnprint.obj
 0001:00077330       __vsnprintf_l              10078330 f   LIBCMTD:vsnprint.obj
 0001:00077510       __fcloseall                10078510 f   LIBCMTD:closeall.obj
 0001:0007765c       __fFATN2                   1007865c     LIBCMTD:87triga.obj
 0001:000776ac       __rtpiby2                  100786ac     LIBCMTD:87triga.obj
 0001:000776f0       __cintrindisp2             100786f0 f   LIBCMTD:87cdisp.obj
 0001:0007772e       __cintrindisp1             1007872e f   LIBCMTD:87cdisp.obj
 0001:0007776b       __ctrandisp2               1007876b f   LIBCMTD:87cdisp.obj
 0001:000778fa       __ctrandisp1               100788fa f   LIBCMTD:87cdisp.obj
 0001:0007792d       __fload                    1007892d f   LIBCMTD:87cdisp.obj
 0001:00077970       __sse2_mathfcns_init       10078970 f   LIBCMTD:mathfcns.obj
 0001:00077990       __set_SSE2_enable          10078990 f   LIBCMTD:mathfcns.obj
 0001:000779e0       __CIcos_pentium4           100789e0 f   LIBCMTD:cos_pentium4.obj
 0001:000779f8       __cos_pentium4             100789f8     LIBCMTD:cos_pentium4.obj
 0001:00077b90       __trandisp1                10078b90 f   LIBCMTD:87disp.obj
 0001:00077bf7       __trandisp2                10078bf7 f   LIBCMTD:87disp.obj
 0001:00077c83       __rttospopde               10078c83     LIBCMTD:87disp.obj
 0001:00077c88       __rttospop                 10078c88     LIBCMTD:87disp.obj
 0001:00077c8a       __rtnospop                 10078c8a     LIBCMTD:87disp.obj
 0001:00077c8c       __rttosnpop                10078c8c     LIBCMTD:87disp.obj
 0001:00077c8d       __rtnospopde               10078c8d     LIBCMTD:87disp.obj
 0001:00077c94       __rtzeropop                10078c94     LIBCMTD:87disp.obj
 0001:00077c96       __rtzeronpop               10078c96     LIBCMTD:87disp.obj
 0001:00077c9b       __rtonepop                 10078c9b     LIBCMTD:87disp.obj
 0001:00077c9d       __rtonenpop                10078c9d     LIBCMTD:87disp.obj
 0001:00077ca2       __tosnan1                  10078ca2     LIBCMTD:87disp.obj
 0001:00077ccd       __nosnan2                  10078ccd     LIBCMTD:87disp.obj
 0001:00077ccf       __tosnan2                  10078ccf     LIBCMTD:87disp.obj
 0001:00077cf7       __nan2                     10078cf7     LIBCMTD:87disp.obj
 0001:00077d36       __rtindfpop                10078d36     LIBCMTD:87disp.obj
 0001:00077d38       __rtindfnpop               10078d38     LIBCMTD:87disp.obj
 0001:00077d49       __rttosnpopde              10078d49     LIBCMTD:87disp.obj
 0001:00077d53       __rtchsifneg               10078d53     LIBCMTD:87disp.obj
 0001:00077d60       __twoToTOS                 10078d60 f   LIBCMTD:common.obj
 0001:00077d75       __load_CW                  10078d75 f   LIBCMTD:common.obj
 0001:00077d8c       __convertTOStoQNaN         10078d8c f   LIBCMTD:common.obj
 0001:00077da5       __fload_withFB             10078da5 f   LIBCMTD:common.obj
 0001:00077de8       __checkTOS_withFB          10078de8 f   LIBCMTD:common.obj
 0001:00077dfe       __fast_exit                10078dfe f   LIBCMTD:common.obj
 0001:00077e0b       __math_exit                10078e0b f   LIBCMTD:common.obj
 0001:00077e35       __check_overflow_exit      10078e35 f   LIBCMTD:common.obj
 0001:00077e49       __check_range_exit         10078e49 f   LIBCMTD:common.obj
 0001:00077ef0       __startTwoArgErrorHandling 10078ef0 f   LIBCMTD:genexcep.obj
 0001:00077f07       __startOneArgErrorHandling 10078f07 f   LIBCMTD:genexcep.obj
 0001:00077f50       __errcode                  10078f50 f   LIBCMTD:fpexcept.obj
 0001:00077fc0       __except1                  10078fc0 f   LIBCMTD:fpexcept.obj
 0001:000780c0       __except2                  100790c0 f   LIBCMTD:fpexcept.obj
 0001:00078210       __handle_exc               10079210 f   LIBCMTD:fpexcept.obj
 0001:00078530       __handle_qnan1             10079530 f   LIBCMTD:fpexcept.obj
 0001:00078590       __handle_qnan2             10079590 f   LIBCMTD:fpexcept.obj
 0001:00078600       __raise_exc                10079600 f   LIBCMTD:fpexcept.obj
 0001:00078630       __raise_exc_ex             10079630 f   LIBCMTD:fpexcept.obj
 0001:00078ba0       __raise_excf               10079ba0 f   LIBCMTD:fpexcept.obj
 0001:00078bd0       __set_errno_from_matherr   10079bd0 f   LIBCMTD:fpexcept.obj
 0001:00078c10       __umatherr                 10079c10 f   LIBCMTD:fpexcept.obj
 0001:00078cb0       __add_exp                  10079cb0 f   LIBCMTD:util.obj
 0001:00078ce0       __decomp                   10079ce0 f   LIBCMTD:util.obj
 0001:00078e00       __get_exp                  10079e00 f   LIBCMTD:util.obj
 0001:00078e30       __set_bexp                 10079e30 f   LIBCMTD:util.obj
 0001:00078e60       __set_exp                  10079e60 f   LIBCMTD:util.obj
 0001:00078ea0       __sptype                   10079ea0 f   LIBCMTD:util.obj
 0001:00078f20       ___clrfp_sse2              10079f20 f   LIBCMTD:fpctrl.obj
 0001:00078f60       ___ctrlfp_sse2             10079f60 f   LIBCMTD:fpctrl.obj
 0001:00078fc0       ___fclrf_sse2              10079fc0 f   LIBCMTD:fpctrl.obj
 0001:00078fe0       ___get_fpsr_sse2           10079fe0 f   LIBCMTD:fpctrl.obj
 0001:00079010       ___set_fpsr_sse2           1007a010 f   LIBCMTD:fpctrl.obj
 0001:000790f0       ___set_statfp_sse2         1007a0f0 f   LIBCMTD:fpctrl.obj
 0001:00079120       ___statfp_sse2             1007a120 f   LIBCMTD:fpctrl.obj
 0001:00079150       __clrfp                    1007a150 f   LIBCMTD:fpctrl.obj
 0001:00079170       __ctrlfp                   1007a170 f   LIBCMTD:fpctrl.obj
 0001:000791a0       __set_statfp               1007a1a0 f   LIBCMTD:fpctrl.obj
 0001:00079210       __statfp                   1007a210 f   LIBCMTD:fpctrl.obj
 0001:00079220       __CIpow_pentium4           1007a220 f   LIBCMTD:pow_pentium4.obj
 0001:00079239       __pow_pentium4             1007a239     LIBCMTD:pow_pentium4.obj
 0001:00079d91       __fFEXP                    1007ad91     LIBCMTD:87tran.obj
 0001:00079de8       __rtinfpopse               1007ade8     LIBCMTD:87tran.obj
 0001:00079dea       __rtinfnpopse              1007adea     LIBCMTD:87tran.obj
 0001:00079dfa       __fFLN                     1007adfa     LIBCMTD:87tran.obj
 0001:00079eaf       __rtinfpop                 1007aeaf     LIBCMTD:87tran.obj
 0001:00079eb1       __rtinfnpop                1007aeb1     LIBCMTD:87tran.obj
 0001:00079ece       __ffexpm1                  1007aece     LIBCMTD:87tran.obj
 0001:00079f80       __d_inttype                1007af80 f   LIBCMTD:powhlp.obj
 0001:0007a010       __powhlp                   1007b010 f   LIBCMTD:powhlp.obj
 0001:0007a1c0       _strcpy_s                  1007b1c0 f   LIBCMTD:strcpy_s.obj
 0001:0007a4c0       _wcscpy_s                  1007b4c0 f   LIBCMTD:wcscpy_s.obj
 0001:0007a7d0       ___swprintf_l              1007b7d0 f   LIBCMTD:swprintf.obj
 0001:0007a800       __scwprintf                1007b800 f   LIBCMTD:swprintf.obj
 0001:0007a820       __scwprintf_l              1007b820 f   LIBCMTD:swprintf.obj
 0001:0007a850       __scwprintf_p              1007b850 f   LIBCMTD:swprintf.obj
 0001:0007a870       __scwprintf_p_l            1007b870 f   LIBCMTD:swprintf.obj
 0001:0007a8a0       __snwprintf_s              1007b8a0 f   LIBCMTD:swprintf.obj
 0001:0007a8d0       __snwprintf_s_l            1007b8d0 f   LIBCMTD:swprintf.obj
 0001:0007a900       __swprintf                 1007b900 f   LIBCMTD:swprintf.obj
 0001:0007ab20       __swprintf_p               1007bb20 f   LIBCMTD:swprintf.obj
 0001:0007ab50       __swprintf_p_l             1007bb50 f   LIBCMTD:swprintf.obj
 0001:0007ab80       __swprintf_s_l             1007bb80 f   LIBCMTD:swprintf.obj
 0001:0007abb0       _swprintf_s                1007bbb0 f   LIBCMTD:swprintf.obj
 0001:0007abe0       ___fpecode                 1007bbe0 f   LIBCMTD:winsig.obj
 0001:0007abf0       ___get_sigabrt             1007bbf0 f   LIBCMTD:winsig.obj
 0001:0007ac10       ___pxcptinfoptrs           1007bc10 f   LIBCMTD:winsig.obj
 0001:0007ac20       __initp_misc_winsig        1007bc20 f   LIBCMTD:winsig.obj
 0001:0007ad40       _raise                     1007bd40 f   LIBCMTD:winsig.obj
 0001:0007b0b0       _signal                    1007c0b0 f   LIBCMTD:winsig.obj
 0001:0007b460       ___crtMessageBoxW          1007c460 f   LIBCMTD:crtmboxw.obj
 0001:0007b770       ___crtMessageBoxWaitThreadW@4 1007c770 f   LIBCMTD:crtmboxw.obj
 0001:0007b7b0       __CrtDbgBreak              1007c7b0 f   LIBCMTD:dbgrptt.obj
 0001:0007b7c0       __CrtGetReportHook         1007c7c0 f   LIBCMTD:dbgrptt.obj
 0001:0007b7d0       __CrtSetReportFile         1007c7d0 f   LIBCMTD:dbgrptt.obj
 0001:0007b8d0       __CrtSetReportHook         1007c8d0 f   LIBCMTD:dbgrptt.obj
 0001:0007b8f0       __CrtSetReportMode         1007c8f0 f   LIBCMTD:dbgrptt.obj
 0001:0007ba30       __VCrtDbgReportA           1007ca30 f   LIBCMTD:dbgrptt.obj
 0001:0007c2a0       __VCrtDbgReportW           1007d2a0 f   LIBCMTD:dbgrptt.obj
 0001:0007cc10       ___addlocaleref            1007dc10 f   LIBCMTD:localref.obj
 0001:0007cd30       ___freetlocinfo            1007dd30 f   LIBCMTD:localref.obj
 0001:0007d020       ___removelocaleref         1007e020 f   LIBCMTD:localref.obj
 0001:0007d140       ___updatetlocinfo          1007e140 f   LIBCMTD:localref.obj
 0001:0007d210       __updatetlocinfoEx_nolock  1007e210 f   LIBCMTD:localref.obj
 0001:0007d290       ___initmbctable            1007e290 f   LIBCMTD:mbctype.obj
 0001:0007d8b0       ___updatetmbcinfo          1007e8b0 f   LIBCMTD:mbctype.obj
 0001:0007d9c0       __getmbcp                  1007e9c0 f   LIBCMTD:mbctype.obj
 0001:0007da30       __setmbcp                  1007ea30 f   LIBCMTD:mbctype.obj
 0001:0007dcd0       __setmbcp_nolock           1007ecd0 f   LIBCMTD:mbctype.obj
 0001:0007e050       __chvalidator              1007f050 f   LIBCMTD:isctype.obj
 0001:0007e0a0       __chvalidator_l            1007f0a0 f   LIBCMTD:isctype.obj
 0001:0007e160       __isctype                  1007f160 f   LIBCMTD:isctype.obj
 0001:0007e1a0       __isctype_l                1007f1a0 f   LIBCMTD:isctype.obj
 0001:0007e2f0       __free_base                1007f2f0 f   LIBCMTD:free.obj
 0001:0007e340       __realloc_base             1007f340 f   LIBCMTD:realloc.obj
 0001:0007e440       __expand_base              1007f440 f   LIBCMTD:expand.obj
 0001:0007e5b0       __CrtDbgReport             1007f5b0 f   LIBCMTD:dbgrpt.obj
 0001:0007e600       __CrtDbgReportV            1007f600 f i LIBCMTD:dbgrpt.obj
 0001:0007e630       __CrtSetReportHook2        1007f630 f   LIBCMTD:dbgrpt.obj
 0001:0007e980       ___crtMessageWindowA       1007f980 f   LIBCMTD:dbgrpt.obj
 0001:0007ee20       ___get_flsindex            1007fe20 f   LIBCMTD:tidtable.obj
 0001:0007ee30       ___threadhandle            1007fe30 f   LIBCMTD:tidtable.obj
 0001:0007ee40       ___threadid                1007fe40 f   LIBCMTD:tidtable.obj
 0001:0007ee50       __freefls@4                1007fe50 f   LIBCMTD:tidtable.obj
 0001:0007f050       __freeptd                  10080050 f   LIBCMTD:tidtable.obj
 0001:0007f090       __getptd                   10080090 f   LIBCMTD:tidtable.obj
 0001:0007f0c0       __getptd_noexit            100800c0 f   LIBCMTD:tidtable.obj
 0001:0007f170       __initptd                  10080170 f   LIBCMTD:tidtable.obj
 0001:0007f2b0       __mtinit                   100802b0 f   LIBCMTD:tidtable.obj
 0001:0007f360       __mtterm                   10080360 f   LIBCMTD:tidtable.obj
 0001:0007f390       __heapchk                  10080390 f   LIBCMTD:heapchk.obj
 0001:0007f3c0       __heapset                  100803c0 f   LIBCMTD:heapchk.obj
 0001:0007f3d0       __heap_alloc_base          100803d0 f i LIBCMTD:malloc.obj
 0001:0007f430       __malloc_base              10080430 f   LIBCMTD:malloc.obj
 0001:0007f4c0       __get_heap_handle          100804c0 f   LIBCMTD:heapinit.obj
 0001:0007f500       __heap_init                10080500 f   LIBCMTD:heapinit.obj
 0001:0007f530       __heap_term                10080530 f   LIBCMTD:heapinit.obj
 0001:0007f690       ?_RTC_AllocaFailure@@YAXPAXPAU_RTC_ALLOCA_NODE@@H@Z 10080690 f   LIBCMTD:error.obj
 0001:0007f800       ?_RTC_Failure@@YAXPAXH@Z   10080800 f   LIBCMTD:error.obj
 0001:0007f850       ?_RTC_StackFailure@@YAXPAXPBD@Z 10080850 f   LIBCMTD:error.obj
 0001:0007fbb0       __RTC_UninitUse            10080bb0 f   LIBCMTD:error.obj
 0001:0007fcb0       ?_RTC_GetErrorFunc@@YAP6AHHPBDH00ZZPBX@Z 10080cb0 f   LIBCMTD:userapi.obj
 0001:0007fcc0       ?_RTC_GetErrorFuncW@@YAP6AHHPB_WH00ZZPBX@Z 10080cc0 f   LIBCMTD:userapi.obj
 0001:0007fcd0       __RTC_GetErrDesc           10080cd0 f   LIBCMTD:userapi.obj
 0001:0007fcf0       __RTC_NumErrors            10080cf0 f   LIBCMTD:userapi.obj
 0001:0007fd00       __RTC_SetErrorFunc         10080d00 f   LIBCMTD:userapi.obj
 0001:0007fd20       __RTC_SetErrorFuncW        10080d20 f   LIBCMTD:userapi.obj
 0001:0007fd40       __RTC_SetErrorType         10080d40 f   LIBCMTD:userapi.obj
 0001:0007fd70       __CRT_RTC_INIT             10080d70 f   LIBCMTD:chkesp.obj
 0001:0007fd80       __CRT_RTC_INITW            10080d80 f   LIBCMTD:chkesp.obj
 0001:0007fd90       __chkesp                   10080d90 f   LIBCMTD:chkesp.obj
 0001:0007fdd0       __CallSettingFrame@12      10080dd0 f   LIBCMTD:lowhelpr.obj
 0001:0007fdf7       __NLG_Return               10080df7     LIBCMTD:lowhelpr.obj
 0001:0007fe20       ?_inconsistency@@YAXXZ     10080e20 f   LIBCMTD:hooks.obj
 0001:0007feb0       ?terminate@@YAXXZ          10080eb0 f   LIBCMTD:hooks.obj
 0001:0007ff30       ?unexpected@@YAXXZ         10080f30 f   LIBCMTD:hooks.obj
 0001:0007ff60       __initp_eh_hooks           10080f60 f   LIBCMTD:hooks.obj
 0001:0007ff80       ?_Name_base@type_info@@CAPBDPBV1@PAU__type_info_node@@@Z 10080f80 f   LIBCMTD:typname.obj
 0001:00080130       ?_Name_base_internal@type_info@@CAPBDPBV1@PAU__type_info_node@@@Z 10081130 f   LIBCMTD:typname.obj
 0001:000802f0       ?_Type_info_dtor@type_info@@CAXPAV1@@Z 100812f0 f   LIBCMTD:typname.obj
 0001:00080400       ?_Type_info_dtor_internal@type_info@@CAXPAV1@@Z 10081400 f   LIBCMTD:typname.obj
 0001:00080510       ___clean_type_info_names_internal 10081510 f   LIBCMTD:typname.obj
 0001:000805c0       ___unDNameHelper           100815c0 f   LIBCMTD:typname.obj
 0001:00080600       __cfltcvt                  10081600 f   LIBCMTD:cvt.obj
 0001:00080630       __cfltcvt_l                10081630 f   LIBCMTD:cvt.obj
 0001:000806f0       __cftoa                    100816f0 f   LIBCMTD:cvt.obj
 0001:00080720       __cftoa_l                  10081720 f   LIBCMTD:cvt.obj
 0001:00080f90       __cftoe                    10081f90 f   LIBCMTD:cvt.obj
 0001:000813d0       __cftoe_l                  100823d0 f   LIBCMTD:cvt.obj
 0001:00081600       __cftof                    10082600 f   LIBCMTD:cvt.obj
 0001:000818b0       __cftof_l                  100828b0 f   LIBCMTD:cvt.obj
 0001:00081ab0       __cftog                    10082ab0 f   LIBCMTD:cvt.obj
 0001:00081ae0       __cftog_l                  10082ae0 f   LIBCMTD:cvt.obj
 0001:00081d70       __cropzeros                10082d70 f   LIBCMTD:cvt.obj
 0001:00081d90       __cropzeros_l              10082d90 f   LIBCMTD:cvt.obj
 0001:00081eb0       __fassign                  10082eb0 f   LIBCMTD:cvt.obj
 0001:00081ed0       __fassign_l                10082ed0 f   LIBCMTD:cvt.obj
 0001:00081f20       __forcdecpt                10082f20 f   LIBCMTD:cvt.obj
 0001:00081f40       __forcdecpt_l              10082f40 f   LIBCMTD:cvt.obj
 0001:00082010       __positive                 10083010 f   LIBCMTD:cvt.obj
 0001:00082070       __setdefaultprecision      10083070 f   LIBCMTD:fp8.obj
 0001:000820b0       __initp_misc_cfltcvt_tab   100830b0 f   LIBCMTD:cmiscdat.obj
 0001:000820f0       __CIexp_pentium4           100830f0 f   LIBCMTD:exp_pentium4.obj
 0001:00082108       __exp_pentium4             10083108     LIBCMTD:exp_pentium4.obj
 0001:000823b0       __CIsin_pentium4           100833b0 f   LIBCMTD:sin_pentium4.obj
 0001:000823c8       __sin_pentium4             100833c8     LIBCMTD:sin_pentium4.obj
 0001:00082580       ___libm_error_support      10083580 f   LIBCMTD:libm_error.obj
 0001:00083150       ___libm_setusermatherr     10084150 f   LIBCMTD:libm_error.obj
 0001:00083180       __ceil_default             10084180 f   LIBCMTD:ceil.obj
 0001:000832c0       __getstream                100842c0 f   LIBCMTD:stream.obj
 0001:000834f0       __openfile                 100844f0 f   LIBCMTD:_open.obj
 0001:00083cf0       __local_unwind4            10084cf0 f   LIBCMTD:exsup4.obj
 0001:00083dc6       __seh_longjmp_unwind4@4    10084dc6 f   LIBCMTD:exsup4.obj
 0001:00083de2       @_EH4_CallFilterFunc@8     10084de2 f   LIBCMTD:exsup4.obj
 0001:00083df9       @_EH4_TransferToHandler@8  10084df9 f   LIBCMTD:exsup4.obj
 0001:00083e12       @_EH4_GlobalUnwind2@8      10084e12 f   LIBCMTD:exsup4.obj
 0001:00083e2b       @_EH4_LocalUnwind@16       10084e2b f   LIBCMTD:exsup4.obj
 0001:00083e50       __vfprintf_l               10084e50 f   LIBCMTD:vfprintf.obj
 0001:00083e80       __vfprintf_p               10084e80 f   LIBCMTD:vfprintf.obj
 0001:00083ea0       __vfprintf_p_l             10084ea0 f   LIBCMTD:vfprintf.obj
 0001:00083ed0       __vfprintf_s_l             10084ed0 f   LIBCMTD:vfprintf.obj
 0001:00083f00       _vfprintf                  10084f00 f   LIBCMTD:vfprintf.obj
 0001:00083f20       _vfprintf_helper           10084f20 f   LIBCMTD:vfprintf.obj
 0001:000841f0       _vfprintf_s                100851f0 f   LIBCMTD:vfprintf.obj
 0001:00084210       __CIacos_pentium4          10085210 f   LIBCMTD:acos_pentium4.obj
 0001:00084228       __acos_pentium4            10085228     LIBCMTD:acos_pentium4.obj
 0001:00084770       __CItan_pentium4           10085770 f   LIBCMTD:tan_pentium4.obj
 0001:00084788       __tan_pentium4             10085788     LIBCMTD:tan_pentium4.obj
 0001:000849d0       __CIasin_pentium4          100859d0 f   LIBCMTD:asin_pentium4.obj
 0001:000849e8       __asin_pentium4            100859e8     LIBCMTD:asin_pentium4.obj
 0001:00084f50       __CIatan_pentium4          10085f50 f   LIBCMTD:atan_pentium4.obj
 0001:00084f68       __atan_pentium4            10085f68     LIBCMTD:atan_pentium4.obj
 0001:00085240       __floor_default            10086240 f   LIBCMTD:floor.obj
 0001:00085380       __XcptFilter               10086380 f   LIBCMTD:winxfltr.obj
 0001:00085580       ___CppXcptFilter           10086580 f   LIBCMTD:winxfltr.obj
 0001:00085610       __set_pgmptr               10086610 f i LIBCMTD:stdargv.obj
 0001:00085620       __setargv                  10086620 f   LIBCMTD:stdargv.obj
 0001:00085af0       __setenvp                  10086af0 f   LIBCMTD:stdenvp.obj
 0001:00085c90       ___security_init_cookie    10086c90 f   LIBCMTD:gs_support.obj
 0001:00085d70       _DllMain@12                10086d70 f   LIBCMTD:dllmain.obj
 0001:00085d80       ___crtGetEnvironmentStringsA 10086d80 f   LIBCMTD:a_env.obj
 0001:00085e80       __RTC_Initialize           10086e80 f   LIBCMTD:initsect.obj
 0001:00085eb0       __RTC_Terminate            10086eb0 f   LIBCMTD:initsect.obj
 0001:00085ee0       __FindPESection            10086ee0 f   LIBCMTD:pesect.obj
 0001:00085f60       __IsNonwritableInCurrentImage 10086f60 f   LIBCMTD:pesect.obj
 0001:00086090       __ValidateImageBase        10087090 f   LIBCMTD:pesect.obj
 0001:000860f0       __initp_misc_rand_s        100870f0 f   LIBCMTD:rand_s.obj
 0001:00086100       _rand_s                    10087100 f   LIBCMTD:rand_s.obj
 0001:00086370       __output_p_l               10087370 f   LIBCMTD:outputp.obj
 0001:0008a160       __validate_param_reuseA    1008b160 f   LIBCMTD:outputp.obj
 0001:0008a450       _get_crtdouble_arg         1008b450 f i LIBCMTD:outputp.obj
 0001:0008a610       ?_ValidateExecute@@YAHP6GHXZ@Z 1008b610 f   LIBCMTD:validate.obj
 0001:0008a630       ?_ValidateRead@@YAHPBXI@Z  1008b630 f   LIBCMTD:validate.obj
 0001:0008a650       ?_ValidateWrite@@YAHPAXI@Z 1008b650 f   LIBCMTD:validate.obj
 0001:0008a670       ___init_dummy              1008b670 f   LIBCMTD:wsetloca.obj
 0001:0008a680       __locterm                  1008b680 f   LIBCMTD:wsetloca.obj
 0001:0008a710       ____setlc_active_func      1008b710 f   LIBCMTD:wsetloca.obj
 0001:0008a720       ____unguarded_readlc_active_add_func 1008b720 f   LIBCMTD:wsetloca.obj
 0001:0008a730       ___copy_locale_name        1008b730 f   LIBCMTD:wsetloca.obj
 0001:0008a7d0       ___create_locale           1008b7d0 f   LIBCMTD:wsetloca.obj
 0001:0008a7f0       ___free_locale             1008b7f0 f   LIBCMTD:wsetloca.obj
 0001:0008a810       ___get_current_locale      1008b810 f   LIBCMTD:wsetloca.obj
 0001:0008a820       ___lc_lctowcs              1008b820 f   LIBCMTD:wsetloca.obj
 0001:0008a8d0       ___lc_wcstolc              1008b8d0 f   LIBCMTD:wsetloca.obj
 0001:0008aaf0       __configthreadlocale       1008baf0 f   LIBCMTD:wsetloca.obj
 0001:0008ac50       __create_locale            1008bc50 f   LIBCMTD:wsetloca.obj
 0001:0008acc0       __expandlocale             1008bcc0 f   LIBCMTD:wsetloca.obj
 0001:0008b1b0       __free_locale              1008c1b0 f   LIBCMTD:wsetloca.obj
 0001:0008b2e0       __get_current_locale       1008c2e0 f   LIBCMTD:wsetloca.obj
 0001:0008b400       __wcreate_locale           1008c400 f   LIBCMTD:wsetloca.obj
 0001:0008b5e0       __wcscats                  1008c5e0 f   LIBCMTD:wsetloca.obj
 0001:0008b660       __wsetlocale               1008c660 f   LIBCMTD:wsetloca.obj
 0001:0008c800       ___crtGetStringTypeA       1008d800 f   LIBCMTD:a_str.obj
 0001:0008c850       __mbstowcs_l               1008d850 f   LIBCMTD:mbstowcs.obj
 0001:0008c870       __mbstowcs_l_helper        1008d870 f   LIBCMTD:mbstowcs.obj
 0001:0008cc00       __mbstowcs_s_l             1008dc00 f   LIBCMTD:mbstowcs.obj
 0001:0008cfc0       _mbstowcs                  1008dfc0 f   LIBCMTD:mbstowcs.obj
 0001:0008d010       _mbstowcs_s                1008e010 f   LIBCMTD:mbstowcs.obj
 0001:0008d0a0       __wcstombs_l               1008e0a0 f   LIBCMTD:wcstombs.obj
 0001:0008d0c0       __wcstombs_l_helper        1008e0c0 f   LIBCMTD:wcstombs.obj
 0001:0008d5d0       __wcstombs_s_l             1008e5d0 f   LIBCMTD:wcstombs.obj
 0001:0008d930       _wcstombs                  1008e930 f   LIBCMTD:wcstombs.obj
 0001:0008d950       _wcstombs_s                1008e950 f   LIBCMTD:wcstombs.obj
 0001:0008d980       __ftell_nolock             1008e980 f   LIBCMTD:ftell.obj
 0001:0008e040       _ftell                     1008f040 f   LIBCMTD:ftell.obj
 0001:0008e140       __lseek                    1008f140 f   LIBCMTD:lseek.obj
 0001:0008e390       __lseek_nolock             1008f390 f   LIBCMTD:lseek.obj
 0001:0008e470       __wopenfile                1008f470 f   LIBCMTD:_wopen.obj
 0001:0008ec70       __wcsicmp                  1008fc70 f   LIBCMTD:wcsicmp.obj
 0001:0008ee40       __wcsicmp_l                1008fe40 f   LIBCMTD:wcsicmp.obj
 0001:0008f0b0       ___tzset                   100900b0 f   LIBCMTD:tzset.obj
 0001:0008f140       __isindst                  10090140 f   LIBCMTD:tzset.obj
 0001:0008f510       __set_daylight             10090510 f i LIBCMTD:tzset.obj
 0001:0008f520       __set_dstbias              10090520 f i LIBCMTD:tzset.obj
 0001:0008f530       __set_timezone             10090530 f i LIBCMTD:tzset.obj
 0001:0008f540       __tzset                    10090540 f   LIBCMTD:tzset.obj
 0001:0008fe40       ___daylight                10090e40 f   LIBCMTD:timeset.obj
 0001:0008fe50       ___dstbias                 10090e50 f   LIBCMTD:timeset.obj
 0001:0008fe60       ___timezone                10090e60 f   LIBCMTD:timeset.obj
 0001:0008fe70       ___tzname                  10090e70 f   LIBCMTD:timeset.obj
 0001:0008fe80       __get_daylight             10090e80 f   LIBCMTD:timeset.obj
 0001:0008ff10       __get_dstbias              10090f10 f   LIBCMTD:timeset.obj
 0001:0008ffa0       __get_timezone             10090fa0 f   LIBCMTD:timeset.obj
 0001:00090030       __get_tzname               10091030 f   LIBCMTD:timeset.obj
 0001:00090230       ___iswcsym                 10091230 f i LIBCMTD:_wctype.obj
 0001:00090270       ___iswcsymf                10091270 f i LIBCMTD:_wctype.obj
 0001:000902b0       __isleadbyte_l             100912b0 f i LIBCMTD:_wctype.obj
 0001:00090300       __iswalnum_l               10091300 f i LIBCMTD:_wctype.obj
 0001:00090320       __iswalpha_l               10091320 f i LIBCMTD:_wctype.obj
 0001:00090340       __iswcntrl_l               10091340 f i LIBCMTD:_wctype.obj
 0001:00090360       __iswcsym_l                10091360 f i LIBCMTD:_wctype.obj
 0001:000903a0       __iswcsymf_l               100913a0 f i LIBCMTD:_wctype.obj
 0001:000903e0       __iswdigit_l               100913e0 f i LIBCMTD:_wctype.obj
 0001:00090400       __iswgraph_l               10091400 f i LIBCMTD:_wctype.obj
 0001:00090420       __iswlower_l               10091420 f i LIBCMTD:_wctype.obj
 0001:00090440       __iswprint_l               10091440 f i LIBCMTD:_wctype.obj
 0001:00090460       __iswpunct_l               10091460 f i LIBCMTD:_wctype.obj
 0001:00090480       __iswspace_l               10091480 f i LIBCMTD:_wctype.obj
 0001:000904a0       __iswupper_l               100914a0 f i LIBCMTD:_wctype.obj
 0001:000904c0       __iswxdigit_l              100914c0 f i LIBCMTD:_wctype.obj
 0001:000904e0       _isleadbyte                100914e0 f i LIBCMTD:_wctype.obj
 0001:00090500       _iswalnum                  10091500 f i LIBCMTD:_wctype.obj
 0001:00090520       _iswalpha                  10091520 f i LIBCMTD:_wctype.obj
 0001:00090540       _iswascii                  10091540 f i LIBCMTD:_wctype.obj
 0001:00090570       _iswcntrl                  10091570 f i LIBCMTD:_wctype.obj
 0001:00090590       _iswdigit                  10091590 f i LIBCMTD:_wctype.obj
 0001:000905b0       _iswgraph                  100915b0 f i LIBCMTD:_wctype.obj
 0001:000905d0       _iswlower                  100915d0 f i LIBCMTD:_wctype.obj
 0001:000905f0       _iswprint                  100915f0 f i LIBCMTD:_wctype.obj
 0001:00090610       _iswpunct                  10091610 f i LIBCMTD:_wctype.obj
 0001:00090630       _iswspace                  10091630 f i LIBCMTD:_wctype.obj
 0001:00090650       _iswupper                  10091650 f i LIBCMTD:_wctype.obj
 0001:00090670       _iswxdigit                 10091670 f i LIBCMTD:_wctype.obj
 0001:00090690       _wcsnlen                   10091690 f   LIBCMTD:wcslen_s.obj
 0001:000906d0       _wcscat_s                  100916d0 f   LIBCMTD:wcscat_s.obj
 0001:00090ae0       _wcsncpy_s                 10091ae0 f   LIBCMTD:wcsncpy_s.obj
 0001:00090f10       ___set_app_type            10091f10 f   LIBCMTD:errmode.obj
 0001:00090f20       __set_error_mode           10091f20 f   LIBCMTD:errmode.obj
 0001:00090fe0       _strncpy_s                 10091fe0 f   LIBCMTD:strncpy_s.obj
 0001:00091510       ___crtGetLocaleInfoA       10092510 f   LIBCMTD:a_loc.obj
 0001:00091560       ___lock_fhandle            10092560 f   LIBCMTD:osfinfo.obj
 0001:00091650       __alloc_osfhnd             10092650 f   LIBCMTD:osfinfo.obj
 0001:000918f0       __free_osfhnd              100928f0 f   LIBCMTD:osfinfo.obj
 0001:000919e0       __get_osfhandle            100929e0 f   LIBCMTD:osfinfo.obj
 0001:00091b60       __open_osfhandle           10092b60 f   LIBCMTD:osfinfo.obj
 0001:00091d90       __set_osfhnd               10092d90 f   LIBCMTD:osfinfo.obj
 0001:00091e60       __unlock_fhandle           10092e60 f   LIBCMTD:osfinfo.obj
 0001:00091e90       __isatty                   10092e90 f   LIBCMTD:isatty.obj
 0001:00091f50       __mbtowc_l                 10092f50 f   LIBCMTD:mbtowc.obj
 0001:00092190       _mbtowc                    10093190 f   LIBCMTD:mbtowc.obj
 0001:000921b0       __putwch                   100931b0 f   LIBCMTD:putwch.obj
 0001:00092240       __putwch_nolock            10093240 f   LIBCMTD:putwch.obj
 0001:00092290       __read                     10093290 f   LIBCMTD:read.obj
 0001:00092560       __read_nolock              10093560 f   LIBCMTD:read.obj
 0001:000937a0       __output_s_l               100947a0 f   LIBCMTD:outputs.obj
 0001:00095140       __wctomb_l                 10096140 f   LIBCMTD:wctomb.obj
 0001:000951c0       __wctomb_s_l               100961c0 f   LIBCMTD:wctomb.obj
 0001:00095510       _wctomb                    10096510 f   LIBCMTD:wctomb.obj
 0001:00095560       _wctomb_s                  10096560 f   LIBCMTD:wctomb.obj
 0001:00095580       __aullrem                  10096580 f   LIBCMTD:ullrem.obj
 0001:00095600       __87except                 10096600 f   LIBCMTD:87except.obj
 0001:00095800       __matherr                  10096800 f   LIBCMTD:matherr.obj
 0001:00095810       __frnd                     10096810 f   LIBCMTD:frnd.obj
 0001:00095830       ___vswprintf_l             10096830 f   LIBCMTD:vswprint.obj
 0001:00095850       __vscwprintf               10096850 f   LIBCMTD:vswprint.obj
 0001:00095870       __vscwprintf_helper        10096870 f   LIBCMTD:vswprint.obj
 0001:00095960       __vscwprintf_l             10096960 f   LIBCMTD:vswprint.obj
 0001:00095980       __vscwprintf_p             10096980 f   LIBCMTD:vswprint.obj
 0001:000959a0       __vscwprintf_p_l           100969a0 f   LIBCMTD:vswprint.obj
 0001:000959c0       __vswprintf                100969c0 f   LIBCMTD:vswprint.obj
 0001:000959e0       __vswprintf_l              100969e0 f   LIBCMTD:vswprint.obj
 0001:00095c00       __vsnwprintf_s             10096c00 f   LIBCMTD:vswprnc.obj
 0001:00095c30       __vsnwprintf_s_l           10096c30 f   LIBCMTD:vswprnc.obj
 0001:00096010       __vswprintf_c              10097010 f   LIBCMTD:vswprnc.obj
 0001:00096060       __vswprintf_c_l            10097060 f   LIBCMTD:vswprnc.obj
 0001:000960b0       __vswprintf_helper         100970b0 f   LIBCMTD:vswprnc.obj
 0001:00096320       __vswprintf_p              10097320 f   LIBCMTD:vswprnc.obj
 0001:00096370       __vswprintf_p_l            10097370 f   LIBCMTD:vswprnc.obj
 0001:000963c0       __vswprintf_s_l            100973c0 f   LIBCMTD:vswprnc.obj
 0001:00096650       _vswprintf_s               10097650 f   LIBCMTD:vswprnc.obj
 0001:00096670       __woutput_l                10097670 f   LIBCMTD:woutput.obj
 0001:00097c50       _strcat_s                  10098c50 f   LIBCMTD:strcat_s.obj
 0001:00098480       __i64toa_s                 10099480 f   LIBCMTD:xtoas.obj
 0001:000984d0       __itoa_s                   100994d0 f   LIBCMTD:xtoas.obj
 0001:00098530       __ltoa_s                   10099530 f   LIBCMTD:xtoas.obj
 0001:00098570       __ui64toa_s                10099570 f   LIBCMTD:xtoas.obj
 0001:00098590       __ultoa_s                  10099590 f   LIBCMTD:xtoas.obj
 0001:00098dd0       __i64tow_s                 10099dd0 f   LIBCMTD:xtows.obj
 0001:00098e20       __itow_s                   10099e20 f   LIBCMTD:xtows.obj
 0001:00098e80       __ltow_s                   10099e80 f   LIBCMTD:xtows.obj
 0001:00098ec0       __ui64tow_s                10099ec0 f   LIBCMTD:xtows.obj
 0001:00098ee0       __ultow_s                  10099ee0 f   LIBCMTD:xtows.obj
 0001:00099300       ___free_lconv_mon          1009a300 f   LIBCMTD:initmon.obj
 0001:000994b0       ___init_monetary           1009a4b0 f   LIBCMTD:initmon.obj
 0001:00099ac0       ___free_lconv_num          1009aac0 f   LIBCMTD:initnum.obj
 0001:00099b70       ___init_numeric            1009ab70 f   LIBCMTD:initnum.obj
 0001:00099f40       ___free_lc_time            1009af40 f   LIBCMTD:inittime.obj
 0001:0009a870       ___init_time               1009b870 f   LIBCMTD:inittime.obj
 0001:0009bca0       ?_RTC_GetSrcLine@@YAHPAEPA_WKPAH1K@Z 1009cca0 f   LIBCMTD:pdblkup.obj
 0001:0009bf50       __global_unwind2           1009cf50 f   LIBCMTD:exsup.obj
 0001:0009bfb5       __local_unwind2            1009cfb5 f   LIBCMTD:exsup.obj
 0001:0009c039       __abnormal_termination     1009d039 f   LIBCMTD:exsup.obj
 0001:0009c05c       __NLG_Notify1              1009d05c f   LIBCMTD:exsup.obj
 0001:0009c065       __NLG_Notify               1009d065 f   LIBCMTD:exsup.obj
 0001:0009c07c       __NLG_Dispatch             1009d07c     LIBCMTD:exsup.obj
 0001:0009c07c       __NLG_Dispatch2            1009d07c     LIBCMTD:exsup.obj
 0001:0009c084       __NLG_Call                 1009d084 f   LIBCMTD:exsup.obj
 0001:0009c086       __NLG_Return2              1009d086     LIBCMTD:exsup.obj
 0001:0009c090       ??0Block@_HeapManager@@QAE@XZ 1009d090 f i LIBCMTD:undname.obj
 0001:0009c0b0       ??0DName@@QAE@AAPBDD@Z     1009d0b0 f   LIBCMTD:undname.obj
 0001:0009c370       ??0DName@@QAE@ABV0@@Z      1009d370 f i LIBCMTD:undname.obj
 0001:0009c390       ??0DName@@QAE@D@Z          1009d390 f   LIBCMTD:undname.obj
 0001:0009c470       ??0DName@@QAE@PAV0@@Z      1009d470 f   LIBCMTD:undname.obj
 0001:0009c5b0       ??0DName@@QAE@PBD@Z        1009d5b0 f   LIBCMTD:undname.obj
 0001:0009c6a0       ??0DName@@QAE@W4DNameStatus@@@Z 1009d6a0 f   LIBCMTD:undname.obj
 0001:0009c7c0       ??0DName@@QAE@XZ           1009d7c0 f i LIBCMTD:undname.obj
 0001:0009c880       ??0DName@@QAE@_J@Z         1009d880 f   LIBCMTD:undname.obj
 0001:0009ca00       ??0DName@@QAE@_K@Z         1009da00 f   LIBCMTD:undname.obj
 0001:0009cb40       ??0DNameNode@@IAE@XZ       1009db40 f   LIBCMTD:undname.obj
 0001:0009cb60       ??0DNameStatusNode@@AAE@W4DNameStatus@@@Z 1009db60 f   LIBCMTD:undname.obj
 0001:0009cbb0       ??0Replicator@@QAE@XZ      1009dbb0 f i LIBCMTD:undname.obj
 0001:0009cbd0       ??0UnDecorator@@QAE@PADPBDHP6APADJ@ZK@Z 1009dbd0 f i LIBCMTD:undname.obj
 0001:0009cc70       ??0charNode@@QAE@D@Z       1009dc70 f   LIBCMTD:undname.obj
 0001:0009cca0       ??0pDNameNode@@QAE@PAVDName@@@Z 1009dca0 f   LIBCMTD:undname.obj
 0001:0009cd00       ??0pairNode@@QAE@PAVDNameNode@@0@Z 1009dd00 f   LIBCMTD:undname.obj
 0001:0009cd40       ??0pcharNode@@QAE@PBDH@Z   1009dd40 f   LIBCMTD:undname.obj
 0001:0009cde0       ??2@YAPAXIAAV_HeapManager@@H@Z 1009dde0 f i LIBCMTD:undname.obj
 0001:0009ce00       ??4DName@@QAEAAV0@ABV0@@Z  1009de00 f   LIBCMTD:undname.obj
 0001:0009ce20       ??4DName@@QAEAAV0@D@Z      1009de20 f i LIBCMTD:undname.obj
 0001:0009cf00       ??4DName@@QAEAAV0@PAV0@@Z  1009df00 f   LIBCMTD:undname.obj
 0001:0009d030       ??4DName@@QAEAAV0@PBD@Z    1009e030 f   LIBCMTD:undname.obj
 0001:0009d110       ??4DName@@QAEAAV0@W4DNameStatus@@@Z 1009e110 f   LIBCMTD:undname.obj
 0001:0009d210       ??AReplicator@@QBE?AVDName@@H@Z 1009e210 f   LIBCMTD:undname.obj
 0001:0009d280       ??BUnDecorator@@QAEPADXZ   1009e280 f i LIBCMTD:undname.obj
 0001:0009d510       ??H@YA?AVDName@@DABV0@@Z   1009e510 f i LIBCMTD:undname.obj
 0001:0009d540       ??H@YA?AVDName@@PBDABV0@@Z 1009e540 f i LIBCMTD:undname.obj
 0001:0009d570       ??H@YA?AVDName@@W4DNameStatus@@ABV0@@Z 1009e570 f i LIBCMTD:undname.obj
 0001:0009d5a0       ??HDName@@QBE?AV0@ABV0@@Z  1009e5a0 f   LIBCMTD:undname.obj
 0001:0009d5e0       ??HDName@@QBE?AV0@D@Z      1009e5e0 f   LIBCMTD:undname.obj
 0001:0009d620       ??HDName@@QBE?AV0@PAV0@@Z  1009e620 f   LIBCMTD:undname.obj
 0001:0009d660       ??HDName@@QBE?AV0@PBD@Z    1009e660 f   LIBCMTD:undname.obj
 0001:0009d6a0       ??HDName@@QBE?AV0@W4DNameStatus@@@Z 1009e6a0 f   LIBCMTD:undname.obj
 0001:0009d6e0       ??YDName@@QAEAAV0@ABV0@@Z  1009e6e0 f   LIBCMTD:undname.obj
 0001:0009d750       ??YDName@@QAEAAV0@D@Z      1009e750 f   LIBCMTD:undname.obj
 0001:0009d7d0       ??YDName@@QAEAAV0@PAV0@@Z  1009e7d0 f   LIBCMTD:undname.obj
 0001:0009d880       ??YDName@@QAEAAV0@PBD@Z    1009e880 f   LIBCMTD:undname.obj
 0001:0009d920       ??YDName@@QAEAAV0@W4DNameStatus@@@Z 1009e920 f   LIBCMTD:undname.obj
 0001:0009d980       ??YReplicator@@QAEAAV0@ABVDName@@@Z 1009e980 f   LIBCMTD:undname.obj
 0001:0009da10       ??_5DName@@QAEAAV0@ABV0@@Z 1009ea10 f   LIBCMTD:undname.obj
 0001:0009da70       ?Constructor@_HeapManager@@QAEXP6APAXI@ZP6AXPAX@Z@Z 1009ea70 f i LIBCMTD:undname.obj
 0001:0009dab0       ?Destructor@_HeapManager@@QAEXXZ 1009eab0 f i LIBCMTD:undname.obj
 0001:0009db00       ?UScore@UnDecorator@@SAPBDW4Tokens@@@Z 1009eb00 f   LIBCMTD:undname.obj
 0001:0009db30       ?append@DName@@AAEXPAVDNameNode@@@Z 1009eb30 f   LIBCMTD:undname.obj
 0001:0009dbc0       ?composeDeclaration@UnDecorator@@CA?AVDName@@ABV2@@Z 1009ebc0 f i LIBCMTD:undname.obj
 0001:0009f840       ?dbGetString@DName@@QBEPADXZ 100a0840 f   LIBCMTD:undname.obj
 0001:0009f860       ?doAccessSpecifiers@UnDecorator@@SAHXZ 100a0860 f i LIBCMTD:undname.obj
 0001:0009f890       ?doAllocationLanguage@UnDecorator@@SAHXZ 100a0890 f i LIBCMTD:undname.obj
 0001:0009f8c0       ?doAllocationModel@UnDecorator@@SAHXZ 100a08c0 f i LIBCMTD:undname.obj
 0001:0009f8f0       ?doEcsu@UnDecorator@@SAHXZ 100a08f0 f i LIBCMTD:undname.obj
 0001:0009f920       ?doEllipsis@UnDecorator@@SAHXZ 100a0920 f i LIBCMTD:undname.obj
 0001:0009f950       ?doFunctionReturns@UnDecorator@@SAHXZ 100a0950 f i LIBCMTD:undname.obj
 0001:0009f980       ?doMSKeywords@UnDecorator@@SAHXZ 100a0980 f i LIBCMTD:undname.obj
 0001:0009f9b0       ?doMemberTypes@UnDecorator@@SAHXZ 100a09b0 f i LIBCMTD:undname.obj
 0001:0009f9e0       ?doNameOnly@UnDecorator@@SAHXZ 100a09e0 f i LIBCMTD:undname.obj
 0001:0009f9f0       ?doNoIdentCharCheck@UnDecorator@@SAHXZ 100a09f0 f i LIBCMTD:undname.obj
 0001:0009fa00       ?doPchar@DName@@AAEXPBDH@Z 100a0a00 f   LIBCMTD:undname.obj
 0001:0009fb40       ?doPtr64@UnDecorator@@SAHXZ 100a0b40 f i LIBCMTD:undname.obj
 0001:0009fb70       ?doRestrictionSpec@UnDecorator@@SAHXZ 100a0b70 f i LIBCMTD:undname.obj
 0001:0009fba0       ?doThisTypes@UnDecorator@@SAHXZ 100a0ba0 f i LIBCMTD:undname.obj
 0001:0009fbd0       ?doThrowTypes@UnDecorator@@SAHXZ 100a0bd0 f i LIBCMTD:undname.obj
 0001:0009fc00       ?doTypeOnly@UnDecorator@@SAHXZ 100a0c00 f i LIBCMTD:undname.obj
 0001:0009fc10       ?doUnderScore@UnDecorator@@SAHXZ 100a0c10 f i LIBCMTD:undname.obj
 0001:0009fc40       ?getArgumentList@UnDecorator@@CA?AVDName@@XZ 100a0c40 f   LIBCMTD:undname.obj
 0001:0009fd90       ?getArgumentTypes@UnDecorator@@CA?AVDName@@XZ 100a0d90 f   LIBCMTD:undname.obj
 0001:0009fef0       ?getArrayType@UnDecorator@@CA?AVDName@@ABV2@@Z 100a0ef0 f i LIBCMTD:undname.obj
 0001:000a0130       ?getBasedType@UnDecorator@@CA?AVDName@@XZ 100a1130 f   LIBCMTD:undname.obj
 0001:000a01f0       ?getBasicDataType@UnDecorator@@CA?AVDName@@ABV2@@Z 100a11f0 f   LIBCMTD:undname.obj
 0001:000a07b0       ?getCallIndex@UnDecorator@@CA?AVDName@@XZ 100a17b0 f i LIBCMTD:undname.obj
 0001:000a07d0       ?getCallingConvention@UnDecorator@@CA?AVDName@@XZ 100a17d0 f   LIBCMTD:undname.obj
 0001:000a0940       ?getDataIndirectType@UnDecorator@@CA?AVDName@@ABV2@PBD0H@Z 100a1940 f   LIBCMTD:undname.obj
 0001:000a1050       ?getDataIndirectType@UnDecorator@@CA?AVDName@@XZ 100a2050 f i LIBCMTD:undname.obj
 0001:000a1090       ?getDataType@UnDecorator@@CA?AVDName@@PAV2@@Z 100a2090 f   LIBCMTD:undname.obj
 0001:000a11b0       ?getDecoratedName@UnDecorator@@CA?AVDName@@XZ 100a21b0 f   LIBCMTD:undname.obj
 0001:000a14e0       ?getDimension@UnDecorator@@CA?AVDName@@_N@Z 100a24e0 f   LIBCMTD:undname.obj
 0001:000a1790       ?getDispatchTarget@UnDecorator@@CA?AVDName@@XZ 100a2790 f   LIBCMTD:undname.obj
 0001:000a1830       ?getDisplacement@UnDecorator@@CA?AVDName@@XZ 100a2830 f i LIBCMTD:undname.obj
 0001:000a1850       ?getECSUDataType@UnDecorator@@CA?AVDName@@XZ 100a2850 f   LIBCMTD:undname.obj
 0001:000a1a20       ?getECSUName@UnDecorator@@CA?AVDName@@XZ 100a2a20 f i LIBCMTD:undname.obj
 0001:000a1a40       ?getEnumType@UnDecorator@@CA?AVDName@@XZ 100a2a40 f i LIBCMTD:undname.obj
 0001:000a1b90       ?getExtendedDataIndirectType@UnDecorator@@CA?AVDName@@AAPBDAA_NH@Z 100a2b90 f   LIBCMTD:undname.obj
 0001:000a1de0       ?getExternalDataType@UnDecorator@@CA?AVDName@@ABV2@@Z 100a2de0 f i LIBCMTD:undname.obj
 0001:000a1e70       ?getFunctionIndirectType@UnDecorator@@CA?AVDName@@ABV2@@Z 100a2e70 f   LIBCMTD:undname.obj
 0001:000a22e0       ?getGuardNumber@UnDecorator@@CA?AVDName@@XZ 100a32e0 f i LIBCMTD:undname.obj
 0001:000a2300       ?getLastChar@DName@@QBEDXZ 100a3300 f i LIBCMTD:undname.obj
 0001:000a2330       ?getLastChar@DNameStatusNode@@UBEDXZ 100a3330 f i LIBCMTD:undname.obj
 0001:000a2360       ?getLastChar@charNode@@UBEDXZ 100a3360 f i LIBCMTD:undname.obj
 0001:000a2380       ?getLastChar@pDNameNode@@UBEDXZ 100a3380 f i LIBCMTD:undname.obj
 0001:000a23b0       ?getLastChar@pairNode@@UBEDXZ 100a33b0 f i LIBCMTD:undname.obj
 0001:000a2400       ?getLastChar@pcharNode@@UBEDXZ 100a3400 f i LIBCMTD:undname.obj
 0001:000a2440       ?getLexicalFrame@UnDecorator@@CA?AVDName@@XZ 100a3440 f i LIBCMTD:undname.obj
 0001:000a2480       ?getMemory@_HeapManager@@QAEPAXIH@Z 100a3480 f   LIBCMTD:undname.obj
 0001:000a2590       ?getNumberOfDimensions@UnDecorator@@CAHXZ 100a3590 f   LIBCMTD:undname.obj
 0001:000a2690       ?getOperatorName@UnDecorator@@CA?AVDName@@_NPA_N@Z 100a3690 f i LIBCMTD:undname.obj
 0001:000a3020       ?getPointerType@UnDecorator@@CA?AVDName@@ABV2@0@Z 100a4020 f i LIBCMTD:undname.obj
 0001:000a3050       ?getPointerTypeArray@UnDecorator@@CA?AVDName@@ABV2@0@Z 100a4050 f i LIBCMTD:undname.obj
 0001:000a3080       ?getPrimaryDataType@UnDecorator@@CA?AVDName@@ABV2@@Z 100a4080 f   LIBCMTD:undname.obj
 0001:000a3420       ?getPtrRefDataType@UnDecorator@@CA?AVDName@@ABV2@H@Z 100a4420 f i LIBCMTD:undname.obj
 0001:000a3560       ?getPtrRefType@UnDecorator@@CA?AVDName@@ABV2@0PBD@Z 100a4560 f   LIBCMTD:undname.obj
 0001:000a36d0       ?getReferenceType@UnDecorator@@CA?AVDName@@ABV2@0PBD@Z 100a46d0 f i LIBCMTD:undname.obj
 0001:000a36f0       ?getRestrictionSpec@UnDecorator@@CA?AVDName@@XZ 100a46f0 f   LIBCMTD:undname.obj
 0001:000a3840       ?getReturnType@UnDecorator@@CA?AVDName@@PAV2@@Z 100a4840 f   LIBCMTD:undname.obj
 0001:000a3890       ?getScope@UnDecorator@@CA?AVDName@@XZ 100a4890 f   LIBCMTD:undname.obj
 0001:000a3d80       ?getScopedName@UnDecorator@@CA?AVDName@@XZ 100a4d80 f   LIBCMTD:undname.obj
 0001:000a3ea0       ?getSignedDimension@UnDecorator@@CA?AVDName@@XZ 100a4ea0 f   LIBCMTD:undname.obj
 0001:000a3f20       ?getStorageConvention@UnDecorator@@CA?AVDName@@XZ 100a4f20 f i LIBCMTD:undname.obj
 0001:000a3f40       ?getString@DName@@QBEPADPAD0@Z 100a4f40 f i LIBCMTD:undname.obj
 0001:000a3f80       ?getString@DName@@QBEPADPADH@Z 100a4f80 f i LIBCMTD:undname.obj
 0001:000a4010       ?getString@DNameStatusNode@@UBEPADPAD0@Z 100a5010 f i LIBCMTD:undname.obj
 0001:000a4050       ?getString@charNode@@UBEPADPAD0@Z 100a5050 f i LIBCMTD:undname.obj
 0001:000a4080       ?getString@pDNameNode@@UBEPADPAD0@Z 100a5080 f i LIBCMTD:undname.obj
 0001:000a40c0       ?getString@pairNode@@UBEPADPAD0@Z 100a50c0 f i LIBCMTD:undname.obj
 0001:000a4120       ?getString@pcharNode@@UBEPADPAD0@Z 100a5120 f i LIBCMTD:undname.obj
 0001:000a4150       ?getStringEncoding@UnDecorator@@CA?AVDName@@PADH@Z 100a5150 f   LIBCMTD:undname.obj
 0001:000a4260       ?getStringHelper@@YAPADPAD00H@Z 100a5260 f i LIBCMTD:undname.obj
 0001:000a42a0       ?getSymbolName@UnDecorator@@CA?AVDName@@XZ 100a52a0 f i LIBCMTD:undname.obj
 0001:000a4330       ?getTemplateArgumentList@UnDecorator@@CA?AVDName@@XZ 100a5330 f   LIBCMTD:undname.obj
 0001:000a45b0       ?getTemplateConstant@UnDecorator@@CA?AVDName@@XZ 100a55b0 f   LIBCMTD:undname.obj
 0001:000a4a80       ?getTemplateName@UnDecorator@@CA?AVDName@@_N@Z 100a5a80 f   LIBCMTD:undname.obj
 0001:000a4c50       ?getThisType@UnDecorator@@CA?AVDName@@XZ 100a5c50 f i LIBCMTD:undname.obj
 0001:000a4c90       ?getThrowTypes@UnDecorator@@CA?AVDName@@XZ 100a5c90 f   LIBCMTD:undname.obj
 0001:000a4d40       ?getTypeEncoding@UnDecorator@@CAHXZ 100a5d40 f i LIBCMTD:undname.obj
 0001:000a5780       ?getVCallThunkType@UnDecorator@@CA?AVDName@@XZ 100a6780 f i LIBCMTD:undname.obj
 0001:000a57e0       ?getVbTableType@UnDecorator@@CA?AVDName@@ABV2@@Z 100a67e0 f i LIBCMTD:undname.obj
 0001:000a5800       ?getVdispMapType@UnDecorator@@CA?AVDName@@ABV2@@Z 100a6800 f i LIBCMTD:undname.obj
 0001:000a5870       ?getVfTableType@UnDecorator@@CA?AVDName@@ABV2@@Z 100a6870 f i LIBCMTD:undname.obj
 0001:000a5a30       ?getZName@UnDecorator@@CA?AVDName@@_N0@Z 100a6a30 f   LIBCMTD:undname.obj
 0001:000a5ce0       ?haveTemplateParameters@UnDecorator@@SAHXZ 100a6ce0 f i LIBCMTD:undname.obj
 0001:000a5cf0       ?isArray@DName@@QBEHXZ     100a6cf0 f i LIBCMTD:undname.obj
 0001:000a5d10       ?isComArray@DName@@QBEHXZ  100a6d10 f i LIBCMTD:undname.obj
 0001:000a5d30       ?isEmpty@DName@@QBEHXZ     100a6d30 f i LIBCMTD:undname.obj
 0001:000a5d60       ?isFull@Replicator@@QBEHXZ 100a6d60 f i LIBCMTD:undname.obj
 0001:000a5d90       ?isNoTE@DName@@QBEHXZ      100a6d90 f i LIBCMTD:undname.obj
 0001:000a5db0       ?isPinPtr@DName@@QBEHXZ    100a6db0 f i LIBCMTD:undname.obj
 0001:000a5dd0       ?isPtrRef@DName@@QBEHXZ    100a6dd0 f i LIBCMTD:undname.obj
 0001:000a5df0       ?isUDC@DName@@QBEHXZ       100a6df0 f i LIBCMTD:undname.obj
 0001:000a5e30       ?isUDTThunk@DName@@QBEHXZ  100a6e30 f i LIBCMTD:undname.obj
 0001:000a5e70       ?isVCallThunk@DName@@QBEHXZ 100a6e70 f i LIBCMTD:undname.obj
 0001:000a5e90       ?isValid@DName@@QBEHXZ     100a6e90 f i LIBCMTD:undname.obj
 0001:000a5ed0       ?length@DName@@QBEHXZ      100a6ed0 f i LIBCMTD:undname.obj
 0001:000a5f00       ?length@DNameStatusNode@@UBEHXZ 100a6f00 f i LIBCMTD:undname.obj
 0001:000a5f20       ?length@charNode@@UBEHXZ   100a6f20 f i LIBCMTD:undname.obj
 0001:000a5f30       ?length@pDNameNode@@UBEHXZ 100a6f30 f i LIBCMTD:undname.obj
 0001:000a5f60       ?length@pairNode@@UBEHXZ   100a6f60 f i LIBCMTD:undname.obj
 0001:000a5fb0       ?length@pcharNode@@UBEHXZ  100a6fb0 f i LIBCMTD:undname.obj
 0001:000a5fd0       ?make@DNameStatusNode@@SAPAV1@W4DNameStatus@@@Z 100a6fd0 f i LIBCMTD:undname.obj
 0001:000a6080       ?setIsArray@DName@@QAEXXZ  100a7080 f i LIBCMTD:undname.obj
 0001:000a60a0       ?setIsComArray@DName@@QAEXXZ 100a70a0 f i LIBCMTD:undname.obj
 0001:000a60c0       ?setIsNoTE@DName@@QAEXXZ   100a70c0 f i LIBCMTD:undname.obj
 0001:000a60e0       ?setIsPinPtr@DName@@QAEXXZ 100a70e0 f i LIBCMTD:undname.obj
 0001:000a6100       ?setIsUDC@DName@@QAEXXZ    100a7100 f i LIBCMTD:undname.obj
 0001:000a6130       ?setIsVCallThunk@DName@@QAEXXZ 100a7130 f i LIBCMTD:undname.obj
 0001:000a6150       ?setPtrRef@DName@@QAEAAV1@XZ 100a7150 f i LIBCMTD:undname.obj
 0001:000a6170       ?status@DName@@QBE?AW4DNameStatus@@XZ 100a7170 f i LIBCMTD:undname.obj
 0001:000a6270       ___unDName                 100a7270 f   LIBCMTD:undname.obj
 0001:000a6340       ___unDNameEx               100a7340 f   LIBCMTD:undname.obj
 0001:000a6420       __fptostr                  100a7420 f   LIBCMTD:_fptostr.obj
 0001:000a6740       __atodbl                   100a7740 f   LIBCMTD:atodbl.obj
 0001:000a6760       __atodbl_l                 100a7760 f   LIBCMTD:atodbl.obj
 0001:000a6860       __atoflt                   100a7860 f   LIBCMTD:atodbl.obj
 0001:000a6880       __atoflt_l                 100a7880 f   LIBCMTD:atodbl.obj
 0001:000a6980       __atoldbl                  100a7980 f   LIBCMTD:atodbl.obj
 0001:000a69a0       __atoldbl_l                100a79a0 f   LIBCMTD:atodbl.obj
 0001:000a6aa0       ___dtold                   100a7aa0 f   LIBCMTD:cfout.obj
 0001:000a6c00       __fltout2                  100a7c00 f   LIBCMTD:cfout.obj
 0001:000a6cb0       __alldiv                   100a7cb0 f   LIBCMTD:lldiv.obj
 0001:000a6d60       __allrem                   100a7d60 f   LIBCMTD:llrem.obj
 0001:000a6e20       __allshl                   100a7e20 f   LIBCMTD:llshl.obj
 0001:000a6e40       __aullshr                  100a7e40 f   LIBCMTD:ullshr.obj
 0001:000a6e60       __get_output_format        100a7e60 f   LIBCMTD:outputformat.obj
 0001:000a6e70       __set_output_format        100a7e70 f   LIBCMTD:outputformat.obj
 0001:000a6f10       __controlfp_s              100a7f10 f   LIBCMTD:contrlfp.obj
 0001:000a7000       __fptrap                   100a8000 f   LIBCMTD:crt0fp.obj
 0001:000a7010       __open                     100a8010 f   LIBCMTD:open.obj
 0001:000a71a0       __sopen                    100a81a0 f   LIBCMTD:open.obj
 0001:000a7210       __sopen_helper             100a8210 f   LIBCMTD:open.obj
 0001:000a74a0       __sopen_nolock             100a84a0 f   LIBCMTD:open.obj
 0001:000a7510       __sopen_s                  100a8510 f   LIBCMTD:open.obj
 0001:000a7540       __mbsnbcmp                 100a8540 f   LIBCMTD:mbsnbcmp.obj
 0001:000a7560       __mbsnbcmp_l               100a8560 f   LIBCMTD:mbsnbcmp.obj
 0001:000a7880       __mbsnbicmp                100a8880 f   LIBCMTD:mbsnbicm.obj
 0001:000a78a0       __mbsnbicmp_l              100a88a0 f   LIBCMTD:mbsnbicm.obj
 0001:000a82e0       __strtol_l                 100a92e0 f   LIBCMTD:strtol.obj
 0001:000a8300       __strtoul_l                100a9300 f   LIBCMTD:strtol.obj
 0001:000a8320       _strtol                    100a9320 f   LIBCMTD:strtol.obj
 0001:000a8370       _strtoul                   100a9370 f   LIBCMTD:strtol.obj
 0001:000a83c0       ___init_collate            100a93c0 f   LIBCMTD:initcoll.obj
 0001:000a83d0       _wcscmp                    100a93d0 f   LIBCMTD:wcscmp.obj
 0001:000a8430       _wcscspn                   100a9430 f   LIBCMTD:wcscspn.obj
 0001:000a84a0       _wcsncmp                   100a94a0 f   LIBCMTD:wcsncmp.obj
 0001:000a8500       _wcspbrk                   100a9500 f   LIBCMTD:wcspbrk.obj
 0001:000a90a0       ___get_qualified_locale    100aa0a0 f   LIBCMTD:getqloc.obj
 0001:000aa080       ___get_qualified_locale_downlevel 100ab080 f   LIBCMTD:getqloc_downlevel.obj
 0001:000aa400       __wopen                    100ab400 f   LIBCMTD:wopen.obj
 0001:000aa590       __wsopen                   100ab590 f   LIBCMTD:wopen.obj
 0001:000aa600       __wsopen_helper            100ab600 f   LIBCMTD:wopen.obj
 0001:000aa890       __wsopen_nolock            100ab890 f   LIBCMTD:wopen.obj
 0001:000ab900       __wsopen_s                 100ac900 f   LIBCMTD:wopen.obj
 0001:000ab930       __wcsnicmp                 100ac930 f   LIBCMTD:wcsnicmp.obj
 0001:000abb20       __wcsnicmp_l               100acb20 f   LIBCMTD:wcsnicmp.obj
 0001:000abd80       __towlower_l               100acd80 f   LIBCMTD:towlower.obj
 0001:000abed0       _towlower                  100aced0 f   LIBCMTD:towlower.obj
 0001:000abef0       __atoi64                   100acef0 f   LIBCMTD:atox.obj
 0001:000abf10       __atoi64_l                 100acf10 f   LIBCMTD:atox.obj
 0001:000abf30       __atoi_l                   100acf30 f   LIBCMTD:atox.obj
 0001:000abf50       __atol_l                   100acf50 f   LIBCMTD:atox.obj
 0001:000abf70       _atoi                      100acf70 f   LIBCMTD:atox.obj
 0001:000abf90       _atol                      100acf90 f   LIBCMTD:atox.obj
 0001:000abfb0       __dupenv_s                 100acfb0 f   LIBCMTD:getenv.obj
 0001:000abfd0       __dupenv_s_dbg             100acfd0 f   LIBCMTD:getenv.obj
 0001:000ac250       __getenv_helper_nolock     100ad250 f   LIBCMTD:getenv.obj
 0001:000ac520       _getenv                    100ad520 f   LIBCMTD:getenv.obj
 0001:000ac6a0       _getenv_s                  100ad6a0 f   LIBCMTD:getenv.obj
 0001:000ac730       __iswctype_l               100ad730 f   LIBCMTD:iswctype.obj
 0001:000ac750       _is_wctype                 100ad750 f   LIBCMTD:iswctype.obj
 0001:000ac770       _iswctype                  100ad770 f   LIBCMTD:iswctype.obj
 0001:000ac7d0       ___termconout              100ad7d0 f   LIBCMTD:initcon.obj
 0001:000ac800       ___initconout              100ad800 f   LIBCMTD:initcon.obj
 0001:000ac830       __validate_param_reuseW    100ad830 f   LIBCMTD:woutputp.obj
 0001:000acb10       __woutput_p_l              100adb10 f   LIBCMTD:woutputp.obj
 0001:000b0600       __woutput_s_l              100b1600 f   LIBCMTD:woutputs.obj
 0001:000b1d40       __fputwc_nolock            100b2d40 f   LIBCMTD:fputwc.obj
 0001:000b2030       _fputwc                    100b3030 f   LIBCMTD:fputwc.obj
 0001:000b2140       _putwc                     100b3140 f   LIBCMTD:fputwc.obj
 0001:000b2160       __wmakepath_s              100b3160 f   LIBCMTD:wmakepath_s.obj
 0001:000b2520       __wsplitpath_s             100b3520 f   LIBCMTD:wsplitpath_s.obj
 0001:000b2b60       __CopyMan                  100b3b60 f i LIBCMTD:intrncvt.obj
 0001:000b2bb0       __FillZeroMan              100b3bb0 f i LIBCMTD:intrncvt.obj
 0001:000b2be0       __IncMan                   100b3be0 f i LIBCMTD:intrncvt.obj
 0001:000b2c90       __IsZeroMan                100b3c90 f i LIBCMTD:intrncvt.obj
 0001:000b2cd0       __RoundMan                 100b3cd0 f i LIBCMTD:intrncvt.obj
 0001:000b2db0       __ShrMan                   100b3db0 f i LIBCMTD:intrncvt.obj
 0001:000b2ea0       __ZeroTail                 100b3ea0 f i LIBCMTD:intrncvt.obj
 0001:000b2f30       ___addl                    100b3f30 f i LIBCMTD:intrncvt.obj
 0001:000b2f70       __ld12cvt                  100b3f70 f i LIBCMTD:intrncvt.obj
 0001:000b3230       __ld12tod                  100b4230 f   LIBCMTD:intrncvt.obj
 0001:000b3250       __ld12tof                  100b4250 f   LIBCMTD:intrncvt.obj
 0001:000b3270       __ld12told                 100b4270 f   LIBCMTD:intrncvt.obj
 0001:000b3370       ___STRINGTOLD_L            100b4370 f   LIBCMTD:strgtold.obj
 0001:000b33e0       ___ld12mul                 100b43e0 f i LIBCMTD:strgtold.obj
 0001:000b37f0       ___multtenpow12            100b47f0 f i LIBCMTD:strgtold.obj
 0001:000b38d0       ___shl_12                  100b48d0 f i LIBCMTD:strgtold.obj
 0001:000b3950       ___shr_12                  100b4950 f i LIBCMTD:strgtold.obj
 0001:000b39d0       ___strgtold12_l            100b49d0 f   LIBCMTD:strgtold.obj
 0001:000b44a0       _$I10_OUTPUT               100b54a0 f   LIBCMTD:x10fout.obj
 0001:000b4ab0       ___add_12                  100b5ab0 f i LIBCMTD:x10fout.obj
 0001:000b4d60       ___control87_2             100b5d60 f   LIBCMTD:ieee87.obj
 0001:000b5200       __clearfp                  100b6200 f   LIBCMTD:ieee87.obj
 0001:000b5240       __control87                100b6240 f i LIBCMTD:ieee87.obj
 0001:000b52f0       __controlfp                100b62f0 f   LIBCMTD:ieee87.obj
 0001:000b5310       __fpreset                  100b6310 f   LIBCMTD:ieee87.obj
 0001:000b54d0       __set_controlfp            100b64d0 f   LIBCMTD:ieee87.obj
 0001:000b5560       __statusfp                 100b6560 f   LIBCMTD:ieee87.obj
 0001:000b55a0       __statusfp2                100b65a0 f   LIBCMTD:ieee87.obj
 0001:000b55e0       _strncmp                   100b65e0 f   LIBCMTD:strncmp.obj
 0001:000b5660       __strnicmp                 100b6660 f   LIBCMTD:strnicmp.obj
 0001:000b5830       __strnicmp_l               100b6830 f   LIBCMTD:strnicmp.obj
 0001:000b5ac0       __wtoi                     100b6ac0 f   LIBCMTD:wtox.obj
 0001:000b5ae0       __wtoi64                   100b6ae0 f   LIBCMTD:wtox.obj
 0001:000b5b00       __wtoi64_l                 100b6b00 f   LIBCMTD:wtox.obj
 0001:000b5b20       __wtoi_l                   100b6b20 f   LIBCMTD:wtox.obj
 0001:000b5b40       __wtol                     100b6b40 f   LIBCMTD:wtox.obj
 0001:000b5b60       __wtol_l                   100b6b60 f   LIBCMTD:wtox.obj
 0001:000b5b80       _wcschr                    100b6b80 f   LIBCMTD:wcschr.obj
 0001:000b5d00       __chsize                   100b6d00 f   LIBCMTD:chsize.obj
 0001:000b5d40       __chsize_nolock            100b6d40 f   LIBCMTD:chsize.obj
 0001:000b5ff0       __chsize_s                 100b6ff0 f   LIBCMTD:chsize.obj
 0001:000b62b0       __get_fmode                100b72b0 f   LIBCMTD:setmode.obj
 0001:000b6350       __set_fmode                100b7350 f   LIBCMTD:setmode.obj
 0001:000b6400       __setmode                  100b7400 f   LIBCMTD:setmode.obj
 0001:000b66c0       __setmode_nolock           100b76c0 f   LIBCMTD:setmode.obj
 0001:000b6e60       __strtoi64                 100b7e60 f   LIBCMTD:strtoq.obj
 0001:000b6eb0       __strtoi64_l               100b7eb0 f   LIBCMTD:strtoq.obj
 0001:000b6ed0       __strtoui64                100b7ed0 f   LIBCMTD:strtoq.obj
 0001:000b6f20       __strtoui64_l              100b7f20 f   LIBCMTD:strtoq.obj
 0001:000b6f40       _strnlen                   100b7f40 f   LIBCMTD:strlen_s.obj
 0001:000b6f80       ___wtomb_environ           100b7f80 f   LIBCMTD:wtombenv.obj
 0001:000b7070       __mbsnbicoll               100b8070 f   LIBCMTD:mbsnbico.obj
 0001:000b7090       __mbsnbicoll_l             100b8090 f   LIBCMTD:mbsnbico.obj
 0001:000b76d0       __wcstol_l                 100b86d0 f   LIBCMTD:wcstol.obj
 0001:000b76f0       __wcstoul_l                100b86f0 f   LIBCMTD:wcstol.obj
 0001:000b7710       _wcstol                    100b8710 f   LIBCMTD:wcstol.obj
 0001:000b7730       _wcstoul                   100b8730 f   LIBCMTD:wcstol.obj
 0001:000b7750       __flswbuf                  100b8750 f   LIBCMTD:_flswbuf.obj
 0001:000b7a40       ___mtold12                 100b8a40 f   LIBCMTD:mantold.obj
 0001:000b7b90       ___ascii_strnicmp          100b8b90 f   LIBCMTD:_strnicm.obj
 0001:000b8150       __wcstoi64                 100b9150 f   LIBCMTD:wcstoq.obj
 0001:000b81a0       __wcstoi64_l               100b91a0 f   LIBCMTD:wcstoq.obj
 0001:000b81c0       __wcstoui64                100b91c0 f   LIBCMTD:wcstoq.obj
 0001:000b8210       __wcstoui64_l              100b9210 f   LIBCMTD:wcstoq.obj
 0001:000b8230       ___crtsetenv               100b9230 f   LIBCMTD:setenv.obj
 0001:000b8900       __strnicoll                100b9900 f   LIBCMTD:strnicol.obj
 0001:000b8940       __strnicoll_l              100b9940 f   LIBCMTD:strnicol.obj
 0001:000b8bf0       __wchartodigit             100b9bf0 f   LIBCMTD:wchtodig.obj
 0001:000b8f10       __mbschr                   100b9f10 f   LIBCMTD:mbschr.obj
 0001:000b8f30       __mbschr_l                 100b9f30 f   LIBCMTD:mbschr.obj
 0001:000b90ca       _InterlockedIncrement@4    100ba0ca f   kernel32:KERNEL32.dll
 0001:000b90d0       _InterlockedDecrement@4    100ba0d0 f   kernel32:KERNEL32.dll
 0001:000b90d6       _WideCharToMultiByte@32    100ba0d6 f   kernel32:KERNEL32.dll
 0001:000b90dc       _EnterCriticalSection@4    100ba0dc f   kernel32:KERNEL32.dll
 0001:000b90e2       _LeaveCriticalSection@4    100ba0e2 f   kernel32:KERNEL32.dll
 0001:000b90e8       _DeleteCriticalSection@4   100ba0e8 f   kernel32:KERNEL32.dll
 0001:000b90ee       _Sleep@4                   100ba0ee f   kernel32:KERNEL32.dll
 0001:000b90f4       _InterlockedExchange@8     100ba0f4 f   kernel32:KERNEL32.dll
 0001:000b90fa       _EncodePointer@4           100ba0fa f   kernel32:KERNEL32.dll
 0001:000b9100       _DecodePointer@4           100ba100 f   kernel32:KERNEL32.dll
 0001:000b9106       _MultiByteToWideChar@24    100ba106 f   kernel32:KERNEL32.dll
 0001:000b910c       _GetStringTypeW@16         100ba10c f   kernel32:KERNEL32.dll
 0001:000b9112       _IsDebuggerPresent@0       100ba112 f   kernel32:KERNEL32.dll
 0001:000b9118       _IsProcessorFeaturePresent@4 100ba118 f   kernel32:KERNEL32.dll
 0001:000b911e       _GetModuleFileNameW@12     100ba11e f   kernel32:KERNEL32.dll
 0001:000b9124       _GetModuleHandleExW@12     100ba124 f   kernel32:KERNEL32.dll
 0001:000b912a       _HeapValidate@12           100ba12a f   kernel32:KERNEL32.dll
 0001:000b9130       _GetSystemInfo@4           100ba130 f   kernel32:KERNEL32.dll
 0001:000b9136       _RaiseException@16         100ba136 f   kernel32:KERNEL32.dll
 0001:000b913c       _RtlUnwind@16              100ba13c f   kernel32:KERNEL32.dll
 0001:000b9142       _GetCommandLineA@0         100ba142 f   kernel32:KERNEL32.dll
 0001:000b9148       _GetCurrentThreadId@0      100ba148 f   kernel32:KERNEL32.dll
 0001:000b914e       _GetLastError@0            100ba14e f   kernel32:KERNEL32.dll
 0001:000b9154       _ExitProcess@4             100ba154 f   kernel32:KERNEL32.dll
 0001:000b915a       _GetProcAddress@8          100ba15a f   kernel32:KERNEL32.dll
 0001:000b9160       _AreFileApisANSI@0         100ba160 f   kernel32:KERNEL32.dll
 0001:000b9166       _InitializeCriticalSectionAndSpinCount@8 100ba166 f   kernel32:KERNEL32.dll
 0001:000b916c       _FatalAppExitA@8           100ba16c f   kernel32:KERNEL32.dll
 0001:000b9172       _GetCPInfo@8               100ba172 f   kernel32:KERNEL32.dll
 0001:000b9178       _UnhandledExceptionFilter@4 100ba178 f   kernel32:KERNEL32.dll
 0001:000b917e       _SetUnhandledExceptionFilter@4 100ba17e f   kernel32:KERNEL32.dll
 0001:000b9184       _SetLastError@4            100ba184 f   kernel32:KERNEL32.dll
 0001:000b918a       _GetCurrentProcess@0       100ba18a f   kernel32:KERNEL32.dll
 0001:000b9190       _TerminateProcess@8        100ba190 f   kernel32:KERNEL32.dll
 0001:000b9196       _TlsAlloc@0                100ba196 f   kernel32:KERNEL32.dll
 0001:000b919c       _TlsGetValue@4             100ba19c f   kernel32:KERNEL32.dll
 0001:000b91a2       _TlsSetValue@8             100ba1a2 f   kernel32:KERNEL32.dll
 0001:000b91a8       _TlsFree@4                 100ba1a8 f   kernel32:KERNEL32.dll
 0001:000b91ae       _GetStartupInfoW@4         100ba1ae f   kernel32:KERNEL32.dll
 0001:000b91b4       _GetModuleHandleW@4        100ba1b4 f   kernel32:KERNEL32.dll
 0001:000b91ba       _CreateSemaphoreW@16       100ba1ba f   kernel32:KERNEL32.dll
 0001:000b91c0       _GetDateFormatW@24         100ba1c0 f   kernel32:KERNEL32.dll
 0001:000b91c6       _GetTimeFormatW@24         100ba1c6 f   kernel32:KERNEL32.dll
 0001:000b91cc       _CompareStringW@24         100ba1cc f   kernel32:KERNEL32.dll
 0001:000b91d2       _LCMapStringW@24           100ba1d2 f   kernel32:KERNEL32.dll
 0001:000b91d8       _GetLocaleInfoW@16         100ba1d8 f   kernel32:KERNEL32.dll
 0001:000b91de       _IsValidLocale@8           100ba1de f   kernel32:KERNEL32.dll
 0001:000b91e4       _GetUserDefaultLCID@0      100ba1e4 f   kernel32:KERNEL32.dll
 0001:000b91ea       _EnumSystemLocalesW@8      100ba1ea f   kernel32:KERNEL32.dll
 0001:000b91f0       _GetStdHandle@4            100ba1f0 f   kernel32:KERNEL32.dll
 0001:000b91f6       _WriteFile@20              100ba1f6 f   kernel32:KERNEL32.dll
 0001:000b91fc       _CloseHandle@4             100ba1fc f   kernel32:KERNEL32.dll
 0001:000b9202       _FlushFileBuffers@4        100ba202 f   kernel32:KERNEL32.dll
 0001:000b9208       _GetConsoleCP@0            100ba208 f   kernel32:KERNEL32.dll
 0001:000b920e       _GetConsoleMode@8          100ba20e f   kernel32:KERNEL32.dll
 0001:000b9214       _GetFileType@4             100ba214 f   kernel32:KERNEL32.dll
 0001:000b921a       _ReadFile@20               100ba21a f   kernel32:KERNEL32.dll
 0001:000b9220       _SetFilePointerEx@20       100ba220 f   kernel32:KERNEL32.dll
 0001:000b9226       _SetConsoleCtrlHandler@8   100ba226 f   kernel32:KERNEL32.dll
 0001:000b922c       _OutputDebugStringW@4      100ba22c f   kernel32:KERNEL32.dll
 0001:000b9232       _WaitForSingleObjectEx@12  100ba232 f   kernel32:KERNEL32.dll
 0001:000b9238       _CreateThread@24           100ba238 f   kernel32:KERNEL32.dll
 0001:000b923e       _LoadLibraryExW@12         100ba23e f   kernel32:KERNEL32.dll
 0001:000b9244       _LoadLibraryW@4            100ba244 f   kernel32:KERNEL32.dll
 0001:000b924a       _OutputDebugStringA@4      100ba24a f   kernel32:KERNEL32.dll
 0001:000b9250       _WriteConsoleW@20          100ba250 f   kernel32:KERNEL32.dll
 0001:000b9256       _IsValidCodePage@4         100ba256 f   kernel32:KERNEL32.dll
 0001:000b925c       _GetACP@0                  100ba25c f   kernel32:KERNEL32.dll
 0001:000b9262       _GetOEMCP@0                100ba262 f   kernel32:KERNEL32.dll
 0001:000b9268       _HeapFree@12               100ba268 f   kernel32:KERNEL32.dll
 0001:000b926e       _HeapReAlloc@16            100ba26e f   kernel32:KERNEL32.dll
 0001:000b9274       _HeapSize@12               100ba274 f   kernel32:KERNEL32.dll
 0001:000b927a       _HeapQueryInformation@20   100ba27a f   kernel32:KERNEL32.dll
 0001:000b9280       _GetModuleFileNameA@12     100ba280 f   kernel32:KERNEL32.dll
 0001:000b9286       _GetCurrentThread@0        100ba286 f   kernel32:KERNEL32.dll
 0001:000b928c       _HeapAlloc@12              100ba28c f   kernel32:KERNEL32.dll
 0001:000b9292       _GetProcessHeap@0          100ba292 f   kernel32:KERNEL32.dll
 0001:000b9298       _lstrlenA@4                100ba298 f   kernel32:KERNEL32.dll
 0001:000b929e       _QueryPerformanceCounter@4 100ba29e f   kernel32:KERNEL32.dll
 0001:000b92a4       _GetCurrentProcessId@0     100ba2a4 f   kernel32:KERNEL32.dll
 0001:000b92aa       _GetSystemTimeAsFileTime@4 100ba2aa f   kernel32:KERNEL32.dll
 0001:000b92b0       _GetEnvironmentStringsW@0  100ba2b0 f   kernel32:KERNEL32.dll
 0001:000b92b6       _FreeEnvironmentStringsW@4 100ba2b6 f   kernel32:KERNEL32.dll
 0001:000b92bc       _FreeLibrary@4             100ba2bc f   kernel32:KERNEL32.dll
 0001:000b92c2       _SetFilePointer@16         100ba2c2 f   kernel32:KERNEL32.dll
 0001:000b92c8       _GetTimeZoneInformation@4  100ba2c8 f   kernel32:KERNEL32.dll
 0001:000b92ce       _SetStdHandle@8            100ba2ce f   kernel32:KERNEL32.dll
 0001:000b92d4       _ReadConsoleW@20           100ba2d4 f   kernel32:KERNEL32.dll
 0001:000b92da       _VirtualQuery@12           100ba2da f   kernel32:KERNEL32.dll
 0001:000b92e0       _CreateFileW@28            100ba2e0 f   kernel32:KERNEL32.dll
 0001:000b92e6       _SetEndOfFile@4            100ba2e6 f   kernel32:KERNEL32.dll
 0001:000b92ec       _SetEnvironmentVariableA@8 100ba2ec f   kernel32:KERNEL32.dll
 0002:00000000       __imp__SetLastError@4      100c1000     kernel32:KERNEL32.dll
 0002:00000004       __imp__SetEnvironmentVariableA@8 100c1004     kernel32:KERNEL32.dll
 0002:00000008       __imp__SetEndOfFile@4      100c1008     kernel32:KERNEL32.dll
 0002:0000000c       __imp__CreateFileW@28      100c100c     kernel32:KERNEL32.dll
 0002:00000010       __imp__VirtualQuery@12     100c1010     kernel32:KERNEL32.dll
 0002:00000014       __imp__ReadConsoleW@20     100c1014     kernel32:KERNEL32.dll
 0002:00000018       __imp__SetStdHandle@8      100c1018     kernel32:KERNEL32.dll
 0002:0000001c       __imp__GetTimeZoneInformation@4 100c101c     kernel32:KERNEL32.dll
 0002:00000020       __imp__SetFilePointer@16   100c1020     kernel32:KERNEL32.dll
 0002:00000024       __imp__FreeLibrary@4       100c1024     kernel32:KERNEL32.dll
 0002:00000028       __imp__FreeEnvironmentStringsW@4 100c1028     kernel32:KERNEL32.dll
 0002:0000002c       __imp__GetEnvironmentStringsW@0 100c102c     kernel32:KERNEL32.dll
 0002:00000030       __imp__GetSystemTimeAsFileTime@4 100c1030     kernel32:KERNEL32.dll
 0002:00000034       __imp__GetCurrentProcessId@0 100c1034     kernel32:KERNEL32.dll
 0002:00000038       __imp__QueryPerformanceCounter@4 100c1038     kernel32:KERNEL32.dll
 0002:0000003c       __imp__lstrlenA@4          100c103c     kernel32:KERNEL32.dll
 0002:00000040       __imp__GetProcessHeap@0    100c1040     kernel32:KERNEL32.dll
 0002:00000044       __imp__HeapAlloc@12        100c1044     kernel32:KERNEL32.dll
 0002:00000048       __imp__GetCurrentThread@0  100c1048     kernel32:KERNEL32.dll
 0002:0000004c       __imp__GetModuleFileNameA@12 100c104c     kernel32:KERNEL32.dll
 0002:00000050       __imp__HeapQueryInformation@20 100c1050     kernel32:KERNEL32.dll
 0002:00000054       __imp__HeapSize@12         100c1054     kernel32:KERNEL32.dll
 0002:00000058       __imp__HeapReAlloc@16      100c1058     kernel32:KERNEL32.dll
 0002:0000005c       __imp__HeapFree@12         100c105c     kernel32:KERNEL32.dll
 0002:00000060       __imp__GetOEMCP@0          100c1060     kernel32:KERNEL32.dll
 0002:00000064       __imp__GetACP@0            100c1064     kernel32:KERNEL32.dll
 0002:00000068       __imp__IsValidCodePage@4   100c1068     kernel32:KERNEL32.dll
 0002:0000006c       __imp__WriteConsoleW@20    100c106c     kernel32:KERNEL32.dll
 0002:00000070       __imp__OutputDebugStringA@4 100c1070     kernel32:KERNEL32.dll
 0002:00000074       __imp__LoadLibraryW@4      100c1074     kernel32:KERNEL32.dll
 0002:00000078       __imp__InterlockedIncrement@4 100c1078     kernel32:KERNEL32.dll
 0002:0000007c       __imp__InterlockedDecrement@4 100c107c     kernel32:KERNEL32.dll
 0002:00000080       __imp__WideCharToMultiByte@32 100c1080     kernel32:KERNEL32.dll
 0002:00000084       __imp__EnterCriticalSection@4 100c1084     kernel32:KERNEL32.dll
 0002:00000088       __imp__LeaveCriticalSection@4 100c1088     kernel32:KERNEL32.dll
 0002:0000008c       __imp__DeleteCriticalSection@4 100c108c     kernel32:KERNEL32.dll
 0002:00000090       __imp__Sleep@4             100c1090     kernel32:KERNEL32.dll
 0002:00000094       __imp__InterlockedExchange@8 100c1094     kernel32:KERNEL32.dll
 0002:00000098       __imp__EncodePointer@4     100c1098     kernel32:KERNEL32.dll
 0002:0000009c       __imp__DecodePointer@4     100c109c     kernel32:KERNEL32.dll
 0002:000000a0       __imp__MultiByteToWideChar@24 100c10a0     kernel32:KERNEL32.dll
 0002:000000a4       __imp__GetStringTypeW@16   100c10a4     kernel32:KERNEL32.dll
 0002:000000a8       __imp__IsDebuggerPresent@0 100c10a8     kernel32:KERNEL32.dll
 0002:000000ac       __imp__IsProcessorFeaturePresent@4 100c10ac     kernel32:KERNEL32.dll
 0002:000000b0       __imp__GetModuleFileNameW@12 100c10b0     kernel32:KERNEL32.dll
 0002:000000b4       __imp__GetModuleHandleExW@12 100c10b4     kernel32:KERNEL32.dll
 0002:000000b8       __imp__HeapValidate@12     100c10b8     kernel32:KERNEL32.dll
 0002:000000bc       __imp__GetSystemInfo@4     100c10bc     kernel32:KERNEL32.dll
 0002:000000c0       __imp__RaiseException@16   100c10c0     kernel32:KERNEL32.dll
 0002:000000c4       __imp__RtlUnwind@16        100c10c4     kernel32:KERNEL32.dll
 0002:000000c8       __imp__GetCommandLineA@0   100c10c8     kernel32:KERNEL32.dll
 0002:000000cc       __imp__GetCurrentThreadId@0 100c10cc     kernel32:KERNEL32.dll
 0002:000000d0       __imp__GetLastError@0      100c10d0     kernel32:KERNEL32.dll
 0002:000000d4       __imp__ExitProcess@4       100c10d4     kernel32:KERNEL32.dll
 0002:000000d8       __imp__GetProcAddress@8    100c10d8     kernel32:KERNEL32.dll
 0002:000000dc       __imp__AreFileApisANSI@0   100c10dc     kernel32:KERNEL32.dll
 0002:000000e0       __imp__InitializeCriticalSectionAndSpinCount@8 100c10e0     kernel32:KERNEL32.dll
 0002:000000e4       __imp__FatalAppExitA@8     100c10e4     kernel32:KERNEL32.dll
 0002:000000e8       __imp__GetCPInfo@8         100c10e8     kernel32:KERNEL32.dll
 0002:000000ec       __imp__UnhandledExceptionFilter@4 100c10ec     kernel32:KERNEL32.dll
 0002:000000f0       __imp__SetUnhandledExceptionFilter@4 100c10f0     kernel32:KERNEL32.dll
 0002:000000f4       __imp__GetCurrentProcess@0 100c10f4     kernel32:KERNEL32.dll
 0002:000000f8       __imp__TerminateProcess@8  100c10f8     kernel32:KERNEL32.dll
 0002:000000fc       __imp__TlsAlloc@0          100c10fc     kernel32:KERNEL32.dll
 0002:00000100       __imp__TlsGetValue@4       100c1100     kernel32:KERNEL32.dll
 0002:00000104       __imp__TlsSetValue@8       100c1104     kernel32:KERNEL32.dll
 0002:00000108       __imp__TlsFree@4           100c1108     kernel32:KERNEL32.dll
 0002:0000010c       __imp__GetStartupInfoW@4   100c110c     kernel32:KERNEL32.dll
 0002:00000110       __imp__GetModuleHandleW@4  100c1110     kernel32:KERNEL32.dll
 0002:00000114       __imp__CreateSemaphoreW@16 100c1114     kernel32:KERNEL32.dll
 0002:00000118       __imp__GetDateFormatW@24   100c1118     kernel32:KERNEL32.dll
 0002:0000011c       __imp__GetTimeFormatW@24   100c111c     kernel32:KERNEL32.dll
 0002:00000120       __imp__CompareStringW@24   100c1120     kernel32:KERNEL32.dll
 0002:00000124       __imp__LCMapStringW@24     100c1124     kernel32:KERNEL32.dll
 0002:00000128       __imp__GetLocaleInfoW@16   100c1128     kernel32:KERNEL32.dll
 0002:0000012c       __imp__IsValidLocale@8     100c112c     kernel32:KERNEL32.dll
 0002:00000130       __imp__GetUserDefaultLCID@0 100c1130     kernel32:KERNEL32.dll
 0002:00000134       __imp__EnumSystemLocalesW@8 100c1134     kernel32:KERNEL32.dll
 0002:00000138       __imp__GetStdHandle@4      100c1138     kernel32:KERNEL32.dll
 0002:0000013c       __imp__WriteFile@20        100c113c     kernel32:KERNEL32.dll
 0002:00000140       __imp__CloseHandle@4       100c1140     kernel32:KERNEL32.dll
 0002:00000144       __imp__FlushFileBuffers@4  100c1144     kernel32:KERNEL32.dll
 0002:00000148       __imp__GetConsoleCP@0      100c1148     kernel32:KERNEL32.dll
 0002:0000014c       __imp__GetConsoleMode@8    100c114c     kernel32:KERNEL32.dll
 0002:00000150       __imp__GetFileType@4       100c1150     kernel32:KERNEL32.dll
 0002:00000154       __imp__ReadFile@20         100c1154     kernel32:KERNEL32.dll
 0002:00000158       __imp__SetFilePointerEx@20 100c1158     kernel32:KERNEL32.dll
 0002:0000015c       __imp__SetConsoleCtrlHandler@8 100c115c     kernel32:KERNEL32.dll
 0002:00000160       __imp__OutputDebugStringW@4 100c1160     kernel32:KERNEL32.dll
 0002:00000164       __imp__WaitForSingleObjectEx@12 100c1164     kernel32:KERNEL32.dll
 0002:00000168       __imp__CreateThread@24     100c1168     kernel32:KERNEL32.dll
 0002:0000016c       __imp__LoadLibraryExW@12   100c116c     kernel32:KERNEL32.dll
 0002:00000170       \177KERNEL32_NULL_THUNK_DATA 100c1170     kernel32:KERNEL32.dll
 0002:00000174       __imp_?GfuiKeyEventRegisterCurrent@@YAXP6AHEHH@Z@Z 100c1174     client:client.dll
 0002:00000178       __imp_?GfuiSKeyEventRegisterCurrent@@YAXP6AHHHH@Z@Z 100c1178     client:client.dll
 0002:0000017c       __imp_?GfuiMouseShow@@YAXXZ 100c117c     client:client.dll
 0002:00000180       __imp_?GfctrlJoyInit@@YAPAUtCtrlJoyInfo@@XZ 100c1180     client:client.dll
 0002:00000184       __imp_?GfctrlJoyGetCurrent@@YAHPAUtCtrlJoyInfo@@@Z 100c1184     client:client.dll
 0002:00000188       __imp_?GfctrlJoyRelease@@YAXPAUtCtrlJoyInfo@@@Z 100c1188     client:client.dll
 0002:0000018c       __imp_?GfctrlMouseInit@@YAPAUtCtrlMouseInfo@@XZ 100c118c     client:client.dll
 0002:00000190       __imp_?GfctrlMouseGetCurrent@@YAHPAUtCtrlMouseInfo@@@Z 100c1190     client:client.dll
 0002:00000194       __imp_?GfctrlMouseRelease@@YAXPAUtCtrlMouseInfo@@@Z 100c1194     client:client.dll
 0002:00000198       __imp_?GfctrlMouseCenter@@YAXXZ 100c1198     client:client.dll
 0002:0000019c       __imp_?GfctrlMouseInitCenter@@YAXXZ 100c119c     client:client.dll
 0002:000001a0       __imp_?GfctrlGetRefByName@@YAPAUtCtrlRef@@PBD@Z 100c11a0     client:client.dll
 0002:000001a4       __imp_?GfctrlGetNameByRef@@YAPBDHH@Z 100c11a4     client:client.dll
 0002:000001a8       __imp_?GfScrGetSize@@YAXPAH000@Z 100c11a8     client:client.dll
 0002:000001ac       \177client_NULL_THUNK_DATA 100c11ac     client:client.dll
 0002:000001b0       __imp_?RtTrackSideTgAngleL@@YAMPAUtTrkLocPos@@@Z 100c11b0     robottools:robottools.dll
 0002:000001b4       __imp_?RtGetDistFromStart@@YAMPAUCarElt@@@Z 100c11b4     robottools:robottools.dll
 0002:000001b8       \177robottools_NULL_THUNK_DATA 100c11b8     robottools:robottools.dll
 0002:000001bc       __imp_?GfParmReadFile@@YAPAXPBDH@Z 100c11bc     tgf:tgf.dll
 0002:000001c0       __imp_?GfParmWriteFile@@YAHPBDPAX0@Z 100c11c0     tgf:tgf.dll
 0002:000001c4       __imp_?GfParmGetStr@@YAPBDPAXPBD11@Z 100c11c4     tgf:tgf.dll
 0002:000001c8       __imp_?GfParmSetStr@@YAHPAXPBD11@Z 100c11c8     tgf:tgf.dll
 0002:000001cc       __imp_?_tgf_win_strdup@@YAPADPBD@Z 100c11cc     tgf:tgf.dll
 0002:000001d0       __imp_?GfParmSetNum@@YAHPAXPBD11M@Z 100c11d0     tgf:tgf.dll
 0002:000001d4       __imp_?GfParmReleaseHandle@@YAXPAX@Z 100c11d4     tgf:tgf.dll
 0002:000001d8       __imp_?GetLocalDir@@YAPADXZ 100c11d8     tgf:tgf.dll
 0002:000001dc       __imp_?_tgf_win_free@@YAXPAX@Z 100c11dc     tgf:tgf.dll
 0002:000001e0       __imp_?GfParmGetNum@@YAMPAXPBD11M@Z 100c11e0     tgf:tgf.dll
 0002:000001e4       __imp_?_tgf_win_calloc@@YAPAXII@Z 100c11e4     tgf:tgf.dll
 0002:000001e8       \177tgf_NULL_THUNK_DATA    100c11e8     tgf:tgf.dll
 0002:000001ec       ___xc_a                    100c11ec     LIBCMTD:crt0init.obj
 0002:00000324       ___xc_z                    100c1324     LIBCMTD:crt0init.obj
 0002:00000328       ___xi_a                    100c1328     LIBCMTD:crt0init.obj
 0002:00000340       ___xi_z                    100c1340     LIBCMTD:crt0init.obj
 0002:00000344       ___xp_a                    100c1344     LIBCMTD:crt0init.obj
 0002:00000354       ___xp_z                    100c1354     LIBCMTD:crt0init.obj
 0002:00000358       ___xt_a                    100c1358     LIBCMTD:crt0init.obj
 0002:0000035c       ___xt_z                    100c135c     LIBCMTD:crt0init.obj
 0002:000008e7       ?is_modulo@?$numeric_limits@_N@std@@2_NB 100c18e7     human_Recorder.obj
 0002:000008e8       ?is_signed@?$numeric_limits@_N@std@@2_NB 100c18e8     human_Recorder.obj
 0002:000008ec       ?digits@?$numeric_limits@_N@std@@2HB 100c18ec     human_Recorder.obj
 0002:000008f0       ?digits10@?$numeric_limits@_N@std@@2HB 100c18f0     human_Recorder.obj
 0002:000008f4       ?is_signed@?$numeric_limits@C@std@@2_NB 100c18f4     human_Recorder.obj
 0002:000008f8       ?digits@?$numeric_limits@C@std@@2HB 100c18f8     human_Recorder.obj
 0002:000008fc       ?digits10@?$numeric_limits@C@std@@2HB 100c18fc     human_Recorder.obj
 0002:00000900       ?is_signed@?$numeric_limits@E@std@@2_NB 100c1900     human_Recorder.obj
 0002:00000904       ?digits@?$numeric_limits@E@std@@2HB 100c1904     human_Recorder.obj
 0002:00000908       ?digits10@?$numeric_limits@E@std@@2HB 100c1908     human_Recorder.obj
 0002:0000090c       ?value@?$integral_constant@I$0A@@std@@2IB 100c190c     human_Recorder.obj
 0002:00000910       ?is_signed@?$numeric_limits@F@std@@2_NB 100c1910     human_Recorder.obj
 0002:00000914       ?digits@?$numeric_limits@F@std@@2HB 100c1914     human_Recorder.obj
 0002:00000918       ?digits10@?$numeric_limits@F@std@@2HB 100c1918     human_Recorder.obj
 0002:0000091c       ?is_signed@?$numeric_limits@G@std@@2_NB 100c191c     human_Recorder.obj
 0002:00000920       ?digits@?$numeric_limits@G@std@@2HB 100c1920     human_Recorder.obj
 0002:00000924       ?digits10@?$numeric_limits@G@std@@2HB 100c1924     human_Recorder.obj
 0002:00000928       ?value@?$integral_constant@_N$0A@@std@@2_NB 100c1928     human_Recorder.obj
 0002:00000929       ?value@?$integral_constant@_N$00@std@@2_NB 100c1929     human_Recorder.obj
 0002:0000092a       ?is_signed@?$numeric_limits@H@std@@2_NB 100c192a     human_Recorder.obj
 0002:0000092c       ?digits@?$numeric_limits@H@std@@2HB 100c192c     human_Recorder.obj
 0002:00000930       ?digits10@?$numeric_limits@H@std@@2HB 100c1930     human_Recorder.obj
 0002:00000934       ?is_signed@?$numeric_limits@I@std@@2_NB 100c1934     human_Recorder.obj
 0002:00000938       ?digits@?$numeric_limits@I@std@@2HB 100c1938     human_Recorder.obj
 0002:0000093c       ?digits10@?$numeric_limits@I@std@@2HB 100c193c     human_Recorder.obj
 0002:00000940       ?is_signed@?$numeric_limits@J@std@@2_NB 100c1940     human_Recorder.obj
 0002:00000944       ?digits@?$numeric_limits@J@std@@2HB 100c1944     human_Recorder.obj
 0002:00000948       ?digits10@?$numeric_limits@J@std@@2HB 100c1948     human_Recorder.obj
 0002:0000094c       ?is_signed@?$numeric_limits@K@std@@2_NB 100c194c     human_Recorder.obj
 0002:00000950       ?digits@?$numeric_limits@K@std@@2HB 100c1950     human_Recorder.obj
 0002:00000954       ?digits10@?$numeric_limits@K@std@@2HB 100c1954     human_Recorder.obj
 0002:00000958       ?is_signed@?$numeric_limits@_J@std@@2_NB 100c1958     human_Recorder.obj
 0002:0000095c       ?digits@?$numeric_limits@_J@std@@2HB 100c195c     human_Recorder.obj
 0002:00000960       ?digits10@?$numeric_limits@_J@std@@2HB 100c1960     human_Recorder.obj
 0002:00000964       ?is_signed@?$numeric_limits@_K@std@@2_NB 100c1964     human_Recorder.obj
 0002:00000968       ?digits@?$numeric_limits@_K@std@@2HB 100c1968     human_Recorder.obj
 0002:0000096c       ?digits10@?$numeric_limits@_K@std@@2HB 100c196c     human_Recorder.obj
 0002:00000970       ?digits@?$numeric_limits@M@std@@2HB 100c1970     human_Recorder.obj
 0002:00000974       ?digits10@?$numeric_limits@M@std@@2HB 100c1974     human_Recorder.obj
 0002:00000978       ?max_digits10@?$numeric_limits@M@std@@2HB 100c1978     human_Recorder.obj
 0002:0000097c       ?max_exponent@?$numeric_limits@M@std@@2HB 100c197c     human_Recorder.obj
 0002:00000980       ?max_exponent10@?$numeric_limits@M@std@@2HB 100c1980     human_Recorder.obj
 0002:00000984       ?min_exponent@?$numeric_limits@M@std@@2HB 100c1984     human_Recorder.obj
 0002:00000988       ?min_exponent10@?$numeric_limits@M@std@@2HB 100c1988     human_Recorder.obj
 0002:0000098c       ?digits@?$numeric_limits@N@std@@2HB 100c198c     human_Recorder.obj
 0002:00000990       ?digits10@?$numeric_limits@N@std@@2HB 100c1990     human_Recorder.obj
 0002:00000994       ?max_digits10@?$numeric_limits@N@std@@2HB 100c1994     human_Recorder.obj
 0002:00000998       ?max_exponent@?$numeric_limits@N@std@@2HB 100c1998     human_Recorder.obj
 0002:0000099c       ?max_exponent10@?$numeric_limits@N@std@@2HB 100c199c     human_Recorder.obj
 0002:000009a0       ?min_exponent@?$numeric_limits@N@std@@2HB 100c19a0     human_Recorder.obj
 0002:000009a4       ?min_exponent10@?$numeric_limits@N@std@@2HB 100c19a4     human_Recorder.obj
 0002:000009a8       ?skipws@?$_Iosb@H@std@@2W4_Fmtflags@12@B 100c19a8     human_Recorder.obj
 0002:000009ac       ?unitbuf@?$_Iosb@H@std@@2W4_Fmtflags@12@B 100c19ac     human_Recorder.obj
 0002:000009b0       ?uppercase@?$_Iosb@H@std@@2W4_Fmtflags@12@B 100c19b0     human_Recorder.obj
 0002:000009b4       ?showbase@?$_Iosb@H@std@@2W4_Fmtflags@12@B 100c19b4     human_Recorder.obj
 0002:000009b8       ?showpoint@?$_Iosb@H@std@@2W4_Fmtflags@12@B 100c19b8     human_Recorder.obj
 0002:000009bc       ?digits@?$numeric_limits@O@std@@2HB 100c19bc     human_Recorder.obj
 0002:000009c0       ?showpos@?$_Iosb@H@std@@2W4_Fmtflags@12@B 100c19c0     human_Recorder.obj
 0002:000009c4       ?left@?$_Iosb@H@std@@2W4_Fmtflags@12@B 100c19c4     human_Recorder.obj
 0002:000009c8       ?digits10@?$numeric_limits@O@std@@2HB 100c19c8     human_Recorder.obj
 0002:000009cc       ?max_digits10@?$numeric_limits@O@std@@2HB 100c19cc     human_Recorder.obj
 0002:000009d0       ?right@?$_Iosb@H@std@@2W4_Fmtflags@12@B 100c19d0     human_Recorder.obj
 0002:000009d4       ?internal@?$_Iosb@H@std@@2W4_Fmtflags@12@B 100c19d4     human_Recorder.obj
 0002:000009d8       ?value@?$_Sizeof@HU_Nil@std@@U12@U12@U12@U12@U12@U12@@std@@2IB 100c19d8     human_Recorder.obj
 0002:000009dc       ?max_exponent@?$numeric_limits@O@std@@2HB 100c19dc     human_Recorder.obj
 0002:000009e0       ?dec@?$_Iosb@H@std@@2W4_Fmtflags@12@B 100c19e0     human_Recorder.obj
 0002:000009e4       ?max_exponent10@?$numeric_limits@O@std@@2HB 100c19e4     human_Recorder.obj
 0002:000009e8       ?oct@?$_Iosb@H@std@@2W4_Fmtflags@12@B 100c19e8     human_Recorder.obj
 0002:000009ec       ?hex@?$_Iosb@H@std@@2W4_Fmtflags@12@B 100c19ec     human_Recorder.obj
 0002:000009f0       ?min_exponent@?$numeric_limits@O@std@@2HB 100c19f0     human_Recorder.obj
 0002:000009f4       ?scientific@?$_Iosb@H@std@@2W4_Fmtflags@12@B 100c19f4     human_Recorder.obj
 0002:000009f8       ?min_exponent10@?$numeric_limits@O@std@@2HB 100c19f8     human_Recorder.obj
 0002:000009fc       ?fixed@?$_Iosb@H@std@@2W4_Fmtflags@12@B 100c19fc     human_Recorder.obj
 0002:00000a00       ?hexfloat@?$_Iosb@H@std@@2W4_Fmtflags@12@B 100c1a00     human_Recorder.obj
 0002:00000a04       ?boolalpha@?$_Iosb@H@std@@2W4_Fmtflags@12@B 100c1a04     human_Recorder.obj
 0002:00000a08       ?_Stdio@?$_Iosb@H@std@@2W4_Fmtflags@12@B 100c1a08     human_Recorder.obj
 0002:00000a0c       ?adjustfield@?$_Iosb@H@std@@2W4_Fmtflags@12@B 100c1a0c     human_Recorder.obj
 0002:00000a10       ?basefield@?$_Iosb@H@std@@2W4_Fmtflags@12@B 100c1a10     human_Recorder.obj
 0002:00000a14       ?floatfield@?$_Iosb@H@std@@2W4_Fmtflags@12@B 100c1a14     human_Recorder.obj
 0002:00000a18       ?goodbit@?$_Iosb@H@std@@2W4_Iostate@12@B 100c1a18     human_Recorder.obj
 0002:00000a1c       ?eofbit@?$_Iosb@H@std@@2W4_Iostate@12@B 100c1a1c     human_Recorder.obj
 0002:00000a20       ?failbit@?$_Iosb@H@std@@2W4_Iostate@12@B 100c1a20     human_Recorder.obj
 0002:00000a24       ?badbit@?$_Iosb@H@std@@2W4_Iostate@12@B 100c1a24     human_Recorder.obj
 0002:00000a28       ?value@?$_Sizeof@U_Nil@std@@U12@U12@U12@U12@U12@U12@U12@@std@@2IB 100c1a28     human_Recorder.obj
 0002:00000a2c       ?_Hardfail@?$_Iosb@H@std@@2W4_Iostate@12@B 100c1a2c     human_Recorder.obj
 0002:00000a30       ?in@?$_Iosb@H@std@@2W4_Openmode@12@B 100c1a30     human_Recorder.obj
 0002:00000a34       ?out@?$_Iosb@H@std@@2W4_Openmode@12@B 100c1a34     human_Recorder.obj
 0002:00000a38       ?ate@?$_Iosb@H@std@@2W4_Openmode@12@B 100c1a38     human_Recorder.obj
 0002:00000a3c       ?app@?$_Iosb@H@std@@2W4_Openmode@12@B 100c1a3c     human_Recorder.obj
 0002:00000a40       ?trunc@?$_Iosb@H@std@@2W4_Openmode@12@B 100c1a40     human_Recorder.obj
 0002:00000a44       ?_Nocreate@?$_Iosb@H@std@@2W4_Openmode@12@B 100c1a44     human_Recorder.obj
 0002:00000a48       ?_Noreplace@?$_Iosb@H@std@@2W4_Openmode@12@B 100c1a48     human_Recorder.obj
 0002:00000a4c       ?binary@?$_Iosb@H@std@@2W4_Openmode@12@B 100c1a4c     human_Recorder.obj
 0002:00000a50       ?beg@?$_Iosb@H@std@@2W4_Seekdir@12@B 100c1a50     human_Recorder.obj
 0002:00000a54       ?cur@?$_Iosb@H@std@@2W4_Seekdir@12@B 100c1a54     human_Recorder.obj
 0002:00000a58       ?end@?$_Iosb@H@std@@2W4_Seekdir@12@B 100c1a58     human_Recorder.obj
 0002:00000a5c       ?collate@?$_Locbase@H@std@@2HB 100c1a5c     human_Recorder.obj
 0002:00000a60       ?ctype@?$_Locbase@H@std@@2HB 100c1a60     human_Recorder.obj
 0002:00000a64       ?monetary@?$_Locbase@H@std@@2HB 100c1a64     human_Recorder.obj
 0002:00000a68       ?numeric@?$_Locbase@H@std@@2HB 100c1a68     human_Recorder.obj
 0002:00000a6c       ?time@?$_Locbase@H@std@@2HB 100c1a6c     human_Recorder.obj
 0002:00000a70       ?messages@?$_Locbase@H@std@@2HB 100c1a70     human_Recorder.obj
 0002:00000a74       ?_Stream_err@failure@ios_base@std@@0W4io_errc@43@B 100c1a74     human_Recorder.obj
 0002:00000a78       ?all@?$_Locbase@H@std@@2HB 100c1a78     human_Recorder.obj
 0002:00000a7c       ?none@?$_Locbase@H@std@@2HB 100c1a7c     human_Recorder.obj
 0002:00000a80       ?has_denorm@_Num_base@std@@2W4float_denorm_style@2@B 100c1a80     human_Recorder.obj
 0002:00000a84       ?has_denorm_loss@_Num_base@std@@2_NB 100c1a84     human_Recorder.obj
 0002:00000a85       ?has_infinity@_Num_base@std@@2_NB 100c1a85     human_Recorder.obj
 0002:00000a86       ?has_quiet_NaN@_Num_base@std@@2_NB 100c1a86     human_Recorder.obj
 0002:00000a87       ?has_signaling_NaN@_Num_base@std@@2_NB 100c1a87     human_Recorder.obj
 0002:00000a88       ?is_bounded@_Num_base@std@@2_NB 100c1a88     human_Recorder.obj
 0002:00000a89       ?is_exact@_Num_base@std@@2_NB 100c1a89     human_Recorder.obj
 0002:00000a8a       ?is_iec559@_Num_base@std@@2_NB 100c1a8a     human_Recorder.obj
 0002:00000a8b       ?is_integer@_Num_base@std@@2_NB 100c1a8b     human_Recorder.obj
 0002:00000a8c       ?is_modulo@_Num_base@std@@2_NB 100c1a8c     human_Recorder.obj
 0002:00000a8d       ?is_signed@_Num_base@std@@2_NB 100c1a8d     human_Recorder.obj
 0002:00000a8e       ?is_specialized@_Num_base@std@@2_NB 100c1a8e     human_Recorder.obj
 0002:00000a8f       ?tinyness_before@_Num_base@std@@2_NB 100c1a8f     human_Recorder.obj
 0002:00000a90       ?traps@_Num_base@std@@2_NB 100c1a90     human_Recorder.obj
 0002:00000a94       ?round_style@_Num_base@std@@2W4float_round_style@2@B 100c1a94     human_Recorder.obj
 0002:00000a98       ?digits@_Num_base@std@@2HB 100c1a98     human_Recorder.obj
 0002:00000a9c       ?digits10@_Num_base@std@@2HB 100c1a9c     human_Recorder.obj
 0002:00000aa0       ?max_digits10@_Num_base@std@@2HB 100c1aa0     human_Recorder.obj
 0002:00000aa4       ?max_exponent@_Num_base@std@@2HB 100c1aa4     human_Recorder.obj
 0002:00000aa8       ?max_exponent10@_Num_base@std@@2HB 100c1aa8     human_Recorder.obj
 0002:00000aac       ?min_exponent@_Num_base@std@@2HB 100c1aac     human_Recorder.obj
 0002:00000ab0       ?min_exponent10@_Num_base@std@@2HB 100c1ab0     human_Recorder.obj
 0002:00000ab4       ?radix@_Num_base@std@@2HB  100c1ab4     human_Recorder.obj
 0002:00000ab8       ?table_size@?$ctype@D@std@@2IB 100c1ab8     human_Recorder.obj
 0002:00000abc       ?is_bounded@_Num_int_base@std@@2_NB 100c1abc     human_Recorder.obj
 0002:00000abd       ?is_exact@_Num_int_base@std@@2_NB 100c1abd     human_Recorder.obj
 0002:00000abe       ?is_integer@_Num_int_base@std@@2_NB 100c1abe     human_Recorder.obj
 0002:00000abf       ?is_modulo@_Num_int_base@std@@2_NB 100c1abf     human_Recorder.obj
 0002:00000ac0       ?is_specialized@_Num_int_base@std@@2_NB 100c1ac0     human_Recorder.obj
 0002:00000ac4       ?radix@_Num_int_base@std@@2HB 100c1ac4     human_Recorder.obj
 0002:00000ac8       ?has_denorm@_Num_float_base@std@@2W4float_denorm_style@2@B 100c1ac8     human_Recorder.obj
 0002:00000acc       ?has_denorm_loss@_Num_float_base@std@@2_NB 100c1acc     human_Recorder.obj
 0002:00000acd       ?has_infinity@_Num_float_base@std@@2_NB 100c1acd     human_Recorder.obj
 0002:00000ace       ?has_quiet_NaN@_Num_float_base@std@@2_NB 100c1ace     human_Recorder.obj
 0002:00000acf       ?has_signaling_NaN@_Num_float_base@std@@2_NB 100c1acf     human_Recorder.obj
 0002:00000ad0       ?is_bounded@_Num_float_base@std@@2_NB 100c1ad0     human_Recorder.obj
 0002:00000ad1       ?is_exact@_Num_float_base@std@@2_NB 100c1ad1     human_Recorder.obj
 0002:00000ad2       ?is_iec559@_Num_float_base@std@@2_NB 100c1ad2     human_Recorder.obj
 0002:00000ad3       ?is_integer@_Num_float_base@std@@2_NB 100c1ad3     human_Recorder.obj
 0002:00000ad4       ?is_modulo@_Num_float_base@std@@2_NB 100c1ad4     human_Recorder.obj
 0002:00000ad5       ?is_signed@_Num_float_base@std@@2_NB 100c1ad5     human_Recorder.obj
 0002:00000ad6       ?is_specialized@_Num_float_base@std@@2_NB 100c1ad6     human_Recorder.obj
 0002:00000ad7       ?tinyness_before@_Num_float_base@std@@2_NB 100c1ad7     human_Recorder.obj
 0002:00000ad8       ?traps@_Num_float_base@std@@2_NB 100c1ad8     human_Recorder.obj
 0002:00000adc       ?round_style@_Num_float_base@std@@2W4float_round_style@2@B 100c1adc     human_Recorder.obj
 0002:00000ae0       ?radix@_Num_float_base@std@@2HB 100c1ae0     human_Recorder.obj
 0002:00000ae4       ?is_signed@?$numeric_limits@D@std@@2_NB 100c1ae4     human_Recorder.obj
 0002:00000ae8       ?digits@?$numeric_limits@D@std@@2HB 100c1ae8     human_Recorder.obj
 0002:00000aec       ?digits10@?$numeric_limits@D@std@@2HB 100c1aec     human_Recorder.obj
 0002:00000af0       ?is_signed@?$numeric_limits@_W@std@@2_NB 100c1af0     human_Recorder.obj
 0002:00000af4       ?digits@?$numeric_limits@_W@std@@2HB 100c1af4     human_Recorder.obj
 0002:00000af8       ?digits10@?$numeric_limits@_W@std@@2HB 100c1af8     human_Recorder.obj
 0002:00000b00       ??_C@_1HI@INMNAKMP@?$AAD?$AA?3?$AA?2?$AAP?$AAr?$AAo?$AAg?$AAr?$AAa?$AAm?$AA?2?$AAM?$AAi?$AAc?$AAr?$AAo?$AAs?$AAo?$AAf?$AAt?$AA?5?$AAV?$AAi?$AAs?$AAu?$AAa?$AAl?$AA?5?$AAS?$AAt?$AAu?$AAd@ 100c1b00     human_Recorder.obj
 0002:00000b78       ??_C@_1DC@POOIKBAO@?$AAI?$AAT?$AAE?$AAR?$AAA?$AAT?$AAO?$AAR?$AA?5?$AAL?$AAI?$AAS?$AAT?$AA?5?$AAC?$AAO?$AAR?$AAR?$AAU?$AAP?$AAT?$AAE?$AAD?$AA?$CB?$AA?$AA@ 100c1b78     human_Recorder.obj
 0002:00000bac       ?npos@?$basic_string@DU?$char_traits@D@std@@V?$allocator@D@2@@std@@2IB 100c1bac     human_Recorder.obj
 0002:00000bb4       ??_7runtime_error@std@@6B@ 100c1bb4     human_Recorder.obj
 0002:00000bbc       ??_C@_0BA@ELKIONDK@bad?5locale?5name?$AA@ 100c1bbc     human_Recorder.obj
 0002:00000bcc       ??_C@_05LAPONLG@false?$AA@ 100c1bcc     human_Recorder.obj
 0002:00000bd4       ??_C@_04LOAJBDKD@true?$AA@ 100c1bd4     human_Recorder.obj
 0002:00000be0       ??_7_Facet_base@std@@6B@   100c1be0     human_Recorder.obj
 0002:00000bf0       ??_7facet@locale@std@@6B@  100c1bf0     human_Recorder.obj
 0002:00000bfc       ??_C@_0DL@CPCDAFLF@D?3?2Program?2Microsoft?5Visual?5Stud@ 100c1bfc     human_Recorder.obj
 0002:00000c37       ??_C@_00CNPNBAHC@?$AA@     100c1c37     human_Recorder.obj
 0002:00000c3c       ??_7codecvt_base@std@@6B@  100c1c3c     human_Recorder.obj
 0002:00000c58       ??_C@_1HG@MCNNMNII@?$AAD?$AA?3?$AA?2?$AAP?$AAr?$AAo?$AAg?$AAr?$AAa?$AAm?$AA?2?$AAM?$AAi?$AAc?$AAr?$AAo?$AAs?$AAo?$AAf?$AAt?$AA?5?$AAV?$AAi?$AAs?$AAu?$AAa?$AAl?$AA?5?$AAS?$AAt?$AAu?$AAd@ 100c1c58     human_Recorder.obj
 0002:00000cd4       ??_7ctype_base@std@@6B@    100c1cd4     human_Recorder.obj
 0002:00000ce4       ??_7?$ctype@D@std@@6B@     100c1ce4     human_Recorder.obj
 0002:00000d14       ??_7error_category@std@@6B@ 100c1d14     human_Recorder.obj
 0002:00000d30       ??_7system_error@std@@6B@  100c1d30     human_Recorder.obj
 0002:00000d3c       ??_7_Generic_error_category@std@@6B@ 100c1d3c     human_Recorder.obj
 0002:00000d54       ??_C@_07DCLBNMLN@generic?$AA@ 100c1d54     human_Recorder.obj
 0002:00000d5c       ??_C@_0O@BFJCFAAK@unknown?5error?$AA@ 100c1d5c     human_Recorder.obj
 0002:00000d70       ??_7_Iostream_error_category@std@@6B@ 100c1d70     human_Recorder.obj
 0002:00000d88       ??_C@_08LLGCOLLL@iostream?$AA@ 100c1d88     human_Recorder.obj
 0002:00000d94       ??_C@_0BG@PADBLCHM@iostream?5stream?5error?$AA@ 100c1d94     human_Recorder.obj
 0002:00000db0       ??_7_System_error_category@std@@6B@ 100c1db0     human_Recorder.obj
 0002:00000dc8       ??_C@_06FHFOAHML@system?$AA@ 100c1dc8     human_Recorder.obj
 0002:00000dd4       ??_7failure@ios_base@std@@6B@ 100c1dd4     human_Recorder.obj
 0002:00000de0       ??_7ios_base@std@@6B@      100c1de0     human_Recorder.obj
 0002:00000de4       ??_C@_0BF@PHHKMMFD@ios_base?3?3badbit?5set?$AA@ 100c1de4     human_Recorder.obj
 0002:00000dfc       ??_C@_0BG@FMKFHCIL@ios_base?3?3failbit?5set?$AA@ 100c1dfc     human_Recorder.obj
 0002:00000e14       ??_C@_0BF@OOHOMBOF@ios_base?3?3eofbit?5set?$AA@ 100c1e14     human_Recorder.obj
 0002:00000e2c       ??_C@_0DM@EFPJIKNE@D?3?2Program?2Microsoft?5Visual?5Stud@ 100c1e2c     human_Recorder.obj
 0002:00000e68       ??_C@_0DL@KMGOAHBE@D?3?2Program?2Microsoft?5Visual?5Stud@ 100c1e68     human_Recorder.obj
 0002:00000ea8       ??_7?$basic_ios@DU?$char_traits@D@std@@@std@@6B@ 100c1ea8     human_Recorder.obj
 0002:00000eb8       ??_7?$basic_ostream@DU?$char_traits@D@std@@@std@@6B@ 100c1eb8     human_Recorder.obj
 0002:00000ec4       ??_8?$basic_ostream@DU?$char_traits@D@std@@@std@@7B@ 100c1ec4     human_Recorder.obj
 0002:00000ed4       ??_7?$basic_streambuf@DU?$char_traits@D@std@@@std@@6B@ 100c1ed4     human_Recorder.obj
 0002:00000f14       ??_7?$basic_filebuf@DU?$char_traits@D@std@@@std@@6B@ 100c1f14     human_Recorder.obj
 0002:00000f54       ??_7?$basic_ofstream@DU?$char_traits@D@std@@@std@@6B@ 100c1f54     human_Recorder.obj
 0002:00000f60       ??_8?$basic_ofstream@DU?$char_traits@D@std@@@std@@7B@ 100c1f60     human_Recorder.obj
 0002:00000f68       ??_C@_1HG@HDDJJEAD@?$AAD?$AA?3?$AA?2?$AAP?$AAr?$AAo?$AAg?$AAr?$AAa?$AAm?$AA?2?$AAM?$AAi?$AAc?$AAr?$AAo?$AAs?$AAo?$AAf?$AAt?$AA?5?$AAV?$AAi?$AAs?$AAu?$AAa?$AAl?$AA?5?$AAS?$AAt?$AAu?$AAd@ 100c1f68     human_Recorder.obj
 0002:00000fe0       ??_C@_1HG@KBKDBFBG@?$AAD?$AA?3?$AA?2?$AAP?$AAr?$AAo?$AAg?$AAr?$AAa?$AAm?$AA?2?$AAM?$AAi?$AAc?$AAr?$AAo?$AAs?$AAo?$AAf?$AAt?$AA?5?$AAV?$AAi?$AAs?$AAu?$AAa?$AAl?$AA?5?$AAS?$AAt?$AAu?$AAd@ 100c1fe0     human_Recorder.obj
 0002:0000105c       ??_7?$num_put@DV?$ostreambuf_iterator@DU?$char_traits@D@std@@@std@@@std@@6B@ 100c205c     human_Recorder.obj
 0002:0000108c       ??_7?$codecvt@DDH@std@@6B@ 100c208c     human_Recorder.obj
 0002:000010b8       ??_C@_1HG@PKJAKEJI@?$AAD?$AA?3?$AA?2?$AAP?$AAr?$AAo?$AAg?$AAr?$AAa?$AAm?$AA?2?$AAM?$AAi?$AAc?$AAr?$AAo?$AAs?$AAo?$AAf?$AAt?$AA?5?$AAV?$AAi?$AAs?$AAu?$AAa?$AAl?$AA?5?$AAS?$AAt?$AAu?$AAd@ 100c20b8     human_Recorder.obj
 0002:00001134       ??_7?$numpunct@D@std@@6B@  100c2134     human_Recorder.obj
 0002:00001154       ??_C@_02EAOCLKAK@ld?$AA@   100c2154     human_Recorder.obj
 0002:00001158       ??_C@_02BDDLJJBK@lu?$AA@   100c2158     human_Recorder.obj
 0002:0000115c       ??_C@_02HIKPPMOK@Ld?$AA@   100c215c     human_Recorder.obj
 0002:00001160       ??_C@_02CLHGNPPK@Lu?$AA@   100c2160     human_Recorder.obj
 0002:00001164       ??_C@_02BBAHNLBA@?$CFp?$AA@ 100c2164     human_Recorder.obj
 0002:00001168       ??_C@_0BA@JFNIOLAK@string?5too?5long?$AA@ 100c2168     human_Recorder.obj
 0002:00001178       ??_C@_0BI@CFPLBAOH@invalid?5string?5position?$AA@ 100c2178     human_Recorder.obj
 0002:00001190       ??_C@_0DN@EDGEPMJM@D?3?2Program?2Microsoft?5Visual?5Stud@ 100c2190     human_Recorder.obj
 0002:000011d0       ??_C@_02MDKMJEGG@eE?$AA@   100c21d0     human_Recorder.obj
 0002:000011d4       ??_C@_02OOPEBDOJ@pP?$AA@   100c21d4     human_Recorder.obj
 0002:000011d8       ??_C@_01LFCBOECM@?4?$AA@   100c21d8     human_Recorder.obj
 0002:000011e0       ??_C@_1EG@CNCHLAOB@?$AAs?$AAt?$AAr?$AAi?$AAn?$AAg?$AA?5?$AAi?$AAt?$AAe?$AAr?$AAa?$AAt?$AAo?$AAr?$AA?5?$AAn?$AAo?$AAt?$AA?5?$AAd?$AAe?$AAr?$AAe?$AAf?$AAe?$AAr?$AAe?$AAn?$AAc?$AAa?$AAb@ 100c21e0     human_Recorder.obj
 0002:00001228       ??_C@_0CE@OFMIGAMM@Standard?5C?$CL?$CL?5Libraries?5Out?5of?5Ra@ 100c2228     human_Recorder.obj
 0002:00001250       ??_C@_1FG@IBPIFFN@?$AA?$CC?$AAS?$AAt?$AAa?$AAn?$AAd?$AAa?$AAr?$AAd?$AA?5?$AAC?$AA?$CL?$AA?$CL?$AA?5?$AAL?$AAi?$AAb?$AAr?$AAa?$AAr?$AAi?$AAe?$AAs?$AA?5?$AAO?$AAu?$AAt?$AA?5?$AAo?$AAf?$AA?5?$AAR@ 100c2250     human_Recorder.obj
 0002:000012a8       ??_C@_15GANGMFKL@?$AA?$CF?$AAs?$AA?$AA@ 100c22a8     human_Recorder.obj
 0002:000012b0       ??_C@_1MG@GDGHDIKC@?$AAs?$AAt?$AAd?$AA?3?$AA?3?$AA_?$AAS?$AAt?$AAr?$AAi?$AAn?$AAg?$AA_?$AAc?$AAo?$AAn?$AAs?$AAt?$AA_?$AAi?$AAt?$AAe?$AAr?$AAa?$AAt?$AAo?$AAr?$AA?$DM?$AAc?$AAl?$AAa?$AAs@ 100c22b0     human_Recorder.obj
 0002:00001378       ??_C@_1BO@MEPPHOO@?$AA?$CC?$AAo?$AAu?$AAt?$AA?5?$AAo?$AAf?$AA?5?$AAr?$AAa?$AAn?$AAg?$AAe?$AA?$CC?$AA?$AA@ 100c2378     human_Recorder.obj
 0002:00001398       ??_C@_1DM@GMPLOCPK@?$AAs?$AAt?$AAr?$AAi?$AAn?$AAg?$AA?5?$AAs?$AAu?$AAb?$AAs?$AAc?$AAr?$AAi?$AAp?$AAt?$AA?5?$AAo?$AAu?$AAt?$AA?5?$AAo?$AAf?$AA?5?$AAr?$AAa?$AAn?$AAg?$AAe?$AA?$AA@ 100c2398     human_Recorder.obj
 0002:000013d4       ??_C@_1CK@EOPGIILJ@?$AAi?$AAn?$AAv?$AAa?$AAl?$AAi?$AAd?$AA?5?$AAn?$AAu?$AAl?$AAl?$AA?5?$AAp?$AAo?$AAi?$AAn?$AAt?$AAe?$AAr?$AA?$AA@ 100c23d4     human_Recorder.obj
 0002:00001400       ??_C@_08EPJLHIJG@bad?5cast?$AA@ 100c2400     human_Recorder.obj
 0002:0000140c       ??_C@_1CO@DGLIKNHI@?$AAi?$AAn?$AAv?$AAa?$AAl?$AAi?$AAd?$AA?5?$AAi?$AAt?$AAe?$AAr?$AAa?$AAt?$AAo?$AAr?$AA?5?$AAr?$AAa?$AAn?$AAg?$AAe?$AA?$AA@ 100c240c     human_Recorder.obj
 0002:0000143c       __real@00000000            100c243c     human_Recorder.obj
 0002:00001440       __real@0000000000000000    100c2440     human_Recorder.obj
 0002:00001448       __real@38aa95a5b7f87a0f    100c2448     human_Recorder.obj
 0002:00001450       __real@3e4ccccd            100c2450     human_Recorder.obj
 0002:00001454       __real@3ea9fbe7            100c2454     human_Recorder.obj
 0002:00001458       __real@3f454c985f06f694    100c2458     human_Recorder.obj
 0002:00001460       __real@3f4a36e2eb1c432d    100c2460     human_Recorder.obj
 0002:00001468       __real@3f800000            100c2468     human_Recorder.obj
 0002:00001470       __real@3f947ae147ae147b    100c2470     human_Recorder.obj
 0002:00001478       __real@3fb999999999999a    100c2478     human_Recorder.obj
 0002:00001480       __real@3fc3333333333333    100c2480     human_Recorder.obj
 0002:00001488       __real@3fc999999999999a    100c2488     human_Recorder.obj
 0002:00001490       __real@3fd6666666666666    100c2490     human_Recorder.obj
 0002:00001498       __real@3fe0000000000000    100c2498     human_Recorder.obj
 0002:000014a0       __real@3fe3333333333333    100c24a0     human_Recorder.obj
 0002:000014a8       __real@3fe6666666666666    100c24a8     human_Recorder.obj
 0002:000014b0       __real@3fe999999999999a    100c24b0     human_Recorder.obj
 0002:000014b8       __real@3feb333333333333    100c24b8     human_Recorder.obj
 0002:000014c0       __real@3ff0000000000000    100c24c0     human_Recorder.obj
 0002:000014c8       __real@40000000            100c24c8     human_Recorder.obj
 0002:000014d0       __real@4000000000000000    100c24d0     human_Recorder.obj
 0002:000014d8       __real@400ccccccccccccd    100c24d8     human_Recorder.obj
 0002:000014e0       __real@4010000000000000    100c24e0     human_Recorder.obj
 0002:000014e8       __real@4014000000000000    100c24e8     human_Recorder.obj
 0002:000014f0       __real@4018000000000000    100c24f0     human_Recorder.obj
 0002:000014f8       __real@40200000            100c24f8     human_Recorder.obj
 0002:00001500       __real@4024000000000000    100c2500     human_Recorder.obj
 0002:00001508       __real@4034000000000000    100c2508     human_Recorder.obj
 0002:00001510       __real@40800000            100c2510     human_Recorder.obj
 0002:00001514       __real@40a00000            100c2514     human_Recorder.obj
 0002:00001518       __real@41f00000            100c2518     human_Recorder.obj
 0002:00001520       __real@4202a05f20000000    100c2520     human_Recorder.obj
 0002:00001528       __real@42700000            100c2528     human_Recorder.obj
 0002:0000152c       __real@42820000            100c252c     human_Recorder.obj
 0002:00001530       __real@42b40000            100c2530     human_Recorder.obj
 0002:00001534       __real@42c80000            100c2534     human_Recorder.obj
 0002:00001538       __real@461c4000            100c2538     human_Recorder.obj
 0002:00001540       __real@4733426172c74d82    100c2540     human_Recorder.obj
 0002:00001548       __real@bf800000            100c2548     human_Recorder.obj
 0002:00001550       __real@bff0000000000000    100c2550     human_Recorder.obj
 0002:00001558       __real@c1f00000            100c2558     human_Recorder.obj
 0002:0000155c       __real@c2700000            100c255c     human_Recorder.obj
 0002:00001560       __real@c2b40000            100c2560     human_Recorder.obj
 0002:00001570       __xmm@80000000000000008000000000000000 100c2570     human_Recorder.obj
 0002:00001580       __xmm@80000000800000008000000080000000 100c2580     human_Recorder.obj
 0002:000015a0       ?PATHERR@MyCar@@2NB        100c25a0     mycar.obj
 0002:000015a8       ?CORRLEN@MyCar@@2NB        100c25a8     mycar.obj
 0002:000015b0       ?TURNTOL@MyCar@@2NB        100c25b0     mycar.obj
 0002:000015b8       ?TURNSPEED@MyCar@@2NB      100c25b8     mycar.obj
 0002:000015c0       ?MARGIN@MyCar@@2NB         100c25c0     mycar.obj
 0002:000015c8       ?STABLESPEED@MyCar@@2NB    100c25c8     mycar.obj
 0002:000015d0       ?TIMETOCATCH@MyCar@@2NB    100c25d0     mycar.obj
 0002:000015d8       ?MINOVERTAKERANGE@MyCar@@2NB 100c25d8     mycar.obj
 0002:000015e0       ?OVERTAKERADIUS@MyCar@@2NB 100c25e0     mycar.obj
 0002:000015e8       ?OVERTAKEDIST@MyCar@@2NB   100c25e8     mycar.obj
 0002:000015f0       ?OVERTAKEMINDIST@MyCar@@2NB 100c25f0     mycar.obj
 0002:000015f8       ?OVERTAKEANGLE@MyCar@@2NB  100c25f8     mycar.obj
 0002:00001600       ?OVERTAKEMARGIN@MyCar@@2NB 100c2600     mycar.obj
 0002:00001608       ?MAXALLOWEDPITCH@MyCar@@2NB 100c2608     mycar.obj
 0002:00001610       ?FLYSPEED@MyCar@@2NB       100c2610     mycar.obj
 0002:00001618       ?OVERLAPSTARTDIST@MyCar@@2NB 100c2618     mycar.obj
 0002:00001620       ?OVERLAPPASSDIST@MyCar@@2NB 100c2620     mycar.obj
 0002:00001628       ?OVERLAPWAITTIME@MyCar@@2NB 100c2628     mycar.obj
 0002:00001630       ?LAPBACKTIMEPENALTY@MyCar@@2NB 100c2630     mycar.obj
 0002:00001638       ?TCL_SLIP@MyCar@@2NB       100c2638     mycar.obj
 0002:00001640       ?TCL_RANGE@MyCar@@2NB      100c2640     mycar.obj
 0002:00001650       ?SHIFT@MyCar@@2NB          100c2650     mycar.obj
 0002:00001658       ?SHIFT_MARGIN@MyCar@@2NB   100c2658     mycar.obj
 0002:00001660       ?MAX_SPEED@MyCar@@2NB      100c2660     mycar.obj
 0002:00001668       ?MAX_FUEL_PER_METER@MyCar@@2NB 100c2668     mycar.obj
 0002:00001670       ?LOOKAHEAD_MAX_ERROR@MyCar@@2NB 100c2670     mycar.obj
 0002:00001678       ?LOOKAHEAD_FACTOR@MyCar@@2NB 100c2678     mycar.obj
 0002:0000187c       ??_C@_09KBFOLGED@GC?5height?$AA@ 100c287c     mycar.obj
 0002:00001888       ??_C@_03DAGGNFD@Car?$AA@   100c2888     mycar.obj
 0002:00001890       __real@3f847ae147ae147b    100c2890     mycar.obj
 0002:00001898       __real@3fcccccd            100c2898     mycar.obj
 0002:000018a0       __real@3fdd70a3d70a3d71    100c28a0     mycar.obj
 0002:000018a8       __real@3fe4000000000000    100c28a8     mycar.obj
 0002:000018b0       __real@3feccccccccccccd    100c28b0     mycar.obj
 0002:000018b8       __real@3fee666666666666    100c28b8     mycar.obj
 0002:000018c0       __real@3fef5c28f5c28f5c    100c28c0     mycar.obj
 0002:000018c8       __real@3ff199999999999a    100c28c8     mycar.obj
 0002:000018d0       __real@3ff3333333333333    100c28d0     mycar.obj
 0002:000018d8       __real@3ff3ae147ae147ae    100c28d8     mycar.obj
 0002:000018e0       __real@3ff4cccccccccccd    100c28e0     mycar.obj
 0002:000018e8       __real@3ff8000000000000    100c28e8     mycar.obj
 0002:000018f0       __real@3ff999999999999a    100c28f0     mycar.obj
 0002:000018f8       __real@402e000000000000    100c28f8     mycar.obj
 0002:00001900       __real@4039000000000000    100c2900     mycar.obj
 0002:00001908       __real@4046800000000000    100c2908     mycar.obj
 0002:00001910       __real@43340000            100c2910     mycar.obj
 0002:00001918       __real@47efffffe0000000    100c2918     mycar.obj
 0002:00001920       __real@c008000000000000    100c2920     mycar.obj
 0002:00001928       ?COLLDIST@Pathfinder@@0NB  100c2928     pathfinder.obj
 0002:000019f0       __real@3e112e0be826d695    100c29f0     pathfinder.obj
 0002:000019f8       __real@3f1a36e2eb1c432d    100c29f8     pathfinder.obj
 0002:00001a00       __real@4008000000000000    100c2a00     pathfinder.obj
 0002:00001a08       __real@401e000000000000    100c2a08     pathfinder.obj
 0002:00001a10       __real@4066800000000000    100c2a10     pathfinder.obj
 0002:00001a18       __real@407c200000000000    100c2a18     pathfinder.obj
 0002:00001a20       __real@407f400000000000    100c2a20     pathfinder.obj
 0002:00001a28       __real@4089000000000000    100c2a28     pathfinder.obj
 0002:00001a30       __real@408f400000000000    100c2a30     pathfinder.obj
 0002:00001a38       __real@40c3880000000000    100c2a38     pathfinder.obj
 0002:00001d1c       ?nbCmdControl@@3HB         100c2d1c     pref.obj
 0002:00001e60       __real@4059000000000000    100c2e60     pref.obj
 0002:00001e78       __real@3dcccccd            100c2e78     sensors.obj
 0002:00001ee0       __real@7f7fffff            100c2ee0     trackdesc.obj
 0002:00001ee8       __real@404ca5dc1a63c1f8    100c2ee8     sg_vs2008_32:sgd.obj
 0002:00001ef0       __real@3f91df46a2529d39    100c2ef0     sg_vs2008_32:sgd.obj
 0002:00001ef8       __real@4022d97c7f3321d2    100c2ef8     sg_vs2008_32:sgd.obj
 0002:00001f00       __real@400921fb54442d18    100c2f00     sg_vs2008_32:sgd.obj
 0002:00001f08       __real@401921fb54442d18    100c2f08     sg_vs2008_32:sgd.obj
 0002:00001f10       __real@3ff921fb54442d18    100c2f10     sg_vs2008_32:sgd.obj
 0002:00001f18       __real@3fefffeb074a771d    100c2f18     sg_vs2008_32:sgd.obj
 0002:00001f20       __real@bff921fb54442d18    100c2f20     sg_vs2008_32:sgd.obj
 0002:00001f28       __real@bfefffeb074a771d    100c2f28     sg_vs2008_32:sgd.obj
 0002:00001f30       ??_C@_0CL@MFADICKC@sgdGetAngleBetweenVectors?3?5Norma@ 100c2f30     sg_vs2008_32:sgd.obj
 0002:00001f60       __real@c000000000000000    100c2f60     sg_vs2008_32:sgd.obj
 0002:00001f68       ??_C@_0ED@LKGOFPEJ@sgFrustum?3?5Can?8t?5support?5fields?5@ 100c2f68     sg_vs2008_32:sgd.obj
 0002:00001fac       ??_C@_0DF@MFOAFILF@sgFrustum?3?5Can?8t?5support?5width?5o@ 100c2fac     sg_vs2008_32:sgd.obj
 0002:00001fe4       ??_C@_0DE@FLABMHND@sgdFrustum?3?5Can?8t?5support?5depth?5@ 100c2fe4     sg_vs2008_32:sgd.obj
 0002:00002018       __real@bee4f8b588e368f1    100c3018     sg_vs2008_32:sgd.obj
 0002:00002020       ??_C@_0CE@HBHLABFJ@sgdMat4ToCoord?3?5ERROR?5?9?5Bad?5Matr@ 100c3020     sg_vs2008_32:sgd.obj
 0002:00002048       __real@3ee4f8b588e368f1    100c3048     sg_vs2008_32:sgd.obj
 0002:00002050       ??_C@_0CJ@BEEFNIHJ@sg?3?5ERROR?5?9?5Singular?5matrix?0?5no?5@ 100c3050     sg_vs2008_32:sgd.obj
 0002:00002080       __real@3cb0000000000000    100c3080     sg_vs2008_32:sgd.obj
 0002:00002088       __real@c04ca5dc1a63c1f8    100c3088     sg_vs2008_32:sgd.obj
 0002:00002090       __real@3feffffde7210be9    100c3090     sg_vs2008_32:sgd.obj
 0002:00002098       __real@3eb0c6f7a0b5ed8d    100c3098     sg_vs2008_32:sgd.obj
 0002:000020a0       __real@404e000000000000    100c30a0     sg_vs2008_32:sgd.obj
 0002:000020a8       __real@4056800000000000    100c30a8     sg_vs2008_32:sgd.obj
 0002:000020b0       ??_C@_05JLFELJNP@FATAL?$AA@ 100c30b0     ul_vs2008_32:ulError.obj
 0002:000020b8       ??_C@_07KCOHIFOP@WARNING?$AA@ 100c30b8     ul_vs2008_32:ulError.obj
 0002:000020c0       ??_C@_05KOLFGEDA@DEBUG?$AA@ 100c30c0     ul_vs2008_32:ulError.obj
 0002:000020cc       ??_C@_07KJFPOMFC@?$CFs?3?5?$CFs?6?$AA@ 100c30cc     ul_vs2008_32:ulError.obj
 0002:000020d4       ?_VBITS@?$vector@_NV?$allocator@_N@std@@@std@@2HB 100c30d4     libcpmtd:xthrow.obj
 0002:000020d8       ?value@?$integral_constant@H$0A@@std@@2HB 100c30d8     libcpmtd:xthrow.obj
 0002:000020e0       ?_Names@?$_Regex_traits@D@std@@0QBU?$_Cl_names@D@2@B 100c30e0     libcpmtd:xthrow.obj
 0002:000021a0       ??_C@_05IIMHCHIO@alnum?$AA@ 100c31a0     libcpmtd:xthrow.obj
 0002:000021a8       ??_C@_05IAEKHIAN@alpha?$AA@ 100c31a8     libcpmtd:xthrow.obj
 0002:000021b0       ??_C@_05BABJKOGB@blank?$AA@ 100c31b0     libcpmtd:xthrow.obj
 0002:000021b8       ??_C@_05JMDPEFNK@cntrl?$AA@ 100c31b8     libcpmtd:xthrow.obj
 0002:000021c0       ??_C@_01LPLHEDKD@d?$AA@    100c31c0     libcpmtd:xthrow.obj
 0002:000021c4       ??_C@_05ODNOIFML@digit?$AA@ 100c31c4     libcpmtd:xthrow.obj
 0002:000021cc       ??_C@_05KCJBMLII@graph?$AA@ 100c31cc     libcpmtd:xthrow.obj
 0002:000021d4       ??_C@_05IPJEPLHL@lower?$AA@ 100c31d4     libcpmtd:xthrow.obj
 0002:000021dc       ??_C@_05IJDJACGD@print?$AA@ 100c31dc     libcpmtd:xthrow.obj
 0002:000021e4       ??_C@_05KOBGHFJJ@punct?$AA@ 100c31e4     libcpmtd:xthrow.obj
 0002:000021ec       ??_C@_05OLNILLAB@space?$AA@ 100c31ec     libcpmtd:xthrow.obj
 0002:000021f4       ??_C@_01LKDEMHDF@s?$AA@    100c31f4     libcpmtd:xthrow.obj
 0002:000021f8       ??_C@_05NECKJAMC@upper?$AA@ 100c31f8     libcpmtd:xthrow.obj
 0002:00002200       ??_C@_01NOFIACDB@w?$AA@    100c3200     libcpmtd:xthrow.obj
 0002:00002204       ??_C@_06BAPHGFFK@xdigit?$AA@ 100c3204     libcpmtd:xthrow.obj
 0002:00002210       ?_Names@?$_Regex_traits@_W@std@@0QBU?$_Cl_names@_W@2@B 100c3210     libcpmtd:xthrow.obj
 0002:000022d0       ??_C@_1M@KLMEPMCM@?$AAa?$AAl?$AAn?$AAu?$AAm?$AA?$AA@ 100c32d0     libcpmtd:xthrow.obj
 0002:000022dc       ??_C@_1M@DHGLHBMI@?$AAa?$AAl?$AAp?$AAh?$AAa?$AA?$AA@ 100c32dc     libcpmtd:xthrow.obj
 0002:000022e8       ??_C@_1M@EJAAJBPE@?$AAb?$AAl?$AAa?$AAn?$AAk?$AA?$AA@ 100c32e8     libcpmtd:xthrow.obj
 0002:000022f4       ??_C@_1M@LMIMILA@?$AAc?$AAn?$AAt?$AAr?$AAl?$AA?$AA@ 100c32f4     libcpmtd:xthrow.obj
 0002:00002300       ??_C@_13GKPPEALH@?$AAd?$AA?$AA@ 100c3300     libcpmtd:xthrow.obj
 0002:00002304       ??_C@_1M@JDAEIBKG@?$AAd?$AAi?$AAg?$AAi?$AAt?$AA?$AA@ 100c3304     libcpmtd:xthrow.obj
 0002:00002310       ??_C@_1M@MDKNJLLK@?$AAg?$AAr?$AAa?$AAp?$AAh?$AA?$AA@ 100c3310     libcpmtd:xthrow.obj
 0002:0000231c       ??_C@_1M@LGAECJJD@?$AAl?$AAo?$AAw?$AAe?$AAr?$AA?$AA@ 100c331c     libcpmtd:xthrow.obj
 0002:00002328       ??_C@_1M@ELNLAPLA@?$AAp?$AAr?$AAi?$AAn?$AAt?$AA?$AA@ 100c3328     libcpmtd:xthrow.obj
 0002:00002334       ??_C@_1M@BPFMAOAO@?$AAp?$AAu?$AAn?$AAc?$AAt?$AA?$AA@ 100c3334     libcpmtd:xthrow.obj
 0002:00002340       ??_C@_1M@LPGODFOM@?$AAs?$AAp?$AAa?$AAc?$AAe?$AA?$AA@ 100c3340     libcpmtd:xthrow.obj
 0002:0000234c       ??_C@_13KHDBCPJB@?$AAs?$AA?$AA@ 100c334c     libcpmtd:xthrow.obj
 0002:00002350       ??_C@_1M@PLNFCNIC@?$AAu?$AAp?$AAp?$AAe?$AAr?$AA?$AA@ 100c3350     libcpmtd:xthrow.obj
 0002:0000235c       ??_C@_13CIFDLIMG@?$AAw?$AA?$AA@ 100c335c     libcpmtd:xthrow.obj
 0002:00002360       ??_C@_1O@OAFMJDHN@?$AAx?$AAd?$AAi?$AAg?$AAi?$AAt?$AA?$AA@ 100c3360     libcpmtd:xthrow.obj
 0002:00002374       ??_7bad_alloc@std@@6B@     100c3374     libcpmtd:xthrow.obj
 0002:0000237c       ??_C@_0P@GHFPNOJB@bad?5allocation?$AA@ 100c337c     libcpmtd:xthrow.obj
 0002:00002390       ??_7logic_error@std@@6B@   100c3390     libcpmtd:xthrow.obj
 0002:0000239c       ??_7invalid_argument@std@@6B@ 100c339c     libcpmtd:xthrow.obj
 0002:000023a8       ??_7length_error@std@@6B@  100c33a8     libcpmtd:xthrow.obj
 0002:000023b4       ??_7out_of_range@std@@6B@  100c33b4     libcpmtd:xthrow.obj
 0002:000023c0       ??_7overflow_error@std@@6B@ 100c33c0     libcpmtd:xthrow.obj
 0002:000023cc       ??_7bad_function_call@std@@6B@ 100c33cc     libcpmtd:xthrow.obj
 0002:000023d4       ??_C@_0BC@DPJNKNAF@bad?5function?5call?$AA@ 100c33d4     libcpmtd:xthrow.obj
 0002:000023ec       ??_7regex_error@std@@6B@   100c33ec     libcpmtd:xthrow.obj
 0002:000023f8       ??_C@_0FI@CMNGHIFF@regex_error?$CIerror_collate?$CJ?3?5The?5@ 100c33f8     libcpmtd:xthrow.obj
 0002:00002450       ??_C@_0FE@LJMHKIOC@regex_error?$CIerror_ctype?$CJ?3?5The?5ex@ 100c3450     libcpmtd:xthrow.obj
 0002:000024a8       ??_C@_0GI@HEGGMMDL@regex_error?$CIerror_escape?$CJ?3?5The?5e@ 100c34a8     libcpmtd:xthrow.obj
 0002:00002510       ??_C@_0FA@HFMLPGNN@regex_error?$CIerror_backref?$CJ?3?5The?5@ 100c3510     libcpmtd:xthrow.obj
 0002:00002560       ??_C@_0EH@LGEANNAL@regex_error?$CIerror_brack?$CJ?3?5The?5ex@ 100c3560     libcpmtd:xthrow.obj
 0002:000025a8       ??_C@_0EH@CAGOJGLE@regex_error?$CIerror_paren?$CJ?3?5The?5ex@ 100c35a8     libcpmtd:xthrow.obj
 0002:000025f0       ??_C@_0EH@DICJJKLO@regex_error?$CIerror_brace?$CJ?3?5The?5ex@ 100c35f0     libcpmtd:xthrow.obj
 0002:00002638       ??_C@_0FM@BLDIHIBB@regex_error?$CIerror_badbrace?$CJ?3?5The@ 100c3638     libcpmtd:xthrow.obj
 0002:00002698       ??_C@_0HA@ICNJLCMC@regex_error?$CIerror_range?$CJ?3?5The?5ex@ 100c3698     libcpmtd:xthrow.obj
 0002:00002708       ??_C@_0GP@PICOBCHA@regex_error?$CIerror_space?$CJ?3?5There?5@ 100c3708     libcpmtd:xthrow.obj
 0002:00002778       ??_C@_0FK@LCHHHEOA@regex_error?$CIerror_badrepeat?$CJ?3?5On@ 100c3778     libcpmtd:xthrow.obj
 0002:000027d8       ??_C@_0HL@NEKOFBJA@regex_error?$CIerror_complexity?$CJ?3?5T@ 100c37d8     libcpmtd:xthrow.obj
 0002:00002858       ??_C@_0JC@HCDLJLGO@regex_error?$CIerror_stack?$CJ?3?5There?5@ 100c3858     libcpmtd:xthrow.obj
 0002:000028ec       ??_C@_0BJ@CHBLKGNM@regex_error?$CIerror_parse?$CJ?$AA@ 100c38ec     libcpmtd:xthrow.obj
 0002:00002908       ??_C@_0BK@DFJCACNI@regex_error?$CIerror_syntax?$CJ?$AA@ 100c3908     libcpmtd:xthrow.obj
 0002:00002924       ??_C@_0M@KGKAAGCA@regex_error?$AA@ 100c3924     libcpmtd:xthrow.obj
 0002:00002930       ??_C@_1FO@BEGKGBFG@?$AAf?$AA?3?$AA?2?$AAd?$AAd?$AA?2?$AAv?$AAc?$AAt?$AAo?$AAo?$AAl?$AAs?$AA?2?$AAc?$AAr?$AAt?$AA_?$AAb?$AAl?$AAd?$AA?2?$AAs?$AAe?$AAl?$AAf?$AA_?$AAx?$AA8?$AA6?$AA?2?$AAc@ 100c3930     libcpmtd:xthrow.obj
 0002:00002990       ??_C@_0DC@CFILDBAI@f?3?2dd?2vctools?2crt_bld?2self_x86?2c@ 100c3990     libcpmtd:_tolower.obj
 0002:000029c4       ??_C@_0DD@IMKCHGBE@f?3?2dd?2vctools?2crt_bld?2self_x86?2c@ 100c39c4     libcpmtd:locale0.obj
 0002:000029fc       ??_7_Locimp@locale@std@@6B@ 100c39fc     libcpmtd:locale0.obj
 0002:00002a08       ??_C@_01NBENCBCI@?$CK?$AA@ 100c3a08     libcpmtd:locale0.obj
 0002:00002a0c       ??_C@_01GFHCPBMG@C?$AA@    100c3a0c     libcpmtd:locale0.obj
 0002:00002a10       ??_C@_0DA@CHOJEIKD@f?3?2dd?2vctools?2crt_bld?2self_x86?2c@ 100c3a10     libcpmtd:locale0.obj
 0002:00002f18       ??_C@_0BC@CIJDGCDI@permission?5denied?$AA@ 100c3f18     libcpmtd:syserror.obj
 0002:00002f2c       ??_C@_0M@MIDIAGJP@file?5exists?$AA@ 100c3f2c     libcpmtd:syserror.obj
 0002:00002f38       ??_C@_0P@FDINDDOK@no?5such?5device?$AA@ 100c3f38     libcpmtd:syserror.obj
 0002:00002f48       ??_C@_0BC@EJHOMAAK@filename?5too?5long?$AA@ 100c3f48     libcpmtd:syserror.obj
 0002:00002f5c       ??_C@_0BI@NGCEHDD@device?5or?5resource?5busy?$AA@ 100c3f5c     libcpmtd:syserror.obj
 0002:00002f74       ??_C@_08GLNPIFBN@io?5error?$AA@ 100c3f74     libcpmtd:syserror.obj
 0002:00002f80       ??_C@_0BE@JIDOCPHM@directory?5not?5empty?$AA@ 100c3f80     libcpmtd:syserror.obj
 0002:00002f94       ??_C@_0BB@FCMFBGOM@invalid?5argument?$AA@ 100c3f94     libcpmtd:syserror.obj
 0002:00002fa8       ??_C@_0BD@IJDJKDEA@no?5space?5on?5device?$AA@ 100c3fa8     libcpmtd:syserror.obj
 0002:00002fbc       ??_C@_0BK@NDOCBPGE@no?5such?5file?5or?5directory?$AA@ 100c3fbc     libcpmtd:syserror.obj
 0002:00002fd8       ??_C@_0BH@KEFGLDAF@function?5not?5supported?$AA@ 100c3fd8     libcpmtd:syserror.obj
 0002:00002ff0       ??_C@_0BC@NJECKMKE@no?5lock?5available?$AA@ 100c3ff0     libcpmtd:syserror.obj
 0002:00003004       ??_C@_0BC@ENOOLCNF@not?5enough?5memory?$AA@ 100c4004     libcpmtd:syserror.obj
 0002:00003018       ??_C@_0BP@LKNGHENJ@resource?5unavailable?5try?5again?$AA@ 100c4018     libcpmtd:syserror.obj
 0002:00003038       ??_C@_0BC@PPHBOELF@cross?5device?5link?$AA@ 100c4038     libcpmtd:syserror.obj
 0002:0000304c       ??_C@_0BD@MOLBPMEA@operation?5canceled?$AA@ 100c404c     libcpmtd:syserror.obj
 0002:00003060       ??_C@_0BE@GHAFMPAH@too?5many?5files?5open?$AA@ 100c4060     libcpmtd:syserror.obj
 0002:00003074       ??_C@_0BC@FNODOBAE@permission_denied?$AA@ 100c4074     libcpmtd:syserror.obj
 0002:00003088       ??_C@_0P@LNDJPBFK@address_in_use?$AA@ 100c4088     libcpmtd:syserror.obj
 0002:00003098       ??_C@_0BG@IPMGOJF@address_not_available?$AA@ 100c4098     libcpmtd:syserror.obj
 0002:000030b0       ??_C@_0BN@LCBDHODA@address_family_not_supported?$AA@ 100c40b0     libcpmtd:syserror.obj
 0002:000030d0       ??_C@_0BP@FOJJHMCC@connection_already_in_progress?$AA@ 100c40d0     libcpmtd:syserror.obj
 0002:000030f0       ??_C@_0BE@DLHHIBGN@bad_file_descriptor?$AA@ 100c40f0     libcpmtd:syserror.obj
 0002:00003104       ??_C@_0BD@OJMJDIGI@connection_aborted?$AA@ 100c4104     libcpmtd:syserror.obj
 0002:00003118       ??_C@_0BD@NGKCIFEP@connection_refused?$AA@ 100c4118     libcpmtd:syserror.obj
 0002:0000312c       ??_C@_0BB@JOANDNCK@connection_reset?$AA@ 100c412c     libcpmtd:syserror.obj
 0002:00003140       ??_C@_0BN@JLJNLKLK@destination_address_required?$AA@ 100c4140     libcpmtd:syserror.obj
 0002:00003160       ??_C@_0M@IJGMGFGP@bad_address?$AA@ 100c4160     libcpmtd:syserror.obj
 0002:0000316c       ??_C@_0BB@KKNHPPIN@host_unreachable?$AA@ 100c416c     libcpmtd:syserror.obj
 0002:00003180       ??_C@_0BG@DJGBJIIK@operation_in_progress?$AA@ 100c4180     libcpmtd:syserror.obj
 0002:00003198       ??_C@_0M@EGEKIIMP@interrupted?$AA@ 100c4198     libcpmtd:syserror.obj
 0002:000031a4       ??_C@_0BB@FFIHMIPJ@invalid_argument?$AA@ 100c41a4     libcpmtd:syserror.obj
 0002:000031b8       ??_C@_0BC@FIFLCHLO@already_connected?$AA@ 100c41b8     libcpmtd:syserror.obj
 0002:000031cc       ??_C@_0BE@GJJJJDDA@too_many_files_open?$AA@ 100c41cc     libcpmtd:syserror.obj
 0002:000031e0       ??_C@_0N@HPMLKHPL@message_size?$AA@ 100c41e0     libcpmtd:syserror.obj
 0002:000031f0       ??_C@_0BC@LEEIKBAL@filename_too_long?$AA@ 100c41f0     libcpmtd:syserror.obj
 0002:00003204       ??_C@_0N@FCPALPJK@network_down?$AA@ 100c4204     libcpmtd:syserror.obj
 0002:00003214       ??_C@_0O@EHNDLHIG@network_reset?$AA@ 100c4214     libcpmtd:syserror.obj
 0002:00003224       ??_C@_0BE@JFNJIDNF@network_unreachable?$AA@ 100c4224     libcpmtd:syserror.obj
 0002:00003238       ??_C@_0BA@FDIJKJCL@no_buffer_space?$AA@ 100c4238     libcpmtd:syserror.obj
 0002:00003248       ??_C@_0BD@JHIHCGKP@no_protocol_option?$AA@ 100c4248     libcpmtd:syserror.obj
 0002:0000325c       ??_C@_0O@GBCLHHD@not_connected?$AA@ 100c425c     libcpmtd:syserror.obj
 0002:0000326c       ??_C@_0N@IMHKKLEM@not_a_socket?$AA@ 100c426c     libcpmtd:syserror.obj
 0002:0000327c       ??_C@_0BI@ICEIDKLJ@operation_not_supported?$AA@ 100c427c     libcpmtd:syserror.obj
 0002:00003294       ??_C@_0BH@KAPBAIJF@protocol_not_supported?$AA@ 100c4294     libcpmtd:syserror.obj
 0002:000032ac       ??_C@_0BE@GAOJJFPC@wrong_protocol_type?$AA@ 100c42ac     libcpmtd:syserror.obj
 0002:000032c0       ??_C@_09NCHNLHPG@timed_out?$AA@ 100c42c0     libcpmtd:syserror.obj
 0002:000032cc       ??_C@_0BG@GDGHKFDH@operation_would_block?$AA@ 100c42cc     libcpmtd:syserror.obj
 0002:000032e4       ??_C@_0BN@LKKBCCDB@address?5family?5not?5supported?$AA@ 100c42e4     libcpmtd:syserror.obj
 0002:00003304       ??_C@_0P@LDMLAFHI@address?5in?5use?$AA@ 100c4304     libcpmtd:syserror.obj
 0002:00003314       ??_C@_0BG@DHPCNBJB@address?5not?5available?$AA@ 100c4314     libcpmtd:syserror.obj
 0002:0000332c       ??_C@_0BC@DFIBIBIL@already?5connected?$AA@ 100c432c     libcpmtd:syserror.obj
 0002:00003340       ??_C@_0BH@CAKOHOMI@argument?5list?5too?5long?$AA@ 100c4340     libcpmtd:syserror.obj
 0002:00003358       ??_C@_0BH@CGIMPKIM@argument?5out?5of?5domain?$AA@ 100c4358     libcpmtd:syserror.obj
 0002:00003370       ??_C@_0M@KGHGGJGL@bad?5address?$AA@ 100c4370     libcpmtd:syserror.obj
 0002:0000337c       ??_C@_0BE@MPJPGCEO@bad?5file?5descriptor?$AA@ 100c437c     libcpmtd:syserror.obj
 0002:00003390       ??_C@_0M@PMMIEFCP@bad?5message?$AA@ 100c4390     libcpmtd:syserror.obj
 0002:0000339c       ??_C@_0M@KPHOFDBE@broken?5pipe?$AA@ 100c439c     libcpmtd:syserror.obj
 0002:000033a8       ??_C@_0BD@MGNDDEGM@connection?5aborted?$AA@ 100c43a8     libcpmtd:syserror.obj
 0002:000033bc       ??_C@_0BP@KAIHPOGN@connection?5already?5in?5progress?$AA@ 100c43bc     libcpmtd:syserror.obj
 0002:000033dc       ??_C@_0BD@PJLIIJEL@connection?5refused?$AA@ 100c43dc     libcpmtd:syserror.obj
 0002:000033f0       ??_C@_0BB@IECNJNOI@connection?5reset?$AA@ 100c43f0     libcpmtd:syserror.obj
 0002:00003404       ??_C@_0BN@KDMIFEIP@destination?5address?5required?$AA@ 100c4404     libcpmtd:syserror.obj
 0002:00003424       ??_C@_0BI@BNCLIGPB@executable?5format?5error?$AA@ 100c4424     libcpmtd:syserror.obj
 0002:0000343c       ??_C@_0P@DNAJLBJK@file?5too?5large?$AA@ 100c443c     libcpmtd:syserror.obj
 0002:0000344c       ??_C@_0BB@DHFDFGDM@host?5unreachable?$AA@ 100c444c     libcpmtd:syserror.obj
 0002:00003460       ??_C@_0BD@JPHBMONG@identifier?5removed?$AA@ 100c4460     libcpmtd:syserror.obj
 0002:00003474       ??_C@_0BG@CDNPAGJK@illegal?5byte?5sequence?$AA@ 100c4474     libcpmtd:syserror.obj
 0002:0000348c       ??_C@_0CD@BNPLBMNA@inappropriate?5io?5control?5operati@ 100c448c     libcpmtd:syserror.obj
 0002:000034b0       ??_C@_0N@OHAFKDEK@invalid?5seek?$AA@ 100c44b0     libcpmtd:syserror.obj
 0002:000034c0       ??_C@_0P@FLLDBIDK@is?5a?5directory?$AA@ 100c44c0     libcpmtd:syserror.obj
 0002:000034d0       ??_C@_0N@IFLPBIOP@message?5size?$AA@ 100c44d0     libcpmtd:syserror.obj
 0002:000034e0       ??_C@_0N@KIIEAAIO@network?5down?$AA@ 100c44e0     libcpmtd:syserror.obj
 0002:000034f0       ??_C@_0O@FNPDBHEE@network?5reset?$AA@ 100c44f0     libcpmtd:syserror.obj
 0002:00003500       ??_C@_0BE@IFNCKGE@network?5unreachable?$AA@ 100c4500     libcpmtd:syserror.obj
 0002:00003514       ??_C@_0BA@PFFCAOFK@no?5buffer?5space?$AA@ 100c4514     libcpmtd:syserror.obj
 0002:00003524       ??_C@_0BB@IEPBLJHK@no?5child?5process?$AA@ 100c4524     libcpmtd:syserror.obj
 0002:00003538       ??_C@_07PLECNNKG@no?5link?$AA@ 100c4538     libcpmtd:syserror.obj
 0002:00003540       ??_C@_0BF@PBGGPKKE@no?5message?5available?$AA@ 100c4540     libcpmtd:syserror.obj
 0002:00003558       ??_C@_0L@EDOLMPAK@no?5message?$AA@ 100c4558     libcpmtd:syserror.obj
 0002:00003564       ??_C@_0BD@EAMBFIDF@no?5protocol?5option?$AA@ 100c4564     libcpmtd:syserror.obj
 0002:00003578       ??_C@_0BE@MKFDAFMP@no?5stream?5resources?$AA@ 100c4578     libcpmtd:syserror.obj
 0002:0000358c       ??_C@_0BK@IMCPHCBI@no?5such?5device?5or?5address?$AA@ 100c458c     libcpmtd:syserror.obj
 0002:000035a8       ??_C@_0BA@ENLPPKBN@no?5such?5process?$AA@ 100c45a8     libcpmtd:syserror.obj
 0002:000035b8       ??_C@_0BA@DOCPFFJG@not?5a?5directory?$AA@ 100c45b8     libcpmtd:syserror.obj
 0002:000035c8       ??_C@_0N@POEIPGGF@not?5a?5socket?$AA@ 100c45c8     libcpmtd:syserror.obj
 0002:000035d8       ??_C@_0N@LGAPMMPI@not?5a?5stream?$AA@ 100c45d8     libcpmtd:syserror.obj
 0002:000035e8       ??_C@_0O@GLMIBBEG@not?5connected?$AA@ 100c45e8     libcpmtd:syserror.obj
 0002:000035f8       ??_C@_0O@NHEDABJP@not?5supported?$AA@ 100c45f8     libcpmtd:syserror.obj
 0002:00003608       ??_C@_0BG@KDKHOPCO@operation?5in?5progress?$AA@ 100c4608     libcpmtd:syserror.obj
 0002:00003620       ??_C@_0BI@OHIEJAAB@operation?5not?5permitted?$AA@ 100c4620     libcpmtd:syserror.obj
 0002:00003638       ??_C@_0BI@LNEGIFLN@operation?5not?5supported?$AA@ 100c4638     libcpmtd:syserror.obj
 0002:00003650       ??_C@_0BG@OEMDKMEE@operation?5would?5block?$AA@ 100c4650     libcpmtd:syserror.obj
 0002:00003668       ??_C@_0L@BLPOFLNJ@owner?5dead?$AA@ 100c4668     libcpmtd:syserror.obj
 0002:00003674       ??_C@_0P@FNPOCJBE@protocol?5error?$AA@ 100c4674     libcpmtd:syserror.obj
 0002:00003684       ??_C@_0BH@JPPPLHJB@protocol?5not?5supported?$AA@ 100c4684     libcpmtd:syserror.obj
 0002:0000369c       ??_C@_0BG@EICBIHDP@read?5only?5file?5system?$AA@ 100c469c     libcpmtd:syserror.obj
 0002:000036b4       ??_C@_0BO@BJBOMOEJ@resource?5deadlock?5would?5occur?$AA@ 100c46b4     libcpmtd:syserror.obj
 0002:000036d4       ??_C@_0BE@GOIPJJHG@result?5out?5of?5range?$AA@ 100c46d4     libcpmtd:syserror.obj
 0002:000036e8       ??_C@_0BG@MPLKFPAE@state?5not?5recoverable?$AA@ 100c46e8     libcpmtd:syserror.obj
 0002:00003700       ??_C@_0P@DIIFGFCG@stream?5timeout?$AA@ 100c4700     libcpmtd:syserror.obj
 0002:00003710       ??_C@_0P@IPFDMIFL@text?5file?5busy?$AA@ 100c4710     libcpmtd:syserror.obj
 0002:00003720       ??_C@_09KJPPMAOI@timed?5out?$AA@ 100c4720     libcpmtd:syserror.obj
 0002:0000372c       ??_C@_0BO@HACHBEKI@too?5many?5files?5open?5in?5system?$AA@ 100c472c     libcpmtd:syserror.obj
 0002:0000374c       ??_C@_0P@HCOMKFCC@too?5many?5links?$AA@ 100c474c     libcpmtd:syserror.obj
 0002:0000375c       ??_C@_0BO@EFGOJEF@too?5many?5symbolic?5link?5levels?$AA@ 100c475c     libcpmtd:syserror.obj
 0002:0000377c       ??_C@_0BA@KGKGOOJA@value?5too?5large?$AA@ 100c477c     libcpmtd:syserror.obj
 0002:0000378c       ??_C@_0BE@MIEJDDNH@wrong?5protocol?5type?$AA@ 100c478c     libcpmtd:syserror.obj
 0002:000037a0       ?_BADOFF@std@@3_JB         100c47a0     libcpmtd:ios.obj
 0002:000037a8       ?ProcessDetach@NativeDll@<CrtImplementationDetails>@@0IB 100c47a8     libcpmtd:fiopen.obj
 0002:000037ac       ?ProcessAttach@NativeDll@<CrtImplementationDetails>@@0IB 100c47ac     libcpmtd:fiopen.obj
 0002:000037b0       ?ThreadAttach@NativeDll@<CrtImplementationDetails>@@0IB 100c47b0     libcpmtd:fiopen.obj
 0002:000037b4       ?ThreadDetach@NativeDll@<CrtImplementationDetails>@@0IB 100c47b4     libcpmtd:fiopen.obj
 0002:000037b8       ?ProcessVerifier@NativeDll@<CrtImplementationDetails>@@0IB 100c47b8     libcpmtd:fiopen.obj
 0002:000037f8       ??_C@_01KDCPPGHE@r?$AA@    100c47f8     libcpmtd:fiopen.obj
 0002:000037fc       ??_C@_01MCMALHOG@a?$AA@    100c47fc     libcpmtd:fiopen.obj
 0002:00003800       ??_C@_02JDPG@rb?$AA@       100c4800     libcpmtd:fiopen.obj
 0002:00003804       ??_C@_02GMLFBBN@wb?$AA@    100c4804     libcpmtd:fiopen.obj
 0002:00003808       ??_C@_02BOGAIONP@ab?$AA@   100c4808     libcpmtd:fiopen.obj
 0002:0000380c       ??_C@_02CBLLGHLK@r?$CL?$AA@ 100c480c     libcpmtd:fiopen.obj
 0002:00003810       ??_C@_02CHHAKFFB@w?$CL?$AA@ 100c4810     libcpmtd:fiopen.obj
 0002:00003814       ??_C@_02DPNLHKJD@a?$CL?$AA@ 100c4814     libcpmtd:fiopen.obj
 0002:00003818       ??_C@_03HMFOOINA@r?$CLb?$AA@ 100c4818     libcpmtd:fiopen.obj
 0002:0000381c       ??_C@_03ELIABIOC@w?$CLb?$AA@ 100c481c     libcpmtd:fiopen.obj
 0002:00003820       ??_C@_03DOPCBAKB@a?$CLb?$AA@ 100c4820     libcpmtd:fiopen.obj
 0002:00003860       ??_C@_13BPINEIPE@?$AAr?$AA?$AA@ 100c4860     libcpmtd:fiopen.obj
 0002:00003864       ??_C@_13FNCBLAIF@?$AAa?$AA?$AA@ 100c4864     libcpmtd:fiopen.obj
 0002:00003868       ??_C@_15JJPIMNBO@?$AAr?$AAb?$AA?$AA@ 100c4868     libcpmtd:fiopen.obj
 0002:00003870       ??_C@_15MJDFFMKN@?$AAw?$AAb?$AA?$AA@ 100c4870     libcpmtd:fiopen.obj
 0002:00003878       ??_C@_15BMLKLNCL@?$AAa?$AAb?$AA?$AA@ 100c4878     libcpmtd:fiopen.obj
 0002:00003880       ??_C@_15HPOENKKJ@?$AAr?$AA?$CL?$AA?$AA@ 100c4880     libcpmtd:fiopen.obj
 0002:00003888       ??_C@_15CPCJELBK@?$AAw?$AA?$CL?$AA?$AA@ 100c4888     libcpmtd:fiopen.obj
 0002:00003890       ??_C@_15PKKGKKJM@?$AAa?$AA?$CL?$AA?$AA@ 100c4890     libcpmtd:fiopen.obj
 0002:00003898       ??_C@_17IIOMHMAG@?$AAr?$AA?$CL?$AAb?$AA?$AA@ 100c4898     libcpmtd:fiopen.obj
 0002:000038a0       ??_C@_17MAAMHCGC@?$AAw?$AA?$CL?$AAb?$AA?$AA@ 100c48a0     libcpmtd:fiopen.obj
 0002:000038a8       ??_C@_17HKNIEKMO@?$AAa?$AA?$CL?$AAb?$AA?$AA@ 100c48a8     libcpmtd:fiopen.obj
 0002:000038b0       ?valid@?1???$_Xfiopen@D@std@@YAPAU_iobuf@@PBDHH@Z@4QBHB 100c48b0     libcpmtd:fiopen.obj
 0002:000038ec       ?valid@?1???$_Xfiopen@_W@std@@YAPAU_iobuf@@PB_WHH@Z@4QBHB 100c48ec     libcpmtd:fiopen.obj
 0002:00003928       ??_C@_0CP@LEEPMKCL@f?3?2dd?2vctools?2crt_bld?2self_x86?2c@ 100c4928     libcpmtd:locale.obj
 0002:00003958       ??_C@_1FO@KFIODINN@?$AAf?$AA?3?$AA?2?$AAd?$AAd?$AA?2?$AAv?$AAc?$AAt?$AAo?$AAo?$AAl?$AAs?$AA?2?$AAc?$AAr?$AAt?$AA_?$AAb?$AAl?$AAd?$AA?2?$AAs?$AAe?$AAl?$AAf?$AA_?$AAx?$AA8?$AA6?$AA?2?$AAc@ 100c4958     libcpmtd:locale.obj
 0002:000039b8       ??_C@_0CP@DHACMIIK@f?3?2dd?2vctools?2crt_bld?2self_x86?2c@ 100c49b8     libcpmtd:locale.obj
 0002:000039e8       ??_C@_0DC@IJMBCCEI@f?3?2dd?2vctools?2crt_bld?2self_x86?2c@ 100c49e8     libcpmtd:locale.obj
 0002:00003a20       ??_7?$num_get@DV?$istreambuf_iterator@DU?$char_traits@D@std@@@std@@@std@@6B@ 100c4a20     libcpmtd:locale.obj
 0002:00003a58       ??_C@_1FO@JNMDFBMN@?$AAf?$AA?3?$AA?2?$AAd?$AAd?$AA?2?$AAv?$AAc?$AAt?$AAo?$AAo?$AAl?$AAs?$AA?2?$AAc?$AAr?$AAt?$AA_?$AAb?$AAl?$AAd?$AA?2?$AAs?$AAe?$AAl?$AAf?$AA_?$AAx?$AA8?$AA6?$AA?2?$AAc@ 100c4a58     libcpmtd:locale.obj
 0002:00003ab8       ?_Src@?1??_Getifld@?$num_get@DV?$istreambuf_iterator@DU?$char_traits@D@std@@@std@@@std@@ABAHPADAAV?$istreambuf_iterator@DU?$char_traits@D@std@@@3@1HABVlocale@3@@Z@4QBDB 100c4ab8     libcpmtd:locale.obj
 0002:00003ad4       ?_Src@?3??_Getffld@?$num_get@DV?$istreambuf_iterator@DU?$char_traits@D@std@@@std@@@std@@ABAHPADAAV?$istreambuf_iterator@DU?$char_traits@D@std@@@3@1AAVios_base@3@PAH@Z@4QBDB 100c4ad4     libcpmtd:locale.obj
 0002:00003ae4       ?_Src@?1??_Getffldx@?$num_get@DV?$istreambuf_iterator@DU?$char_traits@D@std@@@std@@@std@@ABAHPADAAV?$istreambuf_iterator@DU?$char_traits@D@std@@@3@1AAVios_base@3@PAH@Z@4QBDB 100c4ae4     libcpmtd:locale.obj
 0002:00003b08       ??_C@_1GC@EBHADPFJ@?$AAf?$AA?3?$AA?2?$AAd?$AAd?$AA?2?$AAv?$AAc?$AAt?$AAo?$AAo?$AAl?$AAs?$AA?2?$AAc?$AAr?$AAt?$AA_?$AAb?$AAl?$AAd?$AA?2?$AAs?$AAe?$AAl?$AAf?$AA_?$AAx?$AA8?$AA6?$AA?2?$AAc@ 100c4b08     libcpmtd:locale.obj
 0002:00003b70       ??_C@_1FE@NIBPPHHA@?$AAi?$AAs?$AAt?$AAr?$AAe?$AAa?$AAm?$AAb?$AAu?$AAf?$AA_?$AAi?$AAt?$AAe?$AAr?$AAa?$AAt?$AAo?$AAr?$AA?5?$AAi?$AAs?$AA?5?$AAn?$AAo?$AAt?$AA?5?$AAd?$AAe?$AAr?$AAe?$AAf@ 100c4b70     libcpmtd:locale.obj
 0002:00003bc8       ??_C@_1FC@CLFDMKBM@?$AAi?$AAs?$AAt?$AAr?$AAe?$AAa?$AAm?$AAb?$AAu?$AAf?$AA_?$AAi?$AAt?$AAe?$AAr?$AAa?$AAt?$AAo?$AAr?$AA?5?$AAi?$AAs?$AA?5?$AAn?$AAo?$AAt?$AA?5?$AAi?$AAn?$AAc?$AAr?$AAe@ 100c4bc8     libcpmtd:locale.obj
 0002:00003c20       ??_C@_1GA@IHNGMCBO@?$AAf?$AA?3?$AA?2?$AAd?$AAd?$AA?2?$AAv?$AAc?$AAt?$AAo?$AAo?$AAl?$AAs?$AA?2?$AAc?$AAr?$AAt?$AA_?$AAb?$AAl?$AAd?$AA?2?$AAs?$AAe?$AAl?$AAf?$AA_?$AAx?$AA8?$AA6?$AA?2?$AAc@ 100c4c20     libcpmtd:wlocale.obj
 0002:00003c80       ??_C@_0FG@EOHGAEB@?3Sun?3Sunday?3Mon?3Monday?3Tue?3Tuesd@ 100c4c80     libcpmtd:wlocale.obj
 0002:00003cd8       ??_C@_0IH@HPGJLCCK@?3Jan?3January?3Feb?3February?3Mar?3Ma@ 100c4cd8     libcpmtd:wlocale.obj
 0002:00003d60       ??_C@_1KM@LPDIELBN@?$AA?3?$AAS?$AAu?$AAn?$AA?3?$AAS?$AAu?$AAn?$AAd?$AAa?$AAy?$AA?3?$AAM?$AAo?$AAn?$AA?3?$AAM?$AAo?$AAn?$AAd?$AAa?$AAy?$AA?3?$AAT?$AAu?$AAe?$AA?3?$AAT?$AAu?$AAe?$AAs?$AAd@ 100c4d60     libcpmtd:wlocale.obj
 0002:00003e10       ??_C@_1BAO@JIKOGLKA@?$AA?3?$AAJ?$AAa?$AAn?$AA?3?$AAJ?$AAa?$AAn?$AAu?$AAa?$AAr?$AAy?$AA?3?$AAF?$AAe?$AAb?$AA?3?$AAF?$AAe?$AAb?$AAr?$AAu?$AAa?$AAr?$AAy?$AA?3?$AAM?$AAa?$AAr?$AA?3?$AAM?$AAa@ 100c4e10     libcpmtd:wlocale.obj
 0002:00003f24       ??_7?$codecvt@_WDH@std@@6B@ 100c4f24     libcpmtd:wlocale.obj
 0002:00003f50       ??_7?$codecvt@GDH@std@@6B@ 100c4f50     libcpmtd:wlocale.obj
 0002:00003f7c       ??_7?$ctype@_W@std@@6B@    100c4f7c     libcpmtd:wlocale.obj
 0002:00003fbc       ??_7?$ctype@G@std@@6B@     100c4fbc     libcpmtd:wlocale.obj
 0002:00003ff8       ?npos@?$basic_string@_WU?$char_traits@_W@std@@V?$allocator@_W@2@@std@@2IB 100c4ff8     libcpmtd:wlocale.obj
 0002:00004000       ??_7messages_base@std@@6B@ 100c5000     libcpmtd:wlocale.obj
 0002:00004010       ??_7money_base@std@@6B@    100c5010     libcpmtd:wlocale.obj
 0002:00004020       ??_7time_base@std@@6B@     100c5020     libcpmtd:wlocale.obj
 0002:00004030       ??_7?$time_put@_WV?$ostreambuf_iterator@_WU?$char_traits@_W@std@@@std@@@std@@6B@ 100c5030     libcpmtd:wlocale.obj
 0002:00004040       ??_C@_0DD@ONOFIKJ@f?3?2dd?2vctools?2crt_bld?2self_x86?2c@ 100c5040     libcpmtd:wlocale.obj
 0002:00004078       ??_7?$num_get@_WV?$istreambuf_iterator@_WU?$char_traits@_W@std@@@std@@@std@@6B@ 100c5078     libcpmtd:wlocale.obj
 0002:000040b4       ??_7?$num_put@_WV?$ostreambuf_iterator@_WU?$char_traits@_W@std@@@std@@@std@@6B@ 100c50b4     libcpmtd:wlocale.obj
 0002:000040e4       ??_7?$numpunct@_W@std@@6B@ 100c50e4     libcpmtd:wlocale.obj
 0002:00004108       ??_7?$collate@_W@std@@6B@  100c5108     libcpmtd:wlocale.obj
 0002:00004124       ??_7?$messages@_W@std@@6B@ 100c5124     libcpmtd:wlocale.obj
 0002:00004140       ??_7?$money_get@_WV?$istreambuf_iterator@_WU?$char_traits@_W@std@@@std@@@std@@6B@ 100c5140     libcpmtd:wlocale.obj
 0002:00004158       ??_7?$money_put@_WV?$ostreambuf_iterator@_WU?$char_traits@_W@std@@@std@@@std@@6B@ 100c5158     libcpmtd:wlocale.obj
 0002:00004170       ??_7?$_Mpunct@_W@std@@6B@  100c5170     libcpmtd:wlocale.obj
 0002:000041a4       ??_7?$moneypunct@_W$0A@@std@@6B@ 100c51a4     libcpmtd:wlocale.obj
 0002:000041d8       ??_7?$moneypunct@_W$00@std@@6B@ 100c51d8     libcpmtd:wlocale.obj
 0002:0000420c       ??_7?$time_get@_WV?$istreambuf_iterator@_WU?$char_traits@_W@std@@@std@@@std@@6B@ 100c520c     libcpmtd:wlocale.obj
 0002:00004238       ??_7?$num_get@GV?$istreambuf_iterator@GU?$char_traits@G@std@@@std@@@std@@6B@ 100c5238     libcpmtd:wlocale.obj
 0002:00004274       ??_7?$num_put@GV?$ostreambuf_iterator@GU?$char_traits@G@std@@@std@@@std@@6B@ 100c5274     libcpmtd:wlocale.obj
 0002:000042a4       ??_7?$numpunct@G@std@@6B@  100c52a4     libcpmtd:wlocale.obj
 0002:000042c8       ??_7?$collate@G@std@@6B@   100c52c8     libcpmtd:wlocale.obj
 0002:000042e4       ??_7?$messages@G@std@@6B@  100c52e4     libcpmtd:wlocale.obj
 0002:00004300       ??_7?$money_get@GV?$istreambuf_iterator@GU?$char_traits@G@std@@@std@@@std@@6B@ 100c5300     libcpmtd:wlocale.obj
 0002:00004314       ?npos@?$basic_string@GU?$char_traits@G@std@@V?$allocator@G@2@@std@@2IB 100c5314     libcpmtd:wlocale.obj
 0002:0000431c       ??_7?$money_put@GV?$ostreambuf_iterator@GU?$char_traits@G@std@@@std@@@std@@6B@ 100c531c     libcpmtd:wlocale.obj
 0002:00004334       ??_7?$_Mpunct@G@std@@6B@   100c5334     libcpmtd:wlocale.obj
 0002:00004368       ??_7?$moneypunct@G$0A@@std@@6B@ 100c5368     libcpmtd:wlocale.obj
 0002:0000439c       ??_7?$moneypunct@G$00@std@@6B@ 100c539c     libcpmtd:wlocale.obj
 0002:000043d0       ??_7?$time_get@GV?$istreambuf_iterator@GU?$char_traits@G@std@@@std@@@std@@6B@ 100c53d0     libcpmtd:wlocale.obj
 0002:000043fc       ??_7?$time_put@GV?$ostreambuf_iterator@GU?$char_traits@G@std@@@std@@@std@@6B@ 100c53fc     libcpmtd:wlocale.obj
 0002:0000440c       ??_C@_0DA@CFEPJABA@f?3?2dd?2vctools?2crt_bld?2self_x86?2c@ 100c540c     libcpmtd:wlocale.obj
 0002:00004440       ??_C@_1GA@HFFIGHNG@?$AAf?$AA?3?$AA?2?$AAd?$AAd?$AA?2?$AAv?$AAc?$AAt?$AAo?$AAo?$AAl?$AAs?$AA?2?$AAc?$AAr?$AAt?$AA_?$AAb?$AAl?$AAd?$AA?2?$AAs?$AAe?$AAl?$AAf?$AA_?$AAx?$AA8?$AA6?$AA?2?$AAc@ 100c5440     libcpmtd:wlocale.obj
 0002:000044a0       ??_C@_19OKANBMPJ@?$AA?$CB?$AA?$CF?$AAx?$AA?$AA?$AA?$AA@ 100c54a0     libcpmtd:wlocale.obj
 0002:000044ac       ??_C@_0CO@NKEKEOMI@f?3?2dd?2vctools?2crt_bld?2self_x86?2c@ 100c54ac     libcpmtd:wlocale.obj
 0002:000044e0       ??_C@_1FM@LKHCLMNB@?$AAf?$AA?3?$AA?2?$AAd?$AAd?$AA?2?$AAv?$AAc?$AAt?$AAo?$AAo?$AAl?$AAs?$AA?2?$AAc?$AAr?$AAt?$AA_?$AAb?$AAl?$AAd?$AA?2?$AAs?$AAe?$AAl?$AAf?$AA_?$AAx?$AA8?$AA6?$AA?2?$AAc@ 100c54e0     libcpmtd:wlocale.obj
 0002:0000453c       ??_C@_0CP@ONNAPLML@f?3?2dd?2vctools?2crt_bld?2self_x86?2c@ 100c553c     libcpmtd:wlocale.obj
 0002:0000456c       ??_C@_0CP@BPCLBCAB@f?3?2dd?2vctools?2crt_bld?2self_x86?2c@ 100c556c     libcpmtd:wlocale.obj
 0002:0000459c       ??_C@_05NNKBBLJI@?$CF?40Lf?$AA@ 100c559c     libcpmtd:wlocale.obj
 0002:000045a4       ?_Src@?1??do_put@?$money_put@_WV?$ostreambuf_iterator@_WU?$char_traits@_W@std@@@std@@@std@@MBE?AV?$ostreambuf_iterator@_WU?$char_traits@_W@std@@@3@V43@_NAAVios_base@3@_WABV?$basic_string@_WU?$char_traits@_W@std@@V?$allocator@_W@2@@3@@Z@4QBDB 100c55a4     libcpmtd:wlocale.obj
 0002:000045b0       ??_C@_0BG@ELKJEKEA@?$CFb?5?$CFd?5?$CFH?5?3?5?$CFM?5?3?5?$CFS?5?$CFY?$AA@ 100c55b0     libcpmtd:wlocale.obj
 0002:000045c8       ??_C@_0N@LIAHCJPJ@?$CFm?5?1?5?$CFd?5?1?5?$CFy?$AA@ 100c55c8     libcpmtd:wlocale.obj
 0002:000045d8       ??_C@_01CLKCMJKC@?5?$AA@   100c55d8     libcpmtd:wlocale.obj
 0002:000045dc       ??_C@_0N@LPFKKEBD@?3AM?3am?3PM?3pm?$AA@ 100c55dc     libcpmtd:wlocale.obj
 0002:000045ec       ??_C@_0BA@HGEPHOKI@?$CFI?5?3?5?$CFM?5?3?5?$CFS?5?$CFp?$AA@ 100c55ec     libcpmtd:wlocale.obj
 0002:000045fc       ??_C@_07GLPBMING@?$CFH?5?3?5?$CFM?$AA@ 100c55fc     libcpmtd:wlocale.obj
 0002:00004604       ??_C@_0M@LMMIDGCH@?$CFH?5?3?5?$CFM?5?3?5S?$AA@ 100c5604     libcpmtd:wlocale.obj
 0002:00004610       ??_C@_0N@LADGFGLL@?$CFd?5?1?5?$CFm?5?1?5?$CFy?$AA@ 100c5610     libcpmtd:wlocale.obj
 0002:00004620       ?_Src@?1??do_put@?$money_put@GV?$ostreambuf_iterator@GU?$char_traits@G@std@@@std@@@std@@MBE?AV?$ostreambuf_iterator@GU?$char_traits@G@std@@@3@V43@_NAAVios_base@3@GABV?$basic_string@GU?$char_traits@G@std@@V?$allocator@G@2@@3@@Z@4QBDB 100c5620     libcpmtd:wlocale.obj
 0002:0000462c       ?_Src@?1??_Getifld@?$num_get@_WV?$istreambuf_iterator@_WU?$char_traits@_W@std@@@std@@@std@@ABAHPADAAV?$istreambuf_iterator@_WU?$char_traits@_W@std@@@3@1HABVlocale@3@@Z@4QBDB 100c562c     libcpmtd:wlocale.obj
 0002:00004648       ?_Src@?3??_Getffld@?$num_get@_WV?$istreambuf_iterator@_WU?$char_traits@_W@std@@@std@@@std@@ABAHPADAAV?$istreambuf_iterator@_WU?$char_traits@_W@std@@@3@1AAVios_base@3@PAH@Z@4QBDB 100c5648     libcpmtd:wlocale.obj
 0002:00004658       ??_C@_1FO@KDLENIDN@?$AAf?$AA?3?$AA?2?$AAd?$AAd?$AA?2?$AAv?$AAc?$AAt?$AAo?$AAo?$AAl?$AAs?$AA?2?$AAc?$AAr?$AAt?$AA_?$AAb?$AAl?$AAd?$AA?2?$AAs?$AAe?$AAl?$AAf?$AA_?$AAx?$AA8?$AA6?$AA?2?$AAc@ 100c5658     libcpmtd:wlocale.obj
 0002:000046b8       ?_Src@?4??_Getmfld@?$money_get@_WV?$istreambuf_iterator@_WU?$char_traits@_W@std@@@std@@@std@@ABE?AV?$basic_string@DU?$char_traits@D@std@@V?$allocator@D@2@@3@AAV?$istreambuf_iterator@_WU?$char_traits@_W@std@@@3@0_NAAVios_base@3@PA_W@Z@4QBDB 100c56b8     libcpmtd:wlocale.obj
 0002:000046c4       ?_Src@?1??_Getifld@?$num_get@GV?$istreambuf_iterator@GU?$char_traits@G@std@@@std@@@std@@ABAHPADAAV?$istreambuf_iterator@GU?$char_traits@G@std@@@3@1HABVlocale@3@@Z@4QBDB 100c56c4     libcpmtd:wlocale.obj
 0002:000046e0       ?_Src@?3??_Getffld@?$num_get@GV?$istreambuf_iterator@GU?$char_traits@G@std@@@std@@@std@@ABAHPADAAV?$istreambuf_iterator@GU?$char_traits@G@std@@@3@1AAVios_base@3@PAH@Z@4QBDB 100c56e0     libcpmtd:wlocale.obj
 0002:000046f0       ?_Src@?4??_Getmfld@?$money_get@GV?$istreambuf_iterator@GU?$char_traits@G@std@@@std@@@std@@ABE?AV?$basic_string@DU?$char_traits@D@std@@V?$allocator@D@2@@3@AAV?$istreambuf_iterator@GU?$char_traits@G@std@@@3@0_NAAVios_base@3@PAG@Z@4QBDB 100c56f0     libcpmtd:wlocale.obj
 0002:000046fc       ?_Src@?1??_Getffldx@?$num_get@_WV?$istreambuf_iterator@_WU?$char_traits@_W@std@@@std@@@std@@ABAHPADAAV?$istreambuf_iterator@_WU?$char_traits@_W@std@@@3@1AAVios_base@3@PAH@Z@4QBDB 100c56fc     libcpmtd:wlocale.obj
 0002:0000471c       ??_C@_04FJCIEOIB@$?$CLxv?$AA@ 100c571c     libcpmtd:wlocale.obj
 0002:00004724       ??_C@_1BK@MHIKGOKE@?$AA?3?$AAA?$AAM?$AA?3?$AAa?$AAm?$AA?3?$AAP?$AAM?$AA?3?$AAp?$AAm?$AA?$AA@ 100c5724     libcpmtd:wlocale.obj
 0002:00004740       ?_Src@?1??_Getffldx@?$num_get@GV?$istreambuf_iterator@GU?$char_traits@G@std@@@std@@@std@@ABAHPADAAV?$istreambuf_iterator@GU?$char_traits@G@std@@@3@1AAVios_base@3@PAH@Z@4QBDB 100c5740     libcpmtd:wlocale.obj
 0002:00004760       ??_C@_1MM@BFHGHMKD@?$AAs?$AAt?$AAd?$AA?3?$AA?3?$AA_?$AAS?$AAt?$AAr?$AAi?$AAn?$AAg?$AA_?$AAc?$AAo?$AAn?$AAs?$AAt?$AA_?$AAi?$AAt?$AAe?$AAr?$AAa?$AAt?$AAo?$AAr?$AA?$DM?$AAc?$AAl?$AAa?$AAs@ 100c5760     libcpmtd:wlocale.obj
 0002:00004830       ??_C@_1EE@HAKOGNPH@?$AAs?$AAt?$AAr?$AAi?$AAn?$AAg?$AA?5?$AAi?$AAt?$AAe?$AAr?$AAa?$AAt?$AAo?$AAr?$AA?5?$AAn?$AAo?$AAt?$AA?5?$AAi?$AAn?$AAc?$AAr?$AAe?$AAm?$AAe?$AAn?$AAt?$AAa?$AAb?$AAl@ 100c5830     libcpmtd:wlocale.obj
 0002:00004878       ??_C@_1MO@GAPGDMNB@?$AAs?$AAt?$AAd?$AA?3?$AA?3?$AA_?$AAS?$AAt?$AAr?$AAi?$AAn?$AAg?$AA_?$AAc?$AAo?$AAn?$AAs?$AAt?$AA_?$AAi?$AAt?$AAe?$AAr?$AAa?$AAt?$AAo?$AAr?$AA?$DM?$AAc?$AAl?$AAa?$AAs@ 100c5878     libcpmtd:wlocale.obj
 0002:00004948       ??_C@_1NK@KPDIHNEP@?$AAs?$AAt?$AAd?$AA?3?$AA?3?$AA_?$AAS?$AAt?$AAr?$AAi?$AAn?$AAg?$AA_?$AAc?$AAo?$AAn?$AAs?$AAt?$AA_?$AAi?$AAt?$AAe?$AAr?$AAa?$AAt?$AAo?$AAr?$AA?$DM?$AAc?$AAl?$AAa?$AAs@ 100c5948     libcpmtd:wlocale.obj
 0002:00004a28       ??_C@_1NM@OFDKAKOJ@?$AAs?$AAt?$AAd?$AA?3?$AA?3?$AA_?$AAS?$AAt?$AAr?$AAi?$AAn?$AAg?$AA_?$AAc?$AAo?$AAn?$AAs?$AAt?$AA_?$AAi?$AAt?$AAe?$AAr?$AAa?$AAt?$AAo?$AAr?$AA?$DM?$AAc?$AAl?$AAa?$AAs@ 100c5a28     libcpmtd:wlocale.obj
 0002:00004b04       ??_C@_11LOCGONAA@?$AA?$AA@ 100c5b04     libcpmtd:wlocale.obj
 0002:00004b08       ??_C@_13IMODFHAA@?$AA?9?$AA?$AA@ 100c5b08     libcpmtd:wlocale.obj
 0002:00004b10       ??_C@_0HJ@PJOMAIHM@?$CLv$x?$CLv$xv$?$CLxv?$CL$xv$?$CLx?$CL$vx?$CL$vx$v?$CLx@ 100c5b10     libcpmtd:wlocale.obj
 0002:00004b90       ??_C@_1EM@MEFKBKGF@?$AAs?$AAt?$AAr?$AAi?$AAn?$AAg?$AA?5?$AAi?$AAt?$AAe?$AAr?$AAa?$AAt?$AAo?$AAr?$AA?5?$AA?$CL?$AA?5?$AAo?$AAf?$AAf?$AAs?$AAe?$AAt?$AA?5?$AAo?$AAu?$AAt?$AA?5?$AAo?$AAf?$AA?5@ 100c5b90     libcpmtd:wlocale.obj
 0002:00004be0       ??_C@_1MO@BFIEDEJC@?$AAs?$AAt?$AAd?$AA?3?$AA?3?$AA_?$AAS?$AAt?$AAr?$AAi?$AAn?$AAg?$AA_?$AAc?$AAo?$AAn?$AAs?$AAt?$AA_?$AAi?$AAt?$AAe?$AAr?$AAa?$AAt?$AAo?$AAr?$AA?$DM?$AAc?$AAl?$AAa?$AAs@ 100c5be0     libcpmtd:wlocale.obj
 0002:00004cb0       ??_C@_1DM@KDEKGMPF@?$AAs?$AAt?$AAr?$AAi?$AAn?$AAg?$AA?5?$AAi?$AAt?$AAe?$AAr?$AAa?$AAt?$AAo?$AAr?$AAs?$AA?5?$AAi?$AAn?$AAc?$AAo?$AAm?$AAp?$AAa?$AAt?$AAi?$AAb?$AAl?$AAe?$AA?$AA@ 100c5cb0     libcpmtd:wlocale.obj
 0002:00004cec       ??_C@_0CI@FNPHFCCM@Standard?5C?$CL?$CL?5Libraries?5Invalid?5A@ 100c5cec     libcpmtd:wlocale.obj
 0002:00004d18       ??_C@_1FO@GJIHNDLM@?$AA?$CC?$AAS?$AAt?$AAa?$AAn?$AAd?$AAa?$AAr?$AAd?$AA?5?$AAC?$AA?$CL?$AA?$CL?$AA?5?$AAL?$AAi?$AAb?$AAr?$AAa?$AAr?$AAi?$AAe?$AAs?$AA?5?$AAI?$AAn?$AAv?$AAa?$AAl?$AAi?$AAd?$AA?5@ 100c5d18     libcpmtd:wlocale.obj
 0002:00004d78       ??_C@_1MG@CLNEOJNJ@?$AAs?$AAt?$AAd?$AA?3?$AA?3?$AA_?$AAS?$AAt?$AAr?$AAi?$AAn?$AAg?$AA_?$AAc?$AAo?$AAn?$AAs?$AAt?$AA_?$AAi?$AAt?$AAe?$AAr?$AAa?$AAt?$AAo?$AAr?$AA?$DM?$AAc?$AAl?$AAa?$AAs@ 100c5d78     libcpmtd:wlocale.obj
 0002:00004e40       ??_C@_1CG@JNLFBNGN@?$AA?$CC?$AAi?$AAn?$AAv?$AAa?$AAl?$AAi?$AAd?$AA?5?$AAa?$AAr?$AAg?$AAu?$AAm?$AAe?$AAn?$AAt?$AA?$CC?$AA?$AA@ 100c5e40     libcpmtd:wlocale.obj
 0002:00004e68       ??_C@_1NM@JAEIACKK@?$AAs?$AAt?$AAd?$AA?3?$AA?3?$AA_?$AAS?$AAt?$AAr?$AAi?$AAn?$AAg?$AA_?$AAc?$AAo?$AAn?$AAs?$AAt?$AA_?$AAi?$AAt?$AAe?$AAr?$AAa?$AAt?$AAo?$AAr?$AA?$DM?$AAc?$AAl?$AAa?$AAs@ 100c5e68     libcpmtd:wlocale.obj
 0002:00004f48       ??_C@_1NE@FAMHLCMB@?$AAs?$AAt?$AAd?$AA?3?$AA?3?$AA_?$AAS?$AAt?$AAr?$AAi?$AAn?$AAg?$AA_?$AAc?$AAo?$AAn?$AAs?$AAt?$AA_?$AAi?$AAt?$AAe?$AAr?$AAa?$AAt?$AAo?$AAr?$AA?$DM?$AAc?$AAl?$AAa?$AAs@ 100c5f48     libcpmtd:wlocale.obj
 0002:0000501c       ??_C@_01JOAMLHOP@?9?$AA@   100c601c     libcpmtd:wlocale.obj
 0002:00005024       ??_7?$collate@D@std@@6B@   100c6024     libcpmtd:xlocale.obj
 0002:0000503c       ??_C@_0DD@HMEKMHNI@f?3?2dd?2vctools?2crt_bld?2self_x86?2c@ 100c603c     libcpmtd:xlocale.obj
 0002:00005074       ??_7?$messages@D@std@@6B@  100c6074     libcpmtd:xlocale.obj
 0002:00005090       ??_7?$money_get@DV?$istreambuf_iterator@DU?$char_traits@D@std@@@std@@@std@@6B@ 100c6090     libcpmtd:xlocale.obj
 0002:000050a8       ??_7?$money_put@DV?$ostreambuf_iterator@DU?$char_traits@D@std@@@std@@@std@@6B@ 100c60a8     libcpmtd:xlocale.obj
 0002:000050c0       ??_7?$_Mpunct@D@std@@6B@   100c60c0     libcpmtd:xlocale.obj
 0002:000050f4       ??_7?$moneypunct@D$0A@@std@@6B@ 100c60f4     libcpmtd:xlocale.obj
 0002:00005128       ??_7?$moneypunct@D$00@std@@6B@ 100c6128     libcpmtd:xlocale.obj
 0002:0000515c       ??_7?$time_get@DV?$istreambuf_iterator@DU?$char_traits@D@std@@@std@@@std@@6B@ 100c615c     libcpmtd:xlocale.obj
 0002:00005188       ??_7?$time_put@DV?$ostreambuf_iterator@DU?$char_traits@D@std@@@std@@@std@@6B@ 100c6188     libcpmtd:xlocale.obj
 0002:00005198       ?_Src@?1??do_put@?$money_put@DV?$ostreambuf_iterator@DU?$char_traits@D@std@@@std@@@std@@MBE?AV?$ostreambuf_iterator@DU?$char_traits@D@std@@@3@V43@_NAAVios_base@3@DABV?$basic_string@DU?$char_traits@D@std@@V?$allocator@D@2@@3@@Z@4QBDB 100c6198     libcpmtd:xlocale.obj
 0002:000051a4       ??_C@_04IHCGILC@?$CB?$CFx?$AA?$AA@ 100c61a4     libcpmtd:xlocale.obj
 0002:000051ac       ?_Src@?4??_Getmfld@?$money_get@DV?$istreambuf_iterator@DU?$char_traits@D@std@@@std@@@std@@ABE?AV?$basic_string@DU?$char_traits@D@std@@V?$allocator@D@2@@3@AAV?$istreambuf_iterator@DU?$char_traits@D@std@@@3@0_NAAVios_base@3@PAD@Z@4QBDB 100c61ac     libcpmtd:xlocale.obj
 0002:000051b8       ??_C@_1MI@IFMPOAI@?$AAs?$AAt?$AAd?$AA?3?$AA?3?$AA_?$AAS?$AAt?$AAr?$AAi?$AAn?$AAg?$AA_?$AAc?$AAo?$AAn?$AAs?$AAt?$AA_?$AAi?$AAt?$AAe?$AAr?$AAa?$AAt?$AAo?$AAr?$AA?$DM?$AAc?$AAl?$AAa?$AAs@ 100c61b8     libcpmtd:xlocale.obj
 0002:00005280       ??_C@_1MI@HNCOPGEL@?$AAs?$AAt?$AAd?$AA?3?$AA?3?$AA_?$AAS?$AAt?$AAr?$AAi?$AAn?$AAg?$AA_?$AAc?$AAo?$AAn?$AAs?$AAt?$AA_?$AAi?$AAt?$AAe?$AAr?$AAa?$AAt?$AAo?$AAr?$AA?$DM?$AAc?$AAl?$AAa?$AAs@ 100c6280     libcpmtd:xlocale.obj
 0002:00005348       ??_C@_1MA@BDELDFHB@?$AAs?$AAt?$AAd?$AA?3?$AA?3?$AA_?$AAS?$AAt?$AAr?$AAi?$AAn?$AAg?$AA_?$AAc?$AAo?$AAn?$AAs?$AAt?$AA_?$AAi?$AAt?$AAe?$AAr?$AAa?$AAt?$AAo?$AAr?$AA?$DM?$AAc?$AAl?$AAa?$AAs@ 100c6348     libcpmtd:xlocale.obj
 0002:00005408       __real@4d800000            100c6408     libcpmtd:xstof.obj
 0002:0000540c       __real@4e6e6b28            100c640c     libcpmtd:xstof.obj
 0002:00005410       __real@41b0000000000000    100c6410     libcpmtd:xstod.obj
 0002:00005418       __real@41cdcd6500000000    100c6418     libcpmtd:xstod.obj
 0002:000054c0       ??_C@_1FK@EECMNKOM@?$AAp?$AAl?$AAo?$AAc?$AA?9?$AA?$DO?$AA_?$AAM?$AAb?$AAc?$AAu?$AAr?$AAm?$AAa?$AAx?$AA?5?$AA?$DN?$AA?$DN?$AA?5?$AA1?$AA?5?$AA?$HM?$AA?$HM?$AA?5?$AAp?$AAl?$AAo?$AAc?$AA?9?$AA?$DO?$AA_?$AAM@ 100c64c0     libcpmtd:xmbtowc.obj
 0002:00005520       ??_C@_1GC@PMLIMJPH@?$AAf?$AA?3?$AA?2?$AAd?$AAd?$AA?2?$AAv?$AAc?$AAt?$AAo?$AAo?$AAl?$AAs?$AA?2?$AAc?$AAr?$AAt?$AA_?$AAb?$AAl?$AAd?$AA?2?$AAs?$AAe?$AAl?$AAf?$AA_?$AAx?$AA8?$AA6?$AA?2?$AAc@ 100c6520     libcpmtd:xmbtowc.obj
 0002:00005584       ??_C@_0DC@JCPNLPOJ@f?3?2dd?2vctools?2crt_bld?2self_x86?2c@ 100c6584     libcpmtd:xwcsxfrm.obj
 0002:000055e8       __real@3fc00000            100c65e8     libcpmtd:xfprec.obj
 0002:000055ec       __real@bf000000            100c65ec     libcpmtd:xfprec.obj
 0002:000055fc       __real@41200000            100c65fc     libcpmtd:xfdtento.obj
 0002:00005600       __real@bfe0000000000000    100c6600     libcpmtd:xprec.obj
 0002:00005690       ??_C@_1EO@LHDAJOCM@?$AA_?$AAB?$AAL?$AAO?$AAC?$AAK?$AA_?$AAT?$AAY?$AAP?$AAE?$AA_?$AAI?$AAS?$AA_?$AAV?$AAA?$AAL?$AAI?$AAD?$AA?$CI?$AAp?$AAH?$AAe?$AAa?$AAd?$AA?9?$AA?$DO?$AAn?$AAB?$AAl?$AAo@ 100c6690     LIBCMTD:dbgdel.obj
 0002:000056e0       ??_C@_1GE@BDAODJCD@?$AAf?$AA?3?$AA?2?$AAd?$AAd?$AA?2?$AAv?$AAc?$AAt?$AAo?$AAo?$AAl?$AAs?$AA?2?$AAc?$AAr?$AAt?$AA_?$AAb?$AAl?$AAd?$AA?2?$AAs?$AAe?$AAl?$AAf?$AA_?$AAx?$AA8?$AA6?$AA?2?$AAc@ 100c66e0     LIBCMTD:dbgdel.obj
 0002:00005744       ??_C@_0DA@HMCPFNKN@f?3?2dd?2vctools?2crt_bld?2self_x86?2c@ 100c6744     LIBCMTD:onexit.obj
 0002:0000577c       ??_C@_1BI@GKKCBDMD@?$AAd?$AAs?$AAt?$AA?5?$AA?$CB?$AA?$DN?$AA?5?$AAN?$AAU?$AAL?$AAL?$AA?$AA@ 100c677c     LIBCMTD:memcpy_s.obj
 0002:00005798       ??_C@_1GE@NEOPGGBM@?$AAf?$AA?3?$AA?2?$AAd?$AAd?$AA?2?$AAv?$AAc?$AAt?$AAo?$AAo?$AAl?$AAs?$AA?2?$AAc?$AAr?$AAt?$AA_?$AAb?$AAl?$AAd?$AA?2?$AAs?$AAe?$AAl?$AAf?$AA_?$AAx?$AA8?$AA6?$AA?2?$AAc@ 100c6798     LIBCMTD:memcpy_s.obj
 0002:000057fc       ??_C@_1BC@GKHDJMGB@?$AAm?$AAe?$AAm?$AAc?$AAp?$AAy?$AA_?$AAs?$AA?$AA@ 100c67fc     LIBCMTD:memcpy_s.obj
 0002:00005810       ??_C@_1BI@DCHLDCPP@?$AAs?$AAr?$AAc?$AA?5?$AA?$CB?$AA?$DN?$AA?5?$AAN?$AAU?$AAL?$AAL?$AA?$AA@ 100c6810     LIBCMTD:memcpy_s.obj
 0002:00005828       ??_C@_1CK@DDKKOLAN@?$AAs?$AAi?$AAz?$AAe?$AAI?$AAn?$AAB?$AAy?$AAt?$AAe?$AAs?$AA?5?$AA?$DO?$AA?$DN?$AA?5?$AAc?$AAo?$AAu?$AAn?$AAt?$AA?$AA@ 100c6828     LIBCMTD:memcpy_s.obj
 0002:00005854       ??_C@_1CC@FADMNIL@?$AA?$CI?$AAs?$AAt?$AAr?$AAe?$AAa?$AAm?$AA?5?$AA?$CB?$AA?$DN?$AA?5?$AAN?$AAU?$AAL?$AAL?$AA?$CJ?$AA?$AA@ 100c6854     LIBCMTD:fclose.obj
 0002:00005878       ??_C@_1GA@KMIDAPAP@?$AAf?$AA?3?$AA?2?$AAd?$AAd?$AA?2?$AAv?$AAc?$AAt?$AAo?$AAo?$AAl?$AAs?$AA?2?$AAc?$AAr?$AAt?$AA_?$AAb?$AAl?$AAd?$AA?2?$AAs?$AAe?$AAl?$AAf?$AA_?$AAx?$AA8?$AA6?$AA?2?$AAc@ 100c6878     LIBCMTD:fclose.obj
 0002:000058d8       ??_C@_1O@EGMJNCOI@?$AAf?$AAc?$AAl?$AAo?$AAs?$AAe?$AA?$AA@ 100c68d8     LIBCMTD:fclose.obj
 0002:000058e8       ??_C@_1BM@JMKHIAHP@?$AA?$CI?$AAs?$AAt?$AAr?$AA?5?$AA?$CB?$AA?$DN?$AA?5?$AAN?$AAU?$AAL?$AAL?$AA?$CJ?$AA?$AA@ 100c68e8     LIBCMTD:fclose.obj
 0002:00005904       ??_C@_1BO@JINCABEC@?$AA_?$AAf?$AAc?$AAl?$AAo?$AAs?$AAe?$AA_?$AAn?$AAo?$AAl?$AAo?$AAc?$AAk?$AA?$AA@ 100c6904     LIBCMTD:fclose.obj
 0002:00005928       ??_C@_1FO@CGIIEKDD@?$AAf?$AA?3?$AA?2?$AAd?$AAd?$AA?2?$AAv?$AAc?$AAt?$AAo?$AAo?$AAl?$AAs?$AA?2?$AAc?$AAr?$AAt?$AA_?$AAb?$AAl?$AAd?$AA?2?$AAs?$AAe?$AAl?$AAf?$AA_?$AAx?$AA8?$AA6?$AA?2?$AAc@ 100c6928     LIBCMTD:fgetc.obj
 0002:00005988       ??_C@_1M@FBFFFGJE@?$AAf?$AAg?$AAe?$AAt?$AAc?$AA?$AA@ 100c6988     LIBCMTD:fgetc.obj
 0002:00005998       ??_C@_1BAA@ODEGEDCK@?$AA?$CI?$AA?5?$AA?$CI?$AA_?$AAS?$AAt?$AAr?$AAe?$AAa?$AAm?$AA?9?$AA?$DO?$AA_?$AAf?$AAl?$AAa?$AAg?$AA?5?$AA?$CG?$AA?5?$AA_?$AAI?$AAO?$AAS?$AAT?$AAR?$AAG?$AA?$CJ?$AA?5?$AA?$HM?$AA?$HM?$AA?5@ 100c6998     LIBCMTD:fgetc.obj
 0002:00005a98       ??_C@_19OGFDBGF@?$AAg?$AAe?$AAt?$AAc?$AA?$AA@ 100c6a98     LIBCMTD:fgetc.obj
 0002:00005aa8       ??_C@_1GC@NMLEJGPF@?$AAf?$AA?3?$AA?2?$AAd?$AAd?$AA?2?$AAv?$AAc?$AAt?$AAo?$AAo?$AAl?$AAs?$AA?2?$AAc?$AAr?$AAt?$AA_?$AAb?$AAl?$AAd?$AA?2?$AAs?$AAe?$AAl?$AAf?$AA_?$AAx?$AA8?$AA6?$AA?2?$AAc@ 100c6aa8     LIBCMTD:fgetpos.obj
 0002:00005b0c       ??_C@_1BA@PDKPGILH@?$AAf?$AAg?$AAe?$AAt?$AAp?$AAo?$AAs?$AA?$AA@ 100c6b0c     LIBCMTD:fgetpos.obj
 0002:00005b1c       ??_C@_1BM@IMKAODOM@?$AA?$CI?$AAp?$AAo?$AAs?$AA?5?$AA?$CB?$AA?$DN?$AA?5?$AAN?$AAU?$AAL?$AAL?$AA?$CJ?$AA?$AA@ 100c6b1c     LIBCMTD:fgetpos.obj
 0002:00005b38       ??_C@_1FO@CJOPDBGD@?$AAf?$AA?3?$AA?2?$AAd?$AAd?$AA?2?$AAv?$AAc?$AAt?$AAo?$AAo?$AAl?$AAs?$AA?2?$AAc?$AAr?$AAt?$AA_?$AAb?$AAl?$AAd?$AA?2?$AAs?$AAe?$AAl?$AAf?$AA_?$AAx?$AA8?$AA6?$AA?2?$AAc@ 100c6b38     LIBCMTD:fputc.obj
 0002:00005b98       ??_C@_1M@OIJMPNCO@?$AAf?$AAp?$AAu?$AAt?$AAc?$AA?$AA@ 100c6b98     LIBCMTD:fputc.obj
 0002:00005ba4       ??_C@_19LHKMJKNP@?$AAp?$AAu?$AAt?$AAc?$AA?$AA@ 100c6ba4     LIBCMTD:fputc.obj
 0002:00005bb0       ??_C@_1GC@PJLPBNOL@?$AAf?$AA?3?$AA?2?$AAd?$AAd?$AA?2?$AAv?$AAc?$AAt?$AAo?$AAo?$AAl?$AAs?$AA?2?$AAc?$AAr?$AAt?$AA_?$AAb?$AAl?$AAd?$AA?2?$AAs?$AAe?$AAl?$AAf?$AA_?$AAx?$AA8?$AA6?$AA?2?$AAc@ 100c6bb0     LIBCMTD:fsetpos.obj
 0002:00005c14       ??_C@_1BA@IMLBNLMA@?$AAf?$AAs?$AAe?$AAt?$AAp?$AAo?$AAs?$AA?$AA@ 100c6c14     LIBCMTD:fsetpos.obj
 0002:00005c28       ??_C@_1GE@FPMJBCHH@?$AAf?$AA?3?$AA?2?$AAd?$AAd?$AA?2?$AAv?$AAc?$AAt?$AAo?$AAo?$AAl?$AAs?$AA?2?$AAc?$AAr?$AAt?$AA_?$AAb?$AAl?$AAd?$AA?2?$AAs?$AAe?$AAl?$AAf?$AA_?$AAx?$AA8?$AA6?$AA?2?$AAc@ 100c6c28     LIBCMTD:fseeki64.obj
 0002:00005c8c       ??_C@_1BE@LFNEFJFD@?$AA_?$AAf?$AAs?$AAe?$AAe?$AAk?$AAi?$AA6?$AA4?$AA?$AA@ 100c6c8c     LIBCMTD:fseeki64.obj
 0002:00005ca0       ??_C@_1IO@PMHBOLJK@?$AA?$CI?$AA?$CI?$AAw?$AAh?$AAe?$AAn?$AAc?$AAe?$AA?5?$AA?$DN?$AA?$DN?$AA?5?$AAS?$AAE?$AAE?$AAK?$AA_?$AAS?$AAE?$AAT?$AA?$CJ?$AA?5?$AA?$HM?$AA?$HM?$AA?5?$AA?$CI?$AAw?$AAh?$AAe?$AAn?$AAc?$AAe@ 100c6ca0     LIBCMTD:fseeki64.obj
 0002:00005d30       ??_C@_1BI@MFCLPIBM@?$AAs?$AAt?$AAr?$AA?5?$AA?$CB?$AA?$DN?$AA?5?$AAN?$AAU?$AAL?$AAL?$AA?$AA@ 100c6d30     LIBCMTD:fseeki64.obj
 0002:00005d48       ??_C@_1GA@DOFNKKGD@?$AAf?$AA?3?$AA?2?$AAd?$AAd?$AA?2?$AAv?$AAc?$AAt?$AAo?$AAo?$AAl?$AAs?$AA?2?$AAc?$AAr?$AAt?$AA_?$AAb?$AAl?$AAd?$AA?2?$AAs?$AAe?$AAl?$AAf?$AA_?$AAx?$AA8?$AA6?$AA?2?$AAc@ 100c6d48     LIBCMTD:fwrite.obj
 0002:00005da8       ??_C@_1O@KLNKIMAP@?$AAf?$AAw?$AAr?$AAi?$AAt?$AAe?$AA?$AA@ 100c6da8     LIBCMTD:fwrite.obj
 0002:00005db8       ??_C@_1BO@JGPKCBCE@?$AA_?$AAf?$AAw?$AAr?$AAi?$AAt?$AAe?$AA_?$AAn?$AAo?$AAl?$AAo?$AAc?$AAk?$AA?$AA@ 100c6db8     LIBCMTD:fwrite.obj
 0002:00005dd8       ??_C@_1CC@CGFEEBMC@?$AA?$CI?$AAb?$AAu?$AAf?$AAf?$AAe?$AAr?$AA?5?$AA?$CB?$AA?$DN?$AA?5?$AAN?$AAU?$AAL?$AAL?$AA?$CJ?$AA?$AA@ 100c6dd8     LIBCMTD:fwrite.obj
 0002:00005dfc       ??_C@_1DC@FHEPNAPF@?$AAn?$AAu?$AAm?$AA?5?$AA?$DM?$AA?$DN?$AA?5?$AA?$CI?$AAS?$AAI?$AAZ?$AAE?$AA_?$AAM?$AAA?$AAX?$AA?5?$AA?1?$AA?5?$AAs?$AAi?$AAz?$AAe?$AA?$CJ?$AA?$AA@ 100c6dfc     LIBCMTD:fwrite.obj
 0002:00005e30       ??_C@_1LG@DCNDJCHK@?$AA?$CI?$AA?$CC?$AAI?$AAn?$AAc?$AAo?$AAn?$AAs?$AAi?$AAs?$AAt?$AAe?$AAn?$AAt?$AA?5?$AAS?$AAt?$AAr?$AAe?$AAa?$AAm?$AA?5?$AAC?$AAo?$AAu?$AAn?$AAt?$AA?4?$AA?5?$AAF?$AAl?$AAu@ 100c6e30     LIBCMTD:fwrite.obj
 0002:00005ee8       ??_C@_1CC@MGIEJOME@?$AA?$CI?$AAf?$AAo?$AAr?$AAm?$AAa?$AAt?$AA?5?$AA?$CB?$AA?$DN?$AA?5?$AAN?$AAU?$AAL?$AAL?$AA?$CJ?$AA?$AA@ 100c6ee8     LIBCMTD:printf.obj
 0002:00005f10       ??_C@_1GA@LHEGHOAF@?$AAf?$AA?3?$AA?2?$AAd?$AAd?$AA?2?$AAv?$AAc?$AAt?$AAo?$AAo?$AAl?$AAs?$AA?2?$AAc?$AAr?$AAt?$AA_?$AAb?$AAl?$AAd?$AA?2?$AAs?$AAe?$AAl?$AAf?$AA_?$AAx?$AA8?$AA6?$AA?2?$AAc@ 100c6f10     LIBCMTD:printf.obj
 0002:00005f70       ??_C@_1O@GKDHFACN@?$AAp?$AAr?$AAi?$AAn?$AAt?$AAf?$AA?$AA@ 100c6f70     LIBCMTD:printf.obj
 0002:00005f80       ??_C@_1GC@FPPJLAOD@?$AAf?$AA?3?$AA?2?$AAd?$AAd?$AA?2?$AAv?$AAc?$AAt?$AAo?$AAo?$AAl?$AAs?$AA?2?$AAc?$AAr?$AAt?$AA_?$AAb?$AAl?$AAd?$AA?2?$AAs?$AAe?$AAl?$AAf?$AA_?$AAx?$AA8?$AA6?$AA?2?$AAc@ 100c6f80     LIBCMTD:setvbuf.obj
 0002:00005fe4       ??_C@_1BA@OGODIODK@?$AAs?$AAe?$AAt?$AAv?$AAb?$AAu?$AAf?$AA?$AA@ 100c6fe4     LIBCMTD:setvbuf.obj
 0002:00005ff8       ??_C@_1HC@CBFEDAGG@?$AA?$CI?$AAt?$AAy?$AAp?$AAe?$AA?5?$AA?$DN?$AA?$DN?$AA?5?$AA_?$AAI?$AAO?$AAN?$AAB?$AAF?$AA?$CJ?$AA?5?$AA?$HM?$AA?$HM?$AA?5?$AA?$CI?$AAt?$AAy?$AAp?$AAe?$AA?5?$AA?$DN?$AA?$DN?$AA?5?$AA_?$AAI?$AAO@ 100c6ff8     LIBCMTD:setvbuf.obj
 0002:00006070       ??_C@_1EG@IJNJIDNB@?$AA?$CI?$AA?$CI?$AA2?$AA?5?$AA?$DM?$AA?$DN?$AA?5?$AAs?$AAi?$AAz?$AAe?$AA?$CJ?$AA?5?$AA?$CG?$AA?$CG?$AA?5?$AA?$CI?$AAs?$AAi?$AAz?$AAe?$AA?5?$AA?$DM?$AA?$DN?$AA?5?$AAI?$AAN?$AAT?$AA_?$AAM?$AAA?$AAX@ 100c7070     LIBCMTD:setvbuf.obj
 0002:000060b8       ??_C@_0DB@MIGHMKAN@f?3?2dd?2vctools?2crt_bld?2self_x86?2c@ 100c70b8     LIBCMTD:setvbuf.obj
 0002:000060f0       ??_C@_1GC@BMNPEKNN@?$AAf?$AA?3?$AA?2?$AAd?$AAd?$AA?2?$AAv?$AAc?$AAt?$AAo?$AAo?$AAl?$AAs?$AA?2?$AAc?$AAr?$AAt?$AA_?$AAb?$AAl?$AAd?$AA?2?$AAs?$AAe?$AAl?$AAf?$AA_?$AAx?$AA8?$AA6?$AA?2?$AAc@ 100c70f0     LIBCMTD:sprintf.obj
 0002:00006154       ??_C@_1BA@KBJJGFFE@?$AAs?$AAp?$AAr?$AAi?$AAn?$AAt?$AAf?$AA?$AA@ 100c7154     LIBCMTD:sprintf.obj
 0002:00006164       ??_C@_1CC@OLIJCKA@?$AA?$CI?$AAs?$AAt?$AAr?$AAi?$AAn?$AAg?$AA?5?$AA?$CB?$AA?$DN?$AA?5?$AAN?$AAU?$AAL?$AAL?$AA?$CJ?$AA?$AA@ 100c7164     LIBCMTD:sprintf.obj
 0002:00006188       ??_C@_1GA@OAFAANFO@?$AAf?$AA?3?$AA?2?$AAd?$AAd?$AA?2?$AAv?$AAc?$AAt?$AAo?$AAo?$AAl?$AAs?$AA?2?$AAc?$AAr?$AAt?$AA_?$AAb?$AAl?$AAd?$AA?2?$AAs?$AAe?$AAl?$AAf?$AA_?$AAx?$AA8?$AA6?$AA?2?$AAc@ 100c7188     LIBCMTD:ungetc.obj
 0002:000061e8       ??_C@_1O@JDPLECOK@?$AAu?$AAn?$AAg?$AAe?$AAt?$AAc?$AA?$AA@ 100c71e8     LIBCMTD:ungetc.obj
 0002:000061f8       ??_C@_1HC@OEJDDIIH@?$AAf?$AA?3?$AA?2?$AAd?$AAd?$AA?2?$AAv?$AAc?$AAt?$AAo?$AAo?$AAl?$AAs?$AA?2?$AAc?$AAr?$AAt?$AA_?$AAb?$AAl?$AAd?$AA?2?$AAs?$AAe?$AAl?$AAf?$AA_?$AAx?$AA8?$AA6?$AA?2?$AAc@ 100c71f8     LIBCMTD:ungetc.obj
 0002:0000626c       ??_C@_1BO@OLMLKKEA@?$AA_?$AAu?$AAn?$AAg?$AAe?$AAt?$AAc?$AA_?$AAn?$AAo?$AAl?$AAo?$AAc?$AAk?$AA?$AA@ 100c726c     LIBCMTD:ungetc.obj
 0002:0000628c       ??_C@_1BE@CHNFPLHD@?$AA_?$AAs?$AAn?$AAp?$AAr?$AAi?$AAn?$AAt?$AAf?$AA?$AA@ 100c728c     LIBCMTD:snprintf.obj
 0002:000062a0       ??_C@_1EC@FABAOFFO@?$AA?$CI?$AAc?$AAo?$AAu?$AAn?$AAt?$AA?5?$AA?$DN?$AA?$DN?$AA?5?$AA0?$AA?$CJ?$AA?5?$AA?$HM?$AA?$HM?$AA?5?$AA?$CI?$AAs?$AAt?$AAr?$AAi?$AAn?$AAg?$AA?5?$AA?$CB?$AA?$DN?$AA?5?$AAN?$AAU?$AAL?$AAL?$AA?$CJ@ 100c72a0     LIBCMTD:snprintf.obj
 0002:000062e4       ??_C@_0CP@BNKDODJJ@f?3?2dd?2vctools?2crt_bld?2self_x86?2c@ 100c72e4     LIBCMTD:_file.obj
 0002:00006318       ??_7exception@std@@6B@     100c7318     LIBCMTD:stdexcpt.obj
 0002:00006320       ??_C@_0BC@EOODALEL@Unknown?5exception?$AA@ 100c7320     LIBCMTD:stdexcpt.obj
 0002:00006338       ??_7bad_cast@std@@6B@      100c7338     LIBCMTD:stdexcpt.obj
 0002:00006344       ??_7bad_typeid@std@@6B@    100c7344     LIBCMTD:stdexcpt.obj
 0002:00006350       ??_7__non_rtti_object@std@@6B@ 100c7350     LIBCMTD:stdexcpt.obj
 0002:00006364       ??_C@_1BA@GLMCNLEM@?$AAW?$AAa?$AAr?$AAn?$AAi?$AAn?$AAg?$AA?$AA@ 100c7364     LIBCMTD:dbgrptw.obj
 0002:00006374       ??_C@_1M@ILHOPKA@?$AAE?$AAr?$AAr?$AAo?$AAr?$AA?$AA@ 100c7374     LIBCMTD:dbgrptw.obj
 0002:00006380       ??_C@_1CC@CGHMNGDG@?$AAA?$AAs?$AAs?$AAe?$AAr?$AAt?$AAi?$AAo?$AAn?$AA?5?$AAF?$AAa?$AAi?$AAl?$AAe?$AAd?$AA?$AA@ 100c7380     LIBCMTD:dbgrptw.obj
 0002:000063a4       ??_C@_17LGKOMLJ@?$AA?4?$AA?4?$AA?4?$AA?$AA@ 100c73a4     LIBCMTD:dbgrptw.obj
 0002:000063b0       ??_C@_1HI@OFEHGPPC@?$AAm?$AAo?$AAd?$AAe?$AA?5?$AA?$DN?$AA?$DN?$AA?5?$AA_?$AAC?$AAR?$AAT?$AA_?$AAR?$AAP?$AAT?$AAH?$AAO?$AAO?$AAK?$AA_?$AAI?$AAN?$AAS?$AAT?$AAA?$AAL?$AAL?$AA?5?$AA?$HM?$AA?$HM?$AA?5@ 100c73b0     LIBCMTD:dbgrptw.obj
 0002:00006428       ??_C@_1GA@IBJGKIFE@?$AAf?$AA?3?$AA?2?$AAd?$AAd?$AA?2?$AAv?$AAc?$AAt?$AAo?$AAo?$AAl?$AAs?$AA?2?$AAc?$AAr?$AAt?$AA_?$AAb?$AAl?$AAd?$AA?2?$AAs?$AAe?$AAl?$AAf?$AA_?$AAx?$AA8?$AA6?$AA?2?$AAc@ 100c7428     LIBCMTD:dbgrptw.obj
 0002:00006488       ??_C@_1CI@IIHEAKEI@?$AA_?$AAC?$AAr?$AAt?$AAS?$AAe?$AAt?$AAR?$AAe?$AAp?$AAo?$AAr?$AAt?$AAH?$AAo?$AAo?$AAk?$AAW?$AA2?$AA?$AA@ 100c7488     LIBCMTD:dbgrptw.obj
 0002:000064b0       ??_C@_1CG@JBJEFOCM@?$AAp?$AAf?$AAn?$AAN?$AAe?$AAw?$AAH?$AAo?$AAo?$AAk?$AA?5?$AA?$CB?$AA?$DN?$AA?5?$AAN?$AAU?$AAL?$AAL?$AA?$AA@ 100c74b0     LIBCMTD:dbgrptw.obj
 0002:000064d8       ??_C@_1FI@PHIAFFHM@?$AA?$CI?$AA?$CC?$AAT?$AAh?$AAe?$AA?5?$AAh?$AAo?$AAo?$AAk?$AA?5?$AAf?$AAu?$AAn?$AAc?$AAt?$AAi?$AAo?$AAn?$AA?5?$AAi?$AAs?$AA?5?$AAn?$AAo?$AAt?$AA?5?$AAi?$AAn?$AA?5?$AAt?$AAh@ 100c74d8     LIBCMTD:dbgrptw.obj
 0002:00006530       ??_C@_0DA@PCCBBBID@f?3?2dd?2vctools?2crt_bld?2self_x86?2c@ 100c7530     LIBCMTD:dbgrptw.obj
 0002:00006560       ??_C@_1CI@PGJIFDEK@?$AA_?$AA_?$AAc?$AAr?$AAt?$AAM?$AAe?$AAs?$AAs?$AAa?$AAg?$AAe?$AAW?$AAi?$AAn?$AAd?$AAo?$AAw?$AAW?$AA?$AA@ 100c7560     LIBCMTD:dbgrptw.obj
 0002:00006588       ??_C@_1GI@DEDNNLCI@?$AAw?$AAc?$AAs?$AAc?$AAp?$AAy?$AA_?$AAs?$AA?$CI?$AAs?$AAz?$AAE?$AAx?$AAe?$AAN?$AAa?$AAm?$AAe?$AA?0?$AA?5?$AA2?$AA6?$AA0?$AA?0?$AA?5?$AAL?$AA?$CC?$AA?$DM?$AAp?$AAr?$AAo?$AAg@ 100c7588     LIBCMTD:dbgrptw.obj
 0002:000065f0       ??_C@_1CO@EAEJAADC@?$AA?$DM?$AAp?$AAr?$AAo?$AAg?$AAr?$AAa?$AAm?$AA?5?$AAn?$AAa?$AAm?$AAe?$AA?5?$AAu?$AAn?$AAk?$AAn?$AAo?$AAw?$AAn?$AA?$DO?$AA?$AA@ 100c75f0     LIBCMTD:dbgrptw.obj
 0002:00006620       ??_C@_1NO@LECLLHOL@?$AAm?$AAe?$AAm?$AAc?$AAp?$AAy?$AA_?$AAs?$AA?$CI?$AAs?$AAz?$AAS?$AAh?$AAo?$AAr?$AAt?$AAP?$AAr?$AAo?$AAg?$AAN?$AAa?$AAm?$AAe?$AA?0?$AA?5?$AAs?$AAi?$AAz?$AAe?$AAo?$AAf@ 100c7620     LIBCMTD:dbgrptw.obj
 0002:00006700       ??_C@_1OG@PMPPFHAF@?$AA?6?$AA?6?$AAF?$AAo?$AAr?$AA?5?$AAi?$AAn?$AAf?$AAo?$AAr?$AAm?$AAa?$AAt?$AAi?$AAo?$AAn?$AA?5?$AAo?$AAn?$AA?5?$AAh?$AAo?$AAw?$AA?5?$AAy?$AAo?$AAu?$AAr?$AA?5?$AAp?$AAr@ 100c7700     LIBCMTD:dbgrptw.obj
 0002:000067e8       ??_C@_1BK@PEDCIPMA@?$AAE?$AAx?$AAp?$AAr?$AAe?$AAs?$AAs?$AAi?$AAo?$AAn?$AA?3?$AA?5?$AA?$AA@ 100c77e8     LIBCMTD:dbgrptw.obj
 0002:00006804       ??_C@_15IABLJNFO@?$AA?6?$AA?6?$AA?$AA@ 100c7804     LIBCMTD:dbgrptw.obj
 0002:0000680c       ??_C@_1BA@GLLGCPCK@?$AA?6?$AAL?$AAi?$AAn?$AAe?$AA?3?$AA?5?$AA?$AA@ 100c780c     LIBCMTD:dbgrptw.obj
 0002:0000681c       ??_C@_1BA@LNHECFIM@?$AA?6?$AAF?$AAi?$AAl?$AAe?$AA?3?$AA?5?$AA?$AA@ 100c781c     LIBCMTD:dbgrptw.obj
 0002:0000682c       ??_C@_1BE@CGCJKGHI@?$AA?6?$AAM?$AAo?$AAd?$AAu?$AAl?$AAe?$AA?3?$AA?5?$AA?$AA@ 100c782c     LIBCMTD:dbgrptw.obj
 0002:00006840       ??_C@_1KM@HNMIBKJH@?$AAD?$AAe?$AAb?$AAu?$AAg?$AA?5?$AA?$CF?$AAs?$AA?$CB?$AA?6?$AA?6?$AAP?$AAr?$AAo?$AAg?$AAr?$AAa?$AAm?$AA?3?$AA?5?$AA?$CF?$AAs?$AA?$CF?$AAs?$AA?$CF?$AAs?$AA?$CF?$AAs?$AA?$CF?$AAs?$AA?$CF?$AAs@ 100c7840     LIBCMTD:dbgrptw.obj
 0002:000068ec       ??_C@_1BI@KALLJECN@?$AA?$CI?$AA?$CK?$AA_?$AAe?$AAr?$AAr?$AAn?$AAo?$AA?$CI?$AA?$CJ?$AA?$CJ?$AA?$AA@ 100c78ec     LIBCMTD:dbgrptw.obj
 0002:00006908       ??_C@_1JI@EACPGHID@?$AAw?$AAc?$AAs?$AAc?$AAp?$AAy?$AA_?$AAs?$AA?$CI?$AAs?$AAz?$AAO?$AAu?$AAt?$AAM?$AAe?$AAs?$AAs?$AAa?$AAg?$AAe?$AA?0?$AA?5?$AA4?$AA0?$AA9?$AA6?$AA?0?$AA?5?$AAL?$AA?$CC?$AA_@ 100c7908     LIBCMTD:dbgrptw.obj
 0002:000069a0       ??_C@_1FG@BBOLDHGF@?$AA_?$AAC?$AAr?$AAt?$AAD?$AAb?$AAg?$AAR?$AAe?$AAp?$AAo?$AAr?$AAt?$AA?3?$AA?5?$AAS?$AAt?$AAr?$AAi?$AAn?$AAg?$AA?5?$AAt?$AAo?$AAo?$AA?5?$AAl?$AAo?$AAn?$AAg?$AA?5?$AAo@ 100c79a0     LIBCMTD:dbgrptw.obj
 0002:000069f8       ??_C@_1EK@MBDPDCGA@?$AAM?$AAi?$AAc?$AAr?$AAo?$AAs?$AAo?$AAf?$AAt?$AA?5?$AAV?$AAi?$AAs?$AAu?$AAa?$AAl?$AA?5?$AAC?$AA?$CL?$AA?$CL?$AA?5?$AAR?$AAu?$AAn?$AAt?$AAi?$AAm?$AAe?$AA?5?$AAL?$AAi?$AAb@ 100c79f8     LIBCMTD:dbgrptw.obj
 0002:00006a58       ??_C@_04HJMOFLDF@Free?$AA@ 100c7a58     LIBCMTD:dbgheap.obj
 0002:00006a60       ??_C@_06EFAGIKOH@Normal?$AA@ 100c7a60     LIBCMTD:dbgheap.obj
 0002:00006a68       ??_C@_03OGPFLFLO@CRT?$AA@  100c7a68     LIBCMTD:dbgheap.obj
 0002:00006a6c       ??_C@_06KMEJCCGM@Ignore?$AA@ 100c7a6c     LIBCMTD:dbgheap.obj
 0002:00006a74       ??_C@_06PJIGMIJB@Client?$AA@ 100c7a74     LIBCMTD:dbgheap.obj
 0002:00006a7c       ??_C@_1CE@LJFEPPMP@?$AA_?$AAC?$AAr?$AAt?$AAC?$AAh?$AAe?$AAc?$AAk?$AAM?$AAe?$AAm?$AAo?$AAr?$AAy?$AA?$CI?$AA?$CJ?$AA?$AA@ 100c7a7c     LIBCMTD:dbgheap.obj
 0002:00006aa0       ??_C@_1GC@DNJKKEAA@?$AAf?$AA?3?$AA?2?$AAd?$AAd?$AA?2?$AAv?$AAc?$AAt?$AAo?$AAo?$AAl?$AAs?$AA?2?$AAc?$AAr?$AAt?$AA_?$AAb?$AAl?$AAd?$AA?2?$AAs?$AAe?$AAl?$AAf?$AA_?$AAx?$AA8?$AA6?$AA?2?$AAc@ 100c7aa0     LIBCMTD:dbgheap.obj
 0002:00006b04       ??_C@_0DF@BBEGIFEK@Client?5hook?5allocation?5failure?5a@ 100c7b04     LIBCMTD:dbgheap.obj
 0002:00006b3c       ??_C@_0CB@CCLOLAHO@Client?5hook?5allocation?5failure?4?6@ 100c7b3c     LIBCMTD:dbgheap.obj
 0002:00006b60       ??_C@_02DKCKIIND@?$CFs?$AA@ 100c7b60     LIBCMTD:dbgheap.obj
 0002:00006b64       ??_C@_0CF@BICKFLAF@Invalid?5allocation?5size?3?5?$CFIu?5byt@ 100c7b64     LIBCMTD:dbgheap.obj
 0002:00006b8c       ??_C@_0DC@JEMAGEKG@Error?3?5memory?5allocation?3?5bad?5me@ 100c7b8c     LIBCMTD:dbgheap.obj
 0002:00006bc0       ??_C@_0DI@KKJPDPGM@Client?5hook?5re?9allocation?5failur@ 100c7bc0     LIBCMTD:dbgheap.obj
 0002:00006bf8       ??_C@_0CE@DOFMDOL@Client?5hook?5re?9allocation?5failur@ 100c7bf8     LIBCMTD:dbgheap.obj
 0002:00006c20       ??_C@_0ED@GPCPBAGP@Invalid?5allocation?5size?3?5?$CFIu?5byt@ 100c7c20     LIBCMTD:dbgheap.obj
 0002:00006c68       ??_C@_0FA@EFEIGJKG@Error?3?5memory?5allocation?3?5bad?5me@ 100c7c68     LIBCMTD:dbgheap.obj
 0002:00006cb8       ??_C@_0EM@LGFLMAGJ@The?5Block?5at?50x?$CFp?5was?5allocated?5@ 100c7cb8     LIBCMTD:dbgheap.obj
 0002:00006d08       ??_C@_1EE@GFOPCECE@?$AA_?$AAC?$AAr?$AAt?$AAI?$AAs?$AAV?$AAa?$AAl?$AAi?$AAd?$AAH?$AAe?$AAa?$AAp?$AAP?$AAo?$AAi?$AAn?$AAt?$AAe?$AAr?$AA?$CI?$AAp?$AAU?$AAs?$AAe?$AAr?$AAD?$AAa?$AAt?$AAa@ 100c7d08     LIBCMTD:dbgheap.obj
 0002:00006d50       ??_C@_1IK@DCPKDGNH@?$AAp?$AAO?$AAl?$AAd?$AAB?$AAl?$AAo?$AAc?$AAk?$AA?9?$AA?$DO?$AAn?$AAL?$AAi?$AAn?$AAe?$AA?5?$AA?$DN?$AA?$DN?$AA?5?$AAI?$AAG?$AAN?$AAO?$AAR?$AAE?$AA_?$AAL?$AAI?$AAN?$AAE?$AA?5@ 100c7d50     LIBCMTD:dbgheap.obj
 0002:00006ddc       ??_C@_0DA@HFBKENN@Error?3?5possible?5heap?5corruption?5@ 100c7ddc     LIBCMTD:dbgheap.obj
 0002:00006e10       ??_C@_1GE@PCKLOLAO@?$AAf?$AAR?$AAe?$AAa?$AAl?$AAl?$AAo?$AAc?$AA?5?$AA?$HM?$AA?$HM?$AA?5?$AA?$CI?$AA?$CB?$AAf?$AAR?$AAe?$AAa?$AAl?$AAl?$AAo?$AAc?$AA?5?$AA?$CG?$AA?$CG?$AA?5?$AAp?$AAN?$AAe?$AAw?$AAB?$AAl@ 100c7e10     LIBCMTD:dbgheap.obj
 0002:00006e74       ??_C@_1DC@GEFKNOOL@?$AA_?$AAp?$AAL?$AAa?$AAs?$AAt?$AAB?$AAl?$AAo?$AAc?$AAk?$AA?5?$AA?$DN?$AA?$DN?$AA?5?$AAp?$AAO?$AAl?$AAd?$AAB?$AAl?$AAo?$AAc?$AAk?$AA?$AA@ 100c7e74     LIBCMTD:dbgheap.obj
 0002:00006ea8       ??_C@_1DE@KOOKLFBB@?$AA_?$AAp?$AAF?$AAi?$AAr?$AAs?$AAt?$AAB?$AAl?$AAo?$AAc?$AAk?$AA?5?$AA?$DN?$AA?$DN?$AA?5?$AAp?$AAO?$AAl?$AAd?$AAB?$AAl?$AAo?$AAc?$AAk?$AA?$AA@ 100c7ea8     LIBCMTD:dbgheap.obj
 0002:00006edc       ??_C@_1CE@CJACEFBA@?$AAp?$AAU?$AAs?$AAe?$AAr?$AAD?$AAa?$AAt?$AAa?$AA?5?$AA?$CB?$AA?$DN?$AA?5?$AAN?$AAU?$AAL?$AAL?$AA?$AA@ 100c7edc     LIBCMTD:dbgheap.obj
 0002:00006f00       ??_C@_1BI@HAPNGHDP@?$AA_?$AAe?$AAx?$AAp?$AAa?$AAn?$AAd?$AA_?$AAd?$AAb?$AAg?$AA?$AA@ 100c7f00     LIBCMTD:dbgheap.obj
 0002:00006f18       ??_C@_0EJ@HEIBCIMJ@The?5Block?5at?50x?$CFp?5was?5allocated?5@ 100c7f18     LIBCMTD:dbgheap.obj
 0002:00006f64       ??_C@_0BL@KEIPLFAC@Client?5hook?5free?5failure?4?6?$AA@ 100c7f64     LIBCMTD:dbgheap.obj
 0002:00006f80       ??_C@_0KI@JGFOHMEB@HEAP?5CORRUPTION?5DETECTED?3?5before@ 100c7f80     LIBCMTD:dbgheap.obj
 0002:00007028       ??_C@_0IK@PJCGLBOB@HEAP?5CORRUPTION?5DETECTED?3?5before@ 100c8028     LIBCMTD:dbgheap.obj
 0002:000070b8       ??_C@_0KE@MBMNHHHN@HEAP?5CORRUPTION?5DETECTED?3?5after?5@ 100c80b8     LIBCMTD:dbgheap.obj
 0002:00007160       ??_C@_0IG@LEMBDCJK@HEAP?5CORRUPTION?5DETECTED?3?5after?5@ 100c8160     LIBCMTD:dbgheap.obj
 0002:000071e8       ??_C@_1HK@HPCBMDFG@?$AAp?$AAH?$AAe?$AAa?$AAd?$AA?9?$AA?$DO?$AAn?$AAL?$AAi?$AAn?$AAe?$AA?5?$AA?$DN?$AA?$DN?$AA?5?$AAI?$AAG?$AAN?$AAO?$AAR?$AAE?$AA_?$AAL?$AAI?$AAN?$AAE?$AA?5?$AA?$CG?$AA?$CG?$AA?5?$AAp@ 100c81e8     LIBCMTD:dbgheap.obj
 0002:00007264       ??_C@_1DM@ODCJIDCP@?$AAp?$AAH?$AAe?$AAa?$AAd?$AA?9?$AA?$DO?$AAn?$AAB?$AAl?$AAo?$AAc?$AAk?$AAU?$AAs?$AAe?$AA?5?$AA?$DN?$AA?$DN?$AA?5?$AAn?$AAB?$AAl?$AAo?$AAc?$AAk?$AAU?$AAs?$AAe?$AA?$AA@ 100c8264     LIBCMTD:dbgheap.obj
 0002:000072a0       ??_C@_1CK@DMAGEMBG@?$AA_?$AAp?$AAL?$AAa?$AAs?$AAt?$AAB?$AAl?$AAo?$AAc?$AAk?$AA?5?$AA?$DN?$AA?$DN?$AA?5?$AAp?$AAH?$AAe?$AAa?$AAd?$AA?$AA@ 100c82a0     LIBCMTD:dbgheap.obj
 0002:000072cc       ??_C@_1CM@MMAADDMD@?$AA_?$AAp?$AAF?$AAi?$AAr?$AAs?$AAt?$AAB?$AAl?$AAo?$AAc?$AAk?$AA?5?$AA?$DN?$AA?$DN?$AA?5?$AAp?$AAH?$AAe?$AAa?$AAd?$AA?$AA@ 100c82cc     LIBCMTD:dbgheap.obj
 0002:000072f8       ??_C@_1BG@MBKOGDLD@?$AA_?$AAm?$AAs?$AAi?$AAz?$AAe?$AA_?$AAd?$AAb?$AAg?$AA?$AA@ 100c82f8     LIBCMTD:dbgheap.obj
 0002:00007310       ??_C@_0CE@MKKHMBMK@_heapchk?5fails?5with?5_HEAPBADBEGI@ 100c8310     LIBCMTD:dbgheap.obj
 0002:00007334       ??_C@_0CD@CPKEAPBD@_heapchk?5fails?5with?5_HEAPBADNODE@ 100c8334     LIBCMTD:dbgheap.obj
 0002:00007358       ??_C@_0CC@MJGLGBDG@_heapchk?5fails?5with?5_HEAPBADEND?4@ 100c8358     LIBCMTD:dbgheap.obj
 0002:0000737c       ??_C@_0CC@MFFCHFHO@_heapchk?5fails?5with?5_HEAPBADPTR?4@ 100c837c     LIBCMTD:dbgheap.obj
 0002:000073a0       ??_C@_0CL@HNNNMKMJ@_heapchk?5fails?5with?5unknown?5retu@ 100c83a0     LIBCMTD:dbgheap.obj
 0002:000073cc       ??_C@_07OHKEFPKJ@DAMAGED?$AA@ 100c83cc     LIBCMTD:dbgheap.obj
 0002:000073d8       ??_C@_0KA@IHNJJKPL@HEAP?5CORRUPTION?5DETECTED?3?5on?5top@ 100c83d8     LIBCMTD:dbgheap.obj
 0002:00007478       ??_C@_0IC@BBJIOOJH@HEAP?5CORRUPTION?5DETECTED?3?5on?5top@ 100c8478     LIBCMTD:dbgheap.obj
 0002:00007500       ??_C@_0EG@DGJMPDBH@?$CFhs?5located?5at?50x?$CFp?5is?5?$CFIu?5bytes@ 100c8500     LIBCMTD:dbgheap.obj
 0002:00007548       ??_C@_0CI@JMLBEDHJ@?$CFhs?5located?5at?50x?$CFp?5is?5?$CFIu?5bytes@ 100c8548     LIBCMTD:dbgheap.obj
 0002:00007570       ??_C@_1BHO@NNANJNF@?$AA?$CI?$AAf?$AAN?$AAe?$AAw?$AAB?$AAi?$AAt?$AAs?$AA?$DN?$AA?$DN?$AA_?$AAC?$AAR?$AAT?$AAD?$AAB?$AAG?$AA_?$AAR?$AAE?$AAP?$AAO?$AAR?$AAT?$AA_?$AAF?$AAL?$AAA?$AAG?$AA?$CJ?$AA?5@ 100c8570     LIBCMTD:dbgheap.obj
 0002:000076f0       ??_C@_1BO@GJFDNMNF@?$AA_?$AAC?$AAr?$AAt?$AAS?$AAe?$AAt?$AAD?$AAb?$AAg?$AAF?$AAl?$AAa?$AAg?$AA?$AA@ 100c86f0     LIBCMTD:dbgheap.obj
 0002:00007710       ??_C@_1BI@CJGCEEDL@?$AAp?$AAf?$AAn?$AA?5?$AA?$CB?$AA?$DN?$AA?5?$AAN?$AAU?$AAL?$AAL?$AA?$AA@ 100c8710     LIBCMTD:dbgheap.obj
 0002:00007728       ??_C@_1DE@GJCKCKEC@?$AA_?$AAC?$AAr?$AAt?$AAD?$AAo?$AAF?$AAo?$AAr?$AAA?$AAl?$AAl?$AAC?$AAl?$AAi?$AAe?$AAn?$AAt?$AAO?$AAb?$AAj?$AAe?$AAc?$AAt?$AAs?$AA?$AA@ 100c8728     LIBCMTD:dbgheap.obj
 0002:0000775c       ??_C@_1BM@MIMANDHC@?$AAs?$AAt?$AAa?$AAt?$AAe?$AA?5?$AA?$CB?$AA?$DN?$AA?5?$AAN?$AAU?$AAL?$AAL?$AA?$AA@ 100c875c     LIBCMTD:dbgheap.obj
 0002:00007778       ??_C@_1CE@NJJKELF@?$AA_?$AAC?$AAr?$AAt?$AAM?$AAe?$AAm?$AAC?$AAh?$AAe?$AAc?$AAk?$AAp?$AAo?$AAi?$AAn?$AAt?$AA?$AA@ 100c8778     LIBCMTD:dbgheap.obj
 0002:0000779c       ??_C@_0DP@LEFMFBOD@Bad?5memory?5block?5found?5at?50x?$CFp?4?6@ 100c879c     LIBCMTD:dbgheap.obj
 0002:000077dc       ??_C@_0CB@EAAIGELO@Bad?5memory?5block?5found?5at?50x?$CFp?4?6@ 100c87dc     LIBCMTD:dbgheap.obj
 0002:00007800       ??_C@_1CE@PDIENACM@?$AA_?$AAC?$AAr?$AAt?$AAM?$AAe?$AAm?$AAD?$AAi?$AAf?$AAf?$AAe?$AAr?$AAe?$AAn?$AAc?$AAe?$AA?$AA@ 100c8800     LIBCMTD:dbgheap.obj
 0002:00007824       ??_C@_1CC@DHPFEMMN@?$AAo?$AAl?$AAd?$AAS?$AAt?$AAa?$AAt?$AAe?$AA?5?$AA?$CB?$AA?$DN?$AA?5?$AAN?$AAU?$AAL?$AAL?$AA?$AA@ 100c8824     LIBCMTD:dbgheap.obj
 0002:00007848       ??_C@_1CC@DFPEDFBP@?$AAn?$AAe?$AAw?$AAS?$AAt?$AAa?$AAt?$AAe?$AA?5?$AA?$CB?$AA?$DN?$AA?5?$AAN?$AAU?$AAL?$AAL?$AA?$AA@ 100c8848     LIBCMTD:dbgheap.obj
 0002:0000786c       ??_C@_05MKKEDADM@?$CF?42X?5?$AA@ 100c886c     LIBCMTD:dbgheap.obj
 0002:00007874       ??_C@_1CG@LPFIACGM@?$AA_?$AAp?$AAr?$AAi?$AAn?$AAt?$AAM?$AAe?$AAm?$AAB?$AAl?$AAo?$AAc?$AAk?$AAD?$AAa?$AAt?$AAa?$AA?$AA@ 100c8874     LIBCMTD:dbgheap.obj
 0002:0000789c       ??_C@_0BA@HJBKCELP@?5Data?3?5?$DM?$CFs?$DO?5?$CFs?6?$AA@ 100c889c     LIBCMTD:dbgheap.obj
 0002:000078ac       ??_C@_0BE@KCIPKCIA@Dumping?5objects?5?9?$DO?6?$AA@ 100c88ac     LIBCMTD:dbgheap.obj
 0002:000078c0       ??_C@_0BE@OIEFNFL@?$CDFile?5Error?$CD?$CI?$CFd?$CJ?5?3?5?$AA@ 100c88c0     LIBCMTD:dbgheap.obj
 0002:000078d4       ??_C@_0L@JMEFFCCJ@?$CFhs?$CI?$CFd?$CJ?5?3?5?$AA@ 100c88d4     LIBCMTD:dbgheap.obj
 0002:000078e0       ??_C@_06PKLGBFGM@?$HL?$CFld?$HN?5?$AA@ 100c88e0     LIBCMTD:dbgheap.obj
 0002:000078e8       ??_C@_0DD@GHNAAKBB@client?5block?5at?50x?$CFp?0?5subtype?5?$CFx@ 100c88e8     LIBCMTD:dbgheap.obj
 0002:0000791c       ??_C@_0CH@FAGDDGPN@normal?5block?5at?50x?$CFp?0?5?$CFIu?5bytes?5@ 100c891c     LIBCMTD:dbgheap.obj
 0002:00007944       ??_C@_0DA@MDLBNIBM@crt?5block?5at?50x?$CFp?0?5subtype?5?$CFx?0?5?$CF@ 100c8944     LIBCMTD:dbgheap.obj
 0002:00007974       ??_C@_0BH@GFGKJDCO@Object?5dump?5complete?4?6?$AA@ 100c8974     LIBCMTD:dbgheap.obj
 0002:0000798c       ??_C@_0BI@JBFPOEJA@Detected?5memory?5leaks?$CB?6?$AA@ 100c898c     LIBCMTD:dbgheap.obj
 0002:000079a4       ??_C@_1CM@MPNIBKGK@?$AA_?$AAC?$AAr?$AAt?$AAM?$AAe?$AAm?$AAD?$AAu?$AAm?$AAp?$AAS?$AAt?$AAa?$AAt?$AAi?$AAs?$AAt?$AAi?$AAc?$AAs?$AA?$AA@ 100c89a4     LIBCMTD:dbgheap.obj
 0002:000079d0       ??_C@_0BO@DACNIABB@?$CFId?5bytes?5in?5?$CFId?5?$CFhs?5Blocks?4?6?$AA@ 100c89d0     LIBCMTD:dbgheap.obj
 0002:000079f0       ??_C@_0CB@BLHDAFNE@Largest?5number?5used?3?5?$CFId?5bytes?4?6@ 100c89f0     LIBCMTD:dbgheap.obj
 0002:00007a14       ??_C@_0BP@DEDHGGGI@Total?5allocations?3?5?$CFId?5bytes?4?6?$AA@ 100c8a14     LIBCMTD:dbgheap.obj
 0002:00007a34       ??_C@_1CE@NPMGPNNP@?$AAI?$AAS?$AA_?$AA2?$AA_?$AAP?$AAO?$AAW?$AA_?$AAN?$AA?$CI?$AAa?$AAl?$AAi?$AAg?$AAn?$AA?$CJ?$AA?$AA@ 100c8a34     LIBCMTD:dbgheap.obj
 0002:00007a58       ??_C@_1DG@DONCJBBJ@?$AA_?$AAa?$AAl?$AAi?$AAg?$AAn?$AAe?$AAd?$AA_?$AAo?$AAf?$AAf?$AAs?$AAe?$AAt?$AA_?$AAm?$AAa?$AAl?$AAl?$AAo?$AAc?$AA_?$AAd?$AAb?$AAg?$AA?$AA@ 100c8a58     LIBCMTD:dbgheap.obj
 0002:00007a90       ??_C@_1DK@LFLKFPDA@?$AAo?$AAf?$AAf?$AAs?$AAe?$AAt?$AA?5?$AA?$DN?$AA?$DN?$AA?5?$AA0?$AA?5?$AA?$HM?$AA?$HM?$AA?5?$AAo?$AAf?$AAf?$AAs?$AAe?$AAt?$AA?5?$AA?$DM?$AA?5?$AAs?$AAi?$AAz?$AAe?$AA?$AA@ 100c8a90     LIBCMTD:dbgheap.obj
 0002:00007ad0       ??_C@_0EI@NDNJMAJK@The?5block?5at?50x?$CFp?5was?5not?5alloca@ 100c8ad0     LIBCMTD:dbgheap.obj
 0002:00007b18       ??_C@_0DL@PGHMMKNE@Damage?5before?50x?$CFp?5which?5was?5all@ 100c8b18     LIBCMTD:dbgheap.obj
 0002:00007b54       ??_C@_1DI@NINIKFFK@?$AA_?$AAa?$AAl?$AAi?$AAg?$AAn?$AAe?$AAd?$AA_?$AAo?$AAf?$AAf?$AAs?$AAe?$AAt?$AA_?$AAr?$AAe?$AAa?$AAl?$AAl?$AAo?$AAc?$AA_?$AAd?$AAb?$AAg?$AA?$AA@ 100c8b54     LIBCMTD:dbgheap.obj
 0002:00007b90       ??_C@_0EF@PGELACII@The?5block?5at?50x?$CFp?5was?5not?5alloca@ 100c8b90     LIBCMTD:dbgheap.obj
 0002:00007bd8       ??_C@_1CC@MOBIKHH@?$AAm?$AAe?$AAm?$AAb?$AAl?$AAo?$AAc?$AAk?$AA?5?$AA?$CB?$AA?$DN?$AA?5?$AAN?$AAU?$AAL?$AAL?$AA?$AA@ 100c8bd8     LIBCMTD:dbgheap.obj
 0002:00007bfc       ??_C@_1CG@CEGMHIMN@?$AA_?$AAa?$AAl?$AAi?$AAg?$AAn?$AAe?$AAd?$AA_?$AAm?$AAs?$AAi?$AAz?$AAe?$AA_?$AAd?$AAb?$AAg?$AA?$AA@ 100c8bfc     LIBCMTD:dbgheap.obj
 0002:00007c48       ??_7type_info@@6B@         100c8c48     LIBCMTD:typinfo.obj
 0002:00007c4c       __FPinit                   100c8c4c     LIBCMTD:fpinit.obj
 0002:00007c98       ??_C@_1BO@CLGIAEOJ@?$AA?$CI?$AAf?$AAi?$AAl?$AAe?$AA?5?$AA?$CB?$AA?$DN?$AA?5?$AAN?$AAU?$AAL?$AAL?$AA?$CJ?$AA?$AA@ 100c8c98     LIBCMTD:fopen.obj
 0002:00007cb8       ??_C@_1FO@NCADDBOO@?$AAf?$AA?3?$AA?2?$AAd?$AAd?$AA?2?$AAv?$AAc?$AAt?$AAo?$AAo?$AAl?$AAs?$AA?2?$AAc?$AAr?$AAt?$AA_?$AAb?$AAl?$AAd?$AA?2?$AAs?$AAe?$AAl?$AAf?$AA_?$AAx?$AA8?$AA6?$AA?2?$AAc@ 100c8cb8     LIBCMTD:fopen.obj
 0002:00007d18       ??_C@_1BA@HNEAFMNL@?$AA_?$AAf?$AAs?$AAo?$AAp?$AAe?$AAn?$AA?$AA@ 100c8d18     LIBCMTD:fopen.obj
 0002:00007d28       ??_C@_1BO@MJMKAKCJ@?$AA?$CI?$AAm?$AAo?$AAd?$AAe?$AA?5?$AA?$CB?$AA?$DN?$AA?5?$AAN?$AAU?$AAL?$AAL?$AA?$CJ?$AA?$AA@ 100c8d28     LIBCMTD:fopen.obj
 0002:00007d48       ??_C@_1CI@HBNALCBB@?$AA?$CI?$AA?$CK?$AAm?$AAo?$AAd?$AAe?$AA?5?$AA?$CB?$AA?$DN?$AA?5?$AA_?$AAT?$AA?$CI?$AA?8?$AA?2?$AA0?$AA?8?$AA?$CJ?$AA?$CJ?$AA?$AA@ 100c8d48     LIBCMTD:fopen.obj
 0002:00007d70       ??_C@_1CA@LLJLFCDN@?$AA?$CI?$AAp?$AAf?$AAi?$AAl?$AAe?$AA?5?$AA?$CB?$AA?$DN?$AA?5?$AAN?$AAU?$AAL?$AAL?$AA?$CJ?$AA?$AA@ 100c8d70     LIBCMTD:fopen.obj
 0002:00007d90       ??_C@_1BA@PBGKCCAP@?$AAf?$AAo?$AAp?$AAe?$AAn?$AA_?$AAs?$AA?$AA@ 100c8d90     LIBCMTD:fopen.obj
 0002:00007da0       ??_C@_1GC@NHJDDBOH@?$AAf?$AA?3?$AA?2?$AAd?$AAd?$AA?2?$AAv?$AAc?$AAt?$AAo?$AAo?$AAl?$AAs?$AA?2?$AAc?$AAr?$AAt?$AA_?$AAb?$AAl?$AAd?$AA?2?$AAs?$AAe?$AAl?$AAf?$AA_?$AAx?$AA8?$AA6?$AA?2?$AAc@ 100c8da0     LIBCMTD:fprintf.obj
 0002:00007e04       ??_C@_1BA@DNOHIGNM@?$AAf?$AAp?$AAr?$AAi?$AAn?$AAt?$AAf?$AA?$AA@ 100c8e04     LIBCMTD:fprintf.obj
 0002:00007e70       __pRawDllMain              100c8e70     LIBCMTD:dllcrt0.obj
 0002:00007e70       __pDefaultRawDllMain       100c8e70     LIBCMTD:dllcrt0.obj
 0002:00007e74       ??_C@_0DB@OLNOAEGF@f?3?2dd?2vctools?2crt_bld?2self_x86?2c@ 100c8e74     LIBCMTD:dllcrt0.obj
 0002:00007ea8       ??_C@_1BI@BGOHAHKC@?$AAm?$AAs?$AAc?$AAo?$AAr?$AAe?$AAe?$AA?4?$AAd?$AAl?$AAl?$AA?$AA@ 100c8ea8     LIBCMTD:crt0dat.obj
 0002:00007ec0       ??_C@_0P@MIGLKIOC@CorExitProcess?$AA@ 100c8ec0     LIBCMTD:crt0dat.obj
 0002:00007ed0       ??_C@_1BO@LKEBEKJP@?$AAp?$AAV?$AAa?$AAl?$AAu?$AAe?$AA?5?$AA?$CB?$AA?$DN?$AA?5?$AAN?$AAU?$AAL?$AAL?$AA?$AA@ 100c8ed0     LIBCMTD:crt0dat.obj
 0002:00007ef0       ??_C@_1GC@DGCPEDNJ@?$AAf?$AA?3?$AA?2?$AAd?$AAd?$AA?2?$AAv?$AAc?$AAt?$AAo?$AAo?$AAl?$AAs?$AA?2?$AAc?$AAr?$AAt?$AA_?$AAb?$AAl?$AAd?$AA?2?$AAs?$AAe?$AAl?$AAf?$AA_?$AAx?$AA8?$AA6?$AA?2?$AAc@ 100c8ef0     LIBCMTD:crt0dat.obj
 0002:00007f54       ??_C@_1BK@PNLDCCDP@?$AA_?$AAg?$AAe?$AAt?$AA_?$AAw?$AAp?$AAg?$AAm?$AAp?$AAt?$AAr?$AA?$AA@ 100c8f54     LIBCMTD:crt0dat.obj
 0002:00007f70       ??_C@_1CC@CDIPMFPD@?$AA_?$AAw?$AAp?$AAg?$AAm?$AAp?$AAt?$AAr?$AA?5?$AA?$CB?$AA?$DN?$AA?5?$AAN?$AAU?$AAL?$AAL?$AA?$AA@ 100c8f70     LIBCMTD:crt0dat.obj
 0002:00007f94       ??_C@_1BI@COAAPHJK@?$AA_?$AAg?$AAe?$AAt?$AA_?$AAp?$AAg?$AAm?$AAp?$AAt?$AAr?$AA?$AA@ 100c8f94     LIBCMTD:crt0dat.obj
 0002:00007fac       ??_C@_1CA@BBNAFCKO@?$AA_?$AAp?$AAg?$AAm?$AAp?$AAt?$AAr?$AA?5?$AA?$CB?$AA?$DN?$AA?5?$AAN?$AAU?$AAL?$AAL?$AA?$AA@ 100c8fac     LIBCMTD:crt0dat.obj
 0002:00007fcc       ??_C@_1BK@DJNILIMN@?$AAp?$AAa?$AAt?$AAh?$AA?5?$AA?$CB?$AA?$DN?$AA?5?$AAN?$AAU?$AAL?$AAL?$AA?$AA@ 100c8fcc     LIBCMTD:crt0dat.obj
 0002:00007fe8       ??_C@_1DG@KANBJOCK@?$AA_?$AA_?$AAc?$AAo?$AAp?$AAy?$AA_?$AAp?$AAa?$AAt?$AAh?$AA_?$AAt?$AAo?$AA_?$AAw?$AAi?$AAd?$AAe?$AA_?$AAs?$AAt?$AAr?$AAi?$AAn?$AAg?$AA?$AA@ 100c8fe8     LIBCMTD:crt0dat.obj
 0002:00008020       ??_C@_1CA@BGODLPHH@?$AAo?$AAu?$AAt?$AAP?$AAa?$AAt?$AAh?$AA?5?$AA?$CB?$AA?$DN?$AA?5?$AAN?$AAU?$AAL?$AAL?$AA?$AA@ 100c9020     LIBCMTD:crt0dat.obj
 0002:00008040       ??_C@_0DB@LJJKGJFF@f?3?2dd?2vctools?2crt_bld?2self_x86?2c@ 100c9040     LIBCMTD:crt0dat.obj
 0002:00008078       ??_C@_1GE@DPADKNCG@?$AAf?$AA?3?$AA?2?$AAd?$AAd?$AA?2?$AAv?$AAc?$AAt?$AAo?$AAo?$AAl?$AAs?$AA?2?$AAc?$AAr?$AAt?$AA_?$AAb?$AAl?$AAd?$AA?2?$AAs?$AAe?$AAl?$AAf?$AA_?$AAx?$AA8?$AA6?$AA?2?$AAc@ 100c9078     LIBCMTD:vsprintf.obj
 0002:000080dc       ??_C@_1BI@IGILPKD@?$AA_?$AAv?$AAs?$AAp?$AAr?$AAi?$AAn?$AAt?$AAf?$AA_?$AAl?$AA?$AA@ 100c90dc     LIBCMTD:vsprintf.obj
 0002:000080f4       ??_C@_1CE@HMKDJHB@?$AA_?$AAv?$AAs?$AAc?$AAp?$AAr?$AAi?$AAn?$AAt?$AAf?$AA_?$AAh?$AAe?$AAl?$AAp?$AAe?$AAr?$AA?$AA@ 100c90f4     LIBCMTD:vsprintf.obj
 0002:00008118       ??_C@_0CP@MKONOLCI@f?3?2dd?2vctools?2crt_bld?2self_x86?2c@ 100c9118     LIBCMTD:mlock.obj
 0002:00008148       __pDestructExceptionObject 100c9148     LIBCMTD:frame.obj
 0002:00008150       ??_7bad_exception@std@@6B@ 100c9150     LIBCMTD:frame.obj
 0002:00008158       ??_C@_0O@DPKOEFFH@bad?5exception?$AA@ 100c9158     LIBCMTD:frame.obj
 0002:00008168       ___newctype                100c9168     LIBCMTD:ctype.obj
 0002:00008468       __wctype                   100c9468     LIBCMTD:ctype.obj
 0002:00008670       ___newclmap                100c9670     LIBCMTD:ctype.obj
 0002:000087f0       ___newcumap                100c97f0     LIBCMTD:ctype.obj
 0002:00008970       ??_C@_1GA@BFIDIGGK@?$AAf?$AA?3?$AA?2?$AAd?$AAd?$AA?2?$AAv?$AAc?$AAt?$AAo?$AAo?$AAl?$AAs?$AA?2?$AAc?$AAr?$AAt?$AA_?$AAb?$AAl?$AAd?$AA?2?$AAs?$AAe?$AAl?$AAf?$AA_?$AAx?$AA8?$AA6?$AA?2?$AAc@ 100c9970     LIBCMTD:wcsdup.obj
 0002:000089d0       ??_C@_1BI@JDKFAFNF@?$AA_?$AAw?$AAc?$AAs?$AAd?$AAu?$AAp?$AA_?$AAd?$AAb?$AAg?$AA?$AA@ 100c99d0     LIBCMTD:wcsdup.obj
 0002:000089e8       ??_C@_1DO@DDNFKJAL@?$AAw?$AAc?$AAs?$AAc?$AAp?$AAy?$AA_?$AAs?$AA?$CI?$AAm?$AAe?$AAm?$AAo?$AAr?$AAy?$AA?0?$AA?5?$AAs?$AAi?$AAz?$AAe?$AA?0?$AA?5?$AAs?$AAt?$AAr?$AAi?$AAn?$AAg?$AA?$CJ?$AA?$AA@ 100c99e8     LIBCMTD:wcsdup.obj
 0002:00008a28       ??_C@_0DC@EHLBFILA@f?3?2dd?2vctools?2crt_bld?2self_x86?2c@ 100c9a28     LIBCMTD:initctyp.obj
 0002:00008a60       ??_C@_1GE@OCPKBDKE@?$AAf?$AA?3?$AA?2?$AAd?$AAd?$AA?2?$AAv?$AAc?$AAt?$AAo?$AAo?$AAl?$AAs?$AA?2?$AAc?$AAr?$AAt?$AA_?$AAb?$AAl?$AAd?$AA?2?$AAs?$AAe?$AAl?$AAf?$AA_?$AAx?$AA8?$AA6?$AA?2?$AAc@ 100c9a60     LIBCMTD:initctyp.obj
 0002:00008ac4       ??_C@_1DG@NMBGBDM@?$AAp?$AAl?$AAo?$AAc?$AAi?$AA?9?$AA?$DO?$AAc?$AAt?$AAy?$AAp?$AAe?$AA1?$AA_?$AAr?$AAe?$AAf?$AAc?$AAo?$AAu?$AAn?$AAt?$AA?5?$AA?$DO?$AA?5?$AA0?$AA?$AA@ 100c9ac4     LIBCMTD:initctyp.obj
 0002:00008b00       ??_C@_1FE@KNPCCODH@?$AA?$CI?$AA?$CC?$AAC?$AAo?$AAr?$AAr?$AAu?$AAp?$AAt?$AAe?$AAd?$AA?5?$AAp?$AAo?$AAi?$AAn?$AAt?$AAe?$AAr?$AA?5?$AAp?$AAa?$AAs?$AAs?$AAe?$AAd?$AA?5?$AAt?$AAo?$AA?5?$AA_?$AAf@ 100c9b00     LIBCMTD:a_map.obj
 0002:00008b58       ??_C@_1GA@INJGGEBC@?$AAf?$AA?3?$AA?2?$AAd?$AAd?$AA?2?$AAv?$AAc?$AAt?$AAo?$AAo?$AAl?$AAs?$AA?2?$AAc?$AAr?$AAt?$AA_?$AAb?$AAl?$AAd?$AA?2?$AAs?$AAe?$AAl?$AAf?$AA_?$AAx?$AA8?$AA6?$AA?2?$AAc@ 100c9b58     LIBCMTD:a_map.obj
 0002:00008bb8       ??_C@_1GA@MFGIMPNL@?$AAf?$AA?3?$AA?2?$AAd?$AAd?$AA?2?$AAv?$AAc?$AAt?$AAo?$AAo?$AAl?$AAs?$AA?2?$AAc?$AAr?$AAt?$AA_?$AAb?$AAl?$AAd?$AA?2?$AAs?$AAe?$AAl?$AAf?$AA_?$AAx?$AA8?$AA6?$AA?2?$AAc@ 100c9bb8     LIBCMTD:dosmap.obj
 0002:00008c18       ??_C@_1BG@KCMPBBDK@?$AA_?$AAg?$AAe?$AAt?$AA_?$AAe?$AAr?$AAr?$AAn?$AAo?$AA?$AA@ 100c9c18     LIBCMTD:dosmap.obj
 0002:00008c30       ??_C@_1BM@INIPHHDD@?$AA_?$AAg?$AAe?$AAt?$AA_?$AAd?$AAo?$AAs?$AAe?$AAr?$AAr?$AAn?$AAo?$AA?$AA@ 100c9c30     LIBCMTD:dosmap.obj
 0002:00008c50       ??_C@_1GE@OLEIGPBJ@?$AAf?$AA?3?$AA?2?$AAd?$AAd?$AA?2?$AAv?$AAc?$AAt?$AAo?$AAo?$AAl?$AAs?$AA?2?$AAc?$AAr?$AAt?$AA_?$AAb?$AAl?$AAd?$AA?2?$AAs?$AAe?$AAl?$AAf?$AA_?$AAx?$AA8?$AA6?$AA?2?$AAc@ 100c9c50     LIBCMTD:setlocal.obj
 0002:00008cb4       ??_C@_1BE@DBJGBOJC@?$AAs?$AAe?$AAt?$AAl?$AAo?$AAc?$AAa?$AAl?$AAe?$AA?$AA@ 100c9cb4     LIBCMTD:setlocal.obj
 0002:00008cc8       ??_C@_1GO@PFPGBCDK@?$AAm?$AAb?$AAs?$AAt?$AAo?$AAw?$AAc?$AAs?$AA_?$AAs?$AA?$CI?$AA?$CG?$AAs?$AAi?$AAz?$AAe?$AA?0?$AA?5?$AA?$CI?$AA?$CI?$AAv?$AAo?$AAi?$AAd?$AA?5?$AA?$CK?$AA?$CJ?$AA0?$AA?$CJ?$AA?0?$AA?5?$AA0@ 100c9cc8     LIBCMTD:setlocal.obj
 0002:00008d38       ??_C@_0DC@JCPFNMID@f?3?2dd?2vctools?2crt_bld?2self_x86?2c@ 100c9d38     LIBCMTD:setlocal.obj
 0002:00008d70       ??_C@_1IA@FCOMIGHE@?$AAm?$AAb?$AAs?$AAt?$AAo?$AAw?$AAc?$AAs?$AA_?$AAs?$AA?$CI?$AA?$CI?$AA?$CI?$AAv?$AAo?$AAi?$AAd?$AA?5?$AA?$CK?$AA?$CJ?$AA0?$AA?$CJ?$AA?0?$AA?5?$AAi?$AAn?$AAw?$AAl?$AAo?$AAc?$AAa?$AAl@ 100c9d70     LIBCMTD:setlocal.obj
 0002:00008df0       ??_C@_1HK@CPNLNCH@?$AA_?$AAw?$AAc?$AAs?$AAt?$AAo?$AAm?$AAb?$AAs?$AA_?$AAs?$AA_?$AAl?$AA?$CI?$AA?$CG?$AAs?$AAi?$AAz?$AAe?$AA?0?$AA?5?$AA?$CI?$AA?$CI?$AAv?$AAo?$AAi?$AAd?$AA?5?$AA?$CK?$AA?$CJ?$AA0?$AA?$CJ@ 100c9df0     LIBCMTD:setlocal.obj
 0002:00008e70       ??_C@_1JO@EBJCGLDM@?$AA_?$AAw?$AAc?$AAs?$AAt?$AAo?$AAm?$AAb?$AAs?$AA_?$AAs?$AA_?$AAl?$AA?$CI?$AA?$CI?$AA?$CI?$AAv?$AAo?$AAi?$AAd?$AA?5?$AA?$CK?$AA?$CJ?$AA0?$AA?$CJ?$AA?0?$AA?5?$AAo?$AAu?$AAt?$AAl?$AAo@ 100c9e70     LIBCMTD:setlocal.obj
 0002:00008f10       ??_C@_1BKC@PGIGKCFN@?$AA?$CI?$AA?$CI?$AAp?$AAt?$AAl?$AAo?$AAc?$AAi?$AA?9?$AA?$DO?$AAl?$AAc?$AA_?$AAc?$AAa?$AAt?$AAe?$AAg?$AAo?$AAr?$AAy?$AA?$FL?$AA_?$AAc?$AAa?$AAt?$AAe?$AAg?$AAo?$AAr?$AAy?$AA?$FN@ 100c9f10     LIBCMTD:setlocal.obj
 0002:000090b8       ??_C@_1FO@ECBPAICH@?$AAf?$AA?3?$AA?2?$AAd?$AAd?$AA?2?$AAv?$AAc?$AAt?$AAo?$AAo?$AAl?$AAs?$AA?2?$AAc?$AAr?$AAt?$AA_?$AAb?$AAl?$AAd?$AA?2?$AAs?$AAe?$AAl?$AAf?$AA_?$AAx?$AA8?$AA6?$AA?2?$AAc@ 100ca0b8     LIBCMTD:fseek.obj
 0002:00009118       ??_C@_1M@HCCOIONH@?$AAf?$AAs?$AAe?$AAe?$AAk?$AA?$AA@ 100ca118     LIBCMTD:fseek.obj
 0002:00009124       ??_C@_1BC@PAJNLEOB@?$AA_?$AAw?$AAf?$AAs?$AAo?$AAp?$AAe?$AAn?$AA?$AA@ 100ca124     LIBCMTD:wfopen.obj
 0002:00009138       ??_C@_1BE@JDODBHOJ@?$AA_?$AAw?$AAf?$AAo?$AAp?$AAe?$AAn?$AA_?$AAs?$AA?$AA@ 100ca138     LIBCMTD:wfopen.obj
 0002:0000914c       ??_C@_1BK@MGMFAEKH@?$AAk?$AAe?$AAr?$AAn?$AAe?$AAl?$AA3?$AA2?$AA?4?$AAd?$AAl?$AAl?$AA?$AA@ 100ca14c     LIBCMTD:winapisupp.obj
 0002:00009168       ??_C@_08KNHFBNJ@FlsAlloc?$AA@ 100ca168     LIBCMTD:winapisupp.obj
 0002:00009174       ??_C@_07PEJMOBNF@FlsFree?$AA@ 100ca174     LIBCMTD:winapisupp.obj
 0002:0000917c       ??_C@_0M@GDNOONDI@FlsGetValue?$AA@ 100ca17c     LIBCMTD:winapisupp.obj
 0002:00009188       ??_C@_0M@JCPCPOEF@FlsSetValue?$AA@ 100ca188     LIBCMTD:winapisupp.obj
 0002:00009194       ??_C@_0BM@HCFOFFN@InitializeCriticalSectionEx?$AA@ 100ca194     LIBCMTD:winapisupp.obj
 0002:000091b0       ??_C@_0BD@KIEEOEEH@CreateSemaphoreExW?$AA@ 100ca1b0     LIBCMTD:winapisupp.obj
 0002:000091c4       ??_C@_0BI@BKLFFAPO@SetThreadStackGuarantee?$AA@ 100ca1c4     LIBCMTD:winapisupp.obj
 0002:000091dc       ??_C@_0BG@OGFAJCKC@CreateThreadpoolTimer?$AA@ 100ca1dc     LIBCMTD:winapisupp.obj
 0002:000091f4       ??_C@_0BD@LPLEMMDI@SetThreadpoolTimer?$AA@ 100ca1f4     LIBCMTD:winapisupp.obj
 0002:00009208       ??_C@_0CA@FMNJENH@WaitForThreadpoolTimerCallbacks?$AA@ 100ca208     LIBCMTD:winapisupp.obj
 0002:00009228       ??_C@_0BF@DCFCCNOC@CloseThreadpoolTimer?$AA@ 100ca228     LIBCMTD:winapisupp.obj
 0002:00009240       ??_C@_0BF@FLABGKKM@CreateThreadpoolWait?$AA@ 100ca240     LIBCMTD:winapisupp.obj
 0002:00009258       ??_C@_0BC@MGCOHNA@SetThreadpoolWait?$AA@ 100ca258     LIBCMTD:winapisupp.obj
 0002:0000926c       ??_C@_0BE@OCIOMIMP@CloseThreadpoolWait?$AA@ 100ca26c     LIBCMTD:winapisupp.obj
 0002:00009280       ??_C@_0BJ@LKGHFHBO@FlushProcessWriteBuffers?$AA@ 100ca280     LIBCMTD:winapisupp.obj
 0002:0000929c       ??_C@_0BP@KALKKPMO@FreeLibraryWhenCallbackReturns?$AA@ 100ca29c     LIBCMTD:winapisupp.obj
 0002:000092bc       ??_C@_0BK@DFNBACLA@GetCurrentProcessorNumber?$AA@ 100ca2bc     LIBCMTD:winapisupp.obj
 0002:000092d8       ??_C@_0BP@KHGALBC@GetLogicalProcessorInformation?$AA@ 100ca2d8     LIBCMTD:winapisupp.obj
 0002:000092f8       ??_C@_0BE@FKKLLFLM@CreateSymbolicLinkW?$AA@ 100ca2f8     LIBCMTD:winapisupp.obj
 0002:0000930c       ??_C@_0BJ@OHNKDLIJ@SetDefaultDllDirectories?$AA@ 100ca30c     LIBCMTD:winapisupp.obj
 0002:00009328       ??_C@_0BE@LJANKFHF@EnumSystemLocalesEx?$AA@ 100ca328     LIBCMTD:winapisupp.obj
 0002:0000933c       ??_C@_0BA@IHGNDAEB@CompareStringEx?$AA@ 100ca33c     LIBCMTD:winapisupp.obj
 0002:0000934c       ??_C@_0BA@EPCJIIPD@GetDateFormatEx?$AA@ 100ca34c     LIBCMTD:winapisupp.obj
 0002:0000935c       ??_C@_0BA@ONOKGCMP@GetLocaleInfoEx?$AA@ 100ca35c     LIBCMTD:winapisupp.obj
 0002:0000936c       ??_C@_0BA@CIJJKCJJ@GetTimeFormatEx?$AA@ 100ca36c     LIBCMTD:winapisupp.obj
 0002:0000937c       ??_C@_0BJ@PBCCBIPI@GetUserDefaultLocaleName?$AA@ 100ca37c     LIBCMTD:winapisupp.obj
 0002:00009398       ??_C@_0BC@CELBKLLA@IsValidLocaleName?$AA@ 100ca398     LIBCMTD:winapisupp.obj
 0002:000093ac       ??_C@_0O@KKBNKAPF@LCMapStringEx?$AA@ 100ca3ac     LIBCMTD:winapisupp.obj
 0002:000093bc       ??_C@_0BE@JOGNEJCI@GetCurrentPackageId?$AA@ 100ca3bc     LIBCMTD:winapisupp.obj
 0002:000093d0       ??_C@_0DC@MEPJBKMO@f?3?2dd?2vctools?2crt_bld?2self_x86?2c@ 100ca3d0     LIBCMTD:strftime.obj
 0002:00009408       ??_C@_1GE@FCOIONJG@?$AAf?$AA?3?$AA?2?$AAd?$AAd?$AA?2?$AAv?$AAc?$AAt?$AAo?$AAo?$AAl?$AAs?$AA?2?$AAc?$AAr?$AAt?$AA_?$AAb?$AAl?$AAd?$AA?2?$AAs?$AAe?$AAl?$AAf?$AA_?$AAx?$AA8?$AA6?$AA?2?$AAc@ 100ca408     LIBCMTD:strftime.obj
 0002:0000946c       ??_C@_1BG@LGACIFJI@?$AA_?$AAG?$AAe?$AAt?$AAd?$AAa?$AAy?$AAs?$AA_?$AAl?$AA?$AA@ 100ca46c     LIBCMTD:strftime.obj
 0002:00009488       ??_C@_1GG@NAGHPCAA@?$AAs?$AAt?$AAr?$AAc?$AAp?$AAy?$AA_?$AAs?$AA?$CI?$AAs?$AA?0?$AA?5?$AA?$CI?$AAl?$AAe?$AAn?$AA?5?$AA?$CL?$AA?5?$AA1?$AA?$CJ?$AA?5?$AA?9?$AA?5?$AA?$CI?$AAs?$AA?5?$AA?9?$AA?5?$AAp?$AA?$CJ?$AA?0@ 100ca488     LIBCMTD:strftime.obj
 0002:000094f0       ??_C@_1FM@LPEPDBJF@?$AAs?$AAt?$AAr?$AAc?$AAp?$AAy?$AA_?$AAs?$AA?$CI?$AAs?$AA?0?$AA?5?$AA?$CI?$AAl?$AAe?$AAn?$AA?5?$AA?$CL?$AA?5?$AA1?$AA?$CJ?$AA?5?$AA?9?$AA?5?$AA?$CI?$AAs?$AA?5?$AA?9?$AA?5?$AAp?$AA?$CJ?$AA?0@ 100ca4f0     LIBCMTD:strftime.obj
 0002:0000954c       ??_C@_1BK@IDMELNCB@?$AA_?$AAG?$AAe?$AAt?$AAm?$AAo?$AAn?$AAt?$AAh?$AAs?$AA_?$AAl?$AA?$AA@ 100ca54c     LIBCMTD:strftime.obj
 0002:00009568       ??_C@_1GI@LNJDDNLK@?$AAs?$AAt?$AAr?$AAc?$AAp?$AAy?$AA_?$AAs?$AA?$CI?$AAs?$AA?0?$AA?5?$AA?$CI?$AAl?$AAe?$AAn?$AA?5?$AA?$CL?$AA?5?$AA1?$AA?$CJ?$AA?5?$AA?9?$AA?5?$AA?$CI?$AAs?$AA?5?$AA?9?$AA?5?$AAp?$AA?$CJ?$AA?0@ 100ca568     LIBCMTD:strftime.obj
 0002:000095d0       ??_C@_1FO@IFFKPIEL@?$AAs?$AAt?$AAr?$AAc?$AAp?$AAy?$AA_?$AAs?$AA?$CI?$AAs?$AA?0?$AA?5?$AA?$CI?$AAl?$AAe?$AAn?$AA?5?$AA?$CL?$AA?5?$AA1?$AA?$CJ?$AA?5?$AA?9?$AA?5?$AA?$CI?$AAs?$AA?5?$AA?9?$AA?5?$AAp?$AA?$CJ?$AA?0@ 100ca5d0     LIBCMTD:strftime.obj
 0002:00009630       ??_C@_1CG@MPKJHDAA@?$AA?$CI?$AA?5?$AAs?$AAt?$AAr?$AAi?$AAn?$AAg?$AA?5?$AA?$CB?$AA?$DN?$AA?5?$AAN?$AAU?$AAL?$AAL?$AA?5?$AA?$CJ?$AA?$AA@ 100ca630     LIBCMTD:strftime.obj
 0002:00009658       ??_C@_1BI@ONBMGNNA@?$AA_?$AAS?$AAt?$AAr?$AAf?$AAt?$AAi?$AAm?$AAe?$AA_?$AAl?$AA?$AA@ 100ca658     LIBCMTD:strftime.obj
 0002:00009670       ??_C@_1CC@IHEJKGMG@?$AA?$CI?$AA?5?$AAm?$AAa?$AAx?$AAs?$AAi?$AAz?$AAe?$AA?5?$AA?$CB?$AA?$DN?$AA?5?$AA0?$AA?5?$AA?$CJ?$AA?$AA@ 100ca670     LIBCMTD:strftime.obj
 0002:00009694       ??_C@_1CG@MHIOFJLE@?$AA?$CI?$AA?5?$AAf?$AAo?$AAr?$AAm?$AAa?$AAt?$AA?5?$AA?$CB?$AA?$DN?$AA?5?$AAN?$AAU?$AAL?$AAL?$AA?5?$AA?$CJ?$AA?$AA@ 100ca694     LIBCMTD:strftime.obj
 0002:000096bc       ??_C@_1CI@JIFDJDDH@?$AA?$CI?$AA?5?$AAt?$AAi?$AAm?$AAe?$AAp?$AAt?$AAr?$AA?5?$AA?$CB?$AA?$DN?$AA?5?$AAN?$AAU?$AAL?$AAL?$AA?5?$AA?$CJ?$AA?$AA@ 100ca6bc     LIBCMTD:strftime.obj
 0002:000096e4       ??_C@_0DC@KGCJOHJO@f?3?2dd?2vctools?2crt_bld?2self_x86?2c@ 100ca6e4     LIBCMTD:wcsftime.obj
 0002:00009718       ??_C@_1GE@OAJJMFMB@?$AAf?$AA?3?$AA?2?$AAd?$AAd?$AA?2?$AAv?$AAc?$AAt?$AAo?$AAo?$AAl?$AAs?$AA?2?$AAc?$AAr?$AAt?$AA_?$AAb?$AAl?$AAd?$AA?2?$AAs?$AAe?$AAl?$AAf?$AA_?$AAx?$AA8?$AA6?$AA?2?$AAc@ 100ca718     LIBCMTD:wcsftime.obj
 0002:0000977c       ??_C@_1BK@DKAKFCHE@?$AA_?$AAW?$AA_?$AAG?$AAe?$AAt?$AAd?$AAa?$AAy?$AAs?$AA_?$AAl?$AA?$AA@ 100ca77c     LIBCMTD:wcsftime.obj
 0002:00009798       ??_C@_1GM@DDFADNDP@?$AAw?$AAc?$AAs?$AAc?$AAp?$AAy?$AA_?$AAs?$AA?$CI?$AAs?$AA?0?$AA?5?$AA?$CI?$AAl?$AAe?$AAn?$AA?5?$AA?$CL?$AA?5?$AA1?$AA?$CJ?$AA?5?$AA?9?$AA?5?$AA?$CI?$AAs?$AA?5?$AA?9?$AA?5?$AAp?$AA?$CJ?$AA?0@ 100ca798     LIBCMTD:wcsftime.obj
 0002:00009808       ??_C@_1GC@IDMAOELP@?$AAw?$AAc?$AAs?$AAc?$AAp?$AAy?$AA_?$AAs?$AA?$CI?$AAs?$AA?0?$AA?5?$AA?$CI?$AAl?$AAe?$AAn?$AA?5?$AA?$CL?$AA?5?$AA1?$AA?$CJ?$AA?5?$AA?9?$AA?5?$AA?$CI?$AAs?$AA?5?$AA?9?$AA?5?$AAp?$AA?$CJ?$AA?0@ 100ca808     LIBCMTD:wcsftime.obj
 0002:0000986c       ??_C@_1BO@LLHMCFBH@?$AA_?$AAW?$AA_?$AAG?$AAe?$AAt?$AAm?$AAo?$AAn?$AAt?$AAh?$AAs?$AA_?$AAl?$AA?$AA@ 100ca86c     LIBCMTD:wcsftime.obj
 0002:00009890       ??_C@_1GO@OOJGCLJA@?$AAw?$AAc?$AAs?$AAc?$AAp?$AAy?$AA_?$AAs?$AA?$CI?$AAs?$AA?0?$AA?5?$AA?$CI?$AAl?$AAe?$AAn?$AA?5?$AA?$CL?$AA?5?$AA1?$AA?$CJ?$AA?5?$AA?9?$AA?5?$AA?$CI?$AAs?$AA?5?$AA?9?$AA?5?$AAp?$AA?$CJ?$AA?0@ 100ca890     LIBCMTD:wcsftime.obj
 0002:00009900       ??_C@_1GE@BMIICOLH@?$AAw?$AAc?$AAs?$AAc?$AAp?$AAy?$AA_?$AAs?$AA?$CI?$AAs?$AA?0?$AA?5?$AA?$CI?$AAl?$AAe?$AAn?$AA?5?$AA?$CL?$AA?5?$AA1?$AA?$CJ?$AA?5?$AA?9?$AA?5?$AA?$CI?$AAs?$AA?5?$AA?9?$AA?5?$AAp?$AA?$CJ?$AA?0@ 100ca900     LIBCMTD:wcsftime.obj
 0002:00009964       ??_C@_1BO@PBGPBIFI@?$AA_?$AAW?$AA_?$AAG?$AAe?$AAt?$AAt?$AAn?$AAa?$AAm?$AAe?$AAs?$AA_?$AAl?$AA?$AA@ 100ca964     LIBCMTD:wcsftime.obj
 0002:00009988       ??_C@_1LE@EPEEHFIO@?$AAs?$AAt?$AAr?$AAc?$AAp?$AAy?$AA_?$AAs?$AA?$CI?$AAd?$AAe?$AAs?$AAt?$AA?9?$AA?$DO?$AAw?$AAd?$AAa?$AAy?$AA_?$AAa?$AAb?$AAb?$AAr?$AA?$FL?$AAi?$AAd?$AAx?$AA?$FN?$AA?0?$AA?5?$AA?$CI@ 100ca988     LIBCMTD:wcsftime.obj
 0002:00009a40       ??_C@_1KA@DNKADEMJ@?$AAs?$AAt?$AAr?$AAc?$AAp?$AAy?$AA_?$AAs?$AA?$CI?$AAd?$AAe?$AAs?$AAt?$AA?9?$AA?$DO?$AAw?$AAd?$AAa?$AAy?$AA?$FL?$AAi?$AAd?$AAx?$AA?$FN?$AA?0?$AA?5?$AA?$CI?$AAt?$AAo?$AAt?$AAa?$AAl@ 100caa40     LIBCMTD:wcsftime.obj
 0002:00009ae0       ??_C@_1LI@LILLBJL@?$AAs?$AAt?$AAr?$AAc?$AAp?$AAy?$AA_?$AAs?$AA?$CI?$AAd?$AAe?$AAs?$AAt?$AA?9?$AA?$DO?$AAm?$AAo?$AAn?$AAt?$AAh?$AA_?$AAa?$AAb?$AAb?$AAr?$AA?$FL?$AAi?$AAd?$AAx?$AA?$FN?$AA?0?$AA?5@ 100caae0     LIBCMTD:wcsftime.obj
 0002:00009b98       ??_C@_1KE@EGBDBCG@?$AAs?$AAt?$AAr?$AAc?$AAp?$AAy?$AA_?$AAs?$AA?$CI?$AAd?$AAe?$AAs?$AAt?$AA?9?$AA?$DO?$AAm?$AAo?$AAn?$AAt?$AAh?$AA?$FL?$AAi?$AAd?$AAx?$AA?$FN?$AA?0?$AA?5?$AA?$CI?$AAt?$AAo?$AAt?$AAa@ 100cab98     LIBCMTD:wcsftime.obj
 0002:00009c40       ??_C@_1KA@EAALKIBB@?$AAs?$AAt?$AAr?$AAc?$AAp?$AAy?$AA_?$AAs?$AA?$CI?$AAd?$AAe?$AAs?$AAt?$AA?9?$AA?$DO?$AAa?$AAm?$AAp?$AAm?$AA?$FL?$AAi?$AAd?$AAx?$AA?$FN?$AA?0?$AA?5?$AA?$CI?$AAt?$AAo?$AAt?$AAa?$AAl@ 100cac40     LIBCMTD:wcsftime.obj
 0002:00009ce0       ??_C@_1KI@LLEJMBLB@?$AAs?$AAt?$AAr?$AAc?$AAp?$AAy?$AA_?$AAs?$AA?$CI?$AAd?$AAe?$AAs?$AAt?$AA?9?$AA?$DO?$AAw?$AAw?$AA_?$AAs?$AAd?$AAa?$AAt?$AAe?$AAf?$AAm?$AAt?$AA?0?$AA?5?$AA?$CI?$AAt?$AAo?$AAt@ 100cace0     LIBCMTD:wcsftime.obj
 0002:00009d88       ??_C@_1KI@GIABBOIC@?$AAs?$AAt?$AAr?$AAc?$AAp?$AAy?$AA_?$AAs?$AA?$CI?$AAd?$AAe?$AAs?$AAt?$AA?9?$AA?$DO?$AAw?$AAw?$AA_?$AAl?$AAd?$AAa?$AAt?$AAe?$AAf?$AAm?$AAt?$AA?0?$AA?5?$AA?$CI?$AAt?$AAo?$AAt@ 100cad88     LIBCMTD:wcsftime.obj
 0002:00009e30       ??_C@_1KE@KMENGKAI@?$AAs?$AAt?$AAr?$AAc?$AAp?$AAy?$AA_?$AAs?$AA?$CI?$AAd?$AAe?$AAs?$AAt?$AA?9?$AA?$DO?$AAw?$AAw?$AA_?$AAt?$AAi?$AAm?$AAe?$AAf?$AAm?$AAt?$AA?0?$AA?5?$AA?$CI?$AAt?$AAo?$AAt?$AAa@ 100cae30     LIBCMTD:wcsftime.obj
 0002:00009ed8       ??_C@_1MG@MAEGINLA@?$AAw?$AAc?$AAs?$AAc?$AAp?$AAy?$AA_?$AAs?$AA?$CI?$AAd?$AAe?$AAs?$AAt?$AA?9?$AA?$DO?$AA_?$AAW?$AA_?$AAw?$AAd?$AAa?$AAy?$AA_?$AAa?$AAb?$AAb?$AAr?$AA?$FL?$AAi?$AAd?$AAx?$AA?$FN@ 100caed8     LIBCMTD:wcsftime.obj
 0002:00009fa0       ??_C@_1LC@MJCDIPJF@?$AAw?$AAc?$AAs?$AAc?$AAp?$AAy?$AA_?$AAs?$AA?$CI?$AAd?$AAe?$AAs?$AAt?$AA?9?$AA?$DO?$AA_?$AAW?$AA_?$AAw?$AAd?$AAa?$AAy?$AA?$FL?$AAi?$AAd?$AAx?$AA?$FN?$AA?0?$AA?5?$AA?$CI?$AAt?$AAo@ 100cafa0     LIBCMTD:wcsftime.obj
 0002:0000a058       ??_C@_1MK@EOAFACEP@?$AAw?$AAc?$AAs?$AAc?$AAp?$AAy?$AA_?$AAs?$AA?$CI?$AAd?$AAe?$AAs?$AAt?$AA?9?$AA?$DO?$AA_?$AAW?$AA_?$AAm?$AAo?$AAn?$AAt?$AAh?$AA_?$AAa?$AAb?$AAb?$AAr?$AA?$FL?$AAi?$AAd?$AAx@ 100cb058     LIBCMTD:wcsftime.obj
 0002:0000a128       ??_C@_1LG@LPOFFBCL@?$AAw?$AAc?$AAs?$AAc?$AAp?$AAy?$AA_?$AAs?$AA?$CI?$AAd?$AAe?$AAs?$AAt?$AA?9?$AA?$DO?$AA_?$AAW?$AA_?$AAm?$AAo?$AAn?$AAt?$AAh?$AA?$FL?$AAi?$AAd?$AAx?$AA?$FN?$AA?0?$AA?5?$AA?$CI?$AAt@ 100cb128     LIBCMTD:wcsftime.obj
 0002:0000a1e0       ??_C@_1LC@HNOGCLCC@?$AAw?$AAc?$AAs?$AAc?$AAp?$AAy?$AA_?$AAs?$AA?$CI?$AAd?$AAe?$AAs?$AAt?$AA?9?$AA?$DO?$AA_?$AAW?$AA_?$AAa?$AAm?$AAp?$AAm?$AA?$FL?$AAi?$AAd?$AAx?$AA?$FN?$AA?0?$AA?5?$AA?$CI?$AAt?$AAo@ 100cb1e0     LIBCMTD:wcsftime.obj
 0002:0000a298       ??_C@_1LK@CAMBHKNN@?$AAw?$AAc?$AAs?$AAc?$AAp?$AAy?$AA_?$AAs?$AA?$CI?$AAd?$AAe?$AAs?$AAt?$AA?9?$AA?$DO?$AA_?$AAW?$AA_?$AAw?$AAw?$AA_?$AAs?$AAd?$AAa?$AAt?$AAe?$AAf?$AAm?$AAt?$AA?0?$AA?5?$AA?$CI@ 100cb298     LIBCMTD:wcsftime.obj
 0002:0000a358       ??_C@_1LK@KFLHCLNA@?$AAw?$AAc?$AAs?$AAc?$AAp?$AAy?$AA_?$AAs?$AA?$CI?$AAd?$AAe?$AAs?$AAt?$AA?9?$AA?$DO?$AA_?$AAW?$AA_?$AAw?$AAw?$AA_?$AAl?$AAd?$AAa?$AAt?$AAe?$AAf?$AAm?$AAt?$AA?0?$AA?5?$AA?$CI@ 100cb358     LIBCMTD:wcsftime.obj
 0002:0000a418       ??_C@_1LG@IAIDKMAF@?$AAw?$AAc?$AAs?$AAc?$AAp?$AAy?$AA_?$AAs?$AA?$CI?$AAd?$AAe?$AAs?$AAt?$AA?9?$AA?$DO?$AA_?$AAW?$AA_?$AAw?$AAw?$AA_?$AAt?$AAi?$AAm?$AAe?$AAf?$AAm?$AAt?$AA?0?$AA?5?$AA?$CI?$AAt@ 100cb418     LIBCMTD:wcsftime.obj
 0002:0000a4d0       ??_C@_1MG@JFPIJBHF@?$AAw?$AAc?$AAs?$AAc?$AAp?$AAy?$AA_?$AAs?$AA?$CI?$AAd?$AAe?$AAs?$AAt?$AA?9?$AA?$DO?$AA_?$AAW?$AA_?$AAw?$AAw?$AA_?$AAl?$AAo?$AAc?$AAa?$AAl?$AAe?$AA_?$AAn?$AAa?$AAm?$AAe@ 100cb4d0     LIBCMTD:wcsftime.obj
 0002:0000a598       ??_C@_1BI@FPGNEFIH@?$AA_?$AAW?$AAc?$AAs?$AAf?$AAt?$AAi?$AAm?$AAe?$AA_?$AAl?$AA?$AA@ 100cb598     LIBCMTD:wcsftime.obj
 0002:0000a5b0       ??_C@_1CA@COHOENPC@?$AAt?$AAi?$AAm?$AAe?$AAp?$AAt?$AAr?$AA?5?$AA?$CB?$AA?$DN?$AA?5?$AAN?$AAU?$AAL?$AAL?$AA?$AA@ 100cb5b0     LIBCMTD:wcsftime.obj
 0002:0000a5d0       ??_C@_1M@HCOOECOK@?$AAF?$AAA?$AAL?$AAS?$AAE?$AA?$AA@ 100cb5d0     LIBCMTD:wcsftime.obj
 0002:0000a5e0       ??_C@_1HE@BFLEOKFO@?$AA?$CI?$AA?5?$AA?$CI?$AA?5?$AAt?$AAi?$AAm?$AAe?$AAp?$AAt?$AAr?$AA?9?$AA?$DO?$AAt?$AAm?$AA_?$AAw?$AAd?$AAa?$AAy?$AA?5?$AA?$DO?$AA?$DN?$AA0?$AA?5?$AA?$CJ?$AA?5?$AA?$CG?$AA?$CG?$AA?5?$AA?$CI?$AA?5@ 100cb5e0     LIBCMTD:wcsftime.obj
 0002:0000a654       ??_C@_1BM@ONGGIHAI@?$AA_?$AAW?$AA_?$AAe?$AAx?$AAp?$AAa?$AAn?$AAd?$AAt?$AAi?$AAm?$AAe?$AA?$AA@ 100cb654     LIBCMTD:wcsftime.obj
 0002:0000a670       ??_C@_1HC@OOAMILFB@?$AA?$CI?$AA?5?$AA?$CI?$AA?5?$AAt?$AAi?$AAm?$AAe?$AAp?$AAt?$AAr?$AA?9?$AA?$DO?$AAt?$AAm?$AA_?$AAm?$AAo?$AAn?$AA?5?$AA?$DO?$AA?$DN?$AA0?$AA?5?$AA?$CJ?$AA?5?$AA?$CG?$AA?$CG?$AA?5?$AA?$CI?$AA?5?$AAt@ 100cb670     LIBCMTD:wcsftime.obj
 0002:0000a6e8       ??_C@_1HG@NFHHOAD@?$AA?$CI?$AA?5?$AA?$CI?$AA?5?$AAt?$AAi?$AAm?$AAe?$AAp?$AAt?$AAr?$AA?9?$AA?$DO?$AAt?$AAm?$AA_?$AAm?$AAd?$AAa?$AAy?$AA?5?$AA?$DO?$AA?$DN?$AA1?$AA?5?$AA?$CJ?$AA?5?$AA?$CG?$AA?$CG?$AA?5?$AA?$CI?$AA?5@ 100cb6e8     LIBCMTD:wcsftime.obj
 0002:0000a760       ??_C@_1HG@KCGGFLNI@?$AA?$CI?$AA?5?$AA?$CI?$AA?5?$AAt?$AAi?$AAm?$AAe?$AAp?$AAt?$AAr?$AA?9?$AA?$DO?$AAt?$AAm?$AA_?$AAh?$AAo?$AAu?$AAr?$AA?5?$AA?$DO?$AA?$DN?$AA0?$AA?5?$AA?$CJ?$AA?5?$AA?$CG?$AA?$CG?$AA?5?$AA?$CI?$AA?5@ 100cb760     LIBCMTD:wcsftime.obj
 0002:0000a7d8       ??_C@_1HI@HHCJCPE@?$AA?$CI?$AA?5?$AA?$CI?$AA?5?$AAt?$AAi?$AAm?$AAe?$AAp?$AAt?$AAr?$AA?9?$AA?$DO?$AAt?$AAm?$AA_?$AAy?$AAd?$AAa?$AAy?$AA?5?$AA?$DO?$AA?$DN?$AA0?$AA?5?$AA?$CJ?$AA?5?$AA?$CG?$AA?$CG?$AA?5?$AA?$CI?$AA?5@ 100cb7d8     LIBCMTD:wcsftime.obj
 0002:0000a850       ??_C@_1HC@IGKDPPHL@?$AA?$CI?$AA?5?$AA?$CI?$AA?5?$AAt?$AAi?$AAm?$AAe?$AAp?$AAt?$AAr?$AA?9?$AA?$DO?$AAt?$AAm?$AA_?$AAm?$AAi?$AAn?$AA?5?$AA?$DO?$AA?$DN?$AA0?$AA?5?$AA?$CJ?$AA?5?$AA?$CG?$AA?$CG?$AA?5?$AA?$CI?$AA?5?$AAt@ 100cb850     LIBCMTD:wcsftime.obj
 0002:0000a8c8       ??_C@_1HC@HLKHIKOB@?$AA?$CI?$AA?5?$AA?$CI?$AA?5?$AAt?$AAi?$AAm?$AAe?$AAp?$AAt?$AAr?$AA?9?$AA?$DO?$AAt?$AAm?$AA_?$AAs?$AAe?$AAc?$AA?5?$AA?$DO?$AA?$DN?$AA0?$AA?5?$AA?$CJ?$AA?5?$AA?$CG?$AA?$CG?$AA?5?$AA?$CI?$AA?5?$AAt@ 100cb8c8     LIBCMTD:wcsftime.obj
 0002:0000a93c       ??_C@_1DC@NMCFBMJP@?$AA?$CI?$AA?5?$AAt?$AAi?$AAm?$AAe?$AAp?$AAt?$AAr?$AA?9?$AA?$DO?$AAt?$AAm?$AA_?$AAy?$AAe?$AAa?$AAr?$AA?5?$AA?$DO?$AA?$DN?$AA0?$AA?5?$AA?$CJ?$AA?$AA@ 100cb93c     LIBCMTD:wcsftime.obj
 0002:0000a970       ??_C@_1HM@LBNGKIAD@?$AA?$CI?$AA?5?$AAt?$AAi?$AAm?$AAe?$AAp?$AAt?$AAr?$AA?9?$AA?$DO?$AAt?$AAm?$AA_?$AAy?$AAe?$AAa?$AAr?$AA?5?$AA?$DO?$AA?$DN?$AA?5?$AA?9?$AA1?$AA9?$AA0?$AA0?$AA?5?$AA?$CJ?$AA?5?$AA?$CG?$AA?$CG@ 100cb970     LIBCMTD:wcsftime.obj
 0002:0000a9f0       ??_C@_1MM@JAKLBNNP@?$AA_?$AAm?$AAb?$AAs?$AAt?$AAo?$AAw?$AAc?$AAs?$AA_?$AAs?$AA_?$AAl?$AA?$CI?$AA?$CG?$AAw?$AAn?$AAu?$AAm?$AA?0?$AA?5?$AA?$CK?$AAs?$AAt?$AAr?$AAi?$AAn?$AAg?$AA?0?$AA?5?$AA?$CK?$AAl@ 100cb9f0     LIBCMTD:wcsftime.obj
 0002:0000aac0       ??_C@_1EG@JNJKHKFI@?$AA?$CI?$AA?5?$AA?$CC?$AAI?$AAn?$AAv?$AAa?$AAl?$AAi?$AAd?$AA?5?$AAf?$AAo?$AAr?$AAm?$AAa?$AAt?$AA?5?$AAd?$AAi?$AAr?$AAe?$AAc?$AAt?$AAi?$AAv?$AAe?$AA?$CC?$AA?5?$AA?0?$AA?5?$AA0@ 100cbac0     LIBCMTD:wcsftime.obj
 0002:0000ab08       ??_C@_1M@PBPMMENC@?$AAa?$AAm?$AA?1?$AAp?$AAm?$AA?$AA@ 100cbb08     LIBCMTD:wcsftime.obj
 0002:0000ab14       ??_C@_17BLFJJHMM@?$AAa?$AA?1?$AAp?$AA?$AA@ 100cbb14     LIBCMTD:wcsftime.obj
 0002:0000ab20       ??_C@_1HK@ELDMAMK@?$AAc?$AAc?$AAh?$AAC?$AAo?$AAu?$AAn?$AAt?$AA1?$AA?$DN?$AA?$DN?$AA0?$AA?5?$AA?$CG?$AA?$CG?$AA?5?$AAc?$AAc?$AAh?$AAC?$AAo?$AAu?$AAn?$AAt?$AA2?$AA?$DN?$AA?$DN?$AA1?$AA?5?$AA?$HM?$AA?$HM?$AA?5@ 100cbb20     LIBCMTD:a_cmp.obj
 0002:0000aba0       ??_C@_1FO@IFEMNBMO@?$AAf?$AA?3?$AA?2?$AAd?$AAd?$AA?2?$AAv?$AAc?$AAt?$AAo?$AAo?$AAl?$AAs?$AA?2?$AAc?$AAr?$AAt?$AA_?$AAb?$AAl?$AAd?$AA?2?$AAs?$AAe?$AAl?$AAf?$AA_?$AAx?$AA8?$AA6?$AA?2?$AAc@ 100cbba0     LIBCMTD:a_cmp.obj
 0002:0000ac00       ??_C@_1M@ELCKCCJJ@?$AAm?$AAi?$AA?9?$AAn?$AAz?$AA?$AA@ 100cbc00     LIBCMTD:winapinls.obj
 0002:0000ac0c       ??_C@_1M@CBOOLAPA@?$AAm?$AAk?$AA?9?$AAm?$AAk?$AA?$AA@ 100cbc0c     LIBCMTD:winapinls.obj
 0002:0000ac18       ??_C@_1M@GPHNBJKN@?$AAm?$AAl?$AA?9?$AAi?$AAn?$AA?$AA@ 100cbc18     LIBCMTD:winapinls.obj
 0002:0000ac24       ??_C@_1M@PABJILIG@?$AAm?$AAn?$AA?9?$AAm?$AAn?$AA?$AA@ 100cbc24     LIBCMTD:winapinls.obj
 0002:0000ac30       ??_C@_1M@FGBKKIPG@?$AAm?$AAr?$AA?9?$AAi?$AAn?$AA?$AA@ 100cbc30     LIBCMTD:winapinls.obj
 0002:0000ac3c       ??_C@_1M@NDBPDDAL@?$AAm?$AAs?$AA?9?$AAb?$AAn?$AA?$AA@ 100cbc3c     LIBCMTD:winapinls.obj
 0002:0000ac48       ??_C@_1M@OPIHOOPI@?$AAm?$AAs?$AA?9?$AAm?$AAy?$AA?$AA@ 100cbc48     LIBCMTD:winapinls.obj
 0002:0000ac54       ??_C@_1M@PPDBCNFM@?$AAm?$AAt?$AA?9?$AAm?$AAt?$AA?$AA@ 100cbc54     LIBCMTD:winapinls.obj
 0002:0000ac60       ??_C@_1M@KDJDKMDD@?$AAn?$AAb?$AA?9?$AAn?$AAo?$AA?$AA@ 100cbc60     LIBCMTD:winapinls.obj
 0002:0000ac6c       ??_C@_1M@KFCFLMJP@?$AAn?$AAl?$AA?9?$AAb?$AAe?$AA?$AA@ 100cbc6c     LIBCMTD:winapinls.obj
 0002:0000ac78       ??_C@_1M@KPOPDDGO@?$AAn?$AAl?$AA?9?$AAn?$AAl?$AA?$AA@ 100cbc78     LIBCMTD:winapinls.obj
 0002:0000ac84       ??_C@_1M@LJKPEMLN@?$AAn?$AAn?$AA?9?$AAn?$AAo?$AA?$AA@ 100cbc84     LIBCMTD:winapinls.obj
 0002:0000ac90       ??_C@_1M@BDGHHBFL@?$AAn?$AAs?$AA?9?$AAz?$AAa?$AA?$AA@ 100cbc90     LIBCMTD:winapinls.obj
 0002:0000ac9c       ??_C@_1M@IDEHOAP@?$AAp?$AAa?$AA?9?$AAi?$AAn?$AA?$AA@ 100cbc9c     LIBCMTD:winapinls.obj
 0002:0000aca8       ??_C@_1M@HDBKGOGH@?$AAp?$AAl?$AA?9?$AAp?$AAl?$AA?$AA@ 100cbca8     LIBCMTD:winapinls.obj
 0002:0000acb4       ??_C@_1M@LJLLCMEH@?$AAp?$AAt?$AA?9?$AAb?$AAr?$AA?$AA@ 100cbcb4     LIBCMTD:winapinls.obj
 0002:0000acc0       ??_C@_1M@NCMONAAL@?$AAp?$AAt?$AA?9?$AAp?$AAt?$AA?$AA@ 100cbcc0     LIBCMTD:winapinls.obj
 0002:0000accc       ??_C@_1O@EAKMAJDN@?$AAq?$AAu?$AAz?$AA?9?$AAb?$AAo?$AA?$AA@ 100cbccc     LIBCMTD:winapinls.obj
 0002:0000acdc       ??_C@_1O@BHHPIGDN@?$AAq?$AAu?$AAz?$AA?9?$AAe?$AAc?$AA?$AA@ 100cbcdc     LIBCMTD:winapinls.obj
 0002:0000acec       ??_C@_1O@GBAPEKMJ@?$AAq?$AAu?$AAz?$AA?9?$AAp?$AAe?$AA?$AA@ 100cbcec     LIBCMTD:winapinls.obj
 0002:0000acfc       ??_C@_1M@CLGLEFBO@?$AAr?$AAo?$AA?9?$AAr?$AAo?$AA?$AA@ 100cbcfc     LIBCMTD:winapinls.obj
 0002:0000ad08       ??_C@_1M@CEEDODME@?$AAr?$AAu?$AA?9?$AAr?$AAu?$AA?$AA@ 100cbd08     LIBCMTD:winapinls.obj
 0002:0000ad14       ??_C@_1M@HPKKKMPP@?$AAs?$AAa?$AA?9?$AAi?$AAn?$AA?$AA@ 100cbd14     LIBCMTD:winapinls.obj
 0002:0000ad20       ??_C@_1M@BKMAIGOJ@?$AAs?$AAe?$AA?9?$AAf?$AAi?$AA?$AA@ 100cbd20     LIBCMTD:winapinls.obj
 0002:0000ad2c       ??_C@_1M@NDPIFLFI@?$AAs?$AAe?$AA?9?$AAn?$AAo?$AA?$AA@ 100cbd2c     LIBCMTD:winapinls.obj
 0002:0000ad38       ??_C@_1M@DANKKHJ@?$AAs?$AAe?$AA?9?$AAs?$AAe?$AA?$AA@ 100cbd38     LIBCMTD:winapinls.obj
 0002:0000ad44       ??_C@_1M@PNBLONPJ@?$AAs?$AAk?$AA?9?$AAs?$AAk?$AA?$AA@ 100cbd44     LIBCMTD:winapinls.obj
 0002:0000ad50       ??_C@_1M@LFMODOAL@?$AAs?$AAl?$AA?9?$AAs?$AAi?$AA?$AA@ 100cbd50     LIBCMTD:winapinls.obj
 0002:0000ad5c       ??_C@_1O@DFKOMPG@?$AAs?$AAm?$AAa?$AA?9?$AAn?$AAo?$AA?$AA@ 100cbd5c     LIBCMTD:winapinls.obj
 0002:0000ad6c       ??_C@_1O@NDKPBNNH@?$AAs?$AAm?$AAa?$AA?9?$AAs?$AAe?$AA?$AA@ 100cbd6c     LIBCMTD:winapinls.obj
 0002:0000ad7c       ??_C@_1O@PLLKBHAB@?$AAs?$AAm?$AAj?$AA?9?$AAn?$AAo?$AA?$AA@ 100cbd7c     LIBCMTD:winapinls.obj
 0002:0000ad8c       ??_C@_1O@CLEPOGCA@?$AAs?$AAm?$AAj?$AA?9?$AAs?$AAe?$AA?$AA@ 100cbd8c     LIBCMTD:winapinls.obj
 0002:0000ad9c       ??_C@_1O@DLGJGKMK@?$AAs?$AAm?$AAn?$AA?9?$AAf?$AAi?$AA?$AA@ 100cbd9c     LIBCMTD:winapinls.obj
 0002:0000adac       ??_C@_1O@OJDJGAJC@?$AAs?$AAm?$AAs?$AA?9?$AAf?$AAi?$AA?$AA@ 100cbdac     LIBCMTD:winapinls.obj
 0002:0000adbc       ??_C@_1M@BOFOGHPB@?$AAs?$AAq?$AA?9?$AAa?$AAl?$AA?$AA@ 100cbdbc     LIBCMTD:winapinls.obj
 0002:0000adc8       ??_C@_1BG@LJBBIPGB@?$AAs?$AAr?$AA?9?$AAb?$AAa?$AA?9?$AAc?$AAy?$AAr?$AAl?$AA?$AA@ 100cbdc8     LIBCMTD:winapinls.obj
 0002:0000ade0       ??_C@_1BG@JLBENFOE@?$AAs?$AAr?$AA?9?$AAb?$AAa?$AA?9?$AAl?$AAa?$AAt?$AAn?$AA?$AA@ 100cbde0     LIBCMTD:winapinls.obj
 0002:0000adf8       ??_C@_1BG@KODPNHE@?$AAs?$AAr?$AA?9?$AAs?$AAp?$AA?9?$AAc?$AAy?$AAr?$AAl?$AA?$AA@ 100cbdf8     LIBCMTD:winapinls.obj
 0002:0000ae10       ??_C@_1BG@CIOGKHPB@?$AAs?$AAr?$AA?9?$AAs?$AAp?$AA?9?$AAl?$AAa?$AAt?$AAn?$AA?$AA@ 100cbe10     LIBCMTD:winapinls.obj
 0002:0000ae28       ??_C@_1M@NGFJLMAC@?$AAs?$AAv?$AA?9?$AAf?$AAi?$AA?$AA@ 100cbe28     LIBCMTD:winapinls.obj
 0002:0000ae34       ??_C@_1M@MPJEJAJC@?$AAs?$AAv?$AA?9?$AAs?$AAe?$AA?$AA@ 100cbe34     LIBCMTD:winapinls.obj
 0002:0000ae40       ??_C@_1M@MPNDHLFK@?$AAs?$AAw?$AA?9?$AAk?$AAe?$AA?$AA@ 100cbe40     LIBCMTD:winapinls.obj
 0002:0000ae4c       ??_C@_1O@KOHBJJI@?$AAs?$AAy?$AAr?$AA?9?$AAs?$AAy?$AA?$AA@ 100cbe4c     LIBCMTD:winapinls.obj
 0002:0000ae5c       ??_C@_1M@LDCEFHA@?$AAt?$AAa?$AA?9?$AAi?$AAn?$AA?$AA@ 100cbe5c     LIBCMTD:winapinls.obj
 0002:0000ae68       ??_C@_1M@CNJOFAK@?$AAt?$AAe?$AA?9?$AAi?$AAn?$AA?$AA@ 100cbe68     LIBCMTD:winapinls.obj
 0002:0000ae74       ??_C@_1M@GNAECACD@?$AAt?$AAh?$AA?9?$AAt?$AAh?$AA?$AA@ 100cbe74     LIBCMTD:winapinls.obj
 0002:0000ae80       ??_C@_1M@CHBIHOJO@?$AAt?$AAn?$AA?9?$AAz?$AAa?$AA?$AA@ 100cbe80     LIBCMTD:winapinls.obj
 0002:0000ae8c       ??_C@_1M@GCCMIGPJ@?$AAt?$AAr?$AA?9?$AAt?$AAr?$AA?$AA@ 100cbe8c     LIBCMTD:winapinls.obj
 0002:0000ae98       ??_C@_1M@CELMCNBK@?$AAt?$AAt?$AA?9?$AAr?$AAu?$AA?$AA@ 100cbe98     LIBCMTD:winapinls.obj
 0002:0000aea4       ??_C@_1M@KLMCELGA@?$AAu?$AAk?$AA?9?$AAu?$AAa?$AA?$AA@ 100cbea4     LIBCMTD:winapinls.obj
 0002:0000aeb0       ??_C@_1M@EPAJJAJF@?$AAu?$AAr?$AA?9?$AAp?$AAk?$AA?$AA@ 100cbeb0     LIBCMTD:winapinls.obj
 0002:0000aebc       ??_C@_1BG@GEGPMCDJ@?$AAu?$AAz?$AA?9?$AAu?$AAz?$AA?9?$AAc?$AAy?$AAr?$AAl?$AA?$AA@ 100cbebc     LIBCMTD:winapinls.obj
 0002:0000aed4       ??_C@_1BG@EGGKJILM@?$AAu?$AAz?$AA?9?$AAu?$AAz?$AA?9?$AAl?$AAa?$AAt?$AAn?$AA?$AA@ 100cbed4     LIBCMTD:winapinls.obj
 0002:0000aeec       ??_C@_1M@GFOCLFF@?$AAv?$AAi?$AA?9?$AAv?$AAn?$AA?$AA@ 100cbeec     LIBCMTD:winapinls.obj
 0002:0000aef8       ??_C@_1M@CPAMEDFI@?$AAx?$AAh?$AA?9?$AAz?$AAa?$AA?$AA@ 100cbef8     LIBCMTD:winapinls.obj
 0002:0000af04       ??_C@_1O@EBKIFIGN@?$AAz?$AAh?$AA?9?$AAc?$AAh?$AAs?$AA?$AA@ 100cbf04     LIBCMTD:winapinls.obj
 0002:0000af14       ??_C@_1O@NMHPGANE@?$AAz?$AAh?$AA?9?$AAc?$AAh?$AAt?$AA?$AA@ 100cbf14     LIBCMTD:winapinls.obj
 0002:0000af24       ??_C@_1M@LPINJOMC@?$AAz?$AAh?$AA?9?$AAc?$AAn?$AA?$AA@ 100cbf24     LIBCMTD:winapinls.obj
 0002:0000af30       ??_C@_1M@OCJEJODD@?$AAz?$AAh?$AA?9?$AAh?$AAk?$AA?$AA@ 100cbf30     LIBCMTD:winapinls.obj
 0002:0000af3c       ??_C@_1M@DNDLJINH@?$AAz?$AAh?$AA?9?$AAm?$AAo?$AA?$AA@ 100cbf3c     LIBCMTD:winapinls.obj
 0002:0000af48       ??_C@_1M@MBFDNDND@?$AAz?$AAh?$AA?9?$AAs?$AAg?$AA?$AA@ 100cbf48     LIBCMTD:winapinls.obj
 0002:0000af54       ??_C@_1M@IMEPLEPE@?$AAz?$AAh?$AA?9?$AAt?$AAw?$AA?$AA@ 100cbf54     LIBCMTD:winapinls.obj
 0002:0000af60       ??_C@_1M@BBGHNHJP@?$AAz?$AAu?$AA?9?$AAz?$AAa?$AA?$AA@ 100cbf60     LIBCMTD:winapinls.obj
 0002:0000af70       _LcidToLocaleNameTable     100cbf70     LIBCMTD:winapinls.obj
 0002:0000b690       _LocaleNameToIndexTable    100cc690     LIBCMTD:winapinls.obj
 0002:0000bdb0       ??_C@_15EMKDOKLE@?$AAa?$AAr?$AA?$AA@ 100ccdb0     LIBCMTD:winapinls.obj
 0002:0000bdb8       ??_C@_15KNPADPLH@?$AAb?$AAg?$AA?$AA@ 100ccdb8     LIBCMTD:winapinls.obj
 0002:0000bdc0       ??_C@_15EDMHLDMO@?$AAc?$AAa?$AA?$AA@ 100ccdc0     LIBCMTD:winapinls.obj
 0002:0000bdc8       ??_C@_1O@BPEAJADD@?$AAz?$AAh?$AA?9?$AAC?$AAH?$AAS?$AA?$AA@ 100ccdc8     LIBCMTD:winapinls.obj
 0002:0000bdd8       ??_C@_15LJNHCMNK@?$AAc?$AAs?$AA?$AA@ 100ccdd8     LIBCMTD:winapinls.obj
 0002:0000bde0       ??_C@_15FOMCIDHG@?$AAd?$AAa?$AA?$AA@ 100ccde0     LIBCMTD:winapinls.obj
 0002:0000bde8       ??_C@_15NBKABECB@?$AAd?$AAe?$AA?$AA@ 100ccde8     LIBCMTD:winapinls.obj
 0002:0000bdf0       ??_C@_15GHPEIIAO@?$AAe?$AAl?$AA?$AA@ 100ccdf0     LIBCMTD:winapinls.obj
 0002:0000bdf8       ??_C@_15MNPNEAIF@?$AAe?$AAn?$AA?$AA@ 100ccdf8     LIBCMTD:winapinls.obj
 0002:0000be00       ??_C@_15GPIOMPMH@?$AAe?$AAs?$AA?$AA@ 100cce00     LIBCMTD:winapinls.obj
 0002:0000be08       ??_C@_15NGLOAKJC@?$AAf?$AAi?$AA?$AA@ 100cce08     LIBCMTD:winapinls.obj
 0002:0000be10       ??_C@_15FBKGNKAM@?$AAf?$AAr?$AA?$AA@ 100cce10     LIBCMTD:winapinls.obj
 0002:0000be18       ??_C@_15KGGCNEFK@?$AAh?$AAe?$AA?$AA@ 100cce18     LIBCMTD:winapinls.obj
 0002:0000be20       ??_C@_15PGHLIDMF@?$AAh?$AAu?$AA?$AA@ 100cce20     LIBCMTD:winapinls.obj
 0002:0000be28       ??_C@_15BIEMAPLM@?$AAi?$AAs?$AA?$AA@ 100cce28     LIBCMTD:winapinls.obj
 0002:0000be30       ??_C@_15IFJLDHAF@?$AAi?$AAt?$AA?$AA@ 100cce30     LIBCMTD:winapinls.obj
 0002:0000be38       ??_C@_15GEMIOCAG@?$AAj?$AAa?$AA?$AA@ 100cce38     LIBCMTD:winapinls.obj
 0002:0000be40       ??_C@_15EPELEGJA@?$AAk?$AAo?$AA?$AA@ 100cce40     LIBCMTD:winapinls.obj
 0002:0000be48       ??_C@_15NDDHIMN@?$AAn?$AAl?$AA?$AA@ 100cce48     LIBCMTD:winapinls.obj
 0002:0000be50       ??_C@_15BPIGNHCD@?$AAn?$AAo?$AA?$AA@ 100cce50     LIBCMTD:winapinls.obj
 0002:0000be58       ??_C@_15DEOPBLCG@?$AAp?$AAl?$AA?$AA@ 100cce58     LIBCMTD:winapinls.obj
 0002:0000be60       ??_C@_15KBECGEFG@?$AAp?$AAt?$AA?$AA@ 100cce60     LIBCMTD:winapinls.obj
 0002:0000be68       ??_C@_15GLJCBFMD@?$AAr?$AAo?$AA?$AA@ 100cce68     LIBCMTD:winapinls.obj
 0002:0000be70       ??_C@_15FEDGKCDI@?$AAr?$AAu?$AA?$AA@ 100cce70     LIBCMTD:winapinls.obj
 0002:0000be78       ??_C@_15GLKMLLHM@?$AAh?$AAr?$AA?$AA@ 100cce78     LIBCMTD:winapinls.obj
 0002:0000be80       ??_C@_15CPKMFBDB@?$AAs?$AAk?$AA?$AA@ 100cce80     LIBCMTD:winapinls.obj
 0002:0000be88       ??_C@_15BAAIOGMK@?$AAs?$AAq?$AA?$AA@ 100cce88     LIBCMTD:winapinls.obj
 0002:0000be90       ??_C@_15INNPNOHD@?$AAs?$AAv?$AA?$AA@ 100cce90     LIBCMTD:winapinls.obj
 0002:0000be98       ??_C@_15CABMMOGH@?$AAt?$AAh?$AA?$AA@ 100cce98     LIBCMTD:winapinls.obj
 0002:0000bea0       ??_C@_15BPLIHJJM@?$AAt?$AAr?$AA?$AA@ 100ccea0     LIBCMTD:winapinls.obj
 0002:0000bea8       ??_C@_15NEOEKKDJ@?$AAu?$AAr?$AA?$AA@ 100ccea8     LIBCMTD:winapinls.obj
 0002:0000beb0       ??_C@_15NFICGAJK@?$AAi?$AAd?$AA?$AA@ 100cceb0     LIBCMTD:winapinls.obj
 0002:0000beb8       ??_C@_15PJPFLCCM@?$AAu?$AAk?$AA?$AA@ 100cceb8     LIBCMTD:winapinls.obj
 0002:0000bec0       ??_C@_15HPJPHDM@?$AAb?$AAe?$AA?$AA@ 100ccec0     LIBCMTD:winapinls.obj
 0002:0000bec8       ??_C@_15LCHLGJII@?$AAs?$AAl?$AA?$AA@ 100ccec8     LIBCMTD:winapinls.obj
 0002:0000bed0       ??_C@_15PCFJPHHO@?$AAe?$AAt?$AA?$AA@ 100cced0     LIBCMTD:winapinls.obj
 0002:0000bed8       ??_C@_15HPFPGODN@?$AAl?$AAv?$AA?$AA@ 100cced8     LIBCMTD:winapinls.obj
 0002:0000bee0       ??_C@_15NFFGKGLG@?$AAl?$AAt?$AA?$AA@ 100ccee0     LIBCMTD:winapinls.obj
 0002:0000bee8       ??_C@_15BDAKCCHN@?$AAf?$AAa?$AA?$AA@ 100ccee8     LIBCMTD:winapinls.obj
 0002:0000bef0       ??_C@_15NFGIAIAJ@?$AAv?$AAi?$AA?$AA@ 100ccef0     LIBCMTD:winapinls.obj
 0002:0000bef8       ??_C@_15LMKNDMHN@?$AAh?$AAy?$AA?$AA@ 100ccef8     LIBCMTD:winapinls.obj
 0002:0000bf00       ??_C@_15IJBHMCFL@?$AAa?$AAz?$AA?$AA@ 100ccf00     LIBCMTD:winapinls.obj
 0002:0000bf08       ??_C@_15EKOFJABL@?$AAe?$AAu?$AA?$AA@ 100ccf08     LIBCMTD:winapinls.obj
 0002:0000bf10       ??_C@_15BGHADCNK@?$AAm?$AAk?$AA?$AA@ 100ccf10     LIBCMTD:winapinls.obj
 0002:0000bf18       ??_C@_15JDNICKHM@?$AAa?$AAf?$AA?$AA@ 100ccf18     LIBCMTD:winapinls.obj
 0002:0000bf20       ??_C@_15KPJEDBKD@?$AAk?$AAa?$AA?$AA@ 100ccf20     LIBCMTD:winapinls.obj
 0002:0000bf28       ??_C@_15PDNFFFEO@?$AAf?$AAo?$AA?$AA@ 100ccf28     LIBCMTD:winapinls.obj
 0002:0000bf30       ??_C@_15OMLEGLOC@?$AAh?$AAi?$AA?$AA@ 100ccf30     LIBCMTD:winapinls.obj
 0002:0000bf38       ??_C@_15IDNNENKK@?$AAm?$AAs?$AA?$AA@ 100ccf38     LIBCMTD:winapinls.obj
 0002:0000bf40       ??_C@_15MACJNBMH@?$AAk?$AAk?$AA?$AA@ 100ccf40     LIBCMTD:winapinls.obj
 0002:0000bf48       ??_C@_15DKDJEOND@?$AAk?$AAy?$AA?$AA@ 100ccf48     LIBCMTD:winapinls.obj
 0002:0000bf50       ??_C@_15DFGDLJBG@?$AAs?$AAw?$AA?$AA@ 100ccf50     LIBCMTD:winapinls.obj
 0002:0000bf58       ??_C@_15BBFAICNG@?$AAu?$AAz?$AA?$AA@ 100ccf58     LIBCMTD:winapinls.obj
 0002:0000bf60       ??_C@_15DKNDCGEA@?$AAt?$AAt?$AA?$AA@ 100ccf60     LIBCMTD:winapinls.obj
 0002:0000bf68       ??_C@_15MGIFMDPL@?$AAp?$AAa?$AA?$AA@ 100ccf68     LIBCMTD:winapinls.obj
 0002:0000bf70       ??_C@_15HCNDBBA@?$AAg?$AAu?$AA?$AA@ 100ccf70     LIBCMTD:winapinls.obj
 0002:0000bf78       ??_C@_15FNBEIBON@?$AAt?$AAa?$AA?$AA@ 100ccf78     LIBCMTD:winapinls.obj
 0002:0000bf80       ??_C@_15NCHGBGLK@?$AAt?$AAe?$AA?$AA@ 100ccf80     LIBCMTD:winapinls.obj
 0002:0000bf88       ??_C@_15PHPHCBPF@?$AAk?$AAn?$AA?$AA@ 100ccf88     LIBCMTD:winapinls.obj
 0002:0000bf90       ??_C@_15DLGBCKMP@?$AAm?$AAr?$AA?$AA@ 100ccf90     LIBCMTD:winapinls.obj
 0002:0000bf98       ??_C@_15EABBLBFF@?$AAs?$AAa?$AA?$AA@ 100ccf98     LIBCMTD:winapinls.obj
 0002:0000bfa0       ??_C@_15CBKOMCOI@?$AAm?$AAn?$AA?$AA@ 100ccfa0     LIBCMTD:winapinls.obj
 0002:0000bfa8       ??_C@_15CKDMCJAF@?$AAg?$AAl?$AA?$AA@ 100ccfa8     LIBCMTD:winapinls.obj
 0002:0000bfb0       ??_C@_17CNJFBPG@?$AAk?$AAo?$AAk?$AA?$AA@ 100ccfb0     LIBCMTD:winapinls.obj
 0002:0000bfb8       ??_C@_17FFBJICPL@?$AAs?$AAy?$AAr?$AA?$AA@ 100ccfb8     LIBCMTD:winapinls.obj
 0002:0000bfc0       ??_C@_17KPNDCPAF@?$AAd?$AAi?$AAv?$AA?$AA@ 100ccfc0     LIBCMTD:winapinls.obj
 0002:0000bfc8       ??_C@_1M@OKAHONE@?$AAa?$AAr?$AA?9?$AAS?$AAA?$AA?$AA@ 100ccfc8     LIBCMTD:winapinls.obj
 0002:0000bfd4       ??_C@_1M@FFFIGIGK@?$AAb?$AAg?$AA?9?$AAB?$AAG?$AA?$AA@ 100ccfd4     LIBCMTD:winapinls.obj
 0002:0000bfe0       ??_C@_1M@BJNKEDC@?$AAc?$AAa?$AA?9?$AAE?$AAS?$AA?$AA@ 100ccfe0     LIBCMTD:winapinls.obj
 0002:0000bfec       ??_C@_1M@CLNBBOPM@?$AAz?$AAh?$AA?9?$AAT?$AAW?$AA?$AA@ 100ccfec     LIBCMTD:winapinls.obj
 0002:0000bff8       ??_C@_1M@IJJHFJHA@?$AAc?$AAs?$AA?9?$AAC?$AAZ?$AA?$AA@ 100ccff8     LIBCMTD:winapinls.obj
 0002:0000c004       ??_C@_1M@CLPEOBGI@?$AAd?$AAa?$AA?9?$AAD?$AAK?$AA?$AA@ 100cd004     LIBCMTD:winapinls.obj
 0002:0000c010       ??_C@_1M@MCMADGCB@?$AAd?$AAe?$AA?9?$AAD?$AAE?$AA?$AA@ 100cd010     LIBCMTD:winapinls.obj
 0002:0000c01c       ??_C@_1M@OOCKEMAM@?$AAe?$AAl?$AA?9?$AAG?$AAR?$AA?$AA@ 100cd01c     LIBCMTD:winapinls.obj
 0002:0000c028       ??_C@_1M@BMHNFIME@?$AAe?$AAn?$AA?9?$AAU?$AAS?$AA?$AA@ 100cd028     LIBCMTD:winapinls.obj
 0002:0000c034       ??_C@_1M@DDNJFGID@?$AAf?$AAi?$AA?9?$AAF?$AAI?$AA?$AA@ 100cd034     LIBCMTD:winapinls.obj
 0002:0000c040       ??_C@_1M@GLIPPMAC@?$AAf?$AAr?$AA?9?$AAF?$AAR?$AA?$AA@ 100cd040     LIBCMTD:winapinls.obj
 0002:0000c04c       ??_C@_1M@GFMCHPE@?$AAh?$AAe?$AA?9?$AAI?$AAL?$AA?$AA@ 100cd04c     LIBCMTD:winapinls.obj
 0002:0000c058       ??_C@_1M@MHLPGNKM@?$AAh?$AAu?$AA?9?$AAH?$AAU?$AA?$AA@ 100cd058     LIBCMTD:winapinls.obj
 0002:0000c064       ??_C@_1M@LPDDNNPN@?$AAi?$AAs?$AA?9?$AAI?$AAS?$AA?$AA@ 100cd064     LIBCMTD:winapinls.obj
 0002:0000c070       ??_C@_1M@MADIPODN@?$AAi?$AAt?$AA?9?$AAI?$AAT?$AA?$AA@ 100cd070     LIBCMTD:winapinls.obj
 0002:0000c07c       ??_C@_1M@HPNHIDJI@?$AAj?$AAa?$AA?9?$AAJ?$AAP?$AA?$AA@ 100cd07c     LIBCMTD:winapinls.obj
 0002:0000c088       ??_C@_1M@JLOOOEGK@?$AAk?$AAo?$AA?9?$AAK?$AAR?$AA?$AA@ 100cd088     LIBCMTD:winapinls.obj
 0002:0000c094       ??_C@_1M@IHBJJGG@?$AAn?$AAl?$AA?9?$AAN?$AAL?$AA?$AA@ 100cd094     LIBCMTD:winapinls.obj
 0002:0000c0a0       ??_C@_1M@EANAGDL@?$AAn?$AAb?$AA?9?$AAN?$AAO?$AA?$AA@ 100cd0a0     LIBCMTD:winapinls.obj
 0002:0000c0ac       ??_C@_1M@NEIEMEGP@?$AAp?$AAl?$AA?9?$AAP?$AAL?$AA?$AA@ 100cd0ac     LIBCMTD:winapinls.obj
 0002:0000c0b8       ??_C@_1M@BOCFIGEP@?$AAp?$AAt?$AA?9?$AAB?$AAR?$AA?$AA@ 100cd0b8     LIBCMTD:winapinls.obj
 0002:0000c0c4       ??_C@_1M@IMPFOPBG@?$AAr?$AAo?$AA?9?$AAR?$AAO?$AA?$AA@ 100cd0c4     LIBCMTD:winapinls.obj
 0002:0000c0d0       ??_C@_1M@IDNNEJMM@?$AAr?$AAu?$AA?9?$AAR?$AAU?$AA?$AA@ 100cd0d0     LIBCMTD:winapinls.obj
 0002:0000c0dc       ??_C@_1M@LILEEOGM@?$AAh?$AAr?$AA?9?$AAH?$AAR?$AA?$AA@ 100cd0dc     LIBCMTD:winapinls.obj
 0002:0000c0e8       ??_C@_1M@FKIFEHPB@?$AAs?$AAk?$AA?9?$AAS?$AAK?$AA?$AA@ 100cd0e8     LIBCMTD:winapinls.obj
 0002:0000c0f4       ??_C@_1M@LJMAMNPJ@?$AAs?$AAq?$AA?9?$AAA?$AAL?$AA?$AA@ 100cd0f4     LIBCMTD:winapinls.obj
 0002:0000c100       ??_C@_1M@GIAKDKJK@?$AAs?$AAv?$AA?9?$AAS?$AAE?$AA?$AA@ 100cd100     LIBCMTD:winapinls.obj
 0002:0000c10c       ??_C@_1M@MKJKIKCL@?$AAt?$AAh?$AA?9?$AAT?$AAH?$AA?$AA@ 100cd10c     LIBCMTD:winapinls.obj
 0002:0000c118       ??_C@_1M@MFLCCMPB@?$AAt?$AAr?$AA?9?$AAT?$AAR?$AA?$AA@ 100cd118     LIBCMTD:winapinls.obj
 0002:0000c124       ??_C@_1M@OIJHDKJN@?$AAu?$AAr?$AA?9?$AAP?$AAK?$AA?$AA@ 100cd124     LIBCMTD:winapinls.obj
 0002:0000c130       ??_C@_1M@LHIPCIEK@?$AAi?$AAd?$AA?9?$AAI?$AAD?$AA?$AA@ 100cd130     LIBCMTD:winapinls.obj
 0002:0000c13c       ??_C@_1M@MFMOBGI@?$AAu?$AAk?$AA?9?$AAU?$AAA?$AA?$AA@ 100cd13c     LIBCMTD:winapinls.obj
 0002:0000c148       ??_C@_1M@OBGLJIPL@?$AAb?$AAe?$AA?9?$AAB?$AAY?$AA?$AA@ 100cd148     LIBCMTD:winapinls.obj
 0002:0000c154       ??_C@_1M@BCFAJEAD@?$AAs?$AAl?$AA?9?$AAS?$AAI?$AA?$AA@ 100cd154     LIBCMTD:winapinls.obj
 0002:0000c160       ??_C@_1M@FKFFEDDN@?$AAe?$AAt?$AA?9?$AAE?$AAE?$AA?$AA@ 100cd160     LIBCMTD:winapinls.obj
 0002:0000c16c       ??_C@_1M@KGKKAACI@?$AAl?$AAv?$AA?9?$AAL?$AAV?$AA?$AA@ 100cd16c     LIBCMTD:winapinls.obj
