 trackgen

 Timestamp is 51a15a77 (Sun May 26 02:42:31 2013)

 Preferred load address is 00400000

 Start         Length     Name                   Class
 0001:00000000 000d95f5H .text                   CODE
 0001:000d9600 00002bc3H .text$x                 CODE
 0001:000dc1d0 00000a1dH .text$yc                CODE
 0001:000dcbf0 0000018fH .text$yd                CODE
 0002:00000000 00000364H .idata$5                DATA
 0002:00000364 00000004H .CRT$XCA                DATA
 0002:00000368 00000004H .CRT$XCC                DATA
 0002:0000036c 00000080H .CRT$XCU                DATA
 0002:000003ec 00000004H .CRT$XCZ                DATA
 0002:000003f0 00000004H .CRT$XIA                DATA
 0002:000003f4 00000014H .CRT$XIC                DATA
 0002:00000408 00000004H .CRT$XIY                DATA
 0002:0000040c 00000004H .CRT$XIZ                DATA
 0002:00000410 00000004H .CRT$XPA                DATA
 0002:00000414 00000008H .CRT$XPX                DATA
 0002:0000041c 00000004H .CRT$XPXA               DATA
 0002:00000420 00000004H .CRT$XPZ                DATA
 0002:00000424 00000004H .CRT$XTA                DATA
 0002:00000428 00000004H .CRT$XTZ                DATA
 0002:00000430 00025880H .rdata                  DATA
 0002:00025cb0 00000084H .rdata$debug            DATA
 0002:00025d34 0000163cH .rdata$r                DATA
 0002:00027370 000003bcH .rdata$sxdata           DATA
 0002:0002772c 00000004H .rtc$IAA                DATA
 0002:00027730 00000028H .rtc$IMZ                DATA
 0002:00027758 00000004H .rtc$IZZ                DATA
 0002:0002775c 00000004H .rtc$TAA                DATA
 0002:00027760 00000028H .rtc$TMZ                DATA
 0002:00027788 00000004H .rtc$TZZ                DATA
 0002:00027790 000042f0H .xdata$x                DATA
 0002:0002ba80 0000008cH .idata$2                DATA
 0002:0002bb0c 00000014H .idata$3                DATA
 0002:0002bb20 00000364H .idata$4                DATA
 0002:0002be84 00000efaH .idata$6                DATA
 0002:0002cd7e 00000000H .edata                  DATA
 0003:00000000 00003dc0H .data                   DATA
 0003:00003dc0 0090b060H .bss                    DATA

  Address         Publics by Value              Rva+Base       Lib:Object

 0000:00000000       __except_list              00000000     <absolute>
 0000:000000ef       ___safe_se_handler_count   000000ef     <absolute>
 0000:00000000       ___ImageBase               00400000     <linker-defined>
 0001:00000000       ?Ac3dOpen@@YAPAU_iobuf@@PADH@Z 00401000 f   ac3d.obj
 0001:000000a0       ?Ac3dGroup@@YAHPAU_iobuf@@PBDH@Z 004010a0 f   ac3d.obj
 0001:000000f0       ?Ac3dClose@@YAXPAU_iobuf@@@Z 004010f0 f   ac3d.obj
 0001:00000110       ?GenerateTerrain@@YAXPAUtTrack@@PAXPADPAU_iobuf@@H@Z 00401110 f   easymesh.obj
 0001:00000630       ?swap_side@@YAXH@Z         00401630 f   easymesh.obj
 0001:00000e20       ?area@@YANPAUnod@@00@Z     00401e20 f   easymesh.obj
 0001:00000e90       ?dist@@YANPAUnod@@0@Z      00401e90 f   easymesh.obj
 0001:00000f00       ?in_elem@@YAHPAUnod@@@Z    00401f00 f   easymesh.obj
 0001:00001040       ?bowyer@@YAXHH@Z           00402040 f   easymesh.obj
 0001:00001220       ?circles@@YAXH@Z           00402220 f   easymesh.obj
 0001:000015f0       ?spacing@@YAXHH@Z          004025f0 f   easymesh.obj
 0001:00001830       ?insert_node@@YAHNNNHHHHHH@Z 00402830 f   easymesh.obj
 0001:00002250       ?erase@@YAXXZ              00403250 f   easymesh.obj
 0001:000026f0       ?diamond@@YAXXZ            004036f0 f   easymesh.obj
 0001:00002920       ?classify@@YAXXZ           00403920 f   easymesh.obj
 0001:00002db0       ?new_node@@YAXXZ           00403db0 f   easymesh.obj
 0001:000033d0       ?neighbours@@YAXXZ         004043d0 f   easymesh.obj
 0001:000034a0       ?materials@@YAXXZ          004044a0 f   easymesh.obj
 0001:00003700       ?relax@@YAXXZ              00404700 f   easymesh.obj
 0001:00003920       ?smooth@@YAHXZ             00404920 f   easymesh.obj
 0001:00003bf0       ?renum@@YAXXZ              00404bf0 f   easymesh.obj
 0001:00004180       ?load@@YAHXZ               00405180 f   easymesh.obj
 0001:00008c10       ?sgdMakeCoordMat4@@YAXQAY03NPBUsgdCoord@@@Z 00409c10 f i easymesh.obj
 0001:00008c40       ?sgdMakeCoordMat4@@YAXQAY03NQBN1@Z 00409c40 f i easymesh.obj
 0001:00008cf0       ?LoadElevation@@YAXPAUtTrack@@PAXPAD@Z 00409cf0 f   elevation.obj
 0001:00008ef0       ?GetElevation@@YAMMMM@Z    00409ef0 f   elevation.obj
 0001:00008f90       ?SaveElevation@@YAXPAUtTrack@@PAXPAD2H@Z 00409f90 f   elevation.obj
 0001:000097b0       ??0ssgLoaderOptions@@QAE@XZ 0040a7b0 f i elevation.obj
 0001:00009860       ??0ssgLoaderOptionsEx@@QAE@XZ 0040a860 f i elevation.obj
 0001:00009890       ??0ssgSimpleList@@QAE@HHPAD@Z 0040a890 f i elevation.obj
 0001:00009980       ??0ssgSimpleStateArray@@QAE@H@Z 0040a980 f i elevation.obj
 0001:000099c0       ??0ssgTextureArray@@QAE@H@Z 0040a9c0 f i elevation.obj
 0001:00009a00       ??1ssgLoaderOptions@@UAE@XZ 0040aa00 f i elevation.obj
 0001:00009ae0       ??1ssgLoaderOptionsEx@@UAE@XZ 0040aae0 f i elevation.obj
 0001:00009b10       ??1ssgSimpleList@@UAE@XZ   0040ab10 f i elevation.obj
 0001:00009b70       ??1ssgSimpleStateArray@@UAE@XZ 0040ab70 f i elevation.obj
 0001:00009ba0       ??1ssgTextureArray@@UAE@XZ 0040aba0 f i elevation.obj
 0001:00009bd0       ??_GssgLoaderOptions@@UAEPAXI@Z 0040abd0 f i elevation.obj
 0001:00009bd0       ??_EssgLoaderOptions@@UAEPAXI@Z 0040abd0 f i elevation.obj
 0001:00009c10       ??_GssgLoaderOptionsEx@@UAEPAXI@Z 0040ac10 f i elevation.obj
 0001:00009c10       ??_EssgLoaderOptionsEx@@UAEPAXI@Z 0040ac10 f i elevation.obj
 0001:00009c50       ??_EssgSimpleList@@UAEPAXI@Z 0040ac50 f i elevation.obj
 0001:00009c50       ??_GssgSimpleList@@UAEPAXI@Z 0040ac50 f i elevation.obj
 0001:00009c90       ??_GssgSimpleStateArray@@UAEPAXI@Z 0040ac90 f i elevation.obj
 0001:00009c90       ??_EssgSimpleStateArray@@UAEPAXI@Z 0040ac90 f i elevation.obj
 0001:00009cd0       ??_EssgTextureArray@@UAEPAXI@Z 0040acd0 f i elevation.obj
 0001:00009cd0       ??_GssgTextureArray@@UAEPAXI@Z 0040acd0 f i elevation.obj
 0001:00009d10       ?createBranch@ssgLoaderOptions@@UBEPAVssgBranch@@PAD@Z 0040ad10 f i elevation.obj
 0001:00009d60       ?createSimpleState@ssgLoaderOptions@@UBEPAVssgSimpleState@@PAD@Z 0040ad60 f i elevation.obj
 0001:00009de0       ?createState@ssgLoaderOptions@@UBEPAVssgState@@PAD@Z 0040ade0 f i elevation.obj
 0001:00009e30       ?endLoad@ssgLoaderOptions@@UAEXXZ 0040ae30 f i elevation.obj
 0001:00009e70       ?getType@ssgBase@@QAEHXZ   0040ae70 f i elevation.obj
 0001:00009e90       ?isAKindOf@ssgBase@@QAEHH@Z 0040ae90 f i elevation.obj
 0001:00009ee0       ?makeModelPath@ssgLoaderOptionsEx@@UBEXPADPBD@Z 0040aee0 f i elevation.obj
 0001:00009f20       ?makeTexturePath@ssgLoaderOptionsEx@@UBEXPADPBD@Z 0040af20 f i elevation.obj
 0001:00009f60       ?ssgModelPath@@YAXPBD@Z    0040af60 f i elevation.obj
 0001:00009f80       ?ssgSetCurrentOptions@@YAXPAVssgLoaderOptions@@@Z 0040af80 f i elevation.obj
 0001:00009fa0       ?ssgTexturePath@@YAXPBD@Z  0040afa0 f i elevation.obj
 0001:00009fc0       ?ssgTypeBase@@YAHXZ        0040afc0 f i elevation.obj
 0001:00009fd0       ?ssgTypeSimpleList@@YAHXZ  0040afd0 f i elevation.obj
 0001:00009ff0       ?ssgTypeSimpleState@@YAHXZ 0040aff0 f i elevation.obj
 0001:0000a010       ?ssgTypeState@@YAHXZ       0040b010 f i elevation.obj
 0001:0000a6a0       ?usage@@YAXXZ              0040b6a0 f   maintrackgen.obj
 0001:0000a8b0       ?init_args@@YAXHPAPAD@Z    0040b8b0 f   maintrackgen.obj
 0001:0000ac80       _main                      0040bc80 f   maintrackgen.obj
 0001:0000acd0       ?GenerateObjects@@YAXPAUtTrack@@PAX1PAU_iobuf@@PAD@Z 0040bcd0 f   objects.obj
 0001:0000b340       ?GetObjectsNb@@YAHPAX@Z    0040c340 f   objects.obj
 0001:0000c9b0       ??0myLoaderOptions@@QAE@XZ 0040d9b0 f i objects.obj
 0001:0000c9e0       ??1myLoaderOptions@@UAE@XZ 0040d9e0 f i objects.obj
 0001:0000ca10       ??_EmyLoaderOptions@@UAEPAXI@Z 0040da10 f i objects.obj
 0001:0000ca10       ??_GmyLoaderOptions@@UAEPAXI@Z 0040da10 f i objects.obj
 0001:0000ca50       ?getBSphere@ssgEntity@@QAEPAVsgSphere@@XZ 0040da50 f i objects.obj
 0001:0000caa0       ?getCenter@sgSphere@@QBEPBMXZ 0040daa0 f i objects.obj
 0001:0000cac0       ?getCullFace@ssgLeaf@@QAEHXZ 0040dac0 f i objects.obj
 0001:0000cae0       ?getEntity@ssgList@@QAEPAVssgEntity@@I@Z 0040dae0 f i objects.obj
 0001:0000cb30       ?getKid@ssgBranch@@QAEPAVssgEntity@@H@Z 0040db30 f i objects.obj
 0001:0000cb60       ?getState@ssgLeaf@@QAEPAVssgState@@XZ 0040db60 f i objects.obj
 0001:0000cb80       ?isDirtyBSphere@ssgEntity@@QAEHXZ 0040db80 f i objects.obj
 0001:0000cba0       ?makeModelPath@myLoaderOptions@@UBEXPADPBD@Z 0040dba0 f i objects.obj
 0001:0000cbe0       ?makeTexturePath@myLoaderOptions@@UBEXPADPBD@Z 0040dbe0 f i objects.obj
 0001:0000cc20       ?sgCopyVec2@@YAXQAMQBM@Z   0040dc20 f i objects.obj
 0001:0000cc60       ?sgCopyVec3@@YAXQAMQBM@Z   0040dc60 f i objects.obj
 0001:0000ccc0       ?sgMakeRotMat4@@YAXQAY03MMMM@Z 0040dcc0 f i objects.obj
 0001:0000cd30       ?ssgTypeBranch@@YAHXZ      0040dd30 f i objects.obj
 0001:0000cd50       ?ssgTypeEntity@@YAHXZ      0040dd50 f i objects.obj
 0001:0000cd70       ?ssgTypeLeaf@@YAHXZ        0040dd70 f i objects.obj
 0001:0000cd90       ?strrchr@@YAPADPADH@Z      0040dd90 f i objects.obj
 0001:0000e040       ?generateRaceLine@@YAXPAUtTrack@@NN@Z 0040f040 f   raceline.obj
 0001:0000e100       ?getTexureOffset@@YANN@Z   0040f100 f   raceline.obj
 0001:0000e200       ??$?DN@@YA?AV?$v2t@N@@NABV0@@Z 0040f200 f i raceline.obj
 0001:0000e240       ??0?$v2t@N@@QAE@ABV0@@Z    0040f240 f i raceline.obj
 0001:0000e280       ??0?$v2t@N@@QAE@NN@Z       0040f280 f i raceline.obj
 0001:0000e2b0       ??0?$v2t@N@@QAE@XZ         0040f2b0 f i raceline.obj
 0001:0000e2d0       ??0RacelineSegment@@QAE@XZ 0040f2d0 f i raceline.obj
 0001:0000e310       ??4?$v2t@N@@QAEAAV0@ABV0@@Z 0040f310 f i raceline.obj
 0001:0000e350       ??G?$v2t@N@@QBE?AV0@ABV0@@Z 0040f350 f i raceline.obj
 0001:0000e3b0       ??H?$v2t@N@@QBE?AV0@ABV0@@Z 0040f3b0 f i raceline.obj
 0001:0000e410       ??K?$v2t@N@@QBE?AV0@N@Z    0040f410 f i raceline.obj
 0001:0000e470       ??_H@YGXPAXIHP6EPAX0@Z@Z   0040f470 f i raceline.obj
 0001:0000e4b0       ?len@?$v2t@N@@QBENXZ       0040f4b0 f i raceline.obj
 0001:0000e500       ?rotate@?$v2t@N@@QBE?AV1@ABV1@N@Z 0040f500 f i raceline.obj
 0001:0000e5f0       ?LoadRelief@@YAXPAXPAD@Z   0040f5f0 f   relief.obj
 0001:0000e710       ?CountRelief@@YAXHPAH0@Z   0040f710 f   relief.obj
 0001:0000e850       ?GenRelief@@YAXH@Z         0040f850 f   relief.obj
 0001:0000ed80       ?getParent@ssgEntity@@QAEPAVssgBranch@@H@Z 0040fd80 f i relief.obj
 0001:0000edb0       ?setCreateBranchCallback@ssgLoaderOptions@@QAEXP6APAVssgBranch@@PAD@Z@Z 0040fdb0 f i relief.obj
 0001:0000edd0       ?GenerateTrack@@YAXPAUtTrack@@PAXPADPAU_iobuf@@HH@Z 0040fdd0 f   track.obj
 0001:0000eed0       ?CalculateTrack@@YAXPAUtTrack@@PAX@Z 0040fed0 f   track.obj
 0001:0000f280       ?newTextureId@@YAIXZ       00410280 f   track.obj
 0001:0000f2b0       ?setTexture@@YAXPAPAUtexElt@@0AAIPBD22@Z 004102b0 f   track.obj
 0001:0000f460       ?newDispList@@YAXHHHAAHPBDHPAPAUdispElt@@PAUtexElt@@@Z 00410460 f   track.obj
 0001:0000f640       ?checkDispList@@YAXPAUtTrack@@PAXPBD2HMHHPAPAUtexElt@@3PAPAUdispElt@@AAI5AAH66AAM7@Z 00410640 f   track.obj
 0001:0000f960       ?checkDispList2@@YAXPBD0HHHPAPAUtexElt@@1PAPAUdispElt@@AAI3AAH@Z 00410960 f   track.obj
 0001:0000fa60       ?checkDispList3@@YAXPBD0HHHPAPAUtexElt@@1PAPAUdispElt@@AAI3AAH@Z 00410a60 f   track.obj
 0001:0000fae0       ?setPoint@@YAXPAUtexElt@@MMMMMAAI@Z 00410ae0 f   track.obj
 0001:0000fb90       ?pitCapCCW@@YAXPAUtexElt@@AAIMMMABUt3Dd@@@Z 00410b90 f   track.obj
 0001:0000fe90       ?pitCapCW@@YAXPAUtexElt@@AAIMMMABUt3Dd@@@Z 00410e90 f   track.obj
 0001:00010190       ?InitScene@@YAHPAUtTrack@@PAXHH@Z 00411190 f   track.obj
 0001:00020c10       ?cos@@YAMM@Z               00421c10 f i track.obj
 0001:00020c30       ?floor@@YAMM@Z             00421c30 f i track.obj
 0001:00020c50       ?sin@@YAMM@Z               00421c50 f i track.obj
 0001:00020c70       _cosf                      00421c70 f i track.obj
 0001:00020cd0       _floorf                    00421cd0 f i track.obj
 0001:00020d30       _sinf                      00421d30 f i track.obj
 0001:00020d90       ?GetFilename@@YAHPBD0PADH@Z 00421d90 f   util.obj
 0001:00020f20       ?getHOT@@YAMPAVssgRoot@@MM@Z 00421f20 f   util.obj
 0001:00021110       ?sgMakeIdentMat4@@YAXQAY03M@Z 00422110 f i util.obj
 0001:00021250       ?sgSetVec4@@YAXQAMMMMM@Z   00422250 f i util.obj
 0001:00022950       ?WindowsSpecInit@@YAXXZ    00423950 f   windowsspec.obj
 0001:000229e0       ??$_Allocate@D@std@@YAPADIPAD@Z 004239e0 f i windowsspec.obj
 0001:00022a30       ??$_Allocate@U_Container_proxy@std@@@std@@YAPAU_Container_proxy@0@IPAU10@@Z 00423a30 f i windowsspec.obj
 0001:00022a90       ??$_Debug_pointer@D@std@@YAXPBDPB_WI@Z 00423a90 f i windowsspec.obj
 0001:00022ac0       ??$addressof@D@std@@YAPADAAD@Z 00423ac0 f i windowsspec.obj
 0001:00022ad0       ??$construct@PADAAPAD@?$_Wrap_alloc@V?$allocator@D@std@@@std@@QAEXPAPADAAPAD@Z 00423ad0 f i windowsspec.obj
 0001:00022b10       ??$construct@PADAAPAD@?$allocator@D@std@@QAEXPAPADAAPAD@Z 00423b10 f i windowsspec.obj
 0001:00022bc0       ??$construct@PADAAPAD@?$allocator_traits@V?$allocator@D@std@@@std@@SAXAAV?$allocator@D@1@PAPADAAPAD@Z 00423bc0 f i windowsspec.obj
 0001:00022bf0       ??$construct@U_Container_proxy@std@@U12@@?$allocator@U_Container_proxy@std@@@std@@QAEXPAU_Container_proxy@1@$$QAU21@@Z 00423bf0 f i windowsspec.obj
 0001:00022ca0       ??$destroy@PAD@?$_Wrap_alloc@V?$allocator@D@std@@@std@@QAEXPAPAD@Z 00423ca0 f i windowsspec.obj
 0001:00022cd0       ??$destroy@PAD@?$allocator@D@std@@QAEXPAPAD@Z 00423cd0 f i windowsspec.obj
 0001:00022cf0       ??$destroy@PAD@?$allocator_traits@V?$allocator@D@std@@@std@@SAXAAV?$allocator@D@1@PAPAD@Z 00423cf0 f i windowsspec.obj
 0001:00022d10       ??$destroy@U_Container_proxy@std@@@?$allocator@U_Container_proxy@std@@@std@@QAEXPAU_Container_proxy@1@@Z 00423d10 f i windowsspec.obj
 0001:00022d30       ??$forward@AAPAD@std@@YAAAPADAAPAD@Z 00423d30 f i windowsspec.obj
 0001:00022d40       ??$forward@U_Container_proxy@std@@@std@@YA$$QAU_Container_proxy@0@AAU10@@Z 00423d40 f i windowsspec.obj
 0001:00022d50       ??0?$_String_alloc@$0A@U?$_String_base_types@DV?$allocator@D@std@@@std@@@std@@QAE@ABV?$allocator@D@1@@Z 00423d50 f i windowsspec.obj
 0001:00022dc0       ??0?$_String_val@U?$_Simple_types@D@std@@@std@@QAE@XZ 00423dc0 f i windowsspec.obj
 0001:00022e00       ??0?$_Wrap_alloc@V?$allocator@D@std@@@std@@QAE@XZ 00423e00 f i windowsspec.obj
 0001:00022e30       ??0?$allocator@D@std@@QAE@XZ 00423e30 f i windowsspec.obj
 0001:00022e50       ??0?$allocator@U_Container_proxy@std@@@std@@QAE@XZ 00423e50 f i windowsspec.obj
 0001:00022e70       ??0?$basic_string@DU?$char_traits@D@std@@V?$allocator@D@2@@std@@QAE@PBD@Z 00423e70 f i windowsspec.obj
 0001:00022f00       ??0_Container_base12@std@@QAE@XZ 00423f00 f i windowsspec.obj
 0001:00022f20       ??0_Container_proxy@std@@QAE@XZ 00423f20 f i windowsspec.obj
 0001:00022f50       ??0_Generic_error_category@std@@QAE@XZ 00423f50 f i windowsspec.obj
 0001:00022f80       ??0_Iostream_error_category@std@@QAE@XZ 00423f80 f i windowsspec.obj
 0001:00022fb0       ??0_System_error_category@std@@QAE@XZ 00423fb0 f i windowsspec.obj
 0001:00022fe0       ??0error_category@std@@QAE@XZ 00423fe0 f i windowsspec.obj
 0001:00023000       ??0error_condition@std@@QAE@HABVerror_category@1@@Z 00424000 f i windowsspec.obj
 0001:00023030       ??0id@locale@std@@QAE@I@Z  00424030 f i windowsspec.obj
 0001:00023050       ??1?$_String_alloc@$0A@U?$_String_base_types@DV?$allocator@D@std@@@std@@@std@@QAE@XZ 00424050 f i windowsspec.obj
 0001:00023080       ??1?$_String_val@U?$_Simple_types@D@std@@@std@@QAE@XZ 00424080 f i windowsspec.obj
 0001:000230b0       ??1_Container_base12@std@@QAE@XZ 004240b0 f i windowsspec.obj
 0001:000230e0       ??1_Generic_error_category@std@@UAE@XZ 004240e0 f i windowsspec.obj
 0001:00023110       ??1_Iostream_error_category@std@@UAE@XZ 00424110 f i windowsspec.obj
 0001:00023140       ??1_System_error_category@std@@UAE@XZ 00424140 f i windowsspec.obj
 0001:00023170       ??1error_category@std@@UAE@XZ 00424170 f i windowsspec.obj
 0001:00023190       ??2@YAPAXIPAX@Z            00424190 f i windowsspec.obj
 0001:000231a0       ??3@YAXPAX0@Z              004241a0 f i windowsspec.obj
 0001:000231b0       ??8error_category@std@@QBE_NABV01@@Z 004241b0 f i windowsspec.obj
 0001:000231f0       ??8error_condition@std@@QBE_NABV01@@Z 004241f0 f i windowsspec.obj
 0001:00023270       ??_E_Generic_error_category@std@@UAEPAXI@Z 00424270 f i windowsspec.obj
 0001:00023270       ??_G_Generic_error_category@std@@UAEPAXI@Z 00424270 f i windowsspec.obj
 0001:000232b0       ??_E_Iostream_error_category@std@@UAEPAXI@Z 004242b0 f i windowsspec.obj
 0001:000232b0       ??_G_Iostream_error_category@std@@UAEPAXI@Z 004242b0 f i windowsspec.obj
 0001:000232f0       ??_E_System_error_category@std@@UAEPAXI@Z 004242f0 f i windowsspec.obj
 0001:000232f0       ??_G_System_error_category@std@@UAEPAXI@Z 004242f0 f i windowsspec.obj
 0001:00023330       ??_Eerror_category@std@@UAEPAXI@Z 00424330 f i windowsspec.obj
 0001:00023330       ??_Gerror_category@std@@UAEPAXI@Z 00424330 f i windowsspec.obj
 0001:00023370       ?_Alloc_proxy@?$_String_alloc@$0A@U?$_String_base_types@DV?$allocator@D@std@@@std@@@std@@QAEXXZ 00424370 f i windowsspec.obj
 0001:00023410       ?_Copy@?$basic_string@DU?$char_traits@D@std@@V?$allocator@D@2@@std@@QAEXII@Z 00424410 f i windowsspec.obj
 0001:00023610       ?_Eos@?$basic_string@DU?$char_traits@D@std@@V?$allocator@D@2@@std@@QAEXI@Z 00424610 f i windowsspec.obj
 0001:00023660       ?_Free_proxy@?$_String_alloc@$0A@U?$_String_base_types@DV?$allocator@D@std@@@std@@@std@@QAEXXZ 00424660 f i windowsspec.obj
 0001:000236f0       ?_Getal@?$_String_alloc@$0A@U?$_String_base_types@DV?$allocator@D@std@@@std@@@std@@QBE?AU?$_Wrap_alloc@V?$allocator@D@std@@@2@XZ 004246f0 f i windowsspec.obj
 0001:00023720       ?_Grow@?$basic_string@DU?$char_traits@D@std@@V?$allocator@D@2@@std@@QAE_NI_N@Z 00424720 f i windowsspec.obj
 0001:000237f0       ?_Inside@?$basic_string@DU?$char_traits@D@std@@V?$allocator@D@2@@std@@QAE_NPBD@Z 004247f0 f i windowsspec.obj
 0001:00023840       ?_Myptr@?$_String_val@U?$_Simple_types@D@std@@@std@@QAEPADXZ 00424840 f i windowsspec.obj
 0001:00023890       ?_Myptr@?$_String_val@U?$_Simple_types@D@std@@@std@@QBEPBDXZ 00424890 f i windowsspec.obj
 0001:000238e0       ?_Orphan_all@_Container_base12@std@@QAEXXZ 004248e0 f i windowsspec.obj
 0001:00023990       ?_Tidy@?$basic_string@DU?$char_traits@D@std@@V?$allocator@D@2@@std@@QAEX_NI@Z 00424990 f i windowsspec.obj
 0001:00023a60       ?_Xlen@?$basic_string@DU?$char_traits@D@std@@V?$allocator@D@2@@std@@QBEXXZ 00424a60 f i windowsspec.obj
 0001:00023a90       ?_Xran@?$basic_string@DU?$char_traits@D@std@@V?$allocator@D@2@@std@@QBEXXZ 00424a90 f i windowsspec.obj
 0001:00023ac0       ?allocate@?$_Wrap_alloc@V?$allocator@D@std@@@std@@QAEPADI@Z 00424ac0 f i windowsspec.obj
 0001:00023af0       ?allocate@?$allocator@D@std@@QAEPADI@Z 00424af0 f i windowsspec.obj
 0001:00023b20       ?allocate@?$allocator@U_Container_proxy@std@@@std@@QAEPAU_Container_proxy@2@I@Z 00424b20 f i windowsspec.obj
 0001:00023b50       ?assign@?$basic_string@DU?$char_traits@D@std@@V?$allocator@D@2@@std@@QAEAAV12@ABV12@II@Z 00424b50 f i windowsspec.obj
 0001:00023c20       ?assign@?$basic_string@DU?$char_traits@D@std@@V?$allocator@D@2@@std@@QAEAAV12@PBD@Z 00424c20 f i windowsspec.obj
 0001:00023c70       ?assign@?$basic_string@DU?$char_traits@D@std@@V?$allocator@D@2@@std@@QAEAAV12@PBDI@Z 00424c70 f i windowsspec.obj
 0001:00023d20       ?assign@?$char_traits@D@std@@SAXAADABD@Z 00424d20 f i windowsspec.obj
 0001:00023d30       ?category@error_code@std@@QBEABVerror_category@2@XZ 00424d30 f i windowsspec.obj
 0001:00023d50       ?category@error_condition@std@@QBEABVerror_category@2@XZ 00424d50 f i windowsspec.obj
 0001:00023d70       ?copy@?$char_traits@D@std@@SAPADPADPBDI@Z 00424d70 f i windowsspec.obj
 0001:00023dc0       ?deallocate@?$_Wrap_alloc@V?$allocator@D@std@@@std@@QAEXPADI@Z 00424dc0 f i windowsspec.obj
 0001:00023df0       ?deallocate@?$allocator@D@std@@QAEXPADI@Z 00424df0 f i windowsspec.obj
 0001:00023e20       ?deallocate@?$allocator@U_Container_proxy@std@@@std@@QAEXPAU_Container_proxy@2@I@Z 00424e20 f i windowsspec.obj
 0001:00023e50       ?default_error_condition@_System_error_category@std@@UBE?AVerror_condition@2@H@Z 00424e50 f i windowsspec.obj
 0001:00023eb0       ?default_error_condition@error_category@std@@UBE?AVerror_condition@2@H@Z 00424eb0 f i windowsspec.obj
 0001:00023ef0       ?equivalent@error_category@std@@UBE_NABVerror_code@2@H@Z 00424ef0 f i windowsspec.obj
 0001:00023f50       ?equivalent@error_category@std@@UBE_NHABVerror_condition@2@@Z 00424f50 f i windowsspec.obj
 0001:00023fb0       ?erase@?$basic_string@DU?$char_traits@D@std@@V?$allocator@D@2@@std@@QAEAAV12@I@Z 00424fb0 f i windowsspec.obj
 0001:00023ff0       ?erase@?$basic_string@DU?$char_traits@D@std@@V?$allocator@D@2@@std@@QAEAAV12@II@Z 00424ff0 f i windowsspec.obj
 0001:000240a0       ?generic_category@std@@YAABVerror_category@1@XZ 004250a0 f i windowsspec.obj
 0001:000240b0       ?length@?$char_traits@D@std@@SAIPBD@Z 004250b0 f i windowsspec.obj
 0001:000240f0       ?max_size@?$_Wrap_alloc@V?$allocator@D@std@@@std@@QBEIXZ 004250f0 f i windowsspec.obj
 0001:00024120       ?max_size@?$allocator@D@std@@QBEIXZ 00425120 f i windowsspec.obj
 0001:00024140       ?max_size@?$allocator_traits@V?$allocator@D@std@@@std@@SAIABV?$allocator@D@2@@Z 00425140 f i windowsspec.obj
 0001:00024160       ?max_size@?$basic_string@DU?$char_traits@D@std@@V?$allocator@D@2@@std@@QBEIXZ 00425160 f i windowsspec.obj
 0001:000241c0       ?message@_Generic_error_category@std@@UBE?AV?$basic_string@DU?$char_traits@D@std@@V?$allocator@D@2@@2@H@Z 004251c0 f i windowsspec.obj
 0001:00024230       ?message@_Iostream_error_category@std@@UBE?AV?$basic_string@DU?$char_traits@D@std@@V?$allocator@D@2@@2@H@Z 00425230 f i windowsspec.obj
 0001:000242a0       ?message@_System_error_category@std@@UBE?AV?$basic_string@DU?$char_traits@D@std@@V?$allocator@D@2@@2@H@Z 004252a0 f i windowsspec.obj
 0001:00024310       ?move@?$char_traits@D@std@@SAPADPADPBDI@Z 00425310 f i windowsspec.obj
 0001:00024360       ?name@_Generic_error_category@std@@UBEPBDXZ 00425360 f i windowsspec.obj
 0001:00024380       ?name@_Iostream_error_category@std@@UBEPBDXZ 00425380 f i windowsspec.obj
 0001:000243a0       ?name@_System_error_category@std@@UBEPBDXZ 004253a0 f i windowsspec.obj
 0001:000243c0       ?size@?$basic_string@DU?$char_traits@D@std@@V?$allocator@D@2@@std@@QBEIXZ 004253c0 f i windowsspec.obj
 0001:000243e0       ?system_category@std@@YAABVerror_category@1@XZ 004253e0 f i windowsspec.obj
 0001:000243f0       ?value@error_code@std@@QBEHXZ 004253f0 f i windowsspec.obj
 0001:00024410       ?value@error_condition@std@@QBEHXZ 00425410 f i windowsspec.obj
 0001:00024428       ?GfImgReadPng@@YAPAEPBDPAH1M@Z 00425428 f   client:client.dll
 0001:0002442e       ?GfImgWritePng@@YAHPAEPBDHH@Z 0042542e f   client:client.dll
 0001:00024434       _ssggraph                  00425434 f   client:client.dll
 0001:0002443a       ?RtTrackGetWidth@@YAMPAUtrackSeg@@M@Z 0042543a f   robottools:robottools.dll
 0001:00024440       ?RtTrackLocal2Global@@YAXPAUtTrkLocPos@@PAM1H@Z 00425440 f   robottools:robottools.dll
 0001:00024446       ?RtTrackHeightL@@YAMPAUtTrkLocPos@@@Z 00425446 f   robottools:robottools.dll
 0001:0002444c       ?RtTrackHeightG@@YAMPAUtrackSeg@@MM@Z 0042544c f   robottools:robottools.dll
 0001:00024452       ?RtTrackSideNormalG@@YAXPAUtrackSeg@@MMHPAUt3Dd@@@Z 00425452 f   robottools:robottools.dll
 0001:00024460       ?sgdSqrt@@YANN@Z           00425460 f i sg_vs2008_32:sgd.obj
 0001:00024470       ?sgdSquare@@YANN@Z         00425470 f i sg_vs2008_32:sgd.obj
 0001:00024480       ?sgdAbs@@YANN@Z            00425480 f i sg_vs2008_32:sgd.obj
 0001:000244a0       ?sgdASin@@YANN@Z           004254a0 f i sg_vs2008_32:sgd.obj
 0001:000244b0       ?sgdACos@@YANN@Z           004254b0 f i sg_vs2008_32:sgd.obj
 0001:000244c0       ?sgdATan2@@YANNN@Z         004254c0 f i sg_vs2008_32:sgd.obj
 0001:000244e0       ?sgdSin@@YANN@Z            004254e0 f i sg_vs2008_32:sgd.obj
 0001:000244f0       ?sgdCos@@YANN@Z            004254f0 f i sg_vs2008_32:sgd.obj
 0001:00024500       ?sgdZeroVec3@@YAXQAN@Z     00425500 f i sg_vs2008_32:sgd.obj
 0001:00024510       ?sgdSetVec3@@YAXQANNNN@Z   00425510 f i sg_vs2008_32:sgd.obj
 0001:00024530       ?sgdSetVec4@@YAXQANNNNN@Z  00425530 f i sg_vs2008_32:sgd.obj
 0001:00024550       ?sgdCopyVec3@@YAXQANQBN@Z  00425550 f i sg_vs2008_32:sgd.obj
 0001:00024570       ?sgdCopyVec4@@YAXQANQBN@Z  00425570 f i sg_vs2008_32:sgd.obj
 0001:00024590       ?sgdAddVec3@@YAXQANQBN1@Z  00425590 f i sg_vs2008_32:sgd.obj
 0001:000245c0       ?sgdSubVec2@@YAXQANQBN1@Z  004255c0 f i sg_vs2008_32:sgd.obj
 0001:000245e0       ?sgdSubVec3@@YAXQANQBN1@Z  004255e0 f i sg_vs2008_32:sgd.obj
 0001:00024610       ?sgdNegateVec3@@YAXQAN@Z   00425610 f i sg_vs2008_32:sgd.obj
 0001:00024630       ?sgdScaleVec2@@YAXQANN@Z   00425630 f i sg_vs2008_32:sgd.obj
 0001:00024650       ?sgdScaleVec3@@YAXQANN@Z   00425650 f i sg_vs2008_32:sgd.obj
 0001:00024670       ?sgdScaleVec3@@YAXQANQBNN@Z 00425670 f i sg_vs2008_32:sgd.obj
 0001:000246a0       ?sgdScaleVec4@@YAXQANQBNN@Z 004256a0 f i sg_vs2008_32:sgd.obj
 0001:000246d0       ?sgdAddScaledVec3@@YAXQANQBN1N@Z 004256d0 f i sg_vs2008_32:sgd.obj
 0001:00024700       ?sgdScalarProductVec2@@YANQBN0@Z 00425700 f i sg_vs2008_32:sgd.obj
 0001:00024720       ?sgdScalarProductVec3@@YANQBN0@Z 00425720 f i sg_vs2008_32:sgd.obj
 0001:00024740       ?sgdScalarProductVec4@@YANQBN0@Z 00425740 f i sg_vs2008_32:sgd.obj
 0001:00024770       ?sgdDistanceSquaredVec3@@YANQBN0@Z 00425770 f i sg_vs2008_32:sgd.obj
 0001:000247a0       ?sgdDistanceVec3@@YANQBN0@Z 004257a0 f i sg_vs2008_32:sgd.obj
 0001:000247d0       ?sgdLengthVec2@@YANQBN@Z   004257d0 f i sg_vs2008_32:sgd.obj
 0001:000247f0       ?sgdLengthVec3@@YANQBN@Z   004257f0 f i sg_vs2008_32:sgd.obj
 0001:00024820       ?sgdNormaliseVec2@@YAXQAN@Z 00425820 f i sg_vs2008_32:sgd.obj
 0001:00024850       ?sgdNormaliseVec3@@YAXQAN@Z 00425850 f i sg_vs2008_32:sgd.obj
 0001:00024890       ?sgdNormaliseVec3@@YAXQANQBN@Z 00425890 f i sg_vs2008_32:sgd.obj
 0001:000248d0       ?sgdCopyMat4@@YAXQAY03NQAY03$$CBN@Z 004258d0 f i sg_vs2008_32:sgd.obj
 0001:00024940       ?sgdScaleMat4@@YAXQAY03NQAY03$$CBNN@Z 00425940 f i sg_vs2008_32:sgd.obj
 0001:000249d0       ?sgdMakeIdentMat4@@YAXQAY03N@Z 004259d0 f i sg_vs2008_32:sgd.obj
 0001:00024a10       ?sgdLineSegment3ToLine3@@YAXPAUsgdLine3@@UsgdLineSegment3@@@Z 00425a10 f i sg_vs2008_32:sgd.obj
 0001:00024a80       ?sgdAngleBetweenNormalizedVec3@@YANQAN0@Z 00425a80 f i sg_vs2008_32:sgd.obj
 0001:00024af0       ?getCenter@sgdSphere@@QBEPBNXZ 00425af0 f i sg_vs2008_32:sgd.obj
 0001:00024b00       ?getRadius@sgdSphere@@QBENXZ 00425b00 f i sg_vs2008_32:sgd.obj
 0001:00024b10       ?isEmpty@sgdSphere@@QBEHXZ 00425b10 f i sg_vs2008_32:sgd.obj
 0001:00024b30       ?getMin@sgdBox@@QBEPBNXZ   00425b30 f i sg_vs2008_32:sgd.obj
 0001:00024b40       ?getMax@sgdBox@@QBEPBNXZ   00425b40 f i sg_vs2008_32:sgd.obj
 0001:00024b50       ?isEmpty@sgdBox@@QBEHXZ    00425b50 f i sg_vs2008_32:sgd.obj
 0001:00024b80       ?sgdVectorProductVec3@@YAXQANQBN1@Z 00425b80 f   sg_vs2008_32:sgd.obj
 0001:00024bc0       ?_sgdClampToUnity@@YANN@Z  00425bc0 f i sg_vs2008_32:sgd.obj
 0001:00024bf0       ?sgdCompare3DSqdDist@@YAHQBN0N@Z 00425bf0 f   sg_vs2008_32:sgd.obj
 0001:00024c50       ?sgdMakeRotMat4@@YAXQAY03NNQBN@Z 00425c50 f   sg_vs2008_32:sgd.obj
 0001:00024d80       ?sgdMakePickMatrix@@YAXQAY03NNNNNQAN@Z 00425d80 f   sg_vs2008_32:sgd.obj
 0001:00024e00       ?sgdMakeLookAtMat4@@YAXQAY03NQBN11@Z 00425e00 f   sg_vs2008_32:sgd.obj
 0001:00024f80       ?sgdAngleBetweenVec3@@YANQAN0@Z 00425f80 f   sg_vs2008_32:sgd.obj
 0001:00025020       ?sgdAngleBetweenNormalizedVec3@@YANQAN00@Z 00426020 f   sg_vs2008_32:sgd.obj
 0001:000251b0       ?sgdAngleBetweenVec3@@YANQAN00@Z 004261b0 f   sg_vs2008_32:sgd.obj
 0001:00025250       ?extend@sgdBox@@QAEXQBN@Z  00426250 f   sg_vs2008_32:sgd.obj
 0001:00025320       ?extend@sgdBox@@QAEXPBV1@@Z 00426320 f   sg_vs2008_32:sgd.obj
 0001:000253b0       ?extend@sgdBox@@QAEXPBVsgdSphere@@@Z 004263b0 f   sg_vs2008_32:sgd.obj
 0001:00025420       ?intersects@sgdBox@@QBEHQBN@Z 00426420 f   sg_vs2008_32:sgd.obj
 0001:00025560       ?extend@sgdSphere@@QAEXQBN@Z 00426560 f   sg_vs2008_32:sgd.obj
 0001:00025610       ?extend@sgdSphere@@QAEXPBVsgdBox@@@Z 00426610 f   sg_vs2008_32:sgd.obj
 0001:000257a0       ?extend@sgdSphere@@QAEXPBV1@@Z 004267a0 f   sg_vs2008_32:sgd.obj
 0001:00025870       ?intersects@sgdSphere@@QBEHPBVsgdBox@@@Z 00426870 f   sg_vs2008_32:sgd.obj
 0001:00025920       ?update@sgdFrustum@@AAEXXZ 00426920 f   sg_vs2008_32:sgd.obj
 0001:00025d20       ?contains@sgdFrustum@@QBEHPBVsgdSphere@@@Z 00426d20 f   sg_vs2008_32:sgd.obj
 0001:00025e90       ?sgdDistSquaredToLineVec3@@YANUsgdLine3@@QBN@Z 00426e90 f   sg_vs2008_32:sgd.obj
 0001:00025ed0       ?sgdDistSquaredToLineSegmentVec3@@YANUsgdLineSegment3@@QBN@Z 00426ed0 f   sg_vs2008_32:sgd.obj
 0001:00025fe0       ?sgdMakeCoordMat4@@YAXQAY03NNNNNNN@Z 00426fe0 f   sg_vs2008_32:sgd.obj
 0001:000261a0       ?sgdMakeTransMat4@@YAXQAY03NQBN@Z 004271a0 f   sg_vs2008_32:sgd.obj
 0001:000261f0       ?sgdMakeTransMat4@@YAXQAY03NNNN@Z 004271f0 f   sg_vs2008_32:sgd.obj
 0001:00026240       ?sgdSetCoord@@YAXPAUsgdCoord@@QAY03$$CBN@Z 00427240 f   sg_vs2008_32:sgd.obj
 0001:00026540       ?sgdMakeNormal@@YAXQANQBN1@Z 00427540 f   sg_vs2008_32:sgd.obj
 0001:00026590       ?sgdMakeNormal@@YAXQANQBN11@Z 00427590 f   sg_vs2008_32:sgd.obj
 0001:00026630       ?sgdMultMat4@@YAXQAY03NQAY03$$CBN1@Z 00427630 f   sg_vs2008_32:sgd.obj
 0001:000266e0       ?sgdTransposeNegateMat4@@YAXQAY03NQAY03$$CBN@Z 004276e0 f   sg_vs2008_32:sgd.obj
 0001:00026780       ?sgdTransposeNegateMat4@@YAXQAY03N@Z 00427780 f   sg_vs2008_32:sgd.obj
 0001:000267b0       ?sgdInvertMat4@@YAXQAY03NQAY03$$CBN@Z 004277b0 f   sg_vs2008_32:sgd.obj
 0001:000269d0       ?sgdXformVec3@@YAXQANQBNQAY03$$CBN@Z 004279d0 f   sg_vs2008_32:sgd.obj
 0001:00026a30       ?sgdXformPnt3@@YAXQANQBNQAY03$$CBN@Z 00427a30 f   sg_vs2008_32:sgd.obj
 0001:00026a90       ?sgdXformPnt4@@YAXQANQBNQAY03$$CBN@Z 00427a90 f   sg_vs2008_32:sgd.obj
 0001:00026b20       ?sgdFullXformPnt3@@YAXQANQBNQAY03$$CBN@Z 00427b20 f   sg_vs2008_32:sgd.obj
 0001:00026b80       ?sgdHPRfromVec3@@YAXQAN0@Z 00427b80 f   sg_vs2008_32:sgd.obj
 0001:00026c20       ?sgdQuatToAngleAxis@@YAXPANQANQBN@Z 00427c20 f   sg_vs2008_32:sgd.obj
 0001:00026ca0       ?sgdAngleAxisToQuat@@YAXQANNQBN@Z 00427ca0 f   sg_vs2008_32:sgd.obj
 0001:00026d40       ?sgdMatrixToQuat@@YAXQANQAY03$$CBN@Z 00427d40 f   sg_vs2008_32:sgd.obj
 0001:00026ea0       ?sgdMultQuat@@YAXQANQBN1@Z 00427ea0 f   sg_vs2008_32:sgd.obj
 0001:00026f70       ?sgdMultQuat2@@YAXQANQBN1@Z 00427f70 f   sg_vs2008_32:sgd.obj
 0001:00027040       ?sgdEulerToQuat@@YAXQANQBN@Z 00428040 f   sg_vs2008_32:sgd.obj
 0001:00027130       ?sgdQuatToEuler@@YAXQANQBN@Z 00428130 f   sg_vs2008_32:sgd.obj
 0001:00027290       ?sgdQuatToMatrix@@YAXQAY03NQBN@Z 00428290 f   sg_vs2008_32:sgd.obj
 0001:00027360       ?sgdMakeRotMat42@@YAXQAY03NQAN@Z 00428360 f   sg_vs2008_32:sgd.obj
 0001:00027430       ?sgdSlerpQuat2@@YAXQANQBN1N@Z 00428430 f   sg_vs2008_32:sgd.obj
 0001:00027550       ?sgdSlerpQuat@@YAXQANQBN1N@Z 00428550 f   sg_vs2008_32:sgd.obj
 0001:00027640       ?sgdRotateVecQuat@@YAXQAN0@Z 00428640 f   sg_vs2008_32:sgd.obj
 0001:00027730       ?sgdRotateCoordQuat@@YAXQAN0@Z 00428730 f   sg_vs2008_32:sgd.obj
 0001:00027820       ?sgdDistSquaredToLineLineSegment@@YANUsgdLineSegment3@@UsgdLine3@@@Z 00428820 f   sg_vs2008_32:sgd.obj
 0001:00027a30       ?sgdReflectInPlaneVec3@@YAXQANQBN1@Z 00428a30 f   sg_vs2008_32:sgd.obj
 0001:00027a80       ?sgdClassifyMat4@@YAHQAY03$$CBN@Z 00428a80 f   sg_vs2008_32:sgd.obj
 0001:00027d40       ?sgdTriangleSolver_SAStoArea@@YANNNN@Z 00428d40 f   sg_vs2008_32:sgd.obj
 0001:00027d60       ?sgdTriangleSolver_SSStoArea@@YANNNN@Z 00428d60 f   sg_vs2008_32:sgd.obj
 0001:00027db0       ?sgdTriangleSolver_SSStoAAA@@YAXNNNPAN00@Z 00428db0 f   sg_vs2008_32:sgd.obj
 0001:00027f50       ?sgdTriangleSolver_SAStoASA@@YAXNNNPAN00@Z 00428f50 f   sg_vs2008_32:sgd.obj
 0001:00027fd0       ?sgdTriangleSolver_ASAtoSAS@@YAXNNNPAN00@Z 00428fd0 f   sg_vs2008_32:sgd.obj
 0001:00028080       ?sgdTriangleSolver_ASStoSAA@@YAXNNNHPAN00@Z 00429080 f   sg_vs2008_32:sgd.obj
 0001:00028110       ?sgdTriangleSolver_SAAtoASS@@YAXNNNPAN00@Z 00429110 f   sg_vs2008_32:sgd.obj
 0001:00028160       ?sgdTriArea@@YANQAN00@Z    00429160 f   sg_vs2008_32:sgd.obj
 0001:00028240       ?getOutcode@sgdFrustum@@ABEHQBN@Z 00429240 f   sg_vs2008_32:sgd.obj
 0001:00028320       ?contains@sgdFrustum@@QBEHQBN@Z 00429320 f   sg_vs2008_32:sgd.obj
 0001:00028340       ?contains@sgdFrustum@@QBEHPBVsgdBox@@@Z 00429340 f   sg_vs2008_32:sgd.obj
 0001:00028460       ?sgdPreMultMat4@@YAXQAY03NQAY03$$CBN@Z 00429460 f   sg_vs2008_32:sgd.obj
 0001:000284a0       ?sgdPostMultMat4@@YAXQAY03NQAY03$$CBN@Z 004294a0 f   sg_vs2008_32:sgd.obj
 0001:000284e0       ?sgdQuatToAngleAxis@@YAXPAN000QBN@Z 004294e0 f   sg_vs2008_32:sgd.obj
 0001:00028520       ?sgdAngleAxisToQuat@@YAXQANNNNN@Z 00429520 f   sg_vs2008_32:sgd.obj
 0001:00028560       ?sgdTriangleSolver_ASAtoArea@@YANNNN@Z 00429560 f   sg_vs2008_32:sgd.obj
 0001:000285d0       ?sgdTriangleSolver_ASStoArea@@YANNNNH@Z 004295d0 f   sg_vs2008_32:sgd.obj
 0001:00028630       ?sgdTriangleSolver_SAAtoArea@@YANNNN@Z 00429630 f   sg_vs2008_32:sgd.obj
 0001:00028690       _fabsf                     00429690 f i sg_vs2008_32:sg.obj
 0001:000286a0       _acosf                     004296a0 f i sg_vs2008_32:sg.obj
 0001:000286c0       _asinf                     004296c0 f i sg_vs2008_32:sg.obj
 0001:000286e0       _atan2f                    004296e0 f i sg_vs2008_32:sg.obj
 0001:00028700       _sqrtf                     00429700 f i sg_vs2008_32:sg.obj
 0001:00028720       _tanf                      00429720 f i sg_vs2008_32:sg.obj
 0001:00028740       ?acos@@YAMM@Z              00429740 f i sg_vs2008_32:sg.obj
 0001:00028760       ?asin@@YAMM@Z              00429760 f i sg_vs2008_32:sg.obj
 0001:00028780       ?atan2@@YAMMM@Z            00429780 f i sg_vs2008_32:sg.obj
 0001:000287a0       ?fabs@@YAMM@Z              004297a0 f i sg_vs2008_32:sg.obj
 0001:000287b0       ?sqrt@@YAMM@Z              004297b0 f i sg_vs2008_32:sg.obj
 0001:000287d0       ?tan@@YAMM@Z               004297d0 f i sg_vs2008_32:sg.obj
 0001:000287f0       ?sgSqrt@@YAMM@Z            004297f0 f i sg_vs2008_32:sg.obj
 0001:00028810       ?sgSquare@@YAMM@Z          00429810 f i sg_vs2008_32:sg.obj
 0001:00028820       ?sgAbs@@YAMM@Z             00429820 f i sg_vs2008_32:sg.obj
 0001:00028840       ?sgASin@@YAMM@Z            00429840 f i sg_vs2008_32:sg.obj
 0001:00028860       ?sgACos@@YAMM@Z            00429860 f i sg_vs2008_32:sg.obj
 0001:00028880       ?sgATan2@@YAMMM@Z          00429880 f i sg_vs2008_32:sg.obj
 0001:000288b0       ?sgSin@@YAMM@Z             004298b0 f i sg_vs2008_32:sg.obj
 0001:000288d0       ?sgCos@@YAMM@Z             004298d0 f i sg_vs2008_32:sg.obj
 0001:000288f0       ?sgZeroVec3@@YAXQAM@Z      004298f0 f i sg_vs2008_32:sg.obj
 0001:00028900       ?sgSetVec3@@YAXQAMMMM@Z    00429900 f i sg_vs2008_32:sg.obj
 0001:00028920       ?sgCopyVec4@@YAXQAMQBM@Z   00429920 f i sg_vs2008_32:sg.obj
 0001:00028940       ?sgAddVec3@@YAXQAMQBM1@Z   00429940 f i sg_vs2008_32:sg.obj
 0001:00028970       ?sgSubVec2@@YAXQAMQBM1@Z   00429970 f i sg_vs2008_32:sg.obj
 0001:00028990       ?sgSubVec3@@YAXQAMQBM1@Z   00429990 f i sg_vs2008_32:sg.obj
 0001:000289c0       ?sgNegateVec3@@YAXQAM@Z    004299c0 f i sg_vs2008_32:sg.obj
 0001:000289e0       ?sgScaleVec2@@YAXQAMM@Z    004299e0 f i sg_vs2008_32:sg.obj
 0001:00028a00       ?sgScaleVec3@@YAXQAMM@Z    00429a00 f i sg_vs2008_32:sg.obj
 0001:00028a30       ?sgScaleVec3@@YAXQAMQBMM@Z 00429a30 f i sg_vs2008_32:sg.obj
 0001:00028a60       ?sgScaleVec4@@YAXQAMQBMM@Z 00429a60 f i sg_vs2008_32:sg.obj
 0001:00028a90       ?sgAddScaledVec3@@YAXQAMQBM1M@Z 00429a90 f i sg_vs2008_32:sg.obj
 0001:00028ad0       ?sgScalarProductVec2@@YAMQBM0@Z 00429ad0 f i sg_vs2008_32:sg.obj
 0001:00028af0       ?sgScalarProductVec3@@YAMQBM0@Z 00429af0 f i sg_vs2008_32:sg.obj
 0001:00028b20       ?sgScalarProductVec4@@YAMQBM0@Z 00429b20 f i sg_vs2008_32:sg.obj
 0001:00028b50       ?sgDistanceSquaredVec3@@YAMQBM0@Z 00429b50 f i sg_vs2008_32:sg.obj
 0001:00028bc0       ?sgDistanceVec3@@YAMQBM0@Z 00429bc0 f i sg_vs2008_32:sg.obj
 0001:00028c30       ?sgLengthVec2@@YAMQBM@Z    00429c30 f i sg_vs2008_32:sg.obj
 0001:00028c60       ?sgLengthVec3@@YAMQBM@Z    00429c60 f i sg_vs2008_32:sg.obj
 0001:00028ca0       ?sgNormaliseVec2@@YAXQAM@Z 00429ca0 f i sg_vs2008_32:sg.obj
 0001:00028cf0       ?sgNormaliseVec3@@YAXQAM@Z 00429cf0 f i sg_vs2008_32:sg.obj
 0001:00028d50       ?sgNormaliseVec3@@YAXQAMQBM@Z 00429d50 f i sg_vs2008_32:sg.obj
 0001:00028db0       ?sgCopyMat4@@YAXQAY03MQAY03$$CBM@Z 00429db0 f i sg_vs2008_32:sg.obj
 0001:00028e20       ?sgScaleMat4@@YAXQAY03MQAY03$$CBMM@Z 00429e20 f i sg_vs2008_32:sg.obj
 0001:00028eb0       ?sgLineSegment3ToLine3@@YAXPAUsgLine3@@UsgLineSegment3@@@Z 00429eb0 f i sg_vs2008_32:sg.obj
 0001:00028ef0       ?sgAngleBetweenNormalizedVec3@@YAMQAM0@Z 00429ef0 f i sg_vs2008_32:sg.obj
 0001:00028f60       ?getRadius@sgSphere@@QBEMXZ 00429f60 f i sg_vs2008_32:sg.obj
 0001:00028f70       ?isEmpty@sgSphere@@QBEHXZ  00429f70 f i sg_vs2008_32:sg.obj
 0001:00028f90       ?getMin@sgBox@@QBEPBMXZ    00429f90 f i sg_vs2008_32:sg.obj
 0001:00028fa0       ?getMax@sgBox@@QBEPBMXZ    00429fa0 f i sg_vs2008_32:sg.obj
 0001:00028fb0       ?isEmpty@sgBox@@QBEHXZ     00429fb0 f i sg_vs2008_32:sg.obj
 0001:00028ff0       ?sgVectorProductVec3@@YAXQAMQBM1@Z 00429ff0 f   sg_vs2008_32:sg.obj
 0001:00029030       ?_sgClampToUnity@@YAMM@Z   0042a030 f i sg_vs2008_32:sg.obj
 0001:00029060       ?sgCompare3DSqdDist@@YAHQBM0M@Z 0042a060 f   sg_vs2008_32:sg.obj
 0001:000290e0       ?sgMakeRotMat4@@YAXQAY03MMQBM@Z 0042a0e0 f   sg_vs2008_32:sg.obj
 0001:000291f0       ?sgMakePickMatrix@@YAXQAY03MMMMMQAM@Z 0042a1f0 f   sg_vs2008_32:sg.obj
 0001:00029290       ?sgMakeLookAtMat4@@YAXQAY03MQBM11@Z 0042a290 f   sg_vs2008_32:sg.obj
 0001:00029480       ?sgAngleBetweenVec3@@YAMQAM0@Z 0042a480 f   sg_vs2008_32:sg.obj
 0001:000294c0       ?sgAngleBetweenNormalizedVec3@@YAMQAM00@Z 0042a4c0 f   sg_vs2008_32:sg.obj
 0001:000296b0       ?sgAngleBetweenVec3@@YAMQAM00@Z 0042a6b0 f   sg_vs2008_32:sg.obj
 0001:000296f0       ?extend@sgBox@@QAEXQBM@Z   0042a6f0 f   sg_vs2008_32:sg.obj
 0001:000297d0       ?extend@sgBox@@QAEXPBV1@@Z 0042a7d0 f   sg_vs2008_32:sg.obj
 0001:00029870       ?extend@sgBox@@QAEXPBVsgSphere@@@Z 0042a870 f   sg_vs2008_32:sg.obj
 0001:000298e0       ?intersects@sgBox@@QBEHQBM@Z 0042a8e0 f   sg_vs2008_32:sg.obj
 0001:00029a40       ?extend@sgSphere@@QAEXQBM@Z 0042aa40 f   sg_vs2008_32:sg.obj
 0001:00029af0       ?extend@sgSphere@@QAEXPBVsgBox@@@Z 0042aaf0 f   sg_vs2008_32:sg.obj
 0001:00029c70       ?extend@sgSphere@@QAEXPBV1@@Z 0042ac70 f   sg_vs2008_32:sg.obj
 0001:00029d50       ?intersects@sgSphere@@QBEHPBVsgBox@@@Z 0042ad50 f   sg_vs2008_32:sg.obj
 0001:00029e20       ?update@sgFrustum@@AAEXXZ  0042ae20 f   sg_vs2008_32:sg.obj
 0001:0002a240       ?contains@sgFrustum@@QBEHPBVsgSphere@@@Z 0042b240 f   sg_vs2008_32:sg.obj
 0001:0002a3e0       ?sgDistSquaredToLineVec3@@YAMUsgLine3@@QBM@Z 0042b3e0 f   sg_vs2008_32:sg.obj
 0001:0002a470       ?sgDistSquaredToLineSegmentVec3@@YAMUsgLineSegment3@@QBM@Z 0042b470 f   sg_vs2008_32:sg.obj
 0001:0002a600       ?sgMakeCoordMat4@@YAXQAY03MMMMMMM@Z 0042b600 f   sg_vs2008_32:sg.obj
 0001:0002a7f0       ?sgMakeTransMat4@@YAXQAY03MQBM@Z 0042b7f0 f   sg_vs2008_32:sg.obj
 0001:0002a840       ?sgMakeTransMat4@@YAXQAY03MMMM@Z 0042b840 f   sg_vs2008_32:sg.obj
 0001:0002a890       ?sgSetCoord@@YAXPAUsgCoord@@QAY03$$CBM@Z 0042b890 f   sg_vs2008_32:sg.obj
 0001:0002ac50       ?sgMakeNormal@@YAXQAMQBM1@Z 0042bc50 f   sg_vs2008_32:sg.obj
 0001:0002acd0       ?sgMakeNormal@@YAXQAMQBM11@Z 0042bcd0 f   sg_vs2008_32:sg.obj
 0001:0002ad40       ?sgMultMat4@@YAXQAY03MQAY03$$CBM1@Z 0042bd40 f   sg_vs2008_32:sg.obj
 0001:0002adf0       ?sgTransposeNegateMat4@@YAXQAY03MQAY03$$CBM@Z 0042bdf0 f   sg_vs2008_32:sg.obj
 0001:0002aeb0       ?sgTransposeNegateMat4@@YAXQAY03M@Z 0042beb0 f   sg_vs2008_32:sg.obj
 0001:0002aee0       ?sgInvertMat4@@YAXQAY03MQAY03$$CBM@Z 0042bee0 f   sg_vs2008_32:sg.obj
 0001:0002b130       ?sgXformVec3@@YAXQAMQBMQAY03$$CBM@Z 0042c130 f   sg_vs2008_32:sg.obj
 0001:0002b1b0       ?sgXformPnt3@@YAXQAMQBMQAY03$$CBM@Z 0042c1b0 f   sg_vs2008_32:sg.obj
 0001:0002b240       ?sgXformPnt4@@YAXQAMQBMQAY03$$CBM@Z 0042c240 f   sg_vs2008_32:sg.obj
 0001:0002b300       ?sgFullXformPnt3@@YAXQAMQBMQAY03$$CBM@Z 0042c300 f   sg_vs2008_32:sg.obj
 0001:0002b370       ?sgHPRfromVec3@@YAXQAMQBM@Z 0042c370 f   sg_vs2008_32:sg.obj
 0001:0002b470       ?sgQuatToAngleAxis@@YAXPAMQAMQBM@Z 0042c470 f   sg_vs2008_32:sg.obj
 0001:0002b520       ?sgAngleAxisToQuat@@YAXQAMMQBM@Z 0042c520 f   sg_vs2008_32:sg.obj
 0001:0002b5a0       ?sgMatrixToQuat@@YAXQAMQAY03$$CBM@Z 0042c5a0 f   sg_vs2008_32:sg.obj
 0001:0002b750       ?sgMultQuat@@YAXQAMQBM1@Z  0042c750 f   sg_vs2008_32:sg.obj
 0001:0002b860       ?sgMultQuat2@@YAXQAMQBM1@Z 0042c860 f   sg_vs2008_32:sg.obj
 0001:0002b970       ?sgEulerToQuat@@YAXQAMQBM@Z 0042c970 f   sg_vs2008_32:sg.obj
 0001:0002bab0       ?sgQuatToEuler@@YAXQAMQBM@Z 0042cab0 f   sg_vs2008_32:sg.obj
 0001:0002bc90       ?sgQuatToMatrix@@YAXQAY03MQBM@Z 0042cc90 f   sg_vs2008_32:sg.obj
 0001:0002bd90       ?sgMakeRotMat42@@YAXQAY03MQAM@Z 0042cd90 f   sg_vs2008_32:sg.obj
 0001:0002bec0       ?sgSlerpQuat2@@YAXQAMQBM1M@Z 0042cec0 f   sg_vs2008_32:sg.obj
 0001:0002c040       ?sgSlerpQuat@@YAXQAMQBM1M@Z 0042d040 f   sg_vs2008_32:sg.obj
 0001:0002c180       ?sgRotateVecQuat@@YAXQAM0@Z 0042d180 f   sg_vs2008_32:sg.obj
 0001:0002c2b0       ?sgRotateCoordQuat@@YAXQAM0@Z 0042d2b0 f   sg_vs2008_32:sg.obj
 0001:0002c3e0       ?sgDistSquaredToLineLineSegment@@YAMUsgLineSegment3@@UsgLine3@@@Z 0042d3e0 f   sg_vs2008_32:sg.obj
 0001:0002c6a0       ?sgReflectInPlaneVec3@@YAXQAMQBM1@Z 0042d6a0 f   sg_vs2008_32:sg.obj
 0001:0002c710       ?sgClassifyMat4@@YAHQAY03$$CBM@Z 0042d710 f   sg_vs2008_32:sg.obj
 0001:0002ca40       ?sgTriangleSolver_SAStoArea@@YAMMMM@Z 0042da40 f   sg_vs2008_32:sg.obj
 0001:0002ca80       ?sgTriangleSolver_SSStoArea@@YAMMMM@Z 0042da80 f   sg_vs2008_32:sg.obj
 0001:0002cb00       ?sgTriangleSolver_SSStoAAA@@YAXMMMPAM00@Z 0042db00 f   sg_vs2008_32:sg.obj
 0001:0002ccd0       ?sgTriangleSolver_SAStoASA@@YAXMMMPAM00@Z 0042dcd0 f   sg_vs2008_32:sg.obj
 0001:0002cd80       ?sgTriangleSolver_ASAtoSAS@@YAXMMMPAM00@Z 0042dd80 f   sg_vs2008_32:sg.obj
 0001:0002ce60       ?sgTriangleSolver_ASStoSAA@@YAXMMMHPAM00@Z 0042de60 f   sg_vs2008_32:sg.obj
 0001:0002cf10       ?sgTriangleSolver_SAAtoASS@@YAXMMMPAM00@Z 0042df10 f   sg_vs2008_32:sg.obj
 0001:0002cf60       ?sgTriArea@@YAMQAM00@Z     0042df60 f   sg_vs2008_32:sg.obj
 0001:0002d090       ?getOutcode@sgFrustum@@ABEHQBM@Z 0042e090 f   sg_vs2008_32:sg.obj
 0001:0002d180       ?contains@sgFrustum@@QBEHQBM@Z 0042e180 f   sg_vs2008_32:sg.obj
 0001:0002d1a0       ?contains@sgFrustum@@QBEHPBVsgBox@@@Z 0042e1a0 f   sg_vs2008_32:sg.obj
 0001:0002d290       ?sgPreMultMat4@@YAXQAY03MQAY03$$CBM@Z 0042e290 f   sg_vs2008_32:sg.obj
 0001:0002d2c0       ?sgPostMultMat4@@YAXQAY03MQAY03$$CBM@Z 0042e2c0 f   sg_vs2008_32:sg.obj
 0001:0002d2f0       ?sgQuatToAngleAxis@@YAXPAM000QBM@Z 0042e2f0 f   sg_vs2008_32:sg.obj
 0001:0002d330       ?sgAngleAxisToQuat@@YAXQAMMMMM@Z 0042e330 f   sg_vs2008_32:sg.obj
 0001:0002d370       ?sgTriangleSolver_ASAtoArea@@YAMMMM@Z 0042e370 f   sg_vs2008_32:sg.obj
 0001:0002d400       ?sgTriangleSolver_ASStoArea@@YAMMMMH@Z 0042e400 f   sg_vs2008_32:sg.obj
 0001:0002d460       ?sgTriangleSolver_SAAtoArea@@YAMMMM@Z 0042e460 f   sg_vs2008_32:sg.obj
 0001:0002d4b0       ?deadBeefCheck@ssgBase@@QAEXXZ 0042e4b0 f i ssg_vs2008_32:ssgBase.obj
 0001:0002d4c0       ?ref@ssgBase@@QAEXXZ       0042e4c0 f i ssg_vs2008_32:ssgBase.obj
 0001:0002d4d0       ?getRef@ssgBase@@QAEHXZ    0042e4d0 f i ssg_vs2008_32:ssgBase.obj
 0001:0002d4e0       ?getUserData@ssgBase@@QAEPAV1@XZ 0042e4e0 f i ssg_vs2008_32:ssgBase.obj
 0001:0002d4f0       ?setUserData@ssgBase@@QAEXPAV1@@Z 0042e4f0 f i ssg_vs2008_32:ssgBase.obj
 0001:0002d520       ?getName@ssgBase@@QAEPADXZ 0042e520 f i ssg_vs2008_32:ssgBase.obj
 0001:0002d530       ?getPrintableName@ssgBase@@QAEPBDXZ 0042e530 f i ssg_vs2008_32:ssgBase.obj
 0001:0002d540       ??2ssgBase@@SAPAXI@Z       0042e540 f   ssg_vs2008_32:ssgBase.obj
 0001:0002d550       ??3ssgBase@@SAXPAX@Z       0042e550 f   ssg_vs2008_32:ssgBase.obj
 0001:0002d560       ?clone@ssgBase@@UAEPAV1@H@Z 0042e560 f   ssg_vs2008_32:ssgBase.obj
 0001:0002d580       ??0ssgBase@@QAE@XZ         0042e580 f   ssg_vs2008_32:ssgBase.obj
 0001:0002d5b0       ??1ssgBase@@UAE@XZ         0042e5b0 f   ssg_vs2008_32:ssgBase.obj
 0001:0002d5e0       ?setName@ssgBase@@QAEXPBD@Z 0042e5e0 f   ssg_vs2008_32:ssgBase.obj
 0001:0002d610       ?zeroSpareRecursive@ssgBase@@UAEXXZ 0042e610 f   ssg_vs2008_32:ssgBase.obj
 0001:0002d620       ?zeroSpare@ssgBase@@UAEXXZ 0042e620 f   ssg_vs2008_32:ssgBase.obj
 0001:0002d630       ?incSpare@ssgBase@@UAEXXZ  0042e630 f   ssg_vs2008_32:ssgBase.obj
 0001:0002d640       ?setSpare@ssgBase@@UAEXH@Z 0042e640 f   ssg_vs2008_32:ssgBase.obj
 0001:0002d650       ?getSpare@ssgBase@@UAEHXZ  0042e650 f   ssg_vs2008_32:ssgBase.obj
 0001:0002d660       ?print@ssgBase@@UAEXPAU_iobuf@@PADH@Z 0042e660 f   ssg_vs2008_32:ssgBase.obj
 0001:0002d700       ?load@ssgBase@@UAEHPAU_iobuf@@@Z 0042e700 f   ssg_vs2008_32:ssgBase.obj
 0001:0002d730       ?save@ssgBase@@UAEHPAU_iobuf@@@Z 0042e730 f   ssg_vs2008_32:ssgBase.obj
 0001:0002d750       ?copy_from@ssgBase@@MAEXPAV1@H@Z 0042e750 f   ssg_vs2008_32:ssgBase.obj
 0001:0002d7c0       ??_EssgBase@@UAEPAXI@Z     0042e7c0 f i ssg_vs2008_32:ssgBase.obj
 0001:0002d7c0       ??_GssgBase@@UAEPAXI@Z     0042e7c0 f i ssg_vs2008_32:ssgBase.obj
 0001:0002d7e0       ?ssgTypeVertexArray@@YAHXZ 0042e7e0 f i ssg_vs2008_32:ssgSimpleList.obj
 0001:0002d7f0       ?ssgTypeNormalArray@@YAHXZ 0042e7f0 f i ssg_vs2008_32:ssgSimpleList.obj
 0001:0002d800       ?ssgTypeTexCoordArray@@YAHXZ 0042e800 f i ssg_vs2008_32:ssgSimpleList.obj
 0001:0002d810       ?ssgTypeColourArray@@YAHXZ 0042e810 f i ssg_vs2008_32:ssgSimpleList.obj
 0001:0002d820       ?ssgTypeIndexArray@@YAHXZ  0042e820 f i ssg_vs2008_32:ssgSimpleList.obj
 0001:0002d830       ??0ssgSimpleList@@QAE@XZ   0042e830 f i ssg_vs2008_32:ssgSimpleList.obj
 0001:0002d860       ?raw_get@ssgSimpleList@@QAEPADI@Z 0042e860 f i ssg_vs2008_32:ssgSimpleList.obj
 0001:0002d880       ?getSizeOf@ssgSimpleList@@QAEHXZ 0042e880 f i ssg_vs2008_32:ssgSimpleList.obj
 0001:0002d890       ?getNum@ssgSimpleList@@QAEHXZ 0042e890 f i ssg_vs2008_32:ssgSimpleList.obj
 0001:0002d8a0       ??0ssgVertexArray@@QAE@HPAY02M@Z 0042e8a0 f i ssg_vs2008_32:ssgSimpleList.obj
 0001:0002d8d0       ?get@ssgVertexArray@@QAEPAMI@Z 0042e8d0 f i ssg_vs2008_32:ssgSimpleList.obj
 0001:0002d8f0       ??1ssgVertexArray@@UAE@XZ  0042e8f0 f i ssg_vs2008_32:ssgSimpleList.obj
 0001:0002d900       ??0ssgNormalArray@@QAE@HPAY02M@Z 0042e900 f i ssg_vs2008_32:ssgSimpleList.obj
 0001:0002d930       ?get@ssgNormalArray@@QAEPAMI@Z 0042e930 f i ssg_vs2008_32:ssgSimpleList.obj
 0001:0002d950       ??1ssgNormalArray@@UAE@XZ  0042e950 f i ssg_vs2008_32:ssgSimpleList.obj
 0001:0002d960       ??0ssgTexCoordArray@@QAE@HPAY01M@Z 0042e960 f i ssg_vs2008_32:ssgSimpleList.obj
 0001:0002d990       ?get@ssgTexCoordArray@@QAEPAMI@Z 0042e990 f i ssg_vs2008_32:ssgSimpleList.obj
 0001:0002d9b0       ??1ssgTexCoordArray@@UAE@XZ 0042e9b0 f i ssg_vs2008_32:ssgSimpleList.obj
 0001:0002d9c0       ??0ssgColourArray@@QAE@HPAY03M@Z 0042e9c0 f i ssg_vs2008_32:ssgSimpleList.obj
 0001:0002d9f0       ?get@ssgColourArray@@QAEPAMI@Z 0042e9f0 f i ssg_vs2008_32:ssgSimpleList.obj
 0001:0002da10       ??1ssgColourArray@@UAE@XZ  0042ea10 f i ssg_vs2008_32:ssgSimpleList.obj
 0001:0002da20       ??0ssgIndexArray@@QAE@HPAF@Z 0042ea20 f i ssg_vs2008_32:ssgSimpleList.obj
 0001:0002da50       ?get@ssgIndexArray@@QAEPAFI@Z 0042ea50 f i ssg_vs2008_32:ssgSimpleList.obj
 0001:0002da70       ??1ssgIndexArray@@UAE@XZ   0042ea70 f i ssg_vs2008_32:ssgSimpleList.obj
 0001:0002da80       ?copy_from@ssgSimpleList@@MAEXPAV1@H@Z 0042ea80 f   ssg_vs2008_32:ssgSimpleList.obj
 0001:0002daf0       ?clone@ssgSimpleList@@UAEPAVssgBase@@H@Z 0042eaf0 f   ssg_vs2008_32:ssgSimpleList.obj
 0001:0002db80       ?clone@ssgNormalArray@@UAEPAVssgBase@@H@Z 0042eb80 f   ssg_vs2008_32:ssgSimpleList.obj
 0001:0002dc40       ?clone@ssgVertexArray@@UAEPAVssgBase@@H@Z 0042ec40 f   ssg_vs2008_32:ssgSimpleList.obj
 0001:0002dd00       ?clone@ssgTexCoordArray@@UAEPAVssgBase@@H@Z 0042ed00 f   ssg_vs2008_32:ssgSimpleList.obj
 0001:0002ddc0       ?clone@ssgColourArray@@UAEPAVssgBase@@H@Z 0042edc0 f   ssg_vs2008_32:ssgSimpleList.obj
 0001:0002de80       ?clone@ssgIndexArray@@UAEPAVssgBase@@H@Z 0042ee80 f   ssg_vs2008_32:ssgSimpleList.obj
 0001:0002df40       ?print@ssgSimpleList@@UAEXPAU_iobuf@@PADH@Z 0042ef40 f   ssg_vs2008_32:ssgSimpleList.obj
 0001:0002df90       ?load@ssgSimpleList@@UAEHPAU_iobuf@@@Z 0042ef90 f   ssg_vs2008_32:ssgSimpleList.obj
 0001:0002dff0       ?save@ssgSimpleList@@UAEHPAU_iobuf@@@Z 0042eff0 f   ssg_vs2008_32:ssgSimpleList.obj
 0001:0002e030       ??_GssgVertexArray@@UAEPAXI@Z 0042f030 f i ssg_vs2008_32:ssgSimpleList.obj
 0001:0002e030       ??_EssgVertexArray@@UAEPAXI@Z 0042f030 f i ssg_vs2008_32:ssgSimpleList.obj
 0001:0002e050       ??_GssgNormalArray@@UAEPAXI@Z 0042f050 f i ssg_vs2008_32:ssgSimpleList.obj
 0001:0002e050       ??_EssgNormalArray@@UAEPAXI@Z 0042f050 f i ssg_vs2008_32:ssgSimpleList.obj
 0001:0002e070       ??_EssgTexCoordArray@@UAEPAXI@Z 0042f070 f i ssg_vs2008_32:ssgSimpleList.obj
 0001:0002e070       ??_GssgTexCoordArray@@UAEPAXI@Z 0042f070 f i ssg_vs2008_32:ssgSimpleList.obj
 0001:0002e090       ??_GssgColourArray@@UAEPAXI@Z 0042f090 f i ssg_vs2008_32:ssgSimpleList.obj
 0001:0002e090       ??_EssgColourArray@@UAEPAXI@Z 0042f090 f i ssg_vs2008_32:ssgSimpleList.obj
 0001:0002e0b0       ??_EssgIndexArray@@UAEPAXI@Z 0042f0b0 f i ssg_vs2008_32:ssgSimpleList.obj
 0001:0002e0b0       ??_GssgIndexArray@@UAEPAXI@Z 0042f0b0 f i ssg_vs2008_32:ssgSimpleList.obj
 0001:0002e0d0       ?print@ssgVertexArray@@UAEXPAU_iobuf@@PADH@Z 0042f0d0 f   ssg_vs2008_32:ssgSimpleList.obj
 0001:0002e170       ?print@ssgNormalArray@@UAEXPAU_iobuf@@PADH@Z 0042f170 f   ssg_vs2008_32:ssgSimpleList.obj
 0001:0002e210       ?print@ssgIndexArray@@UAEXPAU_iobuf@@PADH@Z 0042f210 f   ssg_vs2008_32:ssgSimpleList.obj
 0001:0002e270       ?print@ssgTexCoordArray@@UAEXPAU_iobuf@@PADH@Z 0042f270 f   ssg_vs2008_32:ssgSimpleList.obj
 0001:0002e2f0       ?print@ssgColourArray@@UAEXPAU_iobuf@@PADH@Z 0042f2f0 f   ssg_vs2008_32:ssgSimpleList.obj
 0001:0002e3b0       ?ssgTypeVTable@@YAHXZ      0042f3b0 f i ssg_vs2008_32:ssg.obj
 0001:0002e3c0       ?ssgTypeVtxTable@@YAHXZ    0042f3c0 f i ssg_vs2008_32:ssg.obj
 0001:0002e3d0       ?ssgTypeVtxArray@@YAHXZ    0042f3d0 f i ssg_vs2008_32:ssg.obj
 0001:0002e3e0       ?ssgTypeTween@@YAHXZ       0042f3e0 f i ssg_vs2008_32:ssg.obj
 0001:0002e3f0       ?ssgTypeTweenController@@YAHXZ 0042f3f0 f i ssg_vs2008_32:ssg.obj
 0001:0002e400       ?ssgTypeBaseTransform@@YAHXZ 0042f400 f i ssg_vs2008_32:ssg.obj
 0001:0002e410       ?ssgTypeTransform@@YAHXZ   0042f410 f i ssg_vs2008_32:ssg.obj
 0001:0002e420       ?ssgTypeAnimTransform@@YAHXZ 0042f420 f i ssg_vs2008_32:ssg.obj
 0001:0002e430       ?ssgTypeTexTrans@@YAHXZ    0042f430 f i ssg_vs2008_32:ssg.obj
 0001:0002e440       ?ssgTypeAxisTransform@@YAHXZ 0042f440 f i ssg_vs2008_32:ssg.obj
 0001:0002e450       ?ssgTypeSelector@@YAHXZ    0042f450 f i ssg_vs2008_32:ssg.obj
 0001:0002e460       ?ssgTypeRangeSelector@@YAHXZ 0042f460 f i ssg_vs2008_32:ssg.obj
 0001:0002e470       ?ssgTypeTimedSelector@@YAHXZ 0042f470 f i ssg_vs2008_32:ssg.obj
 0001:0002e480       ?ssgTypeRoot@@YAHXZ        0042f480 f i ssg_vs2008_32:ssg.obj
 0001:0002e490       ?ssgTypeCutout@@YAHXZ      0042f490 f i ssg_vs2008_32:ssg.obj
 0001:0002e4a0       ?ssgTypeInvisible@@YAHXZ   0042f4a0 f i ssg_vs2008_32:ssg.obj
 0001:0002e4b0       ?ssgTypeStateSelector@@YAHXZ 0042f4b0 f i ssg_vs2008_32:ssg.obj
 0001:0002e4c0       ?ssgTypeTransformArray@@YAHXZ 0042f4c0 f i ssg_vs2008_32:ssg.obj
 0001:0002e4d0       ?ssgTypeInterleavedArray@@YAHXZ 0042f4d0 f i ssg_vs2008_32:ssg.obj
 0001:0002e4e0       ?ssgTypeTexture@@YAHXZ     0042f4e0 f i ssg_vs2008_32:ssg.obj
 0001:0002e4f0       ?deRef@ssgBase@@QAEXXZ     0042f4f0 f i ssg_vs2008_32:ssg.obj
 0001:0002e500       ??0ssgTransformArray@@QAE@HPAY133M@Z 0042f500 f i ssg_vs2008_32:ssg.obj
 0001:0002e530       ??1ssgTransformArray@@UAE@XZ 0042f530 f i ssg_vs2008_32:ssg.obj
 0001:0002e540       ??0ssgInterleavedArray@@QAE@HPAUssgInterleavedArrayElement@@@Z 0042f540 f i ssg_vs2008_32:ssg.obj
 0001:0002e570       ??1ssgInterleavedArray@@UAE@XZ 0042f570 f i ssg_vs2008_32:ssg.obj
 0001:0002e580       ??0ssgLight@@QAE@XZ        0042f580 f i ssg_vs2008_32:ssg.obj
 0001:0002e600       ?setID@ssgLight@@QAEXH@Z   0042f600 f i ssg_vs2008_32:ssg.obj
 0001:0002e610       ?on@ssgLight@@QAEXXZ       0042f610 f i ssg_vs2008_32:ssg.obj
 0001:0002e620       ?off@ssgLight@@QAEXXZ      0042f620 f i ssg_vs2008_32:ssg.obj
 0001:0002e630       ?isHeadlight@ssgLight@@QAEHXZ 0042f630 f i ssg_vs2008_32:ssg.obj
 0001:0002e640       ?isSpotlight@ssgLight@@QAEHXZ 0042f640 f i ssg_vs2008_32:ssg.obj
 0001:0002e660       ?setup@ssgLight@@QAEXXZ    0042f660 f i ssg_vs2008_32:ssg.obj
 0001:0002e780       ?ssgForceBasicState@@YAXXZ 0042f780 f i ssg_vs2008_32:ssg.obj
 0001:0002e7a0       ?ssgSetBackFaceCollisions@@YAX_N@Z 0042f7a0 f   ssg_vs2008_32:ssg.obj
 0001:0002e7b0       ?ssgGetFrameCounter@@YAHXZ 0042f7b0 f   ssg_vs2008_32:ssg.obj
 0001:0002e7c0       ?ssgSetFrameCounter@@YAXH@Z 0042f7c0 f   ssg_vs2008_32:ssg.obj
 0001:0002e7d0       ?ssgGetVersion@@YAPBDXZ    0042f7d0 f   ssg_vs2008_32:ssg.obj
 0001:0002e7e0       ?ssgDeRefDelete@@YAXPAVssgBase@@@Z 0042f7e0 f   ssg_vs2008_32:ssg.obj
 0001:0002e800       ?ssgDelete@@YAXPAVssgBranch@@@Z 0042f800 f   ssg_vs2008_32:ssg.obj
 0001:0002e820       ?ssgGetLight@@YAPAVssgLight@@H@Z 0042f820 f   ssg_vs2008_32:ssg.obj
 0001:0002e830       ?ssgInit@@YAXXZ            0042f830 f   ssg_vs2008_32:ssg.obj
 0001:0002ed00       ?ssgCullAndPick@@YAXPAVssgBranch@@QAM1@Z 0042fd00 f   ssg_vs2008_32:ssg.obj
 0001:0002ee80       ?ssgCullAndDraw@@YAXPAVssgBranch@@@Z 0042fe80 f   ssg_vs2008_32:ssg.obj
 0001:0002ef60       ?getTypeName@ssgAxisTransform@@UAEPBDXZ 0042ff60 f   ssg_vs2008_32:ssg.obj
 0001:0002ef70       ?getTypeName@ssgBase@@UAEPBDXZ 0042ff70 f   ssg_vs2008_32:ssg.obj
 0001:0002ef80       ?getTypeName@ssgTexture@@UAEPBDXZ 0042ff80 f   ssg_vs2008_32:ssg.obj
 0001:0002ef90       ?getTypeName@ssgState@@UAEPBDXZ 0042ff90 f   ssg_vs2008_32:ssg.obj
 0001:0002efa0       ?getTypeName@ssgSimpleState@@UAEPBDXZ 0042ffa0 f   ssg_vs2008_32:ssg.obj
 0001:0002efb0       ?getTypeName@ssgStateSelector@@UAEPBDXZ 0042ffb0 f   ssg_vs2008_32:ssg.obj
 0001:0002efc0       ?getTypeName@ssgEntity@@UAEPBDXZ 0042ffc0 f   ssg_vs2008_32:ssg.obj
 0001:0002efd0       ?getTypeName@ssgLeaf@@UAEPBDXZ 0042ffd0 f   ssg_vs2008_32:ssg.obj
 0001:0002efe0       ?getTypeName@ssgVTable@@UAEPBDXZ 0042ffe0 f   ssg_vs2008_32:ssg.obj
 0001:0002eff0       ?getTypeName@ssgVtxTable@@UAEPBDXZ 0042fff0 f   ssg_vs2008_32:ssg.obj
 0001:0002f000       ?getTypeName@ssgVtxArray@@UAEPBDXZ 00430000 f   ssg_vs2008_32:ssg.obj
 0001:0002f010       ?getTypeName@ssgBranch@@UAEPBDXZ 00430010 f   ssg_vs2008_32:ssg.obj
 0001:0002f020       ?getTypeName@ssgSelector@@UAEPBDXZ 00430020 f   ssg_vs2008_32:ssg.obj
 0001:0002f030       ?getTypeName@ssgRangeSelector@@UAEPBDXZ 00430030 f   ssg_vs2008_32:ssg.obj
 0001:0002f040       ?getTypeName@ssgTimedSelector@@UAEPBDXZ 00430040 f   ssg_vs2008_32:ssg.obj
 0001:0002f050       ?getTypeName@ssgBaseTransform@@UAEPBDXZ 00430050 f   ssg_vs2008_32:ssg.obj
 0001:0002f060       ?getTypeName@ssgTransform@@UAEPBDXZ 00430060 f   ssg_vs2008_32:ssg.obj
 0001:0002f070       ?getTypeName@ssgTexTrans@@UAEPBDXZ 00430070 f   ssg_vs2008_32:ssg.obj
 0001:0002f080       ?getTypeName@ssgCutout@@UAEPBDXZ 00430080 f   ssg_vs2008_32:ssg.obj
 0001:0002f090       ?getTypeName@ssgRoot@@UAEPBDXZ 00430090 f   ssg_vs2008_32:ssg.obj
 0001:0002f0a0       ?getTypeName@ssgSimpleList@@UAEPBDXZ 004300a0 f   ssg_vs2008_32:ssg.obj
 0001:0002f0b0       ?getTypeName@ssgColourArray@@UAEPBDXZ 004300b0 f   ssg_vs2008_32:ssg.obj
 0001:0002f0c0       ?getTypeName@ssgIndexArray@@UAEPBDXZ 004300c0 f   ssg_vs2008_32:ssg.obj
 0001:0002f0d0       ?getTypeName@ssgTransformArray@@UAEPBDXZ 004300d0 f   ssg_vs2008_32:ssg.obj
 0001:0002f0e0       ?getTypeName@ssgTexCoordArray@@UAEPBDXZ 004300e0 f   ssg_vs2008_32:ssg.obj
 0001:0002f0f0       ?getTypeName@ssgVertexArray@@UAEPBDXZ 004300f0 f   ssg_vs2008_32:ssg.obj
 0001:0002f100       ?getTypeName@ssgNormalArray@@UAEPBDXZ 00430100 f   ssg_vs2008_32:ssg.obj
 0001:0002f110       ?getTypeName@ssgInterleavedArray@@UAEPBDXZ 00430110 f   ssg_vs2008_32:ssg.obj
 0001:0002fdf0       ?ssgRegisterType@@YAXHP6APAVssgBase@@XZ@Z 00430df0 f   ssg_vs2008_32:ssg.obj
 0001:0002fe70       ?ssgCreateOfType@@YAPAVssgBase@@H@Z 00430e70 f   ssg_vs2008_32:ssg.obj
 0001:0002ff80       ?ssgIsExtensionSupported@@YA_NPAD@Z 00430f80 f   ssg_vs2008_32:ssg.obj
 0001:0002ffa0       ??_EssgTransformArray@@UAEPAXI@Z 00430fa0 f i ssg_vs2008_32:ssg.obj
 0001:0002ffa0       ??_GssgTransformArray@@UAEPAXI@Z 00430fa0 f i ssg_vs2008_32:ssg.obj
 0001:0002ffc0       ??_EssgInterleavedArray@@UAEPAXI@Z 00430fc0 f i ssg_vs2008_32:ssg.obj
 0001:0002ffc0       ??_GssgInterleavedArray@@UAEPAXI@Z 00430fc0 f i ssg_vs2008_32:ssg.obj
 0001:0002ffe0       ?sizeChk@ssgSimpleList@@IAEXI@Z 00430fe0 f i ssg_vs2008_32:ssgTexture.obj
 0001:00030060       ?raw_add@ssgSimpleList@@QAEXPAD@Z 00431060 f i ssg_vs2008_32:ssgTexture.obj
 0001:00030090       ?removeAll@ssgSimpleList@@QAEXXZ 00431090 f i ssg_vs2008_32:ssgTexture.obj
 0001:000300c0       ?getNum@ssgTextureArray@@QAEHXZ 004310c0 f i ssg_vs2008_32:ssgTexture.obj
 0001:000300d0       ?get@ssgTextureArray@@QAEPAVssgTexture@@I@Z 004310d0 f i ssg_vs2008_32:ssgTexture.obj
 0001:000300f0       ?getFilename@ssgTexture@@QAEPADXZ 004310f0 f i ssg_vs2008_32:ssgTexture.obj
 0001:00030100       ?setFilename@ssgTexture@@QAEXPBD@Z 00431100 f i ssg_vs2008_32:ssgTexture.obj
 0001:00030130       ?setDefaultGlParams@ssgTexture@@IAEXHHH@Z 00431130 f   ssg_vs2008_32:ssgTexture.obj
 0001:000301d0       ??0ssgTexture@@QAE@XZ      004311d0 f   ssg_vs2008_32:ssgTexture.obj
 0001:00030210       ?free_handle@ssgTexture@@IAEXXZ 00431210 f   ssg_vs2008_32:ssgTexture.obj
 0001:00030240       ?setHandle@ssgTexture@@QAEXI@Z 00431240 f   ssg_vs2008_32:ssgTexture.obj
 0001:00030260       ?print@ssgTexture@@UAEXPAU_iobuf@@PADH@Z 00431260 f   ssg_vs2008_32:ssgTexture.obj
 0001:00030290       ?save@ssgTexture@@UAEHPAU_iobuf@@@Z 00431290 f   ssg_vs2008_32:ssgTexture.obj
 0001:000302d0       ?add@ssgTextureArray@@QAEXPAVssgTexture@@@Z 004312d0 f   ssg_vs2008_32:ssgTexture.obj
 0001:00030310       ?removeAll@ssgTextureArray@@QAEXXZ 00431310 f   ssg_vs2008_32:ssgTexture.obj
 0001:00030370       ?findByFilename@ssgTextureArray@@QAEPAVssgTexture@@PBD@Z 00431370 f   ssg_vs2008_32:ssgTexture.obj
 0001:000303d0       ?clone@ssgTexture@@UAEPAVssgBase@@H@Z 004313d0 f   ssg_vs2008_32:ssgTexture.obj
 0001:00030440       ??1ssgTexture@@UAE@XZ      00431440 f   ssg_vs2008_32:ssgTexture.obj
 0001:000304b0       ?alloc_handle@ssgTexture@@IAEXXZ 004314b0 f   ssg_vs2008_32:ssgTexture.obj
 0001:000304e0       ?load@ssgTexture@@UAEHPAU_iobuf@@@Z 004314e0 f   ssg_vs2008_32:ssgTexture.obj
 0001:00030570       ?copy_from@ssgTexture@@MAEXPAV1@H@Z 00431570 f   ssg_vs2008_32:ssgTexture.obj
 0001:00030600       ??_GssgTexture@@UAEPAXI@Z  00431600 f i ssg_vs2008_32:ssgTexture.obj
 0001:00030600       ??_EssgTexture@@UAEPAXI@Z  00431600 f i ssg_vs2008_32:ssgTexture.obj
 0001:00030620       ??0ssgTexture@@QAE@PBDPAEHHHHH@Z 00431620 f   ssg_vs2008_32:ssgTexture.obj
 0001:000306f0       ??0ssgTexture@@QAE@PBDHHH@Z 004316f0 f   ssg_vs2008_32:ssgTexture.obj
 0001:000307c0       ?sgEqualVec3@@YAHQBM0@Z    004317c0 f i ssg_vs2008_32:ssgSimpleState.obj
 0001:00030800       ?sgEqualVec4@@YAHQBM0@Z    00431800 f i ssg_vs2008_32:ssgSimpleState.obj
 0001:00030850       ?getNum@ssgSimpleStateArray@@QAEHXZ 00431850 f i ssg_vs2008_32:ssgSimpleState.obj
 0001:00030860       ?get@ssgSimpleStateArray@@QAEPAVssgSimpleState@@I@Z 00431860 f i ssg_vs2008_32:ssgSimpleState.obj
 0001:00030880       ?setShadeModel@ssgSimpleState@@UAEXI@Z 00431880 f i ssg_vs2008_32:ssgSimpleState.obj
 0001:000308a0       ?getState@ssgContext@@QAEPAVssgSimpleState@@XZ 004318a0 f i ssg_vs2008_32:ssgSimpleState.obj
 0001:000308b0       ?copy_from@ssgSimpleState@@UAEXPAV1@H@Z 004318b0 f   ssg_vs2008_32:ssgSimpleState.obj
 0001:000309b0       ?_ssgForceLineState@@YAXXZ 004319b0 f   ssg_vs2008_32:ssgSimpleState.obj
 0001:000309f0       ??0ssgSimpleState@@QAE@XZ  004319f0 f   ssg_vs2008_32:ssgSimpleState.obj
 0001:00030a20       ?getHandle@ssgTexture@@QAEIXZ 00431a20 f i ssg_vs2008_32:ssgSimpleState.obj
 0001:00030a30       ?isTranslucent@ssgState@@UAEHXZ 00431a30 f i ssg_vs2008_32:ssgSimpleState.obj
 0001:00030a40       ?setTranslucent@ssgState@@UAEXXZ 00431a40 f i ssg_vs2008_32:ssgSimpleState.obj
 0001:00030a50       ?setOpaque@ssgState@@UAEXXZ 00431a50 f i ssg_vs2008_32:ssgSimpleState.obj
 0001:00030a60       ?care_about@ssgSimpleState@@UAEXH@Z 00431a60 f i ssg_vs2008_32:ssgSimpleState.obj
 0001:00030a80       ?dont_care_about@ssgSimpleState@@UAEXH@Z 00431a80 f i ssg_vs2008_32:ssgSimpleState.obj
 0001:00030aa0       ?getCareAbout@ssgSimpleState@@UAEHH@Z 00431aa0 f i ssg_vs2008_32:ssgSimpleState.obj
 0001:00030ac0       ?set@ssgSimpleState@@UAEXIH@Z 00431ac0 f i ssg_vs2008_32:ssgSimpleState.obj
 0001:00030af0       ?getTextureHandle@ssgSimpleState@@UAEIXZ 00431af0 f i ssg_vs2008_32:ssgSimpleState.obj
 0001:00030b00       ?getTextureFilename@ssgSimpleState@@UAEPADXZ 00431b00 f i ssg_vs2008_32:ssgSimpleState.obj
 0001:00030b10       ?getTexture@ssgSimpleState@@UAEPAVssgTexture@@XZ 00431b10 f i ssg_vs2008_32:ssgSimpleState.obj
 0001:00030b20       ?setTexture@ssgSimpleState@@UAEXPAVssgTexture@@@Z 00431b20 f i ssg_vs2008_32:ssgSimpleState.obj
 0001:00030b60       ?setTexture@ssgSimpleState@@UAEXPBDHHH@Z 00431b60 f i ssg_vs2008_32:ssgSimpleState.obj
 0001:00030be0       ?setTexture@ssgSimpleState@@UAEXI@Z 00431be0 f i ssg_vs2008_32:ssgSimpleState.obj
 0001:00030c70       ?setTextureFilename@ssgSimpleState@@UAEXPBD@Z 00431c70 f i ssg_vs2008_32:ssgSimpleState.obj
 0001:00030d10       ?getColourMaterial@ssgSimpleState@@UAEIXZ 00431d10 f i ssg_vs2008_32:ssgSimpleState.obj
 0001:00030d20       ?setColourMaterial@ssgSimpleState@@UAEXI@Z 00431d20 f i ssg_vs2008_32:ssgSimpleState.obj
 0001:00030d40       ?setMaterial@ssgSimpleState@@UAEXIMMMM@Z 00431d40 f i ssg_vs2008_32:ssgSimpleState.obj
 0001:00030d80       ?setMaterial@ssgSimpleState@@UAEXIQAM@Z 00431d80 f i ssg_vs2008_32:ssgSimpleState.obj
 0001:00030e90       ?getMaterial@ssgSimpleState@@UAEPAMI@Z 00431e90 f i ssg_vs2008_32:ssgSimpleState.obj
 0001:00030ed0       ?getShininess@ssgSimpleState@@UAEMXZ 00431ed0 f i ssg_vs2008_32:ssgSimpleState.obj
 0001:00030ee0       ?setShininess@ssgSimpleState@@UAEXM@Z 00431ee0 f i ssg_vs2008_32:ssgSimpleState.obj
 0001:00030f00       ?setAlphaClamp@ssgSimpleState@@UAEXM@Z 00431f00 f i ssg_vs2008_32:ssgSimpleState.obj
 0001:00030f20       ??1ssgSimpleState@@UAE@XZ  00431f20 f   ssg_vs2008_32:ssgSimpleState.obj
 0001:00030f80       ?apply@ssgSimpleState@@UAEXXZ 00431f80 f   ssg_vs2008_32:ssgSimpleState.obj
 0001:00031340       ?force@ssgSimpleState@@UAEXXZ 00432340 f   ssg_vs2008_32:ssgSimpleState.obj
 0001:000315e0       ?isEnabled@ssgSimpleState@@UAEHI@Z 004325e0 f   ssg_vs2008_32:ssgSimpleState.obj
 0001:00031650       ?disable@ssgSimpleState@@UAEXI@Z 00432650 f   ssg_vs2008_32:ssgSimpleState.obj
 0001:00031710       ?enable@ssgSimpleState@@UAEXI@Z 00432710 f   ssg_vs2008_32:ssgSimpleState.obj
 0001:000317d0       ?load@ssgSimpleState@@UAEHPAU_iobuf@@@Z 004327d0 f   ssg_vs2008_32:ssgSimpleState.obj
 0001:00031880       ?save@ssgSimpleState@@UAEHPAU_iobuf@@@Z 00432880 f   ssg_vs2008_32:ssgSimpleState.obj
 0001:000319b0       ?print@ssgSimpleState@@UAEXPAU_iobuf@@PADH@Z 004329b0 f   ssg_vs2008_32:ssgSimpleState.obj
 0001:00031bb0       ?findIndex@ssgSimpleStateArray@@QAEHPAVssgSimpleState@@@Z 00432bb0 f   ssg_vs2008_32:ssgSimpleState.obj
 0001:00031bf0       ?add@ssgSimpleStateArray@@QAEXPAVssgSimpleState@@@Z 00432bf0 f   ssg_vs2008_32:ssgSimpleState.obj
 0001:00031c30       ?removeAll@ssgSimpleStateArray@@QAEXXZ 00432c30 f   ssg_vs2008_32:ssgSimpleState.obj
 0001:00031c90       ?findMatch@ssgSimpleStateArray@@QAEPAVssgSimpleState@@PAV2@@Z 00432c90 f   ssg_vs2008_32:ssgSimpleState.obj
 0001:00031f20       ?clone@ssgSimpleState@@UAEPAVssgBase@@H@Z 00432f20 f   ssg_vs2008_32:ssgSimpleState.obj
 0001:00031f90       ??0ssgSimpleState@@QAE@H@Z 00432f90 f   ssg_vs2008_32:ssgSimpleState.obj
 0001:00032040       ??_GssgSimpleState@@UAEPAXI@Z 00433040 f i ssg_vs2008_32:ssgSimpleState.obj
 0001:00032040       ??_EssgSimpleState@@UAEPAXI@Z 00433040 f i ssg_vs2008_32:ssgSimpleState.obj
 0001:00032060       ?collect_recursive@ssgSimpleStateArray@@AAEXPAVssgEntity@@@Z 00433060 f   ssg_vs2008_32:ssgSimpleState.obj
 0001:000320f0       ?collect@ssgSimpleStateArray@@QAEXPAVssgEntity@@@Z 004330f0 f   ssg_vs2008_32:ssgSimpleState.obj
 0001:00032110       ?isA@ssgBase@@QAEHH@Z      00433110 f i ssg_vs2008_32:ssgLoad.obj
 0001:00032120       ?ssgGetCurrentOptions@@YAPAVssgLoaderOptions@@XZ 00433120 f i ssg_vs2008_32:ssgLoad.obj
 0001:00032130       ?make_path@ssgLoaderOptions@@IBEPADPADPBD1@Z 00433130 f   ssg_vs2008_32:ssgLoad.obj
 0001:00032200       ?makeModelPath@ssgLoaderOptions@@UBEXPADPBD@Z 00433200 f   ssg_vs2008_32:ssgLoad.obj
 0001:00032220       ?makeTexturePath@ssgLoaderOptions@@UBEXPADPBD@Z 00433220 f   ssg_vs2008_32:ssgLoad.obj
 0001:00032290       ?createLeaf@ssgLoaderOptions@@UAEPAVssgLeaf@@PAV2@PBD@Z 00433290 f   ssg_vs2008_32:ssgLoad.obj
 0001:000322e0       ?createTexture@ssgLoaderOptions@@UAEPAVssgTexture@@PADHHH@Z 004332e0 f   ssg_vs2008_32:ssgLoad.obj
 0001:000323b0       ?createTransform@ssgLoaderOptions@@UBEPAVssgTransform@@PAV2@PAVssgTransformArray@@@Z 004333b0 f   ssg_vs2008_32:ssgLoad.obj
 0001:000323e0       ?createSelector@ssgLoaderOptions@@UBEPAVssgSelector@@PAV2@@Z 004333e0 f   ssg_vs2008_32:ssgLoad.obj
 0001:000323f0       ?setModelDir@ssgLoaderOptions@@QAEXPBD@Z 004333f0 f   ssg_vs2008_32:ssgLoad.obj
 0001:00032410       ?setTextureDir@ssgLoaderOptions@@QAEXPBD@Z 00433410 f   ssg_vs2008_32:ssgLoad.obj
 0001:00032460       ?ssgAddModelFormat@@YAXPBDP6APAVssgEntity@@0PBVssgLoaderOptions@@@ZP6AH0PAV1@@Z@Z 00433460 f   ssg_vs2008_32:ssgLoad.obj
 0001:00032500       ?ssgLoad@@YAPAVssgEntity@@PBDPBVssgLoaderOptions@@@Z 00433500 f   ssg_vs2008_32:ssgLoad.obj
 0001:000325c0       ?ssgSave@@YAHPBDPAVssgEntity@@@Z 004335c0 f   ssg_vs2008_32:ssgLoad.obj
 0001:00032670       ?sgSetVec2@@YAXQAMMM@Z     00433670 f i ssg_vs2008_32:ssgLoadAC.obj
 0001:00032690       ?sgEqualVec2@@YAHQBM0@Z    00433690 f i ssg_vs2008_32:ssgLoadAC.obj
 0001:000326c0       ?add@ssgVertexArray@@QAEXQAM@Z 004336c0 f i ssg_vs2008_32:ssgLoadAC.obj
 0001:000326f0       ?add@ssgNormalArray@@QAEXQAM@Z 004336f0 f i ssg_vs2008_32:ssgLoadAC.obj
 0001:00032720       ?add@ssgTexCoordArray@@QAEXQAM@Z 00433720 f i ssg_vs2008_32:ssgLoadAC.obj
 0001:00032750       ?add@ssgColourArray@@QAEXQAM@Z 00433750 f i ssg_vs2008_32:ssgLoadAC.obj
 0001:00032780       ?add@ssgIndexArray@@QAEXF@Z 00433780 f i ssg_vs2008_32:ssgLoadAC.obj
 0001:000327b0       ?hasAlpha@ssgTexture@@QBE_NXZ 004337b0 f i ssg_vs2008_32:ssgLoadAC.obj
 0001:000327c0       ?setCullFace@ssgLeaf@@QAEXH@Z 004337c0 f i ssg_vs2008_32:ssgLoadAC.obj
 0001:000327d0       ?vert@ssgVertSplitter@@QAEPAMH@Z 004337d0 f i ssg_vs2008_32:ssgLoadAC.obj
 0001:000327e0       ?norm@ssgVertSplitter@@QAEPAMH@Z 004337e0 f i ssg_vs2008_32:ssgLoadAC.obj
 0001:00034880       ?ssgLoadAC@@YAPAVssgEntity@@PBDPBVssgLoaderOptions@@@Z 00435880 f   ssg_vs2008_32:ssgLoadAC.obj
 0001:00034ae0       ?ssgLoadAC3D@@YAPAVssgEntity@@PBDPBVssgLoaderOptions@@@Z 00435ae0 f   ssg_vs2008_32:ssgLoadAC.obj
 0001:00034b70       ?empty@sgSphere@@QAEXXZ    00435b70 f i ssg_vs2008_32:ssgBranch.obj
 0001:00034b80       ?removeEntity@ssgList@@QAEXPAVssgEntity@@@Z 00435b80 f i ssg_vs2008_32:ssgBranch.obj
 0001:00034ba0       ?getNumEntities@ssgList@@QAEHXZ 00435ba0 f i ssg_vs2008_32:ssgBranch.obj
 0001:00034bb0       ?getNextEntity@ssgList@@QAEPAVssgEntity@@XZ 00435bb0 f i ssg_vs2008_32:ssgBranch.obj
 0001:00034bd0       ?emptyBSphere@ssgEntity@@IAEXXZ 00435bd0 f i ssg_vs2008_32:ssgBranch.obj
 0001:00034be0       ?extendBSphere@ssgEntity@@IAEXPAVsgSphere@@@Z 00435be0 f i ssg_vs2008_32:ssgBranch.obj
 0001:00034bf0       ?getNumParents@ssgEntity@@QAEHXZ 00435bf0 f i ssg_vs2008_32:ssgBranch.obj
 0001:00034c00       ?addParent@ssgEntity@@QAEXPAV1@@Z 00435c00 f i ssg_vs2008_32:ssgBranch.obj
 0001:00034c10       ?removeParent@ssgEntity@@QAEXPAV1@@Z 00435c10 f i ssg_vs2008_32:ssgBranch.obj
 0001:00034c40       ?getGLtype@ssgLeaf@@QAEIXZ 00435c40 f i ssg_vs2008_32:ssgBranch.obj
 0001:00034c50       ?addIndex@ssgVtxArray@@QAEXF@Z 00435c50 f i ssg_vs2008_32:ssgBranch.obj
 0001:00034c90       ?getNumIndices@ssgVtxArray@@QAEHXZ 00435c90 f i ssg_vs2008_32:ssgBranch.obj
 0001:00034ca0       ?getIndex@ssgVtxArray@@QAEPAFH@Z 00435ca0 f i ssg_vs2008_32:ssgBranch.obj
 0001:00034ce0       ?getNextKid@ssgBranch@@QAEPAVssgEntity@@XZ 00435ce0 f i ssg_vs2008_32:ssgBranch.obj
 0001:00034d00       ?searchForKid@ssgBranch@@QAEHPAVssgEntity@@@Z 00435d00 f i ssg_vs2008_32:ssgBranch.obj
 0001:00034d10       ??0ssgBranch@@QAE@XZ       00435d10 f   ssg_vs2008_32:ssgBranch.obj
 0001:00034d70       ?getNumKids@ssgBranch@@UAEHXZ 00435d70 f i ssg_vs2008_32:ssgBranch.obj
 0001:00034d80       ?zeroSpareRecursive@ssgBranch@@UAEXXZ 00435d80 f   ssg_vs2008_32:ssgBranch.obj
 0001:00034dd0       ?recalcBSphere@ssgBranch@@UAEXXZ 00435dd0 f   ssg_vs2008_32:ssgBranch.obj
 0001:00034e50       ?addKid@ssgBranch@@QAEXPAVssgEntity@@@Z 00435e50 f   ssg_vs2008_32:ssgBranch.obj
 0001:00034e80       ?removeKid@ssgBranch@@QAEXH@Z 00435e80 f   ssg_vs2008_32:ssgBranch.obj
 0001:00034ee0       ?removeKid@ssgBranch@@QAEXPAVssgEntity@@@Z 00435ee0 f   ssg_vs2008_32:ssgBranch.obj
 0001:00034f00       ?removeAllKids@ssgBranch@@QAEXXZ 00435f00 f   ssg_vs2008_32:ssgBranch.obj
 0001:00034f30       ?replaceKid@ssgBranch@@QAEXHPAVssgEntity@@@Z 00435f30 f   ssg_vs2008_32:ssgBranch.obj
 0001:00034fb0       ?replaceKid@ssgBranch@@QAEXPAVssgEntity@@0@Z 00435fb0 f   ssg_vs2008_32:ssgBranch.obj
 0001:00034fe0       ?print@ssgBranch@@UAEXPAU_iobuf@@PADH@Z 00435fe0 f   ssg_vs2008_32:ssgBranch.obj
 0001:000350e0       ?getStats@ssgBranch@@UAEXPAH000@Z 004360e0 f   ssg_vs2008_32:ssgBranch.obj
 0001:000351a0       ?getByName@ssgBranch@@UAEPAVssgEntity@@PAD@Z 004361a0 f   ssg_vs2008_32:ssgBranch.obj
 0001:00035230       ?getByPath@ssgBranch@@UAEPAVssgEntity@@PAD@Z 00436230 f   ssg_vs2008_32:ssgBranch.obj
 0001:00035320       ?cull@ssgBranch@@UAEXPAVsgFrustum@@QAY03MH@Z 00436320 f   ssg_vs2008_32:ssgBranch.obj
 0001:000353b0       ?hot@ssgBranch@@UAEXQAMQAY03MH@Z 004363b0 f   ssg_vs2008_32:ssgBranch.obj
 0001:00035450       ?los@ssgBranch@@UAEXQAMQAY03MH@Z 00436450 f   ssg_vs2008_32:ssgBranch.obj
 0001:000354f0       ?isect@ssgBranch@@UAEXPAVsgSphere@@QAY03MH@Z 004364f0 f   ssg_vs2008_32:ssgBranch.obj
 0001:00035590       ?load@ssgBranch@@UAEHPAU_iobuf@@@Z 00436590 f   ssg_vs2008_32:ssgBranch.obj
 0001:00035600       ?save@ssgBranch@@UAEHPAU_iobuf@@@Z 00436600 f   ssg_vs2008_32:ssgBranch.obj
 0001:00035690       ?AddLeafToTriangles@@YAXPAVssgVtxArray@@0@Z 00436690 f   ssg_vs2008_32:ssgBranch.obj
 0001:00035c80       ?recursiveMergeHNodes@@YAXPAVssgEntity@@H@Z 00436c80 f   ssg_vs2008_32:ssgBranch.obj
 0001:00036180       ?mergeHNodes@ssgBranch@@QAEXXZ 00437180 f   ssg_vs2008_32:ssgBranch.obj
 0001:000363d0       ?copy_from@ssgBranch@@MAEXPAV1@H@Z 004373d0 f   ssg_vs2008_32:ssgBranch.obj
 0001:00036440       ?clone@ssgBranch@@UAEPAVssgBase@@H@Z 00437440 f   ssg_vs2008_32:ssgBranch.obj
 0001:000364b0       ??1ssgBranch@@UAE@XZ       004374b0 f   ssg_vs2008_32:ssgBranch.obj
 0001:00036510       ??_GssgBranch@@UAEPAXI@Z   00437510 f i ssg_vs2008_32:ssgBranch.obj
 0001:00036510       ??_EssgBranch@@UAEPAXI@Z   00437510 f i ssg_vs2008_32:ssgBranch.obj
 0001:00036530       ?copy_from@ssgRoot@@MAEXPAV1@H@Z 00437530 f   ssg_vs2008_32:ssgRoot.obj
 0001:00036540       ??0ssgRoot@@QAE@XZ         00437540 f   ssg_vs2008_32:ssgRoot.obj
 0001:00036560       ??1ssgRoot@@UAE@XZ         00437560 f   ssg_vs2008_32:ssgRoot.obj
 0001:00036570       ?load@ssgRoot@@UAEHPAU_iobuf@@@Z 00437570 f   ssg_vs2008_32:ssgRoot.obj
 0001:00036580       ?save@ssgRoot@@UAEHPAU_iobuf@@@Z 00437580 f   ssg_vs2008_32:ssgRoot.obj
 0001:00036590       ?clone@ssgRoot@@UAEPAVssgBase@@H@Z 00437590 f   ssg_vs2008_32:ssgRoot.obj
 0001:00036600       ??_GssgRoot@@UAEPAXI@Z     00437600 f i ssg_vs2008_32:ssgRoot.obj
 0001:00036600       ??_EssgRoot@@UAEPAXI@Z     00437600 f i ssg_vs2008_32:ssgRoot.obj
 0001:00036620       ?sgCompareFloat@@YAHMMM@Z  00437620 f i ssg_vs2008_32:ssgOptimiser.obj
 0001:00036660       ?sgCompareVec2@@YAHQBM0M@Z 00437660 f i ssg_vs2008_32:ssgOptimiser.obj
 0001:000366f0       ?sgCompareVec3@@YAHQBM0M@Z 004376f0 f i ssg_vs2008_32:ssgOptimiser.obj
 0001:000367a0       ?sgCompareVec4@@YAHQBM0M@Z 004377a0 f i ssg_vs2008_32:ssgOptimiser.obj
 0001:00036880       ?getNextParent@ssgEntity@@QAEPAVssgBranch@@XZ 00437880 f i ssg_vs2008_32:ssgOptimiser.obj
 0001:000368a0       ?getTransform@ssgBaseTransform@@QAEXQAY03M@Z 004378a0 f i ssg_vs2008_32:ssgOptimiser.obj
 0001:000368c0       ?newVerts@ssgVertSplitter@@QAEHXZ 004378c0 f i ssg_vs2008_32:ssgOptimiser.obj
 0001:000368d0       ?frac@@YAMM@Z              004378d0 f i ssg_vs2008_32:ssgOptimiser.obj
 0001:00036900       ??0OptVertex@@QAE@QAM00@Z  00437900 f i ssg_vs2008_32:ssgOptimiser.obj
 0001:00036960       ??0OptVertex@@QAE@PAU0@@Z  00437960 f i ssg_vs2008_32:ssgOptimiser.obj
 0001:000369b0       ?equal@OptVertex@@QAEHQAM00H@Z 004379b0 f i ssg_vs2008_32:ssgOptimiser.obj
 0001:00036b10       ?bump@OptVertex@@QAEXXZ    00437b10 f i ssg_vs2008_32:ssgOptimiser.obj
 0001:00036b20       ?dent@OptVertex@@QAEXXZ    00437b20 f i ssg_vs2008_32:ssgOptimiser.obj
 0001:00036b30       ?getCount@OptVertex@@QAEHXZ 00437b30 f i ssg_vs2008_32:ssgOptimiser.obj
 0001:00036b40       ??0OptVertexList@@QAE@PAVssgState@@H@Z 00437b40 f i ssg_vs2008_32:ssgOptimiser.obj
 0001:00036b90       ??1OptVertexList@@QAE@XZ   00437b90 f i ssg_vs2008_32:ssgOptimiser.obj
 0001:00036be0       ?getLeastConnected@OptVertexList@@QAEHPAF0@Z 00437be0 f i ssg_vs2008_32:ssgOptimiser.obj
 0001:00036ce0       ?sub@OptVertexList@@QAEXF@Z 00437ce0 f i ssg_vs2008_32:ssgOptimiser.obj
 0001:00036d40       ?add@OptVertexList@@QAEFFFF@Z 00437d40 f   ssg_vs2008_32:ssgOptimiser.obj
 0001:00036dd0       ?makeNormals@OptVertexList@@QAEXXZ 00437dd0 f   ssg_vs2008_32:ssgOptimiser.obj
 0001:00037010       ?find@OptVertexList@@QAEFQAM00H@Z 00438010 f   ssg_vs2008_32:ssgOptimiser.obj
 0001:00037080       ?add@OptVertexList@@QAEFQAM00@Z 00438080 f   ssg_vs2008_32:ssgOptimiser.obj
 0001:000370f0       ?follow@OptVertexList@@QAEXHHHHPAHPAF1@Z 004380f0 f   ssg_vs2008_32:ssgOptimiser.obj
 0001:000376a0       ?flatten@@YAXPAVssgBranch@@PAVssgEntity@@QAY03M@Z 004386a0 f   ssg_vs2008_32:ssgOptimiser.obj
 0001:00037940       ?ssgFlatten@@YAXPAVssgEntity@@@Z 00438940 f   ssg_vs2008_32:ssgOptimiser.obj
 0001:00037a30       ?ssgTransTool@@YAXPAVssgEntity@@QAY03$$CBM@Z 00438a30 f   ssg_vs2008_32:ssgOptimiser.obj
 0001:00037bc0       ?add@OptVertexList@@QAEFQAM00000000@Z 00438bc0 f   ssg_vs2008_32:ssgOptimiser.obj
 0001:00037c20       ?add@OptVertexList@@QAEXPAVssgLeaf@@@Z 00438c20 f   ssg_vs2008_32:ssgOptimiser.obj
 0001:00037d30       ?ssgArrayTool@@YAXPAVssgEntity@@PAM_N@Z 00438d30 f   ssg_vs2008_32:ssgOptimiser.obj
 0001:000383a0       ?ssgStripify@@YAXPAVssgEntity@@@Z 004393a0 f   ssg_vs2008_32:ssgOptimiser.obj
 0001:00038c00       ?init@ssgHit@@QAEXXZ       00439c00 f i ssg_vs2008_32:ssgIsect.obj
 0001:00038c10       ?_ssgPushPath@@YAXPAVssgEntity@@@Z 00439c10 f   ssg_vs2008_32:ssgIsect.obj
 0001:00038c30       ?_ssgPopPath@@YAXXZ        00439c30 f   ssg_vs2008_32:ssgIsect.obj
 0001:00038c40       ?_ssgAddHit@@YAXPAVssgLeaf@@HQAY03MQAM@Z 00439c40 f   ssg_vs2008_32:ssgIsect.obj
 0001:00038ce0       ?ssgIsect@@YAHPAVssgBranch@@PAVsgSphere@@QAY03MPAPAVssgHit@@@Z 00439ce0 f   ssg_vs2008_32:ssgIsect.obj
 0001:00038d20       ?ssgHOT@@YAHPAVssgBranch@@QAMQAY03MPAPAVssgHit@@@Z 00439d20 f   ssg_vs2008_32:ssgIsect.obj
 0001:00038d70       ?ssgLOS@@YAHPAVssgBranch@@QAMQAY03MPAPAVssgHit@@@Z 00439d70 f   ssg_vs2008_32:ssgIsect.obj
 0001:00038dc0       ??0ssgHit@@QAE@XZ          00439dc0 f i ssg_vs2008_32:ssgIsect.obj
 0001:00038de0       ?_ssgReadError@@YAHXZ      00439de0 f   ssg_vs2008_32:ssgIO.obj
 0001:00038df0       ?_ssgWriteError@@YAHXZ     00439df0 f   ssg_vs2008_32:ssgIO.obj
 0001:00038e00       ?_ssgReadFloat@@YAXPAU_iobuf@@PAM@Z 00439e00 f   ssg_vs2008_32:ssgIO.obj
 0001:00038e30       ?_ssgWriteFloat@@YAXPAU_iobuf@@M@Z 00439e30 f   ssg_vs2008_32:ssgIO.obj
 0001:00038e60       ?_ssgReadUInt@@YAXPAU_iobuf@@PAI@Z 00439e60 f   ssg_vs2008_32:ssgIO.obj
 0001:00038e90       ?_ssgWriteUInt@@YAXPAU_iobuf@@I@Z 00439e90 f   ssg_vs2008_32:ssgIO.obj
 0001:00038ec0       ?_ssgReadInt@@YAXPAU_iobuf@@PAH@Z 00439ec0 f   ssg_vs2008_32:ssgIO.obj
 0001:00038ef0       ?_ssgWriteInt@@YAXPAU_iobuf@@H@Z 00439ef0 f   ssg_vs2008_32:ssgIO.obj
 0001:00038f20       ?_ssgReadUShort@@YAXPAU_iobuf@@PAG@Z 00439f20 f   ssg_vs2008_32:ssgIO.obj
 0001:00038f50       ?_ssgWriteUShort@@YAXPAU_iobuf@@G@Z 00439f50 f   ssg_vs2008_32:ssgIO.obj
 0001:00038f80       ?_ssgReadShort@@YAXPAU_iobuf@@PAF@Z 00439f80 f   ssg_vs2008_32:ssgIO.obj
 0001:00038fb0       ?_ssgWriteShort@@YAXPAU_iobuf@@F@Z 00439fb0 f   ssg_vs2008_32:ssgIO.obj
 0001:00038fe0       ?_ssgReadFloat@@YAXPAU_iobuf@@IPAM@Z 00439fe0 f   ssg_vs2008_32:ssgIO.obj
 0001:00039010       ?_ssgWriteFloat@@YAXPAU_iobuf@@IPBM@Z 0043a010 f   ssg_vs2008_32:ssgIO.obj
 0001:00039040       ?_ssgReadBytes@@YAXPAU_iobuf@@IPAX@Z 0043a040 f   ssg_vs2008_32:ssgIO.obj
 0001:00039070       ?_ssgWriteBytes@@YAXPAU_iobuf@@IPBX@Z 0043a070 f   ssg_vs2008_32:ssgIO.obj
 0001:000390a0       ?_ssgReadUShort@@YAXPAU_iobuf@@IPAG@Z 0043a0a0 f   ssg_vs2008_32:ssgIO.obj
 0001:000390d0       ?_ssgWriteUShort@@YAXPAU_iobuf@@IPBG@Z 0043a0d0 f   ssg_vs2008_32:ssgIO.obj
 0001:00039100       ?_ssgReadShort@@YAXPAU_iobuf@@IPAF@Z 0043a100 f   ssg_vs2008_32:ssgIO.obj
 0001:00039130       ?_ssgWriteShort@@YAXPAU_iobuf@@IPBF@Z 0043a130 f   ssg_vs2008_32:ssgIO.obj
 0001:00039160       ?_ssgReadUInt@@YAXPAU_iobuf@@IPAI@Z 0043a160 f   ssg_vs2008_32:ssgIO.obj
 0001:00039190       ?_ssgWriteUInt@@YAXPAU_iobuf@@IPBI@Z 0043a190 f   ssg_vs2008_32:ssgIO.obj
 0001:000391c0       ?_ssgReadInt@@YAXPAU_iobuf@@IPAH@Z 0043a1c0 f   ssg_vs2008_32:ssgIO.obj
 0001:000391f0       ?_ssgWriteInt@@YAXPAU_iobuf@@IPBH@Z 0043a1f0 f   ssg_vs2008_32:ssgIO.obj
 0001:00039220       ?_ssgReadString@@YAXPAU_iobuf@@PAPAD@Z 0043a220 f   ssg_vs2008_32:ssgIO.obj
 0001:000392a0       ?_ssgWriteString@@YAXPAU_iobuf@@PBD@Z 0043a2a0 f   ssg_vs2008_32:ssgIO.obj
 0001:000392d0       ?_ssgReadVec2@@YAXPAU_iobuf@@QAM@Z 0043a2d0 f   ssg_vs2008_32:ssgIO.obj
 0001:000392f0       ?_ssgWriteVec2@@YAXPAU_iobuf@@QBM@Z 0043a2f0 f   ssg_vs2008_32:ssgIO.obj
 0001:00039310       ?_ssgReadVec3@@YAXPAU_iobuf@@QAM@Z 0043a310 f   ssg_vs2008_32:ssgIO.obj
 0001:00039330       ?_ssgWriteVec3@@YAXPAU_iobuf@@QBM@Z 0043a330 f   ssg_vs2008_32:ssgIO.obj
 0001:00039350       ?_ssgReadVec4@@YAXPAU_iobuf@@QAM@Z 0043a350 f   ssg_vs2008_32:ssgIO.obj
 0001:00039370       ?_ssgWriteVec4@@YAXPAU_iobuf@@QBM@Z 0043a370 f   ssg_vs2008_32:ssgIO.obj
 0001:00039390       ?_ssgReadMat4@@YAXPAU_iobuf@@QAY03M@Z 0043a390 f   ssg_vs2008_32:ssgIO.obj
 0001:000393b0       ?_ssgWriteMat4@@YAXPAU_iobuf@@QAY03$$CBM@Z 0043a3b0 f   ssg_vs2008_32:ssgIO.obj
 0001:000393d0       ?sgMakeCoordMat4@@YAXQAY03MQBM1@Z 0043a3d0 f i ssg_vs2008_32:ssgContext.obj
 0001:00039410       ?sgMakeCoordMat4@@YAXQAY03MPBUsgCoord@@@Z 0043a410 f i ssg_vs2008_32:ssgContext.obj
 0001:00039450       ??0sgFrustum@@QAE@XZ       0043a450 f i ssg_vs2008_32:ssgContext.obj
 0001:00039490       ?setFrustum@sgFrustum@@QAEXMMMMMM@Z 0043a490 f i ssg_vs2008_32:ssgContext.obj
 0001:000394e0       ?setOrtho@sgFrustum@@QAEXMMMMMM@Z 0043a4e0 f i ssg_vs2008_32:ssgContext.obj
 0001:00039530       ?getMat4@sgFrustum@@QAEXQAY03M@Z 0043a530 f i ssg_vs2008_32:ssgContext.obj
 0001:00039550       ?getLeft@sgFrustum@@QBEMXZ 0043a550 f i ssg_vs2008_32:ssgContext.obj
 0001:00039560       ?getRight@sgFrustum@@QBEMXZ 0043a560 f i ssg_vs2008_32:ssgContext.obj
 0001:00039570       ?getBot@sgFrustum@@QBEMXZ  0043a570 f i ssg_vs2008_32:ssgContext.obj
 0001:00039580       ?getTop@sgFrustum@@QBEMXZ  0043a580 f i ssg_vs2008_32:ssgContext.obj
 0001:00039590       ?getNear@sgFrustum@@QBEMXZ 0043a590 f i ssg_vs2008_32:ssgContext.obj
 0001:000395a0       ?getFar@sgFrustum@@QBEMXZ  0043a5a0 f i ssg_vs2008_32:ssgContext.obj
 0001:000395b0       ?getFOV@sgFrustum@@QBEXPAM0@Z 0043a5b0 f i ssg_vs2008_32:ssgContext.obj
 0001:000395e0       ?setFOV@sgFrustum@@QAEXMM@Z 0043a5e0 f i ssg_vs2008_32:ssgContext.obj
 0001:00039650       ?getOrtho@sgFrustum@@QBEXPAM0@Z 0043a650 f i ssg_vs2008_32:ssgContext.obj
 0001:00039680       ?setOrtho@sgFrustum@@QAEXMM@Z 0043a680 f i ssg_vs2008_32:ssgContext.obj
 0001:000396f0       ?getNearFar@sgFrustum@@QBEXPAM0@Z 0043a6f0 f i ssg_vs2008_32:ssgContext.obj
 0001:00039710       ?setNearFar@sgFrustum@@QAEXMM@Z 0043a710 f i ssg_vs2008_32:ssgContext.obj
 0001:00039730       ?isOrtho@sgFrustum@@QBEHXZ 0043a730 f i ssg_vs2008_32:ssgContext.obj
 0001:00039740       ?isCurrent@ssgContext@@QAEHXZ 0043a740 f   ssg_vs2008_32:ssgContext.obj
 0001:00039750       ?forceBasicState@ssgContext@@QAEXXZ 0043a750 f   ssg_vs2008_32:ssgContext.obj
 0001:00039790       ?makeCurrent@ssgContext@@QAEXXZ 0043a790 f   ssg_vs2008_32:ssgContext.obj
 0001:000397a0       ?getCameraPosition@ssgContext@@QAEXQAM@Z 0043a7a0 f   ssg_vs2008_32:ssgContext.obj
 0001:000397d0       ?overrideState@ssgContext@@QAEXPAVssgState@@@Z 0043a7d0 f   ssg_vs2008_32:ssgContext.obj
 0001:000397e0       ?overrideTexture@ssgContext@@QAEXH@Z 0043a7e0 f   ssg_vs2008_32:ssgContext.obj
 0001:000397f0       ?overrideCullface@ssgContext@@QAEXH@Z 0043a7f0 f   ssg_vs2008_32:ssgContext.obj
 0001:00039800       ?setFrustum@ssgContext@@QAEXMMMMMM@Z 0043a800 f   ssg_vs2008_32:ssgContext.obj
 0001:00039850       ?setOrtho@ssgContext@@QAEXMMMMMM@Z 0043a850 f   ssg_vs2008_32:ssgContext.obj
 0001:000398a0       ?getNearFar@ssgContext@@QAEXPAM0@Z 0043a8a0 f   ssg_vs2008_32:ssgContext.obj
 0001:000398c0       ?getFOV@ssgContext@@QAEXPAM0@Z 0043a8c0 f   ssg_vs2008_32:ssgContext.obj
 0001:000398f0       ?setNearFar@ssgContext@@QAEXMM@Z 0043a8f0 f   ssg_vs2008_32:ssgContext.obj
 0001:00039910       ?getOrtho@ssgContext@@QAEXPAM0@Z 0043a910 f   ssg_vs2008_32:ssgContext.obj
 0001:00039940       ?setOrtho@ssgContext@@QAEXMM@Z 0043a940 f   ssg_vs2008_32:ssgContext.obj
 0001:00039960       ?setFOV@ssgContext@@QAEXMM@Z 0043a960 f   ssg_vs2008_32:ssgContext.obj
 0001:00039980       ?setCamera@ssgContext@@QAEXQAY03M@Z 0043a980 f   ssg_vs2008_32:ssgContext.obj
 0001:000399c0       ?setCamera@ssgContext@@QAEXPBUsgCoord@@@Z 0043a9c0 f   ssg_vs2008_32:ssgContext.obj
 0001:00039a40       ?setCameraLookAt@ssgContext@@QAEXQBM00@Z 0043aa40 f   ssg_vs2008_32:ssgContext.obj
 0001:00039a80       ?setCameraLookAt@ssgContext@@QAEXQBM0@Z 0043aa80 f   ssg_vs2008_32:ssgContext.obj
 0001:00039ad0       ?pushProjectionMatrix@ssgContext@@QAEXPAVsgFrustum@@@Z 0043aad0 f   ssg_vs2008_32:ssgContext.obj
 0001:00039b20       ?getProjectionMatrix@ssgContext@@QAEXQAY03M@Z 0043ab20 f   ssg_vs2008_32:ssgContext.obj
 0001:00039b40       ?getModelviewMatrix@ssgContext@@QAEXQAY03M@Z 0043ab40 f   ssg_vs2008_32:ssgContext.obj
 0001:00039b60       ?loadModelviewMatrix@ssgContext@@QAEXXZ 0043ab60 f   ssg_vs2008_32:ssgContext.obj
 0001:00039b70       ?loadModelviewMatrix@ssgContext@@QAEXQAY03M@Z 0043ab70 f   ssg_vs2008_32:ssgContext.obj
 0001:00039b80       ?cull@ssgContext@@QAEXPAVssgBranch@@@Z 0043ab80 f   ssg_vs2008_32:ssgContext.obj
 0001:00039ba0       ?removeClipPlanes@ssgContext@@QAEXXZ 0043aba0 f   ssg_vs2008_32:ssgContext.obj
 0001:00039bd0       ?applyClipPlanes@ssgContext@@QAEXXZ 0043abd0 f   ssg_vs2008_32:ssgContext.obj
 0001:00039c50       ??1ssgContext@@QAE@XZ      0043ac50 f   ssg_vs2008_32:ssgContext.obj
 0001:00039c90       ??0ssgContext@@QAE@XZ      0043ac90 f   ssg_vs2008_32:ssgContext.obj
 0001:00039ef0       ?pushProjectionMatrix@ssgContext@@QAEXXZ 0043aef0 f   ssg_vs2008_32:ssgContext.obj
 0001:00039f00       ?loadProjectionMatrix@ssgContext@@QAEXXZ 0043af00 f   ssg_vs2008_32:ssgContext.obj
 0001:00039f20       ??0ObjLoader@@QAE@PBVssgLoaderOptions@@@Z 0043af20 f   ssg_vs2008_32:ssgLoadXPlaneObj.obj
 0001:00039f50       ??1ObjLoader@@QAE@XZ       0043af50 f   ssg_vs2008_32:ssgLoadXPlaneObj.obj
 0001:00039f60       ?get_state@ObjLoader@@AAEPAVssgState@@PBD@Z 0043af60 f   ssg_vs2008_32:ssgLoadXPlaneObj.obj
 0001:0003a130       ?fgets@ObjLoader@@AAEPADPADHPAU_iobuf@@@Z 0043b130 f   ssg_vs2008_32:ssgLoadXPlaneObj.obj
 0001:0003a1a0       ?getline@ObjLoader@@AAEPADPADIPAU_iobuf@@@Z 0043b1a0 f   ssg_vs2008_32:ssgLoadXPlaneObj.obj
 0001:0003a210       ?getTextureName@ObjLoader@@AAEPADPBDPADI@Z 0043b210 f   ssg_vs2008_32:ssgLoadXPlaneObj.obj
 0001:0003a2a0       ?file_extension@ObjLoader@@AAEPBDPBD@Z 0043b2a0 f   ssg_vs2008_32:ssgLoadXPlaneObj.obj
 0001:0003a2e0       ?load@ObjLoader@@QAEPAVssgEntity@@PBD@Z 0043b2e0 f   ssg_vs2008_32:ssgLoadXPlaneObj.obj
 0001:0003ad30       ?ssgLoadXPlaneOBJ@@YAPAVssgEntity@@PBDPBVssgLoaderOptions@@@Z 0043bd30 f   ssg_vs2008_32:ssgLoadXPlaneObj.obj
 0001:0003ad60       ?ssgLoadMDLTexture@@YA_NPBDPAUssgTextureInfo@@@Z 0043bd60 f   ssg_vs2008_32:ssgLoadMDL_BGLTexture.obj
 0001:0003aef0       ?makeConsistant@ssgSGIHeader@@QAEXXZ 0043bef0 f   ssg_vs2008_32:ssgLoadSGI.obj
 0001:0003afc0       ?swab_short@ssgSGIHeader@@IAEXPAG@Z 0043bfc0 f   ssg_vs2008_32:ssgLoadSGI.obj
 0001:0003aff0       ?swab_int@ssgSGIHeader@@IAEXPAI@Z 0043bff0 f   ssg_vs2008_32:ssgLoadSGI.obj
 0001:0003b030       ?swab_int_array@ssgSGIHeader@@IAEXPAHH@Z 0043c030 f   ssg_vs2008_32:ssgLoadSGI.obj
 0001:0003b090       ?readByte@ssgSGIHeader@@IAEEXZ 0043c090 f   ssg_vs2008_32:ssgLoadSGI.obj
 0001:0003b0b0       ?readShort@ssgSGIHeader@@IAEGXZ 0043c0b0 f   ssg_vs2008_32:ssgLoadSGI.obj
 0001:0003b0e0       ?readInt@ssgSGIHeader@@IAEIXZ 0043c0e0 f   ssg_vs2008_32:ssgLoadSGI.obj
 0001:0003b110       ?getRow@ssgSGIHeader@@QAEXPAEHH@Z 0043c110 f   ssg_vs2008_32:ssgLoadSGI.obj
 0001:0003b210       ?getPlane@ssgSGIHeader@@QAEXPAEH@Z 0043c210 f   ssg_vs2008_32:ssgLoadSGI.obj
 0001:0003b270       ?getImage@ssgSGIHeader@@QAEXPAE@Z 0043c270 f   ssg_vs2008_32:ssgLoadSGI.obj
 0001:0003b2e0       ??0ssgSGIHeader@@QAE@XZ    0043c2e0 f   ssg_vs2008_32:ssgLoadSGI.obj
 0001:0003b300       ??1ssgSGIHeader@@QAE@XZ    0043c300 f   ssg_vs2008_32:ssgLoadSGI.obj
 0001:0003b350       ?readHeader@ssgSGIHeader@@QAEXXZ 0043c350 f   ssg_vs2008_32:ssgLoadSGI.obj
 0001:0003b4d0       ?openFile@ssgSGIHeader@@QAE_NPBD@Z 0043c4d0 f   ssg_vs2008_32:ssgLoadSGI.obj
 0001:0003b630       ??_GssgSGIHeader@@QAEPAXI@Z 0043c630 f i ssg_vs2008_32:ssgLoadSGI.obj
 0001:0003b650       ??0ssgSGIHeader@@QAE@PBDPAUssgTextureInfo@@@Z 0043c650 f   ssg_vs2008_32:ssgLoadSGI.obj
 0001:0003b990       ?ssgLoadSGI@@YA_NPBDPAUssgTextureInfo@@@Z 0043c990 f   ssg_vs2008_32:ssgLoadSGI.obj
 0001:0003baf0       ?ReadFileIntoBuffer@@YAHPBDAAPAE1AAK@Z 0043caf0 f   ssg_vs2008_32:ssgLoadPCX.obj
 0001:0003bb80       ?ssgLoadPCX@@YA_NPBDPAUssgTextureInfo@@@Z 0043cb80 f   ssg_vs2008_32:ssgLoadPCX.obj
 0001:0003bf80       ?ssgLoadBMP@@YA_NPBDPAUssgTextureInfo@@@Z 0043cf80 f   ssg_vs2008_32:ssgLoadBMP.obj
 0001:0003c4a0       ?ssgGetNumTexelsLoaded@@YAHXZ 0043d4a0 f   ssg_vs2008_32:ssgLoadTexture.obj
 0001:0003c4b0       ?ssgMakeMipMaps@@YA_NPAEHHH_N@Z 0043d4b0 f   ssg_vs2008_32:ssgLoadTexture.obj
 0001:0003c9c0       ?ssgAddTextureFormat@@YAXPBDP6A_N0PAUssgTextureInfo@@@Z@Z 0043d9c0 f   ssg_vs2008_32:ssgLoadTexture.obj
 0001:0003caa0       ?ssgConvertTexture@@YA_NPADPBD@Z 0043daa0 f   ssg_vs2008_32:ssgLoadTexture.obj
 0001:0003cbc0       ?ssgLoadTexture@@YA_NPBDPAUssgTextureInfo@@@Z 0043dbc0 f   ssg_vs2008_32:ssgLoadTexture.obj
 0001:0003cd00       ?get16u@@YAHPBE@Z          0043dd00 f i ssg_vs2008_32:ssgLoadTGA.obj
 0001:0003cd20       ?ssgLoadTGA@@YA_NPBDPAUssgTextureInfo@@@Z 0043dd20 f   ssg_vs2008_32:ssgLoadTGA.obj
 0001:0003d3a0       ?ulEndianSwap@@YAXPAI@Z    0043e3a0 f i ssg_vs2008_32:ssgLoadMDL.obj
 0001:0003d3d0       ?ulEndianSwap@@YAXPAG@Z    0043e3d0 f i ssg_vs2008_32:ssgLoadMDL.obj
 0001:0003d3f0       ?ulEndianSwap@@YAXPAM@Z    0043e3f0 f i ssg_vs2008_32:ssgLoadMDL.obj
 0001:0003d420       ?ulEndianLittle16@@YAGG@Z  0043e420 f i ssg_vs2008_32:ssgLoadMDL.obj
 0001:0003d430       ?ulEndianLittle32@@YAII@Z  0043e430 f i ssg_vs2008_32:ssgLoadMDL.obj
 0001:0003d440       ?ulEndianLittleFloat@@YAMM@Z 0043e440 f i ssg_vs2008_32:ssgLoadMDL.obj
 0001:0003d450       ?ulEndianReadLittle16@@YAGPAU_iobuf@@@Z 0043e450 f i ssg_vs2008_32:ssgLoadMDL.obj
 0001:0003d470       ?ulEndianReadLittle32@@YAIPAU_iobuf@@@Z 0043e470 f i ssg_vs2008_32:ssgLoadMDL.obj
 0001:0003d490       ?ulEndianReadLittleFloat@@YAMPAU_iobuf@@@Z 0043e490 f i ssg_vs2008_32:ssgLoadMDL.obj
 0001:0003d4b0       ?sgXformVec3@@YAXQAMQAY03$$CBM@Z 0043e4b0 f i ssg_vs2008_32:ssgLoadMDL.obj
 0001:0003d4d0       ?sgXformPnt3@@YAXQAMQAY03$$CBM@Z 0043e4d0 f i ssg_vs2008_32:ssgLoadMDL.obj
 0001:0003d4f0       ?sgAddVec3@@YAXQAMQBM@Z    0043e4f0 f i ssg_vs2008_32:ssgLoadMDL.obj
 0001:0003d520       ?sgDistanceVec2@@YAMQBM0@Z 0043e520 f i ssg_vs2008_32:ssgLoadMDL.obj
 0001:0003ed30       ?ParseBGL@@YAXPAU_iobuf@@@Z 0043fd30 f   ssg_vs2008_32:ssgLoadMDL.obj
 0001:00040640       ?FindBGLBeginRIFF@@YAXPAU_iobuf@@@Z 00441640 f   ssg_vs2008_32:ssgLoadMDL.obj
 0001:00040770       ?FindBGLBeginOldVersion@@YAXPAU_iobuf@@@Z 00441770 f   ssg_vs2008_32:ssgLoadMDL.obj
 0001:000407e0       ?ssgLoadMDL@@YAPAVssgEntity@@PBDPBVssgLoaderOptions@@@Z 004417e0 f   ssg_vs2008_32:ssgLoadMDL.obj
 0001:00040df0       ?AscLinePreProcessor@@YAXPAD@Z 00441df0 f   ssg_vs2008_32:ssgLoadASC.obj
 0001:00040e40       ?set_sName@MeshStatusType@@QAEXPAD@Z 00441e40 f   ssg_vs2008_32:ssgLoadASC.obj
 0001:00040e90       ?CheckIndex@@YAXAAHH@Z     00441e90 f   ssg_vs2008_32:ssgLoadASC.obj
 0001:00041740       ?SetOrGetMaterial@@YAHPAD@Z 00442740 f   ssg_vs2008_32:ssgLoadASC.obj
 0001:00041e70       ?CheckWhetherMeshHasEnded@@YAXXZ 00442e70 f   ssg_vs2008_32:ssgLoadASC.obj
 0001:000421a0       ?ssgLoadASC@@YAPAVssgEntity@@PBDPBVssgLoaderOptions@@@Z 004431a0 f   ssg_vs2008_32:ssgLoadASC.obj
 0001:00042810       ?ssgSaveASC@@YAHPAU_iobuf@@PAVssgEntity@@@Z 00443810 f   ssg_vs2008_32:ssgSaveASC.obj
 0001:00042870       ?ssgSaveASC@@YAHPBDPAVssgEntity@@@Z 00443870 f   ssg_vs2008_32:ssgSaveASC.obj
 0001:000428c0       ?strstr@@YAPADPADPBD@Z     004438c0 f i ssg_vs2008_32:ssgLoadIV.obj
 0001:000428d0       ?raw_set@ssgSimpleList@@QAEXPADI@Z 004438d0 f i ssg_vs2008_32:ssgLoadIV.obj
 0001:000428f0       ?select@ssgSelector@@QAEXI@Z 004438f0 f i ssg_vs2008_32:ssgLoadIV.obj
 0001:00042930       ??0ssgListOfNodes@@QAE@H@Z 00443930 f i ssg_vs2008_32:ssgLoadIV.obj
 0001:000429b0       ?clone@ssgListOfNodes@@UAEPAVssgBase@@H@Z 004439b0 f i ssg_vs2008_32:ssgLoadIV.obj
 0001:000429c0       ?get@ssgListOfNodes@@QAEPAVssgBase@@I@Z 004439c0 f i ssg_vs2008_32:ssgLoadIV.obj
 0001:000429e0       ?add@ssgListOfNodes@@QAEXPAVssgBase@@@Z 004439e0 f i ssg_vs2008_32:ssgLoadIV.obj
 0001:00042a10       ?replace@ssgListOfNodes@@QAEXPAVssgBase@@I@Z 00443a10 f i ssg_vs2008_32:ssgLoadIV.obj
 0001:00042a30       ?print@ssgListOfNodes@@UAEXPAU_iobuf@@PADH@Z 00443a30 f i ssg_vs2008_32:ssgLoadIV.obj
 0001:00042a40       ??1ssgListOfNodes@@UAE@XZ  00443a40 f i ssg_vs2008_32:ssgLoadIV.obj
 0001:00042a50       ??0_nodeIndex@@QAE@XZ      00443a50 f i ssg_vs2008_32:ssgLoadIV.obj
 0001:00042ac0       ??1_nodeIndex@@QAE@XZ      00443ac0 f i ssg_vs2008_32:ssgLoadIV.obj
 0001:00042b00       ?insert@_nodeIndex@@QAEXPAVssgBase@@@Z 00443b00 f i ssg_vs2008_32:ssgLoadIV.obj
 0001:00042bd0       ?getEnableCullFace@_traversalState@@QAE_NXZ 00443bd0 f i ssg_vs2008_32:ssgLoadIV.obj
 0001:00042be0       ?getTransform@_traversalState@@QAEPAVssgTransform@@XZ 00443be0 f i ssg_vs2008_32:ssgLoadIV.obj
 0001:00042bf0       ?getVertices@_traversalState@@QAEPAVssgVertexArray@@XZ 00443bf0 f i ssg_vs2008_32:ssgLoadIV.obj
 0001:00042c00       ?getTextureCoordinates@_traversalState@@QAEPAVssgTexCoordArray@@XZ 00443c00 f i ssg_vs2008_32:ssgLoadIV.obj
 0001:00042c10       ?getTexture@_traversalState@@QAEPAVssgTexture@@XZ 00443c10 f i ssg_vs2008_32:ssgLoadIV.obj
 0001:00042c20       ?setTexture@_traversalState@@QAEXPAVssgTexture@@@Z 00443c20 f i ssg_vs2008_32:ssgLoadIV.obj
 0001:00042c30       ?clone@_traversalState@@QAEPAV1@XZ 00443c30 f i ssg_vs2008_32:ssgLoadIV.obj
 0001:00042c60       ??0_traversalState@@QAE@XZ 00443c60 f i ssg_vs2008_32:ssgLoadIV.obj
 0001:00042c80       ??_G_nodeIndex@@QAEPAXI@Z  00443c80 f i ssg_vs2008_32:ssgLoadIV.obj
 0001:000430e0       ??_GssgLoaderWriterMesh@@QAEPAXI@Z 004440e0 f i ssg_vs2008_32:ssgLoadIV.obj
 0001:00043390       ??_EssgListOfNodes@@UAEPAXI@Z 00444390 f i ssg_vs2008_32:ssgLoadIV.obj
 0001:00043390       ??_GssgListOfNodes@@UAEPAXI@Z 00444390 f i ssg_vs2008_32:ssgLoadIV.obj
 0001:000433b0       ?ssgLoadIV@@YAPAVssgEntity@@PBDPBVssgLoaderOptions@@@Z 004443b0 f   ssg_vs2008_32:ssgLoadIV.obj
 0001:000440a0       ?ssgSaveIV@@YAHPBDPAVssgEntity@@@Z 004450a0 f   ssg_vs2008_32:ssgSaveIV.obj
 0001:00044100       ?sgZeroCoord@@YAXPAUsgCoord@@@Z 00445100 f i ssg_vs2008_32:ssgLoadVRML1.obj
 0001:00044120       ?sgSetCoord@@YAXPAUsgCoord@@MMMMMM@Z 00445120 f i ssg_vs2008_32:ssgLoadVRML1.obj
 0001:00044150       ?extract@_nodeIndex@@QAEPAVssgBase@@PAD@Z 00445150 f i ssg_vs2008_32:ssgLoadVRML1.obj
 0001:000441c0       ?setEnableCullFace@_traversalState@@QAEX_N@Z 004451c0 f i ssg_vs2008_32:ssgLoadVRML1.obj
 0001:000441d0       ?getFrontFace@_traversalState@@QAEIXZ 004451d0 f i ssg_vs2008_32:ssgLoadVRML1.obj
 0001:000441e0       ?setFrontFace@_traversalState@@QAEXI@Z 004451e0 f i ssg_vs2008_32:ssgLoadVRML1.obj
 0001:000441f0       ?setTransform@_traversalState@@QAEXPAVssgTransform@@@Z 004451f0 f i ssg_vs2008_32:ssgLoadVRML1.obj
 0001:00044200       ?setVertices@_traversalState@@QAEXPAVssgVertexArray@@@Z 00445200 f i ssg_vs2008_32:ssgLoadVRML1.obj
 0001:00044210       ?setTextureCoordinates@_traversalState@@QAEXPAVssgTexCoordArray@@@Z 00445210 f i ssg_vs2008_32:ssgLoadVRML1.obj
 0001:00044220       ?parseVec@@YA_NPAMH@Z      00445220 f   ssg_vs2008_32:ssgLoadVRML1.obj
 0001:00044270       ?parseIndexArray@@YAPAVssgIndexArray@@PAV_traversalState@@@Z 00445270 f   ssg_vs2008_32:ssgLoadVRML1.obj
 0001:00044500       ?vrml1_parseCoordinate3@@YA_NPAVssgBranch@@PAV_traversalState@@PAD@Z 00445500 f   ssg_vs2008_32:ssgLoadVRML1.obj
 0001:00044770       ?vrml1_parseTextureCoordinate2@@YA_NPAVssgBranch@@PAV_traversalState@@PAD@Z 00445770 f   ssg_vs2008_32:ssgLoadVRML1.obj
 0001:00044c70       ?vrml1_parseShapeHints@@YA_NPAVssgBranch@@PAV_traversalState@@PAD@Z 00445c70 f   ssg_vs2008_32:ssgLoadVRML1.obj
 0001:00044e50       ?vrml1_parseUseDirective@@YA_NPAVssgBranch@@PAV_traversalState@@PAD2@Z 00445e50 f   ssg_vs2008_32:ssgLoadVRML1.obj
 0001:00044ea0       ?parseUnidentified@@YA_NXZ 00445ea0 f   ssg_vs2008_32:ssgLoadVRML1.obj
 0001:00044f40       ?vrml1_parseCoordIndex@@YA_NPAVssgLoaderWriterMesh@@PAV_traversalState@@@Z 00445f40 f   ssg_vs2008_32:ssgLoadVRML1.obj
 0001:00045090       ?vrml1_parseTextureCoordIndex@@YA_NPAVssgLoaderWriterMesh@@PAV_traversalState@@@Z 00446090 f   ssg_vs2008_32:ssgLoadVRML1.obj
 0001:00045400       ?mergeTransformNodes@@YAXPAVssgTransform@@00@Z 00446400 f   ssg_vs2008_32:ssgLoadVRML1.obj
 0001:00045f60       ?applyTransform@@YAXPAVssgTransform@@PAV_traversalState@@@Z 00446f60 f   ssg_vs2008_32:ssgLoadVRML1.obj
 0001:00046010       ?ssgLoadVRML1@@YAPAVssgEntity@@PBDPBVssgLoaderOptions@@@Z 00447010 f   ssg_vs2008_32:ssgLoadVRML1.obj
 0001:00046210       ?vrml1_parseMatrixTransform@@YA_NPAVssgBranch@@PAV_traversalState@@PAD@Z 00447210 f   ssg_vs2008_32:ssgLoadVRML1.obj
 0001:00046320       ?vrml1_parseScale@@YA_NPAVssgBranch@@PAV_traversalState@@PAD@Z 00447320 f   ssg_vs2008_32:ssgLoadVRML1.obj
 0001:00046450       ?vrml1_parseRotation@@YA_NPAVssgBranch@@PAV_traversalState@@PAD@Z 00447450 f   ssg_vs2008_32:ssgLoadVRML1.obj
 0001:00046590       ?vrml1_parseTranslation@@YA_NPAVssgBranch@@PAV_traversalState@@PAD@Z 00447590 f   ssg_vs2008_32:ssgLoadVRML1.obj
 0001:00046b10       ?ssgSaveVRML1@@YAHPBDPAVssgEntity@@@Z 00447b10 f   ssg_vs2008_32:ssgSaveVRML1.obj
 0001:00047490       ?ssgSaveQHI@@YAHPBDPAVssgEntity@@@Z 00448490 f   ssg_vs2008_32:ssgSaveQHI.obj
 0001:00047690       ?strchr@@YAPADPADH@Z       00448690 f i ssg_vs2008_32:ssgLoadATG.obj
 0001:000476f0       ?ssgGetValuesFromLastATGFile@@YAXPAN000@Z 004486f0 f   ssg_vs2008_32:ssgLoadATG.obj
 0001:000482e0       ?ssgLoadATG@@YAPAVssgEntity@@PBDPBVssgLoaderOptions@@@Z 004492e0 f   ssg_vs2008_32:ssgLoadATG.obj
 0001:00048480       ?ssgSaveATG@@YAHPBDPAVssgEntity@@@Z 00449480 f   ssg_vs2008_32:ssgSaveATG.obj
 0001:00048d90       ?ssgSetLoadOFFTranslucent@@YAXH@Z 00449d90 f   ssg_vs2008_32:ssgLoadOFF.obj
 0001:000495b0       ?ssgLoadOFF@@YAPAVssgEntity@@PBDPBVssgLoaderOptions@@@Z 0044a5b0 f   ssg_vs2008_32:ssgLoadOFF.obj
 0001:00049690       ?ssgSaveOFF@@YAHPBDPAVssgEntity@@@Z 0044a690 f   ssg_vs2008_32:ssgSaveOFF.obj
 0001:000499d0       ?ssgLoadM@@YAPAVssgEntity@@PBDPBVssgLoaderOptions@@@Z 0044a9d0 f   ssg_vs2008_32:ssgLoadM.obj
 0001:0004a200       ?ssgSaveM@@YAHPBDPAVssgEntity@@@Z 0044b200 f   ssg_vs2008_32:ssgSaveM.obj
 0001:0004a540       ?ssgLoadStrip@@YAPAVssgEntity@@PBDPBVssgLoaderOptions@@@Z 0044b540 f   ssg_vs2008_32:ssgLoadStrip.obj
 0001:0004ac30       ?getAbsTime@ulClock@@QBENXZ 0044bc30 f i ssg_vs2008_32:ssgLoadFLT.obj
 0001:0004ac40       ?setRanges@ssgRangeSelector@@QAEXPAMI@Z 0044bc40 f i ssg_vs2008_32:ssgLoadFLT.obj
 0001:0004ac70       ?getRange@ssgRangeSelector@@QAEMI@Z 0044bc70 f i ssg_vs2008_32:ssgLoadFLT.obj
 0001:0004aca0       ?compute_loop_time@ssgTimedSelector@@IAEXXZ 0044bca0 f i ssg_vs2008_32:ssgLoadFLT.obj
 0001:0004ace0       ?get_time@ssgTimedSelector@@IBENXZ 0044bce0 f i ssg_vs2008_32:ssgLoadFLT.obj
 0001:0004ad10       ?setDuration@ssgTimedSelector@@QAEXMHW4ssgAnimTimeMode@@@Z 0044bd10 f i ssg_vs2008_32:ssgLoadFLT.obj
 0001:0004ad90       ?control@ssgTimedSelector@@QAEXW4ssgAnimEnum@@@Z 0044bd90 f i ssg_vs2008_32:ssgLoadFLT.obj
 0001:0004ae50       ?setMode@ssgTimedSelector@@QAEXW4ssgAnimDirection@@@Z 0044be50 f i ssg_vs2008_32:ssgLoadFLT.obj
 0001:0004ae60       ?setLimits@ssgTimedSelector@@QAEXHH@Z 0044be60 f i ssg_vs2008_32:ssgLoadFLT.obj
 0001:0004af60       ?get16u@@YAIPBX@Z          0044bf60 f i ssg_vs2008_32:ssgLoadFLT.obj
 0001:0004af80       ?get32u@@YAIPBX@Z          0044bf80 f i ssg_vs2008_32:ssgLoadFLT.obj
 0001:0004b350       ??0fltState@@QAE@XZ        0044c350 f i ssg_vs2008_32:ssgLoadFLT.obj
 0001:0004b390       ??1fltState@@QAE@XZ        0044c390 f i ssg_vs2008_32:ssgLoadFLT.obj
 0001:0004b410       ??0fltNodeAttr@@QAE@XZ     0044c410 f i ssg_vs2008_32:ssgLoadFLT.obj
 0001:0004b430       ??1fltNodeAttr@@QAE@XZ     0044c430 f i ssg_vs2008_32:ssgLoadFLT.obj
 0001:0004de80       ??_GfltNodeAttr@@QAEPAXI@Z 0044ee80 f i ssg_vs2008_32:ssgLoadFLT.obj
 0001:0004eee0       ??_GfltState@@QAEPAXI@Z    0044fee0 f i ssg_vs2008_32:ssgLoadFLT.obj
 0001:00050350       ?ssgLoadFLT@@YAPAVssgEntity@@PBDPBVssgLoaderOptions@@@Z 00451350 f   ssg_vs2008_32:ssgLoadFLT.obj
 0001:00050400       ?getEntity@ulList@@QAEPAXI@Z 00451400 f i ssg_vs2008_32:ssgSaveFLT.obj
 0001:00050420       ?getNumEntities@ulList@@QBEHXZ 00451420 f i ssg_vs2008_32:ssgSaveFLT.obj
 0001:00050430       ?getNumBanks@ssgTween@@QAEHXZ 00451430 f i ssg_vs2008_32:ssgSaveFLT.obj
 0001:000513c0       ?ssgSaveFLT@@YAHPBDPAVssgEntity@@@Z 004523c0 f   ssg_vs2008_32:ssgSaveFLT.obj
 0001:00051530       ??0ssgSimpleStateList@@QAE@H@Z 00452530 f i ssg_vs2008_32:ssgLoadX.obj
 0001:000515b0       ?clone@ssgSimpleStateList@@UAEPAVssgBase@@H@Z 004525b0 f i ssg_vs2008_32:ssgLoadX.obj
 0001:000515c0       ?get@ssgSimpleStateList@@QAEPAPAVssgSimpleState@@I@Z 004525c0 f i ssg_vs2008_32:ssgLoadX.obj
 0001:000515e0       ?add@ssgSimpleStateList@@QAEXPAPAVssgSimpleState@@@Z 004525e0 f i ssg_vs2008_32:ssgLoadX.obj
 0001:00051610       ?print@ssgSimpleStateList@@UAEXPAU_iobuf@@PADH@Z 00452610 f i ssg_vs2008_32:ssgLoadX.obj
 0001:00051620       ??1ssgSimpleStateList@@UAE@XZ 00452620 f i ssg_vs2008_32:ssgLoadX.obj
 0001:00051630       ?getNumVertices@ssgLoaderWriterMesh@@QAEIXZ 00452630 f i ssg_vs2008_32:ssgLoadX.obj
 0001:00051640       ?getNumFaces@ssgLoaderWriterMesh@@QAEIXZ 00452640 f i ssg_vs2008_32:ssgLoadX.obj
 0001:00052940       ?TwoCharsToInt@@YAHDD@Z    00453940 f i ssg_vs2008_32:ssgLoadX.obj
 0001:00052b20       ?ssgLoadX@@YAPAVssgEntity@@PBDPBVssgLoaderOptions@@@Z 00453b20 f   ssg_vs2008_32:ssgLoadX.obj
 0001:00052c20       ??_EssgSimpleStateList@@UAEPAXI@Z 00453c20 f i ssg_vs2008_32:ssgLoadX.obj
 0001:00052c20       ??_GssgSimpleStateList@@UAEPAXI@Z 00453c20 f i ssg_vs2008_32:ssgLoadX.obj
 0001:00052c40       ?ssgSaveX@@YAHPBDPAVssgEntity@@@Z 00453c40 f   ssg_vs2008_32:ssgSaveX.obj
 0001:00052c60       ?selectStep@ssgSelector@@QAEXI@Z 00453c60 f i ssg_vs2008_32:ssgLoadMD2.obj
 0001:000534f0       ?ssgLoadMD2@@YAPAVssgEntity@@PBDPBVssgLoaderOptions@@@Z 004544f0 f   ssg_vs2008_32:ssgLoadMD2.obj
 0001:00053610       ?ssgLoadTRI@@YAPAVssgEntity@@PBDPBVssgLoaderOptions@@@Z 00454610 f   ssg_vs2008_32:ssgLoadTRI.obj
 0001:00053a60       ?ssgSaveTRI@@YAHPBDPAVssgEntity@@@Z 00454a60 f   ssg_vs2008_32:ssgSaveTRI.obj
 0001:00054dd0       ?ssgLoadOBJ@@YAPAVssgEntity@@PBDPBVssgLoaderOptions@@@Z 00455dd0 f   ssg_vs2008_32:ssgLoadOBJ.obj
 0001:00055260       ?ssgSaveOBJ@@YAHPBDPAVssgEntity@@@Z 00456260 f   ssg_vs2008_32:ssgSaveOBJ.obj
 0001:00055310       ?sgScaleVec4@@YAXQAMM@Z    00456310 f i ssg_vs2008_32:ssgLoadDXF.obj
 0001:00055340       ??0dxfVertArray@@QAE@XZ    00456340 f i ssg_vs2008_32:ssgLoadDXF.obj
 0001:000553b0       ?get@dxfVertArray@@QAEPAVdxfVert@@I@Z 004563b0 f i ssg_vs2008_32:ssgLoadDXF.obj
 0001:000553d0       ?add@dxfVertArray@@QAEXPBVdxfVert@@@Z 004563d0 f i ssg_vs2008_32:ssgLoadDXF.obj
 0001:00055400       ??1dxfVertArray@@UAE@XZ    00456400 f i ssg_vs2008_32:ssgLoadDXF.obj
 0001:00055410       ?isEqual@dxfVert@@QAEHPAV1@@Z 00456410 f   ssg_vs2008_32:ssgLoadDXF.obj
 0001:000568e0       ?ssgLoadDXF@@YAPAVssgEntity@@PBDPBVssgLoaderOptions@@@Z 004578e0 f   ssg_vs2008_32:ssgLoadDXF.obj
 0001:00056a50       ??_EdxfVertArray@@UAEPAXI@Z 00457a50 f i ssg_vs2008_32:ssgLoadDXF.obj
 0001:00056a50       ??_GdxfVertArray@@UAEPAXI@Z 00457a50 f i ssg_vs2008_32:ssgLoadDXF.obj
 0001:00056f00       ?ssgSaveDXF@@YAHPBDPAVssgEntity@@@Z 00457f00 f   ssg_vs2008_32:ssgSaveDXF.obj
 0001:00057130       ?ulEndianLittleArray16@@YAXPAGH@Z 00458130 f i ssg_vs2008_32:ssgLoadDOF.obj
 0001:00057140       ?ulEndianLittleArray32@@YAXPAIH@Z 00458140 f i ssg_vs2008_32:ssgLoadDOF.obj
 0001:00057150       ?ulEndianLittleArrayFloat@@YAXPAMH@Z 00458150 f i ssg_vs2008_32:ssgLoadDOF.obj
 0001:00057df0       ?ssgLoadDOF@@YAPAVssgEntity@@PBDPBVssgLoaderOptions@@@Z 00458df0 f   ssg_vs2008_32:ssgLoadDOF.obj
 0001:00057fb0       ?sgSubVec3@@YAXQAMQBM@Z    00458fb0 f i ssg_vs2008_32:ssgLoadASE.obj
 0001:00057fe0       ?setNum@ssgSimpleList@@QAEXI@Z 00458fe0 f i ssg_vs2008_32:ssgLoadASE.obj
 0001:00058020       ?clrTraversalMaskBits@ssgEntity@@QAEXH@Z 00459020 f i ssg_vs2008_32:ssgLoadASE.obj
 0001:00058030       ?setNum@ssgAnimTransform@@QAEXI@Z 00459030 f i ssg_vs2008_32:ssgLoadASE.obj
 0001:00058080       ?setATransform@ssgAnimTransform@@QAEXQAY03MI@Z 00459080 f i ssg_vs2008_32:ssgLoadASE.obj
 0001:000580b0       ??0aseMesh@@QAE@XZ         004590b0 f   ssg_vs2008_32:ssgLoadASE.obj
 0001:000580d0       ??1aseMesh@@QAE@XZ         004590d0 f   ssg_vs2008_32:ssgLoadASE.obj
 0001:00058100       ??0aseObject@@QAE@W4Type@0@@Z 00459100 f   ssg_vs2008_32:ssgLoadASE.obj
 0001:00058120       ??_GaseMesh@@QAEPAXI@Z     00459120 f i ssg_vs2008_32:ssgLoadASE.obj
 0001:0005adb0       ??1aseObject@@QAE@XZ       0045bdb0 f   ssg_vs2008_32:ssgLoadASE.obj
 0001:0005ae20       ??_GaseObject@@QAEPAXI@Z   0045be20 f i ssg_vs2008_32:ssgLoadASE.obj
 0001:0005bcf0       ?ssgLoadASE@@YAPAVssgEntity@@PBDPBVssgLoaderOptions@@@Z 0045ccf0 f   ssg_vs2008_32:ssgLoadASE.obj
 0001:0005c800       ?ssgSaveASE@@YAHPAU_iobuf@@PAVssgEntity@@@Z 0045d800 f   ssg_vs2008_32:ssgSaveASE.obj
 0001:0005c900       ?ssgSaveASE@@YAHPBDPAVssgEntity@@@Z 0045d900 f   ssg_vs2008_32:ssgSaveASE.obj
 0001:0005cde0       ?ssgSaveAC@@YAHPBDPAVssgEntity@@@Z 0045dde0 f   ssg_vs2008_32:ssgSaveAC.obj
 0001:0005d040       ?sgAddVec2@@YAXQAMQBM@Z    0045e040 f i ssg_vs2008_32:ssgLoad3ds.obj
 0001:0005d060       ??0_ssg3dsStructureNode@@QAE@XZ 0045e060 f i ssg_vs2008_32:ssgLoad3ds.obj
 0001:0005eca0       ?ssgLoad3ds@@YAPAVssgEntity@@PBDPBVssgLoaderOptions@@@Z 0045fca0 f   ssg_vs2008_32:ssgLoad3ds.obj
 0001:0005f280       ?ulEndianWriteLittle16@@YAIPAU_iobuf@@G@Z 00460280 f i ssg_vs2008_32:ssgSave3ds.obj
 0001:0005f2a0       ?ulEndianWriteLittle32@@YAIPAU_iobuf@@I@Z 004602a0 f i ssg_vs2008_32:ssgSave3ds.obj
 0001:0005f300       ??0_ssgSave3dsData@@QAE@PAXII@Z 00460300 f i ssg_vs2008_32:ssgSave3ds.obj
 0001:0005f330       ??1_ssgSave3dsData@@QAE@XZ 00460330 f i ssg_vs2008_32:ssgSave3ds.obj
 0001:0005f360       ?size@_ssgSave3dsData@@QAEIXZ 00460360 f i ssg_vs2008_32:ssgSave3ds.obj
 0001:0005f380       ?write@_ssgSave3dsData@@QAEXXZ 00460380 f i ssg_vs2008_32:ssgSave3ds.obj
 0001:0005f3b0       ?append@_ssgSave3dsData@@QAEXPAV1@@Z 004603b0 f i ssg_vs2008_32:ssgSave3ds.obj
 0001:0005f3c0       ??_G_ssgSave3dsData@@QAEPAXI@Z 004603c0 f i ssg_vs2008_32:ssgSave3ds.obj
 0001:0005f400       ??0_ssgSave3dsChunk@@QAE@G@Z 00460400 f i ssg_vs2008_32:ssgSave3ds.obj
 0001:0005f420       ??1_ssgSave3dsChunk@@QAE@XZ 00460420 f i ssg_vs2008_32:ssgSave3ds.obj
 0001:0005f480       ?addData@_ssgSave3dsChunk@@QAEXPAV_ssgSave3dsData@@@Z 00460480 f i ssg_vs2008_32:ssgSave3ds.obj
 0001:0005f4a0       ?addKid@_ssgSave3dsChunk@@QAEXPAV1@@Z 004604a0 f i ssg_vs2008_32:ssgSave3ds.obj
 0001:0005f4c0       ?size@_ssgSave3dsChunk@@QAEIXZ 004604c0 f i ssg_vs2008_32:ssgSave3ds.obj
 0001:0005f510       ?write@_ssgSave3dsChunk@@QAEXXZ 00460510 f i ssg_vs2008_32:ssgSave3ds.obj
 0001:0005f550       ??_G_ssgSave3dsChunk@@QAEPAXI@Z 00460550 f i ssg_vs2008_32:ssgSave3ds.obj
 0001:00060610       ?ssgSave3ds@@YAHPBDPAVssgEntity@@@Z 00461610 f   ssg_vs2008_32:ssgSave3ds.obj
 0001:00060790       ??0_ssgBaseList@@QAE@XZ    00461790 f i ssg_vs2008_32:ssgLoadSSG.obj
 0001:00060800       ??1_ssgBaseList@@UAE@XZ    00461800 f i ssg_vs2008_32:ssgLoadSSG.obj
 0001:00060810       ?get@_ssgBaseList@@QAEPAVssgBase@@I@Z 00461810 f i ssg_vs2008_32:ssgLoadSSG.obj
 0001:00060830       ?add@_ssgBaseList@@QAEXPAVssgBase@@@Z 00461830 f i ssg_vs2008_32:ssgLoadSSG.obj
 0001:00060850       ?find@_ssgBaseList@@QAEHPAVssgBase@@@Z 00461850 f i ssg_vs2008_32:ssgLoadSSG.obj
 0001:00060880       ??_G_ssgBaseList@@UAEPAXI@Z 00461880 f i ssg_vs2008_32:ssgLoadSSG.obj
 0001:00060880       ??_E_ssgBaseList@@UAEPAXI@Z 00461880 f i ssg_vs2008_32:ssgLoadSSG.obj
 0001:000608b0       ?_ssgLoadObject@@YAHPAU_iobuf@@PAPAVssgBase@@H@Z 004618b0 f   ssg_vs2008_32:ssgLoadSSG.obj
 0001:00060a30       ?_ssgSaveObject@@YAHPAU_iobuf@@PAVssgBase@@@Z 00461a30 f   ssg_vs2008_32:ssgLoadSSG.obj
 0001:00060af0       ?ssgLoadSSG@@YAPAVssgEntity@@PBDPBVssgLoaderOptions@@@Z 00461af0 f   ssg_vs2008_32:ssgLoadSSG.obj
 0001:00060d30       ?ssgSaveSSG@@YAHPBDPAVssgEntity@@@Z 00461d30 f   ssg_vs2008_32:ssgLoadSSG.obj
 0001:00060e50       ?setTweenState@_ssgDList@@QAEXMH@Z 00461e50 f i ssg_vs2008_32:ssgDList.obj
 0001:00060e70       ?setPopMatrix@_ssgDList@@QAEXXZ 00461e70 f i ssg_vs2008_32:ssgDList.obj
 0001:00060e80       ?setLoadTexMatrix@_ssgDList@@QAEXQAY03M@Z 00461e80 f i ssg_vs2008_32:ssgDList.obj
 0001:00060ea0       ?setUnloadTexMatrix@_ssgDList@@QAEXXZ 00461ea0 f i ssg_vs2008_32:ssgDList.obj
 0001:00060eb0       ?setLoadMatrix@_ssgDList@@QAEXQAY03M@Z 00461eb0 f i ssg_vs2008_32:ssgDList.obj
 0001:00060ed0       ?setPushMatrix@_ssgDList@@QAEXQAY03M@Z 00461ed0 f i ssg_vs2008_32:ssgDList.obj
 0001:00060ef0       ?setDrawLeaf@_ssgDList@@QAEXPAVssgLeaf@@@Z 00461ef0 f i ssg_vs2008_32:ssgDList.obj
 0001:00060f00       ?setEmpty@_ssgDList@@QAEXXZ 00461f00 f i ssg_vs2008_32:ssgDList.obj
 0001:00060f10       ?draw@_ssgDList@@QAEXXZ    00461f10 f i ssg_vs2008_32:ssgDList.obj
 0001:00061000       ?_ssgDrawDList@@YAXXZ      00462000 f   ssg_vs2008_32:ssgDList.obj
 0001:00061040       ?_ssgSetTweenState@@YAXMH@Z 00462040 f   ssg_vs2008_32:ssgDList.obj
 0001:00061090       ?_ssgPopMatrix@@YAXXZ      00462090 f   ssg_vs2008_32:ssgDList.obj
 0001:000610e0       ?_ssgLoadTexMatrix@@YAXQAY03M@Z 004620e0 f   ssg_vs2008_32:ssgDList.obj
 0001:00061160       ?_ssgUnloadTexMatrix@@YAXXZ 00462160 f   ssg_vs2008_32:ssgDList.obj
 0001:000611c0       ?_ssgLoadMatrix@@YAXQAY03M@Z 004621c0 f   ssg_vs2008_32:ssgDList.obj
 0001:00061230       ?_ssgDrawLeaf@@YAXPAVssgLeaf@@@Z 00462230 f   ssg_vs2008_32:ssgDList.obj
 0001:00061270       ??0_ssgDList@@QAE@XZ       00462270 f i ssg_vs2008_32:ssgDList.obj
 0001:00061280       ?_ssgPushMatrix@@YAXQAY03M@Z 00462280 f   ssg_vs2008_32:ssgDList.obj
 0001:000612f0       ?getStateCallback@ssgState@@QAEP6AHPAV1@@ZH@Z 004622f0 f i ssg_vs2008_32:ssgState.obj
 0001:00061310       ?setStateCallback@ssgState@@QAEXHP6AHPAV1@@Z@Z 00462310 f i ssg_vs2008_32:ssgState.obj
 0001:00061340       ?getExternalPropertyIndex@ssgState@@QAEHXZ 00462340 f i ssg_vs2008_32:ssgState.obj
 0001:00061350       ?setExternalPropertyIndex@ssgState@@QAEXH@Z 00462350 f i ssg_vs2008_32:ssgState.obj
 0001:00061360       ?preApply@ssgState@@IAEXXZ 00462360 f   ssg_vs2008_32:ssgState.obj
 0001:00061390       ?preDraw@ssgState@@IAEXXZ  00462390 f   ssg_vs2008_32:ssgState.obj
 0001:000613b0       ?_ssgStartOfFrameInit@@YAXXZ 004623b0 f   ssg_vs2008_32:ssgState.obj
 0001:000613c0       ?_ssgEndOfFrameCleanup@@YAXXZ 004623c0 f   ssg_vs2008_32:ssgState.obj
 0001:000613f0       ?copy_from@ssgState@@UAEXPAV1@H@Z 004623f0 f   ssg_vs2008_32:ssgState.obj
 0001:00061440       ??0ssgState@@QAE@XZ        00462440 f   ssg_vs2008_32:ssgState.obj
 0001:00061470       ??1ssgState@@UAE@XZ        00462470 f   ssg_vs2008_32:ssgState.obj
 0001:00061490       ?print@ssgState@@UAEXPAU_iobuf@@PADH@Z 00462490 f   ssg_vs2008_32:ssgState.obj
 0001:000614f0       ?load@ssgState@@UAEHPAU_iobuf@@@Z 004624f0 f   ssg_vs2008_32:ssgState.obj
 0001:00061530       ?save@ssgState@@UAEHPAU_iobuf@@@Z 00462530 f   ssg_vs2008_32:ssgState.obj
 0001:00061560       ??_GssgState@@UAEPAXI@Z    00462560 f i ssg_vs2008_32:ssgState.obj
 0001:00061560       ??_EssgState@@UAEPAXI@Z    00462560 f i ssg_vs2008_32:ssgState.obj
 0001:00061580       ?sgHeightOfPlaneVec2@@YAMQBM0@Z 00462580 f i ssg_vs2008_32:ssgVTable.obj
 0001:000615c0       ?sgDistToPlaneVec3@@YAMQBM0@Z 004625c0 f i ssg_vs2008_32:ssgVTable.obj
 0001:000615f0       ?sgMakePlane@@YAXQAMQBM11@Z 004625f0 f i ssg_vs2008_32:ssgVTable.obj
 0001:00061640       ?setMin@sgBox@@QAEXQBM@Z   00462640 f i ssg_vs2008_32:ssgVTable.obj
 0001:00061660       ?setMax@sgBox@@QAEXQBM@Z   00462660 f i ssg_vs2008_32:ssgVTable.obj
 0001:00061680       ?empty@sgBox@@QAEXXZ       00462680 f i ssg_vs2008_32:ssgVTable.obj
 0001:000616a0       ?extendBSphere@ssgEntity@@IAEXPAVsgBox@@@Z 004626a0 f i ssg_vs2008_32:ssgVTable.obj
 0001:000616b0       ?hasState@ssgLeaf@@QAEHXZ  004626b0 f i ssg_vs2008_32:ssgVTable.obj
 0001:000616c0       ?isIndexed@ssgVTable@@QAEHXZ 004626c0 f i ssg_vs2008_32:ssgVTable.obj
 0001:000616d0       ?getColourList@ssgVTable@@QAEXPAPAXPAPAG@Z 004626d0 f i ssg_vs2008_32:ssgVTable.obj
 0001:000616f0       ?getTexCoordList@ssgVTable@@QAEXPAPAXPAPAG@Z 004626f0 f i ssg_vs2008_32:ssgVTable.obj
 0001:00061710       ?getNormalList@ssgVTable@@QAEXPAPAXPAPAG@Z 00462710 f i ssg_vs2008_32:ssgVTable.obj
 0001:00061730       ?getVertexList@ssgVTable@@QAEXPAPAXPAPAG@Z 00462730 f i ssg_vs2008_32:ssgVTable.obj
 0001:00061750       ?overriddenState@ssgContext@@QAEPAVssgState@@XZ 00462750 f i ssg_vs2008_32:ssgVTable.obj
 0001:00061760       ?stateOverridden@ssgContext@@QAEHXZ 00462760 f i ssg_vs2008_32:ssgVTable.obj
 0001:00061770       ?bumpVertexCount@ssgStatistics@@QAEXH@Z 00462770 f i ssg_vs2008_32:ssgVTable.obj
 0001:00061780       ?bumpLeafCount@ssgStatistics@@QAEXH@Z 00462780 f i ssg_vs2008_32:ssgVTable.obj
 0001:00061790       ?copy_from@ssgVTable@@MAEXPAV1@H@Z 00462790 f   ssg_vs2008_32:ssgVTable.obj
 0001:00061880       ??1ssgVTable@@UAE@XZ       00462880 f   ssg_vs2008_32:ssgVTable.obj
 0001:00061890       ?getNumKids@ssgEntity@@UAEHXZ 00462890 f i ssg_vs2008_32:ssgVTable.obj
 0001:000618a0       ?getCallback@ssgLeaf@@UAEP6AHPAVssgEntity@@@ZH@Z 004628a0 f i ssg_vs2008_32:ssgVTable.obj
 0001:000618c0       ?setCallback@ssgLeaf@@UAEXHP6AHPAVssgEntity@@@Z@Z 004628c0 f i ssg_vs2008_32:ssgVTable.obj
 0001:000618e0       ?setPrimitiveType@ssgLeaf@@UAEXI@Z 004628e0 f i ssg_vs2008_32:ssgVTable.obj
 0001:000618f0       ?getPrimitiveType@ssgLeaf@@UAEIXZ 004628f0 f i ssg_vs2008_32:ssgVTable.obj
 0001:00061900       ?getNumVertices@ssgVTable@@UAEHXZ 00462900 f i ssg_vs2008_32:ssgVTable.obj
 0001:00061910       ?getNumNormals@ssgVTable@@UAEHXZ 00462910 f i ssg_vs2008_32:ssgVTable.obj
 0001:00061920       ?getNumColours@ssgVTable@@UAEHXZ 00462920 f i ssg_vs2008_32:ssgVTable.obj
 0001:00061930       ?getNumTexCoords@ssgVTable@@UAEHXZ 00462930 f i ssg_vs2008_32:ssgVTable.obj
 0001:00061940       ?getVertex@ssgVTable@@UAEPAMH@Z 00462940 f i ssg_vs2008_32:ssgVTable.obj
 0001:00061990       ?getColour@ssgVTable@@UAEPAMH@Z 00462990 f i ssg_vs2008_32:ssgVTable.obj
 0001:000619d0       ?getNormal@ssgVTable@@UAEPAMH@Z 004629d0 f i ssg_vs2008_32:ssgVTable.obj
 0001:00061a20       ?getTexCoord@ssgVTable@@UAEPAMH@Z 00462a20 f i ssg_vs2008_32:ssgVTable.obj
 0001:00061a70       ?getTriangle@ssgVTable@@UAEXHPAF00@Z 00462a70 f   ssg_vs2008_32:ssgVTable.obj
 0001:00061b30       ?getNumTriangles@ssgVTable@@UAEHXZ 00462b30 f   ssg_vs2008_32:ssgVTable.obj
 0001:00061bd0       ?getNumLines@ssgVTable@@UAEHXZ 00462bd0 f   ssg_vs2008_32:ssgVTable.obj
 0001:00061c40       ?getLine@ssgVTable@@UAEXHPAF0@Z 00462c40 f   ssg_vs2008_32:ssgVTable.obj
 0001:00061ce0       ?transform@ssgVTable@@UAEXQAY03$$CBM@Z 00462ce0 f   ssg_vs2008_32:ssgVTable.obj
 0001:00061d60       ?recalcBSphere@ssgVTable@@UAEXXZ 00462d60 f   ssg_vs2008_32:ssgVTable.obj
 0001:00061e10       ?draw@ssgVTable@@UAEXXZ    00462e10 f   ssg_vs2008_32:ssgVTable.obj
 0001:00061e80       ?drawHighlight@ssgVTable@@UAEXQAMH@Z 00462e80 f   ssg_vs2008_32:ssgVTable.obj
 0001:00061e90       ?drawHighlight@ssgVTable@@UAEXQAM@Z 00462e90 f   ssg_vs2008_32:ssgVTable.obj
 0001:00061ea0       ?pick@ssgVTable@@UAEXH@Z   00462ea0 f   ssg_vs2008_32:ssgVTable.obj
 0001:00062010       ?draw_geometry@ssgVTable@@MAEXXZ 00463010 f   ssg_vs2008_32:ssgVTable.obj
 0001:00062240       ?hot_triangles@ssgVTable@@UAEXQAMQAY03MH@Z 00463240 f   ssg_vs2008_32:ssgVTable.obj
 0001:00062690       ?los_triangles@ssgVTable@@UAEXQAMQAY03MH@Z 00463690 f   ssg_vs2008_32:ssgVTable.obj
 0001:000629b0       ?isect_triangles@ssgVTable@@UAEXPAVsgSphere@@QAY03MH@Z 004639b0 f   ssg_vs2008_32:ssgVTable.obj
 0001:00062e10       ?print@ssgVTable@@UAEXPAU_iobuf@@PADH@Z 00463e10 f   ssg_vs2008_32:ssgVTable.obj
 0001:00062e20       ?load@ssgVTable@@UAEHPAU_iobuf@@@Z 00463e20 f   ssg_vs2008_32:ssgVTable.obj
 0001:00063180       ?save@ssgVTable@@UAEHPAU_iobuf@@@Z 00464180 f   ssg_vs2008_32:ssgVTable.obj
 0001:00063390       ??0sgBox@@QAE@XZ           00464390 f i ssg_vs2008_32:ssgVTable.obj
 0001:000633b0       ??0ssgVTable@@QAE@XZ       004643b0 f   ssg_vs2008_32:ssgVTable.obj
 0001:00063440       ??_GssgVTable@@UAEPAXI@Z   00464440 f i ssg_vs2008_32:ssgVTable.obj
 0001:00063440       ??_EssgVTable@@UAEPAXI@Z   00464440 f i ssg_vs2008_32:ssgVTable.obj
 0001:00063460       ??0ssgVTable@@QAE@IHPAGPAY02MH01H0PAY01MH0PAY03M@Z 00464460 f   ssg_vs2008_32:ssgVTable.obj
 0001:00063560       ??0ssgVTable@@QAE@IHPAY02MH0HPAY01MHPAY03M@Z 00464560 f   ssg_vs2008_32:ssgVTable.obj
 0001:00063630       ?clone@ssgVTable@@UAEPAVssgBase@@H@Z 00464630 f   ssg_vs2008_32:ssgVTable.obj
 0001:000636a0       ?compare@ssgSimpleList@@QAEHPAV1@H@Z 004646a0 f   ssg_vs2008_32:ssgVtxTable.obj
 0001:00063780       ?compare@ssgVtxTable@@QAEHPAV1@H@Z 00464780 f   ssg_vs2008_32:ssgVtxTable.obj
 0001:00063990       ?copy_from@ssgVtxTable@@MAEXPAV1@H@Z 00464990 f   ssg_vs2008_32:ssgVtxTable.obj
 0001:00063a80       ?setVertices@ssgVtxTable@@UAEXPAVssgVertexArray@@@Z 00464a80 f   ssg_vs2008_32:ssgVtxTable.obj
 0001:00063ab0       ?setNormals@ssgVtxTable@@UAEXPAVssgNormalArray@@@Z 00464ab0 f   ssg_vs2008_32:ssgVtxTable.obj
 0001:00063ae0       ?setTexCoords@ssgVtxTable@@UAEXPAVssgTexCoordArray@@@Z 00464ae0 f   ssg_vs2008_32:ssgVtxTable.obj
 0001:00063b10       ?setColours@ssgVtxTable@@UAEXPAVssgColourArray@@@Z 00464b10 f   ssg_vs2008_32:ssgVtxTable.obj
 0001:00063b40       ??1ssgVtxTable@@UAE@XZ     00464b40 f   ssg_vs2008_32:ssgVtxTable.obj
 0001:00063bc0       ?getNumVertices@ssgVtxTable@@UAEHXZ 00464bc0 f i ssg_vs2008_32:ssgVtxTable.obj
 0001:00063bd0       ?getNumNormals@ssgVtxTable@@UAEHXZ 00464bd0 f i ssg_vs2008_32:ssgVtxTable.obj
 0001:00063be0       ?getNumColours@ssgVtxTable@@UAEHXZ 00464be0 f i ssg_vs2008_32:ssgVtxTable.obj
 0001:00063bf0       ?getNumTexCoords@ssgVtxTable@@UAEHXZ 00464bf0 f i ssg_vs2008_32:ssgVtxTable.obj
 0001:00063c00       ?getVertex@ssgVtxTable@@UAEPAMH@Z 00464c00 f i ssg_vs2008_32:ssgVtxTable.obj
 0001:00063c50       ?getNormal@ssgVtxTable@@UAEPAMH@Z 00464c50 f i ssg_vs2008_32:ssgVtxTable.obj
 0001:00063ca0       ?getTexCoord@ssgVtxTable@@UAEPAMH@Z 00464ca0 f i ssg_vs2008_32:ssgVtxTable.obj
 0001:00063cf0       ?getColour@ssgVtxTable@@UAEPAMH@Z 00464cf0 f i ssg_vs2008_32:ssgVtxTable.obj
 0001:00063d40       ?getTriangle@ssgVtxTable@@UAEXHPAF00@Z 00464d40 f   ssg_vs2008_32:ssgVtxTable.obj
 0001:00063e20       ?getNumTriangles@ssgVtxTable@@UAEHXZ 00464e20 f   ssg_vs2008_32:ssgVtxTable.obj
 0001:00063ed0       ?getNumLines@ssgVtxTable@@UAEHXZ 00464ed0 f   ssg_vs2008_32:ssgVtxTable.obj
 0001:00063f40       ?getLine@ssgVtxTable@@UAEXHPAF0@Z 00464f40 f   ssg_vs2008_32:ssgVtxTable.obj
 0001:00063fe0       ?transform@ssgVtxTable@@UAEXQAY03$$CBM@Z 00464fe0 f   ssg_vs2008_32:ssgVtxTable.obj
 0001:000642a0       ?recalcBSphere@ssgVtxTable@@UAEXXZ 004652a0 f   ssg_vs2008_32:ssgVtxTable.obj
 0001:00064330       ?drawHighlight@ssgVtxTable@@UAEXQAM@Z 00465330 f   ssg_vs2008_32:ssgVtxTable.obj
 0001:000643c0       ?drawHighlight@ssgVtxTable@@UAEXQAMH@Z 004653c0 f   ssg_vs2008_32:ssgVtxTable.obj
 0001:00064520       ?draw@ssgVtxTable@@UAEXXZ  00465520 f   ssg_vs2008_32:ssgVtxTable.obj
 0001:00064590       ?pick@ssgVtxTable@@UAEXH@Z 00465590 f   ssg_vs2008_32:ssgVtxTable.obj
 0001:00064640       ?draw_geometry@ssgVtxTable@@MAEXXZ 00465640 f   ssg_vs2008_32:ssgVtxTable.obj
 0001:000647d0       ?hot_triangles@ssgVtxTable@@UAEXQAMQAY03MH@Z 004657d0 f   ssg_vs2008_32:ssgVtxTable.obj
 0001:00064c20       ?los_triangles@ssgVtxTable@@UAEXQAMQAY03MH@Z 00465c20 f   ssg_vs2008_32:ssgVtxTable.obj
 0001:00064f40       ?getAs_ssgVtxArray@ssgVtxTable@@QAEPAVssgVtxArray@@XZ 00465f40 f   ssg_vs2008_32:ssgVtxTable.obj
 0001:000650f0       ?isect_triangles@ssgVtxTable@@UAEXPAVsgSphere@@QAY03MH@Z 004660f0 f   ssg_vs2008_32:ssgVtxTable.obj
 0001:00065550       ?print@ssgVtxTable@@UAEXPAU_iobuf@@PADH@Z 00466550 f   ssg_vs2008_32:ssgVtxTable.obj
 0001:00065660       ?load@ssgVtxTable@@UAEHPAU_iobuf@@@Z 00466660 f   ssg_vs2008_32:ssgVtxTable.obj
 0001:00065780       ?save@ssgVtxTable@@UAEHPAU_iobuf@@@Z 00466780 f   ssg_vs2008_32:ssgVtxTable.obj
 0001:00065820       ??0ssgVtxTable@@QAE@XZ     00466820 f   ssg_vs2008_32:ssgVtxTable.obj
 0001:00065880       ??_GssgVtxTable@@UAEPAXI@Z 00466880 f i ssg_vs2008_32:ssgVtxTable.obj
 0001:00065880       ??_EssgVtxTable@@UAEPAXI@Z 00466880 f i ssg_vs2008_32:ssgVtxTable.obj
 0001:000658a0       ??0ssgVtxTable@@QAE@IPAVssgVertexArray@@PAVssgNormalArray@@PAVssgTexCoordArray@@PAVssgColourArray@@@Z 004668a0 f   ssg_vs2008_32:ssgVtxTable.obj
 0001:00065b20       ?clone@ssgVtxTable@@UAEPAVssgBase@@H@Z 00466b20 f   ssg_vs2008_32:ssgVtxTable.obj
 0001:00065b90       ?set@ssgIndexArray@@QAEXFI@Z 00466b90 f i ssg_vs2008_32:ssgVtxArray.obj
 0001:00065bb0       ?copy_from@ssgVtxArray@@MAEXPAV1@H@Z 00466bb0 f   ssg_vs2008_32:ssgVtxArray.obj
 0001:00065c10       ??0ssgVtxArray@@QAE@XZ     00466c10 f   ssg_vs2008_32:ssgVtxArray.obj
 0001:00065c40       ??0ssgVtxArray@@QAE@IPAVssgVertexArray@@PAVssgNormalArray@@PAVssgTexCoordArray@@PAVssgColourArray@@PAVssgIndexArray@@@Z 00466c40 f   ssg_vs2008_32:ssgVtxArray.obj
 0001:00065d30       ??1ssgVtxArray@@UAE@XZ     00466d30 f   ssg_vs2008_32:ssgVtxArray.obj
 0001:00065d90       ?setIndices@ssgVtxArray@@QAEXPAVssgIndexArray@@@Z 00466d90 f   ssg_vs2008_32:ssgVtxArray.obj
 0001:00065dc0       ?drawHighlight@ssgVtxArray@@UAEXQAM@Z 00466dc0 f   ssg_vs2008_32:ssgVtxArray.obj
 0001:00065e80       ?drawHighlight@ssgVtxArray@@UAEXQAMH@Z 00466e80 f   ssg_vs2008_32:ssgVtxArray.obj
 0001:00066000       ?pick@ssgVtxArray@@UAEXH@Z 00467000 f   ssg_vs2008_32:ssgVtxArray.obj
 0001:000660f0       ?removeUnusedVertices@ssgVtxArray@@QAEXXZ 004670f0 f   ssg_vs2008_32:ssgVtxArray.obj
 0001:00066630       ?draw_geometry@ssgVtxArray@@MAEXXZ 00467630 f   ssg_vs2008_32:ssgVtxArray.obj
 0001:000667d0       ?getTriangle@ssgVtxArray@@UAEXHPAF00@Z 004677d0 f   ssg_vs2008_32:ssgVtxArray.obj
 0001:00066880       ?getNumTriangles@ssgVtxArray@@UAEHXZ 00467880 f   ssg_vs2008_32:ssgVtxArray.obj
 0001:00066920       ?getNumLines@ssgVtxArray@@UAEHXZ 00467920 f   ssg_vs2008_32:ssgVtxArray.obj
 0001:00066990       ?getLine@ssgVtxArray@@UAEXHPAF0@Z 00467990 f   ssg_vs2008_32:ssgVtxArray.obj
 0001:00066af0       ?print@ssgVtxArray@@UAEXPAU_iobuf@@PADH@Z 00467af0 f   ssg_vs2008_32:ssgVtxArray.obj
 0001:00066b50       ?load@ssgVtxArray@@UAEHPAU_iobuf@@@Z 00467b50 f   ssg_vs2008_32:ssgVtxArray.obj
 0001:00066ba0       ?save@ssgVtxArray@@UAEHPAU_iobuf@@@Z 00467ba0 f   ssg_vs2008_32:ssgVtxArray.obj
 0001:00066be0       ?clone@ssgVtxArray@@UAEPAVssgBase@@H@Z 00467be0 f   ssg_vs2008_32:ssgVtxArray.obj
 0001:00066c50       ??_GssgVtxArray@@UAEPAXI@Z 00467c50 f i ssg_vs2008_32:ssgVtxArray.obj
 0001:00066c50       ??_EssgVtxArray@@UAEPAXI@Z 00467c50 f i ssg_vs2008_32:ssgVtxArray.obj
 0001:00066c70       ?sgLerpVec4@@YAXQAMQBM1M@Z 00467c70 f i ssg_vs2008_32:ssgTween.obj
 0001:00066cc0       ?sgLerpVec3@@YAXQAMQBM1M@Z 00467cc0 f i ssg_vs2008_32:ssgTween.obj
 0001:00066d00       ?sgLerpVec2@@YAXQAMQBM1M@Z 00467d00 f i ssg_vs2008_32:ssgTween.obj
 0001:00066d30       ?getTypeName@ssgTween@@UAEPBDXZ 00467d30 f   ssg_vs2008_32:ssgTween.obj
 0001:00066d40       ?_ssgGetCurrentTweenMode@@YAHXZ 00467d40 f   ssg_vs2008_32:ssgTween.obj
 0001:00066d50       ?_ssgGetCurrentTweenState@@YAMXZ 00467d50 f   ssg_vs2008_32:ssgTween.obj
 0001:00066d60       ?_ssgSetRealCurrentTweenSettings@@YAXMH@Z 00467d60 f   ssg_vs2008_32:ssgTween.obj
 0001:00066d80       ?copy_from@ssgTween@@EAEXPAV1@H@Z 00467d80 f   ssg_vs2008_32:ssgTween.obj
 0001:00066e70       ?init@ssgTween@@AAEXXZ     00467e70 f   ssg_vs2008_32:ssgTween.obj
 0001:000671b0       ??0ssgTween@@QAE@XZ        004681b0 f   ssg_vs2008_32:ssgTween.obj
 0001:00067200       ??0ssgTween@@QAE@I@Z       00468200 f   ssg_vs2008_32:ssgTween.obj
 0001:00067260       ?setBank@ssgTween@@QAEXH@Z 00468260 f   ssg_vs2008_32:ssgTween.obj
 0001:00067300       ?setVertices@ssgTween@@UAEXPAVssgVertexArray@@@Z 00468300 f   ssg_vs2008_32:ssgTween.obj
 0001:00067340       ?setNormals@ssgTween@@UAEXPAVssgNormalArray@@@Z 00468340 f   ssg_vs2008_32:ssgTween.obj
 0001:00067380       ?setTexCoords@ssgTween@@UAEXPAVssgTexCoordArray@@@Z 00468380 f   ssg_vs2008_32:ssgTween.obj
 0001:000673c0       ?setColours@ssgTween@@UAEXPAVssgColourArray@@@Z 004683c0 f   ssg_vs2008_32:ssgTween.obj
 0001:00067400       ??1ssgTween@@UAE@XZ        00468400 f   ssg_vs2008_32:ssgTween.obj
 0001:000675a0       ?recalcBSphere@ssgTween@@UAEXXZ 004685a0 f   ssg_vs2008_32:ssgTween.obj
 0001:00067660       ?draw@ssgTween@@UAEXXZ     00468660 f   ssg_vs2008_32:ssgTween.obj
 0001:00068350       ?transform@ssgTween@@UAEXQAY03$$CBM@Z 00469350 f   ssg_vs2008_32:ssgTween.obj
 0001:00068400       ?save@ssgTween@@UAEHPAU_iobuf@@@Z 00469400 f   ssg_vs2008_32:ssgTween.obj
 0001:000684d0       ?print@ssgTween@@UAEXPAU_iobuf@@PADH@Z 004694d0 f   ssg_vs2008_32:ssgTween.obj
 0001:00068560       ?_ssgSetCurrentTweenSettings@@YAXMH@Z 00469560 f   ssg_vs2008_32:ssgTween.obj
 0001:00068590       ?clone@ssgTween@@UAEPAVssgBase@@H@Z 00469590 f   ssg_vs2008_32:ssgTween.obj
 0001:00068600       ??_EssgTween@@UAEPAXI@Z    00469600 f i ssg_vs2008_32:ssgTween.obj
 0001:00068600       ??_GssgTween@@UAEPAXI@Z    00469600 f i ssg_vs2008_32:ssgTween.obj
 0001:00068620       ?newBank@ssgTween@@QAEHPAVssgVertexArray@@PAVssgNormalArray@@PAVssgTexCoordArray@@PAVssgColourArray@@@Z 00469620 f   ssg_vs2008_32:ssgTween.obj
 0001:00068740       ?newBank@ssgTween@@QAEHHHHH@Z 00469740 f   ssg_vs2008_32:ssgTween.obj
 0001:000689c0       ?load@ssgTween@@UAEHPAU_iobuf@@@Z 004699c0 f   ssg_vs2008_32:ssgTween.obj
 0001:00068b00       ?orthoXform@sgSphere@@QAEXQAY03$$CBM@Z 00469b00 f i ssg_vs2008_32:ssgTransform.obj
 0001:00068b20       ?updateTransform@ssgBaseTransform@@QAEXXZ 00469b20 f i ssg_vs2008_32:ssgTransform.obj
 0001:00068b50       ?getLastTransform@ssgBaseTransform@@QAEXQAY03M@Z 00469b50 f i ssg_vs2008_32:ssgTransform.obj
 0001:00068ba0       ?copy_from@ssgTransform@@MAEXPAV1@H@Z 00469ba0 f   ssg_vs2008_32:ssgTransform.obj
 0001:00068bb0       ??0ssgTransform@@QAE@XZ    00469bb0 f   ssg_vs2008_32:ssgTransform.obj
 0001:00068bd0       ??1ssgTransform@@UAE@XZ    00469bd0 f   ssg_vs2008_32:ssgTransform.obj
 0001:00068be0       ?recalcBSphere@ssgTransform@@UAEXXZ 00469be0 f   ssg_vs2008_32:ssgTransform.obj
 0001:00068c10       ?cull@ssgTransform@@UAEXPAVsgFrustum@@QAY03MH@Z 00469c10 f   ssg_vs2008_32:ssgTransform.obj
 0001:00068cf0       ?hot@ssgTransform@@UAEXQAMQAY03MH@Z 00469cf0 f   ssg_vs2008_32:ssgTransform.obj
 0001:00068db0       ?los@ssgTransform@@UAEXQAMQAY03MH@Z 00469db0 f   ssg_vs2008_32:ssgTransform.obj
 0001:00068e70       ?isect@ssgTransform@@UAEXPAVsgSphere@@QAY03MH@Z 00469e70 f   ssg_vs2008_32:ssgTransform.obj
 0001:00068f30       ?setTransform@ssgTransform@@UAEXQAM@Z 00469f30 f   ssg_vs2008_32:ssgTransform.obj
 0001:00068f60       ?setTransform@ssgTransform@@UAEXPAUsgCoord@@@Z 00469f60 f   ssg_vs2008_32:ssgTransform.obj
 0001:00068fc0       ?setTransform@ssgTransform@@UAEXPAUsgCoord@@MMM@Z 00469fc0 f   ssg_vs2008_32:ssgTransform.obj
 0001:00069090       ?getNetTransform@ssgTransform@@UAEXQAY03M@Z 0046a090 f   ssg_vs2008_32:ssgTransform.obj
 0001:000690e0       ?getLastNetTransform@ssgTransform@@UAEXQAY03M@Z 0046a0e0 f   ssg_vs2008_32:ssgTransform.obj
 0001:00069180       ?load@ssgTransform@@UAEHPAU_iobuf@@@Z 0046a180 f   ssg_vs2008_32:ssgTransform.obj
 0001:00069190       ?save@ssgTransform@@UAEHPAU_iobuf@@@Z 0046a190 f   ssg_vs2008_32:ssgTransform.obj
 0001:000691a0       ?firsttime@ssgBaseTransform@@QAEXXZ 0046a1a0 f i ssg_vs2008_32:ssgTransform.obj
 0001:000691e0       ?clone@ssgTransform@@UAEPAVssgBase@@H@Z 0046a1e0 f   ssg_vs2008_32:ssgTransform.obj
 0001:00069250       ??0ssgTransform@@QAE@PAUsgCoord@@@Z 0046a250 f   ssg_vs2008_32:ssgTransform.obj
 0001:000692b0       ??_EssgTransform@@UAEPAXI@Z 0046a2b0 f i ssg_vs2008_32:ssgTransform.obj
 0001:000692b0       ??_GssgTransform@@UAEPAXI@Z 0046a2b0 f i ssg_vs2008_32:ssgTransform.obj
 0001:000692d0       ?setTransform@ssgTransform@@UAEXQAY03M@Z 0046a2d0 f   ssg_vs2008_32:ssgTransform.obj
 0001:000693c0       ?copy_from@ssgTexTrans@@MAEXPAV1@H@Z 0046a3c0 f   ssg_vs2008_32:ssgTexTrans.obj
 0001:000693d0       ??0ssgTexTrans@@QAE@XZ     0046a3d0 f   ssg_vs2008_32:ssgTexTrans.obj
 0001:000693f0       ??1ssgTexTrans@@UAE@XZ     0046a3f0 f   ssg_vs2008_32:ssgTexTrans.obj
 0001:00069400       ?setTransform@ssgTexTrans@@UAEXQAM@Z 0046a400 f   ssg_vs2008_32:ssgTexTrans.obj
 0001:00069420       ?setTransform@ssgTexTrans@@UAEXPAUsgCoord@@MMM@Z 0046a420 f   ssg_vs2008_32:ssgTexTrans.obj
 0001:000694d0       ?setTransform@ssgTexTrans@@UAEXPAUsgCoord@@@Z 0046a4d0 f   ssg_vs2008_32:ssgTexTrans.obj
 0001:00069510       ?setTransform@ssgTexTrans@@UAEXQAY03M@Z 0046a510 f   ssg_vs2008_32:ssgTexTrans.obj
 0001:00069530       ?cull@ssgTexTrans@@UAEXPAVsgFrustum@@QAY03MH@Z 0046a530 f   ssg_vs2008_32:ssgTexTrans.obj
 0001:00069610       ?load@ssgTexTrans@@UAEHPAU_iobuf@@@Z 0046a610 f   ssg_vs2008_32:ssgTexTrans.obj
 0001:00069620       ?save@ssgTexTrans@@UAEHPAU_iobuf@@@Z 0046a620 f   ssg_vs2008_32:ssgTexTrans.obj
 0001:00069630       ?clone@ssgTexTrans@@UAEPAVssgBase@@H@Z 0046a630 f   ssg_vs2008_32:ssgTexTrans.obj
 0001:000696a0       ??0ssgTexTrans@@QAE@PAUsgCoord@@@Z 0046a6a0 f   ssg_vs2008_32:ssgTexTrans.obj
 0001:00069700       ??_GssgTexTrans@@UAEPAXI@Z 0046a700 f i ssg_vs2008_32:ssgTexTrans.obj
 0001:00069700       ??_EssgTexTrans@@UAEPAXI@Z 0046a700 f i ssg_vs2008_32:ssgTexTrans.obj
 0001:00069720       ?get@ssgTransformArray@@QAEPAY133MI@Z 0046a720 f i ssg_vs2008_32:ssgAnimTransform.obj
 0001:00069740       ?selectBank@ssgAnimTransform@@QAEXM@Z 0046a740 f i ssg_vs2008_32:ssgAnimTransform.obj
 0001:00069750       ?getCurrBank@ssgAnimTransform@@QAEMXZ 0046a750 f i ssg_vs2008_32:ssgAnimTransform.obj
 0001:00069760       ?getTypeName@ssgAnimTransform@@UAEPBDXZ 0046a760 f   ssg_vs2008_32:ssgAnimTransform.obj
 0001:00069770       ?copy_from@ssgAnimTransform@@MAEXPAV1@H@Z 0046a770 f   ssg_vs2008_32:ssgAnimTransform.obj
 0001:000697a0       ??0ssgAnimTransform@@QAE@XZ 0046a7a0 f   ssg_vs2008_32:ssgAnimTransform.obj
 0001:00069860       ??1ssgAnimTransform@@UAE@XZ 0046a860 f   ssg_vs2008_32:ssgAnimTransform.obj
 0001:000698c0       ?cull@ssgAnimTransform@@UAEXPAVsgFrustum@@QAY03MH@Z 0046a8c0 f   ssg_vs2008_32:ssgAnimTransform.obj
 0001:00069a60       ?load@ssgAnimTransform@@UAEHPAU_iobuf@@@Z 0046aa60 f   ssg_vs2008_32:ssgAnimTransform.obj
 0001:00069ab0       ?save@ssgAnimTransform@@UAEHPAU_iobuf@@@Z 0046aab0 f   ssg_vs2008_32:ssgAnimTransform.obj
 0001:00069b00       ?print@ssgAnimTransform@@UAEXPAU_iobuf@@PADH@Z 0046ab00 f   ssg_vs2008_32:ssgAnimTransform.obj
 0001:00069b70       ?clone@ssgAnimTransform@@UAEPAVssgBase@@H@Z 0046ab70 f   ssg_vs2008_32:ssgAnimTransform.obj
 0001:00069be0       ??_GssgAnimTransform@@UAEPAXI@Z 0046abe0 f i ssg_vs2008_32:ssgAnimTransform.obj
 0001:00069be0       ??_EssgAnimTransform@@UAEPAXI@Z 0046abe0 f i ssg_vs2008_32:ssgAnimTransform.obj
 0001:00069c00       ?sgNegateVec3@@YAXQAMQBM@Z 0046ac00 f i ssg_vs2008_32:ssgAxisTransform.obj
 0001:00069c20       ?copy_from@ssgAxisTransform@@MAEXPAV1@H@Z 0046ac20 f   ssg_vs2008_32:ssgAxisTransform.obj
 0001:00069ca0       ??0ssgAxisTransform@@QAE@XZ 0046aca0 f   ssg_vs2008_32:ssgAxisTransform.obj
 0001:00069ce0       ??1ssgAxisTransform@@UAE@XZ 0046ace0 f   ssg_vs2008_32:ssgAxisTransform.obj
 0001:00069cf0       ?setAxis@ssgAxisTransform@@UAEXQAM@Z 0046acf0 f   ssg_vs2008_32:ssgAxisTransform.obj
 0001:00069d20       ?getAxis@ssgAxisTransform@@UAEPAMXZ 0046ad20 f   ssg_vs2008_32:ssgAxisTransform.obj
 0001:00069d30       ?setCenter@ssgAxisTransform@@UAEXQAM@Z 0046ad30 f   ssg_vs2008_32:ssgAxisTransform.obj
 0001:00069d60       ?getCenter@ssgAxisTransform@@UAEPAMXZ 0046ad60 f   ssg_vs2008_32:ssgAxisTransform.obj
 0001:00069d70       ?setRotation@ssgAxisTransform@@UAEXM@Z 0046ad70 f   ssg_vs2008_32:ssgAxisTransform.obj
 0001:00069e20       ?setRotationLimits@ssgAxisTransform@@UAEXMM@Z 0046ae20 f   ssg_vs2008_32:ssgAxisTransform.obj
 0001:00069e40       ?setLinearRotation@ssgAxisTransform@@UAEXM@Z 0046ae40 f   ssg_vs2008_32:ssgAxisTransform.obj
 0001:00069e70       ?load@ssgAxisTransform@@UAEHPAU_iobuf@@@Z 0046ae70 f   ssg_vs2008_32:ssgAxisTransform.obj
 0001:00069ec0       ?save@ssgAxisTransform@@UAEHPAU_iobuf@@@Z 0046aec0 f   ssg_vs2008_32:ssgAxisTransform.obj
 0001:00069f20       ?clone@ssgAxisTransform@@UAEPAVssgBase@@H@Z 0046af20 f   ssg_vs2008_32:ssgAxisTransform.obj
 0001:00069f90       ??_EssgAxisTransform@@UAEPAXI@Z 0046af90 f i ssg_vs2008_32:ssgAxisTransform.obj
 0001:00069f90       ??_GssgAxisTransform@@UAEPAXI@Z 0046af90 f i ssg_vs2008_32:ssgAxisTransform.obj
 0001:00069fb0       ??0ssgAxisTransform@@QAE@QAM0@Z 0046afb0 f   ssg_vs2008_32:ssgAxisTransform.obj
 0001:0006a000       ?copy_from@ssgSelector@@MAEXPAV1@H@Z 0046b000 f   ssg_vs2008_32:ssgSelector.obj
 0001:0006a040       ??0ssgSelector@@QAE@H@Z    0046b040 f   ssg_vs2008_32:ssgSelector.obj
 0001:0006a0b0       ??1ssgSelector@@UAE@XZ     0046b0b0 f   ssg_vs2008_32:ssgSelector.obj
 0001:0006a110       ?cull@ssgSelector@@UAEXPAVsgFrustum@@QAY03MH@Z 0046b110 f   ssg_vs2008_32:ssgSelector.obj
 0001:0006a1b0       ?hot@ssgSelector@@UAEXQAMQAY03MH@Z 0046b1b0 f   ssg_vs2008_32:ssgSelector.obj
 0001:0006a270       ?los@ssgSelector@@UAEXQAMQAY03MH@Z 0046b270 f   ssg_vs2008_32:ssgSelector.obj
 0001:0006a330       ?isect@ssgSelector@@UAEXPAVsgSphere@@QAY03MH@Z 0046b330 f   ssg_vs2008_32:ssgSelector.obj
 0001:0006a3f0       ?load@ssgSelector@@UAEHPAU_iobuf@@@Z 0046b3f0 f   ssg_vs2008_32:ssgSelector.obj
 0001:0006a450       ?save@ssgSelector@@UAEHPAU_iobuf@@@Z 0046b450 f   ssg_vs2008_32:ssgSelector.obj
 0001:0006a4a0       ?clone@ssgSelector@@UAEPAVssgBase@@H@Z 0046b4a0 f   ssg_vs2008_32:ssgSelector.obj
 0001:0006a510       ??_GssgSelector@@UAEPAXI@Z 0046b510 f i ssg_vs2008_32:ssgSelector.obj
 0001:0006a510       ??_EssgSelector@@UAEPAXI@Z 0046b510 f i ssg_vs2008_32:ssgSelector.obj
 0001:0006a530       ?isAdditive@ssgRangeSelector@@QAEHXZ 0046b530 f i ssg_vs2008_32:ssgRangeSelector.obj
 0001:0006a540       ?copy_from@ssgRangeSelector@@MAEXPAV1@H@Z 0046b540 f   ssg_vs2008_32:ssgRangeSelector.obj
 0001:0006a5d0       ??0ssgRangeSelector@@QAE@XZ 0046b5d0 f   ssg_vs2008_32:ssgRangeSelector.obj
 0001:0006a6c0       ??1ssgRangeSelector@@UAE@XZ 0046b6c0 f   ssg_vs2008_32:ssgRangeSelector.obj
 0001:0006a6d0       ?cull@ssgRangeSelector@@UAEXPAVsgFrustum@@QAY03MH@Z 0046b6d0 f   ssg_vs2008_32:ssgRangeSelector.obj
 0001:0006a840       ?hot@ssgRangeSelector@@UAEXQAMQAY03MH@Z 0046b840 f   ssg_vs2008_32:ssgRangeSelector.obj
 0001:0006a8d0       ?los@ssgRangeSelector@@UAEXQAMQAY03MH@Z 0046b8d0 f   ssg_vs2008_32:ssgRangeSelector.obj
 0001:0006a960       ?isect@ssgRangeSelector@@UAEXPAVsgSphere@@QAY03MH@Z 0046b960 f   ssg_vs2008_32:ssgRangeSelector.obj
 0001:0006a9f0       ?load@ssgRangeSelector@@UAEHPAU_iobuf@@@Z 0046b9f0 f   ssg_vs2008_32:ssgRangeSelector.obj
 0001:0006aa20       ?save@ssgRangeSelector@@UAEHPAU_iobuf@@@Z 0046ba20 f   ssg_vs2008_32:ssgRangeSelector.obj
 0001:0006aa50       ?clone@ssgRangeSelector@@UAEPAVssgBase@@H@Z 0046ba50 f   ssg_vs2008_32:ssgRangeSelector.obj
 0001:0006aac0       ??_GssgRangeSelector@@UAEPAXI@Z 0046bac0 f i ssg_vs2008_32:ssgRangeSelector.obj
 0001:0006aac0       ??_EssgRangeSelector@@UAEPAXI@Z 0046bac0 f i ssg_vs2008_32:ssgRangeSelector.obj
 0001:0006aae0       ?reset@ulClock@@QAEXXZ     0046bae0 f i ssg_vs2008_32:ssgAnimation.obj
 0001:0006ab10       ?copy_from@ssgTimedSelector@@MAEXPAV1@H@Z 0046bb10 f   ssg_vs2008_32:ssgAnimation.obj
 0001:0006abe0       ??0ssgTimedSelector@@QAE@H@Z 0046bbe0 f   ssg_vs2008_32:ssgAnimation.obj
 0001:0006ad30       ?getStep@ssgTimedSelector@@QAEHXZ 0046bd30 f   ssg_vs2008_32:ssgAnimation.obj
 0001:0006ae70       ??1ssgTimedSelector@@UAE@XZ 0046be70 f   ssg_vs2008_32:ssgAnimation.obj
 0001:0006aed0       ?load@ssgTimedSelector@@UAEHPAU_iobuf@@@Z 0046bed0 f   ssg_vs2008_32:ssgAnimation.obj
 0001:0006af80       ?save@ssgTimedSelector@@UAEHPAU_iobuf@@@Z 0046bf80 f   ssg_vs2008_32:ssgAnimation.obj
 0001:0006b000       ??0ulClock@@QAE@XZ         0046c000 f i ssg_vs2008_32:ssgAnimation.obj
 0001:0006b030       ?clone@ssgTimedSelector@@UAEPAVssgBase@@H@Z 0046c030 f   ssg_vs2008_32:ssgAnimation.obj
 0001:0006b0a0       ??_EssgTimedSelector@@UAEPAXI@Z 0046c0a0 f i ssg_vs2008_32:ssgAnimation.obj
 0001:0006b0a0       ??_GssgTimedSelector@@UAEPAXI@Z 0046c0a0 f i ssg_vs2008_32:ssgAnimation.obj
 0001:0006b0c0       ?cull@ssgTimedSelector@@UAEXPAVsgFrustum@@QAY03MH@Z 0046c0c0 f   ssg_vs2008_32:ssgAnimation.obj
 0001:0006b110       ?hot@ssgTimedSelector@@UAEXQAMQAY03MH@Z 0046c110 f   ssg_vs2008_32:ssgAnimation.obj
 0001:0006b150       ?los@ssgTimedSelector@@UAEXQAMQAY03MH@Z 0046c150 f   ssg_vs2008_32:ssgAnimation.obj
 0001:0006b190       ?isect@ssgTimedSelector@@UAEXPAVsgSphere@@QAY03MH@Z 0046c190 f   ssg_vs2008_32:ssgAnimation.obj
 0001:0006b1d0       ?selectBank@ssgTweenController@@QAEXM@Z 0046c1d0 f i ssg_vs2008_32:ssgTweenController.obj
 0001:0006b1e0       ?getCurrBank@ssgTweenController@@QAEMXZ 0046c1e0 f i ssg_vs2008_32:ssgTweenController.obj
 0001:0006b1f0       ?getTypeName@ssgTweenController@@UAEPBDXZ 0046c1f0 f   ssg_vs2008_32:ssgTweenController.obj
 0001:0006b200       ?copy_from@ssgTweenController@@MAEXPAV1@H@Z 0046c200 f   ssg_vs2008_32:ssgTweenController.obj
 0001:0006b220       ??0ssgTweenController@@QAE@XZ 0046c220 f   ssg_vs2008_32:ssgTweenController.obj
 0001:0006b240       ??1ssgTweenController@@UAE@XZ 0046c240 f   ssg_vs2008_32:ssgTweenController.obj
 0001:0006b290       ?cull@ssgTweenController@@UAEXPAVsgFrustum@@QAY03MH@Z 0046c290 f   ssg_vs2008_32:ssgTweenController.obj
 0001:0006b2f0       ?load@ssgTweenController@@UAEHPAU_iobuf@@@Z 0046c2f0 f   ssg_vs2008_32:ssgTweenController.obj
 0001:0006b320       ?save@ssgTweenController@@UAEHPAU_iobuf@@@Z 0046c320 f   ssg_vs2008_32:ssgTweenController.obj
 0001:0006b350       ?print@ssgTweenController@@UAEXPAU_iobuf@@PADH@Z 0046c350 f   ssg_vs2008_32:ssgTweenController.obj
 0001:0006b390       ?clone@ssgTweenController@@UAEPAVssgBase@@H@Z 0046c390 f   ssg_vs2008_32:ssgTweenController.obj
 0001:0006b400       ??_GssgTweenController@@UAEPAXI@Z 0046c400 f i ssg_vs2008_32:ssgTweenController.obj
 0001:0006b400       ??_EssgTweenController@@UAEPAXI@Z 0046c400 f i ssg_vs2008_32:ssgTweenController.obj
 0001:0006b420       ?isPointRotate@ssgCutout@@QAEHXZ 0046c420 f i ssg_vs2008_32:ssgCutout.obj
 0001:0006b430       ?copy_from@ssgCutout@@MAEXPAV1@H@Z 0046c430 f   ssg_vs2008_32:ssgCutout.obj
 0001:0006b450       ??0ssgCutout@@QAE@H@Z      0046c450 f   ssg_vs2008_32:ssgCutout.obj
 0001:0006b480       ??1ssgCutout@@UAE@XZ       0046c480 f   ssg_vs2008_32:ssgCutout.obj
 0001:0006b490       ?cull@ssgCutout@@UAEXPAVsgFrustum@@QAY03MH@Z 0046c490 f   ssg_vs2008_32:ssgCutout.obj
 0001:0006b5e0       ?hot@ssgCutout@@UAEXQAMQAY03MH@Z 0046c5e0 f   ssg_vs2008_32:ssgCutout.obj
 0001:0006b5f0       ?los@ssgCutout@@UAEXQAMQAY03MH@Z 0046c5f0 f   ssg_vs2008_32:ssgCutout.obj
 0001:0006b600       ?isect@ssgCutout@@UAEXPAVsgSphere@@QAY03MH@Z 0046c600 f   ssg_vs2008_32:ssgCutout.obj
 0001:0006b610       ?load@ssgCutout@@UAEHPAU_iobuf@@@Z 0046c610 f   ssg_vs2008_32:ssgCutout.obj
 0001:0006b640       ?save@ssgCutout@@UAEHPAU_iobuf@@@Z 0046c640 f   ssg_vs2008_32:ssgCutout.obj
 0001:0006b670       ?clone@ssgCutout@@UAEPAVssgBase@@H@Z 0046c670 f   ssg_vs2008_32:ssgCutout.obj
 0001:0006b6e0       ??_GssgCutout@@UAEPAXI@Z   0046c6e0 f i ssg_vs2008_32:ssgCutout.obj
 0001:0006b6e0       ??_EssgCutout@@UAEPAXI@Z   0046c6e0 f i ssg_vs2008_32:ssgCutout.obj
 0001:0006b700       ?copy_from@ssgInvisible@@MAEXPAV1@H@Z 0046c700 f   ssg_vs2008_32:ssgInvisible.obj
 0001:0006b710       ??0ssgInvisible@@QAE@XZ    0046c710 f   ssg_vs2008_32:ssgInvisible.obj
 0001:0006b730       ??1ssgInvisible@@UAE@XZ    0046c730 f   ssg_vs2008_32:ssgInvisible.obj
 0001:0006b740       ?cull@ssgInvisible@@UAEXPAVsgFrustum@@QAY03MH@Z 0046c740 f   ssg_vs2008_32:ssgInvisible.obj
 0001:0006b750       ?load@ssgInvisible@@UAEHPAU_iobuf@@@Z 0046c750 f   ssg_vs2008_32:ssgInvisible.obj
 0001:0006b760       ?save@ssgInvisible@@UAEHPAU_iobuf@@@Z 0046c760 f   ssg_vs2008_32:ssgInvisible.obj
 0001:0006b770       ?clone@ssgInvisible@@UAEPAVssgBase@@H@Z 0046c770 f   ssg_vs2008_32:ssgInvisible.obj
 0001:0006b7e0       ??_EssgInvisible@@UAEPAXI@Z 0046c7e0 f i ssg_vs2008_32:ssgInvisible.obj
 0001:0006b7e0       ??_GssgInvisible@@UAEPAXI@Z 0046c7e0 f i ssg_vs2008_32:ssgInvisible.obj
 0001:0006b800       ?getNumSteps@ssgStateSelector@@QAEHXZ 0046c800 f i ssg_vs2008_32:ssgStateSelector.obj
 0001:0006b810       ??0ssgStateSelector@@QAE@XZ 0046c810 f   ssg_vs2008_32:ssgStateSelector.obj
 0001:0006b850       ??0ssgStateSelector@@QAE@H@Z 0046c850 f   ssg_vs2008_32:ssgStateSelector.obj
 0001:0006b900       ??1ssgStateSelector@@UAE@XZ 0046c900 f   ssg_vs2008_32:ssgStateSelector.obj
 0001:0006b980       ?selectStep@ssgStateSelector@@QAEXI@Z 0046c980 f   ssg_vs2008_32:ssgStateSelector.obj
 0001:0006b990       ?getSelectStep@ssgStateSelector@@QAEIXZ 0046c990 f   ssg_vs2008_32:ssgStateSelector.obj
 0001:0006b9a0       ?getCurrentStep@ssgStateSelector@@QAEPAVssgSimpleState@@XZ 0046c9a0 f   ssg_vs2008_32:ssgStateSelector.obj
 0001:0006b9d0       ?getStep@ssgStateSelector@@QAEPAVssgSimpleState@@H@Z 0046c9d0 f   ssg_vs2008_32:ssgStateSelector.obj
 0001:0006ba00       ?setStep@ssgStateSelector@@QAEXHPAVssgSimpleState@@@Z 0046ca00 f   ssg_vs2008_32:ssgStateSelector.obj
 0001:0006ba40       ?isTranslucent@ssgStateSelector@@UAEHXZ 0046ca40 f   ssg_vs2008_32:ssgStateSelector.obj
 0001:0006ba50       ?setTranslucent@ssgStateSelector@@UAEXXZ 0046ca50 f   ssg_vs2008_32:ssgStateSelector.obj
 0001:0006ba60       ?setOpaque@ssgStateSelector@@UAEXXZ 0046ca60 f   ssg_vs2008_32:ssgStateSelector.obj
 0001:0006ba80       ?force@ssgStateSelector@@UAEXXZ 0046ca80 f   ssg_vs2008_32:ssgStateSelector.obj
 0001:0006baa0       ?apply@ssgStateSelector@@UAEXXZ 0046caa0 f   ssg_vs2008_32:ssgStateSelector.obj
 0001:0006bac0       ?care_about@ssgStateSelector@@UAEXH@Z 0046cac0 f   ssg_vs2008_32:ssgStateSelector.obj
 0001:0006baf0       ?dont_care_about@ssgStateSelector@@UAEXH@Z 0046caf0 f   ssg_vs2008_32:ssgStateSelector.obj
 0001:0006bb20       ?isEnabled@ssgStateSelector@@UAEHI@Z 0046cb20 f   ssg_vs2008_32:ssgStateSelector.obj
 0001:0006bb50       ?disable@ssgStateSelector@@UAEXI@Z 0046cb50 f   ssg_vs2008_32:ssgStateSelector.obj
 0001:0006bb80       ?enable@ssgStateSelector@@UAEXI@Z 0046cb80 f   ssg_vs2008_32:ssgStateSelector.obj
 0001:0006bbb0       ?setTexture@ssgStateSelector@@QAEXPADHHH@Z 0046cbb0 f   ssg_vs2008_32:ssgStateSelector.obj
 0001:0006bbf0       ?getTextureFilename@ssgStateSelector@@UAEPADXZ 0046cbf0 f   ssg_vs2008_32:ssgStateSelector.obj
 0001:0006bc20       ?getTextureHandle@ssgStateSelector@@UAEIXZ 0046cc20 f   ssg_vs2008_32:ssgStateSelector.obj
 0001:0006bc50       ?setTexture@ssgStateSelector@@UAEXPAVssgTexture@@@Z 0046cc50 f   ssg_vs2008_32:ssgStateSelector.obj
 0001:0006bca0       ?setTextureFilename@ssgStateSelector@@QAEXPAD@Z 0046cca0 f   ssg_vs2008_32:ssgStateSelector.obj
 0001:0006bcf0       ?setTexture@ssgStateSelector@@UAEXI@Z 0046ccf0 f   ssg_vs2008_32:ssgStateSelector.obj
 0001:0006bd20       ?setColourMaterial@ssgStateSelector@@UAEXI@Z 0046cd20 f   ssg_vs2008_32:ssgStateSelector.obj
 0001:0006bd50       ?setMaterial@ssgStateSelector@@UAEXIMMMM@Z 0046cd50 f   ssg_vs2008_32:ssgStateSelector.obj
 0001:0006bde0       ?setMaterial@ssgStateSelector@@UAEXIQAM@Z 0046cde0 f   ssg_vs2008_32:ssgStateSelector.obj
 0001:0006be10       ?getMaterial@ssgStateSelector@@UAEPAMI@Z 0046ce10 f   ssg_vs2008_32:ssgStateSelector.obj
 0001:0006be70       ?getShininess@ssgStateSelector@@UAEMXZ 0046ce70 f   ssg_vs2008_32:ssgStateSelector.obj
 0001:0006bea0       ?setShininess@ssgStateSelector@@UAEXM@Z 0046cea0 f   ssg_vs2008_32:ssgStateSelector.obj
 0001:0006bee0       ?setShadeModel@ssgStateSelector@@UAEXI@Z 0046cee0 f   ssg_vs2008_32:ssgStateSelector.obj
 0001:0006bf20       ?setAlphaClamp@ssgStateSelector@@UAEXM@Z 0046cf20 f   ssg_vs2008_32:ssgStateSelector.obj
 0001:0006bf60       ?print@ssgStateSelector@@UAEXPAU_iobuf@@PADH@Z 0046cf60 f   ssg_vs2008_32:ssgStateSelector.obj
 0001:0006bf90       ?load@ssgStateSelector@@UAEHPAU_iobuf@@@Z 0046cf90 f   ssg_vs2008_32:ssgStateSelector.obj
 0001:0006c050       ?save@ssgStateSelector@@UAEHPAU_iobuf@@@Z 0046d050 f   ssg_vs2008_32:ssgStateSelector.obj
 0001:0006c0c0       ?copy_from@ssgStateSelector@@MAEXPAV1@H@Z 0046d0c0 f   ssg_vs2008_32:ssgStateSelector.obj
 0001:0006c180       ?clone@ssgStateSelector@@UAEPAVssgBase@@H@Z 0046d180 f   ssg_vs2008_32:ssgStateSelector.obj
 0001:0006c1f0       ??_GssgStateSelector@@UAEPAXI@Z 0046d1f0 f i ssg_vs2008_32:ssgStateSelector.obj
 0001:0006c1f0       ??_EssgStateSelector@@UAEPAXI@Z 0046d1f0 f i ssg_vs2008_32:ssgStateSelector.obj
 0001:0006c210       ?textureOverridden@ssgContext@@QAEHXZ 0046d210 f i ssg_vs2008_32:ssgStateTables.obj
 0001:0006c220       ?cullfaceOverridden@ssgContext@@QAEHXZ 0046d220 f i ssg_vs2008_32:ssgStateTables.obj
 0001:0006d820       ?ssgShowStats@@YAPADXZ     0046e820 f   ssg_vs2008_32:ssgStats.obj
 0001:0006d8d0       ?isTranslucent@ssgLeaf@@QAEHXZ 0046e8d0 f i ssg_vs2008_32:ssgLeaf.obj
 0001:0006d8f0       ?setCullface@ssgContext@@QAEXH@Z 0046e8f0 f i ssg_vs2008_32:ssgLeaf.obj
 0001:0006d930       ?setState@ssgLeaf@@QAEXPAVssgState@@@Z 0046e930 f   ssg_vs2008_32:ssgLeaf.obj
 0001:0006d960       ?copy_from@ssgLeaf@@MAEXPAV1@H@Z 0046e960 f   ssg_vs2008_32:ssgLeaf.obj
 0001:0006d9f0       ??0ssgLeaf@@QAE@XZ         0046e9f0 f   ssg_vs2008_32:ssgLeaf.obj
 0001:0006da20       ?getNumVertices@ssgLeaf@@UAEHXZ 0046ea20 f i ssg_vs2008_32:ssgLeaf.obj
 0001:0006da30       ?getNumNormals@ssgLeaf@@UAEHXZ 0046ea30 f i ssg_vs2008_32:ssgLeaf.obj
 0001:0006da40       ?getNumColours@ssgLeaf@@UAEHXZ 0046ea40 f i ssg_vs2008_32:ssgLeaf.obj
 0001:0006da50       ?getNumTexCoords@ssgLeaf@@UAEHXZ 0046ea50 f i ssg_vs2008_32:ssgLeaf.obj
 0001:0006da60       ?deleteDList@ssgLeaf@@QAEXXZ 0046ea60 f   ssg_vs2008_32:ssgLeaf.obj
 0001:0006da80       ?makeDList@ssgLeaf@@QAEXXZ 0046ea80 f   ssg_vs2008_32:ssgLeaf.obj
 0001:0006dab0       ?cull@ssgLeaf@@UAEXPAVsgFrustum@@QAY03MH@Z 0046eab0 f   ssg_vs2008_32:ssgLeaf.obj
 0001:0006db00       ?hot@ssgLeaf@@UAEXQAMQAY03MH@Z 0046eb00 f   ssg_vs2008_32:ssgLeaf.obj
 0001:0006db40       ?los@ssgLeaf@@UAEXQAMQAY03MH@Z 0046eb40 f   ssg_vs2008_32:ssgLeaf.obj
 0001:0006db80       ?isect@ssgLeaf@@UAEXPAVsgSphere@@QAY03MH@Z 0046eb80 f   ssg_vs2008_32:ssgLeaf.obj
 0001:0006dbc0       ?getStats@ssgLeaf@@UAEXPAH000@Z 0046ebc0 f   ssg_vs2008_32:ssgLeaf.obj
 0001:0006dc00       ?print@ssgLeaf@@UAEXPAU_iobuf@@PADH@Z 0046ec00 f   ssg_vs2008_32:ssgLeaf.obj
 0001:0006dcb0       ?preDraw@ssgLeaf@@IAEHXZ   0046ecb0 f   ssg_vs2008_32:ssgLeaf.obj
 0001:0006dd10       ?load@ssgLeaf@@UAEHPAU_iobuf@@@Z 0046ed10 f   ssg_vs2008_32:ssgLeaf.obj
 0001:0006dd90       ?save@ssgLeaf@@UAEHPAU_iobuf@@@Z 0046ed90 f   ssg_vs2008_32:ssgLeaf.obj
 0001:0006ddd0       ??1ssgLeaf@@UAE@XZ         0046edd0 f   ssg_vs2008_32:ssgLeaf.obj
 0001:0006de30       ??_EssgLeaf@@UAEPAXI@Z     0046ee30 f i ssg_vs2008_32:ssgLeaf.obj
 0001:0006de30       ??_GssgLeaf@@UAEPAXI@Z     0046ee30 f i ssg_vs2008_32:ssgLeaf.obj
 0001:0006de50       ?origVert@ssgVertSplitter@@QAEHH@Z 0046ee50 f   ssg_vs2008_32:ssgVertSplitter.obj
 0001:0006de60       ??1ssgVertSplitter@@UAE@XZ 0046ee60 f   ssg_vs2008_32:ssgVertSplitter.obj
 0001:0006deb0       ?setTri@ssgVertSplitter@@QAEXHHHH@Z 0046eeb0 f   ssg_vs2008_32:ssgVertSplitter.obj
 0001:0006df10       ?getTri@ssgVertSplitter@@QAEPAHH@Z 0046ef10 f   ssg_vs2008_32:ssgVertSplitter.obj
 0001:0006df30       ?setSharpAngle@ssgVertSplitter@@QAEXM@Z 0046ef30 f   ssg_vs2008_32:ssgVertSplitter.obj
 0001:0006df60       ?findTriWithVert@ssgVertSplitter@@AAEHHHPAHH@Z 0046ef60 f   ssg_vs2008_32:ssgVertSplitter.obj
 0001:0006dfc0       ?nextTri@ssgVertSplitter@@AAEHHHPAHH@Z 0046efc0 f   ssg_vs2008_32:ssgVertSplitter.obj
 0001:0006e030       ?prevTri@ssgVertSplitter@@AAEHHHPAHH@Z 0046f030 f   ssg_vs2008_32:ssgVertSplitter.obj
 0001:0006e0a0       ?fixVidx@ssgVertSplitter@@CAXPAUTri@1@HH@Z 0046f0a0 f   ssg_vs2008_32:ssgVertSplitter.obj
 0001:0006e0d0       ?condenseGeometry@ssgVertSplitter@@AAEXXZ 0046f0d0 f   ssg_vs2008_32:ssgVertSplitter.obj
 0001:0006e190       ?expandDuplicates@ssgVertSplitter@@AAEXXZ 0046f190 f   ssg_vs2008_32:ssgVertSplitter.obj
 0001:0006e350       ?splitAndCalcNormals@ssgVertSplitter@@QAEXXZ 0046f350 f   ssg_vs2008_32:ssgVertSplitter.obj
 0001:0006ec30       ??0ssgVertSplitter@@QAE@HH@Z 0046fc30 f   ssg_vs2008_32:ssgVertSplitter.obj
 0001:0006ed00       ??_GssgVertSplitter@@UAEPAXI@Z 0046fd00 f i ssg_vs2008_32:ssgVertSplitter.obj
 0001:0006ed00       ??_EssgVertSplitter@@UAEPAXI@Z 0046fd00 f i ssg_vs2008_32:ssgVertSplitter.obj
 0001:0006ed20       ??0ssgList@@QAE@H@Z        0046fd20 f   ssg_vs2008_32:ssgList.obj
 0001:0006ed70       ?sizeChk@ssgList@@IAEXXZ   0046fd70 f   ssg_vs2008_32:ssgList.obj
 0001:0006edc0       ?searchForEntity@ssgList@@QAEHPAVssgEntity@@@Z 0046fdc0 f   ssg_vs2008_32:ssgList.obj
 0001:0006edf0       ?removeAllEntities@ssgList@@QAEXXZ 0046fdf0 f   ssg_vs2008_32:ssgList.obj
 0001:0006ee20       ?removeEntity@ssgList@@UAEXI@Z 0046fe20 f   ssg_vs2008_32:ssgList.obj
 0001:0006ee60       ?removeEntity@ssgKidList@@UAEXI@Z 0046fe60 f   ssg_vs2008_32:ssgList.obj
 0001:0006ee80       ?replaceEntity@ssgList@@UAEXIPAVssgEntity@@@Z 0046fe80 f   ssg_vs2008_32:ssgList.obj
 0001:0006eea0       ?replaceEntity@ssgKidList@@UAEXIPAVssgEntity@@@Z 0046fea0 f   ssg_vs2008_32:ssgList.obj
 0001:0006eed0       ??1ssgList@@UAE@XZ         0046fed0 f   ssg_vs2008_32:ssgList.obj
 0001:0006eef0       ??1ssgKidList@@UAE@XZ      0046fef0 f   ssg_vs2008_32:ssgList.obj
 0001:0006ef00       ?addEntity@ssgList@@UAEXPAVssgEntity@@@Z 0046ff00 f   ssg_vs2008_32:ssgList.obj
 0001:0006ef20       ?addEntity@ssgKidList@@UAEXPAVssgEntity@@@Z 0046ff20 f   ssg_vs2008_32:ssgList.obj
 0001:0006ef30       ??_EssgList@@UAEPAXI@Z     0046ff30 f i ssg_vs2008_32:ssgList.obj
 0001:0006ef30       ??_GssgList@@UAEPAXI@Z     0046ff30 f i ssg_vs2008_32:ssgList.obj
 0001:0006ef50       ??0ssgKidList@@QAE@H@Z     0046ff50 f   ssg_vs2008_32:ssgList.obj
 0001:0006ef70       ??_GssgKidList@@UAEPAXI@Z  0046ff70 f i ssg_vs2008_32:ssgList.obj
 0001:0006ef70       ??_EssgKidList@@UAEPAXI@Z  0046ff70 f i ssg_vs2008_32:ssgList.obj
 0001:0006ef90       ?getTraversalMask@ssgEntity@@QAEHXZ 0046ff90 f i ssg_vs2008_32:ssgEntity.obj
 0001:0006efa0       ?getTravCallback@ssgEntity@@QAEP6AHPAV1@H@ZH@Z 0046ffa0 f i ssg_vs2008_32:ssgEntity.obj
 0001:0006efc0       ?setTravCallback@ssgEntity@@QAEXHP6AHPAV1@H@Z@Z 0046ffc0 f i ssg_vs2008_32:ssgEntity.obj
 0001:0006efe0       ??1ssgEntity@@UAE@XZ       0046ffe0 f   ssg_vs2008_32:ssgEntity.obj
 0001:0006f040       ?dirtyBSphere@ssgEntity@@QAEXXZ 00470040 f   ssg_vs2008_32:ssgEntity.obj
 0001:0006f090       ?visualiseBSphere@ssgEntity@@IAEXXZ 00470090 f   ssg_vs2008_32:ssgEntity.obj
 0001:0006f100       ?print@ssgEntity@@UAEXPAU_iobuf@@PADH@Z 00470100 f   ssg_vs2008_32:ssgEntity.obj
 0001:0006f140       ?getByName@ssgEntity@@UAEPAV1@PAD@Z 00470140 f   ssg_vs2008_32:ssgEntity.obj
 0001:0006f180       ?getByPath@ssgEntity@@UAEPAV1@PAD@Z 00470180 f   ssg_vs2008_32:ssgEntity.obj
 0001:0006f1d0       ?getCallback@ssgEntity@@UAEP6AHPAV1@@ZH@Z 004701d0 f   ssg_vs2008_32:ssgEntity.obj
 0001:0006f200       ?setCallback@ssgEntity@@UAEXHP6AHPAV1@@Z@Z 00470200 f   ssg_vs2008_32:ssgEntity.obj
 0001:0006f230       ?preTravTests@ssgEntity@@QAEHPAHH@Z 00470230 f   ssg_vs2008_32:ssgEntity.obj
 0001:0006f280       ?postTravTests@ssgEntity@@QAEXH@Z 00470280 f   ssg_vs2008_32:ssgEntity.obj
 0001:0006f2a0       ?cull_test@ssgEntity@@MAE?AW4ssgCullResult@@PAVsgFrustum@@QAY03MH@Z 004702a0 f   ssg_vs2008_32:ssgEntity.obj
 0001:0006f330       ?isect_test@ssgEntity@@MAE?AW4ssgCullResult@@PAVsgSphere@@QAY03MH@Z 00470330 f   ssg_vs2008_32:ssgEntity.obj
 0001:0006f4d0       ?bindEntities@ssgEntity@@QAEHPAUssgEntityBinding@@@Z 004704d0 f   ssg_vs2008_32:ssgEntity.obj
 0001:0006f530       ?hot_test@ssgEntity@@MAE?AW4ssgCullResult@@QAMQAY03MH@Z 00470530 f   ssg_vs2008_32:ssgEntity.obj
 0001:0006f630       ?los_test@ssgEntity@@MAE?AW4ssgCullResult@@QAMQAY03MH@Z 00470630 f   ssg_vs2008_32:ssgEntity.obj
 0001:0006f820       ?load@ssgEntity@@UAEHPAU_iobuf@@@Z 00470820 f   ssg_vs2008_32:ssgEntity.obj
 0001:0006f850       ?save@ssgEntity@@UAEHPAU_iobuf@@@Z 00470850 f   ssg_vs2008_32:ssgEntity.obj
 0001:0006f880       ?getNetTransform@ssgEntity@@UAEXQAY03M@Z 00470880 f   ssg_vs2008_32:ssgEntity.obj
 0001:0006f8f0       ?getLastNetTransform@ssgEntity@@UAEXQAY03M@Z 004708f0 f   ssg_vs2008_32:ssgEntity.obj
 0001:0006f960       ??0sgSphere@@QAE@XZ        00470960 f i ssg_vs2008_32:ssgEntity.obj
 0001:0006f970       ?copy_from@ssgEntity@@MAEXPAV1@H@Z 00470970 f   ssg_vs2008_32:ssgEntity.obj
 0001:0006f9b0       ??0ssgEntity@@QAE@XZ       004709b0 f   ssg_vs2008_32:ssgEntity.obj
 0001:0006fa30       ??_EssgEntity@@UAEPAXI@Z   00470a30 f i ssg_vs2008_32:ssgEntity.obj
 0001:0006fa30       ??_GssgEntity@@UAEPAXI@Z   00470a30 f i ssg_vs2008_32:ssgEntity.obj
 0001:0006fa50       ?error@_ssgParser@@QAAXPBDZZ 00470a50 f   ssg_vs2008_32:ssgParser.obj
 0001:0006fab0       ?message@_ssgParser@@QAAXPBDZZ 00470ab0 f   ssg_vs2008_32:ssgParser.obj
 0001:0006fb10       ?openFile@_ssgParser@@QAEHPBDPBU_ssgParserSpec@@@Z 00470b10 f   ssg_vs2008_32:ssgParser.obj
 0001:0006fc70       ?closeFile@_ssgParser@@QAEXXZ 00470c70 f   ssg_vs2008_32:ssgParser.obj
 0001:0006fc90       ?addOneCharToken@_ssgParser@@AAEXPAD@Z 00470c90 f   ssg_vs2008_32:ssgParser.obj
 0001:0006fce0       ?getRawLine@_ssgParser@@QAEPADXZ 00470ce0 f   ssg_vs2008_32:ssgParser.obj
 0001:0006fd40       ?parseToken@_ssgParser@@QAEPADPBD@Z 00470d40 f   ssg_vs2008_32:ssgParser.obj
 0001:0006fd90       ?parseString@_ssgParser@@QAEHAAPADPBD@Z 00470d90 f   ssg_vs2008_32:ssgParser.obj
 0001:0006fe50       ?parseDouble@_ssgParser@@QAEHAANPBD@Z 00470e50 f   ssg_vs2008_32:ssgParser.obj
 0001:0006feb0       ?parseFloat@_ssgParser@@QAEHAAMPBD@Z 00470eb0 f   ssg_vs2008_32:ssgParser.obj
 0001:0006ff10       ?parseInt@_ssgParser@@QAEHAAHPBD@Z 00470f10 f   ssg_vs2008_32:ssgParser.obj
 0001:0006ff70       ?parseUInt@_ssgParser@@QAEHAAIPBD@Z 00470f70 f   ssg_vs2008_32:ssgParser.obj
 0001:0006ffe0       ?expect@_ssgParser@@QAEXPBD@Z 00470fe0 f   ssg_vs2008_32:ssgParser.obj
 0001:00070030       ?getLine@_ssgParser@@QAEPADH@Z 00471030 f   ssg_vs2008_32:ssgParser.obj
 0001:00070320       ?getNextToken@_ssgParser@@QAEPADPBD@Z 00471320 f   ssg_vs2008_32:ssgParser.obj
 0001:000703a0       ?peekAtNextToken@_ssgParser@@QAEPADPBD@Z 004713a0 f   ssg_vs2008_32:ssgParser.obj
 0001:00070410       ?getNextFloat@_ssgParser@@QAEHAAMPBD@Z 00471410 f   ssg_vs2008_32:ssgParser.obj
 0001:00070470       ?getNextInt@_ssgParser@@QAEHAAHPBD@Z 00471470 f   ssg_vs2008_32:ssgParser.obj
 0001:000704d0       ?getNextString@_ssgParser@@QAEHAAPADPBD@Z 004714d0 f   ssg_vs2008_32:ssgParser.obj
 0001:00070570       ?getNextUInt@_ssgParser@@QAEHAAIPBD@Z 00471570 f   ssg_vs2008_32:ssgParser.obj
 0001:000705d0       ?expectNextToken@_ssgParser@@QAEXPBD@Z 004715d0 f   ssg_vs2008_32:ssgParser.obj
 0001:00070620       ?set@ssgTexCoordArray@@QAEXQAMI@Z 00471620 f i ssg_vs2008_32:ssgLoaderWriterStuff.obj
 0001:00070640       ??0ssgListOfLists@@QAE@H@Z 00471640 f i ssg_vs2008_32:ssgLoaderWriterStuff.obj
 0001:000706c0       ?clone@ssgListOfLists@@UAEPAVssgBase@@H@Z 004716c0 f i ssg_vs2008_32:ssgLoaderWriterStuff.obj
 0001:000706d0       ?get@ssgListOfLists@@QAEPAPAVssgSimpleList@@I@Z 004716d0 f i ssg_vs2008_32:ssgLoaderWriterStuff.obj
 0001:000706f0       ?add@ssgListOfLists@@QAEXPAPAVssgSimpleList@@@Z 004716f0 f i ssg_vs2008_32:ssgLoaderWriterStuff.obj
 0001:00070720       ?print@ssgListOfLists@@UAEXPAU_iobuf@@PADH@Z 00471720 f i ssg_vs2008_32:ssgLoaderWriterStuff.obj
 0001:00070730       ??1ssgListOfLists@@UAE@XZ  00471730 f i ssg_vs2008_32:ssgLoaderWriterStuff.obj
 0001:00070740       ?ssgAccumVerticesAndFaces@@YAXPAVssgEntity@@QAY03MPAVssgVertexArray@@PAVssgIndexArray@@MPAVssgSimpleStateArray@@3PAVssgTexCoordArray@@@Z 00471740 f   ssg_vs2008_32:ssgLoaderWriterStuff.obj
 0001:000712e0       ?_ssgTriangulate@@YAHPAY02MPAHH1@Z 004722e0 f   ssg_vs2008_32:ssgLoaderWriterStuff.obj
 0001:000717c0       ?reInit@ssgLoaderWriterMesh@@QAEXXZ 004727c0 f   ssg_vs2008_32:ssgLoaderWriterStuff.obj
 0001:000717e0       ??0ssgLoaderWriterMesh@@QAE@XZ 004727e0 f   ssg_vs2008_32:ssgLoaderWriterStuff.obj
 0001:000717f0       ??1ssgLoaderWriterMesh@@QAE@XZ 004727f0 f   ssg_vs2008_32:ssgLoaderWriterStuff.obj
 0001:00071800       ?deletePerFaceAndVertexTextureCoordinates2@ssgLoaderWriterMesh@@QAEXXZ 00472800 f   ssg_vs2008_32:ssgLoaderWriterStuff.obj
 0001:00071810       ?createVertices@ssgLoaderWriterMesh@@QAEXH@Z 00472810 f   ssg_vs2008_32:ssgLoaderWriterStuff.obj
 0001:000718d0       ?addVertex@ssgLoaderWriterMesh@@QAEXQAM@Z 004728d0 f   ssg_vs2008_32:ssgLoaderWriterStuff.obj
 0001:00071910       ?setVertices@ssgLoaderWriterMesh@@QAEXPAVssgVertexArray@@@Z 00472910 f   ssg_vs2008_32:ssgLoaderWriterStuff.obj
 0001:00071920       ?setPerVertexTextureCoordinates2@ssgLoaderWriterMesh@@QAEXPAVssgTexCoordArray@@@Z 00472920 f   ssg_vs2008_32:ssgLoaderWriterStuff.obj
 0001:00071930       ?createFaces@ssgLoaderWriterMesh@@QAEXH@Z 00472930 f   ssg_vs2008_32:ssgLoaderWriterStuff.obj
 0001:000719a0       ?addFace@ssgLoaderWriterMesh@@QAEXPAPAVssgIndexArray@@@Z 004729a0 f   ssg_vs2008_32:ssgLoaderWriterStuff.obj
 0001:000719e0       ?addFaceFromIntegerArray@ssgLoaderWriterMesh@@QAEXHPAH@Z 004729e0 f   ssg_vs2008_32:ssgLoaderWriterStuff.obj
 0001:00071ae0       ?createPerFaceAndVertexTextureCoordinates2@ssgLoaderWriterMesh@@QAEXH@Z 00472ae0 f   ssg_vs2008_32:ssgLoaderWriterStuff.obj
 0001:00071b50       ?addPerFaceAndVertexTextureCoordinate2@ssgLoaderWriterMesh@@QAEXPAPAVssgTexCoordArray@@@Z 00472b50 f   ssg_vs2008_32:ssgLoaderWriterStuff.obj
 0001:00071b90       ?createPerVertexTextureCoordinates2@ssgLoaderWriterMesh@@QAEXH@Z 00472b90 f   ssg_vs2008_32:ssgLoaderWriterStuff.obj
 0001:00071c50       ?addPerVertexTextureCoordinate2@ssgLoaderWriterMesh@@QAEXQAM@Z 00472c50 f   ssg_vs2008_32:ssgLoaderWriterStuff.obj
 0001:00071c90       ?createMaterialIndices@ssgLoaderWriterMesh@@QAEXH@Z 00472c90 f   ssg_vs2008_32:ssgLoaderWriterStuff.obj
 0001:00071d50       ?addMaterialIndex@ssgLoaderWriterMesh@@QAEXF@Z 00472d50 f   ssg_vs2008_32:ssgLoaderWriterStuff.obj
 0001:00071d90       ?createMaterials@ssgLoaderWriterMesh@@QAEXH@Z 00472d90 f   ssg_vs2008_32:ssgLoaderWriterStuff.obj
 0001:00071e00       ?addMaterial@ssgLoaderWriterMesh@@QAEXPAPAVssgSimpleState@@@Z 00472e00 f   ssg_vs2008_32:ssgLoaderWriterStuff.obj
 0001:00072090       ?addOneNodeToSSGFromPerVertexTextureCoordinates2@ssgLoaderWriterMesh@@AAEXPAVssgVertexArray@@PAVssgTexCoordArray@@PAVssgListOfLists@@PAVssgSimpleState@@PAVssgLoaderOptions@@PAVssgBranch@@@Z 00473090 f   ssg_vs2008_32:ssgLoaderWriterStuff.obj
 0001:000724d0       ?setName@ssgLoaderWriterMesh@@QAEXPBD@Z 004734d0 f   ssg_vs2008_32:ssgLoaderWriterStuff.obj
 0001:00072500       ?checkMe@ssgLoaderWriterMesh@@QAEHXZ 00473500 f   ssg_vs2008_32:ssgLoaderWriterStuff.obj
 0001:000726b0       ??_GssgListOfLists@@UAEPAXI@Z 004736b0 f i ssg_vs2008_32:ssgLoaderWriterStuff.obj
 0001:000726b0       ??_EssgListOfLists@@UAEPAXI@Z 004736b0 f i ssg_vs2008_32:ssgLoaderWriterStuff.obj
 0001:000726d0       ?addOneNodeToSSGFromPerFaceAndVertexTextureCoordinates2@ssgLoaderWriterMesh@@AAEXPAVssgVertexArray@@PAVssgListOfLists@@1PAVssgSimpleState@@PAVssgLoaderOptions@@PAVssgBranch@@@Z 004736d0 f   ssg_vs2008_32:ssgLoaderWriterStuff.obj
 0001:000729e0       ?addToSSG@ssgLoaderWriterMesh@@QAEXPAVssgSimpleState@@PAVssgLoaderOptions@@PAVssgBranch@@@Z 004739e0 f   ssg_vs2008_32:ssgLoaderWriterStuff.obj
 0001:00072f70       ?reset@ssgStatistics@@QAEXXZ 00473f70 f   ssg_vs2008_32:ssgStatistics.obj
 0001:00072f80       ?ssgGetLatestStatistics@@YAPAVssgStatistics@@XZ 00473f80 f   ssg_vs2008_32:ssgStatistics.obj
 0001:00072f90       ??0ssgStatistics@@QAE@XZ   00473f90 f i ssg_vs2008_32:ssgStatistics.obj
 0001:00072fa0       ?copy_from@ssgBaseTransform@@MAEXPAV1@H@Z 00473fa0 f   ssg_vs2008_32:ssgBaseTransform.obj
 0001:00073030       ??0ssgBaseTransform@@QAE@XZ 00474030 f   ssg_vs2008_32:ssgBaseTransform.obj
 0001:00073120       ??1ssgBaseTransform@@UAE@XZ 00474120 f   ssg_vs2008_32:ssgBaseTransform.obj
 0001:00073130       ?load@ssgBaseTransform@@UAEHPAU_iobuf@@@Z 00474130 f   ssg_vs2008_32:ssgBaseTransform.obj
 0001:00073180       ?save@ssgBaseTransform@@UAEHPAU_iobuf@@@Z 00474180 f   ssg_vs2008_32:ssgBaseTransform.obj
 0001:000731b0       ?print@ssgBaseTransform@@UAEXPAU_iobuf@@PADH@Z 004741b0 f   ssg_vs2008_32:ssgBaseTransform.obj
 0001:00073220       ??_GssgBaseTransform@@UAEPAXI@Z 00474220 f i ssg_vs2008_32:ssgBaseTransform.obj
 0001:00073220       ??_EssgBaseTransform@@UAEPAXI@Z 00474220 f i ssg_vs2008_32:ssgBaseTransform.obj
 0001:00073240       ?ulSetError@@YAXW4ulSeverity@@PBDZZ 00474240 f   ul_vs2008_32:ulError.obj
 0001:000732b0       ?ulGetError@@YAPADXZ       004742b0 f   ul_vs2008_32:ulError.obj
 0001:000732c0       ?ulClearError@@YAXXZ       004742c0 f   ul_vs2008_32:ulError.obj
 0001:000732d0       ?ulGetErrorCallback@@YAP6AXW4ulSeverity@@PAD@ZXZ 004742d0 f   ul_vs2008_32:ulError.obj
 0001:000732e0       ?ulSetErrorCallback@@YAXP6AXW4ulSeverity@@PAD@Z@Z 004742e0 f   ul_vs2008_32:ulError.obj
 0001:000732f0       _ulInit                    004742f0 f   ul_vs2008_32:ul.obj
 0001:00073300       ?ulOpenDir@@YAPAU_ulDir@@PBD@Z 00474300 f   ul_vs2008_32:ul.obj
 0001:000733f0       ?ulReadDir@@YAPAUulDirEnt@@PAU_ulDir@@@Z 004743f0 f   ul_vs2008_32:ul.obj
 0001:00073470       ?ulCloseDir@@YAXPAU_ulDir@@@Z 00474470 f   ul_vs2008_32:ul.obj
 0001:000734a0       ?ulFileExists@@YA_NPBD@Z   004744a0 f   ul_vs2008_32:ul.obj
 0001:000734d0       ?ulStrDup@@YAPADPBD@Z      004744d0 f   ul_vs2008_32:ul.obj
 0001:00073510       ?ulStrNEqual@@YAHPBD0H@Z   00474510 f   ul_vs2008_32:ul.obj
 0001:000735b0       ?ulStrEqual@@YAHPBD0@Z     004745b0 f   ul_vs2008_32:ul.obj
 0001:00073640       ?ulIsAbsolutePathName@@YAHPBD@Z 00474640 f   ul_vs2008_32:ul.obj
 0001:00073680       ?ulGetCWD@@YAPADPADH@Z     00474680 f   ul_vs2008_32:ul.obj
 0001:00073690       ?ulMakePath@@YAPADPADPBD1@Z 00474690 f   ul_vs2008_32:ul.obj
 0001:00073860       ?ulFindFile@@YAXPADPBD11@Z 00474860 f   ul_vs2008_32:ul.obj
 0001:00073a70       ?initPerformanceTimer@ulClock@@AAEXXZ 00474a70 f   ul_vs2008_32:ulClock.obj
 0001:00073ab0       ?getRawTime@ulClock@@ABENXZ 00474ab0 f   ul_vs2008_32:ulClock.obj
 0001:00073b00       ?update@ulClock@@QAEXXZ    00474b00 f   ul_vs2008_32:ulClock.obj
 0001:00073b40       ??0ulList@@QAE@H@Z         00474b40 f   ul_vs2008_32:ulList.obj
 0001:00073b90       ?sizeChk@ulList@@IAEXXZ    00474b90 f   ul_vs2008_32:ulList.obj
 0001:00073be0       ?searchForEntity@ulList@@QBEHPAX@Z 00474be0 f   ul_vs2008_32:ulList.obj
 0001:00073c10       ?removeAllEntities@ulList@@QAEXXZ 00474c10 f   ul_vs2008_32:ulList.obj
 0001:00073c40       ?removeEntity@ulList@@UAEXI@Z 00474c40 f   ul_vs2008_32:ulList.obj
 0001:00073c80       ?replaceEntity@ulList@@UAEXIPAX@Z 00474c80 f   ul_vs2008_32:ulList.obj
 0001:00073ca0       ??1ulList@@UAE@XZ          00474ca0 f   ul_vs2008_32:ulList.obj
 0001:00073cc0       ?addEntity@ulList@@UAEXPAX@Z 00474cc0 f   ul_vs2008_32:ulList.obj
 0001:00073ce0       ?addEntityBefore@ulList@@UAEXHPAX@Z 00474ce0 f   ul_vs2008_32:ulList.obj
 0001:00073d20       ??_EulList@@UAEPAXI@Z      00474d20 f i ul_vs2008_32:ulList.obj
 0001:00073d20       ??_GulList@@UAEPAXI@Z      00474d20 f i ul_vs2008_32:ulList.obj
 0001:00073d3e       ?_tgf_win_calloc@@YAPAXII@Z 00474d3e f   tgf:tgf.dll
 0001:00073d44       ?_tgf_win_realloc@@YAPAXPAXI@Z 00474d44 f   tgf:tgf.dll
 0001:00073d4a       ?_tgf_win_free@@YAXPAX@Z   00474d4a f   tgf:tgf.dll
 0001:00073d50       ?GfParmGetStr@@YAPBDPAXPBD11@Z 00474d50 f   tgf:tgf.dll
 0001:00073d56       ?GfParmGetNum@@YAMPAXPBD11M@Z 00474d56 f   tgf:tgf.dll
 0001:00073d5c       ?_tgf_win_strdup@@YAPADPBD@Z 00474d5c f   tgf:tgf.dll
 0001:00073d62       ?GfModLoad@@YAHIPADPAPAUModList@@@Z 00474d62 f   tgf:tgf.dll
 0001:00073d68       ?GfParmReadFile@@YAPAXPBDH@Z 00474d68 f   tgf:tgf.dll
 0001:00073d6e       ?GetLibDir@@YAPADXZ        00474d6e f   tgf:tgf.dll
 0001:00073d74       ?_tgf_win_malloc@@YAPAXI@Z 00474d74 f   tgf:tgf.dll
 0001:00073d7a       ?GfParmGetCurStr@@YAPBDPAXPBD11@Z 00474d7a f   tgf:tgf.dll
 0001:00073d80       ?GfParmGetCurNum@@YAMPAXPBD11M@Z 00474d80 f   tgf:tgf.dll
 0001:00073d86       ?GfParmGetEltNb@@YAHPAXPBD@Z 00474d86 f   tgf:tgf.dll
 0001:00073d8c       ?GfParmListSeekFirst@@YAHPAXPBD@Z 00474d8c f   tgf:tgf.dll
 0001:00073d92       ?GfParmListSeekNext@@YAHPAXPBD@Z 00474d92 f   tgf:tgf.dll
 0001:00073d98       ?GfParmListGetCurEltName@@YAPADPAXPBD@Z 00474d98 f   tgf:tgf.dll
 0001:00073d9e       _GetLastError@0            00474d9e f   kernel32:KERNEL32.dll
 0001:00073da4       _QueryPerformanceCounter@4 00474da4 f   kernel32:KERNEL32.dll
 0001:00073daa       _QueryPerformanceFrequency@4 00474daa f   kernel32:KERNEL32.dll
 0001:00073db0       _FreeLibrary@4             00474db0 f   kernel32:KERNEL32.dll
 0001:00073db6       _GetProcAddress@8          00474db6 f   kernel32:KERNEL32.dll
 0001:00073dbc       _LoadLibraryA@4            00474dbc f   kernel32:KERNEL32.dll
 0001:00073dc2       _LocalFree@4               00474dc2 f   kernel32:KERNEL32.dll
 0001:00073dc8       _FormatMessageA@28         00474dc8 f   kernel32:KERNEL32.dll
 0001:00073dce       _CloseHandle@4             00474dce f   kernel32:KERNEL32.dll
 0001:00073dd4       _UnmapViewOfFile@4         00474dd4 f   kernel32:KERNEL32.dll
 0001:00073dda       _MapViewOfFile@20          00474dda f   kernel32:KERNEL32.dll
 0001:00073de0       _CreateFileMappingA@24     00474de0 f   kernel32:KERNEL32.dll
 0001:00073de6       _GetFileSize@8             00474de6 f   kernel32:KERNEL32.dll
 0001:00073dec       _CreateFileA@28            00474dec f   kernel32:KERNEL32.dll
 0001:00073df2       _FindFirstFileA@8          00474df2 f   kernel32:KERNEL32.dll
 0001:00073df8       _FindNextFileA@8           00474df8 f   kernel32:KERNEL32.dll
 0001:00073dfe       _FindClose@4               00474dfe f   kernel32:KERNEL32.dll
 0001:00073e10       ??0_Init_locks@std@@QAE@XZ 00474e10 f   libcpmtd:xlock.obj
 0001:00073e60       ??0_Lockit@std@@QAE@H@Z    00474e60 f   libcpmtd:xlock.obj
 0001:00073eb0       ??0_Lockit@std@@QAE@XZ     00474eb0 f   libcpmtd:xlock.obj
 0001:00073f00       ??1_Init_locks@std@@QAE@XZ 00474f00 f   libcpmtd:xlock.obj
 0001:00073f50       ??1_Lockit@std@@QAE@XZ     00474f50 f   libcpmtd:xlock.obj
 0001:00073f90       ?_Init_locks_ctor@_Init_locks@std@@CAXPAV12@@Z 00474f90 f   libcpmtd:xlock.obj
 0001:00073fe0       ?_Init_locks_dtor@_Init_locks@std@@CAXPAV12@@Z 00474fe0 f   libcpmtd:xlock.obj
 0001:00074030       ?_Lockit_ctor@_Lockit@std@@CAXPAV12@@Z 00475030 f   libcpmtd:xlock.obj
 0001:00074050       ?_Lockit_ctor@_Lockit@std@@CAXPAV12@H@Z 00475050 f   libcpmtd:xlock.obj
 0001:00074090       ?_Lockit_ctor@_Lockit@std@@SAXH@Z 00475090 f   libcpmtd:xlock.obj
 0001:000740c0       ?_Lockit_dtor@_Lockit@std@@CAXPAV12@@Z 004750c0 f   libcpmtd:xlock.obj
 0001:000740e0       ?_Lockit_dtor@_Lockit@std@@SAXH@Z 004750e0 f   libcpmtd:xlock.obj
 0001:00074110       ?_Debug_message@std@@YAXPBG0I@Z 00475110 f   libcpmtd:stdthrow.obj
 0001:00074130       ?_Debug_message@std@@YAXPB_W0I@Z 00475130 f   libcpmtd:stdthrow.obj
 0001:00074160       ??0_Ignore@std@@QAE@XZ     00475160 f i libcpmtd:xthrow.obj
 0001:00074170       ??0bad_alloc@std@@QAE@ABV01@@Z 00475170 f i libcpmtd:xthrow.obj
 0001:000741a0       ??0bad_alloc@std@@QAE@XZ   004751a0 f i libcpmtd:xthrow.obj
 0001:000741d0       ??0bad_function_call@std@@QAE@ABV01@@Z 004751d0 f i libcpmtd:xthrow.obj
 0001:00074200       ??0bad_function_call@std@@QAE@PBD@Z 00475200 f i libcpmtd:xthrow.obj
 0001:00074230       ??0invalid_argument@std@@QAE@ABV01@@Z 00475230 f i libcpmtd:xthrow.obj
 0001:00074260       ??0invalid_argument@std@@QAE@PBD@Z 00475260 f i libcpmtd:xthrow.obj
 0001:00074290       ??0length_error@std@@QAE@ABV01@@Z 00475290 f i libcpmtd:xthrow.obj
 0001:000742c0       ??0length_error@std@@QAE@PBD@Z 004752c0 f i libcpmtd:xthrow.obj
 0001:000742f0       ??0logic_error@std@@QAE@ABV01@@Z 004752f0 f i libcpmtd:xthrow.obj
 0001:00074320       ??0logic_error@std@@QAE@PBD@Z 00475320 f i libcpmtd:xthrow.obj
 0001:00074350       ??0out_of_range@std@@QAE@ABV01@@Z 00475350 f i libcpmtd:xthrow.obj
 0001:00074380       ??0out_of_range@std@@QAE@PBD@Z 00475380 f i libcpmtd:xthrow.obj
 0001:000743b0       ??0overflow_error@std@@QAE@ABV01@@Z 004753b0 f i libcpmtd:xthrow.obj
 0001:000743e0       ??0overflow_error@std@@QAE@PBD@Z 004753e0 f i libcpmtd:xthrow.obj
 0001:00074410       ??0regex_error@std@@QAE@ABV01@@Z 00475410 f i libcpmtd:xthrow.obj
 0001:00074450       ??0regex_error@std@@QAE@W4error_type@regex_constants@1@@Z 00475450 f i libcpmtd:xthrow.obj
 0001:00074490       ??0runtime_error@std@@QAE@ABV01@@Z 00475490 f i libcpmtd:xthrow.obj
 0001:000744c0       ??0runtime_error@std@@QAE@PBD@Z 004754c0 f i libcpmtd:xthrow.obj
 0001:000744f0       ??1bad_alloc@std@@UAE@XZ   004754f0 f i libcpmtd:xthrow.obj
 0001:00074510       ??1bad_function_call@std@@UAE@XZ 00475510 f i libcpmtd:xthrow.obj
 0001:00074530       ??1invalid_argument@std@@UAE@XZ 00475530 f i libcpmtd:xthrow.obj
 0001:00074550       ??1length_error@std@@UAE@XZ 00475550 f i libcpmtd:xthrow.obj
 0001:00074570       ??1logic_error@std@@UAE@XZ 00475570 f i libcpmtd:xthrow.obj
 0001:00074590       ??1out_of_range@std@@UAE@XZ 00475590 f i libcpmtd:xthrow.obj
 0001:000745b0       ??1overflow_error@std@@UAE@XZ 004755b0 f i libcpmtd:xthrow.obj
 0001:000745d0       ??1regex_error@std@@UAE@XZ 004755d0 f i libcpmtd:xthrow.obj
 0001:000745f0       ??1runtime_error@std@@UAE@XZ 004755f0 f i libcpmtd:xthrow.obj
 0001:00074610       ??_Gbad_alloc@std@@UAEPAXI@Z 00475610 f i libcpmtd:xthrow.obj
 0001:00074610       ??_Ebad_alloc@std@@UAEPAXI@Z 00475610 f i libcpmtd:xthrow.obj
 0001:00074640       ??_Ebad_function_call@std@@UAEPAXI@Z 00475640 f i libcpmtd:xthrow.obj
 0001:00074640       ??_Gbad_function_call@std@@UAEPAXI@Z 00475640 f i libcpmtd:xthrow.obj
 0001:00074670       ??_Ginvalid_argument@std@@UAEPAXI@Z 00475670 f i libcpmtd:xthrow.obj
 0001:00074670       ??_Einvalid_argument@std@@UAEPAXI@Z 00475670 f i libcpmtd:xthrow.obj
 0001:000746a0       ??_Elength_error@std@@UAEPAXI@Z 004756a0 f i libcpmtd:xthrow.obj
 0001:000746a0       ??_Glength_error@std@@UAEPAXI@Z 004756a0 f i libcpmtd:xthrow.obj
 0001:000746d0       ??_Elogic_error@std@@UAEPAXI@Z 004756d0 f i libcpmtd:xthrow.obj
 0001:000746d0       ??_Glogic_error@std@@UAEPAXI@Z 004756d0 f i libcpmtd:xthrow.obj
 0001:00074700       ??_Gout_of_range@std@@UAEPAXI@Z 00475700 f i libcpmtd:xthrow.obj
 0001:00074700       ??_Eout_of_range@std@@UAEPAXI@Z 00475700 f i libcpmtd:xthrow.obj
 0001:00074730       ??_Goverflow_error@std@@UAEPAXI@Z 00475730 f i libcpmtd:xthrow.obj
 0001:00074730       ??_Eoverflow_error@std@@UAEPAXI@Z 00475730 f i libcpmtd:xthrow.obj
 0001:00074760       ??_Gregex_error@std@@UAEPAXI@Z 00475760 f i libcpmtd:xthrow.obj
 0001:00074760       ??_Eregex_error@std@@UAEPAXI@Z 00475760 f i libcpmtd:xthrow.obj
 0001:00074790       ??_Eruntime_error@std@@UAEPAXI@Z 00475790 f i libcpmtd:xthrow.obj
 0001:00074790       ??_Gruntime_error@std@@UAEPAXI@Z 00475790 f i libcpmtd:xthrow.obj
 0001:000747c0       ?_Stringify@regex_error@std@@CAPBDW4error_type@regex_constants@2@@Z 004757c0 f i libcpmtd:xthrow.obj
 0001:00074890       ?_Xbad_alloc@std@@YAXXZ    00475890 f   libcpmtd:xthrow.obj
 0001:000748b0       ?_Xbad_function_call@std@@YAXXZ 004758b0 f   libcpmtd:xthrow.obj
 0001:000748e0       ?_Xinvalid_argument@std@@YAXPBD@Z 004758e0 f   libcpmtd:xthrow.obj
 0001:00074910       ?_Xlength_error@std@@YAXPBD@Z 00475910 f   libcpmtd:xthrow.obj
 0001:00074940       ?_Xout_of_range@std@@YAXPBD@Z 00475940 f   libcpmtd:xthrow.obj
 0001:00074970       ?_Xoverflow_error@std@@YAXPBD@Z 00475970 f   libcpmtd:xthrow.obj
 0001:000749a0       ?_Xregex_error@std@@YAXW4error_type@regex_constants@1@@Z 004759a0 f   libcpmtd:xthrow.obj
 0001:000749d0       ?_Xruntime_error@std@@YAXPBD@Z 004759d0 f   libcpmtd:xthrow.obj
 0001:00074a00       ?what@bad_function_call@std@@UBEPBDXZ 00475a00 f i libcpmtd:xthrow.obj
 0001:00074a10       ?_Syserror_map@std@@YAPBDH@Z 00475a10 f   libcpmtd:syserror.obj
 0001:00074a60       ?_Winerror_map@std@@YAPBDH@Z 00475a60 f   libcpmtd:syserror.obj
 0001:00074ab0       __Mtxdst                   00475ab0 f   libcpmtd:xmtx.obj
 0001:00074ac0       __Mtxinit                  00475ac0 f   libcpmtd:xmtx.obj
 0001:00074ae0       __Mtxlock                  00475ae0 f   libcpmtd:xmtx.obj
 0001:00074af0       __Mtxunlock                00475af0 f   libcpmtd:xmtx.obj
 0001:00074b00       __Once                     00475b00 f   libcpmtd:xmtx.obj
 0001:00074b60       __fclose_nolock            00475b60 f   LIBCMTD:fclose.obj
 0001:00074c70       _fclose                    00475c70 f   LIBCMTD:fclose.obj
 0001:00074d90       __fsopen                   00475d90 f   LIBCMTD:fopen.obj
 0001:00074fe0       _fopen                     00475fe0 f   LIBCMTD:fopen.obj
 0001:00075000       _fopen_s                   00476000 f   LIBCMTD:fopen.obj
 0001:000750c0       __fprintf_l                004760c0 f   LIBCMTD:fprintf.obj
 0001:000750f0       __fprintf_p                004760f0 f   LIBCMTD:fprintf.obj
 0001:00075120       __fprintf_p_l              00476120 f   LIBCMTD:fprintf.obj
 0001:00075150       __fprintf_s_l              00476150 f   LIBCMTD:fprintf.obj
 0001:00075180       _fprintf                   00476180 f   LIBCMTD:fprintf.obj
 0001:00075450       _fprintf_s                 00476450 f   LIBCMTD:fprintf.obj
 0001:00075480       __get_printf_count_output  00476480 f   LIBCMTD:printf.obj
 0001:000754b0       __printf_l                 004764b0 f   LIBCMTD:printf.obj
 0001:000754e0       __printf_p                 004764e0 f   LIBCMTD:printf.obj
 0001:00075500       __printf_p_l               00476500 f   LIBCMTD:printf.obj
 0001:00075530       __printf_s_l               00476530 f   LIBCMTD:printf.obj
 0001:00075560       __set_printf_count_output  00476560 f   LIBCMTD:printf.obj
 0001:000755c0       _printf                    004765c0 f   LIBCMTD:printf.obj
 0001:00075730       _printf_s                  00476730 f   LIBCMTD:printf.obj
 0001:00075750       @_RTC_AllocaHelper@12      00476750 f   LIBCMTD:stack.obj
 0001:00075790       @_RTC_CheckStackVars2@12   00476790 f   LIBCMTD:stack.obj
 0001:00075870       @_RTC_CheckStackVars@8     00476870 f   LIBCMTD:stack.obj
 0001:000758d0       __RTC_CheckEsp             004768d0 f   LIBCMTD:stack.obj
 0001:00075900       __RTC_InitBase             00476900 f   LIBCMTD:init.obj
 0001:00075930       __RTC_Shutdown             00476930 f   LIBCMTD:init.obj
 0001:00075950       __abs64                    00476950 f   LIBCMTD:abs.obj
 0001:00075990       _abs                       00476990 f   LIBCMTD:abs.obj
 0001:000759c0       __CIsqrt                   004769c0 f   LIBCMTD:sqrt.obj
 0001:000759d4       _sqrt                      004769d4     LIBCMTD:sqrt.obj
 0001:00075a80       _ceil                      00476a80 f   LIBCMTD:ceil_pentium4.obj
 0001:00075ac0       __ceil_pentium4            00476ac0 f   LIBCMTD:ceil_pentium4.obj
 0001:00075ba0       ___initstdio               00476ba0 f   LIBCMTD:_file.obj
 0001:00075c70       ___endstdio                00476c70 f   LIBCMTD:_file.obj
 0001:00075cb0       ___iob_func                00476cb0 f   LIBCMTD:_file.obj
 0001:00075cc0       __lock_file                00476cc0 f   LIBCMTD:_file.obj
 0001:00075d20       __lock_file2               00476d20 f   LIBCMTD:_file.obj
 0001:00075d60       __unlock_file              00476d60 f   LIBCMTD:_file.obj
 0001:00075dc0       __unlock_file2             00476dc0 f   LIBCMTD:_file.obj
 0001:00075e00       __fflush_nolock            00476e00 f   LIBCMTD:fflush.obj
 0001:00075e70       __flush                    00476e70 f   LIBCMTD:fflush.obj
 0001:00075f30       __flushall                 00476f30 f   LIBCMTD:fflush.obj
 0001:00075f40       _fflush                    00476f40 f   LIBCMTD:fflush.obj
 0001:00076180       __snprintf                 00477180 f   LIBCMTD:snprintf.obj
 0001:00076360       __snprintf_l               00477360 f   LIBCMTD:snprintf.obj
 0001:00076390       ___copy_path_to_wide_string 00477390 f   LIBCMTD:crt0dat.obj
 0001:00076580       ___crtCorExitProcess       00477580 f   LIBCMTD:crt0dat.obj
 0001:000765c0       ___crtExitProcess          004775c0 f   LIBCMTD:crt0dat.obj
 0001:000765e0       ___freeCrtMemory           004775e0 f   LIBCMTD:crt0dat.obj
 0001:000767b0       __amsg_exit                004777b0 f   LIBCMTD:crt0dat.obj
 0001:000767d0       __c_exit                   004777d0 f   LIBCMTD:crt0dat.obj
 0001:000767f0       __cexit                    004777f0 f   LIBCMTD:crt0dat.obj
 0001:00076810       __cinit                    00477810 f   LIBCMTD:crt0dat.obj
 0001:000768b0       __exit                     004778b0 f   LIBCMTD:crt0dat.obj
 0001:000768d0       __get_pgmptr               004778d0 f   LIBCMTD:crt0dat.obj
 0001:000769f0       __get_wpgmptr              004779f0 f   LIBCMTD:crt0dat.obj
 0001:00076b10       __init_pointers            00477b10 f   LIBCMTD:crt0dat.obj
 0001:00076ba0       __initterm_e               00477ba0 f   LIBCMTD:crt0dat.obj
 0001:00076be0       __lockexit                 00477be0 f   LIBCMTD:crt0dat.obj
 0001:00076bf0       __unlockexit               00477bf0 f   LIBCMTD:crt0dat.obj
 0001:00076e00       _exit                      00477e00 f   LIBCMTD:crt0dat.obj
 0001:00076e20       _memcpy                    00477e20 f   LIBCMTD:memcpy.obj
 0001:00077470       _memset                    00478470 f   LIBCMTD:memset.obj
 0001:00077500       @__security_check_cookie@4 00478500 f   LIBCMTD:secchk.obj
 0001:00077510       __ftol2_sse                00478510 f   LIBCMTD:ftol2.obj
 0001:00077519       __ftol2_pentium4           00478519 f   LIBCMTD:ftol2.obj
 0001:0007752c       __ftol2_sse_excpt          0047852c f   LIBCMTD:ftol2.obj
 0001:00077546       __ftol2                    00478546 f   LIBCMTD:ftol2.obj
 0001:000775c0       __fpmath                   004785c0 f   LIBCMTD:fpinit.obj
 0001:000775e0       ___setfflag                004785e0 f   LIBCMTD:fpinit.obj
 0001:00077600       __cfltcvt_init             00478600 f   LIBCMTD:fpinit.obj
 0001:000776c0       ??2@YAPAXI@Z               004786c0 f   LIBCMTD:new.obj
 0001:00077710       ??3@YAXPAX@Z               00478710 f   LIBCMTD:dbgdel.obj
 0001:00077800       __scprintf                 00478800 f   LIBCMTD:sprintf.obj
 0001:00077820       __scprintf_l               00478820 f   LIBCMTD:sprintf.obj
 0001:00077850       __scprintf_p               00478850 f   LIBCMTD:sprintf.obj
 0001:00077870       __scprintf_p_l             00478870 f   LIBCMTD:sprintf.obj
 0001:000778a0       __snprintf_s               004788a0 f   LIBCMTD:sprintf.obj
 0001:000778d0       __snprintf_s_l             004788d0 f   LIBCMTD:sprintf.obj
 0001:00077900       __sprintf_l                00478900 f   LIBCMTD:sprintf.obj
 0001:00077930       __sprintf_p                00478930 f   LIBCMTD:sprintf.obj
 0001:00077960       __sprintf_p_l              00478960 f   LIBCMTD:sprintf.obj
 0001:00077990       __sprintf_s_l              00478990 f   LIBCMTD:sprintf.obj
 0001:000779c0       _sprintf                   004789c0 f   LIBCMTD:sprintf.obj
 0001:00077b80       _sprintf_s                 00478b80 f   LIBCMTD:sprintf.obj
 0001:00077bb0       __dupenv_s                 00478bb0 f   LIBCMTD:getenv.obj
 0001:00077bd0       __dupenv_s_dbg             00478bd0 f   LIBCMTD:getenv.obj
 0001:00077e50       __getenv_helper_nolock     00478e50 f   LIBCMTD:getenv.obj
 0001:00078120       __invoke_watson_if_error   00479120 f i LIBCMTD:getenv.obj
 0001:00078150       _getenv                    00479150 f   LIBCMTD:getenv.obj
 0001:000782d0       _getenv_s                  004792d0 f   LIBCMTD:getenv.obj
 0001:00078360       ??0_LocaleUpdate@@QAE@PAUlocaleinfo_struct@@@Z 00479360 f i LIBCMTD:strtol.obj
 0001:00078440       ??1_LocaleUpdate@@QAE@XZ   00479440 f i LIBCMTD:strtol.obj
 0001:00078470       ?GetLocaleT@_LocaleUpdate@@QAEPAUlocaleinfo_struct@@XZ 00479470 f i LIBCMTD:strtol.obj
 0001:00078980       __strtol_l                 00479980 f   LIBCMTD:strtol.obj
 0001:000789a0       __strtoul_l                004799a0 f   LIBCMTD:strtol.obj
 0001:000789c0       _strtol                    004799c0 f   LIBCMTD:strtol.obj
 0001:00078a10       _strtoul                   00479a10 f   LIBCMTD:strtol.obj
 0001:00078a60       _floor                     00479a60 f   LIBCMTD:floor_pentium4.obj
 0001:00078aa0       __floor_pentium4           00479aa0 f   LIBCMTD:floor_pentium4.obj
 0001:00078c90       ?_CallCatchBlock2@@YAPAXPAUEHRegistrationNode@@PBU_s_FuncInfo@@PAXHK@Z 00479c90 f   LIBCMTD:_trnsctrl_.obj
 0001:00078d00       ?_CallMemberFunction0@@YGXPAX0@Z 00479d00 f   LIBCMTD:_trnsctrl_.obj
 0001:00078d10       ?_CallMemberFunction1@@YGXPAX00@Z 00479d10 f   LIBCMTD:_trnsctrl_.obj
 0001:00078d20       ?_CallMemberFunction2@@YGXPAX00H@Z 00479d20 f   LIBCMTD:_trnsctrl_.obj
 0001:00078d30       ?_CallSETranslator@@YAHPAUEHExceptionRecord@@PAUEHRegistrationNode@@PAX2PBU_s_FuncInfo@@H1@Z 00479d30 f   LIBCMTD:_trnsctrl_.obj
 0001:00078e20       ?_GetRangeOfTrysToCheck@@YAPBU_s_TryBlockMapEntry@@PBU_s_FuncInfo@@HHPAI1@Z 00479e20 f   LIBCMTD:_trnsctrl_.obj
 0001:00078eb0       ?_JumpToContinuation@@YGXPAXPAUEHRegistrationNode@@@Z 00479eb0 f   LIBCMTD:_trnsctrl_.obj
 0001:00078ef0       ?_UnwindNestedFrames@@YGXPAUEHRegistrationNode@@PAUEHExceptionRecord@@@Z 00479ef0 f   LIBCMTD:_trnsctrl_.obj
 0001:00078f50       __CreateFrameInfo          00479f50 f   LIBCMTD:_trnsctrl_.obj
 0001:00078f80       __FindAndUnlinkFrame       00479f80 f   LIBCMTD:_trnsctrl_.obj
 0001:00078fe0       __IsExceptionObjectToBeDestroyed 00479fe0 f   LIBCMTD:_trnsctrl_.obj
 0001:00079010       ___CxxFrameHandler         0047a010 f   LIBCMTD:_trnsctrl_.obj
 0001:00079050       ___CxxFrameHandler2        0047a050 f   LIBCMTD:_trnsctrl_.obj
 0001:00079090       ___CxxFrameHandler3        0047a090 f   LIBCMTD:_trnsctrl_.obj
 0001:000790d0       ___CxxLongjmpUnwind@4      0047a0d0 f   LIBCMTD:_trnsctrl_.obj
 0001:00079100       ??0type_info@@AAE@ABV0@@Z  0047a100 f   LIBCMTD:typinfo.obj
 0001:00079120       ??1type_info@@UAE@XZ       0047a120 f   LIBCMTD:typinfo.obj
 0001:00079140       ??4type_info@@AAEAAV0@ABV0@@Z 0047a140 f   LIBCMTD:typinfo.obj
 0001:00079150       ??8type_info@@QBE_NABV0@@Z 0047a150 f   LIBCMTD:typinfo.obj
 0001:00079190       ??9type_info@@QBE_NABV0@@Z 0047a190 f   LIBCMTD:typinfo.obj
 0001:000791d0       ??_Gtype_info@@UAEPAXI@Z   0047a1d0 f i LIBCMTD:typinfo.obj
 0001:000791d0       ??_Etype_info@@UAEPAXI@Z   0047a1d0 f i LIBCMTD:typinfo.obj
 0001:00079200       ?_name_internal_method@type_info@@QBEPBDPAU__type_info_node@@@Z 0047a200 f   LIBCMTD:typinfo.obj
 0001:00079220       ?_type_info_dtor_internal_method@type_info@@QAEXXZ 0047a220 f   LIBCMTD:typinfo.obj
 0001:00079240       ?before@type_info@@QBE_NABV1@@Z 0047a240 f   LIBCMTD:typinfo.obj
 0001:00079280       ?name@type_info@@QBEPBDPAU__type_info_node@@@Z 0047a280 f   LIBCMTD:typinfo.obj
 0001:000792a0       ?raw_name@type_info@@QBEPBDXZ 0047a2a0 f   LIBCMTD:typinfo.obj
 0001:000792c0       _strncmp                   0047a2c0 f   LIBCMTD:strncmp.obj
 0001:00079340       _rand                      0047a340 f   LIBCMTD:rand.obj
 0001:00079380       _srand                     0047a380 f   LIBCMTD:rand.obj
 0001:00079390       _strcmp                    0047a390 f   LIBCMTD:strcmp.obj
 0001:00079420       _strrchr                   0047a420 f   LIBCMTD:strrchr.obj
 0001:00079560       _cos                       0047a560 f   LIBCMTD:cos.obj
 0001:000795a0       __CIcos                    0047a5a0 f   LIBCMTD:cos.obj
 0001:000795db       __CIcos_default            0047a5db f   LIBCMTD:cos.obj
 0001:000795ef       __cos_default              0047a5ef     LIBCMTD:cos.obj
 0001:00079690       _sin                       0047a690 f   LIBCMTD:sin.obj
 0001:000796d0       __CIsin                    0047a6d0 f   LIBCMTD:sin.obj
 0001:0007970b       __CIsin_default            0047a70b f   LIBCMTD:sin.obj
 0001:0007971f       __sin_default              0047a71f     LIBCMTD:sin.obj
 0001:000797c0       _strcpy                    0047a7c0 f   LIBCMTD:strcat.obj
 0001:000797d0       _strcat                    0047a7d0 f   LIBCMTD:strcat.obj
 0001:000798c0       _strlen                    0047a8c0 f   LIBCMTD:strlen.obj
 0001:00079950       _strchr                    0047a950 f   LIBCMTD:strchr.obj
 0001:000799be       ___from_strstr_to_strchr   0047a9be     LIBCMTD:strchr.obj
 0001:00079a80       _strncpy                   0047aa80 f   LIBCMTD:strncpy.obj
 0001:00079bb0       __get_purecall_handler     0047abb0 f   LIBCMTD:purevirt.obj
 0001:00079bd0       __purecall                 0047abd0 f   LIBCMTD:purevirt.obj
 0001:00079c10       __set_purecall_handler     0047ac10 f   LIBCMTD:purevirt.obj
 0001:00079c40       ___onexitinit              0047ac40 f   LIBCMTD:onexit.obj
 0001:00079ca0       __onexit                   0047aca0 f   LIBCMTD:onexit.obj
 0001:00079e60       _atexit                    0047ae60 f   LIBCMTD:onexit.obj
 0001:00079e90       ___raise_securityfailure   0047ae90 f   LIBCMTD:gs_report.obj
 0001:00079ee0       ___report_gsfailure        0047aee0 f   LIBCMTD:gs_report.obj
 0001:00079ff0       ___report_rangecheckfailure 0047aff0 f   LIBCMTD:gs_report.obj
 0001:0007a000       ___report_securityfailure  0047b000 f   LIBCMTD:gs_report.obj
 0001:0007a0e0       ___report_securityfailureEx 0047b0e0 f   LIBCMTD:gs_report.obj
 0001:0007a210       _memmove                   0047b210 f   LIBCMTD:memmove.obj
 0001:0007a860       ___ascii_stricmp           0047b860 f   LIBCMTD:stricmp.obj
 0001:0007a8e0       _stricmp                   0047b8e0 f   LIBCMTD:stricmp.obj
 0001:0007a8e0       __stricmp                  0047b8e0 f   LIBCMTD:stricmp.obj
 0001:0007aa10       __stricmp_l                0047ba10 f   LIBCMTD:stricmp.obj
 0001:0007abf0       ___timet_from_ft           0047bbf0 f   LIBCMTD:findfile.obj
 0001:0007ac80       __findclose                0047bc80 f   LIBCMTD:findfile.obj
 0001:0007acb0       __findfirst32              0047bcb0 f   LIBCMTD:findfile.obj
 0001:0007afd0       __findnext32               0047bfd0 f   LIBCMTD:findfile.obj
 0001:0007b2f0       ___time64_t_from_ft        0047c2f0 f   LIBCMTD:findfi32.obj
 0001:0007b380       __findfirst64i32           0047c380 f   LIBCMTD:findfi32.obj
 0001:0007b6a0       __findnext64i32            0047c6a0 f   LIBCMTD:findfi32.obj
 0001:0007b9c0       __CxxThrowException@8      0047c9c0 f   LIBCMTD:throw.obj
 0001:0007bcb0       _mainCRTStartup            0047ccb0 f   LIBCMTD:crt0.obj
 0001:0007bcc0       _asin                      0047ccc0 f   LIBCMTD:asin.obj
 0001:0007bd00       __CIasin                   0047cd00 f   LIBCMTD:asin.obj
 0001:0007bd3b       __CIasin_default           0047cd3b f   LIBCMTD:asin.obj
 0001:0007bd4f       __asin_default             0047cd4f     LIBCMTD:asin.obj
 0001:0007be10       _acos                      0047ce10 f   LIBCMTD:acos.obj
 0001:0007be50       __CIacos                   0047ce50 f   LIBCMTD:acos.obj
 0001:0007be8b       __CIacos_default           0047ce8b f   LIBCMTD:acos.obj
 0001:0007be9f       __acos_default             0047ce9f     LIBCMTD:acos.obj
 0001:0007bf60       _atan2                     0047cf60 f   LIBCMTD:87ctriga.obj
 0001:0007bf6a       __CIatan2                  0047cf6a f   LIBCMTD:87ctriga.obj
 0001:0007bf80       _tan                       0047cf80 f   LIBCMTD:tan.obj
 0001:0007bfc0       __CItan                    0047cfc0 f   LIBCMTD:tan.obj
 0001:0007bffb       __CItan_default            0047cffb f   LIBCMTD:tan.obj
 0001:0007c00f       __tan_default              0047d00f     LIBCMTD:tan.obj
 0001:0007c0b0       _malloc                    0047d0b0 f   LIBCMTD:dbgmalloc.obj
 0001:0007c0e0       _free                      0047d0e0 f   LIBCMTD:dbgfree.obj
 0001:0007c100       _strcspn                   0047d100 f   LIBCMTD:strcspn.obj
 0001:0007c150       __sscanf_l                 0047d150 f   LIBCMTD:sscanf.obj
 0001:0007c180       __sscanf_s_l               0047d180 f   LIBCMTD:sscanf.obj
 0001:0007c1b0       _sscanf                    0047d1b0 f   LIBCMTD:sscanf.obj
 0001:0007c1e0       _sscanf_s                  0047d1e0 f   LIBCMTD:sscanf.obj
 0001:0007c3a0       _fgets                     0047d3a0 f   LIBCMTD:fgets.obj
 0001:0007c770       __ungetc_nolock            0047d770 f   LIBCMTD:ungetc.obj
 0001:0007c9a0       _ungetc                    0047d9a0 f   LIBCMTD:ungetc.obj
 0001:0007caa0       __getc_nolock              0047daa0 f   LIBCMTD:fgetc.obj
 0001:0007cb00       _fgetc                     0047db00 f   LIBCMTD:fgetc.obj
 0001:0007cd60       _getc                      0047dd60 f   LIBCMTD:fgetc.obj
 0001:0007cfc0       __fread_nolock             0047dfc0 f   LIBCMTD:fread.obj
 0001:0007cfe0       __fread_nolock_s           0047dfe0 f   LIBCMTD:fread.obj
 0001:0007d610       _fread                     0047e610 f   LIBCMTD:fread.obj
 0001:0007d630       _fread_s                   0047e630 f   LIBCMTD:fread.obj
 0001:0007d780       __fwrite_nolock            0047e780 f   LIBCMTD:fwrite.obj
 0001:0007db90       _fwrite                    0047eb90 f   LIBCMTD:fwrite.obj
 0001:0007dcb0       _fputc                     0047ecb0 f   LIBCMTD:fputc.obj
 0001:0007df20       _putc                      0047ef20 f   LIBCMTD:fputc.obj
 0001:0007e190       _fputs                     0047f190 f   LIBCMTD:fputs.obj
 0001:0007e470       ___isascii                 0047f470 f i LIBCMTD:_ctype.obj
 0001:0007e4a0       ___iscsym                  0047f4a0 f i LIBCMTD:_ctype.obj
 0001:0007e4e0       ___iscsymf                 0047f4e0 f i LIBCMTD:_ctype.obj
 0001:0007e520       ___toascii                 0047f520 f i LIBCMTD:_ctype.obj
 0001:0007e530       __isalnum_l                0047f530 f i LIBCMTD:_ctype.obj
 0001:0007e5b0       __isalpha_l                0047f5b0 f i LIBCMTD:_ctype.obj
 0001:0007e630       __iscntrl_l                0047f630 f i LIBCMTD:_ctype.obj
 0001:0007e6b0       __iscsym_l                 0047f6b0 f i LIBCMTD:_ctype.obj
 0001:0007e6f0       __iscsymf_l                0047f6f0 f i LIBCMTD:_ctype.obj
 0001:0007e730       __isdigit_l                0047f730 f i LIBCMTD:_ctype.obj
 0001:0007e7b0       __isgraph_l                0047f7b0 f i LIBCMTD:_ctype.obj
 0001:0007e830       __islower_l                0047f830 f i LIBCMTD:_ctype.obj
 0001:0007e8b0       __isprint_l                0047f8b0 f i LIBCMTD:_ctype.obj
 0001:0007e930       __ispunct_l                0047f930 f i LIBCMTD:_ctype.obj
 0001:0007e9b0       __isspace_l                0047f9b0 f i LIBCMTD:_ctype.obj
 0001:0007ea30       __isupper_l                0047fa30 f i LIBCMTD:_ctype.obj
 0001:0007eab0       __isxdigit_l               0047fab0 f i LIBCMTD:_ctype.obj
 0001:0007eb30       _isalnum                   0047fb30 f i LIBCMTD:_ctype.obj
 0001:0007eb70       _isalpha                   0047fb70 f i LIBCMTD:_ctype.obj
 0001:0007ebb0       _iscntrl                   0047fbb0 f i LIBCMTD:_ctype.obj
 0001:0007ebe0       _isdigit                   0047fbe0 f i LIBCMTD:_ctype.obj
 0001:0007ec10       _isgraph                   0047fc10 f i LIBCMTD:_ctype.obj
 0001:0007ec50       _islower                   0047fc50 f i LIBCMTD:_ctype.obj
 0001:0007ec80       _isprint                   0047fc80 f i LIBCMTD:_ctype.obj
 0001:0007ecc0       _ispunct                   0047fcc0 f i LIBCMTD:_ctype.obj
 0001:0007ecf0       _isspace                   0047fcf0 f i LIBCMTD:_ctype.obj
 0001:0007ed20       _isupper                   0047fd20 f i LIBCMTD:_ctype.obj
 0001:0007ed50       _isxdigit                  0047fd50 f i LIBCMTD:_ctype.obj
 0001:0007ed90       __ftell_nolock             0047fd90 f   LIBCMTD:ftell.obj
 0001:0007f450       _ftell                     00480450 f   LIBCMTD:ftell.obj
 0001:0007f550       __fseek_nolock             00480550 f   LIBCMTD:fseek.obj
 0001:0007f640       _fseek                     00480640 f   LIBCMTD:fseek.obj
 0001:0007f7d0       __atoi64                   004807d0 f   LIBCMTD:atox.obj
 0001:0007f7f0       __atoi64_l                 004807f0 f   LIBCMTD:atox.obj
 0001:0007f810       __atoi_l                   00480810 f   LIBCMTD:atox.obj
 0001:0007f830       __atol_l                   00480830 f   LIBCMTD:atox.obj
 0001:0007f850       _atoi                      00480850 f   LIBCMTD:atox.obj
 0001:0007f870       _atol                      00480870 f   LIBCMTD:atox.obj
 0001:0007f890       __get_sys_err_msg          00480890 f i LIBCMTD:perror.obj
 0001:0007f8d0       _perror                    004808d0 f   LIBCMTD:perror.obj
 0001:0007f9d0       __stat64i32                004809d0 f   LIBCMTD:stati32.obj
 0001:0007fa30       __invoke_watson_if_oneof   00480a30 f i LIBCMTD:system.obj
 0001:0007fa70       _system                    00480a70 f   LIBCMTD:system.obj
 0001:0007fc40       _feof                      00480c40 f   LIBCMTD:feoferr.obj
 0001:0007fcd0       _ferror                    00480cd0 f   LIBCMTD:feoferr.obj
 0001:0007fd60       __chkstk                   00480d60 f   LIBCMTD:chkstk.obj
 0001:0007fd60       __alloca_probe             00480d60     LIBCMTD:chkstk.obj
 0001:0007fd90       __tolower                  00480d90 f   LIBCMTD:tolower.obj
 0001:0007fda0       __tolower_l                00480da0 f   LIBCMTD:tolower.obj
 0001:0007ffe0       _tolower                   00480fe0 f   LIBCMTD:tolower.obj
 0001:00080030       _strstr                    00481030 f   LIBCMTD:strstr.obj
 0001:000802a0       ___STRINGTOLD              004812a0 f   LIBCMTD:atof.obj
 0001:000802f0       ___strgtold12              004812f0 f   LIBCMTD:atof.obj
 0001:00080340       __atof_l                   00481340 f   LIBCMTD:atof.obj
 0001:00080490       _atof                      00481490 f   LIBCMTD:atof.obj
 0001:000804b0       __strtod_l                 004814b0 f   LIBCMTD:strtod.obj
 0001:000806c0       _strtod                    004816c0 f   LIBCMTD:strtod.obj
 0001:000806e0       _strtok                    004816e0 f   LIBCMTD:strtok.obj
 0001:00080840       _qsort                     00481840 f   LIBCMTD:qsort.obj
 0001:00080d30       _bsearch                   00481d30 f   LIBCMTD:bsearch.obj
 0001:00080fa0       __toupper                  00481fa0 f   LIBCMTD:toupper.obj
 0001:00080fb0       __toupper_l                00481fb0 f   LIBCMTD:toupper.obj
 0001:000811f0       _toupper                   004821f0 f   LIBCMTD:toupper.obj
 0001:00081240       _strncat                   00482240 f   LIBCMTD:strncat.obj
 0001:00081380       _rewind                    00482380 f   LIBCMTD:rewind.obj
 0001:00081520       __vscprintf                00482520 f   LIBCMTD:vsprintf.obj
 0001:00081540       __vscprintf_helper         00482540 f   LIBCMTD:vsprintf.obj
 0001:00081630       __vscprintf_l              00482630 f   LIBCMTD:vsprintf.obj
 0001:00081650       __vscprintf_p              00482650 f   LIBCMTD:vsprintf.obj
 0001:00081670       __vscprintf_p_l            00482670 f   LIBCMTD:vsprintf.obj
 0001:00081690       __vsprintf_l               00482690 f   LIBCMTD:vsprintf.obj
 0001:00081850       _vsprintf                  00482850 f   LIBCMTD:vsprintf.obj
 0001:00081870       __getcwd                   00482870 f   LIBCMTD:getcwd.obj
 0001:00081890       __getcwd_dbg               00482890 f   LIBCMTD:getcwd.obj
 0001:000818c0       __getdcwd                  004828c0 f   LIBCMTD:getcwd.obj
 0001:000818e0       __getdcwd_dbg              004828e0 f   LIBCMTD:getcwd.obj
 0001:00081bc0       __validdrive               00482bc0 f   LIBCMTD:getcwd.obj
 0001:00081d00       __lock                     00482d00 f   LIBCMTD:mlock.obj
 0001:00081d40       __lockerr_exit             00482d40 f   LIBCMTD:mlock.obj
 0001:00081d70       __mtdeletelocks            00482d70 f   LIBCMTD:mlock.obj
 0001:00081e30       __mtinitlocknum            00482e30 f   LIBCMTD:mlock.obj
 0001:00081f50       __mtinitlocks              00482f50 f   LIBCMTD:mlock.obj
 0001:00081fd0       __unlock                   00482fd0 f   LIBCMTD:mlock.obj
 0001:00081ff0       ?_CrtDbgReportW@@YAHHPBGH00ZZ 00482ff0 f   LIBCMTD:dbgrptw.obj
 0001:00082040       __CrtDbgReportW            00483040 f   LIBCMTD:dbgrptw.obj
 0001:00082090       __CrtDbgReportWV           00483090 f i LIBCMTD:dbgrptw.obj
 0001:000820c0       __CrtSetReportHookW2       004830c0 f   LIBCMTD:dbgrptw.obj
 0001:00082410       ___crtMessageWindowW       00483410 f   LIBCMTD:dbgrptw.obj
 0001:000828c0       ??0__non_rtti_object@std@@QAE@ABV01@@Z 004838c0 f   LIBCMTD:stdexcpt.obj
 0001:000828f0       ??0__non_rtti_object@std@@QAE@PBD@Z 004838f0 f   LIBCMTD:stdexcpt.obj
 0001:00082920       ??0bad_cast@std@@QAE@ABV01@@Z 00483920 f   LIBCMTD:stdexcpt.obj
 0001:00082950       ??0bad_cast@std@@QAE@PBD@Z 00483950 f   LIBCMTD:stdexcpt.obj
 0001:00082980       ??0bad_typeid@std@@QAE@ABV01@@Z 00483980 f   LIBCMTD:stdexcpt.obj
 0001:000829b0       ??0bad_typeid@std@@QAE@PBD@Z 004839b0 f   LIBCMTD:stdexcpt.obj
 0001:000829e0       ??0exception@std@@QAE@ABQBD@Z 004839e0 f   LIBCMTD:stdexcpt.obj
 0001:00082a20       ??0exception@std@@QAE@ABQBDH@Z 00483a20 f   LIBCMTD:stdexcpt.obj
 0001:00082a50       ??0exception@std@@QAE@ABV01@@Z 00483a50 f   LIBCMTD:stdexcpt.obj
 0001:00082a90       ??0exception@std@@QAE@XZ   00483a90 f   LIBCMTD:stdexcpt.obj
 0001:00082ac0       ??1__non_rtti_object@std@@UAE@XZ 00483ac0 f   LIBCMTD:stdexcpt.obj
 0001:00082ae0       ??1bad_cast@std@@UAE@XZ    00483ae0 f   LIBCMTD:stdexcpt.obj
 0001:00082b00       ??1bad_typeid@std@@UAE@XZ  00483b00 f   LIBCMTD:stdexcpt.obj
 0001:00082b20       ??1exception@std@@UAE@XZ   00483b20 f   LIBCMTD:stdexcpt.obj
 0001:00082b40       ??4exception@std@@QAEAAV01@ABV01@@Z 00483b40 f   LIBCMTD:stdexcpt.obj
 0001:00082b90       ??_G__non_rtti_object@std@@UAEPAXI@Z 00483b90 f i LIBCMTD:stdexcpt.obj
 0001:00082b90       ??_E__non_rtti_object@std@@UAEPAXI@Z 00483b90 f i LIBCMTD:stdexcpt.obj
 0001:00082bc0       ??_Ebad_cast@std@@UAEPAXI@Z 00483bc0 f i LIBCMTD:stdexcpt.obj
 0001:00082bc0       ??_Gbad_cast@std@@UAEPAXI@Z 00483bc0 f i LIBCMTD:stdexcpt.obj
 0001:00082bf0       ??_Ebad_typeid@std@@UAEPAXI@Z 00483bf0 f i LIBCMTD:stdexcpt.obj
 0001:00082bf0       ??_Gbad_typeid@std@@UAEPAXI@Z 00483bf0 f i LIBCMTD:stdexcpt.obj
 0001:00082c20       ??_Gexception@std@@UAEPAXI@Z 00483c20 f i LIBCMTD:stdexcpt.obj
 0001:00082c20       ??_Eexception@std@@UAEPAXI@Z 00483c20 f i LIBCMTD:stdexcpt.obj
 0001:00082c50       ?_Copy_str@exception@std@@AAEXPBD@Z 00483c50 f   LIBCMTD:stdexcpt.obj
 0001:00082cb0       ?_Tidy@exception@std@@AAEXXZ 00483cb0 f   LIBCMTD:stdexcpt.obj
 0001:00082cf0       ?what@exception@std@@UBEPBDXZ 00483cf0 f   LIBCMTD:stdexcpt.obj
 0001:00082d70       ___crtCloseThreadpoolTimer 00483d70 f   LIBCMTD:winapisupp.obj
 0001:00082da0       ___crtCloseThreadpoolWait  00483da0 f   LIBCMTD:winapisupp.obj
 0001:00082dd0       ___crtCreateSemaphoreExW@24 00483dd0 f   LIBCMTD:winapisupp.obj
 0001:00082e30       ___crtCreateSymbolicLinkW  00483e30 f   LIBCMTD:winapisupp.obj
 0001:00082e70       ___crtCreateThreadpoolTimer 00483e70 f   LIBCMTD:winapisupp.obj
 0001:00082eb0       ___crtCreateThreadpoolWait 00483eb0 f   LIBCMTD:winapisupp.obj
 0001:00082ef0       ___crtFlsAlloc             00483ef0 f   LIBCMTD:winapisupp.obj
 0001:00082f20       ___crtFlsFree              00483f20 f   LIBCMTD:winapisupp.obj
 0001:00082f60       ___crtFlsGetValue          00483f60 f   LIBCMTD:winapisupp.obj
 0001:00082fa0       ___crtFlsSetValue          00483fa0 f   LIBCMTD:winapisupp.obj
 0001:00082fe0       ___crtFlushProcessWriteBuffers 00483fe0 f   LIBCMTD:winapisupp.obj
 0001:00083010       ___crtFreeLibraryWhenCallbackReturns 00484010 f   LIBCMTD:winapisupp.obj
 0001:00083040       ___crtGetCurrentProcessorNumber 00484040 f   LIBCMTD:winapisupp.obj
 0001:00083070       ___crtGetLogicalProcessorInformation 00484070 f   LIBCMTD:winapisupp.obj
 0001:000830b0       ___crtGetShowWindowMode    004840b0 f   LIBCMTD:winapisupp.obj
 0001:000830e0       ___crtInitializeCriticalSectionEx 004840e0 f   LIBCMTD:winapisupp.obj
 0001:00083130       ___crtIsPackagedApp        00484130 f   LIBCMTD:winapisupp.obj
 0001:00083170       ___crtLoadWinApiPointers   00484170 f   LIBCMTD:winapisupp.obj
 0001:00083580       ___crtSetThreadStackGuarantee 00484580 f   LIBCMTD:winapisupp.obj
 0001:000835b0       ___crtSetThreadpoolTimer   004845b0 f   LIBCMTD:winapisupp.obj
 0001:000835f0       ___crtSetThreadpoolWait    004845f0 f   LIBCMTD:winapisupp.obj
 0001:00083620       ___crtSetUnhandledExceptionFilter 00484620 f   LIBCMTD:winapisupp.obj
 0001:00083630       ___crtTerminateProcess     00484630 f   LIBCMTD:winapisupp.obj
 0001:00083650       ___crtUnhandledException   00484650 f   LIBCMTD:winapisupp.obj
 0001:00083670       ___crtWaitForThreadpoolTimerCallbacks 00484670 f   LIBCMTD:winapisupp.obj
 0001:000836a0       ?_invalid_parameter@@YAXPBG00II@Z 004846a0 f   LIBCMTD:invarg.obj
 0001:000836d0       ?_invoke_watson@@YAXPBG00II@Z 004846d0 f   LIBCMTD:invarg.obj
 0001:000836f0       __call_reportfault         004846f0 f   LIBCMTD:invarg.obj
 0001:00083850       __get_invalid_parameter_handler 00484850 f   LIBCMTD:invarg.obj
 0001:00083880       __initp_misc_invarg        00484880 f   LIBCMTD:invarg.obj
 0001:00083890       __invalid_parameter        00484890 f   LIBCMTD:invarg.obj
 0001:000838f0       __invoke_watson            004848f0 f   LIBCMTD:invarg.obj
 0001:00083930       __set_invalid_parameter_handler 00484930 f   LIBCMTD:invarg.obj
 0001:00083970       __fileno                   00484970 f   LIBCMTD:fileno.obj
 0001:00083a00       __close                    00484a00 f   LIBCMTD:close.obj
 0001:00083c30       __close_nolock             00484c30 f   LIBCMTD:close.obj
 0001:00083d10       ___doserrno                00484d10 f   LIBCMTD:dosmap.obj
 0001:00083d40       __dosmaperr                00484d40 f   LIBCMTD:dosmap.obj
 0001:00083d70       __errno                    00484d70 f   LIBCMTD:dosmap.obj
 0001:00083da0       __get_doserrno             00484da0 f   LIBCMTD:dosmap.obj
 0001:00083e30       __get_errno                00484e30 f   LIBCMTD:dosmap.obj
 0001:00083ec0       __get_errno_from_oserr     00484ec0 f   LIBCMTD:dosmap.obj
 0001:00083f40       __set_doserrno             00484f40 f   LIBCMTD:dosmap.obj
 0001:00083f70       __set_errno                00484f70 f   LIBCMTD:dosmap.obj
 0001:00083fa0       __freebuf                  00484fa0 f   LIBCMTD:_freebuf.obj
 0001:000844c0       __CrtCheckMemory           004854c0 f   LIBCMTD:dbgheap.obj
 0001:00084920       __CrtDoForAllClientObjects 00485920 f   LIBCMTD:dbgheap.obj
 0001:00084a50       __CrtDumpMemoryLeaks       00485a50 f   LIBCMTD:dbgheap.obj
 0001:00084af0       __CrtGetAllocHook          00485af0 f   LIBCMTD:dbgheap.obj
 0001:00084b00       __CrtGetCheckCount         00485b00 f   LIBCMTD:dbgheap.obj
 0001:00084b10       __CrtGetDumpClient         00485b10 f   LIBCMTD:dbgheap.obj
 0001:00084b20       __CrtIsMemoryBlock         00485b20 f   LIBCMTD:dbgheap.obj
 0001:00084c90       __CrtIsValidHeapPointer    00485c90 f   LIBCMTD:dbgheap.obj
 0001:00084cd0       __CrtIsValidPointer        00485cd0 f   LIBCMTD:dbgheap.obj
 0001:00084d00       __CrtMemCheckpoint         00485d00 f   LIBCMTD:dbgheap.obj
 0001:00084f30       __CrtMemDifference         00485f30 f   LIBCMTD:dbgheap.obj
 0001:00085190       __CrtMemDumpAllObjectsSince 00486190 f   LIBCMTD:dbgheap.obj
 0001:000851d0       __CrtMemDumpStatistics     004861d0 f   LIBCMTD:dbgheap.obj
 0001:000852f0       __CrtReportBlockType       004862f0 f   LIBCMTD:dbgheap.obj
 0001:00085320       __CrtSetAllocHook          00486320 f   LIBCMTD:dbgheap.obj
 0001:00085340       __CrtSetBreakAlloc         00486340 f   LIBCMTD:dbgheap.obj
 0001:00085360       __CrtSetCheckCount         00486360 f   LIBCMTD:dbgheap.obj
 0001:00085380       __CrtSetDbgBlockType       00486380 f   LIBCMTD:dbgheap.obj
 0001:00085470       __CrtSetDbgFlag            00486470 f   LIBCMTD:dbgheap.obj
 0001:000855c0       __CrtSetDebugFillThreshold 004865c0 f   LIBCMTD:dbgheap.obj
 0001:000855e0       __CrtSetDumpClient         004865e0 f   LIBCMTD:dbgheap.obj
 0001:00085600       __aligned_free             00486600 f   LIBCMTD:dbgheap.obj
 0001:00085620       __aligned_free_dbg         00486620 f   LIBCMTD:dbgheap.obj
 0001:000856d0       __aligned_malloc           004866d0 f   LIBCMTD:dbgheap.obj
 0001:000856f0       __aligned_malloc_dbg       004866f0 f   LIBCMTD:dbgheap.obj
 0001:00085710       __aligned_msize            00486710 f   LIBCMTD:dbgheap.obj
 0001:00085730       __aligned_msize_dbg        00486730 f   LIBCMTD:dbgheap.obj
 0001:00085850       __aligned_offset_malloc    00486850 f   LIBCMTD:dbgheap.obj
 0001:00085870       __aligned_offset_malloc_dbg 00486870 f   LIBCMTD:dbgheap.obj
 0001:00085a50       __aligned_offset_realloc   00486a50 f   LIBCMTD:dbgheap.obj
 0001:00085a80       __aligned_offset_realloc_dbg 00486a80 f   LIBCMTD:dbgheap.obj
 0001:00085d90       __aligned_offset_recalloc  00486d90 f   LIBCMTD:dbgheap.obj
 0001:00085dc0       __aligned_offset_recalloc_dbg 00486dc0 f   LIBCMTD:dbgheap.obj
 0001:00085e80       __aligned_realloc          00486e80 f   LIBCMTD:dbgheap.obj
 0001:00085ea0       __aligned_realloc_dbg      00486ea0 f   LIBCMTD:dbgheap.obj
 0001:00085ed0       __aligned_recalloc         00486ed0 f   LIBCMTD:dbgheap.obj
 0001:00085f00       __aligned_recalloc_dbg     00486f00 f   LIBCMTD:dbgheap.obj
 0001:00085f30       __calloc_dbg               00486f30 f   LIBCMTD:dbgheap.obj
 0001:00085f90       __calloc_dbg_impl          00486f90 f   LIBCMTD:dbgheap.obj
 0001:00086010       __expand                   00487010 f   LIBCMTD:dbgheap.obj
 0001:00086040       __expand_dbg               00487040 f   LIBCMTD:dbgheap.obj
 0001:00086160       __free_dbg                 00487160 f   LIBCMTD:dbgheap.obj
 0001:000861e0       __free_dbg_nolock          004871e0 f   LIBCMTD:dbgheap.obj
 0001:000866e0       __free_nolock              004876e0 f   LIBCMTD:dbgheap.obj
 0001:00086700       __heap_alloc               00487700 f   LIBCMTD:dbgheap.obj
 0001:00086720       __heap_alloc_dbg           00487720 f   LIBCMTD:dbgheap.obj
 0001:00086b40       __malloc_dbg               00487b40 f   LIBCMTD:dbgheap.obj
 0001:00086b70       __msize                    00487b70 f   LIBCMTD:dbgheap.obj
 0001:00086b90       __msize_dbg                00487b90 f   LIBCMTD:dbgheap.obj
 0001:00086da0       __nh_malloc                00487da0 f   LIBCMTD:dbgheap.obj
 0001:00086dc0       __nh_malloc_dbg            00487dc0 f   LIBCMTD:dbgheap.obj
 0001:00087050       __realloc_dbg              00488050 f   LIBCMTD:dbgheap.obj
 0001:000870e0       __recalloc                 004880e0 f   LIBCMTD:dbgheap.obj
 0001:00087110       __recalloc_dbg             00488110 f   LIBCMTD:dbgheap.obj
 0001:00087830       __except_handler4          00488830 f   LIBCMTD:chandler4.obj
 0001:000879f0       __getstream                004889f0 f   LIBCMTD:stream.obj
 0001:00087c20       __openfile                 00488c20 f   LIBCMTD:_open.obj
 0001:00088420       __local_unwind4            00489420 f   LIBCMTD:exsup4.obj
 0001:000884f6       __seh_longjmp_unwind4@4    004894f6 f   LIBCMTD:exsup4.obj
 0001:00088512       @_EH4_CallFilterFunc@8     00489512 f   LIBCMTD:exsup4.obj
 0001:00088529       @_EH4_TransferToHandler@8  00489529 f   LIBCMTD:exsup4.obj
 0001:00088542       @_EH4_GlobalUnwind2@8      00489542 f   LIBCMTD:exsup4.obj
 0001:0008855b       @_EH4_LocalUnwind@16       0048955b f   LIBCMTD:exsup4.obj
 0001:00088580       __vfprintf_l               00489580 f   LIBCMTD:vfprintf.obj
 0001:000885b0       __vfprintf_p               004895b0 f   LIBCMTD:vfprintf.obj
 0001:000885d0       __vfprintf_p_l             004895d0 f   LIBCMTD:vfprintf.obj
 0001:00088600       __vfprintf_s_l             00489600 f   LIBCMTD:vfprintf.obj
 0001:00088630       _vfprintf                  00489630 f   LIBCMTD:vfprintf.obj
 0001:00088650       _vfprintf_helper           00489650 f   LIBCMTD:vfprintf.obj
 0001:00088920       _vfprintf_s                00489920 f   LIBCMTD:vfprintf.obj
 0001:00088940       __ftbuf                    00489940 f   LIBCMTD:_sftbuf.obj
 0001:000889d0       __stbuf                    004899d0 f   LIBCMTD:_sftbuf.obj
 0001:00088b40       __output_l                 00489b40 f   LIBCMTD:output.obj
 0001:0008a1e0       _get_int64_arg             0048b1e0 f i LIBCMTD:output.obj
 0001:0008a200       _get_int_arg               0048b200 f i LIBCMTD:output.obj
 0001:0008a220       _get_short_arg             0048b220 f i LIBCMTD:output.obj
 0001:0008a3e0       __ioinit                   0048b3e0 f   LIBCMTD:ioinit.obj
 0001:0008a8c0       __ioterm                   0048b8c0 f   LIBCMTD:ioinit.obj
 0001:0008a960       __vprintf_l                0048b960 f   LIBCMTD:vprintf.obj
 0001:0008a980       __vprintf_p                0048b980 f   LIBCMTD:vprintf.obj
 0001:0008a9a0       __vprintf_p_l              0048b9a0 f   LIBCMTD:vprintf.obj
 0001:0008a9c0       __vprintf_s_l              0048b9c0 f   LIBCMTD:vprintf.obj
 0001:0008a9e0       _vprintf                   0048b9e0 f   LIBCMTD:vprintf.obj
 0001:0008aa00       _vprintf_helper            0048ba00 f   LIBCMTD:vprintf.obj
 0001:0008ab40       _vprintf_s                 0048bb40 f   LIBCMTD:vprintf.obj
 0001:0008acb0       ?_RTC_AllocaFailure@@YAXPAXPAU_RTC_ALLOCA_NODE@@H@Z 0048bcb0 f   LIBCMTD:error.obj
 0001:0008ae20       ?_RTC_Failure@@YAXPAXH@Z   0048be20 f   LIBCMTD:error.obj
 0001:0008ae70       ?_RTC_StackFailure@@YAXPAXPBD@Z 0048be70 f   LIBCMTD:error.obj
 0001:0008b1d0       __RTC_UninitUse            0048c1d0 f   LIBCMTD:error.obj
 0001:0008b2d0       ?_RTC_GetErrorFunc@@YAP6AHHPBDH00ZZPBX@Z 0048c2d0 f   LIBCMTD:userapi.obj
 0001:0008b2e0       ?_RTC_GetErrorFuncW@@YAP6AHHPB_WH00ZZPBX@Z 0048c2e0 f   LIBCMTD:userapi.obj
 0001:0008b2f0       __RTC_GetErrDesc           0048c2f0 f   LIBCMTD:userapi.obj
 0001:0008b310       __RTC_NumErrors            0048c310 f   LIBCMTD:userapi.obj
 0001:0008b320       __RTC_SetErrorFunc         0048c320 f   LIBCMTD:userapi.obj
 0001:0008b340       __RTC_SetErrorFuncW        0048c340 f   LIBCMTD:userapi.obj
 0001:0008b360       __RTC_SetErrorType         0048c360 f   LIBCMTD:userapi.obj
 0001:0008b390       __CRT_RTC_INIT             0048c390 f   LIBCMTD:chkesp.obj
 0001:0008b3a0       __CRT_RTC_INITW            0048c3a0 f   LIBCMTD:chkesp.obj
 0001:0008b3b0       __chkesp                   0048c3b0 f   LIBCMTD:chkesp.obj
 0001:0008b3f0       __trandisp1                0048c3f0 f   LIBCMTD:87disp.obj
 0001:0008b457       __trandisp2                0048c457 f   LIBCMTD:87disp.obj
 0001:0008b4e3       __rttospopde               0048c4e3     LIBCMTD:87disp.obj
 0001:0008b4e8       __rttospop                 0048c4e8     LIBCMTD:87disp.obj
 0001:0008b4ea       __rtnospop                 0048c4ea     LIBCMTD:87disp.obj
 0001:0008b4ec       __rttosnpop                0048c4ec     LIBCMTD:87disp.obj
 0001:0008b4ed       __rtnospopde               0048c4ed     LIBCMTD:87disp.obj
 0001:0008b4f4       __rtzeropop                0048c4f4     LIBCMTD:87disp.obj
 0001:0008b4f6       __rtzeronpop               0048c4f6     LIBCMTD:87disp.obj
 0001:0008b4fb       __rtonepop                 0048c4fb     LIBCMTD:87disp.obj
 0001:0008b4fd       __rtonenpop                0048c4fd     LIBCMTD:87disp.obj
 0001:0008b502       __tosnan1                  0048c502     LIBCMTD:87disp.obj
 0001:0008b52d       __nosnan2                  0048c52d     LIBCMTD:87disp.obj
 0001:0008b52f       __tosnan2                  0048c52f     LIBCMTD:87disp.obj
 0001:0008b557       __nan2                     0048c557     LIBCMTD:87disp.obj
 0001:0008b596       __rtindfpop                0048c596     LIBCMTD:87disp.obj
 0001:0008b598       __rtindfnpop               0048c598     LIBCMTD:87disp.obj
 0001:0008b5a9       __rttosnpopde              0048c5a9     LIBCMTD:87disp.obj
 0001:0008b5b3       __rtchsifneg               0048c5b3     LIBCMTD:87disp.obj
 0001:0008b5c0       __startTwoArgErrorHandling 0048c5c0 f   LIBCMTD:genexcep.obj
 0001:0008b5d7       __startOneArgErrorHandling 0048c5d7 f   LIBCMTD:genexcep.obj
 0001:0008b620       __twoToTOS                 0048c620 f   LIBCMTD:common.obj
 0001:0008b635       __load_CW                  0048c635 f   LIBCMTD:common.obj
 0001:0008b64c       __convertTOStoQNaN         0048c64c f   LIBCMTD:common.obj
 0001:0008b665       __fload_withFB             0048c665 f   LIBCMTD:common.obj
 0001:0008b6a8       __checkTOS_withFB          0048c6a8 f   LIBCMTD:common.obj
 0001:0008b6be       __fast_exit                0048c6be f   LIBCMTD:common.obj
 0001:0008b6cb       __math_exit                0048c6cb f   LIBCMTD:common.obj
 0001:0008b6f5       __check_overflow_exit      0048c6f5 f   LIBCMTD:common.obj
 0001:0008b709       __check_range_exit         0048c709 f   LIBCMTD:common.obj
 0001:0008b7b0       ___libm_error_support      0048c7b0 f   LIBCMTD:libm_error.obj
 0001:0008c380       ___libm_setusermatherr     0048d380 f   LIBCMTD:libm_error.obj
 0001:0008c3b0       __sse2_mathfcns_init       0048d3b0 f   LIBCMTD:mathfcns.obj
 0001:0008c3d0       __set_SSE2_enable          0048d3d0 f   LIBCMTD:mathfcns.obj
 0001:0008c420       __ceil_default             0048d420 f   LIBCMTD:ceil.obj
 0001:0008c560       __fcloseall                0048d560 f   LIBCMTD:closeall.obj
 0001:0008c690       __commit                   0048d690 f   LIBCMTD:commit.obj
 0001:0008c8d0       __write                    0048d8d0 f   LIBCMTD:write.obj
 0001:0008cb20       __write_nolock             0048db20 f   LIBCMTD:write.obj
 0001:0008d8b0       __flsbuf                   0048e8b0 f   LIBCMTD:_flsbuf.obj
 0001:0008db80       __vsnprintf                0048eb80 f   LIBCMTD:vsnprint.obj
 0001:0008dba0       __vsnprintf_l              0048eba0 f   LIBCMTD:vsnprint.obj
 0001:0008dd80       __RTC_Initialize           0048ed80 f   LIBCMTD:initsect.obj
 0001:0008ddb0       __RTC_Terminate            0048edb0 f   LIBCMTD:initsect.obj
 0001:0008dde0       __FF_MSGBANNER             0048ede0 f   LIBCMTD:crt0msg.obj
 0001:0008de30       __GET_RTERRMSG             0048ee30 f   LIBCMTD:crt0msg.obj
 0001:0008de70       __NMSG_WRITE               0048ee70 f   LIBCMTD:crt0msg.obj
 0001:0008e230       __FindPESection            0048f230 f   LIBCMTD:pesect.obj
 0001:0008e2b0       __IsNonwritableInCurrentImage 0048f2b0 f   LIBCMTD:pesect.obj
 0001:0008e3e0       __ValidateImageBase        0048f3e0 f   LIBCMTD:pesect.obj
 0001:0008e440       __initp_misc_cfltcvt_tab   0048f440 f   LIBCMTD:cmiscdat.obj
 0001:0008e480       ?_inconsistency@@YAXXZ     0048f480 f   LIBCMTD:hooks.obj
 0001:0008e510       ?terminate@@YAXXZ          0048f510 f   LIBCMTD:hooks.obj
 0001:0008e590       ?unexpected@@YAXXZ         0048f590 f   LIBCMTD:hooks.obj
 0001:0008e5c0       __initp_eh_hooks           0048f5c0 f   LIBCMTD:hooks.obj
 0001:0008e5e0       ?_query_new_handler@@YAP6AHI@ZXZ 0048f5e0 f   LIBCMTD:handler.obj
 0001:0008e600       ?_set_new_handler@@YAP6AHI@ZH@Z 0048f600 f   LIBCMTD:handler.obj
 0001:0008e640       ?_set_new_handler@@YAP6AHI@ZP6AHI@Z@Z 0048f640 f   LIBCMTD:handler.obj
 0001:0008e680       __callnewh                 0048f680 f   LIBCMTD:handler.obj
 0001:0008e6c0       __initp_heap_handler       0048f6c0 f   LIBCMTD:handler.obj
 0001:0008e6d0       ___getlocaleinfo           0048f6d0 f   LIBCMTD:inithelp.obj
 0001:0008e9d0       __initp_misc_purevirt      0048f9d0 f   LIBCMTD:inithelp.obj
 0001:0008e9e0       __initp_misc_rand_s        0048f9e0 f   LIBCMTD:rand_s.obj
 0001:0008e9f0       _rand_s                    0048f9f0 f   LIBCMTD:rand_s.obj
 0001:0008ec60       ___fpecode                 0048fc60 f   LIBCMTD:winsig.obj
 0001:0008ec70       ___get_sigabrt             0048fc70 f   LIBCMTD:winsig.obj
 0001:0008ec90       ___pxcptinfoptrs           0048fc90 f   LIBCMTD:winsig.obj
 0001:0008eca0       __initp_misc_winsig        0048fca0 f   LIBCMTD:winsig.obj
 0001:0008edc0       _raise                     0048fdc0 f   LIBCMTD:winsig.obj
 0001:0008f130       _signal                    00490130 f   LIBCMTD:winsig.obj
 0001:0008f4e0       ___initmbctable            004904e0 f   LIBCMTD:mbctype.obj
 0001:0008fb00       ___updatetmbcinfo          00490b00 f   LIBCMTD:mbctype.obj
 0001:0008fc10       __getmbcp                  00490c10 f   LIBCMTD:mbctype.obj
 0001:0008fc80       __setmbcp                  00490c80 f   LIBCMTD:mbctype.obj
 0001:0008ff20       __setmbcp_nolock           00490f20 f   LIBCMTD:mbctype.obj
 0001:000902a0       ___isa_available_init      004912a0 f   LIBCMTD:cpu_disp.obj
 0001:000904a0       __VEC_memset               004914a0 f   LIBCMTD:p4_memset.obj
 0001:00090570       __cfltcvt                  00491570 f   LIBCMTD:cvt.obj
 0001:000905a0       __cfltcvt_l                004915a0 f   LIBCMTD:cvt.obj
 0001:00090660       __cftoa                    00491660 f   LIBCMTD:cvt.obj
 0001:00090690       __cftoa_l                  00491690 f   LIBCMTD:cvt.obj
 0001:00090f00       __cftoe                    00491f00 f   LIBCMTD:cvt.obj
 0001:00091340       __cftoe_l                  00492340 f   LIBCMTD:cvt.obj
 0001:00091570       __cftof                    00492570 f   LIBCMTD:cvt.obj
 0001:00091820       __cftof_l                  00492820 f   LIBCMTD:cvt.obj
 0001:00091a20       __cftog                    00492a20 f   LIBCMTD:cvt.obj
 0001:00091a50       __cftog_l                  00492a50 f   LIBCMTD:cvt.obj
 0001:00091ce0       __cropzeros                00492ce0 f   LIBCMTD:cvt.obj
 0001:00091d00       __cropzeros_l              00492d00 f   LIBCMTD:cvt.obj
 0001:00091e20       __fassign                  00492e20 f   LIBCMTD:cvt.obj
 0001:00091e40       __fassign_l                00492e40 f   LIBCMTD:cvt.obj
 0001:00091e90       __forcdecpt                00492e90 f   LIBCMTD:cvt.obj
 0001:00091eb0       __forcdecpt_l              00492eb0 f   LIBCMTD:cvt.obj
 0001:00091f80       __positive                 00492f80 f   LIBCMTD:cvt.obj
 0001:00091fe0       __setdefaultprecision      00492fe0 f   LIBCMTD:fp8.obj
 0001:00092020       __vsnprintf_c              00493020 f   LIBCMTD:vsnprnc.obj
 0001:00092070       __vsnprintf_c_l            00493070 f   LIBCMTD:vsnprnc.obj
 0001:000920c0       __vsnprintf_helper         004930c0 f   LIBCMTD:vsnprnc.obj
 0001:000922c0       __vsnprintf_s              004932c0 f   LIBCMTD:vsnprnc.obj
 0001:000922f0       __vsnprintf_s_l            004932f0 f   LIBCMTD:vsnprnc.obj
 0001:000926b0       __vsprintf_p               004936b0 f   LIBCMTD:vsnprnc.obj
 0001:00092700       __vsprintf_p_l             00493700 f   LIBCMTD:vsnprnc.obj
 0001:00092750       __vsprintf_s_l             00493750 f   LIBCMTD:vsnprnc.obj
 0001:000929e0       _vsprintf_s                004939e0 f   LIBCMTD:vsnprnc.obj
 0001:00092a00       _strcpy_s                  00493a00 f   LIBCMTD:strcpy_s.obj
 0001:00092d00       _strnlen                   00493d00 f   LIBCMTD:strlen_s.obj
 0001:00092d40       ___wtomb_environ           00493d40 f   LIBCMTD:wtombenv.obj
 0001:00092e30       __mbsnbicoll               00493e30 f   LIBCMTD:mbsnbico.obj
 0001:00092e50       __mbsnbicoll_l             00493e50 f   LIBCMTD:mbsnbico.obj
 0001:000930d0       ___addlocaleref            004940d0 f   LIBCMTD:localref.obj
 0001:000931f0       ___freetlocinfo            004941f0 f   LIBCMTD:localref.obj
 0001:000934e0       ___removelocaleref         004944e0 f   LIBCMTD:localref.obj
 0001:00093600       ___updatetlocinfo          00494600 f   LIBCMTD:localref.obj
 0001:000936d0       __updatetlocinfoEx_nolock  004946d0 f   LIBCMTD:localref.obj
 0001:00093750       __chvalidator              00494750 f   LIBCMTD:isctype.obj
 0001:000937a0       __chvalidator_l            004947a0 f   LIBCMTD:isctype.obj
 0001:00093860       __isctype                  00494860 f   LIBCMTD:isctype.obj
 0001:000938a0       __isctype_l                004948a0 f   LIBCMTD:isctype.obj
 0001:000939f0       ___get_flsindex            004949f0 f   LIBCMTD:tidtable.obj
 0001:00093a00       ___threadhandle            00494a00 f   LIBCMTD:tidtable.obj
 0001:00093a10       ___threadid                00494a10 f   LIBCMTD:tidtable.obj
 0001:00093a20       __freefls@4                00494a20 f   LIBCMTD:tidtable.obj
 0001:00093c20       __freeptd                  00494c20 f   LIBCMTD:tidtable.obj
 0001:00093c60       __getptd                   00494c60 f   LIBCMTD:tidtable.obj
 0001:00093c90       __getptd_noexit            00494c90 f   LIBCMTD:tidtable.obj
 0001:00093d40       __initptd                  00494d40 f   LIBCMTD:tidtable.obj
 0001:00093e80       __mtinit                   00494e80 f   LIBCMTD:tidtable.obj
 0001:00093f30       __mtterm                   00494f30 f   LIBCMTD:tidtable.obj
 0001:00093f60       ___init_dummy              00494f60 f   LIBCMTD:wsetloca.obj
 0001:00093f70       __locterm                  00494f70 f   LIBCMTD:wsetloca.obj
 0001:00094000       ____setlc_active_func      00495000 f   LIBCMTD:wsetloca.obj
 0001:00094010       ____unguarded_readlc_active_add_func 00495010 f   LIBCMTD:wsetloca.obj
 0001:00094020       ___copy_locale_name        00495020 f   LIBCMTD:wsetloca.obj
 0001:000940c0       ___create_locale           004950c0 f   LIBCMTD:wsetloca.obj
 0001:000940e0       ___free_locale             004950e0 f   LIBCMTD:wsetloca.obj
 0001:00094100       ___get_current_locale      00495100 f   LIBCMTD:wsetloca.obj
 0001:00094110       ___lc_lctowcs              00495110 f   LIBCMTD:wsetloca.obj
 0001:000941c0       ___lc_wcstolc              004951c0 f   LIBCMTD:wsetloca.obj
 0001:000943e0       __configthreadlocale       004953e0 f   LIBCMTD:wsetloca.obj
 0001:00094540       __create_locale            00495540 f   LIBCMTD:wsetloca.obj
 0001:000945b0       __expandlocale             004955b0 f   LIBCMTD:wsetloca.obj
 0001:00094aa0       __free_locale              00495aa0 f   LIBCMTD:wsetloca.obj
 0001:00094bd0       __get_current_locale       00495bd0 f   LIBCMTD:wsetloca.obj
 0001:00094cf0       __wcreate_locale           00495cf0 f   LIBCMTD:wsetloca.obj
 0001:00094ed0       __wcscats                  00495ed0 f   LIBCMTD:wsetloca.obj
 0001:00094f50       __wsetlocale               00495f50 f   LIBCMTD:wsetloca.obj
 0001:00095fe0       __floor_default            00496fe0 f   LIBCMTD:floor.obj
 0001:00096120       __CallSettingFrame@12      00497120 f   LIBCMTD:lowhelpr.obj
 0001:00096147       __NLG_Return               00497147     LIBCMTD:lowhelpr.obj
 0001:00096170       ___DestructExceptionObject 00497170 f   LIBCMTD:frame.obj
 0001:00096290       ??0bad_exception@std@@QAE@ABV01@@Z 00497290 f i LIBCMTD:frame.obj
 0001:000962c0       ??0bad_exception@std@@QAE@PBD@Z 004972c0 f i LIBCMTD:frame.obj
 0001:000962f0       ??1bad_exception@std@@UAE@XZ 004972f0 f i LIBCMTD:frame.obj
 0001:00096310       ??_Gbad_exception@std@@UAEPAXI@Z 00497310 f i LIBCMTD:frame.obj
 0001:00096310       ??_Ebad_exception@std@@UAEPAXI@Z 00497310 f i LIBCMTD:frame.obj
 0001:00096f10       ?__uncaught_exception@@YA_NXZ 00497f10 f   LIBCMTD:frame.obj
 0001:00096f40       ?_is_exception_typeof@@YAHABVtype_info@@PAU_EXCEPTION_POINTERS@@@Z 00497f40 f   LIBCMTD:frame.obj
 0001:00097020       ___AdjustPointer           00498020 f   LIBCMTD:frame.obj
 0001:00097070       ___BuildCatchObject        00498070 f   LIBCMTD:frame.obj
 0001:00097180       ___BuildCatchObjectHelper  00498180 f   LIBCMTD:frame.obj
 0001:00097400       ___CxxDetectRethrow        00498400 f   LIBCMTD:frame.obj
 0001:00097480       ___CxxExceptionFilter      00498480 f   LIBCMTD:frame.obj
 0001:00097680       ___CxxQueryExceptionSize   00498680 f   LIBCMTD:frame.obj
 0001:00097690       ___CxxRegisterExceptionObject 00498690 f   LIBCMTD:frame.obj
 0001:000977d0       ___CxxUnregisterExceptionObject 004987d0 f   LIBCMTD:frame.obj
 0001:00097950       ___FrameUnwindFilter       00498950 f   LIBCMTD:frame.obj
 0001:000979d0       ___FrameUnwindToState      004989d0 f   LIBCMTD:frame.obj
 0001:00097b50       ___InternalCxxFrameHandler 00498b50 f   LIBCMTD:frame.obj
 0001:00097cc0       ___TypeMatch               00498cc0 f   LIBCMTD:frame.obj
 0001:00097d80       ?_Name_base@type_info@@CAPBDPBV1@PAU__type_info_node@@@Z 00498d80 f   LIBCMTD:typname.obj
 0001:00097f30       ?_Name_base_internal@type_info@@CAPBDPBV1@PAU__type_info_node@@@Z 00498f30 f   LIBCMTD:typname.obj
 0001:000980f0       ?_Type_info_dtor@type_info@@CAXPAV1@@Z 004990f0 f   LIBCMTD:typname.obj
 0001:00098200       ?_Type_info_dtor_internal@type_info@@CAXPAV1@@Z 00499200 f   LIBCMTD:typname.obj
 0001:00098310       ___clean_type_info_names_internal 00499310 f   LIBCMTD:typname.obj
 0001:000983c0       ___unDNameHelper           004993c0 f   LIBCMTD:typname.obj
 0001:00098400       __CIcos_pentium4           00499400 f   LIBCMTD:cos_pentium4.obj
 0001:00098418       __cos_pentium4             00499418     LIBCMTD:cos_pentium4.obj
 0001:000985b0       __CIsin_pentium4           004995b0 f   LIBCMTD:sin_pentium4.obj
 0001:000985c8       __sin_pentium4             004995c8     LIBCMTD:sin_pentium4.obj
 0001:00098780       __set_abort_behavior       00499780 f   LIBCMTD:abort.obj
 0001:000987b0       _abort                     004997b0 f   LIBCMTD:abort.obj
 0001:00098820       __CrtDefaultAllocHook      00499820 f   LIBCMTD:dbghook.obj
 0001:00098830       __crt_debugger_hook        00499830 f   LIBCMTD:dbghook.obj
 0001:00098840       ___loctotime32_t           00499840 f   LIBCMTD:dtoxtime.obj
 0001:00098b40       ___loctotime64_t           00499b40 f   LIBCMTD:dtoxtm64.obj
 0001:00098ec0       ?__CxxUnhandledExceptionFilter@@YGJPAU_EXCEPTION_POINTERS@@@Z 00499ec0 f   LIBCMTD:unhandld.obj
 0001:00098f30       ___CxxSetUnhandledExceptionFilter 00499f30 f   LIBCMTD:unhandld.obj
 0001:00098f50       __XcptFilter               00499f50 f   LIBCMTD:winxfltr.obj
 0001:00099150       ___CppXcptFilter           0049a150 f   LIBCMTD:winxfltr.obj
 0001:000991e0       __get_heap_handle          0049a1e0 f   LIBCMTD:heapinit.obj
 0001:00099220       __heap_init                0049a220 f   LIBCMTD:heapinit.obj
 0001:00099250       __heap_term                0049a250 f   LIBCMTD:heapinit.obj
 0001:00099260       __set_pgmptr               0049a260 f i LIBCMTD:stdargv.obj
 0001:00099270       __setargv                  0049a270 f   LIBCMTD:stdargv.obj
 0001:00099740       __setenvp                  0049a740 f   LIBCMTD:stdenvp.obj
 0001:000998e0       ___set_app_type            0049a8e0 f   LIBCMTD:errmode.obj
 0001:000998f0       __set_error_mode           0049a8f0 f   LIBCMTD:errmode.obj
 0001:000999b0       ___security_init_cookie    0049a9b0 f   LIBCMTD:gs_support.obj
 0001:00099a90       ___crtGetEnvironmentStringsA 0049aa90 f   LIBCMTD:a_env.obj
 0001:00099b90       __CIasin_pentium4          0049ab90 f   LIBCMTD:asin_pentium4.obj
 0001:00099ba8       __asin_pentium4            0049aba8     LIBCMTD:asin_pentium4.obj
 0001:0009a110       __CIacos_pentium4          0049b110 f   LIBCMTD:acos_pentium4.obj
 0001:0009a128       __acos_pentium4            0049b128     LIBCMTD:acos_pentium4.obj
 0001:0009a68c       __fFATN2                   0049b68c     LIBCMTD:87triga.obj
 0001:0009a6dc       __rtpiby2                  0049b6dc     LIBCMTD:87triga.obj
 0001:0009a720       __cintrindisp2             0049b720 f   LIBCMTD:87cdisp.obj
 0001:0009a75e       __cintrindisp1             0049b75e f   LIBCMTD:87cdisp.obj
 0001:0009a79b       __ctrandisp2               0049b79b f   LIBCMTD:87cdisp.obj
 0001:0009a92a       __ctrandisp1               0049b92a f   LIBCMTD:87cdisp.obj
 0001:0009a95d       __fload                    0049b95d f   LIBCMTD:87cdisp.obj
 0001:0009a9a0       __CItan_pentium4           0049b9a0 f   LIBCMTD:tan_pentium4.obj
 0001:0009a9b8       __tan_pentium4             0049b9b8     LIBCMTD:tan_pentium4.obj
 0001:0009ac00       __INTRN_LOCALE_CONV        0049bc00 f i LIBCMTD:input.obj
 0001:0009adc0       __input_l                  0049bdc0 f   LIBCMTD:input.obj
 0001:0009cca0       __input_s_l                0049dca0 f   LIBCMTD:inputs.obj
 0001:0009ee60       __filbuf                   0049fe60 f   LIBCMTD:_filbuf.obj
 0001:0009f0d0       __getbuf                   004a00d0 f   LIBCMTD:_getbuf.obj
 0001:0009f1a0       _memcpy_s                  004a01a0 f   LIBCMTD:memcpy_s.obj
 0001:0009f370       __read                     004a0370 f   LIBCMTD:read.obj
 0001:0009f640       __read_nolock              004a0640 f   LIBCMTD:read.obj
 0001:000a0880       __lseek                    004a1880 f   LIBCMTD:lseek.obj
 0001:000a0ad0       __lseek_nolock             004a1ad0 f   LIBCMTD:lseek.obj
 0001:000a0bb0       __lseeki64                 004a1bb0 f   LIBCMTD:lseeki64.obj
 0001:000a0e20       __lseeki64_nolock          004a1e20 f   LIBCMTD:lseeki64.obj
 0001:000a1420       __strtoi64                 004a2420 f   LIBCMTD:strtoq.obj
 0001:000a1470       __strtoi64_l               004a2470 f   LIBCMTD:strtoq.obj
 0001:000a1490       __strtoui64                004a2490 f   LIBCMTD:strtoq.obj
 0001:000a14e0       __strtoui64_l              004a24e0 f   LIBCMTD:strtoq.obj
 0001:000a1500       ___sys_errlist             004a2500 f   LIBCMTD:syserr.obj
 0001:000a1510       ___sys_nerr                004a2510 f   LIBCMTD:syserr.obj
 0001:000a1520       ___lock_fhandle            004a2520 f   LIBCMTD:osfinfo.obj
 0001:000a1610       __alloc_osfhnd             004a2610 f   LIBCMTD:osfinfo.obj
 0001:000a18b0       __free_osfhnd              004a28b0 f   LIBCMTD:osfinfo.obj
 0001:000a19a0       __get_osfhandle            004a29a0 f   LIBCMTD:osfinfo.obj
 0001:000a1b20       __open_osfhandle           004a2b20 f   LIBCMTD:osfinfo.obj
 0001:000a1d50       __set_osfhnd               004a2d50 f   LIBCMTD:osfinfo.obj
 0001:000a1e20       __unlock_fhandle           004a2e20 f   LIBCMTD:osfinfo.obj
 0001:000a2020       __wstat64i32               004a3020 f   LIBCMTD:wstati32.obj
 0001:000a2780       __spawnve                  004a3780 f   LIBCMTD:spawnve.obj
 0001:000a2e40       __spawnvpe                 004a3e40 f   LIBCMTD:spawnvpe.obj
 0001:000a3390       __access                   004a4390 f   LIBCMTD:access.obj
 0001:000a33d0       __access_s                 004a43d0 f   LIBCMTD:access.obj
 0001:000a3430       ___iswcsym                 004a4430 f i LIBCMTD:_wctype.obj
 0001:000a3470       ___iswcsymf                004a4470 f i LIBCMTD:_wctype.obj
 0001:000a34b0       __isleadbyte_l             004a44b0 f i LIBCMTD:_wctype.obj
 0001:000a3500       __iswalnum_l               004a4500 f i LIBCMTD:_wctype.obj
 0001:000a3520       __iswalpha_l               004a4520 f i LIBCMTD:_wctype.obj
 0001:000a3540       __iswcntrl_l               004a4540 f i LIBCMTD:_wctype.obj
 0001:000a3560       __iswcsym_l                004a4560 f i LIBCMTD:_wctype.obj
 0001:000a35a0       __iswcsymf_l               004a45a0 f i LIBCMTD:_wctype.obj
 0001:000a35e0       __iswdigit_l               004a45e0 f i LIBCMTD:_wctype.obj
 0001:000a3600       __iswgraph_l               004a4600 f i LIBCMTD:_wctype.obj
 0001:000a3620       __iswlower_l               004a4620 f i LIBCMTD:_wctype.obj
 0001:000a3640       __iswprint_l               004a4640 f i LIBCMTD:_wctype.obj
 0001:000a3660       __iswpunct_l               004a4660 f i LIBCMTD:_wctype.obj
 0001:000a3680       __iswspace_l               004a4680 f i LIBCMTD:_wctype.obj
 0001:000a36a0       __iswupper_l               004a46a0 f i LIBCMTD:_wctype.obj
 0001:000a36c0       __iswxdigit_l              004a46c0 f i LIBCMTD:_wctype.obj
 0001:000a36e0       _isleadbyte                004a46e0 f i LIBCMTD:_wctype.obj
 0001:000a3700       _iswalnum                  004a4700 f i LIBCMTD:_wctype.obj
 0001:000a3720       _iswalpha                  004a4720 f i LIBCMTD:_wctype.obj
 0001:000a3740       _iswascii                  004a4740 f i LIBCMTD:_wctype.obj
 0001:000a3770       _iswcntrl                  004a4770 f i LIBCMTD:_wctype.obj
 0001:000a3790       _iswdigit                  004a4790 f i LIBCMTD:_wctype.obj
 0001:000a37b0       _iswgraph                  004a47b0 f i LIBCMTD:_wctype.obj
 0001:000a37d0       _iswlower                  004a47d0 f i LIBCMTD:_wctype.obj
 0001:000a37f0       _iswprint                  004a47f0 f i LIBCMTD:_wctype.obj
 0001:000a3810       _iswpunct                  004a4810 f i LIBCMTD:_wctype.obj
 0001:000a3830       _iswspace                  004a4830 f i LIBCMTD:_wctype.obj
 0001:000a3850       _iswupper                  004a4850 f i LIBCMTD:_wctype.obj
 0001:000a3870       _iswxdigit                 004a4870 f i LIBCMTD:_wctype.obj
 0001:000a3b80       __MarkAllocaS              004a4b80 f i LIBCMTD:a_map.obj
 0001:000a3ba0       ___crtLCMapStringA         004a4ba0 f   LIBCMTD:a_map.obj
 0001:000a3c00       __freea                    004a4c00 f i LIBCMTD:a_map.obj
 0001:000a3c70       __fltin2                   004a4c70 f   LIBCMTD:cfin.obj
 0001:000a3d50       ___STRINGTOLD_L            004a4d50 f   LIBCMTD:strgtold.obj
 0001:000a3dc0       ___addl                    004a4dc0 f i LIBCMTD:strgtold.obj
 0001:000a3e00       ___ld12mul                 004a4e00 f i LIBCMTD:strgtold.obj
 0001:000a4210       ___multtenpow12            004a5210 f i LIBCMTD:strgtold.obj
 0001:000a42f0       ___shl_12                  004a52f0 f i LIBCMTD:strgtold.obj
 0001:000a4370       ___shr_12                  004a5370 f i LIBCMTD:strgtold.obj
 0001:000a43f0       ___strgtold12_l            004a53f0 f   LIBCMTD:strgtold.obj
 0001:000a4ec0       __output_p_l               004a5ec0 f   LIBCMTD:outputp.obj
 0001:000a8cb0       __validate_param_reuseA    004a9cb0 f   LIBCMTD:outputp.obj
 0001:000a8fa0       _get_crtdouble_arg         004a9fa0 f i LIBCMTD:outputp.obj
 0001:000a9160       __chdrive                  004aa160 f   LIBCMTD:drive.obj
 0001:000a9280       __getdrive                 004aa280 f   LIBCMTD:drive.obj
 0001:000a9430       _wcscpy_s                  004aa430 f   LIBCMTD:wcscpy_s.obj
 0001:000a9740       _wcslen                    004aa740 f   LIBCMTD:wcslen.obj
 0001:000a9780       ___swprintf_l              004aa780 f   LIBCMTD:swprintf.obj
 0001:000a97b0       __scwprintf                004aa7b0 f   LIBCMTD:swprintf.obj
 0001:000a97d0       __scwprintf_l              004aa7d0 f   LIBCMTD:swprintf.obj
 0001:000a9800       __scwprintf_p              004aa800 f   LIBCMTD:swprintf.obj
 0001:000a9820       __scwprintf_p_l            004aa820 f   LIBCMTD:swprintf.obj
 0001:000a9850       __snwprintf_s              004aa850 f   LIBCMTD:swprintf.obj
 0001:000a9880       __snwprintf_s_l            004aa880 f   LIBCMTD:swprintf.obj
 0001:000a98b0       __swprintf                 004aa8b0 f   LIBCMTD:swprintf.obj
 0001:000a9ad0       __swprintf_p               004aaad0 f   LIBCMTD:swprintf.obj
 0001:000a9b00       __swprintf_p_l             004aab00 f   LIBCMTD:swprintf.obj
 0001:000a9b30       __swprintf_s_l             004aab30 f   LIBCMTD:swprintf.obj
 0001:000a9b60       _swprintf_s                004aab60 f   LIBCMTD:swprintf.obj
 0001:000a9b90       ___crtMessageBoxW          004aab90 f   LIBCMTD:crtmboxw.obj
 0001:000a9ea0       ___crtMessageBoxWaitThreadW@4 004aaea0 f   LIBCMTD:crtmboxw.obj
 0001:000a9ee0       __CrtDbgBreak              004aaee0 f   LIBCMTD:dbgrptt.obj
 0001:000a9ef0       __CrtGetReportHook         004aaef0 f   LIBCMTD:dbgrptt.obj
 0001:000a9f00       __CrtSetReportFile         004aaf00 f   LIBCMTD:dbgrptt.obj
 0001:000aa000       __CrtSetReportHook         004ab000 f   LIBCMTD:dbgrptt.obj
 0001:000aa020       __CrtSetReportMode         004ab020 f   LIBCMTD:dbgrptt.obj
 0001:000aa160       __VCrtDbgReportA           004ab160 f   LIBCMTD:dbgrptt.obj
 0001:000aa9d0       __VCrtDbgReportW           004ab9d0 f   LIBCMTD:dbgrptt.obj
 0001:000ab340       __free_base                004ac340 f   LIBCMTD:free.obj
 0001:000ab390       __realloc_base             004ac390 f   LIBCMTD:realloc.obj
 0001:000ab490       __expand_base              004ac490 f   LIBCMTD:expand.obj
 0001:000ab600       __CrtDbgReport             004ac600 f   LIBCMTD:dbgrpt.obj
 0001:000ab650       __CrtDbgReportV            004ac650 f i LIBCMTD:dbgrpt.obj
 0001:000ab680       __CrtSetReportHook2        004ac680 f   LIBCMTD:dbgrpt.obj
 0001:000ab9d0       ___crtMessageWindowA       004ac9d0 f   LIBCMTD:dbgrpt.obj
 0001:000abe70       __heapchk                  004ace70 f   LIBCMTD:heapchk.obj
 0001:000abea0       __heapset                  004acea0 f   LIBCMTD:heapchk.obj
 0001:000abeb0       __heap_alloc_base          004aceb0 f i LIBCMTD:malloc.obj
 0001:000abf10       __malloc_base              004acf10 f   LIBCMTD:malloc.obj
 0001:000abfa0       __open                     004acfa0 f   LIBCMTD:open.obj
 0001:000ac130       __sopen                    004ad130 f   LIBCMTD:open.obj
 0001:000ac1a0       __sopen_helper             004ad1a0 f   LIBCMTD:open.obj
 0001:000ac430       __sopen_nolock             004ad430 f   LIBCMTD:open.obj
 0001:000ac4a0       __sopen_s                  004ad4a0 f   LIBCMTD:open.obj
 0001:000ac4d0       __mbsnbcmp                 004ad4d0 f   LIBCMTD:mbsnbcmp.obj
 0001:000ac4f0       __mbsnbcmp_l               004ad4f0 f   LIBCMTD:mbsnbcmp.obj
 0001:000ac810       __mbsnbicmp                004ad810 f   LIBCMTD:mbsnbicm.obj
 0001:000ac830       __mbsnbicmp_l              004ad830 f   LIBCMTD:mbsnbicm.obj
 0001:000acd70       __global_unwind2           004add70 f   LIBCMTD:exsup.obj
 0001:000acdd5       __local_unwind2            004addd5 f   LIBCMTD:exsup.obj
 0001:000ace59       __abnormal_termination     004ade59 f   LIBCMTD:exsup.obj
 0001:000ace7c       __NLG_Notify1              004ade7c f   LIBCMTD:exsup.obj
 0001:000ace85       __NLG_Notify               004ade85 f   LIBCMTD:exsup.obj
 0001:000ace9c       __NLG_Dispatch             004ade9c     LIBCMTD:exsup.obj
 0001:000ace9c       __NLG_Dispatch2            004ade9c     LIBCMTD:exsup.obj
 0001:000acea4       __NLG_Call                 004adea4 f   LIBCMTD:exsup.obj
 0001:000acea6       __NLG_Return2              004adea6     LIBCMTD:exsup.obj
 0001:000aceb0       __output_s_l               004adeb0 f   LIBCMTD:outputs.obj
 0001:000ae850       __isatty                   004af850 f   LIBCMTD:isatty.obj
 0001:000ae910       __wctomb_l                 004af910 f   LIBCMTD:wctomb.obj
 0001:000ae990       __wctomb_s_l               004af990 f   LIBCMTD:wctomb.obj
 0001:000aece0       _wctomb                    004afce0 f   LIBCMTD:wctomb.obj
 0001:000aed30       _wctomb_s                  004afd30 f   LIBCMTD:wctomb.obj
 0001:000aed50       __aulldiv                  004afd50 f   LIBCMTD:ulldiv.obj
 0001:000aedc0       __aullrem                  004afdc0 f   LIBCMTD:ullrem.obj
 0001:000af270       ?_RTC_GetSrcLine@@YAHPAEPA_WKPAH1K@Z 004b0270 f   LIBCMTD:pdblkup.obj
 0001:000af520       __87except                 004b0520 f   LIBCMTD:87except.obj
 0001:000af720       __matherr                  004b0720 f   LIBCMTD:matherr.obj
 0001:000af730       __frnd                     004b0730 f   LIBCMTD:frnd.obj
 0001:000af750       __errcode                  004b0750 f   LIBCMTD:fpexcept.obj
 0001:000af7c0       __except1                  004b07c0 f   LIBCMTD:fpexcept.obj
 0001:000af8c0       __except2                  004b08c0 f   LIBCMTD:fpexcept.obj
 0001:000afa10       __handle_exc               004b0a10 f   LIBCMTD:fpexcept.obj
 0001:000afd30       __handle_qnan1             004b0d30 f   LIBCMTD:fpexcept.obj
 0001:000afd90       __handle_qnan2             004b0d90 f   LIBCMTD:fpexcept.obj
 0001:000afe00       __raise_exc                004b0e00 f   LIBCMTD:fpexcept.obj
 0001:000afe30       __raise_exc_ex             004b0e30 f   LIBCMTD:fpexcept.obj
 0001:000b03a0       __raise_excf               004b13a0 f   LIBCMTD:fpexcept.obj
 0001:000b03d0       __set_errno_from_matherr   004b13d0 f   LIBCMTD:fpexcept.obj
 0001:000b0410       __umatherr                 004b1410 f   LIBCMTD:fpexcept.obj
 0001:000b04b0       __add_exp                  004b14b0 f   LIBCMTD:util.obj
 0001:000b04e0       __decomp                   004b14e0 f   LIBCMTD:util.obj
 0001:000b0600       __get_exp                  004b1600 f   LIBCMTD:util.obj
 0001:000b0630       __set_bexp                 004b1630 f   LIBCMTD:util.obj
 0001:000b0660       __set_exp                  004b1660 f   LIBCMTD:util.obj
 0001:000b06a0       __sptype                   004b16a0 f   LIBCMTD:util.obj
 0001:000b0720       ___clrfp_sse2              004b1720 f   LIBCMTD:fpctrl.obj
 0001:000b0760       ___ctrlfp_sse2             004b1760 f   LIBCMTD:fpctrl.obj
 0001:000b07c0       ___fclrf_sse2              004b17c0 f   LIBCMTD:fpctrl.obj
 0001:000b07e0       ___get_fpsr_sse2           004b17e0 f   LIBCMTD:fpctrl.obj
 0001:000b0810       ___set_fpsr_sse2           004b1810 f   LIBCMTD:fpctrl.obj
 0001:000b08f0       ___set_statfp_sse2         004b18f0 f   LIBCMTD:fpctrl.obj
 0001:000b0920       ___statfp_sse2             004b1920 f   LIBCMTD:fpctrl.obj
 0001:000b0950       __clrfp                    004b1950 f   LIBCMTD:fpctrl.obj
 0001:000b0970       __ctrlfp                   004b1970 f   LIBCMTD:fpctrl.obj
 0001:000b09a0       __set_statfp               004b19a0 f   LIBCMTD:fpctrl.obj
 0001:000b0a10       __statfp                   004b1a10 f   LIBCMTD:fpctrl.obj
 0001:000b0a20       __mbtowc_l                 004b1a20 f   LIBCMTD:mbtowc.obj
 0001:000b0c60       _mbtowc                    004b1c60 f   LIBCMTD:mbtowc.obj
 0001:000b0c80       __putwch                   004b1c80 f   LIBCMTD:putwch.obj
 0001:000b0d10       __putwch_nolock            004b1d10 f   LIBCMTD:putwch.obj
 0001:000b0d60       _wcscat_s                  004b1d60 f   LIBCMTD:wcscat_s.obj
 0001:000b1170       _wcsncpy_s                 004b2170 f   LIBCMTD:wcsncpy_s.obj
 0001:000b15a0       __fptrap                   004b25a0 f   LIBCMTD:crt0fp.obj
 0001:000b15b0       _strncpy_s                 004b25b0 f   LIBCMTD:strncpy_s.obj
 0001:000b1ae0       ___crtGetLocaleInfoA       004b2ae0 f   LIBCMTD:a_loc.obj
 0001:000b1b30       _GetTableIndexFromLcid     004b2b30 f   LIBCMTD:winapinls.obj
 0001:000b1ba0       _GetTableIndexFromLocaleName 004b2ba0 f   LIBCMTD:winapinls.obj
 0001:000b1c30       ___crtCompareStringEx      004b2c30 f   LIBCMTD:winapinls.obj
 0001:000b1ca0       ___crtDownlevelLCIDToLocaleName 004b2ca0 f   LIBCMTD:winapinls.obj
 0001:000b1d70       ___crtDownlevelLocaleNameToLCID 004b2d70 f   LIBCMTD:winapinls.obj
 0001:000b1dd0       ___crtEnumSystemLocalesEx  004b2dd0 f   LIBCMTD:winapinls.obj
 0001:000b1e40       ___crtGetDateFormatEx      004b2e40 f   LIBCMTD:winapinls.obj
 0001:000b1eb0       ___crtGetLocaleInfoEx      004b2eb0 f   LIBCMTD:winapinls.obj
 0001:000b1f10       ___crtGetTimeFormatEx      004b2f10 f   LIBCMTD:winapinls.obj
 0001:000b1f80       ___crtGetUserDefaultLocaleName 004b2f80 f   LIBCMTD:winapinls.obj
 0001:000b1fd0       ___crtIsValidLocaleName    004b2fd0 f   LIBCMTD:winapinls.obj
 0001:000b2010       ___crtLCMapStringEx        004b3010 f   LIBCMTD:winapinls.obj
 0001:000b2080       ___wcsnicmp_ascii          004b3080 f   LIBCMTD:winapinls.obj
 0001:000b2260       ___crtGetStringTypeA       004b3260 f   LIBCMTD:a_str.obj
 0001:000b22b0       __fptostr                  004b32b0 f   LIBCMTD:_fptostr.obj
 0001:000b25d0       __atodbl                   004b35d0 f   LIBCMTD:atodbl.obj
 0001:000b25f0       __atodbl_l                 004b35f0 f   LIBCMTD:atodbl.obj
 0001:000b26f0       __atoflt                   004b36f0 f   LIBCMTD:atodbl.obj
 0001:000b2710       __atoflt_l                 004b3710 f   LIBCMTD:atodbl.obj
 0001:000b2810       __atoldbl                  004b3810 f   LIBCMTD:atodbl.obj
 0001:000b2830       __atoldbl_l                004b3830 f   LIBCMTD:atodbl.obj
 0001:000b2930       ___dtold                   004b3930 f   LIBCMTD:cfout.obj
 0001:000b2a90       __fltout2                  004b3a90 f   LIBCMTD:cfout.obj
 0001:000b2b40       __alldiv                   004b3b40 f   LIBCMTD:lldiv.obj
 0001:000b2bf0       __allrem                   004b3bf0 f   LIBCMTD:llrem.obj
 0001:000b2cb0       __allshl                   004b3cb0 f   LIBCMTD:llshl.obj
 0001:000b2cd0       __aullshr                  004b3cd0 f   LIBCMTD:ullshr.obj
 0001:000b2cf0       __get_output_format        004b3cf0 f   LIBCMTD:outputformat.obj
 0001:000b2d00       __set_output_format        004b3d00 f   LIBCMTD:outputformat.obj
 0001:000b2da0       __controlfp_s              004b3da0 f   LIBCMTD:contrlfp.obj
 0001:000b2e90       ___crtsetenv               004b3e90 f   LIBCMTD:setenv.obj
 0001:000b3560       __strnicoll                004b4560 f   LIBCMTD:strnicol.obj
 0001:000b35a0       __strnicoll_l              004b45a0 f   LIBCMTD:strnicol.obj
 0001:000b3c80       ___crtCompareStringA       004b4c80 f   LIBCMTD:a_cmp.obj
 0001:000b3ce0       ___free_lconv_mon          004b4ce0 f   LIBCMTD:initmon.obj
 0001:000b3e90       ___init_monetary           004b4e90 f   LIBCMTD:initmon.obj
 0001:000b44a0       ___free_lconv_num          004b54a0 f   LIBCMTD:initnum.obj
 0001:000b4550       ___init_numeric            004b5550 f   LIBCMTD:initnum.obj
 0001:000b4920       ___free_lc_time            004b5920 f   LIBCMTD:inittime.obj
 0001:000b5250       ___init_time               004b6250 f   LIBCMTD:inittime.obj
 0001:000b6250       _localeconv                004b7250 f   LIBCMTD:lconv.obj
 0001:000b62a0       ___pctype_func             004b72a0 f   LIBCMTD:ctype.obj
 0001:000b62f0       ___pwctype_func            004b72f0 f   LIBCMTD:ctype.obj
 0001:000b6300       ___init_collate            004b7300 f   LIBCMTD:initcoll.obj
 0001:000b6310       ____lc_codepage_func       004b7310 f   LIBCMTD:initctyp.obj
 0001:000b6360       ____lc_collate_cp_func     004b7360 f   LIBCMTD:initctyp.obj
 0001:000b63b0       ____lc_locale_name_func    004b73b0 f   LIBCMTD:initctyp.obj
 0001:000b6400       ____mb_cur_max_func        004b7400 f   LIBCMTD:initctyp.obj
 0001:000b6450       ____mb_cur_max_l_func      004b7450 f   LIBCMTD:initctyp.obj
 0001:000b6480       ___init_ctype              004b7480 f   LIBCMTD:initctyp.obj
 0001:000b6c70       _memcmp                    004b7c70 f   LIBCMTD:memcmp.obj
 0001:000b7540       _wcscmp                    004b8540 f   LIBCMTD:wcscmp.obj
 0001:000b75a0       _wcscspn                   004b85a0 f   LIBCMTD:wcscspn.obj
 0001:000b7610       _wcsnlen                   004b8610 f   LIBCMTD:wcslen_s.obj
 0001:000b7650       _wcsncmp                   004b8650 f   LIBCMTD:wcsncmp.obj
 0001:000b76b0       _wcspbrk                   004b86b0 f   LIBCMTD:wcspbrk.obj
 0001:000b8250       ___get_qualified_locale    004b9250 f   LIBCMTD:getqloc.obj
 0001:000b9230       ___get_qualified_locale_downlevel 004ba230 f   LIBCMTD:getqloc_downlevel.obj
 0001:000b9500       ?_ValidateExecute@@YAHP6GHXZ@Z 004ba500 f   LIBCMTD:validate.obj
 0001:000b9520       ?_ValidateRead@@YAHPBXI@Z  004ba520 f   LIBCMTD:validate.obj
 0001:000b9540       ?_ValidateWrite@@YAHPAXI@Z 004ba540 f   LIBCMTD:validate.obj
 0001:000b9560       ??0Block@_HeapManager@@QAE@XZ 004ba560 f i LIBCMTD:undname.obj
 0001:000b9580       ??0DName@@QAE@AAPBDD@Z     004ba580 f   LIBCMTD:undname.obj
 0001:000b9840       ??0DName@@QAE@ABV0@@Z      004ba840 f i LIBCMTD:undname.obj
 0001:000b9860       ??0DName@@QAE@D@Z          004ba860 f   LIBCMTD:undname.obj
 0001:000b9940       ??0DName@@QAE@PAV0@@Z      004ba940 f   LIBCMTD:undname.obj
 0001:000b9a80       ??0DName@@QAE@PBD@Z        004baa80 f   LIBCMTD:undname.obj
 0001:000b9b70       ??0DName@@QAE@W4DNameStatus@@@Z 004bab70 f   LIBCMTD:undname.obj
 0001:000b9c90       ??0DName@@QAE@XZ           004bac90 f i LIBCMTD:undname.obj
 0001:000b9d50       ??0DName@@QAE@_J@Z         004bad50 f   LIBCMTD:undname.obj
 0001:000b9ed0       ??0DName@@QAE@_K@Z         004baed0 f   LIBCMTD:undname.obj
 0001:000ba010       ??0DNameNode@@IAE@XZ       004bb010 f   LIBCMTD:undname.obj
 0001:000ba030       ??0DNameStatusNode@@AAE@W4DNameStatus@@@Z 004bb030 f   LIBCMTD:undname.obj
 0001:000ba080       ??0Replicator@@QAE@XZ      004bb080 f i LIBCMTD:undname.obj
 0001:000ba0a0       ??0UnDecorator@@QAE@PADPBDHP6APADJ@ZK@Z 004bb0a0 f i LIBCMTD:undname.obj
 0001:000ba140       ??0charNode@@QAE@D@Z       004bb140 f   LIBCMTD:undname.obj
 0001:000ba170       ??0pDNameNode@@QAE@PAVDName@@@Z 004bb170 f   LIBCMTD:undname.obj
 0001:000ba1d0       ??0pairNode@@QAE@PAVDNameNode@@0@Z 004bb1d0 f   LIBCMTD:undname.obj
 0001:000ba210       ??0pcharNode@@QAE@PBDH@Z   004bb210 f   LIBCMTD:undname.obj
 0001:000ba2b0       ??2@YAPAXIAAV_HeapManager@@H@Z 004bb2b0 f i LIBCMTD:undname.obj
 0001:000ba2d0       ??4DName@@QAEAAV0@ABV0@@Z  004bb2d0 f   LIBCMTD:undname.obj
 0001:000ba2f0       ??4DName@@QAEAAV0@D@Z      004bb2f0 f i LIBCMTD:undname.obj
 0001:000ba3d0       ??4DName@@QAEAAV0@PAV0@@Z  004bb3d0 f   LIBCMTD:undname.obj
 0001:000ba500       ??4DName@@QAEAAV0@PBD@Z    004bb500 f   LIBCMTD:undname.obj
 0001:000ba5e0       ??4DName@@QAEAAV0@W4DNameStatus@@@Z 004bb5e0 f   LIBCMTD:undname.obj
 0001:000ba6e0       ??AReplicator@@QBE?AVDName@@H@Z 004bb6e0 f   LIBCMTD:undname.obj
 0001:000ba750       ??BUnDecorator@@QAEPADXZ   004bb750 f i LIBCMTD:undname.obj
 0001:000ba9e0       ??H@YA?AVDName@@DABV0@@Z   004bb9e0 f i LIBCMTD:undname.obj
 0001:000baa10       ??H@YA?AVDName@@PBDABV0@@Z 004bba10 f i LIBCMTD:undname.obj
 0001:000baa40       ??H@YA?AVDName@@W4DNameStatus@@ABV0@@Z 004bba40 f i LIBCMTD:undname.obj
 0001:000baa70       ??HDName@@QBE?AV0@ABV0@@Z  004bba70 f   LIBCMTD:undname.obj
 0001:000baab0       ??HDName@@QBE?AV0@D@Z      004bbab0 f   LIBCMTD:undname.obj
 0001:000baaf0       ??HDName@@QBE?AV0@PAV0@@Z  004bbaf0 f   LIBCMTD:undname.obj
 0001:000bab30       ??HDName@@QBE?AV0@PBD@Z    004bbb30 f   LIBCMTD:undname.obj
 0001:000bab70       ??HDName@@QBE?AV0@W4DNameStatus@@@Z 004bbb70 f   LIBCMTD:undname.obj
 0001:000babb0       ??YDName@@QAEAAV0@ABV0@@Z  004bbbb0 f   LIBCMTD:undname.obj
 0001:000bac20       ??YDName@@QAEAAV0@D@Z      004bbc20 f   LIBCMTD:undname.obj
 0001:000baca0       ??YDName@@QAEAAV0@PAV0@@Z  004bbca0 f   LIBCMTD:undname.obj
 0001:000bad50       ??YDName@@QAEAAV0@PBD@Z    004bbd50 f   LIBCMTD:undname.obj
 0001:000badf0       ??YDName@@QAEAAV0@W4DNameStatus@@@Z 004bbdf0 f   LIBCMTD:undname.obj
 0001:000bae50       ??YReplicator@@QAEAAV0@ABVDName@@@Z 004bbe50 f   LIBCMTD:undname.obj
 0001:000baee0       ??_5DName@@QAEAAV0@ABV0@@Z 004bbee0 f   LIBCMTD:undname.obj
 0001:000baf40       ?Constructor@_HeapManager@@QAEXP6APAXI@ZP6AXPAX@Z@Z 004bbf40 f i LIBCMTD:undname.obj
 0001:000baf80       ?Destructor@_HeapManager@@QAEXXZ 004bbf80 f i LIBCMTD:undname.obj
 0001:000bafd0       ?UScore@UnDecorator@@SAPBDW4Tokens@@@Z 004bbfd0 f   LIBCMTD:undname.obj
 0001:000bb000       ?append@DName@@AAEXPAVDNameNode@@@Z 004bc000 f   LIBCMTD:undname.obj
 0001:000bb090       ?composeDeclaration@UnDecorator@@CA?AVDName@@ABV2@@Z 004bc090 f i LIBCMTD:undname.obj
 0001:000bcd10       ?dbGetString@DName@@QBEPADXZ 004bdd10 f   LIBCMTD:undname.obj
 0001:000bcd30       ?doAccessSpecifiers@UnDecorator@@SAHXZ 004bdd30 f i LIBCMTD:undname.obj
 0001:000bcd60       ?doAllocationLanguage@UnDecorator@@SAHXZ 004bdd60 f i LIBCMTD:undname.obj
 0001:000bcd90       ?doAllocationModel@UnDecorator@@SAHXZ 004bdd90 f i LIBCMTD:undname.obj
 0001:000bcdc0       ?doEcsu@UnDecorator@@SAHXZ 004bddc0 f i LIBCMTD:undname.obj
 0001:000bcdf0       ?doEllipsis@UnDecorator@@SAHXZ 004bddf0 f i LIBCMTD:undname.obj
 0001:000bce20       ?doFunctionReturns@UnDecorator@@SAHXZ 004bde20 f i LIBCMTD:undname.obj
 0001:000bce50       ?doMSKeywords@UnDecorator@@SAHXZ 004bde50 f i LIBCMTD:undname.obj
 0001:000bce80       ?doMemberTypes@UnDecorator@@SAHXZ 004bde80 f i LIBCMTD:undname.obj
 0001:000bceb0       ?doNameOnly@UnDecorator@@SAHXZ 004bdeb0 f i LIBCMTD:undname.obj
 0001:000bcec0       ?doNoIdentCharCheck@UnDecorator@@SAHXZ 004bdec0 f i LIBCMTD:undname.obj
 0001:000bced0       ?doPchar@DName@@AAEXPBDH@Z 004bded0 f   LIBCMTD:undname.obj
 0001:000bd010       ?doPtr64@UnDecorator@@SAHXZ 004be010 f i LIBCMTD:undname.obj
 0001:000bd040       ?doRestrictionSpec@UnDecorator@@SAHXZ 004be040 f i LIBCMTD:undname.obj
 0001:000bd070       ?doThisTypes@UnDecorator@@SAHXZ 004be070 f i LIBCMTD:undname.obj
 0001:000bd0a0       ?doThrowTypes@UnDecorator@@SAHXZ 004be0a0 f i LIBCMTD:undname.obj
 0001:000bd0d0       ?doTypeOnly@UnDecorator@@SAHXZ 004be0d0 f i LIBCMTD:undname.obj
 0001:000bd0e0       ?doUnderScore@UnDecorator@@SAHXZ 004be0e0 f i LIBCMTD:undname.obj
 0001:000bd110       ?getArgumentList@UnDecorator@@CA?AVDName@@XZ 004be110 f   LIBCMTD:undname.obj
 0001:000bd260       ?getArgumentTypes@UnDecorator@@CA?AVDName@@XZ 004be260 f   LIBCMTD:undname.obj
 0001:000bd3c0       ?getArrayType@UnDecorator@@CA?AVDName@@ABV2@@Z 004be3c0 f i LIBCMTD:undname.obj
 0001:000bd600       ?getBasedType@UnDecorator@@CA?AVDName@@XZ 004be600 f   LIBCMTD:undname.obj
 0001:000bd6c0       ?getBasicDataType@UnDecorator@@CA?AVDName@@ABV2@@Z 004be6c0 f   LIBCMTD:undname.obj
 0001:000bdc80       ?getCallIndex@UnDecorator@@CA?AVDName@@XZ 004bec80 f i LIBCMTD:undname.obj
 0001:000bdca0       ?getCallingConvention@UnDecorator@@CA?AVDName@@XZ 004beca0 f   LIBCMTD:undname.obj
 0001:000bde10       ?getDataIndirectType@UnDecorator@@CA?AVDName@@ABV2@PBD0H@Z 004bee10 f   LIBCMTD:undname.obj
 0001:000be520       ?getDataIndirectType@UnDecorator@@CA?AVDName@@XZ 004bf520 f i LIBCMTD:undname.obj
 0001:000be560       ?getDataType@UnDecorator@@CA?AVDName@@PAV2@@Z 004bf560 f   LIBCMTD:undname.obj
 0001:000be680       ?getDecoratedName@UnDecorator@@CA?AVDName@@XZ 004bf680 f   LIBCMTD:undname.obj
 0001:000be9b0       ?getDimension@UnDecorator@@CA?AVDName@@_N@Z 004bf9b0 f   LIBCMTD:undname.obj
 0001:000bec60       ?getDispatchTarget@UnDecorator@@CA?AVDName@@XZ 004bfc60 f   LIBCMTD:undname.obj
 0001:000bed00       ?getDisplacement@UnDecorator@@CA?AVDName@@XZ 004bfd00 f i LIBCMTD:undname.obj
 0001:000bed20       ?getECSUDataType@UnDecorator@@CA?AVDName@@XZ 004bfd20 f   LIBCMTD:undname.obj
 0001:000beef0       ?getECSUName@UnDecorator@@CA?AVDName@@XZ 004bfef0 f i LIBCMTD:undname.obj
 0001:000bef10       ?getEnumType@UnDecorator@@CA?AVDName@@XZ 004bff10 f i LIBCMTD:undname.obj
 0001:000bf060       ?getExtendedDataIndirectType@UnDecorator@@CA?AVDName@@AAPBDAA_NH@Z 004c0060 f   LIBCMTD:undname.obj
 0001:000bf2b0       ?getExternalDataType@UnDecorator@@CA?AVDName@@ABV2@@Z 004c02b0 f i LIBCMTD:undname.obj
 0001:000bf340       ?getFunctionIndirectType@UnDecorator@@CA?AVDName@@ABV2@@Z 004c0340 f   LIBCMTD:undname.obj
 0001:000bf7b0       ?getGuardNumber@UnDecorator@@CA?AVDName@@XZ 004c07b0 f i LIBCMTD:undname.obj
 0001:000bf7d0       ?getLastChar@DName@@QBEDXZ 004c07d0 f i LIBCMTD:undname.obj
 0001:000bf800       ?getLastChar@DNameStatusNode@@UBEDXZ 004c0800 f i LIBCMTD:undname.obj
 0001:000bf830       ?getLastChar@charNode@@UBEDXZ 004c0830 f i LIBCMTD:undname.obj
 0001:000bf850       ?getLastChar@pDNameNode@@UBEDXZ 004c0850 f i LIBCMTD:undname.obj
 0001:000bf880       ?getLastChar@pairNode@@UBEDXZ 004c0880 f i LIBCMTD:undname.obj
 0001:000bf8d0       ?getLastChar@pcharNode@@UBEDXZ 004c08d0 f i LIBCMTD:undname.obj
 0001:000bf910       ?getLexicalFrame@UnDecorator@@CA?AVDName@@XZ 004c0910 f i LIBCMTD:undname.obj
 0001:000bf950       ?getMemory@_HeapManager@@QAEPAXIH@Z 004c0950 f   LIBCMTD:undname.obj
 0001:000bfa60       ?getNumberOfDimensions@UnDecorator@@CAHXZ 004c0a60 f   LIBCMTD:undname.obj
 0001:000bfb60       ?getOperatorName@UnDecorator@@CA?AVDName@@_NPA_N@Z 004c0b60 f i LIBCMTD:undname.obj
 0001:000c04f0       ?getPointerType@UnDecorator@@CA?AVDName@@ABV2@0@Z 004c14f0 f i LIBCMTD:undname.obj
 0001:000c0520       ?getPointerTypeArray@UnDecorator@@CA?AVDName@@ABV2@0@Z 004c1520 f i LIBCMTD:undname.obj
 0001:000c0550       ?getPrimaryDataType@UnDecorator@@CA?AVDName@@ABV2@@Z 004c1550 f   LIBCMTD:undname.obj
 0001:000c08f0       ?getPtrRefDataType@UnDecorator@@CA?AVDName@@ABV2@H@Z 004c18f0 f i LIBCMTD:undname.obj
 0001:000c0a30       ?getPtrRefType@UnDecorator@@CA?AVDName@@ABV2@0PBD@Z 004c1a30 f   LIBCMTD:undname.obj
 0001:000c0ba0       ?getReferenceType@UnDecorator@@CA?AVDName@@ABV2@0PBD@Z 004c1ba0 f i LIBCMTD:undname.obj
 0001:000c0bc0       ?getRestrictionSpec@UnDecorator@@CA?AVDName@@XZ 004c1bc0 f   LIBCMTD:undname.obj
 0001:000c0d10       ?getReturnType@UnDecorator@@CA?AVDName@@PAV2@@Z 004c1d10 f   LIBCMTD:undname.obj
 0001:000c0d60       ?getScope@UnDecorator@@CA?AVDName@@XZ 004c1d60 f   LIBCMTD:undname.obj
 0001:000c1250       ?getScopedName@UnDecorator@@CA?AVDName@@XZ 004c2250 f   LIBCMTD:undname.obj
 0001:000c1370       ?getSignedDimension@UnDecorator@@CA?AVDName@@XZ 004c2370 f   LIBCMTD:undname.obj
 0001:000c13f0       ?getStorageConvention@UnDecorator@@CA?AVDName@@XZ 004c23f0 f i LIBCMTD:undname.obj
 0001:000c1410       ?getString@DName@@QBEPADPAD0@Z 004c2410 f i LIBCMTD:undname.obj
 0001:000c1450       ?getString@DName@@QBEPADPADH@Z 004c2450 f i LIBCMTD:undname.obj
 0001:000c14e0       ?getString@DNameStatusNode@@UBEPADPAD0@Z 004c24e0 f i LIBCMTD:undname.obj
 0001:000c1520       ?getString@charNode@@UBEPADPAD0@Z 004c2520 f i LIBCMTD:undname.obj
 0001:000c1550       ?getString@pDNameNode@@UBEPADPAD0@Z 004c2550 f i LIBCMTD:undname.obj
 0001:000c1590       ?getString@pairNode@@UBEPADPAD0@Z 004c2590 f i LIBCMTD:undname.obj
 0001:000c15f0       ?getString@pcharNode@@UBEPADPAD0@Z 004c25f0 f i LIBCMTD:undname.obj
 0001:000c1620       ?getStringEncoding@UnDecorator@@CA?AVDName@@PADH@Z 004c2620 f   LIBCMTD:undname.obj
 0001:000c1730       ?getStringHelper@@YAPADPAD00H@Z 004c2730 f i LIBCMTD:undname.obj
 0001:000c1770       ?getSymbolName@UnDecorator@@CA?AVDName@@XZ 004c2770 f i LIBCMTD:undname.obj
 0001:000c1800       ?getTemplateArgumentList@UnDecorator@@CA?AVDName@@XZ 004c2800 f   LIBCMTD:undname.obj
 0001:000c1a80       ?getTemplateConstant@UnDecorator@@CA?AVDName@@XZ 004c2a80 f   LIBCMTD:undname.obj
 0001:000c1f50       ?getTemplateName@UnDecorator@@CA?AVDName@@_N@Z 004c2f50 f   LIBCMTD:undname.obj
 0001:000c2120       ?getThisType@UnDecorator@@CA?AVDName@@XZ 004c3120 f i LIBCMTD:undname.obj
 0001:000c2160       ?getThrowTypes@UnDecorator@@CA?AVDName@@XZ 004c3160 f   LIBCMTD:undname.obj
 0001:000c2210       ?getTypeEncoding@UnDecorator@@CAHXZ 004c3210 f i LIBCMTD:undname.obj
 0001:000c2c50       ?getVCallThunkType@UnDecorator@@CA?AVDName@@XZ 004c3c50 f i LIBCMTD:undname.obj
 0001:000c2cb0       ?getVbTableType@UnDecorator@@CA?AVDName@@ABV2@@Z 004c3cb0 f i LIBCMTD:undname.obj
 0001:000c2cd0       ?getVdispMapType@UnDecorator@@CA?AVDName@@ABV2@@Z 004c3cd0 f i LIBCMTD:undname.obj
 0001:000c2d40       ?getVfTableType@UnDecorator@@CA?AVDName@@ABV2@@Z 004c3d40 f i LIBCMTD:undname.obj
 0001:000c2f00       ?getZName@UnDecorator@@CA?AVDName@@_N0@Z 004c3f00 f   LIBCMTD:undname.obj
 0001:000c31b0       ?haveTemplateParameters@UnDecorator@@SAHXZ 004c41b0 f i LIBCMTD:undname.obj
 0001:000c31c0       ?isArray@DName@@QBEHXZ     004c41c0 f i LIBCMTD:undname.obj
 0001:000c31e0       ?isComArray@DName@@QBEHXZ  004c41e0 f i LIBCMTD:undname.obj
 0001:000c3200       ?isEmpty@DName@@QBEHXZ     004c4200 f i LIBCMTD:undname.obj
 0001:000c3230       ?isFull@Replicator@@QBEHXZ 004c4230 f i LIBCMTD:undname.obj
 0001:000c3260       ?isNoTE@DName@@QBEHXZ      004c4260 f i LIBCMTD:undname.obj
 0001:000c3280       ?isPinPtr@DName@@QBEHXZ    004c4280 f i LIBCMTD:undname.obj
 0001:000c32a0       ?isPtrRef@DName@@QBEHXZ    004c42a0 f i LIBCMTD:undname.obj
 0001:000c32c0       ?isUDC@DName@@QBEHXZ       004c42c0 f i LIBCMTD:undname.obj
 0001:000c3300       ?isUDTThunk@DName@@QBEHXZ  004c4300 f i LIBCMTD:undname.obj
 0001:000c3340       ?isVCallThunk@DName@@QBEHXZ 004c4340 f i LIBCMTD:undname.obj
 0001:000c3360       ?isValid@DName@@QBEHXZ     004c4360 f i LIBCMTD:undname.obj
 0001:000c33a0       ?length@DName@@QBEHXZ      004c43a0 f i LIBCMTD:undname.obj
 0001:000c33d0       ?length@DNameStatusNode@@UBEHXZ 004c43d0 f i LIBCMTD:undname.obj
 0001:000c33f0       ?length@charNode@@UBEHXZ   004c43f0 f i LIBCMTD:undname.obj
 0001:000c3400       ?length@pDNameNode@@UBEHXZ 004c4400 f i LIBCMTD:undname.obj
 0001:000c3430       ?length@pairNode@@UBEHXZ   004c4430 f i LIBCMTD:undname.obj
 0001:000c3480       ?length@pcharNode@@UBEHXZ  004c4480 f i LIBCMTD:undname.obj
 0001:000c34a0       ?make@DNameStatusNode@@SAPAV1@W4DNameStatus@@@Z 004c44a0 f i LIBCMTD:undname.obj
 0001:000c3550       ?setIsArray@DName@@QAEXXZ  004c4550 f i LIBCMTD:undname.obj
 0001:000c3570       ?setIsComArray@DName@@QAEXXZ 004c4570 f i LIBCMTD:undname.obj
 0001:000c3590       ?setIsNoTE@DName@@QAEXXZ   004c4590 f i LIBCMTD:undname.obj
 0001:000c35b0       ?setIsPinPtr@DName@@QAEXXZ 004c45b0 f i LIBCMTD:undname.obj
 0001:000c35d0       ?setIsUDC@DName@@QAEXXZ    004c45d0 f i LIBCMTD:undname.obj
 0001:000c3600       ?setIsVCallThunk@DName@@QAEXXZ 004c4600 f i LIBCMTD:undname.obj
 0001:000c3620       ?setPtrRef@DName@@QAEAAV1@XZ 004c4620 f i LIBCMTD:undname.obj
 0001:000c3640       ?status@DName@@QBE?AW4DNameStatus@@XZ 004c4640 f i LIBCMTD:undname.obj
 0001:000c3740       ___unDName                 004c4740 f   LIBCMTD:undname.obj
 0001:000c3810       ___unDNameEx               004c4810 f   LIBCMTD:undname.obj
 0001:000c38f0       ___daylight                004c48f0 f   LIBCMTD:timeset.obj
 0001:000c3900       ___dstbias                 004c4900 f   LIBCMTD:timeset.obj
 0001:000c3910       ___timezone                004c4910 f   LIBCMTD:timeset.obj
 0001:000c3920       ___tzname                  004c4920 f   LIBCMTD:timeset.obj
 0001:000c3930       __get_daylight             004c4930 f   LIBCMTD:timeset.obj
 0001:000c39c0       __get_dstbias              004c49c0 f   LIBCMTD:timeset.obj
 0001:000c3a50       __get_timezone             004c4a50 f   LIBCMTD:timeset.obj
 0001:000c3ae0       __get_tzname               004c4ae0 f   LIBCMTD:timeset.obj
 0001:000c3ce0       ___tzset                   004c4ce0 f   LIBCMTD:tzset.obj
 0001:000c3d70       __isindst                  004c4d70 f   LIBCMTD:tzset.obj
 0001:000c4140       __set_daylight             004c5140 f i LIBCMTD:tzset.obj
 0001:000c4150       __set_dstbias              004c5150 f i LIBCMTD:tzset.obj
 0001:000c4160       __set_timezone             004c5160 f i LIBCMTD:tzset.obj
 0001:000c4170       __tzset                    004c5170 f   LIBCMTD:tzset.obj
 0001:000c4a70       __allmul                   004c5a70 f   LIBCMTD:llmul.obj
 0001:000c4b70       __ismbbalnum               004c5b70 f   LIBCMTD:ismbbyte.obj
 0001:000c4b90       __ismbbalnum_l             004c5b90 f   LIBCMTD:ismbbyte.obj
 0001:000c4bb0       __ismbbalpha               004c5bb0 f   LIBCMTD:ismbbyte.obj
 0001:000c4bd0       __ismbbalpha_l             004c5bd0 f   LIBCMTD:ismbbyte.obj
 0001:000c4bf0       __ismbbgraph               004c5bf0 f   LIBCMTD:ismbbyte.obj
 0001:000c4c10       __ismbbgraph_l             004c5c10 f   LIBCMTD:ismbbyte.obj
 0001:000c4c30       __ismbbkalnum              004c5c30 f   LIBCMTD:ismbbyte.obj
 0001:000c4c50       __ismbbkalnum_l            004c5c50 f   LIBCMTD:ismbbyte.obj
 0001:000c4c70       __ismbbkana                004c5c70 f   LIBCMTD:ismbbyte.obj
 0001:000c4c90       __ismbbkana_l              004c5c90 f   LIBCMTD:ismbbyte.obj
 0001:000c4d00       __ismbbkprint              004c5d00 f   LIBCMTD:ismbbyte.obj
 0001:000c4d20       __ismbbkprint_l            004c5d20 f   LIBCMTD:ismbbyte.obj
 0001:000c4d40       __ismbbkpunct              004c5d40 f   LIBCMTD:ismbbyte.obj
 0001:000c4d60       __ismbbkpunct_l            004c5d60 f   LIBCMTD:ismbbyte.obj
 0001:000c4d80       __ismbblead                004c5d80 f   LIBCMTD:ismbbyte.obj
 0001:000c4da0       __ismbblead_l              004c5da0 f   LIBCMTD:ismbbyte.obj
 0001:000c4dc0       __ismbbprint               004c5dc0 f   LIBCMTD:ismbbyte.obj
 0001:000c4de0       __ismbbprint_l             004c5de0 f   LIBCMTD:ismbbyte.obj
 0001:000c4e00       __ismbbpunct               004c5e00 f   LIBCMTD:ismbbyte.obj
 0001:000c4e20       __ismbbpunct_l             004c5e20 f   LIBCMTD:ismbbyte.obj
 0001:000c4e40       __ismbbtrail               004c5e40 f   LIBCMTD:ismbbyte.obj
 0001:000c4e60       __ismbbtrail_l             004c5e60 f   LIBCMTD:ismbbyte.obj
 0001:000c4e80       __fstat64i32               004c5e80 f   LIBCMTD:fstati32.obj
 0001:000c5530       __towlower_l               004c6530 f   LIBCMTD:towlower.obj
 0001:000c5680       _towlower                  004c6680 f   LIBCMTD:towlower.obj
 0001:000c56a0       __wfullpath                004c66a0 f   LIBCMTD:wfullpat.obj
 0001:000c56c0       __wfullpath_dbg            004c66c0 f   LIBCMTD:wfullpat.obj
 0001:000c5940       __wopen                    004c6940 f   LIBCMTD:wopen.obj
 0001:000c5ad0       __wsopen                   004c6ad0 f   LIBCMTD:wopen.obj
 0001:000c5b40       __wsopen_helper            004c6b40 f   LIBCMTD:wopen.obj
 0001:000c5dd0       __wsopen_nolock            004c6dd0 f   LIBCMTD:wopen.obj
 0001:000c6e40       __wsopen_s                 004c7e40 f   LIBCMTD:wopen.obj
 0001:000c6fc0       ___wdtoxmode               004c7fc0 f   LIBCMTD:wstat.obj
 0001:000c71a0       __wstat32                  004c81a0 f   LIBCMTD:wstat.obj
 0001:000c78e0       _strcat_s                  004c88e0 f   LIBCMTD:strcat_s.obj
 0001:000c7ce0       __dospawn                  004c8ce0 f   LIBCMTD:dospawn.obj
 0001:000c80c0       __cenvarg                  004c90c0 f   LIBCMTD:cenvarg.obj
 0001:000c8730       __mbschr                   004c9730 f   LIBCMTD:mbschr.obj
 0001:000c8750       __mbschr_l                 004c9750 f   LIBCMTD:mbschr.obj
 0001:000c88f0       __mbsrchr                  004c98f0 f   LIBCMTD:mbsrchr.obj
 0001:000c8910       __mbsrchr_l                004c9910 f   LIBCMTD:mbsrchr.obj
 0001:000c8a90       __getpath                  004c9a90 f   LIBCMTD:getpath.obj
 0001:000c8be0       __waccess                  004c9be0 f   LIBCMTD:waccess.obj
 0001:000c8c20       __waccess_s                004c9c20 f   LIBCMTD:waccess.obj
 0001:000c8dc0       __iswctype_l               004c9dc0 f   LIBCMTD:iswctype.obj
 0001:000c8de0       _is_wctype                 004c9de0 f   LIBCMTD:iswctype.obj
 0001:000c8e00       _iswctype                  004c9e00 f   LIBCMTD:iswctype.obj
 0001:000c8e60       __CopyMan                  004c9e60 f i LIBCMTD:intrncvt.obj
 0001:000c8eb0       __FillZeroMan              004c9eb0 f i LIBCMTD:intrncvt.obj
 0001:000c8ee0       __IncMan                   004c9ee0 f i LIBCMTD:intrncvt.obj
 0001:000c8f90       __IsZeroMan                004c9f90 f i LIBCMTD:intrncvt.obj
 0001:000c8fd0       __RoundMan                 004c9fd0 f i LIBCMTD:intrncvt.obj
 0001:000c90b0       __ShrMan                   004ca0b0 f i LIBCMTD:intrncvt.obj
 0001:000c91a0       __ZeroTail                 004ca1a0 f i LIBCMTD:intrncvt.obj
 0001:000c9230       __ld12cvt                  004ca230 f i LIBCMTD:intrncvt.obj
 0001:000c94f0       __ld12tod                  004ca4f0 f   LIBCMTD:intrncvt.obj
 0001:000c9510       __ld12tof                  004ca510 f   LIBCMTD:intrncvt.obj
 0001:000c9530       __ld12told                 004ca530 f   LIBCMTD:intrncvt.obj
 0001:000c9630       ___add_12                  004ca630 f i LIBCMTD:mantold.obj
 0001:000c96e0       ___mtold12                 004ca6e0 f   LIBCMTD:mantold.obj
 0001:000c9830       ___vswprintf_l             004ca830 f   LIBCMTD:vswprint.obj
 0001:000c9850       __vscwprintf               004ca850 f   LIBCMTD:vswprint.obj
 0001:000c9870       __vscwprintf_helper        004ca870 f   LIBCMTD:vswprint.obj
 0001:000c9960       __vscwprintf_l             004ca960 f   LIBCMTD:vswprint.obj
 0001:000c9980       __vscwprintf_p             004ca980 f   LIBCMTD:vswprint.obj
 0001:000c99a0       __vscwprintf_p_l           004ca9a0 f   LIBCMTD:vswprint.obj
 0001:000c99c0       __vswprintf                004ca9c0 f   LIBCMTD:vswprint.obj
 0001:000c99e0       __vswprintf_l              004ca9e0 f   LIBCMTD:vswprint.obj
 0001:000c9c00       __vsnwprintf_s             004cac00 f   LIBCMTD:vswprnc.obj
 0001:000c9c30       __vsnwprintf_s_l           004cac30 f   LIBCMTD:vswprnc.obj
 0001:000ca010       __vswprintf_c              004cb010 f   LIBCMTD:vswprnc.obj
 0001:000ca060       __vswprintf_c_l            004cb060 f   LIBCMTD:vswprnc.obj
 0001:000ca0b0       __vswprintf_helper         004cb0b0 f   LIBCMTD:vswprnc.obj
 0001:000ca320       __vswprintf_p              004cb320 f   LIBCMTD:vswprnc.obj
 0001:000ca370       __vswprintf_p_l            004cb370 f   LIBCMTD:vswprnc.obj
 0001:000ca3c0       __vswprintf_s_l            004cb3c0 f   LIBCMTD:vswprnc.obj
 0001:000ca650       _vswprintf_s               004cb650 f   LIBCMTD:vswprnc.obj
 0001:000ca670       __woutput_l                004cb670 f   LIBCMTD:woutput.obj
 0001:000cc080       __i64toa_s                 004cd080 f   LIBCMTD:xtoas.obj
 0001:000cc0d0       __itoa_s                   004cd0d0 f   LIBCMTD:xtoas.obj
 0001:000cc130       __ltoa_s                   004cd130 f   LIBCMTD:xtoas.obj
 0001:000cc170       __ui64toa_s                004cd170 f   LIBCMTD:xtoas.obj
 0001:000cc190       __ultoa_s                  004cd190 f   LIBCMTD:xtoas.obj
 0001:000cc590       __mbstowcs_l               004cd590 f   LIBCMTD:mbstowcs.obj
 0001:000cc5b0       __mbstowcs_l_helper        004cd5b0 f   LIBCMTD:mbstowcs.obj
 0001:000cc940       __mbstowcs_s_l             004cd940 f   LIBCMTD:mbstowcs.obj
 0001:000ccd00       _mbstowcs                  004cdd00 f   LIBCMTD:mbstowcs.obj
 0001:000ccd50       _mbstowcs_s                004cdd50 f   LIBCMTD:mbstowcs.obj
 0001:000ccde0       __wcstombs_l               004cdde0 f   LIBCMTD:wcstombs.obj
 0001:000cce00       __wcstombs_l_helper        004cde00 f   LIBCMTD:wcstombs.obj
 0001:000cd310       __wcstombs_s_l             004ce310 f   LIBCMTD:wcstombs.obj
 0001:000cd670       _wcstombs                  004ce670 f   LIBCMTD:wcstombs.obj
 0001:000cd690       _wcstombs_s                004ce690 f   LIBCMTD:wcstombs.obj
 0001:000cdb00       __i64tow_s                 004ceb00 f   LIBCMTD:xtows.obj
 0001:000cdb50       __itow_s                   004ceb50 f   LIBCMTD:xtows.obj
 0001:000cdbb0       __ltow_s                   004cebb0 f   LIBCMTD:xtows.obj
 0001:000cdbf0       __ui64tow_s                004cebf0 f   LIBCMTD:xtows.obj
 0001:000cdc10       __ultow_s                  004cec10 f   LIBCMTD:xtows.obj
 0001:000ce030       __strnicmp                 004cf030 f   LIBCMTD:strnicmp.obj
 0001:000ce030       _strnicmp                  004cf030 f   LIBCMTD:strnicmp.obj
 0001:000ce200       __strnicmp_l               004cf200 f   LIBCMTD:strnicmp.obj
 0001:000ce490       __wmakepath_s              004cf490 f   LIBCMTD:wmakepath_s.obj
 0001:000ce850       __wsplitpath_s             004cf850 f   LIBCMTD:wsplitpath_s.obj
 0001:000cee90       ___termconout              004cfe90 f   LIBCMTD:initcon.obj
 0001:000ceec0       ___initconout              004cfec0 f   LIBCMTD:initcon.obj
 0001:000ceef0       _$I10_OUTPUT               004cfef0 f   LIBCMTD:x10fout.obj
 0001:000cf700       ___control87_2             004d0700 f   LIBCMTD:ieee87.obj
 0001:000cfba0       __clearfp                  004d0ba0 f   LIBCMTD:ieee87.obj
 0001:000cfbe0       __control87                004d0be0 f i LIBCMTD:ieee87.obj
 0001:000cfc90       __controlfp                004d0c90 f   LIBCMTD:ieee87.obj
 0001:000cfcb0       __fpreset                  004d0cb0 f   LIBCMTD:ieee87.obj
 0001:000cfe70       __set_controlfp            004d0e70 f   LIBCMTD:ieee87.obj
 0001:000cff00       __statusfp                 004d0f00 f   LIBCMTD:ieee87.obj
 0001:000cff40       __statusfp2                004d0f40 f   LIBCMTD:ieee87.obj
 0001:000cff80       __wtoi                     004d0f80 f   LIBCMTD:wtox.obj
 0001:000cffa0       __wtoi64                   004d0fa0 f   LIBCMTD:wtox.obj
 0001:000cffc0       __wtoi64_l                 004d0fc0 f   LIBCMTD:wtox.obj
 0001:000cffe0       __wtoi_l                   004d0fe0 f   LIBCMTD:wtox.obj
 0001:000d0000       __wtol                     004d1000 f   LIBCMTD:wtox.obj
 0001:000d0020       __wtol_l                   004d1020 f   LIBCMTD:wtox.obj
 0001:000d0040       _wcschr                    004d1040 f   LIBCMTD:wcschr.obj
 0001:000d01c0       __wcsicmp                  004d11c0 f   LIBCMTD:wcsicmp.obj
 0001:000d0390       __wcsicmp_l                004d1390 f   LIBCMTD:wcsicmp.obj
 0001:000d0600       __wcsnicmp                 004d1600 f   LIBCMTD:wcsnicmp.obj
 0001:000d07f0       __wcsnicmp_l               004d17f0 f   LIBCMTD:wcsnicmp.obj
 0001:000d0a50       ___crtLCMapStringW         004d1a50 f   LIBCMTD:w_map.obj
 0001:000d0a90       __wgetcwd                  004d1a90 f   LIBCMTD:wgetcwd.obj
 0001:000d0ab0       __wgetcwd_dbg              004d1ab0 f   LIBCMTD:wgetcwd.obj
 0001:000d0ae0       __wgetdcwd                 004d1ae0 f   LIBCMTD:wgetcwd.obj
 0001:000d0b00       __wgetdcwd_dbg             004d1b00 f   LIBCMTD:wgetcwd.obj
 0001:000d0e00       __chsize                   004d1e00 f   LIBCMTD:chsize.obj
 0001:000d0e40       __chsize_nolock            004d1e40 f   LIBCMTD:chsize.obj
 0001:000d10f0       __chsize_s                 004d20f0 f   LIBCMTD:chsize.obj
 0001:000d13b0       __get_fmode                004d23b0 f   LIBCMTD:setmode.obj
 0001:000d1450       __set_fmode                004d2450 f   LIBCMTD:setmode.obj
 0001:000d1500       __setmode                  004d2500 f   LIBCMTD:setmode.obj
 0001:000d17c0       __setmode_nolock           004d27c0 f   LIBCMTD:setmode.obj
 0001:000d1a30       __fstat32                  004d2a30 f   LIBCMTD:fstat.obj
 0001:000d20b0       _wcsrchr                   004d30b0 f   LIBCMTD:wcsrchr.obj
 0001:000d2250       __mbsnicmp                 004d3250 f   LIBCMTD:mbsnicmp.obj
 0001:000d2270       __mbsnicmp_l               004d3270 f   LIBCMTD:mbsnicmp.obj
 0001:000d2740       __validate_param_reuseW    004d3740 f   LIBCMTD:woutputp.obj
 0001:000d2a20       __woutput_p_l              004d3a20 f   LIBCMTD:woutputp.obj
 0001:000d6510       __woutput_s_l              004d7510 f   LIBCMTD:woutputs.obj
 0001:000d7c50       __fputwc_nolock            004d8c50 f   LIBCMTD:fputwc.obj
 0001:000d7f40       _fputwc                    004d8f40 f   LIBCMTD:fputwc.obj
 0001:000d8050       _putwc                     004d9050 f   LIBCMTD:fputwc.obj
 0001:000d8070       ___ascii_strnicmp          004d9070 f   LIBCMTD:_strnicm.obj
 0001:000d84a0       __wcstol_l                 004d94a0 f   LIBCMTD:wcstol.obj
 0001:000d84c0       __wcstoul_l                004d94c0 f   LIBCMTD:wcstol.obj
 0001:000d84e0       _wcstol                    004d94e0 f   LIBCMTD:wcstol.obj
 0001:000d8500       _wcstoul                   004d9500 f   LIBCMTD:wcstol.obj
 0001:000d8a70       __wcstoi64                 004d9a70 f   LIBCMTD:wcstoq.obj
 0001:000d8ac0       __wcstoi64_l               004d9ac0 f   LIBCMTD:wcstoq.obj
 0001:000d8ae0       __wcstoui64                004d9ae0 f   LIBCMTD:wcstoq.obj
 0001:000d8b30       __wcstoui64_l              004d9b30 f   LIBCMTD:wcstoq.obj
 0001:000d8b50       __flswbuf                  004d9b50 f   LIBCMTD:_flswbuf.obj
 0001:000d8e40       __wchartodigit             004d9e40 f   LIBCMTD:wchtodig.obj
 0001:000d9160       _timeGetTime@0             004da160 f   winmm:WINMM.dll
 0001:000d9166       _glDisable@4               004da166 f   opengl32:OPENGL32.dll
 0001:000d916c       _glLightf@12               004da16c f   opengl32:OPENGL32.dll
 0001:000d9172       _glLightfv@12              004da172 f   opengl32:OPENGL32.dll
 0001:000d9178       _glEnable@4                004da178 f   opengl32:OPENGL32.dll
 0001:000d917e       _wglGetCurrentContext@0    004da17e f   opengl32:OPENGL32.dll
 0001:000d9184       _glMultMatrixf@4           004da184 f   opengl32:OPENGL32.dll
 0001:000d918a       _glLoadIdentity@0          004da18a f   opengl32:OPENGL32.dll
 0001:000d9190       _glMatrixMode@4            004da190 f   opengl32:OPENGL32.dll
 0001:000d9196       _glGetIntegerv@8           004da196 f   opengl32:OPENGL32.dll
 0001:000d919c       _glGetString@4             004da19c f   opengl32:OPENGL32.dll
 0001:000d91a2       _glBindTexture@8           004da1a2 f   opengl32:OPENGL32.dll
 0001:000d91a8       _glTexParameteri@12        004da1a8 f   opengl32:OPENGL32.dll
 0001:000d91ae       _glTexEnvi@12              004da1ae f   opengl32:OPENGL32.dll
 0001:000d91b4       _glDeleteTextures@8        004da1b4 f   opengl32:OPENGL32.dll
 0001:000d91ba       _glGenTextures@8           004da1ba f   opengl32:OPENGL32.dll
 0001:000d91c0       _glAlphaFunc@8             004da1c0 f   opengl32:OPENGL32.dll
 0001:000d91c6       _glShadeModel@4            004da1c6 f   opengl32:OPENGL32.dll
 0001:000d91cc       _glMaterialfv@12           004da1cc f   opengl32:OPENGL32.dll
 0001:000d91d2       _glMaterialf@12            004da1d2 f   opengl32:OPENGL32.dll
 0001:000d91d8       _glColorMaterial@8         004da1d8 f   opengl32:OPENGL32.dll
 0001:000d91de       _glFrustum@48              004da1de f   opengl32:OPENGL32.dll
 0001:000d91e4       _glOrtho@48                004da1e4 f   opengl32:OPENGL32.dll
 0001:000d91ea       _glLoadMatrixf@4           004da1ea f   opengl32:OPENGL32.dll
 0001:000d91f0       _glClipPlane@8             004da1f0 f   opengl32:OPENGL32.dll
 0001:000d91f6       _glBlendFunc@8             004da1f6 f   opengl32:OPENGL32.dll
 0001:000d91fc       _glGetTexLevelParameteriv@16 004da1fc f   opengl32:OPENGL32.dll
 0001:000d9202       _glTexImage2D@36           004da202 f   opengl32:OPENGL32.dll
 0001:000d9208       _glPixelStorei@8           004da208 f   opengl32:OPENGL32.dll
 0001:000d920e       _glPolygonOffset@8         004da20e f   opengl32:OPENGL32.dll
 0001:000d9214       _glPushMatrix@0            004da214 f   opengl32:OPENGL32.dll
 0001:000d921a       _glPopMatrix@0             004da21a f   opengl32:OPENGL32.dll
 0001:000d9220       _glCallList@4              004da220 f   opengl32:OPENGL32.dll
 0001:000d9226       _glPopName@0               004da226 f   opengl32:OPENGL32.dll
 0001:000d922c       _glLoadName@4              004da22c f   opengl32:OPENGL32.dll
 0001:000d9232       _glEnd@0                   004da232 f   opengl32:OPENGL32.dll
 0001:000d9238       _glVertex3fv@4             004da238 f   opengl32:OPENGL32.dll
 0001:000d923e       _glBegin@4                 004da23e f   opengl32:OPENGL32.dll
 0001:000d9244       _glPushName@4              004da244 f   opengl32:OPENGL32.dll
 0001:000d924a       _glTexCoord2fv@4           004da24a f   opengl32:OPENGL32.dll
 0001:000d9250       _glNormal3fv@4             004da250 f   opengl32:OPENGL32.dll
 0001:000d9256       _glColor4fv@4              004da256 f   opengl32:OPENGL32.dll
 0001:000d925c       _glColor4f@16              004da25c f   opengl32:OPENGL32.dll
 0001:000d9262       _glPopAttrib@0             004da262 f   opengl32:OPENGL32.dll
 0001:000d9268       _glPolygonMode@8           004da268 f   opengl32:OPENGL32.dll
 0001:000d926e       _glPushAttrib@4            004da26e f   opengl32:OPENGL32.dll
 0001:000d9274       _glLineWidth@4             004da274 f   opengl32:OPENGL32.dll
 0001:000d927a       _glPopClientAttrib@0       004da27a f   opengl32:OPENGL32.dll
 0001:000d9280       _glDrawArrays@12           004da280 f   opengl32:OPENGL32.dll
 0001:000d9286       _glVertexPointer@16        004da286 f   opengl32:OPENGL32.dll
 0001:000d928c       _glTexCoordPointer@16      004da28c f   opengl32:OPENGL32.dll
 0001:000d9292       _glNormalPointer@12        004da292 f   opengl32:OPENGL32.dll
 0001:000d9298       _glColorPointer@16         004da298 f   opengl32:OPENGL32.dll
 0001:000d929e       _glEnableClientState@4     004da29e f   opengl32:OPENGL32.dll
 0001:000d92a4       _glPushClientAttrib@4      004da2a4 f   opengl32:OPENGL32.dll
 0001:000d92aa       _glDrawElements@16         004da2aa f   opengl32:OPENGL32.dll
 0001:000d92b0       _glDisableClientState@4    004da2b0 f   opengl32:OPENGL32.dll
 0001:000d92b6       _glArrayElement@4          004da2b6 f   opengl32:OPENGL32.dll
 0001:000d92bc       _glDeleteLists@8           004da2bc f   opengl32:OPENGL32.dll
 0001:000d92c2       _glEndList@0               004da2c2 f   opengl32:OPENGL32.dll
 0001:000d92c8       _glNewList@8               004da2c8 f   opengl32:OPENGL32.dll
 0001:000d92ce       _glGenLists@4              004da2ce f   opengl32:OPENGL32.dll
 0001:000d92d4       _glTranslatef@12           004da2d4 f   opengl32:OPENGL32.dll
 0001:000d92da       _glutInit@8                004da2da f   glut32:glut32.dll
 0001:000d92e0       _glutCreateWindow@4        004da2e0 f   glut32:glut32.dll
 0001:000d92e6       _InterlockedIncrement@4    004da2e6 f   kernel32:KERNEL32.dll
 0001:000d92ec       _InterlockedDecrement@4    004da2ec f   kernel32:KERNEL32.dll
 0001:000d92f2       _EnterCriticalSection@4    004da2f2 f   kernel32:KERNEL32.dll
 0001:000d92f8       _LeaveCriticalSection@4    004da2f8 f   kernel32:KERNEL32.dll
 0001:000d92fe       _DeleteCriticalSection@4   004da2fe f   kernel32:KERNEL32.dll
 0001:000d9304       _Sleep@4                   004da304 f   kernel32:KERNEL32.dll
 0001:000d930a       _InterlockedExchange@8     004da30a f   kernel32:KERNEL32.dll
 0001:000d9310       _EncodePointer@4           004da310 f   kernel32:KERNEL32.dll
 0001:000d9316       _DecodePointer@4           004da316 f   kernel32:KERNEL32.dll
 0001:000d931c       _ExitProcess@4             004da31c f   kernel32:KERNEL32.dll
 0001:000d9322       _GetModuleHandleExW@12     004da322 f   kernel32:KERNEL32.dll
 0001:000d9328       _AreFileApisANSI@0         004da328 f   kernel32:KERNEL32.dll
 0001:000d932e       _MultiByteToWideChar@24    004da32e f   kernel32:KERNEL32.dll
 0001:000d9334       _RtlUnwind@16              004da334 f   kernel32:KERNEL32.dll
 0001:000d933a       _IsDebuggerPresent@0       004da33a f   kernel32:KERNEL32.dll
 0001:000d9340       _IsProcessorFeaturePresent@4 004da340 f   kernel32:KERNEL32.dll
 0001:000d9346       _FindFirstFileExA@24       004da346 f   kernel32:KERNEL32.dll
 0001:000d934c       _SystemTimeToTzSpecificLocalTime@12 004da34c f   kernel32:KERNEL32.dll
 0001:000d9352       _FileTimeToSystemTime@8    004da352 f   kernel32:KERNEL32.dll
 0001:000d9358       _RaiseException@16         004da358 f   kernel32:KERNEL32.dll
 0001:000d935e       _GetCommandLineA@0         004da35e f   kernel32:KERNEL32.dll
 0001:000d9364       _ReadFile@20               004da364 f   kernel32:KERNEL32.dll
 0001:000d936a       _GetDriveTypeW@4           004da36a f   kernel32:KERNEL32.dll
 0001:000d9370       _GetFullPathNameA@16       004da370 f   kernel32:KERNEL32.dll
 0001:000d9376       _InitializeCriticalSectionAndSpinCount@8 004da376 f   kernel32:KERNEL32.dll
 0001:000d937c       _FatalAppExitA@8           004da37c f   kernel32:KERNEL32.dll
 0001:000d9382       _GetModuleFileNameW@12     004da382 f   kernel32:KERNEL32.dll
 0001:000d9388       _UnhandledExceptionFilter@4 004da388 f   kernel32:KERNEL32.dll
 0001:000d938e       _SetUnhandledExceptionFilter@4 004da38e f   kernel32:KERNEL32.dll
 0001:000d9394       _SetLastError@4            004da394 f   kernel32:KERNEL32.dll
 0001:000d939a       _GetCurrentProcess@0       004da39a f   kernel32:KERNEL32.dll
 0001:000d93a0       _TerminateProcess@8        004da3a0 f   kernel32:KERNEL32.dll
 0001:000d93a6       _TlsAlloc@0                004da3a6 f   kernel32:KERNEL32.dll
 0001:000d93ac       _TlsGetValue@4             004da3ac f   kernel32:KERNEL32.dll
 0001:000d93b2       _TlsSetValue@8             004da3b2 f   kernel32:KERNEL32.dll
 0001:000d93b8       _TlsFree@4                 004da3b8 f   kernel32:KERNEL32.dll
 0001:000d93be       _GetStartupInfoW@4         004da3be f   kernel32:KERNEL32.dll
 0001:000d93c4       _GetModuleHandleW@4        004da3c4 f   kernel32:KERNEL32.dll
 0001:000d93ca       _CreateSemaphoreW@16       004da3ca f   kernel32:KERNEL32.dll
 0001:000d93d0       _HeapValidate@12           004da3d0 f   kernel32:KERNEL32.dll
 0001:000d93d6       _GetSystemInfo@4           004da3d6 f   kernel32:KERNEL32.dll
 0001:000d93dc       _GetStdHandle@4            004da3dc f   kernel32:KERNEL32.dll
 0001:000d93e2       _GetFileType@4             004da3e2 f   kernel32:KERNEL32.dll
 0001:000d93e8       _LoadLibraryExW@12         004da3e8 f   kernel32:KERNEL32.dll
 0001:000d93ee       _lstrlenA@4                004da3ee f   kernel32:KERNEL32.dll
 0001:000d93f4       _LoadLibraryW@4            004da3f4 f   kernel32:KERNEL32.dll
 0001:000d93fa       _WideCharToMultiByte@32    004da3fa f   kernel32:KERNEL32.dll
 0001:000d9400       _FlushFileBuffers@4        004da400 f   kernel32:KERNEL32.dll
 0001:000d9406       _WriteFile@20              004da406 f   kernel32:KERNEL32.dll
 0001:000d940c       _GetConsoleCP@0            004da40c f   kernel32:KERNEL32.dll
 0001:000d9412       _GetConsoleMode@8          004da412 f   kernel32:KERNEL32.dll
 0001:000d9418       _SetConsoleCtrlHandler@8   004da418 f   kernel32:KERNEL32.dll
 0001:000d941e       _IsValidCodePage@4         004da41e f   kernel32:KERNEL32.dll
 0001:000d9424       _GetACP@0                  004da424 f   kernel32:KERNEL32.dll
 0001:000d942a       _GetOEMCP@0                004da42a f   kernel32:KERNEL32.dll
 0001:000d9430       _GetCPInfo@8               004da430 f   kernel32:KERNEL32.dll
 0001:000d9436       _GetCurrentThread@0        004da436 f   kernel32:KERNEL32.dll
 0001:000d943c       _GetCurrentThreadId@0      004da43c f   kernel32:KERNEL32.dll
 0001:000d9442       _GetProcessHeap@0          004da442 f   kernel32:KERNEL32.dll
 0001:000d9448       _GetModuleFileNameA@12     004da448 f   kernel32:KERNEL32.dll
 0001:000d944e       _GetCurrentProcessId@0     004da44e f   kernel32:KERNEL32.dll
 0001:000d9454       _GetSystemTimeAsFileTime@4 004da454 f   kernel32:KERNEL32.dll
 0001:000d945a       _GetEnvironmentStringsW@0  004da45a f   kernel32:KERNEL32.dll
 0001:000d9460       _FreeEnvironmentStringsW@4 004da460 f   kernel32:KERNEL32.dll
 0001:000d9466       _ReadConsoleW@20           004da466 f   kernel32:KERNEL32.dll
 0001:000d946c       _SetFilePointer@16         004da46c f   kernel32:KERNEL32.dll
 0001:000d9472       _SetFilePointerEx@20       004da472 f   kernel32:KERNEL32.dll
 0001:000d9478       _SetStdHandle@8            004da478 f   kernel32:KERNEL32.dll
 0001:000d947e       _FileTimeToLocalFileTime@8 004da47e f   kernel32:KERNEL32.dll
 0001:000d9484       _FindFirstFileExW@24       004da484 f   kernel32:KERNEL32.dll
 0001:000d948a       _SetCurrentDirectoryW@4    004da48a f   kernel32:KERNEL32.dll
 0001:000d9490       _GetCurrentDirectoryW@8    004da490 f   kernel32:KERNEL32.dll
 0001:000d9496       _OutputDebugStringW@4      004da496 f   kernel32:KERNEL32.dll
 0001:000d949c       _WaitForSingleObjectEx@12  004da49c f   kernel32:KERNEL32.dll
 0001:000d94a2       _CreateThread@24           004da4a2 f   kernel32:KERNEL32.dll
 0001:000d94a8       _OutputDebugStringA@4      004da4a8 f   kernel32:KERNEL32.dll
 0001:000d94ae       _WriteConsoleW@20          004da4ae f   kernel32:KERNEL32.dll
 0001:000d94b4       _HeapFree@12               004da4b4 f   kernel32:KERNEL32.dll
 0001:000d94ba       _HeapReAlloc@16            004da4ba f   kernel32:KERNEL32.dll
 0001:000d94c0       _HeapSize@12               004da4c0 f   kernel32:KERNEL32.dll
 0001:000d94c6       _HeapQueryInformation@20   004da4c6 f   kernel32:KERNEL32.dll
 0001:000d94cc       _HeapAlloc@12              004da4cc f   kernel32:KERNEL32.dll
 0001:000d94d2       _VirtualQuery@12           004da4d2 f   kernel32:KERNEL32.dll
 0001:000d94d8       _GetDateFormatW@24         004da4d8 f   kernel32:KERNEL32.dll
 0001:000d94de       _GetTimeFormatW@24         004da4de f   kernel32:KERNEL32.dll
 0001:000d94e4       _CompareStringW@24         004da4e4 f   kernel32:KERNEL32.dll
 0001:000d94ea       _LCMapStringW@24           004da4ea f   kernel32:KERNEL32.dll
 0001:000d94f0       _GetLocaleInfoW@16         004da4f0 f   kernel32:KERNEL32.dll
 0001:000d94f6       _IsValidLocale@8           004da4f6 f   kernel32:KERNEL32.dll
 0001:000d94fc       _GetUserDefaultLCID@0      004da4fc f   kernel32:KERNEL32.dll
 0001:000d9502       _EnumSystemLocalesW@8      004da502 f   kernel32:KERNEL32.dll
 0001:000d9508       _GetStringTypeW@16         004da508 f   kernel32:KERNEL32.dll
 0001:000d950e       _SetEnvironmentVariableA@8 004da50e f   kernel32:KERNEL32.dll
 0001:000d9514       _GetTimeZoneInformation@4  004da514 f   kernel32:KERNEL32.dll
 0001:000d951a       _GetFileInformationByHandle@8 004da51a f   kernel32:KERNEL32.dll
 0001:000d9520       _PeekNamedPipe@24          004da520 f   kernel32:KERNEL32.dll
 0001:000d9526       _GetFullPathNameW@16       004da526 f   kernel32:KERNEL32.dll
 0001:000d952c       _CreateFileW@28            004da52c f   kernel32:KERNEL32.dll
 0001:000d9532       _WaitForSingleObject@8     004da532 f   kernel32:KERNEL32.dll
 0001:000d9538       _GetExitCodeProcess@8      004da538 f   kernel32:KERNEL32.dll
 0001:000d953e       _CreateProcessA@40         004da53e f   kernel32:KERNEL32.dll
 0001:000d9544       _GetFileAttributesExW@12   004da544 f   kernel32:KERNEL32.dll
 0001:000d954a       _SetEndOfFile@4            004da54a f   kernel32:KERNEL32.dll
 0001:000d9550       _strdup                    004da550 f   LIBCMTD:strdup.obj
 0001:000d9550       __strdup                   004da550 f   LIBCMTD:strdup.obj
 0001:000d9570       __strdup_dbg               004da570 f   LIBCMTD:strdup.obj
 0002:00000000       __imp__SetEndOfFile@4      004de000     kernel32:KERNEL32.dll
 0002:00000004       __imp__GetFileAttributesExW@12 004de004     kernel32:KERNEL32.dll
 0002:00000008       __imp__CreateProcessA@40   004de008     kernel32:KERNEL32.dll
 0002:0000000c       __imp__GetExitCodeProcess@8 004de00c     kernel32:KERNEL32.dll
 0002:00000010       __imp__WaitForSingleObject@8 004de010     kernel32:KERNEL32.dll
 0002:00000014       __imp__CreateFileW@28      004de014     kernel32:KERNEL32.dll
 0002:00000018       __imp__GetFullPathNameW@16 004de018     kernel32:KERNEL32.dll
 0002:0000001c       __imp__PeekNamedPipe@24    004de01c     kernel32:KERNEL32.dll
 0002:00000020       __imp__GetFileInformationByHandle@8 004de020     kernel32:KERNEL32.dll
 0002:00000024       __imp__GetTimeZoneInformation@4 004de024     kernel32:KERNEL32.dll
 0002:00000028       __imp__SetEnvironmentVariableA@8 004de028     kernel32:KERNEL32.dll
 0002:0000002c       __imp__GetStringTypeW@16   004de02c     kernel32:KERNEL32.dll
 0002:00000030       __imp__EnumSystemLocalesW@8 004de030     kernel32:KERNEL32.dll
 0002:00000034       __imp__GetUserDefaultLCID@0 004de034     kernel32:KERNEL32.dll
 0002:00000038       __imp__IsValidLocale@8     004de038     kernel32:KERNEL32.dll
 0002:0000003c       __imp__GetLocaleInfoW@16   004de03c     kernel32:KERNEL32.dll
 0002:00000040       __imp__LCMapStringW@24     004de040     kernel32:KERNEL32.dll
 0002:00000044       __imp__CompareStringW@24   004de044     kernel32:KERNEL32.dll
 0002:00000048       __imp__GetTimeFormatW@24   004de048     kernel32:KERNEL32.dll
 0002:0000004c       __imp__GetDateFormatW@24   004de04c     kernel32:KERNEL32.dll
 0002:00000050       __imp__VirtualQuery@12     004de050     kernel32:KERNEL32.dll
 0002:00000054       __imp__HeapAlloc@12        004de054     kernel32:KERNEL32.dll
 0002:00000058       __imp__HeapQueryInformation@20 004de058     kernel32:KERNEL32.dll
 0002:0000005c       __imp__HeapSize@12         004de05c     kernel32:KERNEL32.dll
 0002:00000060       __imp__HeapReAlloc@16      004de060     kernel32:KERNEL32.dll
 0002:00000064       __imp__HeapFree@12         004de064     kernel32:KERNEL32.dll
 0002:00000068       __imp__WriteConsoleW@20    004de068     kernel32:KERNEL32.dll
 0002:0000006c       __imp__OutputDebugStringA@4 004de06c     kernel32:KERNEL32.dll
 0002:00000070       __imp__GetLastError@0      004de070     kernel32:KERNEL32.dll
 0002:00000074       __imp__QueryPerformanceCounter@4 004de074     kernel32:KERNEL32.dll
 0002:00000078       __imp__QueryPerformanceFrequency@4 004de078     kernel32:KERNEL32.dll
 0002:0000007c       __imp__FreeLibrary@4       004de07c     kernel32:KERNEL32.dll
 0002:00000080       __imp__GetProcAddress@8    004de080     kernel32:KERNEL32.dll
 0002:00000084       __imp__LoadLibraryA@4      004de084     kernel32:KERNEL32.dll
 0002:00000088       __imp__LocalFree@4         004de088     kernel32:KERNEL32.dll
 0002:0000008c       __imp__FormatMessageA@28   004de08c     kernel32:KERNEL32.dll
 0002:00000090       __imp__CloseHandle@4       004de090     kernel32:KERNEL32.dll
 0002:00000094       __imp__UnmapViewOfFile@4   004de094     kernel32:KERNEL32.dll
 0002:00000098       __imp__MapViewOfFile@20    004de098     kernel32:KERNEL32.dll
 0002:0000009c       __imp__CreateFileMappingA@24 004de09c     kernel32:KERNEL32.dll
 0002:000000a0       __imp__GetFileSize@8       004de0a0     kernel32:KERNEL32.dll
 0002:000000a4       __imp__CreateFileA@28      004de0a4     kernel32:KERNEL32.dll
 0002:000000a8       __imp__FindFirstFileA@8    004de0a8     kernel32:KERNEL32.dll
 0002:000000ac       __imp__FindNextFileA@8     004de0ac     kernel32:KERNEL32.dll
 0002:000000b0       __imp__FindClose@4         004de0b0     kernel32:KERNEL32.dll
 0002:000000b4       __imp__CreateThread@24     004de0b4     kernel32:KERNEL32.dll
 0002:000000b8       __imp__WaitForSingleObjectEx@12 004de0b8     kernel32:KERNEL32.dll
 0002:000000bc       __imp__FileTimeToLocalFileTime@8 004de0bc     kernel32:KERNEL32.dll
 0002:000000c0       __imp__SetStdHandle@8      004de0c0     kernel32:KERNEL32.dll
 0002:000000c4       __imp__SetFilePointerEx@20 004de0c4     kernel32:KERNEL32.dll
 0002:000000c8       __imp__SetFilePointer@16   004de0c8     kernel32:KERNEL32.dll
 0002:000000cc       __imp__ReadConsoleW@20     004de0cc     kernel32:KERNEL32.dll
 0002:000000d0       __imp__FreeEnvironmentStringsW@4 004de0d0     kernel32:KERNEL32.dll
 0002:000000d4       __imp__GetEnvironmentStringsW@0 004de0d4     kernel32:KERNEL32.dll
 0002:000000d8       __imp__GetSystemTimeAsFileTime@4 004de0d8     kernel32:KERNEL32.dll
 0002:000000dc       __imp__GetCurrentProcessId@0 004de0dc     kernel32:KERNEL32.dll
 0002:000000e0       __imp__GetModuleFileNameA@12 004de0e0     kernel32:KERNEL32.dll
 0002:000000e4       __imp__GetProcessHeap@0    004de0e4     kernel32:KERNEL32.dll
 0002:000000e8       __imp__GetCurrentThreadId@0 004de0e8     kernel32:KERNEL32.dll
 0002:000000ec       __imp__GetCurrentThread@0  004de0ec     kernel32:KERNEL32.dll
 0002:000000f0       __imp__GetCPInfo@8         004de0f0     kernel32:KERNEL32.dll
 0002:000000f4       __imp__GetOEMCP@0          004de0f4     kernel32:KERNEL32.dll
 0002:000000f8       __imp__GetACP@0            004de0f8     kernel32:KERNEL32.dll
 0002:000000fc       __imp__IsValidCodePage@4   004de0fc     kernel32:KERNEL32.dll
 0002:00000100       __imp__SetConsoleCtrlHandler@8 004de100     kernel32:KERNEL32.dll
 0002:00000104       __imp__GetConsoleMode@8    004de104     kernel32:KERNEL32.dll
 0002:00000108       __imp__GetConsoleCP@0      004de108     kernel32:KERNEL32.dll
 0002:0000010c       __imp__WriteFile@20        004de10c     kernel32:KERNEL32.dll
 0002:00000110       __imp__FlushFileBuffers@4  004de110     kernel32:KERNEL32.dll
 0002:00000114       __imp__WideCharToMultiByte@32 004de114     kernel32:KERNEL32.dll
 0002:00000118       __imp__LoadLibraryW@4      004de118     kernel32:KERNEL32.dll
 0002:0000011c       __imp__lstrlenA@4          004de11c     kernel32:KERNEL32.dll
 0002:00000120       __imp__LoadLibraryExW@12   004de120     kernel32:KERNEL32.dll
 0002:00000124       __imp__GetFileType@4       004de124     kernel32:KERNEL32.dll
 0002:00000128       __imp__GetStdHandle@4      004de128     kernel32:KERNEL32.dll
 0002:0000012c       __imp__GetSystemInfo@4     004de12c     kernel32:KERNEL32.dll
 0002:00000130       __imp__HeapValidate@12     004de130     kernel32:KERNEL32.dll
 0002:00000134       __imp__CreateSemaphoreW@16 004de134     kernel32:KERNEL32.dll
 0002:00000138       __imp__GetModuleHandleW@4  004de138     kernel32:KERNEL32.dll
 0002:0000013c       __imp__GetStartupInfoW@4   004de13c     kernel32:KERNEL32.dll
 0002:00000140       __imp__TlsFree@4           004de140     kernel32:KERNEL32.dll
 0002:00000144       __imp__TlsSetValue@8       004de144     kernel32:KERNEL32.dll
 0002:00000148       __imp__TlsGetValue@4       004de148     kernel32:KERNEL32.dll
 0002:0000014c       __imp__TlsAlloc@0          004de14c     kernel32:KERNEL32.dll
 0002:00000150       __imp__TerminateProcess@8  004de150     kernel32:KERNEL32.dll
 0002:00000154       __imp__GetCurrentProcess@0 004de154     kernel32:KERNEL32.dll
 0002:00000158       __imp__SetLastError@4      004de158     kernel32:KERNEL32.dll
 0002:0000015c       __imp__SetUnhandledExceptionFilter@4 004de15c     kernel32:KERNEL32.dll
 0002:00000160       __imp__UnhandledExceptionFilter@4 004de160     kernel32:KERNEL32.dll
 0002:00000164       __imp__GetModuleFileNameW@12 004de164     kernel32:KERNEL32.dll
 0002:00000168       __imp__FatalAppExitA@8     004de168     kernel32:KERNEL32.dll
 0002:0000016c       __imp__FindFirstFileExW@24 004de16c     kernel32:KERNEL32.dll
 0002:00000170       __imp__InitializeCriticalSectionAndSpinCount@8 004de170     kernel32:KERNEL32.dll
 0002:00000174       __imp__GetFullPathNameA@16 004de174     kernel32:KERNEL32.dll
 0002:00000178       __imp__GetDriveTypeW@4     004de178     kernel32:KERNEL32.dll
 0002:0000017c       __imp__ReadFile@20         004de17c     kernel32:KERNEL32.dll
 0002:00000180       __imp__GetCommandLineA@0   004de180     kernel32:KERNEL32.dll
 0002:00000184       __imp__RaiseException@16   004de184     kernel32:KERNEL32.dll
 0002:00000188       __imp__FileTimeToSystemTime@8 004de188     kernel32:KERNEL32.dll
 0002:0000018c       __imp__SystemTimeToTzSpecificLocalTime@12 004de18c     kernel32:KERNEL32.dll
 0002:00000190       __imp__FindFirstFileExA@24 004de190     kernel32:KERNEL32.dll
 0002:00000194       __imp__IsProcessorFeaturePresent@4 004de194     kernel32:KERNEL32.dll
 0002:00000198       __imp__IsDebuggerPresent@0 004de198     kernel32:KERNEL32.dll
 0002:0000019c       __imp__RtlUnwind@16        004de19c     kernel32:KERNEL32.dll
 0002:000001a0       __imp__MultiByteToWideChar@24 004de1a0     kernel32:KERNEL32.dll
 0002:000001a4       __imp__AreFileApisANSI@0   004de1a4     kernel32:KERNEL32.dll
 0002:000001a8       __imp__GetModuleHandleExW@12 004de1a8     kernel32:KERNEL32.dll
 0002:000001ac       __imp__ExitProcess@4       004de1ac     kernel32:KERNEL32.dll
 0002:000001b0       __imp__DecodePointer@4     004de1b0     kernel32:KERNEL32.dll
 0002:000001b4       __imp__EncodePointer@4     004de1b4     kernel32:KERNEL32.dll
 0002:000001b8       __imp__OutputDebugStringW@4 004de1b8     kernel32:KERNEL32.dll
 0002:000001bc       __imp__GetCurrentDirectoryW@8 004de1bc     kernel32:KERNEL32.dll
 0002:000001c0       __imp__SetCurrentDirectoryW@4 004de1c0     kernel32:KERNEL32.dll
 0002:000001c4       __imp__InterlockedIncrement@4 004de1c4     kernel32:KERNEL32.dll
 0002:000001c8       __imp__InterlockedDecrement@4 004de1c8     kernel32:KERNEL32.dll
 0002:000001cc       __imp__EnterCriticalSection@4 004de1cc     kernel32:KERNEL32.dll
 0002:000001d0       __imp__LeaveCriticalSection@4 004de1d0     kernel32:KERNEL32.dll
 0002:000001d4       __imp__DeleteCriticalSection@4 004de1d4     kernel32:KERNEL32.dll
 0002:000001d8       __imp__Sleep@4             004de1d8     kernel32:KERNEL32.dll
 0002:000001dc       __imp__InterlockedExchange@8 004de1dc     kernel32:KERNEL32.dll
 0002:000001e0       \177KERNEL32_NULL_THUNK_DATA 004de1e0     kernel32:KERNEL32.dll
 0002:000001e4       __imp__glTranslatef@12     004de1e4     opengl32:OPENGL32.dll
 0002:000001e8       __imp__glGenLists@4        004de1e8     opengl32:OPENGL32.dll
 0002:000001ec       __imp__glNewList@8         004de1ec     opengl32:OPENGL32.dll
 0002:000001f0       __imp__glEndList@0         004de1f0     opengl32:OPENGL32.dll
 0002:000001f4       __imp__glDeleteLists@8     004de1f4     opengl32:OPENGL32.dll
 0002:000001f8       __imp__glArrayElement@4    004de1f8     opengl32:OPENGL32.dll
 0002:000001fc       __imp__glDisableClientState@4 004de1fc     opengl32:OPENGL32.dll
 0002:00000200       __imp__glDrawElements@16   004de200     opengl32:OPENGL32.dll
 0002:00000204       __imp__glPushClientAttrib@4 004de204     opengl32:OPENGL32.dll
 0002:00000208       __imp__glEnableClientState@4 004de208     opengl32:OPENGL32.dll
 0002:0000020c       __imp__glColorPointer@16   004de20c     opengl32:OPENGL32.dll
 0002:00000210       __imp__glNormalPointer@12  004de210     opengl32:OPENGL32.dll
 0002:00000214       __imp__glTexCoordPointer@16 004de214     opengl32:OPENGL32.dll
 0002:00000218       __imp__glVertexPointer@16  004de218     opengl32:OPENGL32.dll
 0002:0000021c       __imp__glDrawArrays@12     004de21c     opengl32:OPENGL32.dll
 0002:00000220       __imp__glPopClientAttrib@0 004de220     opengl32:OPENGL32.dll
 0002:00000224       __imp__glLineWidth@4       004de224     opengl32:OPENGL32.dll
 0002:00000228       __imp__glPolygonMode@8     004de228     opengl32:OPENGL32.dll
 0002:0000022c       __imp__glPopAttrib@0       004de22c     opengl32:OPENGL32.dll
 0002:00000230       __imp__glColor4f@16        004de230     opengl32:OPENGL32.dll
 0002:00000234       __imp__glColor4fv@4        004de234     opengl32:OPENGL32.dll
 0002:00000238       __imp__glNormal3fv@4       004de238     opengl32:OPENGL32.dll
 0002:0000023c       __imp__glTexCoord2fv@4     004de23c     opengl32:OPENGL32.dll
 0002:00000240       __imp__glPushName@4        004de240     opengl32:OPENGL32.dll
 0002:00000244       __imp__glBegin@4           004de244     opengl32:OPENGL32.dll
 0002:00000248       __imp__glVertex3fv@4       004de248     opengl32:OPENGL32.dll
 0002:0000024c       __imp__glEnd@0             004de24c     opengl32:OPENGL32.dll
 0002:00000250       __imp__glLoadName@4        004de250     opengl32:OPENGL32.dll
 0002:00000254       __imp__glPopName@0         004de254     opengl32:OPENGL32.dll
 0002:00000258       __imp__glCallList@4        004de258     opengl32:OPENGL32.dll
 0002:0000025c       __imp__glPopMatrix@0       004de25c     opengl32:OPENGL32.dll
 0002:00000260       __imp__glPushMatrix@0      004de260     opengl32:OPENGL32.dll
 0002:00000264       __imp__glPolygonOffset@8   004de264     opengl32:OPENGL32.dll
 0002:00000268       __imp__glPixelStorei@8     004de268     opengl32:OPENGL32.dll
 0002:0000026c       __imp__glTexImage2D@36     004de26c     opengl32:OPENGL32.dll
 0002:00000270       __imp__glGetTexLevelParameteriv@16 004de270     opengl32:OPENGL32.dll
 0002:00000274       __imp__glBlendFunc@8       004de274     opengl32:OPENGL32.dll
 0002:00000278       __imp__glClipPlane@8       004de278     opengl32:OPENGL32.dll
 0002:0000027c       __imp__glLoadMatrixf@4     004de27c     opengl32:OPENGL32.dll
 0002:00000280       __imp__glOrtho@48          004de280     opengl32:OPENGL32.dll
 0002:00000284       __imp__glFrustum@48        004de284     opengl32:OPENGL32.dll
 0002:00000288       __imp__glColorMaterial@8   004de288     opengl32:OPENGL32.dll
 0002:0000028c       __imp__glMaterialf@12      004de28c     opengl32:OPENGL32.dll
 0002:00000290       __imp__glMaterialfv@12     004de290     opengl32:OPENGL32.dll
 0002:00000294       __imp__glShadeModel@4      004de294     opengl32:OPENGL32.dll
 0002:00000298       __imp__glAlphaFunc@8       004de298     opengl32:OPENGL32.dll
 0002:0000029c       __imp__glGenTextures@8     004de29c     opengl32:OPENGL32.dll
 0002:000002a0       __imp__glDeleteTextures@8  004de2a0     opengl32:OPENGL32.dll
 0002:000002a4       __imp__glTexEnvi@12        004de2a4     opengl32:OPENGL32.dll
 0002:000002a8       __imp__glTexParameteri@12  004de2a8     opengl32:OPENGL32.dll
 0002:000002ac       __imp__glBindTexture@8     004de2ac     opengl32:OPENGL32.dll
 0002:000002b0       __imp__glGetString@4       004de2b0     opengl32:OPENGL32.dll
 0002:000002b4       __imp__glGetIntegerv@8     004de2b4     opengl32:OPENGL32.dll
 0002:000002b8       __imp__glMatrixMode@4      004de2b8     opengl32:OPENGL32.dll
 0002:000002bc       __imp__glLoadIdentity@0    004de2bc     opengl32:OPENGL32.dll
 0002:000002c0       __imp__glMultMatrixf@4     004de2c0     opengl32:OPENGL32.dll
 0002:000002c4       __imp__wglGetCurrentContext@0 004de2c4     opengl32:OPENGL32.dll
 0002:000002c8       __imp__glEnable@4          004de2c8     opengl32:OPENGL32.dll
 0002:000002cc       __imp__glLightfv@12        004de2cc     opengl32:OPENGL32.dll
 0002:000002d0       __imp__glLightf@12         004de2d0     opengl32:OPENGL32.dll
 0002:000002d4       __imp__glDisable@4         004de2d4     opengl32:OPENGL32.dll
 0002:000002d8       __imp__glPushAttrib@4      004de2d8     opengl32:OPENGL32.dll
 0002:000002dc       \177OPENGL32_NULL_THUNK_DATA 004de2dc     opengl32:OPENGL32.dll
 0002:000002e0       __imp__timeGetTime@0       004de2e0     winmm:WINMM.dll
 0002:000002e4       \177WINMM_NULL_THUNK_DATA  004de2e4     winmm:WINMM.dll
 0002:000002e8       __imp__ssggraph            004de2e8     client:client.dll
 0002:000002ec       __imp_?GfImgWritePng@@YAHPAEPBDHH@Z 004de2ec     client:client.dll
 0002:000002f0       __imp_?GfImgReadPng@@YAPAEPBDPAH1M@Z 004de2f0     client:client.dll
 0002:000002f4       \177client_NULL_THUNK_DATA 004de2f4     client:client.dll
 0002:000002f8       __imp__glutInit@8          004de2f8     glut32:glut32.dll
 0002:000002fc       __imp__glutCreateWindow@4  004de2fc     glut32:glut32.dll
 0002:00000300       \177glut32_NULL_THUNK_DATA 004de300     glut32:glut32.dll
 0002:00000304       __imp_?RtTrackGetWidth@@YAMPAUtrackSeg@@M@Z 004de304     robottools:robottools.dll
 0002:00000308       __imp_?RtTrackHeightL@@YAMPAUtTrkLocPos@@@Z 004de308     robottools:robottools.dll
 0002:0000030c       __imp_?RtTrackHeightG@@YAMPAUtrackSeg@@MM@Z 004de30c     robottools:robottools.dll
 0002:00000310       __imp_?RtTrackSideNormalG@@YAXPAUtrackSeg@@MMHPAUt3Dd@@@Z 004de310     robottools:robottools.dll
 0002:00000314       __imp_?RtTrackLocal2Global@@YAXPAUtTrkLocPos@@PAM1H@Z 004de314     robottools:robottools.dll
 0002:00000318       \177robottools_NULL_THUNK_DATA 004de318     robottools:robottools.dll
 0002:0000031c       __imp_?GfParmReadFile@@YAPAXPBDH@Z 004de31c     tgf:tgf.dll
 0002:00000320       __imp_?GfParmListSeekNext@@YAHPAXPBD@Z 004de320     tgf:tgf.dll
 0002:00000324       __imp_?_tgf_win_strdup@@YAPADPBD@Z 004de324     tgf:tgf.dll
 0002:00000328       __imp_?GetLibDir@@YAPADXZ  004de328     tgf:tgf.dll
 0002:0000032c       __imp_?GfParmGetStr@@YAPBDPAXPBD11@Z 004de32c     tgf:tgf.dll
 0002:00000330       __imp_?_tgf_win_free@@YAXPAX@Z 004de330     tgf:tgf.dll
 0002:00000334       __imp_?_tgf_win_realloc@@YAPAXPAXI@Z 004de334     tgf:tgf.dll
 0002:00000338       __imp_?_tgf_win_calloc@@YAPAXII@Z 004de338     tgf:tgf.dll
 0002:0000033c       __imp_?_tgf_win_malloc@@YAPAXI@Z 004de33c     tgf:tgf.dll
 0002:00000340       __imp_?GfParmGetCurStr@@YAPBDPAXPBD11@Z 004de340     tgf:tgf.dll
 0002:00000344       __imp_?GfParmGetCurNum@@YAMPAXPBD11M@Z 004de344     tgf:tgf.dll
 0002:00000348       __imp_?GfParmGetEltNb@@YAHPAXPBD@Z 004de348     tgf:tgf.dll
 0002:0000034c       __imp_?GfParmGetNum@@YAMPAXPBD11M@Z 004de34c     tgf:tgf.dll
 0002:00000350       __imp_?GfParmListSeekFirst@@YAHPAXPBD@Z 004de350     tgf:tgf.dll
 0002:00000354       __imp_?GfParmListGetCurEltName@@YAPADPAXPBD@Z 004de354     tgf:tgf.dll
 0002:00000358       __imp_?GfOs@@3UtGfOs@@A    004de358     tgf:tgf.dll
 0002:0000035c       __imp_?GfModLoad@@YAHIPADPAPAUModList@@@Z 004de35c     tgf:tgf.dll
 0002:00000360       \177tgf_NULL_THUNK_DATA    004de360     tgf:tgf.dll
 0002:00000364       ___xc_a                    004de364     LIBCMTD:crt0init.obj
 0002:000003ec       ___xc_z                    004de3ec     LIBCMTD:crt0init.obj
 0002:000003f0       ___xi_a                    004de3f0     LIBCMTD:crt0init.obj
 0002:0000040c       ___xi_z                    004de40c     LIBCMTD:crt0init.obj
 0002:00000410       ___xp_a                    004de410     LIBCMTD:crt0init.obj
 0002:00000420       ___xp_z                    004de420     LIBCMTD:crt0init.obj
 0002:00000424       ___xt_a                    004de424     LIBCMTD:crt0init.obj
 0002:00000428       ___xt_z                    004de428     LIBCMTD:crt0init.obj
 0002:00000974       __real@00000000            004de974     easymesh.obj
 0002:00000978       __real@0000000000000000    004de978     easymesh.obj
 0002:00000980       __real@3fd276c8b4395810    004de980     easymesh.obj
 0002:00000988       __real@3fe0000000000000    004de988     easymesh.obj
 0002:00000990       __real@3fe6666666666666    004de990     easymesh.obj
 0002:00000998       __real@3ff6666666666666    004de998     easymesh.obj
 0002:000009a0       __real@4000000000000000    004de9a0     easymesh.obj
 0002:000009a8       __real@4006666666666666    004de9a8     easymesh.obj
 0002:000009b0       __real@4008000000000000    004de9b0     easymesh.obj
 0002:000009b8       __real@4024000000000000    004de9b8     easymesh.obj
 0002:000009c0       __real@41200000            004de9c0     easymesh.obj
 0002:000009c4       __real@41a00000            004de9c4     easymesh.obj
 0002:000009c8       __real@4202a05f20000000    004de9c8     easymesh.obj
 0002:000009d0       __real@42c80000            004de9d0     easymesh.obj
 0002:000009d8       __real@c202a05f20000000    004de9d8     easymesh.obj
 0002:000009e0       __xmm@80000000000000008000000000000000 004de9e0     easymesh.obj
 0002:000009f0       __xmm@80000000800000008000000080000000 004de9f0     easymesh.obj
 0002:00000c28       ??_7ssgSimpleList@@6B@     004dec28     elevation.obj
 0002:00000c60       ??_7ssgTextureArray@@6B@   004dec60     elevation.obj
 0002:00000c98       ??_7ssgSimpleStateArray@@6B@ 004dec98     elevation.obj
 0002:00000cd0       ??_7ssgLoaderOptions@@6B@  004decd0     elevation.obj
 0002:00000cfc       ??_C@_0CK@BMCFPBHM@createState?$CI?$CJ?5did?5not?5return?5sim@ 004decfc     elevation.obj
 0002:00000d2c       ??_7ssgLoaderOptionsEx@@6B@ 004ded2c     elevation.obj
 0002:00000d58       __real@40000000            004ded58     elevation.obj
 0002:00000d60       __real@406fe00000000000    004ded60     elevation.obj
 0002:00000d68       __real@c9742400            004ded68     elevation.obj
 0002:000016d8       ??_7myLoaderOptions@@6B@   004df6d8     objects.obj
 0002:00001704       __real@3f800000            004df704     objects.obj
 0002:00001708       __real@4076800000000000    004df708     objects.obj
 0002:00001710       __real@40a00000            004df710     objects.obj
 0002:00001718       __real@40e0000000000000    004df718     objects.obj
 0002:00001738       __real@3e112e0be826d695    004df738     raceline.obj
 0002:00001740       __real@3f1a36e2eb1c432d    004df740     raceline.obj
 0002:00001748       __real@3ff0000000000000    004df748     raceline.obj
 0002:00001750       __real@3ff3333333333333    004df750     raceline.obj
 0002:00001758       __real@4020000000000000    004df758     raceline.obj
 0002:00001760       __real@bfc999999999999a    004df760     raceline.obj
 0002:00001db0       __real@3e4ccccd            004dfdb0     track.obj
 0002:00001db4       __real@3e800000            004dfdb4     track.obj
 0002:00001db8       __real@3ea8f5c3            004dfdb8     track.obj
 0002:00001dbc       __real@3ecccccd            004dfdbc     track.obj
 0002:00001dc0       __real@3f000000            004dfdc0     track.obj
 0002:00001dc4       __real@3f28f5c3            004dfdc4     track.obj
 0002:00001dc8       __real@3f400000            004dfdc8     track.obj
 0002:00001dcc       __real@3f4ccccd            004dfdcc     track.obj
 0002:00001dd0       __real@3fb999999999999a    004dfdd0     track.obj
 0002:00001dd8       __real@4018000000000000    004dfdd8     track.obj
 0002:00001de0       __real@40400000            004dfde0     track.obj
 0002:00001de8       __real@4049000000000000    004dfde8     track.obj
 0002:00001df0       __real@4066800000000000    004dfdf0     track.obj
 0002:00001df8       __real@40800000            004dfdf8     track.obj
 0002:00001dfc       __real@4099999a            004dfdfc     track.obj
 0002:00001e00       __real@41266666            004dfe00     track.obj
 0002:00001e04       __real@41300000            004dfe04     track.obj
 0002:00001e08       __real@41766666            004dfe08     track.obj
 0002:00001e40       __real@47c35000            004dfe40     util.obj
 0002:00001e44       ?skipws@?$_Iosb@H@std@@2W4_Fmtflags@12@B 004dfe44     windowsspec.obj
 0002:00001e48       ?unitbuf@?$_Iosb@H@std@@2W4_Fmtflags@12@B 004dfe48     windowsspec.obj
 0002:00001e4c       ?uppercase@?$_Iosb@H@std@@2W4_Fmtflags@12@B 004dfe4c     windowsspec.obj
 0002:00001e50       ?showbase@?$_Iosb@H@std@@2W4_Fmtflags@12@B 004dfe50     windowsspec.obj
 0002:00001e54       ?showpoint@?$_Iosb@H@std@@2W4_Fmtflags@12@B 004dfe54     windowsspec.obj
 0002:00001e58       ?showpos@?$_Iosb@H@std@@2W4_Fmtflags@12@B 004dfe58     windowsspec.obj
 0002:00001e5c       ?left@?$_Iosb@H@std@@2W4_Fmtflags@12@B 004dfe5c     windowsspec.obj
 0002:00001e60       ?right@?$_Iosb@H@std@@2W4_Fmtflags@12@B 004dfe60     windowsspec.obj
 0002:00001e64       ?internal@?$_Iosb@H@std@@2W4_Fmtflags@12@B 004dfe64     windowsspec.obj
 0002:00001e68       ?dec@?$_Iosb@H@std@@2W4_Fmtflags@12@B 004dfe68     windowsspec.obj
 0002:00001e6c       ?oct@?$_Iosb@H@std@@2W4_Fmtflags@12@B 004dfe6c     windowsspec.obj
 0002:00001e70       ?hex@?$_Iosb@H@std@@2W4_Fmtflags@12@B 004dfe70     windowsspec.obj
 0002:00001e74       ?scientific@?$_Iosb@H@std@@2W4_Fmtflags@12@B 004dfe74     windowsspec.obj
 0002:00001e78       ?fixed@?$_Iosb@H@std@@2W4_Fmtflags@12@B 004dfe78     windowsspec.obj
 0002:00001e7c       ?hexfloat@?$_Iosb@H@std@@2W4_Fmtflags@12@B 004dfe7c     windowsspec.obj
 0002:00001e80       ?boolalpha@?$_Iosb@H@std@@2W4_Fmtflags@12@B 004dfe80     windowsspec.obj
 0002:00001e84       ?collate@?$_Locbase@H@std@@2HB 004dfe84     windowsspec.obj
 0002:00001e88       ?has_denorm@_Num_base@std@@2W4float_denorm_style@2@B 004dfe88     windowsspec.obj
 0002:00001e8c       ?ctype@?$_Locbase@H@std@@2HB 004dfe8c     windowsspec.obj
 0002:00001e90       ?_Stdio@?$_Iosb@H@std@@2W4_Fmtflags@12@B 004dfe90     windowsspec.obj
 0002:00001e94       ?monetary@?$_Locbase@H@std@@2HB 004dfe94     windowsspec.obj
 0002:00001e98       ?has_denorm_loss@_Num_base@std@@2_NB 004dfe98     windowsspec.obj
 0002:00001e9c       ?adjustfield@?$_Iosb@H@std@@2W4_Fmtflags@12@B 004dfe9c     windowsspec.obj
 0002:00001ea0       ?numeric@?$_Locbase@H@std@@2HB 004dfea0     windowsspec.obj
 0002:00001ea4       ?has_infinity@_Num_base@std@@2_NB 004dfea4     windowsspec.obj
 0002:00001ea8       ?time@?$_Locbase@H@std@@2HB 004dfea8     windowsspec.obj
 0002:00001eac       ?basefield@?$_Iosb@H@std@@2W4_Fmtflags@12@B 004dfeac     windowsspec.obj
 0002:00001eb0       ?has_quiet_NaN@_Num_base@std@@2_NB 004dfeb0     windowsspec.obj
 0002:00001eb4       ?messages@?$_Locbase@H@std@@2HB 004dfeb4     windowsspec.obj
 0002:00001eb8       ?floatfield@?$_Iosb@H@std@@2W4_Fmtflags@12@B 004dfeb8     windowsspec.obj
 0002:00001ebc       ?all@?$_Locbase@H@std@@2HB 004dfebc     windowsspec.obj
 0002:00001ec0       ?has_signaling_NaN@_Num_base@std@@2_NB 004dfec0     windowsspec.obj
 0002:00001ec4       ?none@?$_Locbase@H@std@@2HB 004dfec4     windowsspec.obj
 0002:00001ec8       ?goodbit@?$_Iosb@H@std@@2W4_Iostate@12@B 004dfec8     windowsspec.obj
 0002:00001ecc       ?is_bounded@_Num_base@std@@2_NB 004dfecc     windowsspec.obj
 0002:00001ecd       ?is_exact@_Num_base@std@@2_NB 004dfecd     windowsspec.obj
 0002:00001ed0       ?eofbit@?$_Iosb@H@std@@2W4_Iostate@12@B 004dfed0     windowsspec.obj
 0002:00001ed4       ?is_iec559@_Num_base@std@@2_NB 004dfed4     windowsspec.obj
 0002:00001ed8       ?failbit@?$_Iosb@H@std@@2W4_Iostate@12@B 004dfed8     windowsspec.obj
 0002:00001edc       ?is_integer@_Num_base@std@@2_NB 004dfedc     windowsspec.obj
 0002:00001ee0       ?badbit@?$_Iosb@H@std@@2W4_Iostate@12@B 004dfee0     windowsspec.obj
 0002:00001ee4       ?is_modulo@_Num_base@std@@2_NB 004dfee4     windowsspec.obj
 0002:00001ee8       ?_Hardfail@?$_Iosb@H@std@@2W4_Iostate@12@B 004dfee8     windowsspec.obj
 0002:00001eec       ?is_signed@_Num_base@std@@2_NB 004dfeec     windowsspec.obj
 0002:00001ef0       ?in@?$_Iosb@H@std@@2W4_Openmode@12@B 004dfef0     windowsspec.obj
 0002:00001ef4       ?is_specialized@_Num_base@std@@2_NB 004dfef4     windowsspec.obj
 0002:00001ef8       ?out@?$_Iosb@H@std@@2W4_Openmode@12@B 004dfef8     windowsspec.obj
 0002:00001efc       ?tinyness_before@_Num_base@std@@2_NB 004dfefc     windowsspec.obj
 0002:00001f00       ?ate@?$_Iosb@H@std@@2W4_Openmode@12@B 004dff00     windowsspec.obj
 0002:00001f04       ?traps@_Num_base@std@@2_NB 004dff04     windowsspec.obj
 0002:00001f08       ?app@?$_Iosb@H@std@@2W4_Openmode@12@B 004dff08     windowsspec.obj
 0002:00001f0c       ?round_style@_Num_base@std@@2W4float_round_style@2@B 004dff0c     windowsspec.obj
 0002:00001f10       ?trunc@?$_Iosb@H@std@@2W4_Openmode@12@B 004dff10     windowsspec.obj
 0002:00001f14       ?digits@_Num_base@std@@2HB 004dff14     windowsspec.obj
 0002:00001f18       ?_Nocreate@?$_Iosb@H@std@@2W4_Openmode@12@B 004dff18     windowsspec.obj
 0002:00001f1c       ?digits10@_Num_base@std@@2HB 004dff1c     windowsspec.obj
 0002:00001f20       ?_Noreplace@?$_Iosb@H@std@@2W4_Openmode@12@B 004dff20     windowsspec.obj
 0002:00001f24       ?max_digits10@_Num_base@std@@2HB 004dff24     windowsspec.obj
 0002:00001f28       ?binary@?$_Iosb@H@std@@2W4_Openmode@12@B 004dff28     windowsspec.obj
 0002:00001f2c       ?max_exponent@_Num_base@std@@2HB 004dff2c     windowsspec.obj
 0002:00001f30       ?max_exponent10@_Num_base@std@@2HB 004dff30     windowsspec.obj
 0002:00001f34       ?beg@?$_Iosb@H@std@@2W4_Seekdir@12@B 004dff34     windowsspec.obj
 0002:00001f38       ?min_exponent@_Num_base@std@@2HB 004dff38     windowsspec.obj
 0002:00001f3c       ?cur@?$_Iosb@H@std@@2W4_Seekdir@12@B 004dff3c     windowsspec.obj
 0002:00001f40       ?min_exponent10@_Num_base@std@@2HB 004dff40     windowsspec.obj
 0002:00001f44       ?end@?$_Iosb@H@std@@2W4_Seekdir@12@B 004dff44     windowsspec.obj
 0002:00001f48       ?radix@_Num_base@std@@2HB  004dff48     windowsspec.obj
 0002:00001f4c       ?_Stream_err@failure@ios_base@std@@0W4io_errc@43@B 004dff4c     windowsspec.obj
 0002:00001f50       ?is_bounded@_Num_int_base@std@@2_NB 004dff50     windowsspec.obj
 0002:00001f51       ?is_exact@_Num_int_base@std@@2_NB 004dff51     windowsspec.obj
 0002:00001f52       ?is_integer@_Num_int_base@std@@2_NB 004dff52     windowsspec.obj
 0002:00001f53       ?is_modulo@_Num_int_base@std@@2_NB 004dff53     windowsspec.obj
 0002:00001f54       ?is_specialized@_Num_int_base@std@@2_NB 004dff54     windowsspec.obj
 0002:00001f58       ?radix@_Num_int_base@std@@2HB 004dff58     windowsspec.obj
 0002:00001f5c       ?has_denorm@_Num_float_base@std@@2W4float_denorm_style@2@B 004dff5c     windowsspec.obj
 0002:00001f60       ?has_denorm_loss@_Num_float_base@std@@2_NB 004dff60     windowsspec.obj
 0002:00001f61       ?has_infinity@_Num_float_base@std@@2_NB 004dff61     windowsspec.obj
 0002:00001f62       ?has_quiet_NaN@_Num_float_base@std@@2_NB 004dff62     windowsspec.obj
 0002:00001f63       ?has_signaling_NaN@_Num_float_base@std@@2_NB 004dff63     windowsspec.obj
 0002:00001f64       ?is_bounded@_Num_float_base@std@@2_NB 004dff64     windowsspec.obj
 0002:00001f65       ?is_exact@_Num_float_base@std@@2_NB 004dff65     windowsspec.obj
 0002:00001f66       ?is_iec559@_Num_float_base@std@@2_NB 004dff66     windowsspec.obj
 0002:00001f67       ?is_integer@_Num_float_base@std@@2_NB 004dff67     windowsspec.obj
 0002:00001f68       ?is_modulo@_Num_float_base@std@@2_NB 004dff68     windowsspec.obj
 0002:00001f69       ?is_signed@_Num_float_base@std@@2_NB 004dff69     windowsspec.obj
 0002:00001f6a       ?is_specialized@_Num_float_base@std@@2_NB 004dff6a     windowsspec.obj
 0002:00001f6b       ?tinyness_before@_Num_float_base@std@@2_NB 004dff6b     windowsspec.obj
 0002:000022cf       ?traps@_Num_float_base@std@@2_NB 004e02cf     windowsspec.obj
 0002:000022d0       ?round_style@_Num_float_base@std@@2W4float_round_style@2@B 004e02d0     windowsspec.obj
 0002:000022d4       ?radix@_Num_float_base@std@@2HB 004e02d4     windowsspec.obj
 0002:000022d8       ?is_signed@?$numeric_limits@D@std@@2_NB 004e02d8     windowsspec.obj
 0002:000022dc       ?digits@?$numeric_limits@D@std@@2HB 004e02dc     windowsspec.obj
 0002:000022e0       ?digits10@?$numeric_limits@D@std@@2HB 004e02e0     windowsspec.obj
 0002:000022e4       ?table_size@?$ctype@D@std@@2IB 004e02e4     windowsspec.obj
 0002:000022e8       ?is_signed@?$numeric_limits@_W@std@@2_NB 004e02e8     windowsspec.obj
 0002:000022ec       ?digits@?$numeric_limits@_W@std@@2HB 004e02ec     windowsspec.obj
 0002:000022f0       ?digits10@?$numeric_limits@_W@std@@2HB 004e02f0     windowsspec.obj
 0002:000022f4       ?is_modulo@?$numeric_limits@_N@std@@2_NB 004e02f4     windowsspec.obj
 0002:000022f5       ?is_signed@?$numeric_limits@_N@std@@2_NB 004e02f5     windowsspec.obj
 0002:000022f8       ?digits@?$numeric_limits@_N@std@@2HB 004e02f8     windowsspec.obj
 0002:000022fc       ?digits10@?$numeric_limits@_N@std@@2HB 004e02fc     windowsspec.obj
 0002:00002300       ?is_signed@?$numeric_limits@C@std@@2_NB 004e0300     windowsspec.obj
 0002:00002304       ?digits@?$numeric_limits@C@std@@2HB 004e0304     windowsspec.obj
 0002:00002308       ?digits10@?$numeric_limits@C@std@@2HB 004e0308     windowsspec.obj
 0002:0000230c       ?is_signed@?$numeric_limits@E@std@@2_NB 004e030c     windowsspec.obj
 0002:00002310       ?digits@?$numeric_limits@E@std@@2HB 004e0310     windowsspec.obj
 0002:00002314       ?digits10@?$numeric_limits@E@std@@2HB 004e0314     windowsspec.obj
 0002:00002318       ?value@?$integral_constant@I$0A@@std@@2IB 004e0318     windowsspec.obj
 0002:0000231c       ?is_signed@?$numeric_limits@F@std@@2_NB 004e031c     windowsspec.obj
 0002:00002320       ?digits@?$numeric_limits@F@std@@2HB 004e0320     windowsspec.obj
 0002:00002324       ?digits10@?$numeric_limits@F@std@@2HB 004e0324     windowsspec.obj
 0002:00002328       ?is_signed@?$numeric_limits@G@std@@2_NB 004e0328     windowsspec.obj
 0002:0000232c       ?digits@?$numeric_limits@G@std@@2HB 004e032c     windowsspec.obj
 0002:00002330       ?digits10@?$numeric_limits@G@std@@2HB 004e0330     windowsspec.obj
 0002:00002334       ?is_signed@?$numeric_limits@H@std@@2_NB 004e0334     windowsspec.obj
 0002:00002338       ?digits@?$numeric_limits@H@std@@2HB 004e0338     windowsspec.obj
 0002:0000233c       ?digits10@?$numeric_limits@H@std@@2HB 004e033c     windowsspec.obj
 0002:00002340       ?value@?$integral_constant@_N$0A@@std@@2_NB 004e0340     windowsspec.obj
 0002:00002341       ?value@?$integral_constant@_N$00@std@@2_NB 004e0341     windowsspec.obj
 0002:00002342       ?is_signed@?$numeric_limits@I@std@@2_NB 004e0342     windowsspec.obj
 0002:00002344       ?digits@?$numeric_limits@I@std@@2HB 004e0344     windowsspec.obj
 0002:00002348       ?digits10@?$numeric_limits@I@std@@2HB 004e0348     windowsspec.obj
 0002:0000234c       ?value@?$_Sizeof@U_Nil@std@@U12@U12@U12@U12@U12@U12@U12@@std@@2IB 004e034c     windowsspec.obj
 0002:00002350       ?is_signed@?$numeric_limits@J@std@@2_NB 004e0350     windowsspec.obj
 0002:00002354       ?digits@?$numeric_limits@J@std@@2HB 004e0354     windowsspec.obj
 0002:00002358       ?digits10@?$numeric_limits@J@std@@2HB 004e0358     windowsspec.obj
 0002:0000235c       ?is_signed@?$numeric_limits@K@std@@2_NB 004e035c     windowsspec.obj
 0002:00002360       ?digits@?$numeric_limits@K@std@@2HB 004e0360     windowsspec.obj
 0002:00002364       ?digits10@?$numeric_limits@K@std@@2HB 004e0364     windowsspec.obj
 0002:00002368       ?is_signed@?$numeric_limits@_J@std@@2_NB 004e0368     windowsspec.obj
 0002:0000236c       ?digits@?$numeric_limits@_J@std@@2HB 004e036c     windowsspec.obj
 0002:00002370       ?digits10@?$numeric_limits@_J@std@@2HB 004e0370     windowsspec.obj
 0002:00002374       ?is_signed@?$numeric_limits@_K@std@@2_NB 004e0374     windowsspec.obj
 0002:00002378       ?digits@?$numeric_limits@_K@std@@2HB 004e0378     windowsspec.obj
 0002:0000237c       ?digits10@?$numeric_limits@_K@std@@2HB 004e037c     windowsspec.obj
 0002:00002380       ?digits@?$numeric_limits@M@std@@2HB 004e0380     windowsspec.obj
 0002:00002384       ?digits10@?$numeric_limits@M@std@@2HB 004e0384     windowsspec.obj
 0002:00002388       ?max_digits10@?$numeric_limits@M@std@@2HB 004e0388     windowsspec.obj
 0002:0000238c       ?max_exponent@?$numeric_limits@M@std@@2HB 004e038c     windowsspec.obj
 0002:00002390       ?max_exponent10@?$numeric_limits@M@std@@2HB 004e0390     windowsspec.obj
 0002:00002394       ?min_exponent@?$numeric_limits@M@std@@2HB 004e0394     windowsspec.obj
 0002:00002398       ?min_exponent10@?$numeric_limits@M@std@@2HB 004e0398     windowsspec.obj
 0002:0000239c       ?digits@?$numeric_limits@N@std@@2HB 004e039c     windowsspec.obj
 0002:000023a0       ?digits10@?$numeric_limits@N@std@@2HB 004e03a0     windowsspec.obj
 0002:000023a4       ?max_digits10@?$numeric_limits@N@std@@2HB 004e03a4     windowsspec.obj
 0002:000023a8       ?max_exponent@?$numeric_limits@N@std@@2HB 004e03a8     windowsspec.obj
 0002:000023ac       ?max_exponent10@?$numeric_limits@N@std@@2HB 004e03ac     windowsspec.obj
 0002:000023b0       ?min_exponent@?$numeric_limits@N@std@@2HB 004e03b0     windowsspec.obj
 0002:000023b4       ?min_exponent10@?$numeric_limits@N@std@@2HB 004e03b4     windowsspec.obj
 0002:000023b8       ?digits@?$numeric_limits@O@std@@2HB 004e03b8     windowsspec.obj
 0002:000023bc       ?digits10@?$numeric_limits@O@std@@2HB 004e03bc     windowsspec.obj
 0002:000023c0       ?max_digits10@?$numeric_limits@O@std@@2HB 004e03c0     windowsspec.obj
 0002:000023c4       ?value@?$_Sizeof@HU_Nil@std@@U12@U12@U12@U12@U12@U12@@std@@2IB 004e03c4     windowsspec.obj
 0002:000023c8       ?max_exponent@?$numeric_limits@O@std@@2HB 004e03c8     windowsspec.obj
 0002:000023cc       ?max_exponent10@?$numeric_limits@O@std@@2HB 004e03cc     windowsspec.obj
 0002:000023d0       ?min_exponent@?$numeric_limits@O@std@@2HB 004e03d0     windowsspec.obj
 0002:000023d4       ?min_exponent10@?$numeric_limits@O@std@@2HB 004e03d4     windowsspec.obj
 0002:000023dc       ??_7error_category@std@@6B@ 004e03dc     windowsspec.obj
 0002:000023f8       ??_7_Generic_error_category@std@@6B@ 004e03f8     windowsspec.obj
 0002:00002410       ??_C@_07DCLBNMLN@generic?$AA@ 004e0410     windowsspec.obj
 0002:00002418       ??_C@_0O@BFJCFAAK@unknown?5error?$AA@ 004e0418     windowsspec.obj
 0002:0000242c       ??_7_Iostream_error_category@std@@6B@ 004e042c     windowsspec.obj
 0002:00002444       ??_C@_08LLGCOLLL@iostream?$AA@ 004e0444     windowsspec.obj
 0002:00002450       ??_C@_0BG@PADBLCHM@iostream?5stream?5error?$AA@ 004e0450     windowsspec.obj
 0002:0000246c       ??_7_System_error_category@std@@6B@ 004e046c     windowsspec.obj
 0002:00002484       ??_C@_06FHFOAHML@system?$AA@ 004e0484     windowsspec.obj
 0002:00002490       ??_C@_1HG@HDDJJEAD@?$AAD?$AA?3?$AA?2?$AAP?$AAr?$AAo?$AAg?$AAr?$AAa?$AAm?$AA?2?$AAM?$AAi?$AAc?$AAr?$AAo?$AAs?$AAo?$AAf?$AAt?$AA?5?$AAV?$AAi?$AAs?$AAu?$AAa?$AAl?$AA?5?$AAS?$AAt?$AAu?$AAd@ 004e0490     windowsspec.obj
 0002:00002508       ??_C@_0BI@CFPLBAOH@invalid?5string?5position?$AA@ 004e0508     windowsspec.obj
 0002:00002520       ??_C@_0BA@JFNIOLAK@string?5too?5long?$AA@ 004e0520     windowsspec.obj
 0002:00002530       ??_C@_1CK@EOPGIILJ@?$AAi?$AAn?$AAv?$AAa?$AAl?$AAi?$AAd?$AA?5?$AAn?$AAu?$AAl?$AAl?$AA?5?$AAp?$AAo?$AAi?$AAn?$AAt?$AAe?$AAr?$AA?$AA@ 004e0530     windowsspec.obj
 0002:00002560       __real@404ca5dc1a63c1f8    004e0560     sg_vs2008_32:sgd.obj
 0002:00002568       __real@3f91df46a2529d39    004e0568     sg_vs2008_32:sgd.obj
 0002:00002570       __real@bff0000000000000    004e0570     sg_vs2008_32:sgd.obj
 0002:00002578       __real@4022d97c7f3321d2    004e0578     sg_vs2008_32:sgd.obj
 0002:00002580       __real@400921fb54442d18    004e0580     sg_vs2008_32:sgd.obj
 0002:00002588       __real@401921fb54442d18    004e0588     sg_vs2008_32:sgd.obj
 0002:00002590       __real@3ff921fb54442d18    004e0590     sg_vs2008_32:sgd.obj
 0002:00002598       __real@3fefffeb074a771d    004e0598     sg_vs2008_32:sgd.obj
 0002:000025a0       __real@bff921fb54442d18    004e05a0     sg_vs2008_32:sgd.obj
 0002:000025a8       __real@bfefffeb074a771d    004e05a8     sg_vs2008_32:sgd.obj
 0002:000025b0       ??_C@_0CL@MFADICKC@sgdGetAngleBetweenVectors?3?5Norma@ 004e05b0     sg_vs2008_32:sgd.obj
 0002:000025e0       __real@c000000000000000    004e05e0     sg_vs2008_32:sgd.obj
 0002:000025e8       ??_C@_0ED@LKGOFPEJ@sgFrustum?3?5Can?8t?5support?5fields?5@ 004e05e8     sg_vs2008_32:sgd.obj
 0002:0000262c       ??_C@_0DF@MFOAFILF@sgFrustum?3?5Can?8t?5support?5width?5o@ 004e062c     sg_vs2008_32:sgd.obj
 0002:00002664       ??_C@_0DE@FLABMHND@sgdFrustum?3?5Can?8t?5support?5depth?5@ 004e0664     sg_vs2008_32:sgd.obj
 0002:00002698       __real@bee4f8b588e368f1    004e0698     sg_vs2008_32:sgd.obj
 0002:000026a0       ??_C@_0CE@HBHLABFJ@sgdMat4ToCoord?3?5ERROR?5?9?5Bad?5Matr@ 004e06a0     sg_vs2008_32:sgd.obj
 0002:000026c8       __real@3ee4f8b588e368f1    004e06c8     sg_vs2008_32:sgd.obj
 0002:000026d0       ??_C@_0CJ@BEEFNIHJ@sg?3?5ERROR?5?9?5Singular?5matrix?0?5no?5@ 004e06d0     sg_vs2008_32:sgd.obj
 0002:00002700       __real@3cb0000000000000    004e0700     sg_vs2008_32:sgd.obj
 0002:00002708       __real@c04ca5dc1a63c1f8    004e0708     sg_vs2008_32:sgd.obj
 0002:00002710       __real@3feffffde7210be9    004e0710     sg_vs2008_32:sgd.obj
 0002:00002718       __real@3eb0c6f7a0b5ed8d    004e0718     sg_vs2008_32:sgd.obj
 0002:00002720       __real@404e000000000000    004e0720     sg_vs2008_32:sgd.obj
 0002:00002728       __real@4056800000000000    004e0728     sg_vs2008_32:sgd.obj
 0002:00002738       __real@404ca5dc00000000    004e0738     sg_vs2008_32:sg.obj
 0002:00002740       __real@3f91df46a0000000    004e0740     sg_vs2008_32:sg.obj
 0002:00002748       __real@bf800000            004e0748     sg_vs2008_32:sg.obj
 0002:00002750       __real@4022d97c80000000    004e0750     sg_vs2008_32:sg.obj
 0002:00002758       __real@400921fb60000000    004e0758     sg_vs2008_32:sg.obj
 0002:00002760       __real@401921fb60000000    004e0760     sg_vs2008_32:sg.obj
 0002:00002768       __real@3fc90fdb            004e0768     sg_vs2008_32:sg.obj
 0002:0000276c       __real@bfc90fdb            004e076c     sg_vs2008_32:sg.obj
 0002:00002770       ??_C@_0CK@OJHHLHNC@sgGetAngleBetweenVectors?3?5Normal@ 004e0770     sg_vs2008_32:sg.obj
 0002:0000279c       ??_C@_0DD@OMGGIGK@sgFrustum?3?5Can?8t?5support?5depth?5o@ 004e079c     sg_vs2008_32:sg.obj
 0002:000027d0       ??_C@_0CD@BHGGFOKB@sgMat4ToCoord?3?5ERROR?5?9?5Bad?5Matri@ 004e07d0     sg_vs2008_32:sg.obj
 0002:000027f4       __real@34000000            004e07f4     sg_vs2008_32:sg.obj
 0002:000027f8       __real@c04ca5dc00000000    004e07f8     sg_vs2008_32:sg.obj
 0002:00002800       __real@3feffffde0000000    004e0800     sg_vs2008_32:sg.obj
 0002:00002808       __real@358637bd            004e0808     sg_vs2008_32:sg.obj
 0002:0000280c       __real@42700000            004e080c     sg_vs2008_32:sg.obj
 0002:00002810       __real@42b40000            004e0810     sg_vs2008_32:sg.obj
 0002:00002818       ??_C@_06LDNJCCPF@NoName?$AA@ 004e0818     ssg_vs2008_32:ssgBase.obj
 0002:00002820       ??_C@_0CM@NEJBBEND@SSG?3?5Can?8t?5clone?5abstract?5SSG?5cl@ 004e0820     ssg_vs2008_32:ssgBase.obj
 0002:00002850       ??_7ssgBase@@6B@           004e0850     ssg_vs2008_32:ssgBase.obj
 0002:00002880       ??_C@_0BD@DHHKBCKH@?$CFs?5?5Userdata?5?$DN?5?$CFp?6?$AA@ 004e0880     ssg_vs2008_32:ssgBase.obj
 0002:00002894       ??_C@_0P@KHDBIHPN@?$CFs?$CFs?3?5Name?$DN?$CFs?6?$AA@ 004e0894     ssg_vs2008_32:ssgBase.obj
 0002:000028a4       ??_C@_0BB@KPGNLEEC@?$CFs?5?5Name?5?$DN?5?$CC?$CFs?$CC?6?$AA@ 004e08a4     ssg_vs2008_32:ssgBase.obj
 0002:000028b8       ??_C@_0BE@KPMDNDMK@?$CFs?$CFs?3?5Ref?5Count?$DN?$CFd?6?$AA@ 004e08b8     ssg_vs2008_32:ssgBase.obj
 0002:000028d4       ??_7ssgVertexArray@@6B@    004e08d4     ssg_vs2008_32:ssgSimpleList.obj
 0002:0000290c       ??_7ssgNormalArray@@6B@    004e090c     ssg_vs2008_32:ssgSimpleList.obj
 0002:00002944       ??_7ssgTexCoordArray@@6B@  004e0944     ssg_vs2008_32:ssgSimpleList.obj
 0002:0000297c       ??_7ssgColourArray@@6B@    004e097c     ssg_vs2008_32:ssgSimpleList.obj
 0002:000029b4       ??_7ssgIndexArray@@6B@     004e09b4     ssg_vs2008_32:ssgSimpleList.obj
 0002:000029e8       ??_C@_0BO@MPEBGECJ@?$CFs?5?5Size?5of?5items?5?$DN?5?$CFd?5bytes?6?$AA@ 004e09e8     ssg_vs2008_32:ssgSimpleList.obj
 0002:00002a08       ??_C@_0BI@GDMCPGGO@?$CFs?5?5Total?5?$CD?5items?5?$DN?5?$CFd?6?$AA@ 004e0a08     ssg_vs2008_32:ssgSimpleList.obj
 0002:00002a20       ??_C@_0BJ@CNOBIOKM@?$CFs?5?5V?$CFd?$CJ?5?$HL?5?$CFf?0?5?$CFf?0?5?$CFf?5?$HN?6?$AA@ 004e0a20     ssg_vs2008_32:ssgSimpleList.obj
 0002:00002a3c       ??_C@_0BJ@EDPHJFDG@?$CFs?5?5N?$CFd?$CJ?5?$HL?5?$CFf?0?5?$CFf?0?5?$CFf?5?$HN?6?$AA@ 004e0a3c     ssg_vs2008_32:ssgSimpleList.obj
 0002:00002a58       ??_C@_0BB@DHIMKENE@?$CFs?5?5I?$CFd?$CJ?5?$HL?5?$CFd?5?$HN?6?$AA@ 004e0a58     ssg_vs2008_32:ssgSimpleList.obj
 0002:00002a6c       ??_C@_0BJ@LOLODAKB@?$CFs?5?5T?$CFd?$CJ?5?$HL?5S?$DN?$CFf?0?5T?$DN?$CFf?5?$HN?6?$AA@ 004e0a6c     ssg_vs2008_32:ssgSimpleList.obj
 0002:00002a88       ??_C@_0CF@EJMDLOMN@?$CFs?5?5C?$CFd?$CJ?5?$HL?5R?$DN?$CFf?0?5G?$DN?$CFf?0?5B?$DN?$CFf?0?5A?$DN?$CF@ 004e0a88     ssg_vs2008_32:ssgSimpleList.obj
 0002:00002ab8       ??_7ssgTransformArray@@6B@ 004e0ab8     ssg_vs2008_32:ssg.obj
 0002:00002af0       ??_7ssgInterleavedArray@@6B@ 004e0af0     ssg_vs2008_32:ssg.obj
 0002:00002b24       ??_C@_07NBCGADJA@Unknown?$AA@ 004e0b24     ssg_vs2008_32:ssg.obj
 0002:00002b2c       ??_C@_04HEBOFNAP@?4xpl?$AA@ 004e0b2c     ssg_vs2008_32:ssg.obj
 0002:00002b34       ??_C@_04JKBOHIOA@?4ngt?$AA@ 004e0b34     ssg_vs2008_32:ssg.obj
 0002:00002b3c       ??_C@_04IENJHAIL@?4sky?$AA@ 004e0b3c     ssg_vs2008_32:ssg.obj
 0002:00002b44       ??_C@_04BEBJABLF@?4oav?$AA@ 004e0b44     ssg_vs2008_32:ssg.obj
 0002:00002b4c       ??_C@_04BPBFNKPH@?4ktx?$AA@ 004e0b4c     ssg_vs2008_32:ssg.obj
 0002:00002b54       ??_C@_04BACJNM@?4naz?$AA@  004e0b54     ssg_vs2008_32:ssg.obj
 0002:00002b5c       ??_C@_03NOLMPICL@?4r8?$AA@ 004e0b5c     ssg_vs2008_32:ssg.obj
 0002:00002b60       ??_C@_04COFFCEPO@?4pat?$AA@ 004e0b60     ssg_vs2008_32:ssg.obj
 0002:00002b68       ??_C@_04NBLJIELD@?4kaf?$AA@ 004e0b68     ssg_vs2008_32:ssg.obj
 0002:00002b70       ??_C@_04GJAFODNG@?4jaf?$AA@ 004e0b70     ssg_vs2008_32:ssg.obj
 0002:00002b78       ??_C@_04HLLAEMDI@?4iaf?$AA@ 004e0b78     ssg_vs2008_32:ssg.obj
 0002:00002b80       ??_C@_04MDAMCLFN@?4haf?$AA@ 004e0b80     ssg_vs2008_32:ssg.obj
 0002:00002b88       ??_C@_04JLGPDLAL@?4gaf?$AA@ 004e0b88     ssg_vs2008_32:ssg.obj
 0002:00002b90       ??_C@_04CDNDFMGO@?4faf?$AA@ 004e0b90     ssg_vs2008_32:ssg.obj
 0002:00002b98       ??_C@_04DBGGPDIA@?4eaf?$AA@ 004e0b98     ssg_vs2008_32:ssg.obj
 0002:00002ba0       ??_C@_04IJNKJEOF@?4daf?$AA@ 004e0ba0     ssg_vs2008_32:ssg.obj
 0002:00002ba8       ??_C@_04BEANKMFM@?4caf?$AA@ 004e0ba8     ssg_vs2008_32:ssg.obj
 0002:00002bb0       ??_C@_04KMLBMLDJ@?4baf?$AA@ 004e0bb0     ssg_vs2008_32:ssg.obj
 0002:00002bb8       ??_C@_04LOAEGENH@?4aaf?$AA@ 004e0bb8     ssg_vs2008_32:ssg.obj
 0002:00002bc0       ??_C@_04LALNEDJK@?49af?$AA@ 004e0bc0     ssg_vs2008_32:ssg.obj
 0002:00002bc8       ??_C@_04IABCEPP@?48af?$AA@ 004e0bc8     ssg_vs2008_32:ssg.obj
 0002:00002bd0       ??_C@_04FAGCDEKJ@?47af?$AA@ 004e0bd0     ssg_vs2008_32:ssg.obj
 0002:00002bd8       ??_C@_04OINOFDMM@?46af?$AA@ 004e0bd8     ssg_vs2008_32:ssg.obj
 0002:00002be0       ??_C@_04PKGLPMCC@?45af?$AA@ 004e0be0     ssg_vs2008_32:ssg.obj
 0002:00002be8       ??_C@_04ECNHJLEH@?44af?$AA@ 004e0be8     ssg_vs2008_32:ssg.obj
 0002:00002bf0       ??_C@_04NPAAKDPO@?43af?$AA@ 004e0bf0     ssg_vs2008_32:ssg.obj
 0002:00002bf8       ??_C@_04GHLMMEJL@?42af?$AA@ 004e0bf8     ssg_vs2008_32:ssg.obj
 0002:00002c00       ??_C@_04HFAJGLHF@?41af?$AA@ 004e0c00     ssg_vs2008_32:ssg.obj
 0002:00002c08       ??_C@_04MNLFAMBA@?40af?$AA@ 004e0c08     ssg_vs2008_32:ssg.obj
 0002:00002c10       ??_C@_03LFHLAIJB@?4bw?$AA@ 004e0c10     ssg_vs2008_32:ssg.obj
 0002:00002c14       ??_C@_05BDFODFHM@?4inta?$AA@ 004e0c14     ssg_vs2008_32:ssg.obj
 0002:00002c1c       ??_C@_04IBIHLNG@?4int?$AA@ 004e0c1c     ssg_vs2008_32:ssg.obj
 0002:00002c24       ??_C@_05GBMNADKH@?4rgba?$AA@ 004e0c24     ssg_vs2008_32:ssg.obj
 0002:00002c2c       ??_C@_04JMEJCFBA@?4rgb?$AA@ 004e0c2c     ssg_vs2008_32:ssg.obj
 0002:00002c34       ??_C@_04IBGELPJM@?4pcx?$AA@ 004e0c34     ssg_vs2008_32:ssg.obj
 0002:00002c3c       ??_C@_04LJDDIHIK@?4bmp?$AA@ 004e0c3c     ssg_vs2008_32:ssg.obj
 0002:00002c44       ??_C@_04JCAPCJAP@?4tga?$AA@ 004e0c44     ssg_vs2008_32:ssg.obj
 0002:00002c4c       ??_C@_04IPGPBAO@?4mdl?$AA@ 004e0c4c     ssg_vs2008_32:ssg.obj
 0002:00002c54       ??_C@_04NMNBOHIM@?4asc?$AA@ 004e0c54     ssg_vs2008_32:ssg.obj
 0002:00002c5c       ??_C@_03KADFNGDB@?4iv?$AA@ 004e0c5c     ssg_vs2008_32:ssg.obj
 0002:00002c60       ??_C@_04CPPJJJDH@?4wrl?$AA@ 004e0c60     ssg_vs2008_32:ssg.obj
 0002:00002c68       ??_C@_04GGFEBEAI@?4qhi?$AA@ 004e0c68     ssg_vs2008_32:ssg.obj
 0002:00002c70       ??_C@_04LNPCDEAN@?4atg?$AA@ 004e0c70     ssg_vs2008_32:ssg.obj
 0002:00002c78       ??_C@_04FLJEAFGB@?4off?$AA@ 004e0c78     ssg_vs2008_32:ssg.obj
 0002:00002c80       ??_C@_02OCDOFION@?4m?$AA@  004e0c80     ssg_vs2008_32:ssg.obj
 0002:00002c84       ??_C@_06NFPKLKGO@?4strip?$AA@ 004e0c84     ssg_vs2008_32:ssg.obj
 0002:00002c8c       ??_C@_04FDPPLPOO@?4flt?$AA@ 004e0c8c     ssg_vs2008_32:ssg.obj
 0002:00002c94       ??_C@_02NFILLOPJ@?4x?$AA@  004e0c94     ssg_vs2008_32:ssg.obj
 0002:00002c98       ??_C@_04CMMOIBNE@?4md2?$AA@ 004e0c98     ssg_vs2008_32:ssg.obj
 0002:00002ca0       ??_C@_04EADLMCJM@?4tri?$AA@ 004e0ca0     ssg_vs2008_32:ssg.obj
 0002:00002ca8       ??_C@_04PACIOCLB@?4obj?$AA@ 004e0ca8     ssg_vs2008_32:ssg.obj
 0002:00002cb0       ??_C@_04JKCNAMBK@?4dxf?$AA@ 004e0cb0     ssg_vs2008_32:ssg.obj
 0002:00002cb8       ??_C@_04IDEELJOP@?4dof?$AA@ 004e0cb8     ssg_vs2008_32:ssg.obj
 0002:00002cc0       ??_C@_04IKILEAAK@?4ase?$AA@ 004e0cc0     ssg_vs2008_32:ssg.obj
 0002:00002cc8       ??_C@_03JJJDGBJN@?4ac?$AA@ 004e0cc8     ssg_vs2008_32:ssg.obj
 0002:00002ccc       ??_C@_04OOHOIHAB@?43ds?$AA@ 004e0ccc     ssg_vs2008_32:ssg.obj
 0002:00002cd4       ??_C@_04ECKNLNJM@?4ssg?$AA@ 004e0cd4     ssg_vs2008_32:ssg.obj
 0002:00002cdc       ??_C@_01LFCBOECM@?4?$AA@   004e0cdc     ssg_vs2008_32:ssg.obj
 0002:00002ce0       ??_C@_0CP@JIKMKGJL@ssgInit?5called?5without?5a?5valid?5O@ 004e0ce0     ssg_vs2008_32:ssg.obj
 0002:00002d10       ??_C@_0DL@JDMFKEM@ssg?3?5No?5Current?5Context?3?5Did?5you@ 004e0d10     ssg_vs2008_32:ssg.obj
 0002:00002d4c       ??_C@_0BB@BGBAOEFN@ssgAxisTransform?$AA@ 004e0d4c     ssg_vs2008_32:ssg.obj
 0002:00002d60       ??_C@_07JPOHJBBF@ssgBase?$AA@ 004e0d60     ssg_vs2008_32:ssg.obj
 0002:00002d68       ??_C@_0L@CGBLIMLI@ssgTexture?$AA@ 004e0d68     ssg_vs2008_32:ssg.obj
 0002:00002d74       ??_C@_08PCLGADAH@ssgState?$AA@ 004e0d74     ssg_vs2008_32:ssg.obj
 0002:00002d80       ??_C@_0P@HOCPEPOJ@ssgSimpleState?$AA@ 004e0d80     ssg_vs2008_32:ssg.obj
 0002:00002d90       ??_C@_0BB@GGPMCGPK@ssgStateSelector?$AA@ 004e0d90     ssg_vs2008_32:ssg.obj
 0002:00002da4       ??_C@_09NBLPDHOB@ssgEntity?$AA@ 004e0da4     ssg_vs2008_32:ssg.obj
 0002:00002db0       ??_C@_07JLDKJMPO@ssgLeaf?$AA@ 004e0db0     ssg_vs2008_32:ssg.obj
 0002:00002db8       ??_C@_09KJCLKFBP@ssgVTable?$AA@ 004e0db8     ssg_vs2008_32:ssg.obj
 0002:00002dc4       ??_C@_0M@IOPFPOIH@ssgVtxTable?$AA@ 004e0dc4     ssg_vs2008_32:ssg.obj
 0002:00002dd0       ??_C@_0M@EEBIBJGM@ssgVtxArray?$AA@ 004e0dd0     ssg_vs2008_32:ssg.obj
 0002:00002ddc       ??_C@_09BPGLHNCB@ssgBranch?$AA@ 004e0ddc     ssg_vs2008_32:ssg.obj
 0002:00002de8       ??_C@_0M@CALDIHEE@ssgSelector?$AA@ 004e0de8     ssg_vs2008_32:ssg.obj
 0002:00002df4       ??_C@_0BB@BHFLOPPO@ssgRangeSelector?$AA@ 004e0df4     ssg_vs2008_32:ssg.obj
 0002:00002e08       ??_C@_0BB@HFKKHHCK@ssgTimedSelector?$AA@ 004e0e08     ssg_vs2008_32:ssg.obj
 0002:00002e1c       ??_C@_0BB@PJIPGGKB@ssgBaseTransform?$AA@ 004e0e1c     ssg_vs2008_32:ssg.obj
 0002:00002e30       ??_C@_0N@LELJAHH@ssgTransform?$AA@ 004e0e30     ssg_vs2008_32:ssg.obj
 0002:00002e40       ??_C@_0M@DKPLMELB@ssgTexTrans?$AA@ 004e0e40     ssg_vs2008_32:ssg.obj
 0002:00002e4c       ??_C@_09EKHJLLCF@ssgCutout?$AA@ 004e0e4c     ssg_vs2008_32:ssg.obj
 0002:00002e58       ??_C@_07FJDNAIKA@ssgRoot?$AA@ 004e0e58     ssg_vs2008_32:ssg.obj
 0002:00002e60       ??_C@_0O@PMIKDJNF@ssgSimpleList?$AA@ 004e0e60     ssg_vs2008_32:ssg.obj
 0002:00002e70       ??_C@_0P@LINMJEAP@ssgColourArray?$AA@ 004e0e70     ssg_vs2008_32:ssg.obj
 0002:00002e80       ??_C@_0O@PGFOBHCA@ssgIndexArray?$AA@ 004e0e80     ssg_vs2008_32:ssg.obj
 0002:00002e90       ??_C@_0BC@FIEBAHEI@ssgTransformArray?$AA@ 004e0e90     ssg_vs2008_32:ssg.obj
 0002:00002ea4       ??_C@_0BB@GNEKPNMC@ssgTexCoordArray?$AA@ 004e0ea4     ssg_vs2008_32:ssg.obj
 0002:00002eb8       ??_C@_0P@BPBFFPF@ssgVertexArray?$AA@ 004e0eb8     ssg_vs2008_32:ssg.obj
 0002:00002ec8       ??_C@_0P@POPCNEHO@ssgNormalArray?$AA@ 004e0ec8     ssg_vs2008_32:ssg.obj
 0002:00002ed8       ??_C@_0BE@FBIEPDHI@ssgInterleavedArray?$AA@ 004e0ed8     ssg_vs2008_32:ssg.obj
 0002:00002eec       ??_C@_0DE@OCJPPHAE@ssgRegisterType?3?5Bad?5arguments?5?$CI@ 004e0eec     ssg_vs2008_32:ssg.obj
 0002:00002f20       ??_C@_0DB@IDJDIIAP@ssgRegisterType?3?5Type?5?$CF?$CDx?5redefi@ 004e0f20     ssg_vs2008_32:ssg.obj
 0002:00002f58       ??_C@_0EH@NPCLHBEO@ssgCreateOfType?3?5Created?5object?5@ 004e0f58     ssg_vs2008_32:ssg.obj
 0002:00002fa0       ??_C@_0CP@GEMDPONM@ssgCreateOfType?3?5Got?5null?5object@ 004e0fa0     ssg_vs2008_32:ssg.obj
 0002:00002fd0       ??_C@_0CI@CKILEBIG@ssgCreateOfType?3?5Unrecognized?5ty@ 004e0fd0     ssg_vs2008_32:ssg.obj
 0002:00002ff8       ??_C@_01CLKCMJKC@?5?$AA@   004e0ff8     ssg_vs2008_32:ssg.obj
 0002:00003000       ??_C@_0CE@POIPFACO@ssgSimpleList?3?5Cannot?5resize?5arr@ 004e1000     ssg_vs2008_32:ssgTexture.obj
 0002:00003028       ??_7ssgTexture@@6B@        004e1028     ssg_vs2008_32:ssgTexture.obj
 0002:0000305c       ??_C@_09EPKNGMMJ@?$CFs?$CFs?3?5?$CFs?6?$AA@ 004e105c     ssg_vs2008_32:ssgTexture.obj
 0002:00003074       ??_7ssgSimpleState@@6B@    004e1074     ssg_vs2008_32:ssgSimpleState.obj
 0002:0000311c       ??_C@_0DD@LBMFPJFK@Illegal?5mode?5passed?5to?5ssgSimple@ 004e111c     ssg_vs2008_32:ssgSimpleState.obj
 0002:00003150       ??_C@_0DC@LCPPPHPF@Illegal?5mode?5passed?5to?5ssgSimple@ 004e1150     ssg_vs2008_32:ssgSimpleState.obj
 0002:00003184       ??_C@_09OHBINFCB@LIGHTING?5?$AA@ 004e1184     ssg_vs2008_32:ssgSimpleState.obj
 0002:00003190       ??_C@_0M@DPMPKKAH@ALPHA_TEST?5?$AA@ 004e1190     ssg_vs2008_32:ssgSimpleState.obj
 0002:0000319c       ??_C@_06MAFCHHEP@BLEND?5?$AA@ 004e119c     ssg_vs2008_32:ssgSimpleState.obj
 0002:000031a4       ??_C@_0BA@POMNEBFN@COLOR_MATERIAL?5?$AA@ 004e11a4     ssg_vs2008_32:ssgSimpleState.obj
 0002:000031b4       ??_C@_09HKECODGO@CULLFACE?5?$AA@ 004e11b4     ssg_vs2008_32:ssgSimpleState.obj
 0002:000031c0       ??_C@_0L@CEOHLLEC@TEXTURE2D?5?$AA@ 004e11c0     ssg_vs2008_32:ssgSimpleState.obj
 0002:000031cc       ??_C@_0BO@LGLCMIHH@?$CFs?5?5Emission?5?3?5?$CI?$CFf?0?$CFf?0?$CFf?0?$CFf?$CJ?6?$AA@ 004e11cc     ssg_vs2008_32:ssgSimpleState.obj
 0002:000031ec       ??_C@_0BO@KGMMLJJA@?$CFs?5?5Specular?5?3?5?$CI?$CFf?0?$CFf?0?$CFf?0?$CFf?$CJ?6?$AA@ 004e11ec     ssg_vs2008_32:ssgSimpleState.obj
 0002:0000320c       ??_C@_0BO@KFBJPIDO@?$CFs?5?5Diffuse?5?5?3?5?$CI?$CFf?0?$CFf?0?$CFf?0?$CFf?$CJ?6?$AA@ 004e120c     ssg_vs2008_32:ssgSimpleState.obj
 0002:0000322c       ??_C@_0BO@EDEIIBMG@?$CFs?5?5Ambient?5?5?3?5?$CI?$CFf?0?$CFf?0?$CFf?0?$CFf?$CJ?6?$AA@ 004e122c     ssg_vs2008_32:ssgSimpleState.obj
 0002:0000324c       ??_C@_0BH@PLBENKHL@?$CFs?5?5ColourMatMode?$DN?5?$CFs?6?$AA@ 004e124c     ssg_vs2008_32:ssgSimpleState.obj
 0002:00003264       ??_C@_05EHMBKEBF@?$DP?$DP?$DP?$DP?$DP?$AA@ 004e1264     ssg_vs2008_32:ssgSimpleState.obj
 0002:0000326c       ??_C@_0M@KFBLOAFP@GL_EMISSION?$AA@ 004e126c     ssg_vs2008_32:ssgSimpleState.obj
 0002:00003278       ??_C@_0M@NHOOCHE@GL_SPECULAR?$AA@ 004e1278     ssg_vs2008_32:ssgSimpleState.obj
 0002:00003284       ??_C@_0BH@JAOEGDGN@GL_AMBIENT_AND_DIFFUSE?$AA@ 004e1284     ssg_vs2008_32:ssgSimpleState.obj
 0002:0000329c       ??_C@_0L@CPLHEHOK@GL_DIFFUSE?$AA@ 004e129c     ssg_vs2008_32:ssgSimpleState.obj
 0002:000032a8       ??_C@_0L@JNOHPMPG@GL_AMBIENT?$AA@ 004e12a8     ssg_vs2008_32:ssgSimpleState.obj
 0002:000032b4       ??_C@_0BH@GECNANGN@?$CFs?5?5AlphaClamp?5?5?5?$DN?5?$CFf?6?$AA@ 004e12b4     ssg_vs2008_32:ssgSimpleState.obj
 0002:000032cc       ??_C@_0BH@LKDAEHNO@?$CFs?5?5Shininess?5?5?5?5?$DN?5?$CFf?6?$AA@ 004e12cc     ssg_vs2008_32:ssgSimpleState.obj
 0002:000032e4       ??_C@_0BH@EDFHLIMN@?$CFs?5?5Shade?5Model?5?5?$DN?5?$CFd?6?$AA@ 004e12e4     ssg_vs2008_32:ssgSimpleState.obj
 0002:000032fc       ??_C@_0BJ@KOCDAGBE@?$CFs?5?5TexFilename?5?5?$DN?5?8?$CFs?8?6?$AA@ 004e12fc     ssg_vs2008_32:ssgSimpleState.obj
 0002:00003318       ??_C@_06PAOMPDJH@?$DMnone?$DO?$AA@ 004e1318     ssg_vs2008_32:ssgSimpleState.obj
 0002:00003320       ??_C@_0BH@POKIPOLA@?$CFs?5?5TexHandle?5?5?5?5?$DN?5?$CFd?6?$AA@ 004e1320     ssg_vs2008_32:ssgSimpleState.obj
 0002:00003338       ??_C@_0BE@FCLDIPPO@?$CFs?5?5Enabled?5?5?5?5?5?5?$DN?5?$AA@ 004e1338     ssg_vs2008_32:ssgSimpleState.obj
 0002:0000334c       ??_C@_01EEMJAFIK@?6?$AA@   004e134c     ssg_vs2008_32:ssgSimpleState.obj
 0002:00003350       ??_C@_0BE@HLEFNMOO@?$CFs?5?5Don?8t?5Care?5?5?5?$DN?5?$AA@ 004e1350     ssg_vs2008_32:ssgSimpleState.obj
 0002:00003368       ??_C@_01KMDKNFGN@?1?$AA@   004e1368     ssg_vs2008_32:ssgLoad.obj
 0002:0000336c       ??_C@_02HHAEMJFE@?2?1?$AA@ 004e136c     ssg_vs2008_32:ssgLoad.obj
 0002:00003370       ??_C@_0CE@GPKFIOLG@ssgAddModelFormat?3?5too?5many?5form@ 004e1370     ssg_vs2008_32:ssgLoad.obj
 0002:00003394       ??_C@_0CF@BAPOHDBK@ssgLoad?3?5Unrecognised?5file?5type?5@ 004e1394     ssg_vs2008_32:ssgLoad.obj
 0002:000033bc       ??_C@_0CN@JMMFCPE@ssgLoad?3?5Cannot?5determine?5file?5t@ 004e13bc     ssg_vs2008_32:ssgLoad.obj
 0002:000033ec       ??_C@_0CF@EEEFCFJE@ssgSave?3?5Unrecognised?5file?5type?5@ 004e13ec     ssg_vs2008_32:ssgLoad.obj
 0002:00003414       ??_C@_0CN@LCOGJDCM@ssgSave?3?5Cannot?5determine?5file?5t@ 004e1414     ssg_vs2008_32:ssgLoad.obj
 0002:00003444       ??_C@_04POHPCBNL@refs?$AA@ 004e1444     ssg_vs2008_32:ssgLoadAC.obj
 0002:0000344c       ??_C@_03BFLBBCNI@mat?$AA@  004e144c     ssg_vs2008_32:ssgLoadAC.obj
 0002:00003450       ??_C@_04HDKGFADE@SURF?$AA@ 004e1450     ssg_vs2008_32:ssgLoadAC.obj
 0002:00003458       ??_C@_04NKNNLPPO@kids?$AA@ 004e1458     ssg_vs2008_32:ssgLoadAC.obj
 0002:00003460       ??_C@_07NDMHMLLJ@numsurf?$AA@ 004e1460     ssg_vs2008_32:ssgLoadAC.obj
 0002:00003468       ??_C@_07DDMKGDIF@numvert?$AA@ 004e1468     ssg_vs2008_32:ssgLoadAC.obj
 0002:00003470       ??_C@_03BMGHOINI@url?$AA@  004e1470     ssg_vs2008_32:ssgLoadAC.obj
 0002:00003474       ??_C@_03KCBANMCB@loc?$AA@  004e1474     ssg_vs2008_32:ssgLoadAC.obj
 0002:00003478       ??_C@_03BHFFHIBL@rot?$AA@  004e1478     ssg_vs2008_32:ssgLoadAC.obj
 0002:0000347c       ??_C@_06CFCPLID@crease?$AA@ 004e147c     ssg_vs2008_32:ssgLoadAC.obj
 0002:00003484       ??_C@_06PHJHHNLI@texoff?$AA@ 004e1484     ssg_vs2008_32:ssgLoadAC.obj
 0002:0000348c       ??_C@_06ELDKPJHE@texrep?$AA@ 004e148c     ssg_vs2008_32:ssgLoadAC.obj
 0002:00003494       ??_C@_07JDHEGGGP@texture?$AA@ 004e1494     ssg_vs2008_32:ssgLoadAC.obj
 0002:0000349c       ??_C@_04PJOLNDGD@data?$AA@ 004e149c     ssg_vs2008_32:ssgLoadAC.obj
 0002:000034a4       ??_C@_04MEMAJGDJ@name?$AA@ 004e14a4     ssg_vs2008_32:ssgLoadAC.obj
 0002:000034ac       ??_C@_06IAMCMNFI@OBJECT?$AA@ 004e14ac     ssg_vs2008_32:ssgLoadAC.obj
 0002:000034b4       ??_C@_08NCEIPHOL@MATERIAL?$AA@ 004e14b4     ssg_vs2008_32:ssgLoadAC.obj
 0002:000034c4       ??_C@_0CO@OLCHAKCC@ac_to_gl?3?5Expected?5double?9quote?5@ 004e14c4     ssg_vs2008_32:ssgLoadAC.obj
 0002:000034f4       ??_C@_0DA@BPNDLECG@ac_to_gl?3?5Mismatched?5double?9quot@ 004e14f4     ssg_vs2008_32:ssgLoadAC.obj
 0002:00003524       ??_C@_0CC@PJAKNJPI@ac_to_gl?3?5Unrecognised?5token?5?8?$CFs@ 004e1524     ssg_vs2008_32:ssgLoadAC.obj
 0002:00003548       __real@3fefae147ae147ae    004e1548     ssg_vs2008_32:ssgLoadAC.obj
 0002:00003550       ??_C@_0BG@COBDPAEH@ac_to_gl?3?5MATERIAL?5?$CFs?$AA@ 004e1550     ssg_vs2008_32:ssgLoadAC.obj
 0002:00003568       ??_C@_0CF@POCEKGBI@ac_to_gl?3?5Can?8t?5parse?5this?5MATER@ 004e1568     ssg_vs2008_32:ssgLoadAC.obj
 0002:00003590       ??_C@_0EJ@PPJFENOP@?$CFs?5rgb?5?$CFf?5?$CFf?5?$CFf?5amb?5?$CFf?5?$CFf?5?$CFf?5emi@ 004e1590     ssg_vs2008_32:ssgLoadAC.obj
 0002:000035dc       ??_C@_0CB@PEEJJKOK@ac_to_gl?3?5Illegal?5texrep?5record?4@ 004e15dc     ssg_vs2008_32:ssgLoadAC.obj
 0002:00003600       ??_C@_05KCDNKPCA@?$CFf?5?$CFf?$AA@ 004e1600     ssg_vs2008_32:ssgLoadAC.obj
 0002:00003608       ??_C@_0CB@NFKMOBFG@ac_to_gl?3?5Illegal?5texoff?5record?4@ 004e1608     ssg_vs2008_32:ssgLoadAC.obj
 0002:0000362c       ??_C@_0CA@CKINFFHK@ac_to_gl?3?5Illegal?5crease?5angle?4?$AA@ 004e162c     ssg_vs2008_32:ssgLoadAC.obj
 0002:0000364c       ??_C@_02NJPGOMH@?$CFf?$AA@ 004e164c     ssg_vs2008_32:ssgLoadAC.obj
 0002:00003650       ??_C@_0BO@CIIGBCDJ@ac_to_gl?3?5Illegal?5rot?5record?4?$AA@ 004e1650     ssg_vs2008_32:ssgLoadAC.obj
 0002:00003670       ??_C@_0BL@PNBJJOIP@?$CFf?5?$CFf?5?$CFf?5?$CFf?5?$CFf?5?$CFf?5?$CFf?5?$CFf?5?$CFf?$AA@ 004e1670     ssg_vs2008_32:ssgLoadAC.obj
 0002:0000368c       ??_C@_0BO@INNLGEK@ac_to_gl?3?5Illegal?5loc?5record?4?$AA@ 004e168c     ssg_vs2008_32:ssgLoadAC.obj
 0002:000036ac       ??_C@_08OEKJENGB@?$CFf?5?$CFf?5?$CFf?$AA@ 004e16ac     ssg_vs2008_32:ssgLoadAC.obj
 0002:000036b8       ??_C@_0CB@JKHKKIEJ@ac_to_gl?3?5Illegal?5vertex?5record?4@ 004e16b8     ssg_vs2008_32:ssgLoadAC.obj
 0002:000036dc       ??_C@_0BO@OJHCBLGI@ac_to_gl?3?5Illegal?5ref?5record?4?$AA@ 004e16dc     ssg_vs2008_32:ssgLoadAC.obj
 0002:000036fc       ??_C@_08KGIMEKBM@?$CFd?5?$CFf?5?$CFf?$AA@ 004e16fc     ssg_vs2008_32:ssgLoadAC.obj
 0002:00003708       ??_C@_0CH@EAGMGF@ssgLoadAC?3?5?8?$CFs?8?5is?5not?5in?5AC3D?5f@ 004e1708     ssg_vs2008_32:ssgLoadAC.obj
 0002:00003730       ??_C@_04GHNHFPAA@AC3D?$AA@ 004e1730     ssg_vs2008_32:ssgLoadAC.obj
 0002:00003738       ??_C@_0CL@MKIDGHNP@ssgLoadAC?3?5Failed?5to?5open?5?8?$CFs?8?5f@ 004e1738     ssg_vs2008_32:ssgLoadAC.obj
 0002:00003764       ??_C@_01KDCPPGHE@r?$AA@    004e1764     ssg_vs2008_32:ssgLoadAC.obj
 0002:00003768       __real@42740000            004e1768     ssg_vs2008_32:ssgLoadAC.obj
 0002:00003774       ??_7ssgBranch@@6B@         004e1774     ssg_vs2008_32:ssgBranch.obj
 0002:000037f0       ??_C@_04OELPMFKG@?$CFs?5?5?$AA@ 004e17f0     ssg_vs2008_32:ssgBranch.obj
 0002:000037f8       ??_C@_0CB@KODIMJFG@?$CFs?5?5BSphere?5?5R?$DN?$CFg?0?5C?$DN?$CI?$CFg?0?$CFg?0?$CFg?$CJ?6@ 004e17f8     ssg_vs2008_32:ssgBranch.obj
 0002:0000381c       ??_C@_0BH@LFCJJEGO@?$CFs?5?5BSphere?5is?5Empty?4?6?$AA@ 004e181c     ssg_vs2008_32:ssgBranch.obj
 0002:00003834       ??_C@_0CK@BBOEKHPG@Ref?5count?5doesn?8t?5tally?5with?5par@ 004e1834     ssg_vs2008_32:ssgBranch.obj
 0002:00003860       ??_C@_0BB@GKMNLLBH@?$CFs?5?5Num?5Kids?$DN?$CFd?6?$AA@ 004e1860     ssg_vs2008_32:ssgBranch.obj
 0002:00003874       ??_C@_0CM@BHLLPOEM@wrong?5types?3?5?$CFld?0?5?$CFld?0?5num?5Trias@ 004e1874     ssg_vs2008_32:ssgBranch.obj
 0002:000038a0       ??_C@_0BH@NBIHINGA@?$CFd?5nodes?5were?5merged?$CB?6?$AA@ 004e18a0     ssg_vs2008_32:ssgBranch.obj
 0002:000038c4       ??_7ssgRoot@@6B@           004e18c4     ssg_vs2008_32:ssgRoot.obj
 0002:00003948       ??_C@_0DM@EFHEKKGI@ssgTransTool?3?5Cannot?5handle?5this@ 004e1948     ssg_vs2008_32:ssgOptimiser.obj
 0002:00003984       ??_C@_0BP@CLBKOIDI@Tleast?5doesn?8t?5contain?5nleast?$CB?$AA@ 004e1984     ssg_vs2008_32:ssgOptimiser.obj
 0002:000039b0       __real@42340000            004e19b0     ssg_vs2008_32:ssgContext.obj
 0002:000039b4       __real@49742400            004e19b4     ssg_vs2008_32:ssgContext.obj
 0002:000039b8       __real@3fd0000000000000    004e19b8     ssg_vs2008_32:ssgContext.obj
 0002:000039c0       __real@4010000000000000    004e19c0     ssg_vs2008_32:ssgContext.obj
 0002:000039c8       __real@3c23d70a            004e19c8     ssg_vs2008_32:ssgContext.obj
 0002:000039cc       __real@461c4000            004e19cc     ssg_vs2008_32:ssgContext.obj
 0002:000039d4       ??_C@_0CF@HJJIOCEE@ssgLoadXPlaneObj?3?5invalid?5line?0?5@ 004e19d4     ssg_vs2008_32:ssgLoadXPlaneObj.obj
 0002:000039fc       ??_C@_0CL@PNDDKAML@ssgLoadXPlaneObj?3?5Error?5reading?5@ 004e19fc     ssg_vs2008_32:ssgLoadXPlaneObj.obj
 0002:00003a28       ??_C@_06OOABJBHO@?$CFd?$CFd?$CFd?$AA@ 004e1a28     ssg_vs2008_32:ssgLoadXPlaneObj.obj
 0002:00003a30       ??_C@_06DLPGJKHM@?$CFf?$CFf?$CFf?$AA@ 004e1a30     ssg_vs2008_32:ssgLoadXPlaneObj.obj
 0002:00003a38       ??_C@_0DF@JMIPJING@ssgLoadXPlaneObj?3?5unexpected?5EOF@ 004e1a38     ssg_vs2008_32:ssgLoadXPlaneObj.obj
 0002:00003a70       ??_C@_0DA@EPKNNJJH@ssgLoadXPlaneObj?3?5Version?52?5not?5@ 004e1a70     ssg_vs2008_32:ssgLoadXPlaneObj.obj
 0002:00003aa0       ??_C@_0DH@BMKKCEK@ssgLoadXPlaneObj?3?5unexpected?5EOF@ 004e1aa0     ssg_vs2008_32:ssgLoadXPlaneObj.obj
 0002:00003ad8       ??_C@_0DG@JKEMJGGD@ssgLoadXPlaneObj?3?5invalid?5header@ 004e1ad8     ssg_vs2008_32:ssgLoadXPlaneObj.obj
 0002:00003b10       ??_C@_0CD@EPHBBHEE@ssgLoadXPlaneObj?3?5expected?5heade@ 004e1b10     ssg_vs2008_32:ssgLoadXPlaneObj.obj
 0002:00003b34       ??_C@_0DD@HFBIFBHE@ssgLoadXPlaneObj?3?5Failed?5to?5open@ 004e1b34     ssg_vs2008_32:ssgLoadXPlaneObj.obj
 0002:00003b70       ?ssgFsTexPalette@@3QBEB    004e1b70     ssg_vs2008_32:ssgLoadMDL_BGLTexture.obj
 0002:00003f70       ??_C@_0CF@IICDJIMB@ssgLoadTexture?3?5Failed?5to?5load?5?8@ 004e1f70     ssg_vs2008_32:ssgLoadMDL_BGLTexture.obj
 0002:00003f98       ??_C@_02JDPG@rb?$AA@       004e1f98     ssg_vs2008_32:ssgLoadMDL_BGLTexture.obj
 0002:00003fa0       ??_C@_0DH@FCPNPAGA@ssgLoadTexture?3?5Can?8t?5work?5with?5@ 004e1fa0     ssg_vs2008_32:ssgLoadSGI.obj
 0002:00003fd8       ??_C@_0BE@LFHLIBHC@?$CFs?3?5Bad?5swabbing?$DP?$CB?$DP?$AA@ 004e1fd8     ssg_vs2008_32:ssgLoadSGI.obj
 0002:00003fec       ??_C@_0CF@MDDAAPCA@?$CFs?3?5Unrecognised?5magic?5number?50x@ 004e1fec     ssg_vs2008_32:ssgLoadSGI.obj
 0002:00004014       ??_C@_0CD@CFFNOAAP@ssgLoadTexture?3?5?8?$CFs?8?5is?5corrupte@ 004e2014     ssg_vs2008_32:ssgLoadSGI.obj
 0002:00004038       ??_C@_0DB@LGBNLKAK@ssgSGIHeader?3?3?3?5Failed?5to?5open?5?8@ 004e2038     ssg_vs2008_32:ssgLoadSGI.obj
 0002:00004070       ??_C@_0DG@CFIKJJHH@ssgLoadTexture?3?5Failed?5to?5open?5f@ 004e2070     ssg_vs2008_32:ssgLoadPCX.obj
 0002:000040a8       ??_C@_0DO@MALGLIJP@ssgLoadTexture?3?5?8?$CFs?8?5?9?5unsupport@ 004e20a8     ssg_vs2008_32:ssgLoadPCX.obj
 0002:000040e8       ??_C@_0FC@JLHGGCAC@ssgLoadTexture?3?5?8?$CFs?8?5?9?5Height?5do@ 004e20e8     ssg_vs2008_32:ssgLoadPCX.obj
 0002:00004140       ??_C@_0FA@LBHIBPMC@ssgLoadTexture?3?5?8?$CFs?8?5?9?5Width?5doe@ 004e2140     ssg_vs2008_32:ssgLoadPCX.obj
 0002:00004190       ??_C@_0L@KMAOPGMM@_trans?4pcx?$AA@ 004e2190     ssg_vs2008_32:ssgLoadPCX.obj
 0002:0000419c       ??_C@_0DD@HLFPKBNJ@ssgLoadTexture?3?5?8?$CFs?8?5?9?5PCX?5files@ 004e219c     ssg_vs2008_32:ssgLoadPCX.obj
 0002:000041d4       ??_C@_0DA@OOKONBDM@ssgLoadTexture?3?5Can?8t?5load?5?$CFd?5bp@ 004e21d4     ssg_vs2008_32:ssgLoadBMP.obj
 0002:00004204       ??_C@_0BG@IIFENHEJ@Premature?5EOF?5in?5?8?$CFs?8?$AA@ 004e2204     ssg_vs2008_32:ssgLoadBMP.obj
 0002:0000421c       ??_C@_0DB@LALABENP@ssgLoadTexture?3?5Failed?5to?5open?5?8@ 004e221c     ssg_vs2008_32:ssgLoadBMP.obj
 0002:00004250       ??_C@_0DB@PGNENLGG@ssgLoadTexture?3?5Failed?5to?5load?5?8@ 004e2250     ssg_vs2008_32:ssgLoadBMP.obj
 0002:00004284       ??_C@_0P@ODLDAFJD@ssgLoadTexture?$AA@ 004e2284     ssg_vs2008_32:ssgLoadBMP.obj
 0002:00004298       ??_C@_0DE@PKONNNKL@SSG?3?5OpenGL?5will?5not?5accept?5a?5do@ 004e2298     ssg_vs2008_32:ssgLoadTexture.obj
 0002:000042cc       ??_C@_0CD@EKAOKKPP@Map?5is?5not?5a?5power?9of?9two?5in?5siz@ 004e22cc     ssg_vs2008_32:ssgLoadTexture.obj
 0002:000042f0       ??_C@_0CA@IICOLDCN@GL_ARB_texture_non_power_of_two?$AA@ 004e22f0     ssg_vs2008_32:ssgLoadTexture.obj
 0002:00004310       ??_C@_0CG@LIOKDKJJ@ssgAddTextureFormat?3?5too?5many?5fo@ 004e2310     ssg_vs2008_32:ssgLoadTexture.obj
 0002:00004338       ??_C@_0HL@INKGCFML@Couldn?8t?5convert?5texture?5?8?$CFs?8?4?5D@ 004e2338     ssg_vs2008_32:ssgLoadTexture.obj
 0002:000043b4       ??_C@_0BG@LFAGCIEG@?$CFs?5?9verbose?5?$CFs?5sgi?3?$CFs?$AA@ 004e23b4     ssg_vs2008_32:ssgLoadTexture.obj
 0002:000043cc       ??_C@_09OLIDDJCM@imconvert?$AA@ 004e23cc     ssg_vs2008_32:ssgLoadTexture.obj
 0002:000043d8       ??_C@_0CC@GOMBHNPM@Can?8t?5find?5the?5texture?5file?5?8?$CFs?8@ 004e23d8     ssg_vs2008_32:ssgLoadTexture.obj
 0002:000043fc       ??_C@_0CL@NPALNLDC@There?5is?5no?5extension?5in?5the?5tex@ 004e23fc     ssg_vs2008_32:ssgLoadTexture.obj
 0002:00004428       ??_C@_0DE@GEKAIOHF@ssgLoadTexture?3?5Cannot?5determine@ 004e2428     ssg_vs2008_32:ssgLoadTexture.obj
 0002:00004460       ??_C@_0CF@NGBMNCFH@ssgLoadTGA?3?5?8?$CFs?8?5is?5not?5a?5TGA?5im@ 004e2460     ssg_vs2008_32:ssgLoadTGA.obj
 0002:00004488       ??_C@_0CB@BLMFFFNF@ssgLoadTGA?3?5RLE?5unpack?5problems?4@ 004e2488     ssg_vs2008_32:ssgLoadTGA.obj
 0002:000044ac       ??_C@_0BA@GPJKDOAD@ssgLoadTGA?3?5?$CFs?4?$AA@ 004e24ac     ssg_vs2008_32:ssgLoadTGA.obj
 0002:000044bc       ??_C@_0BH@CHGNDCAL@Unexpected?5end?5of?5file?$AA@ 004e24bc     ssg_vs2008_32:ssgLoadTGA.obj
 0002:000044d4       ??_C@_0L@BHPPDFMA@Read?5error?$AA@ 004e24d4     ssg_vs2008_32:ssgLoadTGA.obj
 0002:000044e0       ??_C@_0CJ@BMKMEMDP@ssgLoadTGA?3?5Loading?5?8?$CFs?8?0?5?$CFs?5?$CFdx@ 004e24e0     ssg_vs2008_32:ssgLoadTGA.obj
 0002:0000450c       ??_C@_09BNFDBJDM@grayscale?$AA@ 004e250c     ssg_vs2008_32:ssgLoadTGA.obj
 0002:00004518       ??_C@_03ICFFBAI@RGB?$AA@   004e2518     ssg_vs2008_32:ssgLoadTGA.obj
 0002:0000451c       ??_C@_08OMBDDLKJ@colormap?$AA@ 004e251c     ssg_vs2008_32:ssgLoadTGA.obj
 0002:00004525       ??_C@_00CNPNBAHC@?$AA@     004e2525     ssg_vs2008_32:ssgLoadTGA.obj
 0002:00004528       ??_C@_04GNJGCPCL@?5RLE?$AA@ 004e2528     ssg_vs2008_32:ssgLoadTGA.obj
 0002:00004530       ??_C@_0DE@IMDALECK@ssgLoadTGA?3?5Unsupported?5depth?5?$CFd@ 004e2530     ssg_vs2008_32:ssgLoadTGA.obj
 0002:00004564       ??_C@_0CL@HCLHLOMB@ssgLoadTGA?3?5Unsupported?5colormap@ 004e2564     ssg_vs2008_32:ssgLoadTGA.obj
 0002:00004590       ??_C@_0CL@LDOMDMCM@ssgLoadTGA?3?5Failed?5to?5read?5heade@ 004e2590     ssg_vs2008_32:ssgLoadTGA.obj
 0002:000045bc       ??_C@_0CN@CGMLKOCG@ssgLoadTGA?3?5Failed?5to?5open?5?8?$CFs?8?5@ 004e25bc     ssg_vs2008_32:ssgLoadTGA.obj
 0002:000045ec       ??_C@_0N@NIKIOEFG@UNKNOWN?50xFF?$AA@ 004e25ec     ssg_vs2008_32:ssgLoadMDL.obj
 0002:000045fc       ??_C@_0N@PDIFLHJF@UNKNOWN?50xFE?$AA@ 004e25fc     ssg_vs2008_32:ssgLoadMDL.obj
 0002:0000460c       ??_C@_0N@OKJOIGNE@UNKNOWN?50xFD?$AA@ 004e260c     ssg_vs2008_32:ssgLoadMDL.obj
 0002:0000461c       ??_C@_0N@KFNPBABD@UNKNOWN?50xFC?$AA@ 004e261c     ssg_vs2008_32:ssgLoadMDL.obj
 0002:0000462c       ??_C@_0N@LMMECBFC@UNKNOWN?50xFB?$AA@ 004e262c     ssg_vs2008_32:ssgLoadMDL.obj
 0002:0000463c       ??_C@_0N@JHOJHCJB@UNKNOWN?50xFA?$AA@ 004e263c     ssg_vs2008_32:ssgLoadMDL.obj
 0002:0000464c       ??_C@_0N@HAAPIBGP@UNKNOWN?50xF9?$AA@ 004e264c     ssg_vs2008_32:ssgLoadMDL.obj
 0002:0000465c       ??_C@_0N@GJBELACO@UNKNOWN?50xF8?$AA@ 004e265c     ssg_vs2008_32:ssgLoadMDL.obj
 0002:0000466c       ??_C@_0N@OOIMKMOB@UNKNOWN?50xF7?$AA@ 004e266c     ssg_vs2008_32:ssgLoadMDL.obj
 0002:0000467c       ??_C@_0N@PHJHJNKA@UNKNOWN?50xF6?$AA@ 004e267c     ssg_vs2008_32:ssgLoadMDL.obj
 0002:0000468c       ??_C@_0N@NMLKMOGD@UNKNOWN?50xF5?$AA@ 004e268c     ssg_vs2008_32:ssgLoadMDL.obj
 0002:0000469c       ??_C@_0N@MFKBPPCC@UNKNOWN?50xF4?$AA@ 004e269c     ssg_vs2008_32:ssgLoadMDL.obj
 0002:000046ac       ??_C@_0N@IKOAGJOF@UNKNOWN?50xF3?$AA@ 004e26ac     ssg_vs2008_32:ssgLoadMDL.obj
 0002:000046bc       ??_C@_0N@JDPLFIKE@UNKNOWN?50xF2?$AA@ 004e26bc     ssg_vs2008_32:ssgLoadMDL.obj
 0002:000046cc       ??_C@_0N@LINGALGH@UNKNOWN?50xF1?$AA@ 004e26cc     ssg_vs2008_32:ssgLoadMDL.obj
 0002:000046dc       ??_C@_0N@KBMNDKCG@UNKNOWN?50xF0?$AA@ 004e26dc     ssg_vs2008_32:ssgLoadMDL.obj
 0002:000046ec       ??_C@_0N@NKOOFKAP@UNKNOWN?50xEF?$AA@ 004e26ec     ssg_vs2008_32:ssgLoadMDL.obj
 0002:000046fc       ??_C@_0N@PBMDAJMM@UNKNOWN?50xEE?$AA@ 004e26fc     ssg_vs2008_32:ssgLoadMDL.obj
 0002:0000470c       ??_C@_0N@OINIDIIN@UNKNOWN?50xED?$AA@ 004e270c     ssg_vs2008_32:ssgLoadMDL.obj
 0002:0000471c       ??_C@_0N@KHJJKOEK@UNKNOWN?50xEC?$AA@ 004e271c     ssg_vs2008_32:ssgLoadMDL.obj
 0002:0000472c       ??_C@_0N@LOICJPAL@UNKNOWN?50xEB?$AA@ 004e272c     ssg_vs2008_32:ssgLoadMDL.obj
 0002:0000473c       ??_C@_0N@JFKPMMMI@UNKNOWN?50xEA?$AA@ 004e273c     ssg_vs2008_32:ssgLoadMDL.obj
 0002:0000474c       ??_C@_0N@HCEJDPDG@UNKNOWN?50xE9?$AA@ 004e274c     ssg_vs2008_32:ssgLoadMDL.obj
 0002:0000475c       ??_C@_0N@GLFCAOHH@UNKNOWN?50xE8?$AA@ 004e275c     ssg_vs2008_32:ssgLoadMDL.obj
 0002:0000476c       ??_C@_0N@OMMKBCLI@UNKNOWN?50xE7?$AA@ 004e276c     ssg_vs2008_32:ssgLoadMDL.obj
 0002:0000477c       ??_C@_0N@PFNBCDPJ@UNKNOWN?50xE6?$AA@ 004e277c     ssg_vs2008_32:ssgLoadMDL.obj
 0002:0000478c       ??_C@_0N@NOPMHADK@UNKNOWN?50xE5?$AA@ 004e278c     ssg_vs2008_32:ssgLoadMDL.obj
 0002:0000479c       ??_C@_0N@MHOHEBHL@UNKNOWN?50xE4?$AA@ 004e279c     ssg_vs2008_32:ssgLoadMDL.obj
 0002:000047ac       ??_C@_0N@IIKGNHLM@UNKNOWN?50xE3?$AA@ 004e27ac     ssg_vs2008_32:ssgLoadMDL.obj
 0002:000047bc       ??_C@_0N@JBLNOGPN@UNKNOWN?50xE2?$AA@ 004e27bc     ssg_vs2008_32:ssgLoadMDL.obj
 0002:000047cc       ??_C@_0N@LKJALFDO@UNKNOWN?50xE1?$AA@ 004e27cc     ssg_vs2008_32:ssgLoadMDL.obj
 0002:000047dc       ??_C@_0N@KDILIEHP@UNKNOWN?50xE0?$AA@ 004e27dc     ssg_vs2008_32:ssgLoadMDL.obj
 0002:000047ec       ??_C@_0N@NLCMDADI@UNKNOWN?50xDF?$AA@ 004e27ec     ssg_vs2008_32:ssgLoadMDL.obj
 0002:000047fc       ??_C@_0N@PAABGDPL@UNKNOWN?50xDE?$AA@ 004e27fc     ssg_vs2008_32:ssgLoadMDL.obj
 0002:0000480c       ??_C@_0N@OJBKFCLK@UNKNOWN?50xDD?$AA@ 004e280c     ssg_vs2008_32:ssgLoadMDL.obj
 0002:0000481c       ??_C@_0N@KGFLMEHN@UNKNOWN?50xDC?$AA@ 004e281c     ssg_vs2008_32:ssgLoadMDL.obj
 0002:0000482c       ??_C@_0N@LPEAPFDM@UNKNOWN?50xDB?$AA@ 004e282c     ssg_vs2008_32:ssgLoadMDL.obj
 0002:0000483c       ??_C@_0N@JEGNKGPP@UNKNOWN?50xDA?$AA@ 004e283c     ssg_vs2008_32:ssgLoadMDL.obj
 0002:0000484c       ??_C@_0N@HDILFFAB@UNKNOWN?50xD9?$AA@ 004e284c     ssg_vs2008_32:ssgLoadMDL.obj
 0002:0000485c       ??_C@_0N@GKJAGEEA@UNKNOWN?50xD8?$AA@ 004e285c     ssg_vs2008_32:ssgLoadMDL.obj
 0002:0000486c       ??_C@_0N@ONAIHIIP@UNKNOWN?50xD7?$AA@ 004e286c     ssg_vs2008_32:ssgLoadMDL.obj
 0002:0000487c       ??_C@_0N@PEBDEJMO@UNKNOWN?50xD6?$AA@ 004e287c     ssg_vs2008_32:ssgLoadMDL.obj
 0002:0000488c       ??_C@_0N@NPDOBKAN@UNKNOWN?50xD5?$AA@ 004e288c     ssg_vs2008_32:ssgLoadMDL.obj
 0002:0000489c       ??_C@_0N@MGCFCLEM@UNKNOWN?50xD4?$AA@ 004e289c     ssg_vs2008_32:ssgLoadMDL.obj
 0002:000048ac       ??_C@_0N@IJGELNIL@UNKNOWN?50xD3?$AA@ 004e28ac     ssg_vs2008_32:ssgLoadMDL.obj
 0002:000048bc       ??_C@_0N@JAHPIMMK@UNKNOWN?50xD2?$AA@ 004e28bc     ssg_vs2008_32:ssgLoadMDL.obj
 0002:000048cc       ??_C@_0N@LLFCNPAJ@UNKNOWN?50xD1?$AA@ 004e28cc     ssg_vs2008_32:ssgLoadMDL.obj
 0002:000048dc       ??_C@_0N@KCEJOOEI@UNKNOWN?50xD0?$AA@ 004e28dc     ssg_vs2008_32:ssgLoadMDL.obj
 0002:000048ec       ??_C@_0N@NOGDCGLN@UNKNOWN?50xCF?$AA@ 004e28ec     ssg_vs2008_32:ssgLoadMDL.obj
 0002:000048fc       ??_C@_0N@PFEOHFHO@UNKNOWN?50xCE?$AA@ 004e28fc     ssg_vs2008_32:ssgLoadMDL.obj
 0002:0000490c       ??_C@_0N@OMFFEEDP@UNKNOWN?50xCD?$AA@ 004e290c     ssg_vs2008_32:ssgLoadMDL.obj
 0002:0000491c       ??_C@_0N@KDBENCPI@UNKNOWN?50xCC?$AA@ 004e291c     ssg_vs2008_32:ssgLoadMDL.obj
 0002:0000492c       ??_C@_0N@LKAPODLJ@UNKNOWN?50xCB?$AA@ 004e292c     ssg_vs2008_32:ssgLoadMDL.obj
 0002:0000493c       ??_C@_0N@JBCCLAHK@UNKNOWN?50xCA?$AA@ 004e293c     ssg_vs2008_32:ssgLoadMDL.obj
 0002:0000494c       ??_C@_0N@HGMEEDIE@UNKNOWN?50xC9?$AA@ 004e294c     ssg_vs2008_32:ssgLoadMDL.obj
 0002:0000495c       ??_C@_0N@GPNPHCMF@UNKNOWN?50xC8?$AA@ 004e295c     ssg_vs2008_32:ssgLoadMDL.obj
 0002:0000496c       ??_C@_0N@OIEHGOAK@UNKNOWN?50xC7?$AA@ 004e296c     ssg_vs2008_32:ssgLoadMDL.obj
 0002:0000497c       ??_C@_0N@PBFMFPEL@UNKNOWN?50xC6?$AA@ 004e297c     ssg_vs2008_32:ssgLoadMDL.obj
 0002:0000498c       ??_C@_0N@NKHBAMII@UNKNOWN?50xC5?$AA@ 004e298c     ssg_vs2008_32:ssgLoadMDL.obj
 0002:0000499c       ??_C@_0N@MDGKDNMJ@UNKNOWN?50xC4?$AA@ 004e299c     ssg_vs2008_32:ssgLoadMDL.obj
 0002:000049ac       ??_C@_0N@IMCLKLAO@UNKNOWN?50xC3?$AA@ 004e29ac     ssg_vs2008_32:ssgLoadMDL.obj
 0002:000049bc       ??_C@_0N@JFDAJKEP@UNKNOWN?50xC2?$AA@ 004e29bc     ssg_vs2008_32:ssgLoadMDL.obj
 0002:000049cc       ??_C@_0N@LOBNMJIM@UNKNOWN?50xC1?$AA@ 004e29cc     ssg_vs2008_32:ssgLoadMDL.obj
 0002:000049dc       ??_C@_0N@KHAGPIMN@UNKNOWN?50xC0?$AA@ 004e29dc     ssg_vs2008_32:ssgLoadMDL.obj
 0002:000049ec       ??_C@_0N@NPKBEMIK@UNKNOWN?50xBF?$AA@ 004e29ec     ssg_vs2008_32:ssgLoadMDL.obj
 0002:000049fc       ??_C@_0N@PEIMBPEJ@UNKNOWN?50xBE?$AA@ 004e29fc     ssg_vs2008_32:ssgLoadMDL.obj
 0002:00004a0c       ??_C@_0N@ONJHCOAI@UNKNOWN?50xBD?$AA@ 004e2a0c     ssg_vs2008_32:ssgLoadMDL.obj
 0002:00004a1c       ??_C@_0N@KCNGLIMP@UNKNOWN?50xBC?$AA@ 004e2a1c     ssg_vs2008_32:ssgLoadMDL.obj
 0002:00004a2c       ??_C@_0N@LLMNIJIO@UNKNOWN?50xBB?$AA@ 004e2a2c     ssg_vs2008_32:ssgLoadMDL.obj
 0002:00004a3c       ??_C@_0N@JAOANKEN@UNKNOWN?50xBA?$AA@ 004e2a3c     ssg_vs2008_32:ssgLoadMDL.obj
 0002:00004a4c       ??_C@_0N@HHAGCJLD@UNKNOWN?50xB9?$AA@ 004e2a4c     ssg_vs2008_32:ssgLoadMDL.obj
 0002:00004a5c       ??_C@_0N@GOBNBIPC@UNKNOWN?50xB8?$AA@ 004e2a5c     ssg_vs2008_32:ssgLoadMDL.obj
 0002:00004a6c       ??_C@_0N@OJIFAEDN@UNKNOWN?50xB7?$AA@ 004e2a6c     ssg_vs2008_32:ssgLoadMDL.obj
 0002:00004a7c       ??_C@_0N@PAJODFHM@UNKNOWN?50xB6?$AA@ 004e2a7c     ssg_vs2008_32:ssgLoadMDL.obj
 0002:00004a8c       ??_C@_0N@NLLDGGLP@UNKNOWN?50xB5?$AA@ 004e2a8c     ssg_vs2008_32:ssgLoadMDL.obj
 0002:00004a9c       ??_C@_0N@MCKIFHPO@UNKNOWN?50xB4?$AA@ 004e2a9c     ssg_vs2008_32:ssgLoadMDL.obj
 0002:00004aac       ??_C@_0L@EGGKNJLA@BGL_IFINF1?$AA@ 004e2aac     ssg_vs2008_32:ssgLoadMDL.obj
 0002:00004ab8       ??_C@_09BMICLEKF@BGL_LIGHT?$AA@ 004e2ab8     ssg_vs2008_32:ssgLoadMDL.obj
 0002:00004ac4       ??_C@_0N@LPNPKDLL@UNKNOWN?50xB1?$AA@ 004e2ac4     ssg_vs2008_32:ssgLoadMDL.obj
 0002:00004ad4       ??_C@_0N@KGMEJCPK@UNKNOWN?50xB0?$AA@ 004e2ad4     ssg_vs2008_32:ssgLoadMDL.obj
 0002:00004ae4       ??_C@_0BF@EKMEMFAP@BGL_TRANSFORM_MATRIX?$AA@ 004e2ae4     ssg_vs2008_32:ssgLoadMDL.obj
 0002:00004afc       ??_C@_0BC@IBKPJDMM@BGL_TRANSFORM_END?$AA@ 004e2afc     ssg_vs2008_32:ssgLoadMDL.obj
 0002:00004b10       ??_C@_0M@DCEIHMGF@BGL_ANIMATE?$AA@ 004e2b10     ssg_vs2008_32:ssgLoadMDL.obj
 0002:00004b1c       ??_C@_09BOJCLOEJ@BGL_ZBIAS?$AA@ 004e2b1c     ssg_vs2008_32:ssgLoadMDL.obj
 0002:00004b28       ??_C@_0O@HCPIJKDI@RESERVED?50xAB?$AA@ 004e2b28     ssg_vs2008_32:ssgLoadMDL.obj
 0002:00004b38       ??_C@_0P@CCFEAEDD@BGL_NEW_RUNWAY?$AA@ 004e2b38     ssg_vs2008_32:ssgLoadMDL.obj
 0002:00004b48       ??_C@_0BM@KOENJBHO@BGL_IFIN_INSTANCE_BOX_PLANE?$AA@ 004e2b48     ssg_vs2008_32:ssgLoadMDL.obj
 0002:00004b64       ??_C@_0BH@EHNNENHF@BGL_TEXTURE_ROAD_START?$AA@ 004e2b64     ssg_vs2008_32:ssgLoadMDL.obj
 0002:00004b7c       ??_C@_0BB@ENGBL@BGL_SPRITE_VCALL?$AA@ 004e2b7c     ssg_vs2008_32:ssgLoadMDL.obj
 0002:00004b90       ??_C@_0O@MNHDMBMP@OBSOLETE?50xA6?$AA@ 004e2b90     ssg_vs2008_32:ssgLoadMDL.obj
 0002:00004ba0       ??_C@_0O@OGFOJCAM@OBSOLETE?50xA5?$AA@ 004e2ba0     ssg_vs2008_32:ssgLoadMDL.obj
 0002:00004bb0       ??_C@_0L@JHHOPOAP@BGL_VALPHA?$AA@ 004e2bb0     ssg_vs2008_32:ssgLoadMDL.obj
 0002:00004bbc       ??_C@_0O@LAAEDFIK@OBSOLETE?50xA3?$AA@ 004e2bbc     ssg_vs2008_32:ssgLoadMDL.obj
 0002:00004bcc       ??_C@_0O@KJBPAEML@OBSOLETE?50xA2?$AA@ 004e2bcc     ssg_vs2008_32:ssgLoadMDL.obj
 0002:00004bdc       ??_C@_0O@ICDCFHAI@OBSOLETE?50xA1?$AA@ 004e2bdc     ssg_vs2008_32:ssgLoadMDL.obj
 0002:00004bec       ??_C@_0L@DAMLAOEE@BGL_OBJECT?$AA@ 004e2bec     ssg_vs2008_32:ssgLoadMDL.obj
 0002:00004bf8       ??_C@_0N@GGKJEFPK@BGL_OVERRIDE?$AA@ 004e2bf8     ssg_vs2008_32:ssgLoadMDL.obj
 0002:00004c08       ??_C@_0BA@DBBAFKLH@BGL_INTERPOLATE?$AA@ 004e2c08     ssg_vs2008_32:ssgLoadMDL.obj
 0002:00004c18       ??_C@_0O@OLMECAPE@RESERVED?50x9d?$AA@ 004e2c18     ssg_vs2008_32:ssgLoadMDL.obj
 0002:00004c28       ??_C@_0O@KEIFLGDD@RESERVED?50x9c?$AA@ 004e2c28     ssg_vs2008_32:ssgLoadMDL.obj
 0002:00004c38       ??_C@_0O@LNJOIHHC@RESERVED?50x9b?$AA@ 004e2c38     ssg_vs2008_32:ssgLoadMDL.obj
 0002:00004c48       ??_C@_0O@GCGLDDLE@OBSOLETE?50x9a?$AA@ 004e2c48     ssg_vs2008_32:ssgLoadMDL.obj
 0002:00004c58       ??_C@_0O@OMHIGALA@BGL_SET_CRASH?$AA@ 004e2c58     ssg_vs2008_32:ssgLoadMDL.obj
 0002:00004c68       ??_C@_0O@CPJAEIAC@BGL_CRASH_BOX?$AA@ 004e2c68     ssg_vs2008_32:ssgLoadMDL.obj
 0002:00004c78       ??_C@_0BB@NGBONLCP@BGL_CRASH_SPHERE?$AA@ 004e2c78     ssg_vs2008_32:ssgLoadMDL.obj
 0002:00004c8c       ??_C@_0BA@JHFIJIG@BGL_CRASH_START?$AA@ 004e2c8c     ssg_vs2008_32:ssgLoadMDL.obj
 0002:00004c9c       ??_C@_0BD@EPKLAPBP@BGL_CRASH_INDIRECT?$AA@ 004e2c9c     ssg_vs2008_32:ssgLoadMDL.obj
 0002:00004cb0       ??_C@_09CJILOOPD@BGL_CRASH?$AA@ 004e2cb0     ssg_vs2008_32:ssgLoadMDL.obj
 0002:00004cbc       ??_C@_0O@BODOOLGH@RESERVED?50x93?$AA@ 004e2cbc     ssg_vs2008_32:ssgLoadMDL.obj
 0002:00004ccc       ??_C@_0O@PDPNDNCD@OBSOLETE?50x92?$AA@ 004e2ccc     ssg_vs2008_32:ssgLoadMDL.obj
 0002:00004cdc       ??_C@_08GJJIIIFH@BGL_TEXT?$AA@ 004e2cdc     ssg_vs2008_32:ssgLoadMDL.obj
 0002:00004ce8       ??_C@_0O@DFBDLIKE@RESERVED?50x90?$AA@ 004e2ce8     ssg_vs2008_32:ssgLoadMDL.obj
 0002:00004cf8       ??_C@_09JCIHKBDJ@BGL_ALPHA?$AA@ 004e2cf8     ssg_vs2008_32:ssgLoadMDL.obj
 0002:00004d04       ??_C@_0BB@MEAPDLMM@BGL_VFILE_MARKER?$AA@ 004e2d04     ssg_vs2008_32:ssgLoadMDL.obj
 0002:00004d18       ??_C@_0O@OKAGEKMD@RESERVED?50x8d?$AA@ 004e2d18     ssg_vs2008_32:ssgLoadMDL.obj
 0002:00004d28       ??_C@_0O@KFEHNMAE@RESERVED?50x8c?$AA@ 004e2d28     ssg_vs2008_32:ssgLoadMDL.obj
 0002:00004d38       ??_C@_0N@EKPLIBEA@BGL_ADDCAT32?$AA@ 004e2d38     ssg_vs2008_32:ssgLoadMDL.obj
 0002:00004d48       ??_C@_0L@OEOBAIMF@BGL_CALL32?$AA@ 004e2d48     ssg_vs2008_32:ssgLoadMDL.obj
 0002:00004d54       ??_C@_0P@DJJINKLO@BGL_VAR_BASE32?$AA@ 004e2d54     ssg_vs2008_32:ssgLoadMDL.obj
 0002:00004d64       ??_C@_0L@MOJBMMAM@BGL_JUMP32?$AA@ 004e2d64     ssg_vs2008_32:ssgLoadMDL.obj
 0002:00004d70       ??_C@_0BB@LMHPAGMI@BGL_FIXED_COLORS?$AA@ 004e2d70     ssg_vs2008_32:ssgLoadMDL.obj
 0002:00004d84       ??_C@_0O@JGFDJCBA@OBSOLETE?50x86?$AA@ 004e2d84     ssg_vs2008_32:ssgLoadMDL.obj
 0002:00004d94       ??_C@_0O@LNHOMBND@OBSOLETE?50x85?$AA@ 004e2d94     ssg_vs2008_32:ssgLoadMDL.obj
 0002:00004da4       ??_C@_0O@KEGFPAJC@OBSOLETE?50x84?$AA@ 004e2da4     ssg_vs2008_32:ssgLoadMDL.obj
 0002:00004db4       ??_C@_0M@MNDDHDAD@BGL_RESCALE?$AA@ 004e2db4     ssg_vs2008_32:ssgLoadMDL.obj
 0002:00004dc0       ??_C@_0O@PCDPFHBE@OBSOLETE?50x82?$AA@ 004e2dc0     ssg_vs2008_32:ssgLoadMDL.obj
 0002:00004dd0       ??_C@_0O@NJBCAENH@OBSOLETE?50x81?$AA@ 004e2dd0     ssg_vs2008_32:ssgLoadMDL.obj
 0002:00004de0       ??_C@_0L@CJCIACPP@BGL_RESPNT?$AA@ 004e2de0     ssg_vs2008_32:ssgLoadMDL.obj
 0002:00004dec       ??_C@_0O@CHLEIIHJ@OBSOLETE?50x7f?$AA@ 004e2dec     ssg_vs2008_32:ssgLoadMDL.obj
 0002:00004dfc       ??_C@_0BC@BBJBIJHN@BGL_SETWRD_GLOBAL?$AA@ 004e2dfc     ssg_vs2008_32:ssgLoadMDL.obj
 0002:00004e10       ??_C@_0BA@MHOFBFIP@BGL_PERSPECTIVE?$AA@ 004e2e10     ssg_vs2008_32:ssgLoadMDL.obj
 0002:00004e20       ??_C@_0L@CPADNOG@BGL_SELECT?$AA@ 004e2e20     ssg_vs2008_32:ssgLoadMDL.obj
 0002:00004e2c       ??_C@_0O@EDNIENHN@OBSOLETE?50x7b?$AA@ 004e2e2c     ssg_vs2008_32:ssgLoadMDL.obj
 0002:00004e3c       ??_C@_0BA@GGIGKBAE@BGL_GFACET_TMAP?$AA@ 004e2e3c     ssg_vs2008_32:ssgLoadMDL.obj
 0002:00004e4c       ??_C@_0BA@IHOJHMDM@BGL_RIVER_CONTW?$AA@ 004e2e4c     ssg_vs2008_32:ssgLoadMDL.obj
 0002:00004e5c       ??_C@_0P@EPNGCJIG@BGL_ROAD_CONTW?$AA@ 004e2e5c     ssg_vs2008_32:ssgLoadMDL.obj
 0002:00004e6c       ??_C@_0BJ@DAKADIN@BGL_SCALE_AGL?5?9?5RefPoint?$AA@ 004e2e6c     ssg_vs2008_32:ssgLoadMDL.obj
 0002:00004e88       ??_C@_0BG@HPNJAF@BGL_BGL?5?9?5Perspective?$AA@ 004e2e88     ssg_vs2008_32:ssgLoadMDL.obj
 0002:00004ea0       ??_C@_0L@MEPBJDNJ@BGL_ADDMNT?$AA@ 004e2ea0     ssg_vs2008_32:ssgLoadMDL.obj
 0002:00004eac       ??_C@_0L@CPHCKDNH@BGL_ADDCAT?$AA@ 004e2eac     ssg_vs2008_32:ssgLoadMDL.obj
 0002:00004eb8       ??_C@_0N@LNLONBJB@BGL_IFINBOXP?$AA@ 004e2eb8     ssg_vs2008_32:ssgLoadMDL.obj
 0002:00004ec8       ??_C@_0O@PJGDBACJ@OBSOLETE?50x72?$AA@ 004e2ec8     ssg_vs2008_32:ssgLoadMDL.obj
 0002:00004ed8       ??_C@_0BB@HLBCGANP@BGL_ALTITUDE_SET?$AA@ 004e2ed8     ssg_vs2008_32:ssgLoadMDL.obj
 0002:00004eec       ??_C@_0P@ILEDKCBA@BGL_AREA_SENSE?$AA@ 004e2eec     ssg_vs2008_32:ssgLoadMDL.obj
 0002:00004efc       ??_C@_0BB@JADNEEJN@BGL_TAXIWAY_CONT?$AA@ 004e2efc     ssg_vs2008_32:ssgLoadMDL.obj
 0002:00004f10       ??_C@_0BC@BIPBICAB@BGL_TAXIWAY_START?$AA@ 004e2f10     ssg_vs2008_32:ssgLoadMDL.obj
 0002:00004f24       ??_C@_0M@KKNNMJBO@BGL_IFSIZEH?$AA@ 004e2f24     ssg_vs2008_32:ssgLoadMDL.obj
 0002:00004f30       ??_C@_0P@BENACKMG@BGL_RIVER_CONT?$AA@ 004e2f30     ssg_vs2008_32:ssgLoadMDL.obj
 0002:00004f40       ??_C@_0BA@OEMMOHBD@BGL_RIVER_START?$AA@ 004e2f40     ssg_vs2008_32:ssgLoadMDL.obj
 0002:00004f50       ??_C@_0O@PMNEBAPE@BGL_ROAD_CONT?$AA@ 004e2f50     ssg_vs2008_32:ssgLoadMDL.obj
 0002:00004f60       ??_C@_0P@CMPDLCKJ@BGL_ROAD_START?$AA@ 004e2f60     ssg_vs2008_32:ssgLoadMDL.obj
 0002:00004f70       ??_C@_08EICEIJOP@OBSOLETE?$AA@ 004e2f70     ssg_vs2008_32:ssgLoadMDL.obj
 0002:00004f7c       ??_C@_0M@OPGIDFKC@BGL_VLCOLOR?$AA@ 004e2f7c     ssg_vs2008_32:ssgLoadMDL.obj
 0002:00004f88       ??_C@_0M@ONGPGBFI@BGL_VGCOLOR?$AA@ 004e2f88     ssg_vs2008_32:ssgLoadMDL.obj
 0002:00004f94       ??_C@_0M@HOPONJIF@BGL_VSCOLOR?$AA@ 004e2f94     ssg_vs2008_32:ssgLoadMDL.obj
 0002:00004fa0       ??_C@_08HPILAEEN@BGL_LIST?$AA@ 004e2fa0     ssg_vs2008_32:ssgLoadMDL.obj
 0002:00004fac       ??_C@_0BB@KHIMJHLD@BGL_LIBRARY_CALL?$AA@ 004e2fac     ssg_vs2008_32:ssgLoadMDL.obj
 0002:00004fc0       ??_C@_09GIDJHOMN@BGL_IFVIS?$AA@ 004e2fc0     ssg_vs2008_32:ssgLoadMDL.obj
 0002:00004fcc       ??_C@_0O@BHCEBCAD@RESERVED?50x53?$AA@ 004e2fcc     ssg_vs2008_32:ssgLoadMDL.obj
 0002:00004fdc       ??_C@_0O@OJPIOHBN@BGL_FACE_TMAP?$AA@ 004e2fdc     ssg_vs2008_32:ssgLoadMDL.obj
 0002:00004fec       ??_C@_0M@HOJMPGMB@BGL_IFSIZEV?$AA@ 004e2fec     ssg_vs2008_32:ssgLoadMDL.obj
 0002:00004ff8       ??_C@_0O@PBNAPNE@OBSOLETE?50x5e?$AA@ 004e2ff8     ssg_vs2008_32:ssgLoadMDL.obj
 0002:00005008       ??_C@_0BD@BIIMGCAH@BGL_TEXTURE_REPEAT?$AA@ 004e3008     ssg_vs2008_32:ssgLoadMDL.obj
 0002:0000501c       ??_C@_0O@FJEHKIFC@OBSOLETE?50x5c?$AA@ 004e301c     ssg_vs2008_32:ssgLoadMDL.obj
 0002:0000502c       ??_C@_0O@EAFMJJBD@OBSOLETE?50x5b?$AA@ 004e302c     ssg_vs2008_32:ssgLoadMDL.obj
 0002:0000503c       ??_C@_0O@GLHBMKNA@OBSOLETE?50x5a?$AA@ 004e303c     ssg_vs2008_32:ssgLoadMDL.obj
 0002:0000504c       ??_C@_0O@BJBDBNIM@OBSOLETE?50x59?$AA@ 004e304c     ssg_vs2008_32:ssgLoadMDL.obj
 0002:0000505c       ??_C@_0BD@MAPPOGIG@BLG_TEXTURE_BOUNDS?$AA@ 004e305c     ssg_vs2008_32:ssgLoadMDL.obj
 0002:00005070       ??_C@_0BA@LPADBCOE@BGL_SET_WEATHER?$AA@ 004e3070     ssg_vs2008_32:ssgLoadMDL.obj
 0002:00005080       ??_C@_0BB@COKGLDMI@BGL_SURFACE_TYPE?$AA@ 004e3080     ssg_vs2008_32:ssgLoadMDL.obj
 0002:00005094       ??_C@_0O@KMLNGDMB@OBSOLETE?50x54?$AA@ 004e3094     ssg_vs2008_32:ssgLoadMDL.obj
 0002:000050a4       ??_C@_0O@ODPMPFAG@OBSOLETE?50x53?$AA@ 004e30a4     ssg_vs2008_32:ssgLoadMDL.obj
 0002:000050b4       ??_C@_0P@CLOODOO@BGL_NEW_SCOLOR?$AA@ 004e30b4     ssg_vs2008_32:ssgLoadMDL.obj
 0002:000050c4       ??_C@_0P@JDCIAPMJ@BGL_NEW_LCOLOR?$AA@ 004e30c4     ssg_vs2008_32:ssgLoadMDL.obj
 0002:000050d4       ??_C@_0L@CCNAANJO@BGL_GCOLOR?$AA@ 004e30d4     ssg_vs2008_32:ssgLoadMDL.obj
 0002:000050e0       ??_C@_0N@IPHFMNCD@BGL_MOVEWORD?$AA@ 004e30e0     ssg_vs2008_32:ssgLoadMDL.obj
 0002:000050f0       ??_C@_0M@LJJDMKBG@BGL_MOVEG2L?$AA@ 004e30f0     ssg_vs2008_32:ssgLoadMDL.obj
 0002:000050fc       ??_C@_0M@INGGJENM@BGL_MOVEL2G?$AA@ 004e30fc     ssg_vs2008_32:ssgLoadMDL.obj
 0002:00005108       ??_C@_0L@NAPAJHGM@BGL_VSCALE?$AA@ 004e3108     ssg_vs2008_32:ssgLoadMDL.obj
 0002:00005114       ??_C@_0O@NEBKNHIG@OBSOLETE?50x4B?$AA@ 004e3114     ssg_vs2008_32:ssgLoadMDL.obj
 0002:00005124       ??_C@_0O@PPDHIEEF@OBSOLETE?50x4A?$AA@ 004e3124     ssg_vs2008_32:ssgLoadMDL.obj
 0002:00005134       ??_C@_0N@DHBECJKH@BGL_BUILDING?$AA@ 004e3134     ssg_vs2008_32:ssgLoadMDL.obj
 0002:00005144       ??_C@_0M@BEINDGNF@BGL_VAR_SEG?$AA@ 004e3144     ssg_vs2008_32:ssgLoadMDL.obj
 0002:00005150       ??_C@_08CHHGCPCC@RESERVED?$AA@ 004e3150     ssg_vs2008_32:ssgLoadMDL.obj
 0002:0000515c       ??_C@_0BB@CGCKEINA@BGL_POINT_VICALL?$AA@ 004e315c     ssg_vs2008_32:ssgLoadMDL.obj
 0002:00005170       ??_C@_0O@LEGEDILH@OBSOLETE?50x45?$AA@ 004e3170     ssg_vs2008_32:ssgLoadMDL.obj
 0002:00005180       ??_C@_0BD@ILDEKICG@BGL_TEXTURE_RUNWAY?$AA@ 004e3180     ssg_vs2008_32:ssgLoadMDL.obj
 0002:00005194       ??_C@_0N@DONMDIAF@BGL_TEXTURE2?$AA@ 004e3194     ssg_vs2008_32:ssgLoadMDL.obj
 0002:000051a4       ??_C@_0BD@JPPBDDPD@BGL_POLYGON_RUNWAY?$AA@ 004e31a4     ssg_vs2008_32:ssgLoadMDL.obj
 0002:000051b8       ??_C@_0BC@PMPGHCLM@BGL_SHADOW_VICALL?$AA@ 004e31b8     ssg_vs2008_32:ssgLoadMDL.obj
 0002:000051cc       ??_C@_0BF@NBGDNFGG@BGL_SHADOW_VPOSITION?$AA@ 004e31cc     ssg_vs2008_32:ssgLoadMDL.obj
 0002:000051e4       ??_C@_0BA@IJBOANDJ@BGL_SHADOW_CALL?$AA@ 004e31e4     ssg_vs2008_32:ssgLoadMDL.obj
 0002:000051f4       ??_C@_09KNDNIAG@BGL_FACET?$AA@ 004e31f4     ssg_vs2008_32:ssgLoadMDL.obj
 0002:00005200       ??_C@_08IFIEHGDF@BGL_SEED?$AA@ 004e3200     ssg_vs2008_32:ssgLoadMDL.obj
 0002:0000520c       ??_C@_0N@HLNKHKHM@BGL_POSITION?$AA@ 004e320c     ssg_vs2008_32:ssgLoadMDL.obj
 0002:0000521c       ??_C@_0O@OMGANGN@BGL_VINSTANCE?$AA@ 004e321c     ssg_vs2008_32:ssgLoadMDL.obj
 0002:0000522c       ??_C@_0O@KCHOOIHI@BGL_VPOSITION?$AA@ 004e322c     ssg_vs2008_32:ssgLoadMDL.obj
 0002:0000523c       ??_C@_09HMILBAKM@BGL_IFMSK?$AA@ 004e323c     ssg_vs2008_32:ssgLoadMDL.obj
 0002:00005248       ??_C@_0M@HHKLCKBL@BGL_CONCAVE?$AA@ 004e3248     ssg_vs2008_32:ssgLoadMDL.obj
 0002:00005254       ??_C@_09DIEIIGE@BGL_POINT?$AA@ 004e3254     ssg_vs2008_32:ssgLoadMDL.obj
 0002:00005260       ??_C@_0O@JKAGHNPB@OBSOLETE?50x36?$AA@ 004e3260     ssg_vs2008_32:ssgLoadMDL.obj
 0002:00005270       ??_C@_0L@OGLGMOHK@BGL_PNTROW?$AA@ 004e3270     ssg_vs2008_32:ssgLoadMDL.obj
 0002:0000527c       ??_C@_0BA@EBDKGLMP@BGL_SUPER_SCALE?$AA@ 004e327c     ssg_vs2008_32:ssgLoadMDL.obj
 0002:0000528c       ??_C@_0BL@GDNFFHMK@BGL_INSTANCE?5?9?5RotatedCall?$AA@ 004e328c     ssg_vs2008_32:ssgLoadMDL.obj
 0002:000052a8       ??_C@_0BN@HCLNELBE@BGL_ADDOBJ?5?9?5PerspectiveCall?$AA@ 004e32a8     ssg_vs2008_32:ssgLoadMDL.obj
 0002:000052c8       ??_C@_0L@KJMOPDIA@BGL_RESROW?$AA@ 004e32c8     ssg_vs2008_32:ssgLoadMDL.obj
 0002:000052d4       ??_C@_0O@MMFMNKHH@OBSOLETE?50x30?$AA@ 004e32d4     ssg_vs2008_32:ssgLoadMDL.obj
 0002:000052e4       ??_C@_09NFAJMIFK@BGL_SCALE?$AA@ 004e32e4     ssg_vs2008_32:ssgLoadMDL.obj
 0002:000052f0       ??_C@_0N@IPODKFCN@BGL_LCOLOR24?$AA@ 004e32f0     ssg_vs2008_32:ssgLoadMDL.obj
 0002:00005300       ??_C@_0N@PMJKCIIN@BGL_SCOLOR24?$AA@ 004e3300     ssg_vs2008_32:ssgLoadMDL.obj
 0002:00005310       ??_C@_0L@CLMHMDPC@BGL_REJECT?$AA@ 004e3310     ssg_vs2008_32:ssgLoadMDL.obj
 0002:0000531c       ??_C@_0N@MKFPBLEH@BGL_ADDOBJ32?$AA@ 004e331c     ssg_vs2008_32:ssgLoadMDL.obj
 0002:0000532c       ??_C@_0L@MOIDBAEK@BGL_GFACET?$AA@ 004e332c     ssg_vs2008_32:ssgLoadMDL.obj
 0002:00005338       ??_C@_0N@HAHIFLL@BGL_GRESLIST?$AA@ 004e3338     ssg_vs2008_32:ssgLoadMDL.obj
 0002:00005348       ??_C@_0O@FEHDKEI@OBSOLETE?50x28?$AA@ 004e3348     ssg_vs2008_32:ssgLoadMDL.obj
 0002:00005358       ??_C@_0O@ICNPCGIH@OBSOLETE?50x27?$AA@ 004e3358     ssg_vs2008_32:ssgLoadMDL.obj
 0002:00005368       ??_C@_0L@PPFGKFKH@BGL_SETWRD?$AA@ 004e3368     ssg_vs2008_32:ssgLoadMDL.obj
 0002:00005374       ??_C@_0BF@GPCBJNCF@BGL_SEPARATION_PLANE?$AA@ 004e3374     ssg_vs2008_32:ssgLoadMDL.obj
 0002:0000538c       ??_C@_09DCMHCGKE@BGL_IFIN1?$AA@ 004e338c     ssg_vs2008_32:ssgLoadMDL.obj
 0002:00005398       ??_C@_08KNAOMHGH@BGL_CALL?$AA@ 004e3398     ssg_vs2008_32:ssgLoadMDL.obj
 0002:000053a4       ??_C@_0BE@DPGMIDGB@BGL_RETURN?5?9?5Return?$AA@ 004e33a4     ssg_vs2008_32:ssgLoadMDL.obj
 0002:000053b8       ??_C@_09PBEECG@BGL_IFIN3?$AA@ 004e33b8     ssg_vs2008_32:ssgLoadMDL.obj
 0002:000053c4       ??_C@_0P@ILFGOOFP@BGL_FACET_TMAP?$AA@ 004e33c4     ssg_vs2008_32:ssgLoadMDL.obj
 0002:000053d4       ??_C@_0O@NHOBBDMO@RESERVED?50x1f?$AA@ 004e33d4     ssg_vs2008_32:ssgLoadMDL.obj
 0002:000053e4       ??_C@_08BDLHJCPN@BGL_HAZE?$AA@ 004e33e4     ssg_vs2008_32:ssgLoadMDL.obj
 0002:000053f0       ??_C@_08LPHALEGD@BGL_FACE?$AA@ 004e33f0     ssg_vs2008_32:ssgLoadMDL.obj
 0002:000053fc       ??_C@_09BJOKHFGH@BGL_IFIN2?$AA@ 004e33fc     ssg_vs2008_32:ssgLoadMDL.obj
 0002:00005408       ??_C@_0BH@DPDKIFAD@BGL_IFIN_BOX_RAW_PLANE?$AA@ 004e3408     ssg_vs2008_32:ssgLoadMDL.obj
 0002:00005420       ??_C@_0M@MOHEALGA@BGL_RESLIST?$AA@ 004e3420     ssg_vs2008_32:ssgLoadMDL.obj
 0002:0000542c       ??_C@_0M@HDGLEAOG@BGL_PALETTE?$AA@ 004e342c     ssg_vs2008_32:ssgLoadMDL.obj
 0002:00005438       ??_C@_0M@HKJIIPGH@BGL_TEXTURE?$AA@ 004e3438     ssg_vs2008_32:ssgLoadMDL.obj
 0002:00005444       ??_C@_0BD@ELGEAGEM@BGL_TEXTURE_ENABLE?$AA@ 004e3444     ssg_vs2008_32:ssgLoadMDL.obj
 0002:00005458       ??_C@_0O@GNFKEOJK@RESERVED?50x16?$AA@ 004e3458     ssg_vs2008_32:ssgLoadMDL.obj
 0002:00005468       ??_C@_0BC@CEBJPPMP@BGL_ELEVATION_MAP?$AA@ 004e3468     ssg_vs2008_32:ssgLoadMDL.obj
 0002:0000547c       ??_C@_0L@LBEBLFED@BGL_SCOLOR?$AA@ 004e347c     ssg_vs2008_32:ssgLoadMDL.obj
 0002:00005488       ??_C@_0O@OEPFFNNK@OBSOLETE?50x13?$AA@ 004e3488     ssg_vs2008_32:ssgLoadMDL.obj
 0002:00005498       ??_C@_0O@PNOOGMJL@OBSOLETE?50x12?$AA@ 004e3498     ssg_vs2008_32:ssgLoadMDL.obj
 0002:000054a8       ??_C@_0O@NGMDDPFI@OBSOLETE?50x11?$AA@ 004e34a8     ssg_vs2008_32:ssgLoadMDL.obj
 0002:000054b8       ??_C@_0L@NJHLAIPL@BGL_CNTRES?$AA@ 004e34b8     ssg_vs2008_32:ssgLoadMDL.obj
 0002:000054c4       ??_C@_0L@JDKIEAGI@BGL_STRRES?$AA@ 004e34c4     ssg_vs2008_32:ssgLoadMDL.obj
 0002:000054d0       ??_C@_0L@GMDLACFE@BGL_DEFRES?$AA@ 004e34d0     ssg_vs2008_32:ssgLoadMDL.obj
 0002:000054dc       ??_C@_08JINAFCLE@BGL_JUMP?$AA@ 004e34dc     ssg_vs2008_32:ssgLoadMDL.obj
 0002:000054e8       ??_C@_0O@FPIMGKLJ@OBSOLETE?50x0c?$AA@ 004e34e8     ssg_vs2008_32:ssgLoadMDL.obj
 0002:000054f8       ??_C@_0O@EGJHFLPI@OBSOLETE?50x0b?$AA@ 004e34f8     ssg_vs2008_32:ssgLoadMDL.obj
 0002:00005508       ??_C@_0O@GNLKAIDL@OBSOLETE?50x0a?$AA@ 004e3508     ssg_vs2008_32:ssgLoadMDL.obj
 0002:00005518       ??_C@_0O@BPNINPGH@OBSOLETE?50x09?$AA@ 004e3518     ssg_vs2008_32:ssgLoadMDL.obj
 0002:00005528       ??_C@_0M@OOEMGAAG@BLG_CLOSURE?$AA@ 004e3528     ssg_vs2008_32:ssgLoadMDL.obj
 0002:00005534       ??_C@_08MEDELLKK@BGL_CPNT?$AA@ 004e3534     ssg_vs2008_32:ssgLoadMDL.obj
 0002:00005540       ??_C@_08KENECMCI@BGL_SPNT?$AA@ 004e3540     ssg_vs2008_32:ssgLoadMDL.obj
 0002:0000554c       ??_C@_0BD@HDGAPGBM@BGL_SURFACE?5?9?5Area?$AA@ 004e354c     ssg_vs2008_32:ssgLoadMDL.obj
 0002:00005560       ??_C@_0O@FOKOEGCP@RESERVED?50x04?$AA@ 004e3560     ssg_vs2008_32:ssgLoadMDL.obj
 0002:00005570       ??_C@_08GLLGJIGD@BGL_CASE?$AA@ 004e3570     ssg_vs2008_32:ssgLoadMDL.obj
 0002:0000557c       ??_C@_08FBHAJHOB@BGL_NOOP?$AA@ 004e357c     ssg_vs2008_32:ssgLoadMDL.obj
 0002:00005588       ??_C@_0O@NHABFFGP@OBSOLETE?50x01?$AA@ 004e3588     ssg_vs2008_32:ssgLoadMDL.obj
 0002:00005598       ??_C@_07MDDPLGIN@BGL_EOF?$AA@ 004e3598     ssg_vs2008_32:ssgLoadMDL.obj
 0002:00006448       __real@3f60000000000000    004e4448     ssg_vs2008_32:ssgLoadMDL.obj
 0002:00006450       ??_C@_0DB@MLLHFICJ@ssgLoadMDL?3?5Index?5out?5of?5bounds?4@ 004e4450     ssg_vs2008_32:ssgLoadMDL.obj
 0002:00006484       ??_C@_0M@NBLMMMOL@?$CFs?6?9?9?9?9?9?9?9?6?$AA@ 004e4484     ssg_vs2008_32:ssgLoadMDL.obj
 0002:00006490       ??_C@_0CJ@NDEHGHEI@ssgLoadMDL?3?5Index?5out?5of?5bounds?4@ 004e4490     ssg_vs2008_32:ssgLoadMDL.obj
 0002:000064bc       __real@bf000000            004e44bc     ssg_vs2008_32:ssgLoadMDL.obj
 0002:000064c0       ??_C@_06MBBPNKFI@?$CFs?$CFf?0?5?$AA@ 004e44c0     ssg_vs2008_32:ssgLoadMDL.obj
 0002:000064c8       ??_C@_0BL@GEPHHPEO@?9?9?9?9?9?9?9?5?$CFld?5?$CFf?6?$CFf?0?5?$CFf?0?5?$CFf?6?$AA@ 004e44c8     ssg_vs2008_32:ssgLoadMDL.obj
 0002:000064e8       __real@416fffc000000000    004e44e8     ssg_vs2008_32:ssgLoadMDL.obj
 0002:000064f0       ??_C@_0CN@HBOMKHJF@ssgLoadMDL?3?5Index?5out?5of?5bounds?4@ 004e44f0     ssg_vs2008_32:ssgLoadMDL.obj
 0002:00006520       ??_C@_0CJ@DEKLMLPN@ssgLoadMDL?3?5Index?5out?5of?5bounds?5@ 004e4520     ssg_vs2008_32:ssgLoadMDL.obj
 0002:0000654c       ??_C@_0CO@NKDIDFHA@ssgLoadMDL?3?5Index?5array?5with?5too@ 004e454c     ssg_vs2008_32:ssgLoadMDL.obj
 0002:0000657c       ??_C@_0CN@HOINIBNM@ssgLoadMDL?3?5Texture?5coord?5out?5of@ 004e457c     ssg_vs2008_32:ssgLoadMDL.obj
 0002:000065b0       __real@47efffffe0000000    004e45b0     ssg_vs2008_32:ssgLoadMDL.obj
 0002:000065b8       __real@7f7fffff            004e45b8     ssg_vs2008_32:ssgLoadMDL.obj
 0002:000065c0       __real@3fefae1480000000    004e45c0     ssg_vs2008_32:ssgLoadMDL.obj
 0002:000065c8       __real@42480000            004e45c8     ssg_vs2008_32:ssgLoadMDL.obj
 0002:000065cc       ??_C@_06CELAOPIE@lod?5?$CFd?$AA@ 004e45cc     ssg_vs2008_32:ssgLoadMDL.obj
 0002:000065d4       ??_C@_09PHNEMFNP@propeller?$AA@ 004e45d4     ssg_vs2008_32:ssgLoadMDL.obj
 0002:000065e0       ??_C@_08CNNAOMDJ@spoilers?$AA@ 004e45e0     ssg_vs2008_32:ssgLoadMDL.obj
 0002:000065ec       ??_C@_04EKCLBOON@gear?$AA@ 004e45ec     ssg_vs2008_32:ssgLoadMDL.obj
 0002:000065f4       ??_C@_05BPCLPKFE@flaps?$AA@ 004e45f4     ssg_vs2008_32:ssgLoadMDL.obj
 0002:000065fc       ??_C@_08CPGJOFLL@ailerons?$AA@ 004e45fc     ssg_vs2008_32:ssgLoadMDL.obj
 0002:00006608       ??_C@_08JCDOOJIP@elevator?$AA@ 004e4608     ssg_vs2008_32:ssgLoadMDL.obj
 0002:00006614       ??_C@_06MJGINOJH@rudder?$AA@ 004e4614     ssg_vs2008_32:ssgLoadMDL.obj
 0002:0000661c       __real@43b40000            004e461c     ssg_vs2008_32:ssgLoadMDL.obj
 0002:00006620       __real@c2b40000            004e4620     ssg_vs2008_32:ssgLoadMDL.obj
 0002:00006624       __real@428c0000            004e4624     ssg_vs2008_32:ssgLoadMDL.obj
 0002:00006628       __real@41f00000            004e4628     ssg_vs2008_32:ssgLoadMDL.obj
 0002:0000662c       __real@c1f00000            004e462c     ssg_vs2008_32:ssgLoadMDL.obj
 0002:00006630       ??_C@_0DO@HEHKEFAI@i1?$CLbase?5?$DN?5?$CFd?0?5i1?5?$DN?5?$CFd?0?5base?5?$DN?5?$CFd@ 004e4630     ssg_vs2008_32:ssgLoadMDL.obj
 0002:00006670       ??_C@_0DL@GCHKKFEP@tex_coords_?9?$DOgetNum?$CI?$CJ?5?$DN?5?$CFd?0?5?5ver@ 004e4670     ssg_vs2008_32:ssgLoadMDL.obj
 0002:000066ac       ??_C@_03CNFPPDJC@BMP?$AA@  004e46ac     ssg_vs2008_32:ssgLoadMDL.obj
 0002:000066b0       __real@3df0000000000000    004e46b0     ssg_vs2008_32:ssgLoadMDL.obj
 0002:000066b8       __real@4f800000            004e46b8     ssg_vs2008_32:ssgLoadMDL.obj
 0002:000066bc       ??_C@_0BE@IPDHAIAB@ssgAxisRotation?$CI?$CFx?$CJ?$AA@ 004e46bc     ssg_vs2008_32:ssgLoadMDL.obj
 0002:000066d0       __real@40efffe000000000    004e46d0     ssg_vs2008_32:ssgLoadMDL.obj
 0002:000066d8       ??_C@_04PBCJDDEJ@BGL?5?$AA@ 004e46d8     ssg_vs2008_32:ssgLoadMDL.obj
 0002:000066e0       ??_C@_0CK@IIJLNAI@RIFF?5Chunk?5?8?$CFs?8?5found?0?5data?5leng@ 004e46e0     ssg_vs2008_32:ssgLoadMDL.obj
 0002:0000670c       ??_C@_0CG@OPDBDNKE@RIFF?5file?0?5subtype?5?8MDL8?8?5recogn@ 004e470c     ssg_vs2008_32:ssgLoadMDL.obj
 0002:00006734       ??_C@_0CB@NGGNFJBM@Warning?3?5Not?5a?5?8MDL8?8?5RIFF?5file?6@ 004e4734     ssg_vs2008_32:ssgLoadMDL.obj
 0002:00006758       ??_C@_0BK@LMCIBGFM@noGT?$DN?$CFd?0?5noLT?$DN?$CFd?0?5no0?$DN?$CFd?6?$AA@ 004e4758     ssg_vs2008_32:ssgLoadMDL.obj
 0002:00006774       ??_C@_0N@CEHMBBCD@NoLoDs?5?$DN?5?$CFd?6?$AA@ 004e4774     ssg_vs2008_32:ssgLoadMDL.obj
 0002:00006784       ??_C@_0CM@IBBILLIC@ssgLoadMDL?3?5No?5BGL?5Code?5found?5in@ 004e4784     ssg_vs2008_32:ssgLoadMDL.obj
 0002:000067b0       ??_C@_0CJ@HHFDOOLJ@found?5a?5good?5RIFF?5header?5at?5addr@ 004e47b0     ssg_vs2008_32:ssgLoadMDL.obj
 0002:000067dc       ??_C@_0DB@KCEIMCEN@strange?4?4?4?5found?5RIFF?0?5but?5on?5an@ 004e47dc     ssg_vs2008_32:ssgLoadMDL.obj
 0002:00006810       ??_C@_0CJ@BAIEJKEL@ssgLoadMDL?3?5Couldn?8t?5open?5MDL?5fi@ 004e4810     ssg_vs2008_32:ssgLoadMDL.obj
 0002:0000683c       ??_C@_05JODGIKH@Light?$AA@ 004e483c     ssg_vs2008_32:ssgLoadASC.obj
 0002:00006844       ??_C@_08GCJNLIKG@Position?$AA@ 004e4844     ssg_vs2008_32:ssgLoadASC.obj
 0002:00006850       ??_C@_06HDAEFCGM@Direct?$AA@ 004e4850     ssg_vs2008_32:ssgLoadASC.obj
 0002:00006858       ??_C@_09IAGFJCLC@Smoothing?$AA@ 004e4858     ssg_vs2008_32:ssgLoadASC.obj
 0002:00006864       ??_C@_08CPBFELGP@Material?$AA@ 004e4864     ssg_vs2008_32:ssgLoadASC.obj
 0002:00006870       ??_C@_04DPOPNPPG@Face?$AA@ 004e4870     ssg_vs2008_32:ssgLoadASC.obj
 0002:00006878       ??_C@_06LEBKBMLE@Vertex?$AA@ 004e4878     ssg_vs2008_32:ssgLoadASC.obj
 0002:00006880       ??_C@_06FJIHAPPM@Mapped?$AA@ 004e4880     ssg_vs2008_32:ssgLoadASC.obj
 0002:00006888       ??_C@_06FHBILLDG@Hidden?$AA@ 004e4888     ssg_vs2008_32:ssgLoadASC.obj
 0002:00006890       ??_C@_09PANGKDNJ@Tri?9mesh?0?$AA@ 004e4890     ssg_vs2008_32:ssgLoadASC.obj
 0002:0000689c       ??_C@_05FJPMODAL@Named?$AA@ 004e489c     ssg_vs2008_32:ssgLoadASC.obj
 0002:000068a4       ??_C@_05OICCNCCO@Solid?$AA@ 004e48a4     ssg_vs2008_32:ssgLoadASC.obj
 0002:000068ac       ??_C@_07EBHHCJEE@Ambient?$AA@ 004e48ac     ssg_vs2008_32:ssgLoadASC.obj
 0002:000068b4       ??_C@_04IGPKFDJI@Near?$AA@ 004e48b4     ssg_vs2008_32:ssgLoadASC.obj
 0002:000068bc       ??_C@_04FMDEMHOL@Bank?$AA@ 004e48bc     ssg_vs2008_32:ssgLoadASC.obj
 0002:000068c4       ??_C@_06FGANPIPG@Target?$AA@ 004e48c4     ssg_vs2008_32:ssgLoadASC.obj
 0002:000068cc       ??_C@_06JGBJPOPP@Global?$AA@ 004e48cc     ssg_vs2008_32:ssgLoadASC.obj
 0002:000068d4       ??_C@_07GHKCGFCG@Falloff?$AA@ 004e48d4     ssg_vs2008_32:ssgLoadASC.obj
 0002:000068dc       ??_C@_07FAHNIAHJ@Hotspot?$AA@ 004e48dc     ssg_vs2008_32:ssgLoadASC.obj
 0002:000068e4       ??_C@_09OPGLBMPF@Spotlight?$AA@ 004e48e4     ssg_vs2008_32:ssgLoadASC.obj
 0002:000068f0       ??_C@_02CBLDBPFN@?1?1?$AA@ 004e48f0     ssg_vs2008_32:ssgLoadASC.obj
 0002:000068f4       ??_C@_01CELHOKLL@?$HN?$AA@ 004e48f4     ssg_vs2008_32:ssgLoadASC.obj
 0002:000068f8       ??_C@_01HCONENDN@?$HL?$AA@ 004e48f8     ssg_vs2008_32:ssgLoadASC.obj
 0002:000068fc       ??_C@_02JKEIOFH@?$DN?3?$AA@ 004e48fc     ssg_vs2008_32:ssgLoadASC.obj
 0002:00006900       ??_C@_04DEKFDDBK@?$AN?6?7?5?$AA@ 004e4900     ssg_vs2008_32:ssgLoadASC.obj
 0002:0000690c       ??_C@_06JCBBMBIP@Camera?$AA@ 004e490c     ssg_vs2008_32:ssgLoadASC.obj
 0002:00006914       ??_C@_04NHEGBFAI@Page?$AA@ 004e4914     ssg_vs2008_32:ssgLoadASC.obj
 0002:0000691c       ??_C@_0DB@HICCLOCG@Mesh?5?8?$CFs?8?3?5Index?5?$CFd?5is?5not?5in?5th@ 004e491c     ssg_vs2008_32:ssgLoadASC.obj
 0002:00006950       ??_C@_05OEPGNJB@light?$AA@ 004e4950     ssg_vs2008_32:ssgLoadASC.obj
 0002:00006958       ??_C@_08IJJJJJCG@Target?5Z?$AA@ 004e4958     ssg_vs2008_32:ssgLoadASC.obj
 0002:00006964       ??_C@_01POHCFINO@Z?$AA@    004e4964     ssg_vs2008_32:ssgLoadASC.obj
 0002:00006968       ??_C@_08KCLEMKOF@Target?5Y?$AA@ 004e4968     ssg_vs2008_32:ssgLoadASC.obj
 0002:00006974       ??_C@_01NFFPALBN@Y?$AA@    004e4974     ssg_vs2008_32:ssgLoadASC.obj
 0002:00006978       ??_C@_08LLKPPLKE@Target?5X?$AA@ 004e4978     ssg_vs2008_32:ssgLoadASC.obj
 0002:00006984       ??_C@_01MMEEDKFM@X?$AA@    004e4984     ssg_vs2008_32:ssgLoadASC.obj
 0002:00006988       ??_C@_01JLIPDDHJ@?3?$AA@   004e4988     ssg_vs2008_32:ssgLoadASC.obj
 0002:0000698c       ??_C@_07MHOHEFBH@degrees?$AA@ 004e498c     ssg_vs2008_32:ssgLoadASC.obj
 0002:00006994       ??_C@_0L@OIPICJPL@Bank?5angle?$AA@ 004e4994     ssg_vs2008_32:ssgLoadASC.obj
 0002:000069a0       ??_C@_05FECBCJJD@angle?$AA@ 004e49a0     ssg_vs2008_32:ssgLoadASC.obj
 0002:000069a8       ??_C@_03DENIJNGB@Far?$AA@  004e49a8     ssg_vs2008_32:ssgLoadASC.obj
 0002:000069ac       ??_C@_07CDEAFLMP@light?5Z?$AA@ 004e49ac     ssg_vs2008_32:ssgLoadASC.obj
 0002:000069b4       ??_C@_07IGNAIAM@light?5Y?$AA@ 004e49b4     ssg_vs2008_32:ssgLoadASC.obj
 0002:000069bc       ??_C@_07BBHGDJEN@light?5X?$AA@ 004e49bc     ssg_vs2008_32:ssgLoadASC.obj
 0002:000069c4       ??_C@_0P@BHNNKLLK@Spotlight?5to?5Z?$AA@ 004e49c4     ssg_vs2008_32:ssgLoadASC.obj
 0002:000069d4       ??_C@_0P@DMPAPIHJ@Spotlight?5to?5Y?$AA@ 004e49d4     ssg_vs2008_32:ssgLoadASC.obj
 0002:000069e4       ??_C@_0P@CFOLMJDI@Spotlight?5to?5X?$AA@ 004e49e4     ssg_vs2008_32:ssgLoadASC.obj
 0002:000069f4       ??_C@_02LBCDJBAJ@to?$AA@   004e49f4     ssg_vs2008_32:ssgLoadASC.obj
 0002:000069f8       ??_C@_0N@EBBFMHBG@Hotspot?5size?$AA@ 004e49f8     ssg_vs2008_32:ssgLoadASC.obj
 0002:00006a08       ??_C@_04IAGNFIBA@size?$AA@ 004e4a08     ssg_vs2008_32:ssgLoadASC.obj
 0002:00006a10       ??_C@_0N@MCFPMDP@Falloff?5size?$AA@ 004e4a10     ssg_vs2008_32:ssgLoadASC.obj
 0002:00006a20       ??_C@_06KHOKADBJ@Shadow?$AA@ 004e4a20     ssg_vs2008_32:ssgLoadASC.obj
 0002:00006a28       ??_C@_0L@FICMDKCH@Light?5Blue?$AA@ 004e4a28     ssg_vs2008_32:ssgLoadASC.obj
 0002:00006a34       ??_C@_04CAKOHOCJ@Blue?$AA@ 004e4a34     ssg_vs2008_32:ssgLoadASC.obj
 0002:00006a3c       ??_C@_0M@IBCIDALH@Light?5Green?$AA@ 004e4a3c     ssg_vs2008_32:ssgLoadASC.obj
 0002:00006a48       ??_C@_05GGOIJPPE@Green?$AA@ 004e4a48     ssg_vs2008_32:ssgLoadASC.obj
 0002:00006a50       ??_C@_09NFINEDNE@Light?5red?$AA@ 004e4a50     ssg_vs2008_32:ssgLoadASC.obj
 0002:00006a5c       ??_C@_01NEMOKFLO@?$DN?$AA@ 004e4a5c     ssg_vs2008_32:ssgLoadASC.obj
 0002:00006a60       ??_C@_03PADCEAKC@Red?$AA@  004e4a60     ssg_vs2008_32:ssgLoadASC.obj
 0002:00006a64       ??_C@_05PEENBMOG@color?$AA@ 004e4a64     ssg_vs2008_32:ssgLoadASC.obj
 0002:00006a6c       ??_C@_0N@BHILECFF@Ambient?5blue?$AA@ 004e4a6c     ssg_vs2008_32:ssgLoadASC.obj
 0002:00006a7c       ??_C@_0O@DPGMIHNP@Ambient?5green?$AA@ 004e4a7c     ssg_vs2008_32:ssgLoadASC.obj
 0002:00006a8c       ??_C@_0M@NDFMMEJ@Ambient?5red?$AA@ 004e4a8c     ssg_vs2008_32:ssgLoadASC.obj
 0002:00006a98       ??_C@_0BA@FNADAHGD@Background?5blue?$AA@ 004e4a98     ssg_vs2008_32:ssgLoadASC.obj
 0002:00006aa8       ??_C@_0BB@PAJMJKAD@Background?5green?$AA@ 004e4aa8     ssg_vs2008_32:ssgLoadASC.obj
 0002:00006abc       ??_C@_0P@FKNFLLCN@Background?5red?$AA@ 004e4abc     ssg_vs2008_32:ssgLoadASC.obj
 0002:00006acc       ??_C@_0L@EGCKCJDC@background?$AA@ 004e4acc     ssg_vs2008_32:ssgLoadASC.obj
 0002:00006ad8       ??_C@_09BPCNAGO@Mesh?5name?$AA@ 004e4ad8     ssg_vs2008_32:ssgLoadASC.obj
 0002:00006ae4       ??_C@_06IEOJBDIK@object?$AA@ 004e4ae4     ssg_vs2008_32:ssgLoadASC.obj
 0002:00006af0       ??_C@_0GG@EGAHBLNL@MeshStatus?4isvalid?5is?5TRUE?4?5Prob@ 004e4af0     ssg_vs2008_32:ssgLoadASC.obj
 0002:00006b58       ??_C@_0N@GLAFHPMD@Number?5faces?$AA@ 004e4b58     ssg_vs2008_32:ssgLoadASC.obj
 0002:00006b68       ??_C@_05FAPDJCMD@Faces?$AA@ 004e4b68     ssg_vs2008_32:ssgLoadASC.obj
 0002:00006b70       ??_C@_0BA@CDEAEHDL@Number?5vertices?$AA@ 004e4b70     ssg_vs2008_32:ssgLoadASC.obj
 0002:00006b80       ??_C@_08JMEOJNII@Vertices?$AA@ 004e4b80     ssg_vs2008_32:ssgLoadASC.obj
 0002:00006b8c       __real@3f333333            004e4b8c     ssg_vs2008_32:ssgLoadASC.obj
 0002:00006b90       ??_C@_0O@KFDHPNLL@Material?5name?$AA@ 004e4b90     ssg_vs2008_32:ssgLoadASC.obj
 0002:00006ba0       ??_C@_01FCMHBHNC@V?$AA@    004e4ba0     ssg_vs2008_32:ssgLoadASC.obj
 0002:00006ba4       ??_C@_01HJOKEEBB@U?$AA@    004e4ba4     ssg_vs2008_32:ssgLoadASC.obj
 0002:00006ba8       ??_C@_0N@LBDMLFGB@vertex?5index?$AA@ 004e4ba8     ssg_vs2008_32:ssgLoadASC.obj
 0002:00006bb8       ??_C@_04DONFEANM@list?$AA@ 004e4bb8     ssg_vs2008_32:ssgLoadASC.obj
 0002:00006bc0       ??_C@_0N@DMMDIHGB@vertex?5list?$DP?$AA@ 004e4bc0     ssg_vs2008_32:ssgLoadASC.obj
 0002:00006bd0       ??_C@_02JLAAGLDA@CA?$AA@   004e4bd0     ssg_vs2008_32:ssgLoadASC.obj
 0002:00006bd4       ??_C@_02KIPEGDIF@BC?$AA@   004e4bd4     ssg_vs2008_32:ssgLoadASC.obj
 0002:00006bd8       ??_C@_02LDKJOMJN@AB?$AA@   004e4bd8     ssg_vs2008_32:ssgLoadASC.obj
 0002:00006bdc       ??_C@_01GFHCPBMG@C?$AA@    004e4bdc     ssg_vs2008_32:ssgLoadASC.obj
 0002:00006be0       ??_C@_01HMGJMAIH@B?$AA@    004e4be0     ssg_vs2008_32:ssgLoadASC.obj
 0002:00006be4       ??_C@_01FHEEJDEE@A?$AA@    004e4be4     ssg_vs2008_32:ssgLoadASC.obj
 0002:00006be8       ??_C@_0L@LCLPNFAM@Face?5index?$AA@ 004e4be8     ssg_vs2008_32:ssgLoadASC.obj
 0002:00006bf4       ??_C@_0L@DPEAOHAM@Face?5list?$DP?$AA@ 004e4bf4     ssg_vs2008_32:ssgLoadASC.obj
 0002:00006c00       ??_C@_0DJ@DGLCLBKJ@I?5am?5sorry?0?5but?5Entity?9type?5?8?$CFs?8@ 004e4c00     ssg_vs2008_32:ssgLoadASC.obj
 0002:00006c3c       ??_C@_0BE@JICBCMFC@unexpected?5token?5?$CFs?$AA@ 004e4c3c     ssg_vs2008_32:ssgLoadASC.obj
 0002:00006c54       ??_C@_0P@HFKNPJIE@Material?3?$CC?$CFs?$CC?6?$AA@ 004e4c54     ssg_vs2008_32:ssgSaveASC.obj
 0002:00006c64       ??_C@_0CI@POIKCIIN@Face?5?$CFd?3?5A?3?$CFd?5B?3?$CFd?5C?3?$CFd?5AB?31?5BC?3@ 004e4c64     ssg_vs2008_32:ssgSaveASC.obj
 0002:00006c8c       ??_C@_0M@PFKNCGKN@Face?5list?3?6?$AA@ 004e4c8c     ssg_vs2008_32:ssgSaveASC.obj
 0002:00006c98       ??_C@_0M@OLGDJNGK@?5U?3?$CFf?5V?3?$CFf?6?$AA@ 004e4c98     ssg_vs2008_32:ssgSaveASC.obj
 0002:00006ca4       ??_C@_0BK@ENDJNMIJ@Vertex?5?$CFd?3?5X?3?$CFf?5Y?3?$CFf?5Z?3?$CFf?$AA@ 004e4ca4     ssg_vs2008_32:ssgSaveASC.obj
 0002:00006cc0       ??_C@_09EDKODFPH@PALGREY27?$AA@ 004e4cc0     ssg_vs2008_32:ssgSaveASC.obj
 0002:00006ccc       ??_C@_0O@LMJMAPA@Vertex?5list?3?6?$AA@ 004e4ccc     ssg_vs2008_32:ssgSaveASC.obj
 0002:00006cdc       ??_C@_07EOLNNBLC@Mapped?6?$AA@ 004e4cdc     ssg_vs2008_32:ssgSaveASC.obj
 0002:00006ce4       ??_C@_0CG@CJGPOGLD@Tri?9mesh?0?5Vertices?3?5?$CFd?5?5?5?5?5Faces@ 004e4ce4     ssg_vs2008_32:ssgSaveASC.obj
 0002:00006d0c       ??_C@_0BE@HGBMBGKF@Named?5object?3?5?$CC?$CFs?$CC?6?$AA@ 004e4d0c     ssg_vs2008_32:ssgSaveASC.obj
 0002:00006d20       ??_C@_0ED@KNNFJGIE@Solid?5background?5color?3?5Red?$DN0?437@ 004e4d20     ssg_vs2008_32:ssgSaveASC.obj
 0002:00006d68       ??_C@_0EA@BBBMFOJC@Ambient?5light?5color?3?5Red?$DN0?403921@ 004e4d68     ssg_vs2008_32:ssgSaveASC.obj
 0002:00006da8       ??_C@_0CM@JICHOLIG@ssgSaveASC?3?5Failed?5to?5open?5?8?$CFs?8?5@ 004e4da8     ssg_vs2008_32:ssgSaveASC.obj
 0002:00006dd4       ??_C@_02CNOGACNO@wa?$AA@   004e4dd4     ssg_vs2008_32:ssgSaveASC.obj
 0002:00006dd8       ??_C@_0M@OIHFNOAG@Translation?$AA@ 004e4dd8     ssg_vs2008_32:ssgLoadIV.obj
 0002:00006de4       ??_C@_08GFJPCMMD@Rotation?$AA@ 004e4de4     ssg_vs2008_32:ssgLoadIV.obj
 0002:00006df0       ??_C@_05MAGIBEFI@Scale?$AA@ 004e4df0     ssg_vs2008_32:ssgLoadIV.obj
 0002:00006df8       ??_C@_0BA@MBABGHED@MatrixTransform?$AA@ 004e4df8     ssg_vs2008_32:ssgLoadIV.obj
 0002:00006e08       ??_C@_0L@HCOICBDD@ShapeHints?$AA@ 004e4e08     ssg_vs2008_32:ssgLoadIV.obj
 0002:00006e14       ??_C@_08LCBPNOHN@Texture2?$AA@ 004e4e14     ssg_vs2008_32:ssgLoadIV.obj
 0002:00006e20       ??_C@_0BD@NEGLAPJH@TextureCoordinate2?$AA@ 004e4e20     ssg_vs2008_32:ssgLoadIV.obj
 0002:00006e34       ??_C@_0M@HMELEGFA@Coordinate3?$AA@ 004e4e34     ssg_vs2008_32:ssgLoadIV.obj
 0002:00006e40       ??_C@_0P@BOIOFBNO@IndexedFaceSet?$AA@ 004e4e40     ssg_vs2008_32:ssgLoadIV.obj
 0002:00006e50       ??_C@_06PBEDFIPD@Switch?$AA@ 004e4e50     ssg_vs2008_32:ssgLoadIV.obj
 0002:00006e58       ??_C@_09IBFEOKHN@Separator?$AA@ 004e4e58     ssg_vs2008_32:ssgLoadIV.obj
 0002:00006e64       ??_C@_02FDICPOPH@?$HN?$FN?$AA@ 004e4e64     ssg_vs2008_32:ssgLoadIV.obj
 0002:00006e68       ??_C@_02BFFCFMD@?$HL?$FL?$AA@ 004e4e68     ssg_vs2008_32:ssgLoadIV.obj
 0002:00006e6c       ??_C@_05GBMIIBIP@?$AN?6?7?0?5?$AA@ 004e4e6c     ssg_vs2008_32:ssgLoadIV.obj
 0002:00006e7c       ??_7ssgListOfNodes@@6B@    004e4e7c     ssg_vs2008_32:ssgLoadIV.obj
 0002:00006eb0       ??_C@_0BF@GIPEKIPG@Replaced?5element?5?$CFi?4?$AA@ 004e4eb0     ssg_vs2008_32:ssgLoadIV.obj
 0002:00006ec8       ??_C@_05NCLELAOM@wrapT?$AA@ 004e4ec8     ssg_vs2008_32:ssgLoadIV.obj
 0002:00006ed0       ??_C@_06LCBKFLKD@REPEAT?$AA@ 004e4ed0     ssg_vs2008_32:ssgLoadIV.obj
 0002:00006ed8       ??_C@_05JNPFCGCL@wrapS?$AA@ 004e4ed8     ssg_vs2008_32:ssgLoadIV.obj
 0002:00006ee0       ??_C@_08BABJIOEM@filename?$AA@ 004e4ee0     ssg_vs2008_32:ssgLoadIV.obj
 0002:00006eec       ??_C@_0DH@PAOFDGCP@ssgLoadVRML?3?5Failed?5to?5extract?5v@ 004e4eec     ssg_vs2008_32:ssgLoadIV.obj
 0002:00006f24       ??_C@_0CF@JPMKAEMD@ssgLoadIV?3?5valid?5iv?5header?5not?5f@ 004e4f24     ssg_vs2008_32:ssgLoadIV.obj
 0002:00006f4c       ??_C@_0BF@DKGAGKCD@?$CDInventor?5V2?41?5ascii?$AA@ 004e4f4c     ssg_vs2008_32:ssgLoadIV.obj
 0002:00006f64       ??_C@_0CL@LCNNNGNA@ssgLoadIV?3?5Failed?5to?5open?5?8?$CFs?8?5f@ 004e4f64     ssg_vs2008_32:ssgLoadIV.obj
 0002:00006f90       ??_C@_0BC@JHFEMMIM@textureCoordIndex?$AA@ 004e4f90     ssg_vs2008_32:ssgLoadIV.obj
 0002:00006fa4       ??_C@_0L@HMBPFJFA@coordIndex?$AA@ 004e4fa4     ssg_vs2008_32:ssgLoadIV.obj
 0002:00006fb4       ??_C@_02KNHHEEKP@?5?5?$AA@ 004e4fb4     ssg_vs2008_32:ssgSaveIV.obj
 0002:00006fb8       ??_C@_0EM@HBKPPHHN@MatrixTransform?5?$HL?5matrix?5?$CFf?5?$CFf?5?$CF@ 004e4fb8     ssg_vs2008_32:ssgSaveIV.obj
 0002:00007004       ??_C@_0N@LLDLGOEB@?$CFd?0?$CFd?0?$CFd?0?91?0?$AA@ 004e5004     ssg_vs2008_32:ssgSaveIV.obj
 0002:00007014       ??_C@_0BA@HNGIPIJI@?5?5coordIndex?5?$FL?5?$AA@ 004e5014     ssg_vs2008_32:ssgSaveIV.obj
 0002:00007024       ??_C@_0BC@CMMOBKBD@IndexedFaceSet?5?$HL?6?$AA@ 004e5024     ssg_vs2008_32:ssgSaveIV.obj
 0002:00007038       ??_C@_0BH@EKPIKEEF@Coordinate3?5?$HL?5point?5?$FL?5?$AA@ 004e5038     ssg_vs2008_32:ssgSaveIV.obj
 0002:00007050       ??_C@_05IPOGOMKH@?5?$FN?5?$HN?6?$AA@ 004e5050     ssg_vs2008_32:ssgSaveIV.obj
 0002:00007058       ??_C@_07HHDOKDMA@?$CFf?5?$CFf?0?5?$AA@ 004e5058     ssg_vs2008_32:ssgSaveIV.obj
 0002:00007060       ??_C@_0CA@LEKNIBLA@SoTextureCoordinate2?5?$HL?5point?5?$FL?5?$AA@ 004e5060     ssg_vs2008_32:ssgSaveIV.obj
 0002:00007080       ??_C@_03OAACNKLE@?5?$FN?6?$AA@ 004e5080     ssg_vs2008_32:ssgSaveIV.obj
 0002:00007084       ??_C@_09JIHKLBDA@vector?5?$FL?5?$AA@ 004e5084     ssg_vs2008_32:ssgSaveIV.obj
 0002:00007090       ??_C@_09IGNLNDJB@Normal?5?$HL?6?$AA@ 004e5090     ssg_vs2008_32:ssgSaveIV.obj
 0002:0000709c       ??_C@_0BO@OJDFMGDM@Texture2?5?$HL?5filename?5?$CFc?$CFs?$CFc?5?$HN?6?$AA@ 004e509c     ssg_vs2008_32:ssgSaveIV.obj
 0002:000070bc       ??_C@_02KGHIDFGE@?$HN?6?$AA@ 004e50bc     ssg_vs2008_32:ssgSaveIV.obj
 0002:000070c0       ??_C@_0BB@CAAFOLMG@transparency?5?$CFf?6?$AA@ 004e50c0     ssg_vs2008_32:ssgSaveIV.obj
 0002:000070d4       ??_C@_0O@MKBFLDKI@shininess?5?$CFf?6?$AA@ 004e50d4     ssg_vs2008_32:ssgSaveIV.obj
 0002:000070e4       ??_C@_0BI@NGLBJMDK@emissiveColor?5?$CFf?5?$CFf?5?$CFf?6?$AA@ 004e50e4     ssg_vs2008_32:ssgSaveIV.obj
 0002:000070fc       ??_C@_0BI@GPOCDLLD@specularColor?5?$CFf?5?$CFf?5?$CFf?6?$AA@ 004e50fc     ssg_vs2008_32:ssgSaveIV.obj
 0002:00007114       ??_C@_0BH@EBJMNGHI@ambientColor?5?$CFf?5?$CFf?5?$CFf?6?$AA@ 004e5114     ssg_vs2008_32:ssgSaveIV.obj
 0002:0000712c       ??_C@_09MALOBAAJ@?$CFf?5?$CFf?5?$CFf?6?$AA@ 004e512c     ssg_vs2008_32:ssgSaveIV.obj
 0002:00007138       ??_C@_02JODFHDIE@?$FN?6?$AA@ 004e5138     ssg_vs2008_32:ssgSaveIV.obj
 0002:0000713c       ??_C@_0L@NAFIBIEE@?$CFf?5?$CFf?5?$CFf?0?5?$AA@ 004e513c     ssg_vs2008_32:ssgSaveIV.obj
 0002:00007148       ??_C@_02PFNDMDBO@?$FL?5?$AA@ 004e5148     ssg_vs2008_32:ssgSaveIV.obj
 0002:0000714c       ??_C@_0O@HNCPOLNC@diffuseColor?5?$AA@ 004e514c     ssg_vs2008_32:ssgSaveIV.obj
 0002:0000715c       ??_C@_0M@DPKCDOBC@Material?5?$HL?6?$AA@ 004e515c     ssg_vs2008_32:ssgSaveIV.obj
 0002:00007168       ??_C@_0EE@IIMIIAAA@?$CD?5?$CFd?5triangles?0?5?$CFd?5verts?0?5?$CFd?5nor@ 004e5168     ssg_vs2008_32:ssgSaveIV.obj
 0002:000071ac       ??_C@_0N@JGMHLFAM@Separator?5?$HL?6?$AA@ 004e51ac     ssg_vs2008_32:ssgSaveIV.obj
 0002:000071bc       ??_C@_0L@LHHIHBKO@?$CD?5?$CFs?5?$CI?$CFs?$CJ?6?$AA@ 004e51bc     ssg_vs2008_32:ssgSaveIV.obj
 0002:000071c8       ??_C@_07LFIJDALL@unnamed?$AA@ 004e51c8     ssg_vs2008_32:ssgSaveIV.obj
 0002:000071d0       ??_C@_0CF@GOIKIBBA@?$CDExport?5from?5plib?5version?5?$CFd?4?$CFd?4@ 004e51d0     ssg_vs2008_32:ssgSaveIV.obj
 0002:000071f8       ??_C@_0BG@FILCPJJC@?$CDInventor?5V2?41?5ascii?6?$AA@ 004e51f8     ssg_vs2008_32:ssgSaveIV.obj
 0002:00007210       ??_C@_01NOFIACDB@w?$AA@    004e5210     ssg_vs2008_32:ssgSaveIV.obj
 0002:00007218       ??_C@_0DL@PKALIBAN@ssgLoadVRML?3?5Expected?5a?5float?5fo@ 004e5218     ssg_vs2008_32:ssgLoadVRML1.obj
 0002:00007254       ??_C@_02PGHGPEOM@?91?$AA@  004e5254     ssg_vs2008_32:ssgLoadVRML1.obj
 0002:00007258       ??_C@_0CD@LBHGCMFH@Level?3?5?$CFi?4?5Found?5?$CFi?5vertices?5her@ 004e5258     ssg_vs2008_32:ssgLoadVRML1.obj
 0002:0000727c       ??_C@_01LBDDMOBJ@?$FN?$AA@ 004e527c     ssg_vs2008_32:ssgLoadVRML1.obj
 0002:00007280       ??_C@_01OHGJGJJP@?$FL?$AA@ 004e5280     ssg_vs2008_32:ssgLoadVRML1.obj
 0002:00007284       ??_C@_05BBEJFBFA@point?$AA@ 004e5284     ssg_vs2008_32:ssgLoadVRML1.obj
 0002:0000728c       ??_C@_0CE@FNPNMMNL@Level?3?5?$CFi?4?5Found?5?$CFi?5TexCoords?5he@ 004e528c     ssg_vs2008_32:ssgLoadVRML1.obj
 0002:000072b0       ??_C@_0CP@GJNBGKOP@ssgLoadVRML?3?5invalid?5vertex?5orde@ 004e52b0     ssg_vs2008_32:ssgLoadVRML1.obj
 0002:000072e0       ??_C@_0BB@JOENHJBJ@UNKNOWN_ORDERING?$AA@ 004e52e0     ssg_vs2008_32:ssgLoadVRML1.obj
 0002:000072f4       ??_C@_0BB@MMHEIGKH@COUNTERCLOCKWISE?$AA@ 004e52f4     ssg_vs2008_32:ssgLoadVRML1.obj
 0002:00007308       ??_C@_09DOEELBPG@CLOCKWISE?$AA@ 004e5308     ssg_vs2008_32:ssgLoadVRML1.obj
 0002:00007314       ??_C@_0P@FIFKCDBI@vertexOrdering?$AA@ 004e5314     ssg_vs2008_32:ssgLoadVRML1.obj
 0002:00007324       ??_C@_0CB@EJLPNPAE@ssgLoadVRML1?3?5invalid?5index?5list@ 004e5324     ssg_vs2008_32:ssgLoadVRML1.obj
 0002:00007348       ??_C@_0BP@EBMPFGBJ@USE?3?5Found?5a?5use?5directive?5?$CFs?4?$AA@ 004e5348     ssg_vs2008_32:ssgLoadVRML1.obj
 0002:00007368       ??_C@_03MBJMPENK@USE?$AA@  004e5368     ssg_vs2008_32:ssgLoadVRML1.obj
 0002:0000736c       ??_C@_0CE@OLAOIIPH@DEF?3?5Found?5an?5object?5definition?5@ 004e536c     ssg_vs2008_32:ssgLoadVRML1.obj
 0002:00007390       ??_C@_03BKLPEICB@DEF?$AA@  004e5390     ssg_vs2008_32:ssgLoadVRML1.obj
 0002:00007394       ??_C@_0CL@MBBFDBCJ@ssgLoadVRML1?3?5valid?5vrml1?5header@ 004e5394     ssg_vs2008_32:ssgLoadVRML1.obj
 0002:000073c0       ??_C@_0BB@IPLCBEOA@?$CDVRML?5V1?40?5ascii?$AA@ 004e53c0     ssg_vs2008_32:ssgLoadVRML1.obj
 0002:000073d4       ??_C@_0CO@NMMBLHPM@ssgLoadVRML1?3?5Failed?5to?5open?5?8?$CFs@ 004e53d4     ssg_vs2008_32:ssgLoadVRML1.obj
 0002:00007404       ??_C@_0DL@PIPNCJKH@ssgLoadVRML?3?5Expected?5a?5float?5fo@ 004e5404     ssg_vs2008_32:ssgLoadVRML1.obj
 0002:00007440       ??_C@_06CGNOPMBC@matrix?$AA@ 004e5440     ssg_vs2008_32:ssgLoadVRML1.obj
 0002:00007448       ??_C@_0CC@BHKELLFH@Found?5a?5scale?5transform?3?5?$CFf?5?$CFf?5?$CF@ 004e5448     ssg_vs2008_32:ssgLoadVRML1.obj
 0002:0000746c       ??_C@_0M@ICIPBIAP@scaleFactor?$AA@ 004e546c     ssg_vs2008_32:ssgLoadVRML1.obj
 0002:00007478       ??_C@_0BO@GAJAGDCD@Found?5a?5rotation?3?5?$CFf?5?$CFf?5?$CFf?5?$CFf?$AA@ 004e5478     ssg_vs2008_32:ssgLoadVRML1.obj
 0002:00007498       ??_C@_08OHGOKOGA@rotation?$AA@ 004e5498     ssg_vs2008_32:ssgLoadVRML1.obj
 0002:000074a4       ??_C@_0BO@JNCKEMDH@Found?5a?5translation?3?5?$CFf?5?$CFf?5?$CFf?$AA@ 004e54a4     ssg_vs2008_32:ssgLoadVRML1.obj
 0002:000074c4       ??_C@_0M@PAEEAFPO@translation?$AA@ 004e54c4     ssg_vs2008_32:ssgLoadVRML1.obj
 0002:000074d4       ??_C@_06GNLHIPJI@?5?5?5?5?$HN?6?$AA@ 004e54d4     ssg_vs2008_32:ssgSaveVRML1.obj
 0002:000074dc       ??_C@_0BJ@EGCKMCMM@?5?5?5?5?5?5?5?5specularColor?5?$FL?6?$AA@ 004e54dc     ssg_vs2008_32:ssgSaveVRML1.obj
 0002:000074f8       ??_C@_0BJ@EAJMOGOC@?5?5?5?5?5?5?5?5emissiveColor?5?$FL?6?$AA@ 004e54f8     ssg_vs2008_32:ssgSaveVRML1.obj
 0002:00007514       ??_C@_0BI@JCLMMMHN@?5?5?5?5?5?5?5?5ambientColor?5?$FL?6?$AA@ 004e5514     ssg_vs2008_32:ssgSaveVRML1.obj
 0002:0000752c       ??_C@_0L@BBFHMLBI@?5?5?5?5?5?5?5?5?$FN?6?$AA@ 004e552c     ssg_vs2008_32:ssgSaveVRML1.obj
 0002:00007538       ??_C@_0BH@NOKPLKE@?5?5?5?5?5?5?5?5?5?5?5?5?$CFf?5?$CFf?5?$CFf?0?6?$AA@ 004e5538     ssg_vs2008_32:ssgSaveVRML1.obj
 0002:00007550       ??_C@_0BI@PNFDKAMA@?5?5?5?5?5?5?5?5diffuseColor?5?$FL?6?$AA@ 004e5550     ssg_vs2008_32:ssgSaveVRML1.obj
 0002:00007568       ??_C@_0BA@EJCMMFOG@?5?5?5?5Material?5?$HL?6?$AA@ 004e5568     ssg_vs2008_32:ssgSaveVRML1.obj
 0002:00007578       ??_C@_0CI@GJAHKOAM@?5?5?5?5MaterialBinding?5?$HL?5value?5PER_@ 004e5578     ssg_vs2008_32:ssgSaveVRML1.obj
 0002:000075a0       ??_C@_0BJ@JMGDMFNI@?5?5?5?5?5?5?5?5wrapT?5?5?5?5REPEAT?6?$AA@ 004e55a0     ssg_vs2008_32:ssgSaveVRML1.obj
 0002:000075bc       ??_C@_0BJ@OBBAMDIA@?5?5?5?5?5?5?5?5wrapS?5?5?5?5REPEAT?6?$AA@ 004e55bc     ssg_vs2008_32:ssgSaveVRML1.obj
 0002:000075d8       ??_C@_0BF@ICBABBMH@?5?5?5?5?5?5?5?5filename?5?$CFs?6?$AA@ 004e55d8     ssg_vs2008_32:ssgSaveVRML1.obj
 0002:000075f0       ??_C@_0BA@LKGNCFCE@?5?5?5?5Texture2?5?$HL?6?$AA@ 004e55f0     ssg_vs2008_32:ssgSaveVRML1.obj
 0002:00007600       ??_C@_0BE@IPNOCEEL@?5?5?5?5?5?5?5?5?5?5?5?5?$CFf?5?$CFf?0?6?$AA@ 004e5600     ssg_vs2008_32:ssgSaveVRML1.obj
 0002:00007614       ??_C@_0CK@COAPMCCO@?5?5?5?5TextureCoordinate2?5?$HL?6?5?5?5?5?5?5?5@ 004e5614     ssg_vs2008_32:ssgSaveVRML1.obj
 0002:00007640       ??_C@_0EF@LDGJNMK@ssgSaveVRML1?3?5Save?5error?3?5index?5@ 004e5640     ssg_vs2008_32:ssgSaveVRML1.obj
 0002:00007688       ??_C@_0BN@ENEDKLKK@?5?5?5?5?5?5?5?5?5?5?5?5?$CFd?0?5?$CFd?0?5?$CFd?0?5?91?0?6?$AA@ 004e5688     ssg_vs2008_32:ssgSaveVRML1.obj
 0002:000076a8       ??_C@_0CL@ICHGONHJ@?5?5?5?5IndexedFaceSet?5?$HL?6?5?5?5?5?5?5?5?5coo@ 004e56a8     ssg_vs2008_32:ssgSaveVRML1.obj
 0002:000076d4       ??_C@_0BB@DFFKAIHJ@?5?5?5?5?5?5?5?5?$FN?6?5?5?5?5?$HN?6?$AA@ 004e56d4     ssg_vs2008_32:ssgSaveVRML1.obj
 0002:000076e8       ??_C@_0CD@LLCCPMDJ@?5?5?5?5Coordinate3?5?$HL?6?5?5?5?5?5?5?5?5point?5@ 004e56e8     ssg_vs2008_32:ssgSaveVRML1.obj
 0002:0000770c       ??_C@_0BD@LDNMMFHP@?$CDVRML?5V1?40?5ascii?6?6?$AA@ 004e570c     ssg_vs2008_32:ssgSaveVRML1.obj
 0002:00007720       ??_C@_0CO@DCFIHOBA@ssgSaveVRML1?3?5Failed?5to?5open?5?8?$CFs@ 004e5720     ssg_vs2008_32:ssgSaveVRML1.obj
 0002:00007754       ??_C@_03PMGGPEJJ@?$CFd?6?$AA@ 004e5754     ssg_vs2008_32:ssgSaveQHI.obj
 0002:00007758       ??_C@_02NMHMJFKO@3?6?$AA@  004e5758     ssg_vs2008_32:ssgSaveQHI.obj
 0002:0000775c       __real@38d1b717            004e575c     ssg_vs2008_32:ssgSaveQHI.obj
 0002:00007760       ??_C@_0CM@IBBCJHGD@ssgSaveQHI?3?5Failed?5to?5open?5?8?$CFs?8?5@ 004e5760     ssg_vs2008_32:ssgSaveQHI.obj
 0002:00007790       ??_C@_0DO@IPILCDL@The?5field?5?$CFs?5should?5contain?5an?5i@ 004e5790     ssg_vs2008_32:ssgLoadATG.obj
 0002:000077d0       ??_C@_03DHALNKCC@gbs?$AA@  004e57d0     ssg_vs2008_32:ssgLoadATG.obj
 0002:000077d4       ??_C@_06FDFLJDKG@usemtl?$AA@ 004e57d4     ssg_vs2008_32:ssgLoadATG.obj
 0002:000077dc       ??_C@_0BB@NFPLJEII@Warning?3?5no?5eof?6?$AA@ 004e57dc     ssg_vs2008_32:ssgLoadATG.obj
 0002:000077f0       ??_C@_0BE@JCEIKIMI@f?5expected?0?5got?5?$CFs?6?$AA@ 004e57f0     ssg_vs2008_32:ssgLoadATG.obj
 0002:00007804       ??_C@_0DM@JPLNKPIN@Internal?5error?5while?5reading?5?$CK?4a@ 004e5804     ssg_vs2008_32:ssgLoadATG.obj
 0002:00007840       ??_C@_0BF@KJAJEKPN@texture?5coord?4?5index?$AA@ 004e5840     ssg_vs2008_32:ssgLoadATG.obj
 0002:00007858       ??_C@_01INIBCBCB@f?$AA@    004e5858     ssg_vs2008_32:ssgLoadATG.obj
 0002:0000785c       ??_C@_0BB@MKHIHPPG@vertex?5texture?4y?$AA@ 004e585c     ssg_vs2008_32:ssgLoadATG.obj
 0002:00007870       ??_C@_0BB@NDGDEOLH@vertex?5texture?4x?$AA@ 004e5870     ssg_vs2008_32:ssgLoadATG.obj
 0002:00007884       ??_C@_02BLJBIOPN@vt?$AA@   004e5884     ssg_vs2008_32:ssgLoadATG.obj
 0002:00007888       ??_C@_0BA@EEFNIGMM@vertex?5normal?4z?$AA@ 004e5888     ssg_vs2008_32:ssgLoadATG.obj
 0002:00007898       ??_C@_0BA@GPHANFAP@vertex?5normal?4y?$AA@ 004e5898     ssg_vs2008_32:ssgLoadATG.obj
 0002:000078a8       ??_C@_0BA@HGGLOEEO@vertex?5normal?4x?$AA@ 004e58a8     ssg_vs2008_32:ssgLoadATG.obj
 0002:000078b8       ??_C@_0DB@PMMAJCEI@There?5are?5only?5vertices?5in?5the?5s@ 004e58b8     ssg_vs2008_32:ssgLoadATG.obj
 0002:000078ec       ??_C@_02KLLMHECG@vn?$AA@   004e58ec     ssg_vs2008_32:ssgLoadATG.obj
 0002:000078f0       __real@40e86a0000000000    004e58f0     ssg_vs2008_32:ssgLoadATG.obj
 0002:000078f8       ??_C@_08PBFKPLNM@vertex?4z?$AA@ 004e58f8     ssg_vs2008_32:ssgLoadATG.obj
 0002:00007904       ??_C@_08NKHHKIBP@vertex?4y?$AA@ 004e5904     ssg_vs2008_32:ssgLoadATG.obj
 0002:00007910       ??_C@_08MDGMJJFO@vertex?4x?$AA@ 004e5910     ssg_vs2008_32:ssgLoadATG.obj
 0002:0000791c       ??_C@_01MHEDDDHA@v?$AA@    004e591c     ssg_vs2008_32:ssgLoadATG.obj
 0002:00007920       ??_C@_0BL@LAODEIOK@The?5file?5seems?5to?5be?5empty?$AA@ 004e5920     ssg_vs2008_32:ssgLoadATG.obj
 0002:00007940       ??_C@_0BF@OLFPIFEG@f?5?$CFd?1?$CFd?5?$CFd?1?$CFd?5?$CFd?1?$CFd?6?$AA@ 004e5940     ssg_vs2008_32:ssgSaveATG.obj
 0002:00007958       ??_C@_0N@LEHLIBIH@?$CD?5usemtl?5?$CFs?6?$AA@ 004e5958     ssg_vs2008_32:ssgSaveATG.obj
 0002:00007968       ??_C@_09BAKLEHLF@vt?5?$CFf?5?$CFf?6?$AA@ 004e5968     ssg_vs2008_32:ssgSaveATG.obj
 0002:00007974       ??_C@_0BB@FIOKNCAJ@vn?5?5?5?5?5?$CFf?5?$CFf?5?$CFf?6?$AA@ 004e5974     ssg_vs2008_32:ssgSaveATG.obj
 0002:00007988       ??_C@_0M@BFAKBFND@v?5?$CFf?5?$CFf?5?$CFf?6?$AA@ 004e5988     ssg_vs2008_32:ssgSaveATG.obj
 0002:00007994       ??_C@_01IPJKGB@?$CD?$AA@   004e5994     ssg_vs2008_32:ssgSaveATG.obj
 0002:00007998       ??_C@_0DI@OPIELHCM@?$CD?5Created?5by?5ssgSaveATG?4?5Origina@ 004e5998     ssg_vs2008_32:ssgSaveATG.obj
 0002:000079d0       ??_C@_0CM@EMANJLEN@ssgSaveATG?3?5Failed?5to?5open?5?8?$CFs?8?5@ 004e59d0     ssg_vs2008_32:ssgSaveATG.obj
 0002:000079fc       ??_C@_01FGNFDNOH@?$CF?$AA@ 004e59fc     ssg_vs2008_32:ssgLoadOFF.obj
 0002:00007a00       ??_C@_02NFLHGFB@?0?$DL?$AA@ 004e5a00     ssg_vs2008_32:ssgLoadOFF.obj
 0002:00007a08       __real@3e99999a            004e5a08     ssg_vs2008_32:ssgLoadOFF.obj
 0002:00007a0c       __real@3dcccccd            004e5a0c     ssg_vs2008_32:ssgLoadOFF.obj
 0002:00007a10       ??_C@_0N@CECPOJE@Vertex?5index?$AA@ 004e5a10     ssg_vs2008_32:ssgLoadOFF.obj
 0002:00007a20       ??_C@_0CB@PLCDLIJL@number?5of?5vertices?5for?5this?5face@ 004e5a20     ssg_vs2008_32:ssgLoadOFF.obj
 0002:00007a44       ??_C@_01GLPGHMHM@z?$AA@    004e5a44     ssg_vs2008_32:ssgLoadOFF.obj
 0002:00007a48       ??_C@_01EANLCPLP@y?$AA@    004e5a48     ssg_vs2008_32:ssgLoadOFF.obj
 0002:00007a4c       ??_C@_01FJMABOPO@x?$AA@    004e5a4c     ssg_vs2008_32:ssgLoadOFF.obj
 0002:00007a50       ??_C@_06KJHPIILD@NEdges?$AA@ 004e5a50     ssg_vs2008_32:ssgLoadOFF.obj
 0002:00007a58       ??_C@_06GIGJOCDK@NFaces?$AA@ 004e5a58     ssg_vs2008_32:ssgLoadOFF.obj
 0002:00007a60       ??_C@_09BJLONGED@NVertices?$AA@ 004e5a60     ssg_vs2008_32:ssgLoadOFF.obj
 0002:00007a70       ??_C@_0EA@ICFCINED@This?5is?5a?5?$CFudD?9OFF?5file?4?5We?5only@ 004e5a70     ssg_vs2008_32:ssgLoadOFF.obj
 0002:00007ab0       ??_C@_09JLNDFHAM@Dimension?$AA@ 004e5ab0     ssg_vs2008_32:ssgLoadOFF.obj
 0002:00007ac0       ??_C@_0EB@INACPFNB@This?5is?5a?5?$CCST?$CC?9?5?$CCC?$CC?9?5or?5?$CCN?$CC?9OFF?4@ 004e5ac0     ssg_vs2008_32:ssgLoadOFF.obj
 0002:00007b04       ??_C@_0DH@NINLBHLC@This?5is?5a?54D?9OFF?5file?4?5We?5only?5s@ 004e5b04     ssg_vs2008_32:ssgLoadOFF.obj
 0002:00007b3c       ??_C@_01EFFIKLCJ@n?$AA@    004e5b3c     ssg_vs2008_32:ssgLoadOFF.obj
 0002:00007b40       ??_C@_01FAMBOPH@4?$AA@     004e5b40     ssg_vs2008_32:ssgLoadOFF.obj
 0002:00007b44       ??_C@_01NANMIPIL@N?$AA@    004e5b44     ssg_vs2008_32:ssgLoadOFF.obj
 0002:00007b48       ??_C@_02LAJDCOFE@ST?$AA@   004e5b48     ssg_vs2008_32:ssgLoadOFF.obj
 0002:00007b4c       ??_C@_03MPPIHBHJ@OFF?$AA@  004e5b4c     ssg_vs2008_32:ssgLoadOFF.obj
 0002:00007b54       ??_C@_0M@NNHAIINA@3?5?$CFd?5?$CFd?5?$CFd?6?$AA@ 004e5b54     ssg_vs2008_32:ssgSaveOFF.obj
 0002:00007b60       ??_C@_08POJFMEM@?$CFd?5?$CFd?50?6?$AA@ 004e5b60     ssg_vs2008_32:ssgSaveOFF.obj
 0002:00007b6c       ??_C@_07FADCIADA@nOFF?63?6?$AA@ 004e5b6c     ssg_vs2008_32:ssgSaveOFF.obj
 0002:00007b74       ??_C@_0DN@HFKGJGKJ@?$CD?5Model?5output?5by?5ssgSaveOFF?4?5Or@ 004e5b74     ssg_vs2008_32:ssgSaveOFF.obj
 0002:00007bb4       ??_C@_0CM@PLCGJCAM@ssgSaveOFF?3?5Failed?5to?5open?5?8?$CFs?8?5@ 004e5bb4     ssg_vs2008_32:ssgSaveOFF.obj
 0002:00007be4       ??_C@_0CF@INKKGPJO@ssgLoadM?3?5Syntax?5error?5on?5line?5?$CC@ 004e5be4     ssg_vs2008_32:ssgLoadM.obj
 0002:00007c0c       ??_C@_0CD@ELEAGEBF@ssgLoadM?3?5Couldn?8t?5open?5file?5?8?$CFs@ 004e5c0c     ssg_vs2008_32:ssgLoadM.obj
 0002:00007c34       ??_C@_0BD@LDEJOFKO@Face?5?$CFd?5?5?$CFd?5?$CFd?5?$CFd?6?$AA@ 004e5c34     ssg_vs2008_32:ssgSaveM.obj
 0002:00007c48       ??_C@_0BF@FLOHHILM@Vertex?5?$CFd?5?5?$CFf?5?$CFf?5?$CFf?6?$AA@ 004e5c48     ssg_vs2008_32:ssgSaveM.obj
 0002:00007c60       ??_C@_0DL@GNOKFDFI@?$CD?5Model?5output?5by?5ssgSaveM?4?5Orig@ 004e5c60     ssg_vs2008_32:ssgSaveM.obj
 0002:00007c9c       ??_C@_0CK@IECDNBIJ@ssgSaveM?3?5Failed?5to?5open?5?8?$CFs?8?5fo@ 004e5c9c     ssg_vs2008_32:ssgSaveM.obj
 0002:00007ccc       ??_C@_0CH@NPPPHIGP@ssgLoadStrip?3?5Couldn?8t?5open?5file@ 004e5ccc     ssg_vs2008_32:ssgLoadStrip.obj
 0002:00007cf8       ??_C@_03NDEAONJP@?5?5?5?$AA@ 004e5cf8     ssg_vs2008_32:ssgLoadFLT.obj
 0002:00007cfc       ??_C@_05HAJCMBLP@?5?$CF02x?$AA@ 004e5cfc     ssg_vs2008_32:ssgLoadFLT.obj
 0002:00007d04       ??_C@_05IFCAAOD@?$CF04x?5?$AA@ 004e5d04     ssg_vs2008_32:ssgLoadFLT.obj
 0002:00007d10       __real@3f847ae140000000    004e5d10     ssg_vs2008_32:ssgLoadFLT.obj
 0002:00007d18       __real@c0000000            004e5d18     ssg_vs2008_32:ssgLoadFLT.obj
 0002:00007d1c       ??_C@_0CO@COLOOGII@?$FLflt?$FN?5More?5than?565536?5vertices?0?5@ 004e5d1c     ssg_vs2008_32:ssgLoadFLT.obj
 0002:00007d50       ??_C@_0ED@ELLLNHEB@?$FLflt?$FN?5This?5file?5is?5probably?5rath@ 004e5d50     ssg_vs2008_32:ssgLoadFLT.obj
 0002:00007d94       ??_C@_0DL@HACAIFDN@?$FLflt?$FN?5This?5file?5contains?5opcodes@ 004e5d94     ssg_vs2008_32:ssgLoadFLT.obj
 0002:00007dd0       ??_C@_0DJ@MKOJMOP@or?5by?5email?5to?5plib?9devel?$EAlists?4@ 004e5dd0     ssg_vs2008_32:ssgLoadFLT.obj
 0002:00007e0c       ??_C@_0DM@OALAKOJD@Please?5report?5this?0?5either?5at?5ht@ 004e5e0c     ssg_vs2008_32:ssgLoadFLT.obj
 0002:00007e48       ??_C@_0CN@BIJPIEHI@?$FLflt?$FN?5Bad?5record?0?5opcode?5?$CFd?5?$CI?$CFs?$CJ@ 004e5e48     ssg_vs2008_32:ssgLoadFLT.obj
 0002:00007e78       __real@3fc99999a0000000    004e5e78     ssg_vs2008_32:ssgLoadFLT.obj
 0002:00007e80       __real@3fe99999a0000000    004e5e80     ssg_vs2008_32:ssgLoadFLT.obj
 0002:00007e88       ??_C@_0BM@CDEJFFCC@?$FLflt?$FN?5Bad?5vertex?5offset?5?$CFi?4?$AA@ 004e5e88     ssg_vs2008_32:ssgLoadFLT.obj
 0002:00007ea4       ??_C@_0BJ@PMKFKMKI@?$FLflt?$FN?5Bad?5face?5color?5?$CFd?4?$AA@ 004e5ea4     ssg_vs2008_32:ssgLoadFLT.obj
 0002:00007ec0       __real@3f00307100000000    004e5ec0     ssg_vs2008_32:ssgLoadFLT.obj
 0002:00007ec8       __real@3f70101020000000    004e5ec8     ssg_vs2008_32:ssgLoadFLT.obj
 0002:00007ed0       __real@3feff7cee0000000    004e5ed0     ssg_vs2008_32:ssgLoadFLT.obj
 0002:00007ed8       __real@3ef0001000000000    004e5ed8     ssg_vs2008_32:ssgLoadFLT.obj
 0002:00007ee0       __real@3fb99999a0000000    004e5ee0     ssg_vs2008_32:ssgLoadFLT.obj
 0002:00007ee8       __real@3a83126f            004e5ee8     ssg_vs2008_32:ssgLoadFLT.obj
 0002:00007eec       ??_C@_0CK@KELEJDHK@?$FLflt?$FN?5Multiple?5vertex?5tables?5not@ 004e5eec     ssg_vs2008_32:ssgLoadFLT.obj
 0002:00007f18       ??_C@_0CP@CEFDNKKA@?$FLflt?$FN?5Multiple?5material?5tables?5a@ 004e5f18     ssg_vs2008_32:ssgLoadFLT.obj
 0002:00007f48       __real@43000000            004e5f48     ssg_vs2008_32:ssgLoadFLT.obj
 0002:00007f4c       __real@41000000            004e5f4c     ssg_vs2008_32:ssgLoadFLT.obj
 0002:00007f50       ??_C@_0P@LGMPMNAJ@Material?5Table?$AA@ 004e5f50     ssg_vs2008_32:ssgLoadFLT.obj
 0002:00007f60       ??_C@_0BC@NILAAFED@Texture?5Reference?$AA@ 004e5f60     ssg_vs2008_32:ssgLoadFLT.obj
 0002:00007f74       ??_C@_0CN@EEEPCBBB@?$FLflt?$FN?5Multiple?5color?5tables?5are?5@ 004e5f74     ssg_vs2008_32:ssgLoadFLT.obj
 0002:00007fa4       ??_C@_0M@JCBHLNKG@Color?5Table?$AA@ 004e5fa4     ssg_vs2008_32:ssgLoadFLT.obj
 0002:00007fb0       ??_C@_0CM@EBAJADMA@?$FLflt?$FN?5Color?5table?5ignored?5?$CIunkno@ 004e5fb0     ssg_vs2008_32:ssgLoadFLT.obj
 0002:00007fdc       ??_C@_0CM@CPEFIDM@?$FLflt?$FN?5Suspicious?5header?5record?5l@ 004e5fdc     ssg_vs2008_32:ssgLoadFLT.obj
 0002:00008008       ??_C@_0CO@CDBICM@?$FLflt?$FN?5Suspicious?5format?5revision@ 004e6008     ssg_vs2008_32:ssgLoadFLT.obj
 0002:00008038       ??_C@_0CA@IIDNOIO@?$FLflt?$FN?5Wrong?5header?5opcode?5?$CI?$CFd?$CJ?4?$AA@ 004e6038     ssg_vs2008_32:ssgLoadFLT.obj
 0002:00008058       ??_C@_0BE@NLAHAHBH@?$FLflt?$FN?5?$CFs?5not?5found?4?$AA@ 004e6058     ssg_vs2008_32:ssgLoadFLT.obj
 0002:0000806c       ??_C@_07KJFPOMFC@?$CFs?3?5?$CFs?6?$AA@ 004e606c     ssg_vs2008_32:ssgLoadFLT.obj
 0002:00008074       ??_C@_0L@CIEOFPFN@FLTNOCLEAN?$AA@ 004e6074     ssg_vs2008_32:ssgLoadFLT.obj
 0002:00008080       ??_C@_08OCJFGAAJ@FLTNOEXT?$AA@ 004e6080     ssg_vs2008_32:ssgLoadFLT.obj
 0002:0000808c       ??_C@_0M@EGDBDENL@FLTNOMIPMAP?$AA@ 004e608c     ssg_vs2008_32:ssgLoadFLT.obj
 0002:00008098       ??_C@_08LCHLCPNM@FLTNOTEX?$AA@ 004e6098     ssg_vs2008_32:ssgLoadFLT.obj
 0002:000080a4       ??_C@_0BN@BKFIKPMN@?$FLflt?$FN?5Instance?5?$CFd?5redefined?4?$AA@ 004e60a4     ssg_vs2008_32:ssgLoadFLT.obj
 0002:000080c4       ??_C@_0CA@DLABJMGG@?$FLflt?$FN?5Incomplete?5switch?5record?4?$AA@ 004e60c4     ssg_vs2008_32:ssgLoadFLT.obj
 0002:000080e4       ??_C@_0BH@NPKCLODP@?$FLflt?$FN?5Stack?5underflow?4?$AA@ 004e60e4     ssg_vs2008_32:ssgLoadFLT.obj
 0002:000080fc       ??_C@_0BG@OOMOEBOC@?$FLflt?$FN?5Stack?5overflow?4?$AA@ 004e60fc     ssg_vs2008_32:ssgLoadFLT.obj
 0002:00008118       ??_C@_0EC@GFAKPFII@?$FLflt?$FN?5Objects?5are?5not?5allowed?5to@ 004e6118     ssg_vs2008_32:ssgLoadFLT.obj
 0002:0000815c       ??_C@_08FINKBBAF@reserved?$AA@ 004e615c     ssg_vs2008_32:ssgLoadFLT.obj
 0002:0000816c       ??_C@_0CA@IPMJJAKO@Unknown?5Date?4?5?5?5?5?5?5?5?5?5?5?5?5?5?5?5?5?5?5?$AA@ 004e616c     ssg_vs2008_32:ssgSaveFLT.obj
 0002:0000818c       ??_C@_07GHIAJMBC@?5?5?5?5?5?5?5?$AA@ 004e618c     ssg_vs2008_32:ssgSaveFLT.obj
 0002:00008194       ??_C@_03CCNLECCA@O?$CFd?$AA@ 004e6194     ssg_vs2008_32:ssgSaveFLT.obj
 0002:00008198       ??_C@_03FPNDANKK@F?$CFd?$AA@ 004e6198     ssg_vs2008_32:ssgSaveFLT.obj
 0002:0000819c       ??_C@_07CCNCPHDL@Animate?$AA@ 004e619c     ssg_vs2008_32:ssgSaveFLT.obj
 0002:000081a4       ??_C@_03JCBNGCIM@Q?$CFd?$AA@ 004e61a4     ssg_vs2008_32:ssgSaveFLT.obj
 0002:000081a8       ??_C@_03OHGPGKMP@G?$CFd?$AA@ 004e61a8     ssg_vs2008_32:ssgSaveFLT.obj
 0002:000081b0       __real@c06fe00000000000    004e61b0     ssg_vs2008_32:ssgSaveFLT.obj
 0002:000081b8       ??_C@_0CH@DACHAANP@Could?5not?5open?5file?5?8?$CFs?8?5for?5wri@ 004e61b8     ssg_vs2008_32:ssgSaveFLT.obj
 0002:000081e0       ??_C@_02GMLFBBN@wb?$AA@    004e61e0     ssg_vs2008_32:ssgSaveFLT.obj
 0002:000081e4       ??_C@_08FJNLKCPH@template?$AA@ 004e61e4     ssg_vs2008_32:ssgLoadX.obj
 0002:000081f0       ??_C@_0N@CAAIALFF@AnimationSet?$AA@ 004e61f0     ssg_vs2008_32:ssgLoadX.obj
 0002:00008200       ??_C@_09ONEINPNJ@Animation?$AA@ 004e6200     ssg_vs2008_32:ssgLoadX.obj
 0002:0000820c       ??_C@_0BB@KMPPBDMK@AnimationOptions?$AA@ 004e620c     ssg_vs2008_32:ssgLoadX.obj
 0002:00008220       ??_C@_0N@LAKGI@AnimationKey?$AA@ 004e6220     ssg_vs2008_32:ssgLoadX.obj
 0002:00008230       ??_C@_0P@PGMCOBOH@TimedFloatKeys?$AA@ 004e6230     ssg_vs2008_32:ssgLoadX.obj
 0002:00008240       ??_C@_09PNNGDPMM@FloatKeys?$AA@ 004e6240     ssg_vs2008_32:ssgLoadX.obj
 0002:0000824c       ??_C@_05MPDBFDHF@Frame?$AA@ 004e624c     ssg_vs2008_32:ssgLoadX.obj
 0002:00008254       ??_C@_0BF@BEAJEFHB@FrameTransformMatrix?$AA@ 004e6254     ssg_vs2008_32:ssgLoadX.obj
 0002:0000826c       ??_C@_04GONFKEIN@Mesh?$AA@ 004e626c     ssg_vs2008_32:ssgLoadX.obj
 0002:00008274       ??_C@_0BB@CHPJDJIB@MeshMaterialList?$AA@ 004e6274     ssg_vs2008_32:ssgLoadX.obj
 0002:00008288       ??_C@_0BB@FLMHPDCM@MeshVertexColors?$AA@ 004e6288     ssg_vs2008_32:ssgLoadX.obj
 0002:0000829c       ??_C@_0M@FBEENDCB@MeshNormals?$AA@ 004e629c     ssg_vs2008_32:ssgLoadX.obj
 0002:000082a8       ??_C@_0BC@CHLBFJPN@MeshTextureCoords?$AA@ 004e62a8     ssg_vs2008_32:ssgLoadX.obj
 0002:000082bc       ??_C@_0O@GMKODDFP@MeshFaceWraps?$AA@ 004e62bc     ssg_vs2008_32:ssgLoadX.obj
 0002:000082cc       ??_C@_08JBDFDBEL@MeshFace?$AA@ 004e62cc     ssg_vs2008_32:ssgLoadX.obj
 0002:000082d8       ??_C@_0BA@HLJJEFBM@TextureFilename?$AA@ 004e62d8     ssg_vs2008_32:ssgLoadX.obj
 0002:000082e8       ??_C@_09EBNBEFJO@Boolean2d?$AA@ 004e62e8     ssg_vs2008_32:ssgLoadX.obj
 0002:000082f4       ??_C@_07JHGIBOMG@Boolean?$AA@ 004e62f4     ssg_vs2008_32:ssgLoadX.obj
 0002:000082fc       ??_C@_0O@OKMDOELM@Indexed?5Color?$AA@ 004e62fc     ssg_vs2008_32:ssgLoadX.obj
 0002:0000830c       ??_C@_08BHBKDPNO@ColorRGB?$AA@ 004e630c     ssg_vs2008_32:ssgLoadX.obj
 0002:00008318       ??_C@_09IIBOJLKI@ColorRGBA?$AA@ 004e6318     ssg_vs2008_32:ssgLoadX.obj
 0002:00008324       ??_C@_09BHBMIAGD@Matrix4x4?$AA@ 004e6324     ssg_vs2008_32:ssgLoadX.obj
 0002:00008330       ??_C@_0L@BJJHHMLP@Quaternion?$AA@ 004e6330     ssg_vs2008_32:ssgLoadX.obj
 0002:0000833c       ??_C@_08PPHALHOA@Coords2d?$AA@ 004e633c     ssg_vs2008_32:ssgLoadX.obj
 0002:00008348       ??_C@_06BOOCMPNK@Vector?$AA@ 004e6348     ssg_vs2008_32:ssgLoadX.obj
 0002:00008350       ??_C@_06OENKJGA@Header?$AA@ 004e6350     ssg_vs2008_32:ssgLoadX.obj
 0002:00008360       ??_7ssgSimpleStateList@@6B@ 004e6360     ssg_vs2008_32:ssgLoadX.obj
 0002:00008394       ??_C@_0N@MBNOAMGL@Header?4flags?$AA@ 004e6394     ssg_vs2008_32:ssgLoadX.obj
 0002:000083a4       ??_C@_0N@CMJCADHH@Header?4minor?$AA@ 004e63a4     ssg_vs2008_32:ssgLoadX.obj
 0002:000083b4       ??_C@_01ICJEACDI@?$DL?$AA@ 004e63b4     ssg_vs2008_32:ssgLoadX.obj
 0002:000083b8       ??_C@_0N@JDIANPOB@Header?4major?$AA@ 004e63b8     ssg_vs2008_32:ssgLoadX.obj
 0002:000083c8       ??_C@_0BI@JDMMKCEK@unexpected?5end?5of?5file?6?$AA@ 004e63c8     ssg_vs2008_32:ssgLoadX.obj
 0002:000083e0       ??_C@_0O@BPHFNIEN@?$CC?$HL?$CC?5expected?6?$AA@ 004e63e0     ssg_vs2008_32:ssgLoadX.obj
 0002:000083f0       ??_C@_0CP@PMFADABN@Only?5one?5TextureFileName?5per?5Mat@ 004e63f0     ssg_vs2008_32:ssgLoadX.obj
 0002:00008420       ??_C@_0BL@PDOMOPDE@TextureFilename?5expected?$CB?6?$AA@ 004e6420     ssg_vs2008_32:ssgLoadX.obj
 0002:0000843c       ??_C@_0L@LHHCDIOP@Emissive?5B?$AA@ 004e643c     ssg_vs2008_32:ssgLoadX.obj
 0002:00008448       ??_C@_0L@MKAFMMKK@Emissive?5G?$AA@ 004e6448     ssg_vs2008_32:ssgLoadX.obj
 0002:00008454       ??_C@_0L@PNLACKLO@Emissive?5R?$AA@ 004e6454     ssg_vs2008_32:ssgLoadX.obj
 0002:00008460       ??_C@_0L@JFPNHODN@Specular?5B?$AA@ 004e6460     ssg_vs2008_32:ssgLoadX.obj
 0002:0000846c       ??_C@_0L@OIIKIKHI@Specular?5G?$AA@ 004e646c     ssg_vs2008_32:ssgLoadX.obj
 0002:00008478       ??_C@_0L@NPDPGMGM@Specular?5R?$AA@ 004e6478     ssg_vs2008_32:ssgLoadX.obj
 0002:00008484       ??_C@_05PLIADJJL@power?$AA@ 004e6484     ssg_vs2008_32:ssgLoadX.obj
 0002:0000848c       ??_C@_0N@FIFGEDAF@Facecolour?5A?$AA@ 004e648c     ssg_vs2008_32:ssgLoadX.obj
 0002:0000849c       ??_C@_0N@HDHLBAMG@Facecolour?5B?$AA@ 004e649c     ssg_vs2008_32:ssgLoadX.obj
 0002:000084ac       ??_C@_0N@OAMOEID@Facecolour?5G?$AA@ 004e64ac     ssg_vs2008_32:ssgLoadX.obj
 0002:000084bc       ??_C@_0N@DJLJACJH@Facecolour?5R?$AA@ 004e64bc     ssg_vs2008_32:ssgLoadX.obj
 0002:000084d0       ??_C@_0HM@PFJMHLCB@No?5of?5vertices?5of?5mesh?5?$CI?$CFd?$CJ?5and?5@ 004e64d0     ssg_vs2008_32:ssgLoadX.obj
 0002:0000854c       ??_C@_0O@GIFONNDE@nNoOfVertices?$AA@ 004e654c     ssg_vs2008_32:ssgLoadX.obj
 0002:0000855c       ??_C@_0BF@JIKKOLOI@Too?5many?5Materials?$CB?6?$AA@ 004e655c     ssg_vs2008_32:ssgLoadX.obj
 0002:00008574       ??_C@_0BE@NLOIOFBC@Material?5expected?$CB?6?$AA@ 004e6574     ssg_vs2008_32:ssgLoadX.obj
 0002:00008588       ??_C@_0CI@HDMHNKDO@No?5global?5materials?5defined?0?5but@ 004e6588     ssg_vs2008_32:ssgLoadX.obj
 0002:000085b0       ??_C@_0BE@FIFDJHPL@Too?5few?5Materials?$CB?6?$AA@ 004e65b0     ssg_vs2008_32:ssgLoadX.obj
 0002:000085c4       ??_C@_01IHBHIGKO@?0?$AA@   004e65c4     ssg_vs2008_32:ssgLoadX.obj
 0002:000085c8       ??_C@_0HH@BEGCNAHK@No?5of?5face?5indexes?5of?5materialli@ 004e65c8     ssg_vs2008_32:ssgLoadX.obj
 0002:00008640       ??_C@_0BH@FNHDGJNP@number?5of?5Face?5Indexes?$AA@ 004e6640     ssg_vs2008_32:ssgLoadX.obj
 0002:00008658       ??_C@_0L@FDJPCHBD@nMaterials?$AA@ 004e6658     ssg_vs2008_32:ssgLoadX.obj
 0002:00008664       ??_C@_0BA@HALHNPEA@number?5of?5faces?$AA@ 004e6664     ssg_vs2008_32:ssgLoadX.obj
 0002:00008674       ??_C@_04PDBLCCBA@0064?$AA@ 004e6674     ssg_vs2008_32:ssgLoadX.obj
 0002:0000867c       ??_C@_04KDIKEHHN@0032?$AA@ 004e667c     ssg_vs2008_32:ssgLoadX.obj
 0002:00008684       ??_C@_0BB@COKGINHI@3rd?5Header?5field?$AA@ 004e6684     ssg_vs2008_32:ssgLoadX.obj
 0002:00008698       ??_C@_0JM@JNHEEPBO@This?5loader?5is?5written?5for?5X?9fil@ 004e6698     ssg_vs2008_32:ssgLoadX.obj
 0002:00008734       ??_C@_04LDHJFGMK@0302?$AA@ 004e6734     ssg_vs2008_32:ssgLoadX.obj
 0002:00008740       ??_C@_0KB@EOIHCPDE@Binary?5X?5format?5files?5are?5not?5su@ 004e6740     ssg_vs2008_32:ssgLoadX.obj
 0002:000087e4       ??_C@_03PDOMKJON@bin?$AA@  004e67e4     ssg_vs2008_32:ssgLoadX.obj
 0002:000087e8       ??_C@_03CLFHJCDC@txt?$AA@  004e67e8     ssg_vs2008_32:ssgLoadX.obj
 0002:000087ec       ??_C@_0BB@OIAFKLGN@2nd?5Header?5field?$AA@ 004e67ec     ssg_vs2008_32:ssgLoadX.obj
 0002:00008800       ??_C@_0BN@GMEDIOEC@not?5X?5format?0?5invalid?5Header?$AA@ 004e6800     ssg_vs2008_32:ssgLoadX.obj
 0002:00008820       ??_C@_03BMOIKM@xof?$AA@    004e6820     ssg_vs2008_32:ssgLoadX.obj
 0002:00008828       ??_C@_0BO@NEDIBFAM@ssgSaveX?3?5Not?5implemented?5yet?$AA@ 004e6828     ssg_vs2008_32:ssgSaveX.obj
 0002:0000884c       ??_C@_0CM@KKFIBHNK@ssgLoadMD2?3?5No?5skins?5specified?5i@ 004e684c     ssg_vs2008_32:ssgLoadMD2.obj
 0002:00008878       ??_C@_0CM@CLIHPPHE@ssgLoadMD2?3?5Failed?5to?5open?5?8?$CFs?8?5@ 004e6878     ssg_vs2008_32:ssgLoadMD2.obj
 0002:000088a8       ??_C@_0CF@MKFHMIPK@ssgLoadTRI?3?5Can?8t?5parse?5triangle@ 004e68a8     ssg_vs2008_32:ssgLoadTRI.obj
 0002:000088d0       ??_C@_0BO@PMAEBIM@?$CFe?5?$CFe?5?$CFe?5?$CFe?5?$CFe?5?$CFe?5?$CFe?5?$CFe?5?$CFe?5?$CFd?$AA@ 004e68d0     ssg_vs2008_32:ssgLoadTRI.obj
 0002:000088f0       ??_C@_0CM@EIGMMIKE@ssgLoadTRI?3?5Failed?5to?5open?5?8?$CFs?8?5@ 004e68f0     ssg_vs2008_32:ssgLoadTRI.obj
 0002:0000891c       ??_C@_02CLCNMADF@ra?$AA@   004e691c     ssg_vs2008_32:ssgLoadTRI.obj
 0002:00008924       ??_C@_09MJOBKFNE@0xFFFFFF?6?$AA@ 004e6924     ssg_vs2008_32:ssgSaveTRI.obj
 0002:00008930       ??_C@_09KPNFNMCB@?$CFf?5?$CFf?5?$CFf?5?$AA@ 004e6930     ssg_vs2008_32:ssgSaveTRI.obj
 0002:0000893c       ??_C@_0CM@PMAKKNK@ssgSaveTRI?3?5Failed?5to?5open?5?8?$CFs?8?5@ 004e693c     ssg_vs2008_32:ssgSaveTRI.obj
 0002:0000896c       ??_C@_06FMLIOCOC@map_Kd?$AA@ 004e696c     ssg_vs2008_32:ssgLoadOBJ.obj
 0002:00008974       ??_C@_02HIGDGOPJ@Ks?$AA@   004e6974     ssg_vs2008_32:ssgLoadOBJ.obj
 0002:00008978       ??_C@_02HNOAOKGP@Kd?$AA@   004e6978     ssg_vs2008_32:ssgLoadOBJ.obj
 0002:0000897c       ??_C@_08GKLGDJB@?$CFe?5?$CFe?5?$CFe?$AA@ 004e697c     ssg_vs2008_32:ssgLoadOBJ.obj
 0002:00008988       ??_C@_02JHBOCK@Ka?$AA@     004e6988     ssg_vs2008_32:ssgLoadOBJ.obj
 0002:0000898c       ??_C@_06PNAGKACE@NEWMTL?$AA@ 004e698c     ssg_vs2008_32:ssgLoadOBJ.obj
 0002:00008994       ??_C@_04IMIOGFMG@?$CFs?$CFn?$AA@ 004e6994     ssg_vs2008_32:ssgLoadOBJ.obj
 0002:0000899c       ??_C@_01KICIPPFI@?2?$AA@   004e699c     ssg_vs2008_32:ssgLoadOBJ.obj
 0002:000089a0       ??_C@_02GHFBGGE@VN?$AA@    004e69a0     ssg_vs2008_32:ssgLoadOBJ.obj
 0002:000089a4       ??_C@_02LGFIOMLP@VT?$AA@   004e69a4     ssg_vs2008_32:ssgLoadOBJ.obj
 0002:000089a8       ??_C@_01EJNLAFE@P?$AA@     004e69a8     ssg_vs2008_32:ssgLoadOBJ.obj
 0002:000089ac       ??_C@_01MJMHLOMK@O?$AA@    004e69ac     ssg_vs2008_32:ssgLoadOBJ.obj
 0002:000089b0       ??_C@_06FHHAENHE@USEMTL?$AA@ 004e69b0     ssg_vs2008_32:ssgLoadOBJ.obj
 0002:000089b8       ??_C@_06CBJFLHNM@MTLLIB?$AA@ 004e69b8     ssg_vs2008_32:ssgLoadOBJ.obj
 0002:000089c0       ??_C@_02MHMEOBLM@MG?$AA@   004e69c0     ssg_vs2008_32:ssgLoadOBJ.obj
 0002:000089c4       ??_C@_03OAKKIHJK@LOD?$AA@  004e69c4     ssg_vs2008_32:ssgLoadOBJ.obj
 0002:000089c8       ??_C@_01OCOKONAJ@L?$AA@    004e69c8     ssg_vs2008_32:ssgLoadOBJ.obj
 0002:000089cc       ??_C@_01BBODEMC@G?$AA@     004e69cc     ssg_vs2008_32:ssgLoadOBJ.obj
 0002:000089d0       ??_C@_04EBEAAKOA@?$CFd?$CFn?$AA@ 004e69d0     ssg_vs2008_32:ssgLoadOBJ.obj
 0002:000089d8       ??_C@_01BIAFAFID@F?$AA@    004e69d8     ssg_vs2008_32:ssgLoadOBJ.obj
 0002:000089dc       ??_C@_0CM@MGAFFKEC@ssgLoadOBJ?3?5Failed?5to?5open?5?8?$CFs?8?5@ 004e69dc     ssg_vs2008_32:ssgLoadOBJ.obj
 0002:00008a0c       ??_C@_08LHCLFLLO@l?5?$CFd?5?$CFd?6?$AA@ 004e6a0c     ssg_vs2008_32:ssgSaveOBJ.obj
 0002:00008a18       ??_C@_03EBJOKFHF@?5?$CFd?$AA@ 004e6a18     ssg_vs2008_32:ssgSaveOBJ.obj
 0002:00008a1c       ??_C@_07OJJMDEKC@?5?$CFd?1?1?$CFd?$AA@ 004e6a1c     ssg_vs2008_32:ssgSaveOBJ.obj
 0002:00008a24       ??_C@_0N@HBKOKNGF@vn?5?$CFf?5?$CFf?5?$CFf?6?$AA@ 004e6a24     ssg_vs2008_32:ssgSaveOBJ.obj
 0002:00008a34       ??_C@_0P@PCIHLDMH@v?5?$CFf?5?$CFf?5?$CFf?5?$CFf?6?$AA@ 004e6a34     ssg_vs2008_32:ssgSaveOBJ.obj
 0002:00008a44       ??_C@_06CBPDBEE@g?5SSG?6?$AA@ 004e6a44     ssg_vs2008_32:ssgSaveOBJ.obj
 0002:00008a4c       ??_C@_0BG@IOAOJJPL@?$CD?5?$CFs?5created?5by?5SSG?4?6?$AA@ 004e6a4c     ssg_vs2008_32:ssgSaveOBJ.obj
 0002:00008a64       ??_C@_0CM@IBKJDIDM@ssgSaveOBJ?3?5Failed?5to?5open?5?8?$CFs?8?5@ 004e6a64     ssg_vs2008_32:ssgSaveOBJ.obj
 0002:00008a98       ??_7dxfVertArray@@6B@      004e6a98     ssg_vs2008_32:ssgLoadDXF.obj
 0002:00008acc       ??_C@_04PJPMGNIF@?$CFe?$CFn?$AA@ 004e6acc     ssg_vs2008_32:ssgLoadDXF.obj
 0002:00008ad4       ??_C@_06GIJDCMML@SEQEND?$AA@ 004e6ad4     ssg_vs2008_32:ssgLoadDXF.obj
 0002:00008adc       ??_C@_06LHJBJNBG@ENDBLK?$AA@ 004e6adc     ssg_vs2008_32:ssgLoadDXF.obj
 0002:00008ae4       ??_C@_05DDIIKNEP@BLOCK?$AA@ 004e6ae4     ssg_vs2008_32:ssgLoadDXF.obj
 0002:00008aec       ??_C@_06OEMEAEKN@INSERT?$AA@ 004e6aec     ssg_vs2008_32:ssgLoadDXF.obj
 0002:00008af4       ??_C@_06HPIMPLPK@VERTEX?$AA@ 004e6af4     ssg_vs2008_32:ssgLoadDXF.obj
 0002:00008afc       ??_C@_08LPCGIFCB@POLYLINE?$AA@ 004e6afc     ssg_vs2008_32:ssgLoadDXF.obj
 0002:00008b08       ??_C@_06GEBIMNFM@3DFACE?$AA@ 004e6b08     ssg_vs2008_32:ssgLoadDXF.obj
 0002:00008b10       ??_C@_04LFMILBJH@LINE?$AA@ 004e6b10     ssg_vs2008_32:ssgLoadDXF.obj
 0002:00008b18       ??_C@_0CM@GCGMEGOC@ssgLoadDXF?3?5Failed?5to?5open?5?8?$CFs?8?5@ 004e6b18     ssg_vs2008_32:ssgLoadDXF.obj
 0002:00008b48       ??_C@_03ODGDBAIB@31?6?$AA@ 004e6b48     ssg_vs2008_32:ssgSaveDXF.obj
 0002:00008b4c       ??_C@_03FLNPHHOE@21?6?$AA@ 004e6b4c     ssg_vs2008_32:ssgSaveDXF.obj
 0002:00008b50       ??_C@_03EJGKNIAK@11?6?$AA@ 004e6b50     ssg_vs2008_32:ssgSaveDXF.obj
 0002:00008b54       ??_C@_03OCKBHKLG@30?6?$AA@ 004e6b54     ssg_vs2008_32:ssgSaveDXF.obj
 0002:00008b58       ??_C@_03FKBNBNND@20?6?$AA@ 004e6b58     ssg_vs2008_32:ssgSaveDXF.obj
 0002:00008b5c       ??_C@_03EIKILCDN@10?6?$AA@ 004e6b5c     ssg_vs2008_32:ssgSaveDXF.obj
 0002:00008b60       ??_C@_05JEDBCGNM@LINE?6?$AA@ 004e6b60     ssg_vs2008_32:ssgSaveDXF.obj
 0002:00008b68       ??_C@_03OAOHMEOP@33?6?$AA@ 004e6b68     ssg_vs2008_32:ssgSaveDXF.obj
 0002:00008b6c       ??_C@_03FIFLKDIK@23?6?$AA@ 004e6b6c     ssg_vs2008_32:ssgSaveDXF.obj
 0002:00008b70       ??_C@_03EKOOAMGE@13?6?$AA@ 004e6b70     ssg_vs2008_32:ssgSaveDXF.obj
 0002:00008b74       ??_C@_04PNIBBOMO@3?$CFd?6?$AA@ 004e6b74     ssg_vs2008_32:ssgSaveDXF.obj
 0002:00008b7c       ??_C@_04MAOBDHHO@2?$CFd?6?$AA@ 004e6b7c     ssg_vs2008_32:ssgSaveDXF.obj
 0002:00008b84       ??_C@_03PPOCCAPH@?$CFf?6?$AA@ 004e6b84     ssg_vs2008_32:ssgSaveDXF.obj
 0002:00008b88       ??_C@_04IHEBENKO@1?$CFd?6?$AA@ 004e6b88     ssg_vs2008_32:ssgSaveDXF.obj
 0002:00008b90       ??_C@_05NDBPJHOI@Cube?6?$AA@ 004e6b90     ssg_vs2008_32:ssgSaveDXF.obj
 0002:00008b98       ??_C@_02NACJHKEP@8?6?$AA@  004e6b98     ssg_vs2008_32:ssgSaveDXF.obj
 0002:00008b9c       ??_C@_07JIFGONJI@3DFACE?6?$AA@ 004e6b9c     ssg_vs2008_32:ssgSaveDXF.obj
 0002:00008ba4       ??_C@_02NODKCLPH@0?6?$AA@  004e6ba4     ssg_vs2008_32:ssgSaveDXF.obj
 0002:00008ba8       ??_C@_0GD@MCOKDKMN@ssgSaveDXF?3?5OpenGL?5mode?5?$CFd?5not?5i@ 004e6ba8     ssg_vs2008_32:ssgSaveDXF.obj
 0002:00008c0c       ??_C@_04OEEBIOEI@EOF?6?$AA@ 004e6c0c     ssg_vs2008_32:ssgSaveDXF.obj
 0002:00008c14       ??_C@_09IIGKOONL@ENTITIES?6?$AA@ 004e6c14     ssg_vs2008_32:ssgSaveDXF.obj
 0002:00008c20       ??_C@_07ELJDMHHE@BLOCKS?6?$AA@ 004e6c20     ssg_vs2008_32:ssgSaveDXF.obj
 0002:00008c28       ??_C@_07EOIBGNCE@TABLES?6?$AA@ 004e6c28     ssg_vs2008_32:ssgSaveDXF.obj
 0002:00008c30       ??_C@_07CABHGMEG@ENDSEC?6?$AA@ 004e6c30     ssg_vs2008_32:ssgSaveDXF.obj
 0002:00008c38       ??_C@_0BE@PNNKJMN@?$CFs?5created?5by?5SSG?4?6?$AA@ 004e6c38     ssg_vs2008_32:ssgSaveDXF.obj
 0002:00008c4c       ??_C@_04MJJKFDKL@999?6?$AA@ 004e6c4c     ssg_vs2008_32:ssgSaveDXF.obj
 0002:00008c54       ??_C@_07CGPMDOAL@HEADER?6?$AA@ 004e6c54     ssg_vs2008_32:ssgSaveDXF.obj
 0002:00008c5c       ??_C@_02NNLOPPJJ@2?6?$AA@  004e6c5c     ssg_vs2008_32:ssgSaveDXF.obj
 0002:00008c60       ??_C@_08MHNHEFHN@SECTION?6?$AA@ 004e6c60     ssg_vs2008_32:ssgSaveDXF.obj
 0002:00008c6c       ??_C@_0CM@CFMACEJM@ssgSaveDXF?3?5Failed?5to?5open?5?8?$CFs?8?5@ 004e6c6c     ssg_vs2008_32:ssgSaveDXF.obj
 0002:00008c98       ??_C@_04JBNFAOHP@GEND?$AA@ 004e6c98     ssg_vs2008_32:ssgLoadDOF.obj
 0002:00008ca0       ??_C@_04MKMHMMFL@BRST?$AA@ 004e6ca0     ssg_vs2008_32:ssgLoadDOF.obj
 0002:00008ca8       ??_C@_04DHIGGNDH@NORM?$AA@ 004e6ca8     ssg_vs2008_32:ssgLoadDOF.obj
 0002:00008cb0       ??_C@_04OEPEEBGK@TVER?$AA@ 004e6cb0     ssg_vs2008_32:ssgLoadDOF.obj
 0002:00008cb8       ??_C@_04JDKLPIAI@VERT?$AA@ 004e6cb8     ssg_vs2008_32:ssgLoadDOF.obj
 0002:00008cc0       ??_C@_04EBNNMMIE@INDI?$AA@ 004e6cc0     ssg_vs2008_32:ssgLoadDOF.obj
 0002:00008cc8       ??_C@_04HCLAOGKD@GHDR?$AA@ 004e6cc8     ssg_vs2008_32:ssgLoadDOF.obj
 0002:00008cd0       ??_C@_04NLGFBGNO@MEND?$AA@ 004e6cd0     ssg_vs2008_32:ssgLoadDOF.obj
 0002:00008cd8       ??_C@_04OIDOPFIK@MSUB?$AA@ 004e6cd8     ssg_vs2008_32:ssgLoadDOF.obj
 0002:00008ce0       ??_C@_04NJOCJEJI@MTEX?$AA@ 004e6ce0     ssg_vs2008_32:ssgLoadDOF.obj
 0002:00008ce8       ??_C@_04FLILIIHF@MTRA?$AA@ 004e6ce8     ssg_vs2008_32:ssgLoadDOF.obj
 0002:00008cf0       ??_C@_04PIKGPCBL@MUVW?$AA@ 004e6cf0     ssg_vs2008_32:ssgLoadDOF.obj
 0002:00008cf8       ??_C@_04DHBFKJDN@MCOL?$AA@ 004e6cf8     ssg_vs2008_32:ssgLoadDOF.obj
 0002:00008d00       ??_C@_04DIAAPOAC@MHDR?$AA@ 004e6d00     ssg_vs2008_32:ssgLoadDOF.obj
 0002:00008d08       ??_C@_04KFDKJKMM@GOB1?$AA@ 004e6d08     ssg_vs2008_32:ssgLoadDOF.obj
 0002:00008d10       ??_C@_04OOFBLNN@MAT0?$AA@  004e6d10     ssg_vs2008_32:ssgLoadDOF.obj
 0002:00008d18       ??_C@_04MGENMDMO@GEOB?$AA@ 004e6d18     ssg_vs2008_32:ssgLoadDOF.obj
 0002:00008d20       ??_C@_04EADFCDLJ@MATS?$AA@ 004e6d20     ssg_vs2008_32:ssgLoadDOF.obj
 0002:00008d28       ??_C@_04GAFNDCMP@EDOF?$AA@ 004e6d28     ssg_vs2008_32:ssgLoadDOF.obj
 0002:00008d30       ??_C@_04OFJDEIMA@DOF1?$AA@ 004e6d30     ssg_vs2008_32:ssgLoadDOF.obj
 0002:00008d3c       ??_C@_0BD@DAIODANK@Illegal?5token?5?8?$CFs?8?$AA@ 004e6d3c     ssg_vs2008_32:ssgLoadDOF.obj
 0002:00008d50       ??_C@_0DH@NJFAIOII@ssgLoadDOF?3?5Material?5contains?5an@ 004e6d50     ssg_vs2008_32:ssgLoadDOF.obj
 0002:00008d88       ??_C@_0CN@OMGHPNLJ@ssgLoadDOF?3?5Sub?9Materials?5are?5no@ 004e6d88     ssg_vs2008_32:ssgLoadDOF.obj
 0002:00008db8       ??_C@_0CC@MLBLKNCD@MAT0?3?5?5Name?$DN?8?$CFs?8?0?5className?$DN?8?$CFs?8@ 004e6db8     ssg_vs2008_32:ssgLoadDOF.obj
 0002:00008ddc       ??_C@_0BF@OCFPFDDD@Getting?5?$CFd?5materials?$AA@ 004e6ddc     ssg_vs2008_32:ssgLoadDOF.obj
 0002:00008df4       ??_C@_0DD@ELOBCDPP@ssgLoadDOF?3?5GOB1?5contains?5an?5unr@ 004e6df4     ssg_vs2008_32:ssgLoadDOF.obj
 0002:00008e28       ??_C@_0DE@KLFCGMN@ssgLoadDOF?3?5Geode?5contains?5an?5un@ 004e6e28     ssg_vs2008_32:ssgLoadDOF.obj
 0002:00008e5c       ??_C@_0BC@GNDOCIGM@Getting?5?$CFd?5geodes?$AA@ 004e6e5c     ssg_vs2008_32:ssgLoadDOF.obj
 0002:00008e70       ??_C@_0DD@JACOIGAM@ssgLoadDOF?3?5?8?$CFs?8?5contains?5an?5unr@ 004e6e70     ssg_vs2008_32:ssgLoadDOF.obj
 0002:00008ea4       ??_C@_0CP@NHEDINGJ@ssgLoadDOF?3?5?8?$CFs?8?5does?5not?5start?5@ 004e6ea4     ssg_vs2008_32:ssgLoadDOF.obj
 0002:00008ed4       ??_C@_0CM@NPJNAHNH@ssgLoadDOF?3?5Failed?5to?5open?5?8?$CFs?8?5@ 004e6ed4     ssg_vs2008_32:ssgLoadDOF.obj
 0002:00008f04       ??_C@_0BF@GLOPAEBD@unknown?5material?5?$CD?$CFd?$AA@ 004e6f04     ssg_vs2008_32:ssgLoadASE.obj
 0002:00008f1c       ??_C@_0CE@NKFFOIMK@ifl?5material?5only?5has?5?$DM2?5frames?3@ 004e6f1c     ssg_vs2008_32:ssgLoadASE.obj
 0002:00008f40       ??_C@_04MPFMMGNO@ifl_?$AA@ 004e6f40     ssg_vs2008_32:ssgLoadASE.obj
 0002:00008f48       ??_C@_08BHEBHAME@offset?4v?$AA@ 004e6f48     ssg_vs2008_32:ssgLoadASE.obj
 0002:00008f54       ??_C@_0O@KPOPKFDO@?$CKUVW_V_OFFSET?$AA@ 004e6f54     ssg_vs2008_32:ssgLoadASE.obj
 0002:00008f64       ??_C@_08DMGMCDAH@offset?4u?$AA@ 004e6f64     ssg_vs2008_32:ssgLoadASE.obj
 0002:00008f70       ??_C@_0O@JGGCJJPL@?$CKUVW_U_OFFSET?$AA@ 004e6f70     ssg_vs2008_32:ssgLoadASE.obj
 0002:00008f80       ??_C@_08NDLFAJBH@tiling?4v?$AA@ 004e6f80     ssg_vs2008_32:ssgLoadASE.obj
 0002:00008f8c       ??_C@_0O@CDMONOPG@?$CKUVW_V_TILING?$AA@ 004e6f8c     ssg_vs2008_32:ssgLoadASE.obj
 0002:00008f9c       ??_C@_08PIJIFKNE@tiling?4u?$AA@ 004e6f9c     ssg_vs2008_32:ssgLoadASE.obj
 0002:00008fa8       ??_C@_0O@BKEDOCDD@?$CKUVW_U_TILING?$AA@ 004e6fa8     ssg_vs2008_32:ssgLoadASE.obj
 0002:00008fb8       ??_C@_0BA@CIJCNMOF@bitmap?5filename?$AA@ 004e6fb8     ssg_vs2008_32:ssgLoadASE.obj
 0002:00008fc8       ??_C@_0CD@JADPOCOK@multiple?5textures?5for?5material?3?5@ 004e6fc8     ssg_vs2008_32:ssgLoadASE.obj
 0002:00008fec       ??_C@_07GGKGDCLE@?$CKBITMAP?$AA@ 004e6fec     ssg_vs2008_32:ssgLoadASE.obj
 0002:00008ff4       ??_C@_09JEMNPFOB@sub?5mat?5?$CD?$AA@ 004e6ff4     ssg_vs2008_32:ssgLoadASE.obj
 0002:00009000       ??_C@_0N@GKFHKGBD@?$CKSUBMATERIAL?$AA@ 004e7000     ssg_vs2008_32:ssgLoadASE.obj
 0002:00009010       ??_C@_0N@LJIOIAGM@?$CKMAP_DIFFUSE?$AA@ 004e7010     ssg_vs2008_32:ssgLoadASE.obj
 0002:00009020       ??_C@_0N@CMNBIHOP@transparency?$AA@ 004e7020     ssg_vs2008_32:ssgLoadASE.obj
 0002:00009030       ??_C@_0BH@MLIOIKII@?$CKMATERIAL_TRANSPARENCY?$AA@ 004e7030     ssg_vs2008_32:ssgLoadASE.obj
 0002:00009048       __real@4070000000000000    004e7048     ssg_vs2008_32:ssgLoadASE.obj
 0002:00009050       ??_C@_05HGCENMPO@shine?$AA@ 004e7050     ssg_vs2008_32:ssgLoadASE.obj
 0002:00009058       ??_C@_0BA@KIMMIDNB@?$CKMATERIAL_SHINE?$AA@ 004e7058     ssg_vs2008_32:ssgLoadASE.obj
 0002:00009068       ??_C@_06KJGICFOJ@spec?4b?$AA@ 004e7068     ssg_vs2008_32:ssgLoadASE.obj
 0002:00009070       ??_C@_06NEBPNBKM@spec?4g?$AA@ 004e7070     ssg_vs2008_32:ssgLoadASE.obj
 0002:00009078       ??_C@_06ODKKDHLI@spec?4r?$AA@ 004e7078     ssg_vs2008_32:ssgLoadASE.obj
 0002:00009080       ??_C@_0BD@JCKAOBKO@?$CKMATERIAL_SPECULAR?$AA@ 004e7080     ssg_vs2008_32:ssgLoadASE.obj
 0002:00009094       ??_C@_06FPLGFOBI@diff?4b?$AA@ 004e7094     ssg_vs2008_32:ssgLoadASE.obj
 0002:0000909c       ??_C@_06CCMBKKFN@diff?4g?$AA@ 004e709c     ssg_vs2008_32:ssgLoadASE.obj
 0002:000090a4       ??_C@_06BFHEEMEJ@diff?4r?$AA@ 004e70a4     ssg_vs2008_32:ssgLoadASE.obj
 0002:000090ac       ??_C@_0BC@EOFADIKM@?$CKMATERIAL_DIFFUSE?$AA@ 004e70ac     ssg_vs2008_32:ssgLoadASE.obj
 0002:000090c0       ??_C@_05BIAAGMBI@amb?4b?$AA@ 004e70c0     ssg_vs2008_32:ssgLoadASE.obj
 0002:000090c8       ??_C@_05GFHHJIFN@amb?4g?$AA@ 004e70c8     ssg_vs2008_32:ssgLoadASE.obj
 0002:000090d0       ??_C@_05FCMCHOEJ@amb?4r?$AA@ 004e70d0     ssg_vs2008_32:ssgLoadASE.obj
 0002:000090d8       ??_C@_0BC@PMAAIDLA@?$CKMATERIAL_AMBIENT?$AA@ 004e70d8     ssg_vs2008_32:ssgLoadASE.obj
 0002:000090ec       ??_C@_0L@LHDBIGN@?$CFs?0?5sub?$CD?$CFd?$AA@ 004e70ec     ssg_vs2008_32:ssgLoadASE.obj
 0002:000090f8       ??_C@_08EKANECFC@mat?5name?$AA@ 004e70f8     ssg_vs2008_32:ssgLoadASE.obj
 0002:00009104       ??_C@_0P@KMGPFMBM@?$CKMATERIAL_NAME?$AA@ 004e7104     ssg_vs2008_32:ssgLoadASE.obj
 0002:00009114       ??_C@_0BD@OJCNIFNI@too?5many?5materials?$AA@ 004e7114     ssg_vs2008_32:ssgLoadASE.obj
 0002:00009128       ??_C@_05DMLMBKGP@mat?5?$CD?$AA@ 004e7128     ssg_vs2008_32:ssgLoadASE.obj
 0002:00009130       ??_C@_09IPLEBICK@?$CKMATERIAL?$AA@ 004e7130     ssg_vs2008_32:ssgLoadASE.obj
 0002:0000913c       ??_C@_0BI@FCCICPBO@multiple?5material?5lists?$AA@ 004e713c     ssg_vs2008_32:ssgLoadASE.obj
 0002:00009158       ??_C@_0EC@CODJGENE@The?5field?5face?5?$CD?5should?5contain?5@ 004e7158     ssg_vs2008_32:ssgLoadASE.obj
 0002:0000919c       ??_C@_0BD@DEAKBCLL@missing?5?$CKTIMEVALUE?$AA@ 004e719c     ssg_vs2008_32:ssgLoadASE.obj
 0002:000091b0       ??_C@_07JDHEICME@cvert?4z?$AA@ 004e71b0     ssg_vs2008_32:ssgLoadASE.obj
 0002:000091b8       ??_C@_07LIFJNBAH@cvert?4y?$AA@ 004e71b8     ssg_vs2008_32:ssgLoadASE.obj
 0002:000091c0       ??_C@_07KBECOAEG@cvert?4x?$AA@ 004e71c0     ssg_vs2008_32:ssgLoadASE.obj
 0002:000091c8       ??_C@_0O@IOMBHCCO@bad?5cvertex?5?$CD?$AA@ 004e71c8     ssg_vs2008_32:ssgLoadASE.obj
 0002:000091d8       ??_C@_09KPOOPDGA@cvertex?5?$CD?$AA@ 004e71d8     ssg_vs2008_32:ssgLoadASE.obj
 0002:000091e4       ??_C@_0O@FKIDKNH@?$CKMESH_VERTCOL?$AA@ 004e71e4     ssg_vs2008_32:ssgLoadASE.obj
 0002:000091f4       ??_C@_07MOCHOJDF@tvert?4y?$AA@ 004e71f4     ssg_vs2008_32:ssgLoadASE.obj
 0002:000091fc       ??_C@_07NHDMNIHE@tvert?4x?$AA@ 004e71fc     ssg_vs2008_32:ssgLoadASE.obj
 0002:00009204       ??_C@_0O@ELLDOILP@bad?5tvertex?5?$CD?$AA@ 004e7204     ssg_vs2008_32:ssgLoadASE.obj
 0002:00009214       ??_C@_09GKJMGJPB@tvertex?5?$CD?$AA@ 004e7214     ssg_vs2008_32:ssgLoadASE.obj
 0002:00009220       ??_C@_0M@EKDABFLL@?$CKMESH_TVERT?$AA@ 004e7220     ssg_vs2008_32:ssgLoadASE.obj
 0002:0000922c       ??_C@_06DFFOCFIL@vert?4z?$AA@ 004e722c     ssg_vs2008_32:ssgLoadASE.obj
 0002:00009234       ??_C@_06BOHDHGEI@vert?4y?$AA@ 004e7234     ssg_vs2008_32:ssgLoadASE.obj
 0002:0000923c       ??_C@_06HGIEHAJ@vert?4x?$AA@ 004e723c     ssg_vs2008_32:ssgLoadASE.obj
 0002:00009244       ??_C@_0N@LMIMLPP@bad?5vertex?5?$CD?$AA@ 004e7244     ssg_vs2008_32:ssgLoadASE.obj
 0002:00009254       ??_C@_08JALNDAML@vertex?5?$CD?$AA@ 004e7254     ssg_vs2008_32:ssgLoadASE.obj
 0002:00009260       ??_C@_0N@NGAJDBFI@?$CKMESH_VERTEX?$AA@ 004e7260     ssg_vs2008_32:ssgLoadASE.obj
 0002:00009270       ??_C@_0P@NPKKMEIE@vertexNormal?4z?$AA@ 004e7270     ssg_vs2008_32:ssgLoadASE.obj
 0002:00009280       ??_C@_0P@PEIHJHEH@vertexNormal?4y?$AA@ 004e7280     ssg_vs2008_32:ssgLoadASE.obj
 0002:00009290       ??_C@_0P@ONJMKGAG@vertexNormal?4x?$AA@ 004e7290     ssg_vs2008_32:ssgLoadASE.obj
 0002:000092a0       ??_C@_0CM@BHMKJPPG@bad?5MESH_VERTEXNORMAL?5entries?5ou@ 004e72a0     ssg_vs2008_32:ssgLoadASE.obj
 0002:000092cc       ??_C@_0BA@CFLKENNL@vertex?5normal?5?$CD?$AA@ 004e72cc     ssg_vs2008_32:ssgLoadASE.obj
 0002:000092dc       ??_C@_0BL@BFHCIIGA@bad?5mesh_face_normal_count?$AA@ 004e72dc     ssg_vs2008_32:ssgLoadASE.obj
 0002:000092f8       ??_C@_0BN@MCEBAMKN@bad?5mesh_face_normal_index?5?$CD?$AA@ 004e72f8     ssg_vs2008_32:ssgLoadASE.obj
 0002:00009318       ??_C@_0BD@GEJDFAIM@?$CKMESH_VERTEXNORMAL?$AA@ 004e7318     ssg_vs2008_32:ssgLoadASE.obj
 0002:0000932c       ??_C@_0O@LJJNNEEO@face?5normal?5?$CD?$AA@ 004e732c     ssg_vs2008_32:ssgLoadASE.obj
 0002:0000933c       ??_C@_0BB@CDDIPKBI@?$CKMESH_FACENORMAL?$AA@ 004e733c     ssg_vs2008_32:ssgLoadASE.obj
 0002:00009350       ??_C@_0M@ILEBBDIO@tface?4cv?$FL2?$FN?$AA@ 004e7350     ssg_vs2008_32:ssgLoadASE.obj
 0002:0000935c       ??_C@_0M@IJAHKNNH@tface?4cv?$FL1?$FN?$AA@ 004e735c     ssg_vs2008_32:ssgLoadASE.obj
 0002:00009368       ??_C@_0M@IIMFMHOA@tface?4cv?$FL0?$FN?$AA@ 004e7368     ssg_vs2008_32:ssgLoadASE.obj
 0002:00009374       ??_C@_0M@KKMAJNAD@bad?5cface?5?$CD?$AA@ 004e7374     ssg_vs2008_32:ssgLoadASE.obj
 0002:00009380       ??_C@_07LLPJBJMD@cface?5?$CD?$AA@ 004e7380     ssg_vs2008_32:ssgLoadASE.obj
 0002:00009388       ??_C@_0M@PFFMMNBK@?$CKMESH_CFACE?$AA@ 004e7388     ssg_vs2008_32:ssgLoadASE.obj
 0002:00009394       ??_C@_0M@JFJCCBKN@tface?4tv?$FL2?$FN?$AA@ 004e7394     ssg_vs2008_32:ssgLoadASE.obj
 0002:000093a0       ??_C@_0M@JHNEJPPE@tface?4tv?$FL1?$FN?$AA@ 004e73a0     ssg_vs2008_32:ssgLoadASE.obj
 0002:000093ac       ??_C@_0M@JGBGPFMD@tface?4tv?$FL0?$FN?$AA@ 004e73ac     ssg_vs2008_32:ssgLoadASE.obj
 0002:000093b8       ??_C@_0M@NMLOKFDB@bad?5tface?5?$CD?$AA@ 004e73b8     ssg_vs2008_32:ssgLoadASE.obj
 0002:000093c4       ??_C@_07MNIHCBPB@tface?5?$CD?$AA@ 004e73c4     ssg_vs2008_32:ssgLoadASE.obj
 0002:000093cc       ??_C@_0M@OLIPPPDJ@?$CKMESH_TFACE?$AA@ 004e73cc     ssg_vs2008_32:ssgLoadASE.obj
 0002:000093d8       ??_C@_0M@DDJAAEMC@?$CKMESH_MTLID?$AA@ 004e73d8     ssg_vs2008_32:ssgLoadASE.obj
 0002:000093e4       ??_C@_09HDLMFJCO@face?4v?$FL2?$FN?$AA@ 004e73e4     ssg_vs2008_32:ssgLoadASE.obj
 0002:000093f0       ??_C@_02FHMLMLAN@C?3?$AA@  004e73f0     ssg_vs2008_32:ssgLoadASE.obj
 0002:000093f4       ??_C@_09HBPKOHHH@face?4v?$FL1?$FN?$AA@ 004e73f4     ssg_vs2008_32:ssgLoadASE.obj
 0002:00009400       ??_C@_02FGAJKBDK@B?3?$AA@  004e7400     ssg_vs2008_32:ssgLoadASE.obj
 0002:00009404       ??_C@_09HADIINEA@face?4v?$FL0?$FN?$AA@ 004e7404     ssg_vs2008_32:ssgLoadASE.obj
 0002:00009410       ??_C@_02FEEPBPGD@A?3?$AA@  004e7410     ssg_vs2008_32:ssgLoadASE.obj
 0002:00009414       ??_C@_0L@CFFMCCFH@bad?5face?5?$CD?$AA@ 004e7414     ssg_vs2008_32:ssgLoadASE.obj
 0002:00009420       ??_C@_06BNNDLOIM@face?5?$CD?$AA@ 004e7420     ssg_vs2008_32:ssgLoadASE.obj
 0002:00009428       ??_C@_0L@FFFGDMGJ@?$CKMESH_FACE?$AA@ 004e7428     ssg_vs2008_32:ssgLoadASE.obj
 0002:00009434       ??_C@_0L@HLLPIFP@num_cverts?$AA@ 004e7434     ssg_vs2008_32:ssgLoadASE.obj
 0002:00009440       ??_C@_0BA@KNNHKFDM@?$CFs?5already?5seen?$AA@ 004e7440     ssg_vs2008_32:ssgLoadASE.obj
 0002:00009450       ??_C@_0BB@EIAPHOIJ@?$CKMESH_NUMCVERTEX?$AA@ 004e7450     ssg_vs2008_32:ssgLoadASE.obj
 0002:00009464       ??_C@_0L@KFMCFKBP@num_tverts?$AA@ 004e7464     ssg_vs2008_32:ssgLoadASE.obj
 0002:00009470       ??_C@_0BB@DOHBEGLL@?$CKMESH_NUMTVERTEX?$AA@ 004e7470     ssg_vs2008_32:ssgLoadASE.obj
 0002:00009484       ??_C@_09ONGJJNKL@num_verts?$AA@ 004e7484     ssg_vs2008_32:ssgLoadASE.obj
 0002:00009490       ??_C@_0BA@HNHPGJCI@?$CKMESH_NUMVERTEX?$AA@ 004e7490     ssg_vs2008_32:ssgLoadASE.obj
 0002:000094a0       ??_C@_0BO@IHNHHBPK@NUMCFACES?$CI?$CFd?$CJ?5?$CB?$DN?5NUMFACES?$CI?$CFd?$CJ?$AA@ 004e74a0     ssg_vs2008_32:ssgLoadASE.obj
 0002:000094c0       ??_C@_07PMIAANMO@ncfaces?$AA@ 004e74c0     ssg_vs2008_32:ssgLoadASE.obj
 0002:000094c8       ??_C@_0BB@MHOBFHJI@?$CKMESH_NUMCVFACES?$AA@ 004e74c8     ssg_vs2008_32:ssgLoadASE.obj
 0002:000094dc       ??_C@_0BO@LHGJMCJ@NUMTFACES?$CI?$CFd?$CJ?5?$CB?$DN?5NUMFACES?$CI?$CFd?$CJ?$AA@ 004e74dc     ssg_vs2008_32:ssgLoadASE.obj
 0002:000094fc       ??_C@_07FOPJKPIO@ntfaces?$AA@ 004e74fc     ssg_vs2008_32:ssgLoadASE.obj
 0002:00009504       ??_C@_0BB@LBJPGPKK@?$CKMESH_NUMTVFACES?$AA@ 004e7504     ssg_vs2008_32:ssgLoadASE.obj
 0002:00009518       ??_C@_09OOHOMAEN@num_faces?$AA@ 004e7518     ssg_vs2008_32:ssgLoadASE.obj
 0002:00009524       ??_C@_0P@CMIKIHI@?$CKMESH_NUMFACES?$AA@ 004e7524     ssg_vs2008_32:ssgLoadASE.obj
 0002:00009534       ??_C@_04CLCEDBPF@time?$AA@ 004e7534     ssg_vs2008_32:ssgLoadASE.obj
 0002:0000953c       ??_C@_0L@BPNBKNEB@?$CKTIMEVALUE?$AA@ 004e753c     ssg_vs2008_32:ssgLoadASE.obj
 0002:00009548       ??_C@_0P@LPIEGNHB@internal?5error?$AA@ 004e7548     ssg_vs2008_32:ssgLoadASE.obj
 0002:00009558       ??_C@_08BNIOLGIB@bad?5time?$AA@ 004e7558     ssg_vs2008_32:ssgLoadASE.obj
 0002:00009564       ??_C@_07HGMNFLIJ@scale?4z?$AA@ 004e7564     ssg_vs2008_32:ssgLoadASE.obj
 0002:0000956c       ??_C@_07FNOAAIEK@scale?4y?$AA@ 004e756c     ssg_vs2008_32:ssgLoadASE.obj
 0002:00009574       ??_C@_07EEPLDJAL@scale?4x?$AA@ 004e7574     ssg_vs2008_32:ssgLoadASE.obj
 0002:0000957c       ??_C@_0BG@DJDILDAE@?$CKCONTROL_SCALE_SAMPLE?$AA@ 004e757c     ssg_vs2008_32:ssgLoadASE.obj
 0002:00009594       ??_C@_07CJGNBAGI@easeOut?$AA@ 004e7594     ssg_vs2008_32:ssgLoadASE.obj
 0002:0000959c       ??_C@_06EOAKPCHE@easeIn?$AA@ 004e759c     ssg_vs2008_32:ssgLoadASE.obj
 0002:000095a4       ??_C@_04NBAGBPGE@bias?$AA@ 004e75a4     ssg_vs2008_32:ssgLoadASE.obj
 0002:000095ac       ??_C@_04INBALIPC@cont?$AA@ 004e75ac     ssg_vs2008_32:ssgLoadASE.obj
 0002:000095b4       ??_C@_04HPCMIFMD@tens?$AA@ 004e75b4     ssg_vs2008_32:ssgLoadASE.obj
 0002:000095bc       ??_C@_0BF@OMBCDKDA@?$CKCONTROL_TCB_ROT_KEY?$AA@ 004e75bc     ssg_vs2008_32:ssgLoadASE.obj
 0002:000095d4       ??_C@_06KCIIAIKE@axis?4z?$AA@ 004e75d4     ssg_vs2008_32:ssgLoadASE.obj
 0002:000095dc       ??_C@_06IJKFFLGH@axis?4y?$AA@ 004e75dc     ssg_vs2008_32:ssgLoadASE.obj
 0002:000095e4       ??_C@_06JALOGKCG@axis?4x?$AA@ 004e75e4     ssg_vs2008_32:ssgLoadASE.obj
 0002:000095ec       ??_C@_0BE@OCINHHED@?$CKCONTROL_ROT_SAMPLE?$AA@ 004e75ec     ssg_vs2008_32:ssgLoadASE.obj
 0002:00009600       ??_C@_05MAPEEGOF@pos?4z?$AA@ 004e7600     ssg_vs2008_32:ssgLoadASE.obj
 0002:00009608       ??_C@_05OLNJBFCG@pos?4y?$AA@ 004e7608     ssg_vs2008_32:ssgLoadASE.obj
 0002:00009610       ??_C@_05PCMCCEGH@pos?4x?$AA@ 004e7610     ssg_vs2008_32:ssgLoadASE.obj
 0002:00009618       ??_C@_0BE@NOIAKDEL@?$CKCONTROL_POS_SAMPLE?$AA@ 004e7618     ssg_vs2008_32:ssgLoadASE.obj
 0002:0000962c       ??_C@_08NNJFIKKE@obj?5name?$AA@ 004e762c     ssg_vs2008_32:ssgLoadASE.obj
 0002:00009638       ??_C@_0L@GAIDCMN@?$CKNODE_NAME?$AA@ 004e7638     ssg_vs2008_32:ssgLoadASE.obj
 0002:00009644       ??_C@_0O@CLCBHAAE@?$CKMATERIAL_REF?$AA@ 004e7644     ssg_vs2008_32:ssgLoadASE.obj
 0002:00009654       ??_C@_0O@DDDPJABH@?$CKTM_ANIMATION?$AA@ 004e7654     ssg_vs2008_32:ssgLoadASE.obj
 0002:00009664       ??_C@_0BA@OENPCADC@?$CKMESH_ANIMATION?$AA@ 004e7664     ssg_vs2008_32:ssgLoadASE.obj
 0002:00009674       ??_C@_05LCPJBJBP@?$CKMESH?$AA@ 004e7674     ssg_vs2008_32:ssgLoadASE.obj
 0002:0000967c       ??_C@_0O@IGDFHMOE@inherit_pos?4z?$AA@ 004e767c     ssg_vs2008_32:ssgLoadASE.obj
 0002:0000968c       ??_C@_0O@KNBICPCH@inherit_pos?4y?$AA@ 004e768c     ssg_vs2008_32:ssgLoadASE.obj
 0002:0000969c       ??_C@_0O@LEADBOGG@inherit_pos?4x?$AA@ 004e769c     ssg_vs2008_32:ssgLoadASE.obj
 0002:000096ac       ??_C@_0N@IDKHDHBI@?$CKINHERIT_POS?$AA@ 004e76ac     ssg_vs2008_32:ssgLoadASE.obj
 0002:000096bc       ??_C@_07NCJBJMM@?$CKTM_POS?$AA@ 004e76bc     ssg_vs2008_32:ssgLoadASE.obj
 0002:000096c4       ??_C@_07ECLPIIIF@?4Target?$AA@ 004e76c4     ssg_vs2008_32:ssgLoadASE.obj
 0002:000096cc       ??_C@_08DJKLABLA@?$CKNODE_TM?$AA@ 004e76cc     ssg_vs2008_32:ssgLoadASE.obj
 0002:000096d8       ??_C@_0M@PCIFLNIO@parent?5name?$AA@ 004e76d8     ssg_vs2008_32:ssgLoadASE.obj
 0002:000096e4       ??_C@_0N@MHABCBNB@?$CKNODE_PARENT?$AA@ 004e76e4     ssg_vs2008_32:ssgLoadASE.obj
 0002:000096f4       ??_C@_0BD@BEPKFJAL@invalid?5?$CFs?5version?$AA@ 004e76f4     ssg_vs2008_32:ssgLoadASE.obj
 0002:00009708       ??_C@_0P@EOBOMNAF@not?5ASE?5format?$AA@ 004e7708     ssg_vs2008_32:ssgLoadASE.obj
 0002:00009718       ??_C@_0O@KEBLPMNH@?$CKCAMERAOBJECT?$AA@ 004e7718     ssg_vs2008_32:ssgLoadASE.obj
 0002:00009728       ??_C@_0O@HKEIPEBH@?$CKHELPEROBJECT?$AA@ 004e7728     ssg_vs2008_32:ssgLoadASE.obj
 0002:00009738       ??_C@_0M@KACODMLC@?$CKGEOMOBJECT?$AA@ 004e7738     ssg_vs2008_32:ssgLoadASE.obj
 0002:00009744       ??_C@_0P@FGHKIKPJ@?$CKMATERIAL_LIST?$AA@ 004e7744     ssg_vs2008_32:ssgLoadASE.obj
 0002:00009754       ??_C@_0BA@NGKELPPO@TICKSPERFRAME?5?$CD?$AA@ 004e7754     ssg_vs2008_32:ssgLoadASE.obj
 0002:00009764       ??_C@_0BF@LOLEDIGM@?$CKSCENE_TICKSPERFRAME?$AA@ 004e7764     ssg_vs2008_32:ssgLoadASE.obj
 0002:0000977c       ??_C@_0N@HAEMJAHA@FRAMESPEED?5?$CD?$AA@ 004e777c     ssg_vs2008_32:ssgLoadASE.obj
 0002:0000978c       ??_C@_0BC@EGNGOPIC@?$CKSCENE_FRAMESPEED?$AA@ 004e778c     ssg_vs2008_32:ssgLoadASE.obj
 0002:000097a0       ??_C@_0M@MOOJMHLE@LASTFRAME?5?$CD?$AA@ 004e77a0     ssg_vs2008_32:ssgLoadASE.obj
 0002:000097ac       ??_C@_0BB@NNBFEFEM@?$CKSCENE_LASTFRAME?$AA@ 004e77ac     ssg_vs2008_32:ssgLoadASE.obj
 0002:000097c0       ??_C@_0N@IJHNMPF@FIRSTFRAME?5?$CD?$AA@ 004e77c0     ssg_vs2008_32:ssgLoadASE.obj
 0002:000097d0       ??_C@_0BC@BFPMGIKM@?$CKSCENE_FIRSTFRAME?$AA@ 004e77d0     ssg_vs2008_32:ssgLoadASE.obj
 0002:000097e4       ??_C@_06MHNHKNBG@?$CKSCENE?$AA@ 004e77e4     ssg_vs2008_32:ssgLoadASE.obj
 0002:000097ec       ??_C@_0P@MINEHDOI@version?5number?$AA@ 004e77ec     ssg_vs2008_32:ssgLoadASE.obj
 0002:000097fc       ??_C@_0BE@CKPGNJKL@?$CK3DSMAX_ASCIIEXPORT?$AA@ 004e77fc     ssg_vs2008_32:ssgLoadASE.obj
 0002:00009810       ??_C@_0BC@ENOOLCNF@not?5enough?5memory?$AA@ 004e7810     ssg_vs2008_32:ssgLoadASE.obj
 0002:00009828       ??_C@_04POOIJLFB@?5?5?$HN?6?$AA@ 004e7828     ssg_vs2008_32:ssgSaveASE.obj
 0002:00009830       ??_C@_0CA@PIDPODHF@?5?5?5?5?5?5?$CKBITMAP_FILTER?5Pyramidal?6?$AA@ 004e7830     ssg_vs2008_32:ssgSaveASE.obj
 0002:00009850       ??_C@_0BP@BEHAAPDB@?5?5?5?5?5?5?$CKUVW_NOISE_PHASE?50?40000?6?$AA@ 004e7850     ssg_vs2008_32:ssgSaveASE.obj
 0002:00009870       ??_C@_0BK@BNKFLCNO@?5?5?5?5?5?5?$CKUVW_NOISE_LEVEL?51?6?$AA@ 004e7870     ssg_vs2008_32:ssgSaveASE.obj
 0002:0000988c       ??_C@_0BO@JNPPKKNM@?5?5?5?5?5?5?$CKUVW_NOISE_SIZE?51?40000?6?$AA@ 004e788c     ssg_vs2008_32:ssgSaveASE.obj
 0002:000098ac       ??_C@_0BN@OJDIODHE@?5?5?5?5?5?5?$CKUVW_NOUSE_AMT?51?40000?6?$AA@ 004e78ac     ssg_vs2008_32:ssgSaveASE.obj
 0002:000098cc       ??_C@_0BP@INIAKNII@?5?5?5?5?5?5?$CKUVW_BLUR_OFFSET?50?40000?6?$AA@ 004e78cc     ssg_vs2008_32:ssgSaveASE.obj
 0002:000098ec       ??_C@_0BI@OMHCOND@?5?5?5?5?5?5?$CKUVW_BLUR?51?40000?6?$AA@ 004e78ec     ssg_vs2008_32:ssgSaveASE.obj
 0002:00009904       ??_C@_0BJ@BOPMJNDO@?5?5?5?5?5?5?$CKUVW_ANGLE?50?40000?6?$AA@ 004e7904     ssg_vs2008_32:ssgSaveASE.obj
 0002:00009920       ??_C@_0BM@NBFMKJFI@?5?5?5?5?5?5?$CKUVW_V_TILING?51?40000?6?$AA@ 004e7920     ssg_vs2008_32:ssgSaveASE.obj
 0002:0000993c       ??_C@_0BM@ICMGPCNM@?5?5?5?5?5?5?$CKUVW_U_TILING?51?40000?6?$AA@ 004e793c     ssg_vs2008_32:ssgSaveASE.obj
 0002:00009958       ??_C@_0BM@OCDMPKJF@?5?5?5?5?5?5?$CKUVW_V_OFFSET?50?40000?6?$AA@ 004e7958     ssg_vs2008_32:ssgSaveASE.obj
 0002:00009974       ??_C@_0BM@LBKGKBBB@?5?5?5?5?5?5?$CKUVW_U_OFFSET?50?40000?6?$AA@ 004e7974     ssg_vs2008_32:ssgSaveASE.obj
 0002:00009990       ??_C@_0BL@OEKFEPIO@?5?5?5?5?5?5?$CKMAP_TYPE?5Spherical?6?$AA@ 004e7990     ssg_vs2008_32:ssgSaveASE.obj
 0002:000099ac       ??_C@_0BE@EELNAIBB@?5?5?5?5?5?5?$CKBITMAP?5?$CC?$CFs?$CC?6?$AA@ 004e79ac     ssg_vs2008_32:ssgSaveASE.obj
 0002:000099c0       ??_C@_0BK@LCHKGAFK@?5?5?5?5?5?5?$CKMAP_AMOUNT?51?40000?6?$AA@ 004e79c0     ssg_vs2008_32:ssgSaveASE.obj
 0002:000099dc       ??_C@_0BE@ELNAKNHK@?5?5?5?5?5?5?$CKMAP_SUBNO?51?6?$AA@ 004e79dc     ssg_vs2008_32:ssgSaveASE.obj
 0002:000099f0       ??_C@_0BL@LOGEJEDB@?5?5?5?5?5?5?$CKMAP_CLASS?5?$CCBitmap?$CC?6?$AA@ 004e79f0     ssg_vs2008_32:ssgSaveASE.obj
 0002:00009a0c       ??_C@_0BL@BGCLPFOJ@?5?5?5?5?5?5?$CKMAP_NAME?5?$CCMap?5?$CD?$CFd?$CC?6?$AA@ 004e7a0c     ssg_vs2008_32:ssgSaveASE.obj
 0002:00009a28       ??_C@_0BE@NOMELIJJ@?5?5?5?5?$CKMAP_DIFFUSE?5?$HL?6?$AA@ 004e7a28     ssg_vs2008_32:ssgSaveASE.obj
 0002:00009a3c       ??_C@_0BO@MNMMOCPE@?5?5?5?5?$CKMATERIAL_XP_TYPE?5Filter?6?$AA@ 004e7a3c     ssg_vs2008_32:ssgSaveASE.obj
 0002:00009a5c       ??_C@_0BG@JOMFCKJJ@?5?5?5?5?$CKMATERIAL_SOFTEN?6?$AA@ 004e7a5c     ssg_vs2008_32:ssgSaveASE.obj
 0002:00009a74       ??_C@_0BK@NHJBJPLB@?5?5?5?5?$CKMATERIAL_FALLOFF?5In?6?$AA@ 004e7a74     ssg_vs2008_32:ssgSaveASE.obj
 0002:00009a90       ??_C@_0BI@CHGNOFNC@?5?5?5?5?$CKMATERIAL_TWOSIDED?6?$AA@ 004e7a90     ssg_vs2008_32:ssgSaveASE.obj
 0002:00009aa8       ??_C@_0CA@GJLLLGAI@?5?5?5?5?$CKMATERIAL_SELFILLUM?50?40000?6?$AA@ 004e7aa8     ssg_vs2008_32:ssgSaveASE.obj
 0002:00009ac8       ??_C@_0CB@NNKKGDPA@?5?5?5?5?$CKMATERIAL_XP_FALLOFF?50?40000?6@ 004e7ac8     ssg_vs2008_32:ssgSaveASE.obj
 0002:00009aec       ??_C@_0BN@DDMFIBPL@?5?5?5?5?$CKMATERIAL_SHADING?5Blinn?6?$AA@ 004e7aec     ssg_vs2008_32:ssgSaveASE.obj
 0002:00009b0c       ??_C@_0BP@BNEEHMKA@?5?5?5?5?$CKMATERIAL_WIRESIZE?51?40000?6?$AA@ 004e7b0c     ssg_vs2008_32:ssgSaveASE.obj
 0002:00009b2c       ??_C@_0BP@PIBJKEOC@?5?5?5?5?$CKMATERIAL_TRANSPARENCY?5?$CFf?6?$AA@ 004e7b2c     ssg_vs2008_32:ssgSaveASE.obj
 0002:00009b4c       ??_C@_0CA@LFOEIIGH@?5?5?5?5?$CKMATERIAL_SHINESTRENGTH?5?$CFf?6?$AA@ 004e7b4c     ssg_vs2008_32:ssgSaveASE.obj
 0002:00009b6c       ??_C@_0BI@GNDBPDPJ@?5?5?5?5?$CKMATERIAL_SHINE?5?$CFf?6?$AA@ 004e7b6c     ssg_vs2008_32:ssgSaveASE.obj
 0002:00009b84       ??_C@_0CB@NHLIGADN@?5?5?5?5?$CKMATERIAL_SPECULAR?5?$CFf?5?$CFf?5?$CFf?6@ 004e7b84     ssg_vs2008_32:ssgSaveASE.obj
 0002:00009ba8       ??_C@_0CA@KOLEPKJI@?5?5?5?5?$CKMATERIAL_DIFFUSE?5?$CFf?5?$CFf?5?$CFf?6?$AA@ 004e7ba8     ssg_vs2008_32:ssgSaveASE.obj
 0002:00009bc8       ??_C@_0CA@LLNLGIPB@?5?5?5?5?$CKMATERIAL_AMBIENT?5?$CFf?5?$CFf?5?$CFf?6?$AA@ 004e7bc8     ssg_vs2008_32:ssgSaveASE.obj
 0002:00009be8       ??_C@_0CA@BCOPLHLC@?5?5?5?5?$CKMATERIAL_CLASS?5?$CCStandard?$CC?6?$AA@ 004e7be8     ssg_vs2008_32:ssgSaveASE.obj
 0002:00009c08       ??_C@_0CD@BJDDMGJN@?5?5?5?5?$CKMATERIAL_NAME?5?$CCMaterial?5?$CD?$CFd@ 004e7c08     ssg_vs2008_32:ssgSaveASE.obj
 0002:00009c2c       ??_C@_0BC@IAIMMNCA@?5?5?$CKMATERIAL?5?$CFd?5?$HL?6?$AA@ 004e7c2c     ssg_vs2008_32:ssgSaveASE.obj
 0002:00009c40       ??_C@_0BG@DJDPLHMO@?5?5?$CKMATERIAL_COUNT?5?$CFd?6?$AA@ 004e7c40     ssg_vs2008_32:ssgSaveASE.obj
 0002:00009c58       ??_C@_0BC@MJNAGAOP@?$CKMATERIAL_LIST?5?$HL?6?$AA@ 004e7c58     ssg_vs2008_32:ssgSaveASE.obj
 0002:00009c6c       ??_C@_0BE@EMBKJKAF@?5?5?$CKMATERIAL_REF?5?$CFd?6?$AA@ 004e7c6c     ssg_vs2008_32:ssgSaveASE.obj
 0002:00009c80       ??_C@_0BG@JLDGBDNB@?5?5?$CKPROP_RECVSHADOW?51?6?$AA@ 004e7c80     ssg_vs2008_32:ssgSaveASE.obj
 0002:00009c98       ??_C@_0BG@PEEGPAGA@?5?5?$CKPROP_CASTSHADOW?51?6?$AA@ 004e7c98     ssg_vs2008_32:ssgSaveASE.obj
 0002:00009cb0       ??_C@_0BG@EMEGFMMB@?5?5?$CKPROP_MOTIONBLUR?50?6?$AA@ 004e7cb0     ssg_vs2008_32:ssgSaveASE.obj
 0002:00009cc8       ??_C@_0BI@POCBNPNO@?5?5?5?5?$CKMESH_NUMCVERTEX?50?6?$AA@ 004e7cc8     ssg_vs2008_32:ssgSaveASE.obj
 0002:00009ce0       ??_C@_05KJDAJCPN@done?6?$AA@ 004e7ce0     ssg_vs2008_32:ssgSaveASE.obj
 0002:00009ce8       ??_C@_0BI@HJOMAOJG@?5?5?5?5?$CKMESH_NUMTVERTEX?50?6?$AA@ 004e7ce8     ssg_vs2008_32:ssgSaveASE.obj
 0002:00009d00       ??_C@_0BP@FKJDLMCK@?5?5?5?5?5?5?$CKMESH_TFACE?5?$CFd?5?$CFd?5?$CFd?5?$CFd?6?$AA@ 004e7d00     ssg_vs2008_32:ssgSaveASE.obj
 0002:00009d20       ??_C@_0BH@KOEAJIML@?5?5?5?5?$CKMESH_TFACELIST?5?$HL?6?$AA@ 004e7d20     ssg_vs2008_32:ssgSaveASE.obj
 0002:00009d38       ??_C@_0BJ@KELHHODE@?5?5?5?5?$CKMESH_NUMTVFACES?5?$CFd?6?$AA@ 004e7d38     ssg_vs2008_32:ssgSaveASE.obj
 0002:00009d54       ??_C@_0BP@NCFEHBLG@?5?5?5?5?5?5?$CKMESH_TVERT?5?$CFd?5?$CFf?5?$CFf?5?$CFf?6?$AA@ 004e7d54     ssg_vs2008_32:ssgSaveASE.obj
 0002:00009d74       ??_C@_0BH@GBFGLKFB@?5?5?5?5?$CKMESH_TVERTLIST?5?$HL?6?$AA@ 004e7d74     ssg_vs2008_32:ssgSaveASE.obj
 0002:00009d8c       ??_C@_0BJ@MGHEHDHC@?5?5?5?5?$CKMESH_NUMTVERTEX?5?$CFd?6?$AA@ 004e7d8c     ssg_vs2008_32:ssgSaveASE.obj
 0002:00009da8       ??_C@_0DC@MPCNBBPM@?5AB?3?51?5BC?3?51?5CA?3?51?5?$CKMESH_SMOOTHI@ 004e7da8     ssg_vs2008_32:ssgSaveASE.obj
 0002:00009ddc       ??_C@_0CH@KJNKLJC@?5?5?5?5?5?5?$CKMESH_FACE?5?$CFd?3?5A?3?5?$CFd?5B?3?5?$CFd@ 004e7ddc     ssg_vs2008_32:ssgSaveASE.obj
 0002:00009e04       ??_C@_0BH@GCBPGDLM@?5?5?5?5?$CKMESH_FACE_LIST?5?$HL?6?$AA@ 004e7e04     ssg_vs2008_32:ssgSaveASE.obj
 0002:00009e1c       ??_C@_0CA@NBMHDLIL@?5?5?5?5?5?5?$CKMESH_VERTEX?5?$CFd?5?$CFf?5?$CFf?5?$CFf?6?$AA@ 004e7e1c     ssg_vs2008_32:ssgSaveASE.obj
 0002:00009e3c       ??_C@_0BJ@ICJOMCKF@?5?5?5?5?$CKMESH_VERTEX_LIST?5?$HL?6?$AA@ 004e7e3c     ssg_vs2008_32:ssgSaveASE.obj
 0002:00009e58       ??_C@_0BH@NIDHEFBM@?5?5?5?5?$CKMESH_NUMFACES?5?$CFd?6?$AA@ 004e7e58     ssg_vs2008_32:ssgSaveASE.obj
 0002:00009e70       ??_C@_0BI@IPPPAOM@?5?5?5?5?$CKMESH_NUMVERTEX?5?$CFd?6?$AA@ 004e7e70     ssg_vs2008_32:ssgSaveASE.obj
 0002:00009e88       ??_C@_0BC@LPCMBMIJ@?5?5?5?5?$CKTIMEVALUE?50?6?$AA@ 004e7e88     ssg_vs2008_32:ssgSaveASE.obj
 0002:00009e9c       ??_C@_0L@OCNOOBP@?5?5?$CKMESH?5?$HL?6?$AA@ 004e7e9c     ssg_vs2008_32:ssgSaveASE.obj
 0002:00009ea8       ??_C@_0BN@CLAECPOP@?5?5?5?5?$CKTM_SCALEAXISANG?50?40000?6?$AA@ 004e7ea8     ssg_vs2008_32:ssgSaveASE.obj
 0002:00009ec8       ??_C@_0CI@HADIKFCI@?5?5?5?5?$CKTM_SCALEAXIS?50?40000?50?40000?5@ 004e7ec8     ssg_vs2008_32:ssgSaveASE.obj
 0002:00009ef0       ??_C@_0CE@LDFOCNAM@?5?5?5?5?$CKTM_SCALE?51?40000?51?40000?51?400@ 004e7ef0     ssg_vs2008_32:ssgSaveASE.obj
 0002:00009f14       ??_C@_0BJ@FFBKNBEM@?5?5?5?5?$CKTM_ROTANGLE?50?40000?6?$AA@ 004e7f14     ssg_vs2008_32:ssgSaveASE.obj
 0002:00009f30       ??_C@_0CG@OCHJGDIN@?5?5?5?5?$CKTM_ROTAXIS?50?40000?50?40000?50?4@ 004e7f30     ssg_vs2008_32:ssgSaveASE.obj
 0002:00009f58       ??_C@_0CC@GEKDPLBK@?5?5?5?5?$CKTM_POS?50?40000?50?40000?50?40000@ 004e7f58     ssg_vs2008_32:ssgSaveASE.obj
 0002:00009f7c       ??_C@_0CD@PECJJING@?5?5?5?5?$CKTM_ROW3?50?40000?50?40000?50?4000@ 004e7f7c     ssg_vs2008_32:ssgSaveASE.obj
 0002:00009fa0       ??_C@_0CD@LJKGPNGP@?5?5?5?5?$CKTM_ROW2?50?40000?50?40000?51?4000@ 004e7fa0     ssg_vs2008_32:ssgSaveASE.obj
 0002:00009fc4       ??_C@_0CD@JEOJIPDB@?5?5?5?5?$CKTM_ROW1?50?40000?51?40000?50?4000@ 004e7fc4     ssg_vs2008_32:ssgSaveASE.obj
 0002:00009fe8       ??_C@_0CD@LLBPFFDO@?5?5?5?5?$CKTM_ROW0?51?40000?50?40000?50?4000@ 004e7fe8     ssg_vs2008_32:ssgSaveASE.obj
 0002:0000a00c       ??_C@_0BI@EGFMHIAE@?5?5?5?5?$CKINHERIT_SCL?50?50?50?6?$AA@ 004e800c     ssg_vs2008_32:ssgSaveASE.obj
 0002:0000a024       ??_C@_0BI@IKPGKHCD@?5?5?5?5?$CKINHERIT_ROT?50?50?50?6?$AA@ 004e8024     ssg_vs2008_32:ssgSaveASE.obj
 0002:0000a03c       ??_C@_0BI@LGPLHDCL@?5?5?5?5?$CKINHERIT_POS?50?50?50?6?$AA@ 004e803c     ssg_vs2008_32:ssgSaveASE.obj
 0002:0000a054       ??_C@_0BF@PNOHHFLD@?5?5?5?5?$CKNODE_NAME?5?$CC?$CFs?$CC?6?$AA@ 004e8054     ssg_vs2008_32:ssgSaveASE.obj
 0002:0000a06c       ??_C@_0O@ELEMPJII@?5?5?$CKNODE_TM?5?$HL?6?$AA@ 004e806c     ssg_vs2008_32:ssgSaveASE.obj
 0002:0000a07c       ??_C@_0BD@OLNPAMIE@?5?5?$CKNODE_NAME?5?$CC?$CFs?$CC?6?$AA@ 004e807c     ssg_vs2008_32:ssgSaveASE.obj
 0002:0000a090       ??_C@_0P@GLIGJOOL@?$CKGEOMOBJECT?5?$HL?6?$AA@ 004e8090     ssg_vs2008_32:ssgSaveASE.obj
 0002:0000a0a0       ??_C@_0CO@HABAOFHH@?5?5?$CKSCENE_AMBIENT_STATIC?50?40431?50@ 004e80a0     ssg_vs2008_32:ssgSaveASE.obj
 0002:0000a0d0       ??_C@_0DB@NHEOGFBM@?5?5?$CKSCENE_BACKGROUND_STATIC?50?4000@ 004e80d0     ssg_vs2008_32:ssgSaveASE.obj
 0002:0000a104       ??_C@_0BM@OEKPJNEO@?5?5?$CKSCENE_TICKSPERFRAME?5160?6?$AA@ 004e8104     ssg_vs2008_32:ssgSaveASE.obj
 0002:0000a120       ??_C@_0BI@KHDDJDGC@?5?5?$CKSCENE_FRAMESPEED?530?6?$AA@ 004e8120     ssg_vs2008_32:ssgSaveASE.obj
 0002:0000a138       ??_C@_0BI@FNCLCPBH@?5?5?$CKSCENE_LASTFRAME?5100?6?$AA@ 004e8138     ssg_vs2008_32:ssgSaveASE.obj
 0002:0000a150       ??_C@_0BH@OCFCGDJ@?5?5?$CKSCENE_FIRSTFRAME?50?6?$AA@ 004e8150     ssg_vs2008_32:ssgSaveASE.obj
 0002:0000a168       ??_C@_0BG@BABJOFOC@?5?5?$CKSCENE_FILENAME?5?$CC?$CC?6?$AA@ 004e8168     ssg_vs2008_32:ssgSaveASE.obj
 0002:0000a180       ??_C@_09BJMMJKND@?$CKSCENE?5?$HL?6?$AA@ 004e8180     ssg_vs2008_32:ssgSaveASE.obj
 0002:0000a18c       ??_C@_0BM@HLKMHDKC@?$CKCOMMENT?5?$CCcreated?5by?5SSG?4?$CC?6?$AA@ 004e818c     ssg_vs2008_32:ssgSaveASE.obj
 0002:0000a1a8       ??_C@_0BJ@HAGLIALF@?$CK3DSMAX_ASCIIEXPORT?5200?6?$AA@ 004e81a8     ssg_vs2008_32:ssgSaveASE.obj
 0002:0000a1c4       ??_C@_0CM@FEPAJBPF@ssgSaveASE?3?5Failed?5to?5open?5?8?$CFs?8?5@ 004e81c4     ssg_vs2008_32:ssgSaveASE.obj
 0002:0000a1f4       ??_C@_07FKNDOADK@kids?50?6?$AA@ 004e81f4     ssg_vs2008_32:ssgSaveAC.obj
 0002:0000a1fc       ??_C@_09CENGIBBN@?$CFd?5?$CFg?5?$CFg?6?$AA@ 004e81fc     ssg_vs2008_32:ssgSaveAC.obj
 0002:0000a208       ??_C@_07LBAJLPBM@refs?53?6?$AA@ 004e8208     ssg_vs2008_32:ssgSaveAC.obj
 0002:0000a210       ??_C@_07IPFNGGAE@mat?5?$CFd?6?$AA@ 004e8210     ssg_vs2008_32:ssgSaveAC.obj
 0002:0000a218       ??_C@_0M@PGOLJCLC@SURF?50x0?$CFx?6?$AA@ 004e8218     ssg_vs2008_32:ssgSaveAC.obj
 0002:0000a224       ??_C@_0M@IFPNEBCI@numsurf?5?$CFd?6?$AA@ 004e8224     ssg_vs2008_32:ssgSaveAC.obj
 0002:0000a230       ??_C@_09BNFLLNNI@?$CFg?5?$CFg?5?$CFg?6?$AA@ 004e8230     ssg_vs2008_32:ssgSaveAC.obj
 0002:0000a23c       ??_C@_0M@PNMPJGNM@numvert?5?$CFd?6?$AA@ 004e823c     ssg_vs2008_32:ssgSaveAC.obj
 0002:0000a248       ??_C@_0O@MAIMEGKD@texture?5?$CC?$CFs?$CC?6?$AA@ 004e8248     ssg_vs2008_32:ssgSaveAC.obj
 0002:0000a258       ??_C@_0L@KJIMBMOM@name?5?$CC?$CFs?$CC?6?$AA@ 004e8258     ssg_vs2008_32:ssgSaveAC.obj
 0002:0000a264       ??_C@_0N@MDOLLMNC@OBJECT?5poly?6?$AA@ 004e8264     ssg_vs2008_32:ssgSaveAC.obj
 0002:0000a274       ??_C@_08BJDHKDFP@kids?5?$CFd?6?$AA@ 004e8274     ssg_vs2008_32:ssgSaveAC.obj
 0002:0000a280       ??_C@_0O@NLNACLCF@OBJECT?5group?6?$AA@ 004e8280     ssg_vs2008_32:ssgSaveAC.obj
 0002:0000a290       ??_C@_07FLBBIKAN@kids?51?6?$AA@ 004e8290     ssg_vs2008_32:ssgSaveAC.obj
 0002:0000a298       ??_C@_0O@KNAIOGCE@OBJECT?5world?6?$AA@ 004e8298     ssg_vs2008_32:ssgSaveAC.obj
 0002:0000a2a8       ??_C@_0FG@JCOGOAAL@MATERIAL?5?$CC?$CFs?$CC?5rgb?5?$CFf?5?$CFf?5?$CFf?5amb?5?$CF@ 004e82a8     ssg_vs2008_32:ssgSaveAC.obj
 0002:0000a300       ??_C@_06EKGINMHG@AC3Db?6?$AA@ 004e8300     ssg_vs2008_32:ssgSaveAC.obj
 0002:0000a308       ??_C@_0CL@JOIGNOCA@ssgSaveAC?3?5Failed?5to?5open?5?8?$CFs?8?5f@ 004e8308     ssg_vs2008_32:ssgSaveAC.obj
 0002:0000a334       ??_C@_0BM@MFNBPNFH@ssgLoad3ds?5default?5material?$AA@ 004e8334     ssg_vs2008_32:ssgLoad3ds.obj
 0002:0000a358       __real@4059000000000000    004e8358     ssg_vs2008_32:ssgLoad3ds.obj
 0002:0000a360       __real@4060000000000000    004e8360     ssg_vs2008_32:ssgLoad3ds.obj
 0002:0000a368       ??_C@_0CE@GKCGFNBD@ssgLoad3ds?3?5Texture?5coords?5missi@ 004e8368     ssg_vs2008_32:ssgLoad3ds.obj
 0002:0000a38c       ??_C@_0CM@FIKKFPNK@?7geometry?5objects?5?8?$CFs?8?5split?5int@ 004e838c     ssg_vs2008_32:ssgLoad3ds.obj
 0002:0000a3b8       __real@40c5550000000000    004e83b8     ssg_vs2008_32:ssgLoad3ds.obj
 0002:0000a3c0       ??_C@_0DI@LGFMGPBJ@ssgLoad3ds?3?5Undefined?5reference?5@ 004e83c0     ssg_vs2008_32:ssgLoad3ds.obj
 0002:0000a3f8       ??_C@_0EF@EMGIHCLA@ssgLoad3ds?3?5Hierarchy?5entry?5?$CC?$CFd?$CC@ 004e83f8     ssg_vs2008_32:ssgLoad3ds.obj
 0002:0000a440       ??_C@_05LFHGFJK@?$CFs_?$CFd?$AA@ 004e8440     ssg_vs2008_32:ssgLoad3ds.obj
 0002:0000a448       ??_C@_08JOFKDJHC@$$$DUMMY?$AA@ 004e8448     ssg_vs2008_32:ssgLoad3ds.obj
 0002:0000a458       ??_C@_0EO@OPCJBPCG@ssgLoad3ds?3?5Illegal?5chunk?5?$CFX?5of?5@ 004e8458     ssg_vs2008_32:ssgLoad3ds.obj
 0002:0000a4a8       ??_C@_0CM@IENCHPOE@ssgLoad3ds?3?5Failed?5to?5open?5?8?$CFs?8?5@ 004e84a8     ssg_vs2008_32:ssgLoad3ds.obj
 0002:0000a4d8       ??_C@_0N@MPLPFLEF@Material?5?$CD?$CFd?$AA@ 004e84d8     ssg_vs2008_32:ssgSave3ds.obj
 0002:0000a4e8       ??_C@_0CA@MOGGMIKE@ssgSave3ds?3?5Material?5not?5found?4?$AA@ 004e84e8     ssg_vs2008_32:ssgSave3ds.obj
 0002:0000a528       __real@3f80000000000000    004e8528     ssg_vs2008_32:ssgSave3ds.obj
 0002:0000a530       ??_C@_0GD@IMCMIGGJ@State?5?$CC?$CFs?$CC?5has?5GL_COLOR_MATERIAL@ 004e8530     ssg_vs2008_32:ssgSave3ds.obj
 0002:0000a594       ??_C@_0CM@MDHOBNJK@ssgSave3ds?3?5Failed?5to?5open?5?8?$CFs?8?5@ 004e8594     ssg_vs2008_32:ssgSave3ds.obj
 0002:0000a5c8       ??_7_ssgBaseList@@6B@      004e85c8     ssg_vs2008_32:ssgLoadSSG.obj
 0002:0000a5fc       ??_C@_0BL@GOJFBFCG@ssgLoadObject?3?5Read?5error?4?$AA@ 004e85fc     ssg_vs2008_32:ssgLoadSSG.obj
 0002:0000a618       ??_C@_0DB@PAIIAGPB@ssgLoadObject?3?5Failed?5to?5load?5ob@ 004e8618     ssg_vs2008_32:ssgLoadSSG.obj
 0002:0000a64c       ??_C@_0CL@IEIPOBB@ssgLoadObject?3?5Bad?5type?5?$CF?$CDx?0?5exp@ 004e864c     ssg_vs2008_32:ssgLoadSSG.obj
 0002:0000a678       ??_C@_0DA@FLGOOEMI@ssgLoadObject?3?5Bad?5type?5?$CF?$CDx?5?$CI?$CFs?$CJ@ 004e8678     ssg_vs2008_32:ssgLoadSSG.obj
 0002:0000a6a8       ??_C@_0DC@MNPFFNIE@ssgLoadObject?3?5Unexpected?5null?5o@ 004e86a8     ssg_vs2008_32:ssgLoadSSG.obj
 0002:0000a6dc       ??_C@_0BM@JBJNLBJA@ssgSaveObject?3?5Write?5error?4?$AA@ 004e86dc     ssg_vs2008_32:ssgLoadSSG.obj
 0002:0000a6f8       ??_C@_0DB@JCCEHPOL@ssgSaveObject?3?5Failed?5to?5save?5ob@ 004e86f8     ssg_vs2008_32:ssgLoadSSG.obj
 0002:0000a72c       ??_C@_0CD@KMCHDOII@ssgLoadSSG?3?5Failed?5to?5load?5objec@ 004e872c     ssg_vs2008_32:ssgLoadSSG.obj
 0002:0000a750       ??_C@_0DO@BPFFCOGD@ssgLoadSSG?3?5This?5version?5of?5SSG?5@ 004e8750     ssg_vs2008_32:ssgLoadSSG.obj
 0002:0000a790       ??_C@_0GA@MBJDEGPD@ssgLoadSSG?3?5SSG?5file?5format?5vers@ 004e8790     ssg_vs2008_32:ssgLoadSSG.obj
 0002:0000a7f0       ??_C@_0CN@FLANAKFO@ssgLoadSSG?3?5File?5has?5incorrect?5m@ 004e87f0     ssg_vs2008_32:ssgLoadSSG.obj
 0002:0000a820       ??_C@_0CN@DJBGKFJL@ssgLoadSSG?3?5File?5appears?5to?5be?5b@ 004e8820     ssg_vs2008_32:ssgLoadSSG.obj
 0002:0000a850       ??_C@_0CN@PFDMKOPE@ssgLoadSSG?3?5Failed?5to?5open?5?8?$CFs?8?5@ 004e8850     ssg_vs2008_32:ssgLoadSSG.obj
 0002:0000a880       ??_C@_0CE@PMDDCJFH@ssgSaveSSG?3?5Failed?5to?5write?5obje@ 004e8880     ssg_vs2008_32:ssgLoadSSG.obj
 0002:0000a8a4       ??_C@_0CN@ECMGFOKN@ssgSaveSSG?3?5Failed?5to?5open?5?8?$CFs?8?5@ 004e88a4     ssg_vs2008_32:ssgLoadSSG.obj
 0002:0000a8d8       ??_C@_0BG@JJALKCAL@DList?5stack?5overflow?$CB?$AA@ 004e88d8     ssg_vs2008_32:ssgDList.obj
 0002:0000a8fc       ??_7ssgState@@6B@          004e88fc     ssg_vs2008_32:ssgState.obj
 0002:0000a944       ??_C@_0BH@JEIMEPHK@?$CFs?5?5ExternalProp?5?$DN?5?$CFd?6?$AA@ 004e8944     ssg_vs2008_32:ssgState.obj
 0002:0000a95c       ??_C@_0BH@KDEHDPDE@?$CFs?5?5Translucent?5?5?$DN?5?$CFs?6?$AA@ 004e895c     ssg_vs2008_32:ssgState.obj
 0002:0000a974       ??_C@_05MKDOIIA@False?$AA@ 004e8974     ssg_vs2008_32:ssgState.obj
 0002:0000a97c       ??_C@_04HPMIDMKH@True?$AA@ 004e897c     ssg_vs2008_32:ssgState.obj
 0002:0000a988       __real@ff7fffff            004e8988     ssg_vs2008_32:ssgVTable.obj
 0002:0000a994       ??_7ssgVTable@@6B@         004e8994     ssg_vs2008_32:ssgVTable.obj
 0002:0000aa70       __real@3ff028f5c28f5c29    004e8a70     ssg_vs2008_32:ssgVTable.obj
 0002:0000aa78       __real@3e7ad7f29abcaf48    004e8a78     ssg_vs2008_32:ssgVTable.obj
 0002:0000aa80       __real@be7ad7f29abcaf48    004e8a80     ssg_vs2008_32:ssgVTable.obj
 0002:0000aa8c       ??_C@_0L@EBMGAPBK@Ok?3?5list?5?6?$AA@ 004e8a8c     ssg_vs2008_32:ssgVtxTable.obj
 0002:0000aa98       ??_C@_0O@BDJALBPG@ERROR?3?5list?5?6?$AA@ 004e8a98     ssg_vs2008_32:ssgVtxTable.obj
 0002:0000aaa8       ??_C@_0O@JLCEEKAF@Ok?3?5size_of?5?6?$AA@ 004e8aa8     ssg_vs2008_32:ssgVtxTable.obj
 0002:0000aab8       ??_C@_0BB@MDJCBEGE@ERROR?3?5size_of?5?6?$AA@ 004e8ab8     ssg_vs2008_32:ssgVtxTable.obj
 0002:0000aacc       ??_C@_0O@NBFKDKN@Ok?3?5total?5?5?5?6?$AA@ 004e8acc     ssg_vs2008_32:ssgVtxTable.obj
 0002:0000aadc       ??_C@_0BB@FFKDPNMM@ERROR?3?5total?5?5?5?6?$AA@ 004e8adc     ssg_vs2008_32:ssgVtxTable.obj
 0002:0000aaf0       ??_C@_0BI@BHDHHON@Ok?3?5getNumTexCoords?5?$CI?$CJ?6?$AA@ 004e8af0     ssg_vs2008_32:ssgVtxTable.obj
 0002:0000ab08       ??_C@_0BL@IFGFPKLH@ERROR?3?5getNumTexCoords?5?$CI?$CJ?6?$AA@ 004e8b08     ssg_vs2008_32:ssgVtxTable.obj
 0002:0000ab24       ??_C@_0BI@CADMNDFO@Ok?3?5getNumColours?5?5?5?$CI?$CJ?6?$AA@ 004e8b24     ssg_vs2008_32:ssgVtxTable.obj
 0002:0000ab3c       ??_C@_0BL@KECKFOAE@ERROR?3?5getNumColours?5?5?5?$CI?$CJ?6?$AA@ 004e8b3c     ssg_vs2008_32:ssgVtxTable.obj
 0002:0000ab58       ??_C@_0BI@GAMEJMFH@Ok?3?5getNumNormals?5?5?5?$CI?$CJ?6?$AA@ 004e8b58     ssg_vs2008_32:ssgVtxTable.obj
 0002:0000ab70       ??_C@_0BL@OENCBBAN@ERROR?3?5getNumNormals?5?5?5?$CI?$CJ?6?$AA@ 004e8b70     ssg_vs2008_32:ssgVtxTable.obj
 0002:0000ab8c       ??_C@_0BI@LOEMGGMG@Ok?3?5getNumVertices?5?5?$CI?$CJ?6?$AA@ 004e8b8c     ssg_vs2008_32:ssgVtxTable.obj
 0002:0000aba4       ??_C@_0BL@DKFKOLJM@ERROR?3?5getNumVertices?5?5?$CI?$CJ?6?$AA@ 004e8ba4     ssg_vs2008_32:ssgVtxTable.obj
 0002:0000abc0       ??_C@_0EE@PMDPMFNK@WARNING?3?5state?5pointers?5differ?4?5@ 004e8bc0     ssg_vs2008_32:ssgVtxTable.obj
 0002:0000ac04       ??_C@_0L@DGJHJLB@Ok?3?5state?6?$AA@ 004e8c04     ssg_vs2008_32:ssgVtxTable.obj
 0002:0000ac10       ??_C@_0BE@DNBODBFI@comparing?5colours?5?6?$AA@ 004e8c10     ssg_vs2008_32:ssgVtxTable.obj
 0002:0000ac24       ??_C@_0BF@KHNOAPAO@comparing?5texcoords?6?$AA@ 004e8c24     ssg_vs2008_32:ssgVtxTable.obj
 0002:0000ac3c       ??_C@_0BD@OHNKBKHC@comparing?5normals?6?$AA@ 004e8c3c     ssg_vs2008_32:ssgVtxTable.obj
 0002:0000ac50       ??_C@_0BE@FHEDPODP@comparing?5vertices?6?$AA@ 004e8c50     ssg_vs2008_32:ssgVtxTable.obj
 0002:0000ac6c       ??_7ssgVtxTable@@6B@       004e8c6c     ssg_vs2008_32:ssgVtxTable.obj
 0002:0000ad58       ??_C@_0DK@OCALKHDP@ssgVtxTable?3?5Projection?5matrices@ 004e8d58     ssg_vs2008_32:ssgVtxTable.obj
 0002:0000ad98       __real@3fa47ae140000000    004e8d98     ssg_vs2008_32:ssgVtxTable.obj
 0002:0000ada0       ??_C@_0BB@KKNJOPPA@?$CFs?5?5No?5Colours?$CB?6?$AA@ 004e8da0     ssg_vs2008_32:ssgVtxTable.obj
 0002:0000adb4       ??_C@_0BD@BDDNMFMG@?$CFs?5?5No?5Texcoords?$CB?6?$AA@ 004e8db4     ssg_vs2008_32:ssgVtxTable.obj
 0002:0000adc8       ??_C@_0BB@OGBODPBO@?$CFs?5?5No?5Normals?$CB?6?$AA@ 004e8dc8     ssg_vs2008_32:ssgVtxTable.obj
 0002:0000addc       ??_C@_0BC@BIOAKECJ@?$CFs?5?5No?5Vertices?$CB?6?$AA@ 004e8ddc     ssg_vs2008_32:ssgVtxTable.obj
 0002:0000adfc       ??_7ssgVtxArray@@6B@       004e8dfc     ssg_vs2008_32:ssgVtxArray.obj
 0002:0000aeec       ??_C@_0BB@GFBLGEEH@indices?5?$DN?$DN?5NULL?6?$AA@ 004e8eec     ssg_vs2008_32:ssgVtxArray.obj
 0002:0000af04       ??_C@_08NJGBMOLE@ssgTween?$AA@ 004e8f04     ssg_vs2008_32:ssgTween.obj
 0002:0000af14       ??_7ssgTween@@6B@          004e8f14     ssg_vs2008_32:ssgTween.obj
 0002:0000b00c       ??_7ssgTransform@@6B@      004e900c     ssg_vs2008_32:ssgTransform.obj
 0002:0000b0ac       ??_7ssgTexTrans@@6B@       004e90ac     ssg_vs2008_32:ssgTexTrans.obj
 0002:0000b144       ??_C@_0BB@POHCHCJH@ssgAnimTransform?$AA@ 004e9144     ssg_vs2008_32:ssgAnimTransform.obj
 0002:0000b15c       ??_7ssgAnimTransform@@6B@  004e915c     ssg_vs2008_32:ssgAnimTransform.obj
 0002:0000b1f4       ??_C@_0N@DNPPLBGM@?$CFsMode?5?$DN?5?$CFd?6?$AA@ 004e91f4     ssg_vs2008_32:ssgAnimTransform.obj
 0002:0000b204       ??_C@_0BF@IFJKBOPE@?$CFsCurrent?5Bank?5?$DN?5?$CFf?6?$AA@ 004e9204     ssg_vs2008_32:ssgAnimTransform.obj
 0002:0000b224       ??_7ssgAxisTransform@@6B@  004e9224     ssg_vs2008_32:ssgAxisTransform.obj
 0002:0000b2e4       ??_7ssgSelector@@6B@       004e92e4     ssg_vs2008_32:ssgSelector.obj
 0002:0000b36c       ??_7ssgRangeSelector@@6B@  004e936c     ssg_vs2008_32:ssgRangeSelector.obj
 0002:0000b3f8       __real@3fc999999999999a    004e93f8     ssg_vs2008_32:ssgAnimation.obj
 0002:0000b404       ??_7ssgTimedSelector@@6B@  004e9404     ssg_vs2008_32:ssgAnimation.obj
 0002:0000b48c       ??_C@_0BD@PKINEMKA@ssgTweenController?$AA@ 004e948c     ssg_vs2008_32:ssgTweenController.obj
 0002:0000b4a4       ??_7ssgTweenController@@6B@ 004e94a4     ssg_vs2008_32:ssgTweenController.obj
 0002:0000b52c       ??_7ssgCutout@@6B@         004e952c     ssg_vs2008_32:ssgCutout.obj
 0002:0000b5b4       ??_7ssgInvisible@@6B@      004e95b4     ssg_vs2008_32:ssgInvisible.obj
 0002:0000b63c       ??_7ssgStateSelector@@6B@  004e963c     ssg_vs2008_32:ssgStateSelector.obj
 0002:0000b6f0       ??_C@_0DH@PPEJFEJK@V?$DN?$CF4d?0?5L?$DN?$CF3d?5H?$DN?$CF3d?5IS?$DN?$CF3d?5IT?$DN?$CF3d@ 004e96f0     ssg_vs2008_32:ssgStats.obj
 0002:0000b734       ??_7ssgLeaf@@6B@           004e9734     ssg_vs2008_32:ssgLeaf.obj
 0002:0000b80c       ??_C@_0CE@FKILABNJ@?$CFs?5?5No?5State?5assigned?5to?5this?5no@ 004e980c     ssg_vs2008_32:ssgLeaf.obj
 0002:0000b830       ??_C@_0M@JPBAFCGE@?$CFs?5?5?$CFs?3?5?$CFp?6?$AA@ 004e9830     ssg_vs2008_32:ssgLeaf.obj
 0002:0000b83c       ??_C@_0DH@BKAPLKCI@?$CK?$CK?$CK?$CK?$CK?$CK?5WARNING?3?5Ref?5count?5doesn?8@ 004e983c     ssg_vs2008_32:ssgLeaf.obj
 0002:0000b87c       ??_7ssgVertSplitter@@6B@   004e987c     ssg_vs2008_32:ssgVertSplitter.obj
 0002:0000b888       ??_7ssgList@@6B@           004e9888     ssg_vs2008_32:ssgList.obj
 0002:0000b89c       ??_7ssgKidList@@6B@        004e989c     ssg_vs2008_32:ssgList.obj
 0002:0000b8b4       ??_7ssgEntity@@6B@         004e98b4     ssg_vs2008_32:ssgEntity.obj
 0002:0000b92c       ??_C@_0BE@LIKKIKOL@?$CFs?5?5Num?5Parents?$DN?$CFd?6?$AA@ 004e992c     ssg_vs2008_32:ssgEntity.obj
 0002:0000b940       ??_C@_0CK@PLIBMFJD@getCallback?$CI?$CJ?5ignored?5for?5non?9le@ 004e9940     ssg_vs2008_32:ssgEntity.obj
 0002:0000b96c       ??_C@_0CK@BMCLFIG@setCallback?$CI?$CJ?5ignored?5for?5non?9le@ 004e996c     ssg_vs2008_32:ssgEntity.obj
 0002:0000b998       ??_C@_0M@PEPDCNJN@EOL?5reached?$AA@ 004e9998     ssg_vs2008_32:ssgParser.obj
 0002:0000b9a4       ??_C@_0M@ODNBLNFE@EOF?5reached?$AA@ 004e99a4     ssg_vs2008_32:ssgParser.obj
 0002:0000b9b4       ??_C@_02DKCKIIND@?$CFs?$AA@ 004e99b4     ssg_vs2008_32:ssgParser.obj
 0002:0000b9b8       ??_C@_0O@NKFPBKFB@?$CFs?0?5line?5?$CFd?3?5?$AA@ 004e99b8     ssg_vs2008_32:ssgParser.obj
 0002:0000b9c8       ??_C@_0BF@MDDLFAAB@cannot?5open?5file?3?5?$CFs?$AA@ 004e99c8     ssg_vs2008_32:ssgParser.obj
 0002:0000b9e0       ??_C@_0L@FEFPBOLE@missing?5?$CFs?$AA@ 004e99e0     ssg_vs2008_32:ssgParser.obj
 0002:0000b9f0       ??_C@_0EE@HMOJPDGJ@The?5field?5?$CFs?5should?5contain?5a?5fl@ 004e99f0     ssg_vs2008_32:ssgParser.obj
 0002:0000ba38       ??_C@_0EH@IEFLOAOK@The?5field?5?$CFs?5should?5contain?5an?5U@ 004e9a38     ssg_vs2008_32:ssgParser.obj
 0002:0000ba80       ??_C@_0BP@IHAODFPH@Expected?5?$CFs?5but?5got?5?$CFs?5instead?$AA@ 004e9a80     ssg_vs2008_32:ssgParser.obj
 0002:0000baa8       ??_7ssgListOfLists@@6B@    004e9aa8     ssg_vs2008_32:ssgLoaderWriterStuff.obj
 0002:0000badc       ??_C@_0CL@JPPMFABJ@ssgTriangulate?3?5Self?9intersectin@ 004e9adc     ssg_vs2008_32:ssgLoaderWriterStuff.obj
 0002:0000bb08       ??_C@_0DB@CONFINM@ssgTriangulate?3?5Invalid?5number?5o@ 004e9b08     ssg_vs2008_32:ssgLoaderWriterStuff.obj
 0002:0000bb40       ??_C@_0LP@HAMHEDOO@LoaderWriterMesh?3?3checkMe?$CI?$CJ?3?5Fac@ 004e9b40     ssg_vs2008_32:ssgLoaderWriterStuff.obj
 0002:0000bc00       ??_C@_0EH@FNDGKFPJ@LoaderWriterMesh?3?3checkMe?$CI?$CJ?3?5the@ 004e9c00     ssg_vs2008_32:ssgLoaderWriterStuff.obj
 0002:0000bc48       ??_C@_0JD@KKKPNIDI@LoaderWriterMesh?3?3checkMe?$CI?$CJ?3?5The@ 004e9c48     ssg_vs2008_32:ssgLoaderWriterStuff.obj
 0002:0000bce0       ??_C@_0GE@NMECJDCJ@LoaderWriterMesh?3?3checkMe?$CI?$CJ?3?5Mat@ 004e9ce0     ssg_vs2008_32:ssgLoaderWriterStuff.obj
 0002:0000bd44       ??_C@_0DP@GIJPDECO@LoaderWriterMesh?3?3checkMe?$CI?$CJ?3?5The@ 004e9d44     ssg_vs2008_32:ssgLoaderWriterStuff.obj
 0002:0000bd88       ??_C@_0GG@CEJKCGLD@LoaderWriterMesh?3?3checkMe?$CI?$CJ?3?5One@ 004e9d88     ssg_vs2008_32:ssgLoaderWriterStuff.obj
 0002:0000bdf0       ??_C@_0EI@BACHJMKE@LoaderWriterMesh?3?3checkMe?$CI?$CJ?3?5No?5@ 004e9df0     ssg_vs2008_32:ssgLoaderWriterStuff.obj
 0002:0000be38       ??_C@_0DA@OPMKJILN@LoaderWriterMesh?3?3checkMe?$CI?$CJ?3?5The@ 004e9e38     ssg_vs2008_32:ssgLoaderWriterStuff.obj
 0002:0000be68       __real@3f847ae147ae147b    004e9e68     ssg_vs2008_32:ssgLoaderWriterStuff.obj
 0002:0000be70       __real@c7c34f80            004e9e70     ssg_vs2008_32:ssgLoaderWriterStuff.obj
 0002:0000be84       ??_7ssgBaseTransform@@6B@  004e9e84     ssg_vs2008_32:ssgBaseTransform.obj
 0002:0000bf14       ??_C@_0CA@JHGOMDIG@?$CFs?5?5Transform?$FL?$CFd?$FN?$DN?5?$CFf?0?$CFf?0?$CFf?0?$CFf?6?$AA@ 004e9f14     ssg_vs2008_32:ssgBaseTransform.obj
 0002:0000bf34       ??_C@_05JLFELJNP@FATAL?$AA@ 004e9f34     ul_vs2008_32:ulError.obj
 0002:0000bf3c       ??_C@_07KCOHIFOP@WARNING?$AA@ 004e9f3c     ul_vs2008_32:ulError.obj
 0002:0000bf44       ??_C@_05KOLFGEDA@DEBUG?$AA@ 004e9f44     ul_vs2008_32:ulError.obj
 0002:0000bf54       ??_C@_04OIHLFIKP@?1?$CK?4?$CK?$AA@ 004e9f54     ul_vs2008_32:ul.obj
 0002:0000bf5c       ??_C@_02CFKBDFGI@?1?2?$AA@ 004e9f5c     ul_vs2008_32:ul.obj
 0002:0000bf60       ??_C@_02DJGKEECL@?4?4?$AA@ 004e9f60     ul_vs2008_32:ul.obj
 0002:0000bf64       ??_C@_06PKBHAHDM@$?$CI?4?4?4?$CJ?$AA@ 004e9f64     ul_vs2008_32:ul.obj
 0002:0000bf6c       ??_C@_07BINHOENA@$?$CIAPOM?$CJ?$AA@ 004e9f6c     ul_vs2008_32:ul.obj
 0002:0000bf78       __real@3f50624dd2f1a9fc    004e9f78     ul_vs2008_32:ulClock.obj
 0002:0000bf80       __real@41f0000000000000    004e9f80     ul_vs2008_32:ulClock.obj
 0002:0000bf90       ??_7ulList@@6B@            004e9f90     ul_vs2008_32:ulList.obj
 0002:0000bfa4       ??_C@_15GANGMFKL@?$AA?$CF?$AAs?$AA?$AA@ 004e9fa4     libcpmtd:stdthrow.obj
 0002:0000bfac       ?_VBITS@?$vector@_NV?$allocator@_N@std@@@std@@2HB 004e9fac     libcpmtd:xthrow.obj
 0002:0000bfb0       ?value@?$integral_constant@H$0A@@std@@2HB 004e9fb0     libcpmtd:xthrow.obj
 0002:0000bfb8       ?_Names@?$_Regex_traits@D@std@@0QBU?$_Cl_names@D@2@B 004e9fb8     libcpmtd:xthrow.obj
 0002:0000c078       ??_C@_05IIMHCHIO@alnum?$AA@ 004ea078     libcpmtd:xthrow.obj
 0002:0000c080       ??_C@_05IAEKHIAN@alpha?$AA@ 004ea080     libcpmtd:xthrow.obj
 0002:0000c088       ??_C@_05BABJKOGB@blank?$AA@ 004ea088     libcpmtd:xthrow.obj
 0002:0000c090       ??_C@_05JMDPEFNK@cntrl?$AA@ 004ea090     libcpmtd:xthrow.obj
 0002:0000c098       ??_C@_01LPLHEDKD@d?$AA@    004ea098     libcpmtd:xthrow.obj
 0002:0000c09c       ??_C@_05ODNOIFML@digit?$AA@ 004ea09c     libcpmtd:xthrow.obj
 0002:0000c0a4       ??_C@_05KCJBMLII@graph?$AA@ 004ea0a4     libcpmtd:xthrow.obj
 0002:0000c0ac       ??_C@_05IPJEPLHL@lower?$AA@ 004ea0ac     libcpmtd:xthrow.obj
 0002:0000c0b4       ??_C@_05IJDJACGD@print?$AA@ 004ea0b4     libcpmtd:xthrow.obj
 0002:0000c0bc       ??_C@_05KOBGHFJJ@punct?$AA@ 004ea0bc     libcpmtd:xthrow.obj
 0002:0000c0c4       ??_C@_05OLNILLAB@space?$AA@ 004ea0c4     libcpmtd:xthrow.obj
 0002:0000c0cc       ??_C@_01LKDEMHDF@s?$AA@    004ea0cc     libcpmtd:xthrow.obj
 0002:0000c0d0       ??_C@_05NECKJAMC@upper?$AA@ 004ea0d0     libcpmtd:xthrow.obj
 0002:0000c0d8       ??_C@_06BAPHGFFK@xdigit?$AA@ 004ea0d8     libcpmtd:xthrow.obj
 0002:0000c0e0       ?_Names@?$_Regex_traits@_W@std@@0QBU?$_Cl_names@_W@2@B 004ea0e0     libcpmtd:xthrow.obj
 0002:0000c1a0       ??_C@_1M@KLMEPMCM@?$AAa?$AAl?$AAn?$AAu?$AAm?$AA?$AA@ 004ea1a0     libcpmtd:xthrow.obj
 0002:0000c1ac       ??_C@_1M@DHGLHBMI@?$AAa?$AAl?$AAp?$AAh?$AAa?$AA?$AA@ 004ea1ac     libcpmtd:xthrow.obj
 0002:0000c1b8       ??_C@_1M@EJAAJBPE@?$AAb?$AAl?$AAa?$AAn?$AAk?$AA?$AA@ 004ea1b8     libcpmtd:xthrow.obj
 0002:0000c1c4       ??_C@_1M@LMIMILA@?$AAc?$AAn?$AAt?$AAr?$AAl?$AA?$AA@ 004ea1c4     libcpmtd:xthrow.obj
 0002:0000c1d0       ??_C@_13GKPPEALH@?$AAd?$AA?$AA@ 004ea1d0     libcpmtd:xthrow.obj
 0002:0000c1d4       ??_C@_1M@JDAEIBKG@?$AAd?$AAi?$AAg?$AAi?$AAt?$AA?$AA@ 004ea1d4     libcpmtd:xthrow.obj
 0002:0000c1e0       ??_C@_1M@MDKNJLLK@?$AAg?$AAr?$AAa?$AAp?$AAh?$AA?$AA@ 004ea1e0     libcpmtd:xthrow.obj
 0002:0000c1ec       ??_C@_1M@LGAECJJD@?$AAl?$AAo?$AAw?$AAe?$AAr?$AA?$AA@ 004ea1ec     libcpmtd:xthrow.obj
 0002:0000c1f8       ??_C@_1M@ELNLAPLA@?$AAp?$AAr?$AAi?$AAn?$AAt?$AA?$AA@ 004ea1f8     libcpmtd:xthrow.obj
 0002:0000c204       ??_C@_1M@BPFMAOAO@?$AAp?$AAu?$AAn?$AAc?$AAt?$AA?$AA@ 004ea204     libcpmtd:xthrow.obj
 0002:0000c210       ??_C@_1M@LPGODFOM@?$AAs?$AAp?$AAa?$AAc?$AAe?$AA?$AA@ 004ea210     libcpmtd:xthrow.obj
 0002:0000c21c       ??_C@_13KHDBCPJB@?$AAs?$AA?$AA@ 004ea21c     libcpmtd:xthrow.obj
 0002:0000c220       ??_C@_1M@PLNFCNIC@?$AAu?$AAp?$AAp?$AAe?$AAr?$AA?$AA@ 004ea220     libcpmtd:xthrow.obj
 0002:0000c22c       ??_C@_13CIFDLIMG@?$AAw?$AA?$AA@ 004ea22c     libcpmtd:xthrow.obj
 0002:0000c230       ??_C@_1O@OAFMJDHN@?$AAx?$AAd?$AAi?$AAg?$AAi?$AAt?$AA?$AA@ 004ea230     libcpmtd:xthrow.obj
 0002:0000c244       ??_7bad_alloc@std@@6B@     004ea244     libcpmtd:xthrow.obj
 0002:0000c24c       ??_C@_0P@GHFPNOJB@bad?5allocation?$AA@ 004ea24c     libcpmtd:xthrow.obj
 0002:0000c260       ??_7logic_error@std@@6B@   004ea260     libcpmtd:xthrow.obj
 0002:0000c26c       ??_7invalid_argument@std@@6B@ 004ea26c     libcpmtd:xthrow.obj
 0002:0000c278       ??_7length_error@std@@6B@  004ea278     libcpmtd:xthrow.obj
 0002:0000c284       ??_7out_of_range@std@@6B@  004ea284     libcpmtd:xthrow.obj
 0002:0000c290       ??_7runtime_error@std@@6B@ 004ea290     libcpmtd:xthrow.obj
 0002:0000c29c       ??_7overflow_error@std@@6B@ 004ea29c     libcpmtd:xthrow.obj
 0002:0000c2a8       ??_7bad_function_call@std@@6B@ 004ea2a8     libcpmtd:xthrow.obj
 0002:0000c2b0       ??_C@_0BC@DPJNKNAF@bad?5function?5call?$AA@ 004ea2b0     libcpmtd:xthrow.obj
 0002:0000c2c8       ??_7regex_error@std@@6B@   004ea2c8     libcpmtd:xthrow.obj
 0002:0000c2d0       ??_C@_0FI@CMNGHIFF@regex_error?$CIerror_collate?$CJ?3?5The?5@ 004ea2d0     libcpmtd:xthrow.obj
 0002:0000c328       ??_C@_0FE@LJMHKIOC@regex_error?$CIerror_ctype?$CJ?3?5The?5ex@ 004ea328     libcpmtd:xthrow.obj
 0002:0000c380       ??_C@_0GI@HEGGMMDL@regex_error?$CIerror_escape?$CJ?3?5The?5e@ 004ea380     libcpmtd:xthrow.obj
 0002:0000c3e8       ??_C@_0FA@HFMLPGNN@regex_error?$CIerror_backref?$CJ?3?5The?5@ 004ea3e8     libcpmtd:xthrow.obj
 0002:0000c438       ??_C@_0EH@LGEANNAL@regex_error?$CIerror_brack?$CJ?3?5The?5ex@ 004ea438     libcpmtd:xthrow.obj
 0002:0000c480       ??_C@_0EH@CAGOJGLE@regex_error?$CIerror_paren?$CJ?3?5The?5ex@ 004ea480     libcpmtd:xthrow.obj
 0002:0000c4c8       ??_C@_0EH@DICJJKLO@regex_error?$CIerror_brace?$CJ?3?5The?5ex@ 004ea4c8     libcpmtd:xthrow.obj
 0002:0000c510       ??_C@_0FM@BLDIHIBB@regex_error?$CIerror_badbrace?$CJ?3?5The@ 004ea510     libcpmtd:xthrow.obj
 0002:0000c570       ??_C@_0HA@ICNJLCMC@regex_error?$CIerror_range?$CJ?3?5The?5ex@ 004ea570     libcpmtd:xthrow.obj
 0002:0000c5e0       ??_C@_0GP@PICOBCHA@regex_error?$CIerror_space?$CJ?3?5There?5@ 004ea5e0     libcpmtd:xthrow.obj
 0002:0000c650       ??_C@_0FK@LCHHHEOA@regex_error?$CIerror_badrepeat?$CJ?3?5On@ 004ea650     libcpmtd:xthrow.obj
 0002:0000c6b0       ??_C@_0HL@NEKOFBJA@regex_error?$CIerror_complexity?$CJ?3?5T@ 004ea6b0     libcpmtd:xthrow.obj
 0002:0000c730       ??_C@_0JC@HCDLJLGO@regex_error?$CIerror_stack?$CJ?3?5There?5@ 004ea730     libcpmtd:xthrow.obj
 0002:0000c7c4       ??_C@_0BJ@CHBLKGNM@regex_error?$CIerror_parse?$CJ?$AA@ 004ea7c4     libcpmtd:xthrow.obj
 0002:0000c7e0       ??_C@_0BK@DFJCACNI@regex_error?$CIerror_syntax?$CJ?$AA@ 004ea7e0     libcpmtd:xthrow.obj
 0002:0000c7fc       ??_C@_0M@KGKAAGCA@regex_error?$AA@ 004ea7fc     libcpmtd:xthrow.obj
 0002:0000c808       ??_C@_1FO@BEGKGBFG@?$AAf?$AA?3?$AA?2?$AAd?$AAd?$AA?2?$AAv?$AAc?$AAt?$AAo?$AAo?$AAl?$AAs?$AA?2?$AAc?$AAr?$AAt?$AA_?$AAb?$AAl?$AAd?$AA?2?$AAs?$AAe?$AAl?$AAf?$AA_?$AAx?$AA8?$AA6?$AA?2?$AAc@ 004ea808     libcpmtd:xthrow.obj
 0002:0000cd38       ??_C@_0BC@CIJDGCDI@permission?5denied?$AA@ 004ead38     libcpmtd:syserror.obj
 0002:0000cd4c       ??_C@_0M@MIDIAGJP@file?5exists?$AA@ 004ead4c     libcpmtd:syserror.obj
 0002:0000cd58       ??_C@_0P@FDINDDOK@no?5such?5device?$AA@ 004ead58     libcpmtd:syserror.obj
 0002:0000cd68       ??_C@_0BC@EJHOMAAK@filename?5too?5long?$AA@ 004ead68     libcpmtd:syserror.obj
 0002:0000cd7c       ??_C@_0BI@NGCEHDD@device?5or?5resource?5busy?$AA@ 004ead7c     libcpmtd:syserror.obj
 0002:0000cd94       ??_C@_08GLNPIFBN@io?5error?$AA@ 004ead94     libcpmtd:syserror.obj
 0002:0000cda0       ??_C@_0BE@JIDOCPHM@directory?5not?5empty?$AA@ 004eada0     libcpmtd:syserror.obj
 0002:0000cdb4       ??_C@_0BB@FCMFBGOM@invalid?5argument?$AA@ 004eadb4     libcpmtd:syserror.obj
 0002:0000cdc8       ??_C@_0BD@IJDJKDEA@no?5space?5on?5device?$AA@ 004eadc8     libcpmtd:syserror.obj
 0002:0000cddc       ??_C@_0BK@NDOCBPGE@no?5such?5file?5or?5directory?$AA@ 004eaddc     libcpmtd:syserror.obj
 0002:0000cdf8       ??_C@_0BH@KEFGLDAF@function?5not?5supported?$AA@ 004eadf8     libcpmtd:syserror.obj
 0002:0000ce10       ??_C@_0BC@NJECKMKE@no?5lock?5available?$AA@ 004eae10     libcpmtd:syserror.obj
 0002:0000ce24       ??_C@_0BP@LKNGHENJ@resource?5unavailable?5try?5again?$AA@ 004eae24     libcpmtd:syserror.obj
 0002:0000ce44       ??_C@_0BC@PPHBOELF@cross?5device?5link?$AA@ 004eae44     libcpmtd:syserror.obj
 0002:0000ce58       ??_C@_0BD@MOLBPMEA@operation?5canceled?$AA@ 004eae58     libcpmtd:syserror.obj
 0002:0000ce6c       ??_C@_0BE@GHAFMPAH@too?5many?5files?5open?$AA@ 004eae6c     libcpmtd:syserror.obj
 0002:0000ce80       ??_C@_0BC@FNODOBAE@permission_denied?$AA@ 004eae80     libcpmtd:syserror.obj
 0002:0000ce94       ??_C@_0P@LNDJPBFK@address_in_use?$AA@ 004eae94     libcpmtd:syserror.obj
 0002:0000cea4       ??_C@_0BG@IPMGOJF@address_not_available?$AA@ 004eaea4     libcpmtd:syserror.obj
 0002:0000cebc       ??_C@_0BN@LCBDHODA@address_family_not_supported?$AA@ 004eaebc     libcpmtd:syserror.obj
 0002:0000cedc       ??_C@_0BP@FOJJHMCC@connection_already_in_progress?$AA@ 004eaedc     libcpmtd:syserror.obj
 0002:0000cefc       ??_C@_0BE@DLHHIBGN@bad_file_descriptor?$AA@ 004eaefc     libcpmtd:syserror.obj
 0002:0000cf10       ??_C@_0BD@OJMJDIGI@connection_aborted?$AA@ 004eaf10     libcpmtd:syserror.obj
 0002:0000cf24       ??_C@_0BD@NGKCIFEP@connection_refused?$AA@ 004eaf24     libcpmtd:syserror.obj
 0002:0000cf38       ??_C@_0BB@JOANDNCK@connection_reset?$AA@ 004eaf38     libcpmtd:syserror.obj
 0002:0000cf4c       ??_C@_0BN@JLJNLKLK@destination_address_required?$AA@ 004eaf4c     libcpmtd:syserror.obj
 0002:0000cf6c       ??_C@_0M@IJGMGFGP@bad_address?$AA@ 004eaf6c     libcpmtd:syserror.obj
 0002:0000cf78       ??_C@_0BB@KKNHPPIN@host_unreachable?$AA@ 004eaf78     libcpmtd:syserror.obj
 0002:0000cf8c       ??_C@_0BG@DJGBJIIK@operation_in_progress?$AA@ 004eaf8c     libcpmtd:syserror.obj
 0002:0000cfa4       ??_C@_0M@EGEKIIMP@interrupted?$AA@ 004eafa4     libcpmtd:syserror.obj
 0002:0000cfb0       ??_C@_0BB@FFIHMIPJ@invalid_argument?$AA@ 004eafb0     libcpmtd:syserror.obj
 0002:0000cfc4       ??_C@_0BC@FIFLCHLO@already_connected?$AA@ 004eafc4     libcpmtd:syserror.obj
 0002:0000cfd8       ??_C@_0BE@GJJJJDDA@too_many_files_open?$AA@ 004eafd8     libcpmtd:syserror.obj
 0002:0000cfec       ??_C@_0N@HPMLKHPL@message_size?$AA@ 004eafec     libcpmtd:syserror.obj
 0002:0000cffc       ??_C@_0BC@LEEIKBAL@filename_too_long?$AA@ 004eaffc     libcpmtd:syserror.obj
 0002:0000d010       ??_C@_0N@FCPALPJK@network_down?$AA@ 004eb010     libcpmtd:syserror.obj
 0002:0000d020       ??_C@_0O@EHNDLHIG@network_reset?$AA@ 004eb020     libcpmtd:syserror.obj
 0002:0000d030       ??_C@_0BE@JFNJIDNF@network_unreachable?$AA@ 004eb030     libcpmtd:syserror.obj
 0002:0000d044       ??_C@_0BA@FDIJKJCL@no_buffer_space?$AA@ 004eb044     libcpmtd:syserror.obj
 0002:0000d054       ??_C@_0BD@JHIHCGKP@no_protocol_option?$AA@ 004eb054     libcpmtd:syserror.obj
 0002:0000d068       ??_C@_0O@GBCLHHD@not_connected?$AA@ 004eb068     libcpmtd:syserror.obj
 0002:0000d078       ??_C@_0N@IMHKKLEM@not_a_socket?$AA@ 004eb078     libcpmtd:syserror.obj
 0002:0000d088       ??_C@_0BI@ICEIDKLJ@operation_not_supported?$AA@ 004eb088     libcpmtd:syserror.obj
 0002:0000d0a0       ??_C@_0BH@KAPBAIJF@protocol_not_supported?$AA@ 004eb0a0     libcpmtd:syserror.obj
