 ANN_Bot_2

 Timestamp is 51ba5133 (Fri Jun 14 01:09:39 2013)

 Preferred load address is 10000000

 Start         Length     Name                   Class
 0001:00000000 0007d2a4H .text                   CODE
 0001:0007d2b0 00000983H .text$x                 CODE
 0001:0007dc40 0000036dH .text$yc                CODE
 0001:0007dfb0 000000cfH .text$yd                CODE
 0002:00000000 000001e0H .idata$5                DATA
 0002:000001e0 00000004H .CRT$XCA                DATA
 0002:000001e4 00000004H .CRT$XCC                DATA
 0002:000001e8 00000058H .CRT$XCU                DATA
 0002:00000240 00000004H .CRT$XCZ                DATA
 0002:00000244 00000004H .CRT$XIA                DATA
 0002:00000248 00000014H .CRT$XIC                DATA
 0002:0000025c 00000004H .CRT$XIZ                DATA
 0002:00000260 00000004H .CRT$XPA                DATA
 0002:00000264 00000008H .CRT$XPX                DATA
 0002:0000026c 00000004H .CRT$XPXA               DATA
 0002:00000270 00000004H .CRT$XPZ                DATA
 0002:00000274 00000004H .CRT$XTA                DATA
 0002:00000278 00000004H .CRT$XTZ                DATA
 0002:00000280 0001e190H .rdata                  DATA
 0002:0001e410 00000088H .rdata$debug            DATA
 0002:0001e498 00000854H .rdata$r                DATA
 0002:0001ecf0 000000d8H .rdata$sxdata           DATA
 0002:0001edc8 00000004H .rtc$IAA                DATA
 0002:0001edcc 00000028H .rtc$IMZ                DATA
 0002:0001edf4 00000004H .rtc$IZZ                DATA
 0002:0001edf8 00000004H .rtc$TAA                DATA
 0002:0001edfc 00000028H .rtc$TMZ                DATA
 0002:0001ee24 00000004H .rtc$TZZ                DATA
 0002:0001ee28 000017fcH .xdata$x                DATA
 0002:00020624 00000050H .idata$2                DATA
 0002:00020674 00000014H .idata$3                DATA
 0002:00020688 000001e0H .idata$4                DATA
 0002:00020868 000008b8H .idata$6                DATA
 0002:00021120 0000004aH .edata                  DATA
 0003:00000000 00001c60H .data                   DATA
 0003:00001c60 00004498H .bss                    DATA

  Address         Publics by Value              Rva+Base       Lib:Object

 0000:00000000       __except_list              00000000     <absolute>
 0000:00000036       ___safe_se_handler_count   00000036     <absolute>
 0000:00000000       ___ImageBase               10000000     <linker-defined>
 0001:00000000       ?sigmoid@CBackProp@@AAENN@Z 10001000 f   BackProp.obj
 0001:00000070       ??1CBackProp@@QAE@XZ       10001070 f   BackProp.obj
 0001:000002c0       ??0CBackProp@@QAE@HPAHNN@Z 100012c0 f   BackProp.obj
 0001:000007d0       ?bpgt@CBackProp@@QAEXPAN0@Z 100017d0 f   BackProp.obj
 0001:00000cc0       ?ffwd@CBackProp@@QAEXPAN@Z 10001cc0 f   BackProp.obj
 0001:00000e50       ?mse@CBackProp@@QBENPAN@Z  10001e50 f   BackProp.obj
 0001:00000f20       ?Out@CBackProp@@QBENH@Z    10001f20 f   BackProp.obj
 0001:00000f50       ?WriteWeights@CBackProp@@QAEXPBD@Z 10001f50 f   BackProp.obj
 0001:00001080       ?ReadWeights@CBackProp@@QAEXPBD@Z 10002080 f   BackProp.obj
 0001:00001200       ??$_Allocate@D@std@@YAPADIPAD@Z 10002200 f i BackProp.obj
 0001:00001250       ??$_Allocate@U_Container_proxy@std@@@std@@YAPAU_Container_proxy@0@IPAU10@@Z 10002250 f i BackProp.obj
 0001:000012b0       ??$_Debug_pointer@D@std@@YAXPBDPB_WI@Z 100022b0 f i BackProp.obj
 0001:000012e0       ??$addressof@D@std@@YAPADAAD@Z 100022e0 f i BackProp.obj
 0001:000012f0       ??$construct@PADAAPAD@?$_Wrap_alloc@V?$allocator@D@std@@@std@@QAEXPAPADAAPAD@Z 100022f0 f i BackProp.obj
 0001:00001330       ??$construct@PADAAPAD@?$allocator@D@std@@QAEXPAPADAAPAD@Z 10002330 f i BackProp.obj
 0001:000013e0       ??$construct@PADAAPAD@?$allocator_traits@V?$allocator@D@std@@@std@@SAXAAV?$allocator@D@1@PAPADAAPAD@Z 100023e0 f i BackProp.obj
 0001:00001410       ??$construct@U_Container_proxy@std@@U12@@?$allocator@U_Container_proxy@std@@@std@@QAEXPAU_Container_proxy@1@$$QAU21@@Z 10002410 f i BackProp.obj
 0001:000014c0       ??$destroy@PAD@?$_Wrap_alloc@V?$allocator@D@std@@@std@@QAEXPAPAD@Z 100024c0 f i BackProp.obj
 0001:000014f0       ??$destroy@PAD@?$allocator@D@std@@QAEXPAPAD@Z 100024f0 f i BackProp.obj
 0001:00001510       ??$destroy@PAD@?$allocator_traits@V?$allocator@D@std@@@std@@SAXAAV?$allocator@D@1@PAPAD@Z 10002510 f i BackProp.obj
 0001:00001530       ??$destroy@U_Container_proxy@std@@@?$allocator@U_Container_proxy@std@@@std@@QAEXPAU_Container_proxy@1@@Z 10002530 f i BackProp.obj
 0001:00001550       ??$forward@AAPAD@std@@YAAAPADAAPAD@Z 10002550 f i BackProp.obj
 0001:00001560       ??$forward@U_Container_proxy@std@@@std@@YA$$QAU_Container_proxy@0@AAU10@@Z 10002560 f i BackProp.obj
 0001:00001570       ??0?$_String_alloc@$0A@U?$_String_base_types@DV?$allocator@D@std@@@std@@@std@@QAE@ABV?$allocator@D@1@@Z 10002570 f i BackProp.obj
 0001:000015e0       ??0?$_String_val@U?$_Simple_types@D@std@@@std@@QAE@XZ 100025e0 f i BackProp.obj
 0001:00001620       ??0?$_Wrap_alloc@V?$allocator@D@std@@@std@@QAE@XZ 10002620 f i BackProp.obj
 0001:00001650       ??0?$allocator@D@std@@QAE@XZ 10002650 f i BackProp.obj
 0001:00001670       ??0?$allocator@U_Container_proxy@std@@@std@@QAE@XZ 10002670 f i BackProp.obj
 0001:00001690       ??0?$basic_string@DU?$char_traits@D@std@@V?$allocator@D@2@@std@@QAE@PBD@Z 10002690 f i BackProp.obj
 0001:00001720       ??0_Container_base12@std@@QAE@XZ 10002720 f i BackProp.obj
 0001:00001740       ??0_Container_proxy@std@@QAE@XZ 10002740 f i BackProp.obj
 0001:00001770       ??0_Generic_error_category@std@@QAE@XZ 10002770 f i BackProp.obj
 0001:000017a0       ??0_Iostream_error_category@std@@QAE@XZ 100027a0 f i BackProp.obj
 0001:000017d0       ??0_System_error_category@std@@QAE@XZ 100027d0 f i BackProp.obj
 0001:00001800       ??0error_category@std@@QAE@XZ 10002800 f i BackProp.obj
 0001:00001820       ??0error_condition@std@@QAE@HABVerror_category@1@@Z 10002820 f i BackProp.obj
 0001:00001850       ??1?$_String_alloc@$0A@U?$_String_base_types@DV?$allocator@D@std@@@std@@@std@@QAE@XZ 10002850 f i BackProp.obj
 0001:00001880       ??1?$_String_val@U?$_Simple_types@D@std@@@std@@QAE@XZ 10002880 f i BackProp.obj
 0001:000018b0       ??1_Container_base12@std@@QAE@XZ 100028b0 f i BackProp.obj
 0001:000018e0       ??1_Generic_error_category@std@@UAE@XZ 100028e0 f i BackProp.obj
 0001:00001910       ??1_Iostream_error_category@std@@UAE@XZ 10002910 f i BackProp.obj
 0001:00001940       ??1_System_error_category@std@@UAE@XZ 10002940 f i BackProp.obj
 0001:00001970       ??1error_category@std@@UAE@XZ 10002970 f i BackProp.obj
 0001:00001990       ??2@YAPAXIPAX@Z            10002990 f i BackProp.obj
 0001:000019a0       ??3@YAXPAX0@Z              100029a0 f i BackProp.obj
 0001:000019b0       ??8error_category@std@@QBE_NABV01@@Z 100029b0 f i BackProp.obj
 0001:000019f0       ??8error_condition@std@@QBE_NABV01@@Z 100029f0 f i BackProp.obj
 0001:00001a70       ??_E_Generic_error_category@std@@UAEPAXI@Z 10002a70 f i BackProp.obj
 0001:00001a70       ??_G_Generic_error_category@std@@UAEPAXI@Z 10002a70 f i BackProp.obj
 0001:00001ab0       ??_E_Iostream_error_category@std@@UAEPAXI@Z 10002ab0 f i BackProp.obj
 0001:00001ab0       ??_G_Iostream_error_category@std@@UAEPAXI@Z 10002ab0 f i BackProp.obj
 0001:00001af0       ??_E_System_error_category@std@@UAEPAXI@Z 10002af0 f i BackProp.obj
 0001:00001af0       ??_G_System_error_category@std@@UAEPAXI@Z 10002af0 f i BackProp.obj
 0001:00001b30       ??_Eerror_category@std@@UAEPAXI@Z 10002b30 f i BackProp.obj
 0001:00001b30       ??_Gerror_category@std@@UAEPAXI@Z 10002b30 f i BackProp.obj
 0001:00001b70       ?_Alloc_proxy@?$_String_alloc@$0A@U?$_String_base_types@DV?$allocator@D@std@@@std@@@std@@QAEXXZ 10002b70 f i BackProp.obj
 0001:00001c10       ?_Copy@?$basic_string@DU?$char_traits@D@std@@V?$allocator@D@2@@std@@QAEXII@Z 10002c10 f i BackProp.obj
 0001:00001e10       ?_Eos@?$basic_string@DU?$char_traits@D@std@@V?$allocator@D@2@@std@@QAEXI@Z 10002e10 f i BackProp.obj
 0001:00001e60       ?_Free_proxy@?$_String_alloc@$0A@U?$_String_base_types@DV?$allocator@D@std@@@std@@@std@@QAEXXZ 10002e60 f i BackProp.obj
 0001:00001ef0       ?_Getal@?$_String_alloc@$0A@U?$_String_base_types@DV?$allocator@D@std@@@std@@@std@@QBE?AU?$_Wrap_alloc@V?$allocator@D@std@@@2@XZ 10002ef0 f i BackProp.obj
 0001:00001f20       ?_Grow@?$basic_string@DU?$char_traits@D@std@@V?$allocator@D@2@@std@@QAE_NI_N@Z 10002f20 f i BackProp.obj
 0001:00001ff0       ?_Inside@?$basic_string@DU?$char_traits@D@std@@V?$allocator@D@2@@std@@QAE_NPBD@Z 10002ff0 f i BackProp.obj
 0001:00002040       ?_Myptr@?$_String_val@U?$_Simple_types@D@std@@@std@@QAEPADXZ 10003040 f i BackProp.obj
 0001:00002090       ?_Myptr@?$_String_val@U?$_Simple_types@D@std@@@std@@QBEPBDXZ 10003090 f i BackProp.obj
 0001:000020e0       ?_Orphan_all@_Container_base12@std@@QAEXXZ 100030e0 f i BackProp.obj
 0001:00002190       ?_Tidy@?$basic_string@DU?$char_traits@D@std@@V?$allocator@D@2@@std@@QAEX_NI@Z 10003190 f i BackProp.obj
 0001:00002260       ?_Xlen@?$basic_string@DU?$char_traits@D@std@@V?$allocator@D@2@@std@@QBEXXZ 10003260 f i BackProp.obj
 0001:00002290       ?_Xran@?$basic_string@DU?$char_traits@D@std@@V?$allocator@D@2@@std@@QBEXXZ 10003290 f i BackProp.obj
 0001:000022c0       ?allocate@?$_Wrap_alloc@V?$allocator@D@std@@@std@@QAEPADI@Z 100032c0 f i BackProp.obj
 0001:000022f0       ?allocate@?$allocator@D@std@@QAEPADI@Z 100032f0 f i BackProp.obj
 0001:00002320       ?allocate@?$allocator@U_Container_proxy@std@@@std@@QAEPAU_Container_proxy@2@I@Z 10003320 f i BackProp.obj
 0001:00002350       ?assign@?$basic_string@DU?$char_traits@D@std@@V?$allocator@D@2@@std@@QAEAAV12@ABV12@II@Z 10003350 f i BackProp.obj
 0001:00002420       ?assign@?$basic_string@DU?$char_traits@D@std@@V?$allocator@D@2@@std@@QAEAAV12@PBD@Z 10003420 f i BackProp.obj
 0001:00002470       ?assign@?$basic_string@DU?$char_traits@D@std@@V?$allocator@D@2@@std@@QAEAAV12@PBDI@Z 10003470 f i BackProp.obj
 0001:00002520       ?assign@?$char_traits@D@std@@SAXAADABD@Z 10003520 f i BackProp.obj
 0001:00002530       ?category@error_code@std@@QBEABVerror_category@2@XZ 10003530 f i BackProp.obj
 0001:00002550       ?category@error_condition@std@@QBEABVerror_category@2@XZ 10003550 f i BackProp.obj
 0001:00002570       ?copy@?$char_traits@D@std@@SAPADPADPBDI@Z 10003570 f i BackProp.obj
 0001:000025c0       ?deallocate@?$_Wrap_alloc@V?$allocator@D@std@@@std@@QAEXPADI@Z 100035c0 f i BackProp.obj
 0001:000025f0       ?deallocate@?$allocator@D@std@@QAEXPADI@Z 100035f0 f i BackProp.obj
 0001:00002620       ?deallocate@?$allocator@U_Container_proxy@std@@@std@@QAEXPAU_Container_proxy@2@I@Z 10003620 f i BackProp.obj
 0001:00002650       ?default_error_condition@_System_error_category@std@@UBE?AVerror_condition@2@H@Z 10003650 f i BackProp.obj
 0001:000026b0       ?default_error_condition@error_category@std@@UBE?AVerror_condition@2@H@Z 100036b0 f i BackProp.obj
 0001:000026f0       ?equivalent@error_category@std@@UBE_NABVerror_code@2@H@Z 100036f0 f i BackProp.obj
 0001:00002750       ?equivalent@error_category@std@@UBE_NHABVerror_condition@2@@Z 10003750 f i BackProp.obj
 0001:000027b0       ?erase@?$basic_string@DU?$char_traits@D@std@@V?$allocator@D@2@@std@@QAEAAV12@I@Z 100037b0 f i BackProp.obj
 0001:000027f0       ?erase@?$basic_string@DU?$char_traits@D@std@@V?$allocator@D@2@@std@@QAEAAV12@II@Z 100037f0 f i BackProp.obj
 0001:000028a0       ?generic_category@std@@YAABVerror_category@1@XZ 100038a0 f i BackProp.obj
 0001:000028b0       ?length@?$char_traits@D@std@@SAIPBD@Z 100038b0 f i BackProp.obj
 0001:000028f0       ?max_size@?$_Wrap_alloc@V?$allocator@D@std@@@std@@QBEIXZ 100038f0 f i BackProp.obj
 0001:00002920       ?max_size@?$allocator@D@std@@QBEIXZ 10003920 f i BackProp.obj
 0001:00002940       ?max_size@?$allocator_traits@V?$allocator@D@std@@@std@@SAIABV?$allocator@D@2@@Z 10003940 f i BackProp.obj
 0001:00002960       ?max_size@?$basic_string@DU?$char_traits@D@std@@V?$allocator@D@2@@std@@QBEIXZ 10003960 f i BackProp.obj
 0001:000029c0       ?message@_Generic_error_category@std@@UBE?AV?$basic_string@DU?$char_traits@D@std@@V?$allocator@D@2@@2@H@Z 100039c0 f i BackProp.obj
 0001:00002a30       ?message@_Iostream_error_category@std@@UBE?AV?$basic_string@DU?$char_traits@D@std@@V?$allocator@D@2@@2@H@Z 10003a30 f i BackProp.obj
 0001:00002aa0       ?message@_System_error_category@std@@UBE?AV?$basic_string@DU?$char_traits@D@std@@V?$allocator@D@2@@2@H@Z 10003aa0 f i BackProp.obj
 0001:00002b10       ?move@?$char_traits@D@std@@SAPADPADPBDI@Z 10003b10 f i BackProp.obj
 0001:00002b60       ?name@_Generic_error_category@std@@UBEPBDXZ 10003b60 f i BackProp.obj
 0001:00002b80       ?name@_Iostream_error_category@std@@UBEPBDXZ 10003b80 f i BackProp.obj
 0001:00002ba0       ?name@_System_error_category@std@@UBEPBDXZ 10003ba0 f i BackProp.obj
 0001:00002bc0       ?size@?$basic_string@DU?$char_traits@D@std@@V?$allocator@D@2@@std@@QBEIXZ 10003bc0 f i BackProp.obj
 0001:00002be0       ?system_category@std@@YAABVerror_category@1@XZ 10003be0 f i BackProp.obj
 0001:00002bf0       ?value@error_code@std@@QBEHXZ 10003bf0 f i BackProp.obj
 0001:00002c10       ?value@error_condition@std@@QBEHXZ 10003c10 f i BackProp.obj
 0001:00002c30       ??0MyCar@@QAE@PAVTrackDesc@@PAUCarElt@@PAUSituation@@@Z 10003c30 f   mycar.obj
 0001:00003510       ??1MyCar@@QAE@XZ           10004510 f   mycar.obj
 0001:000035b0       ?info@MyCar@@QAEXXZ        100045b0 f   mycar.obj
 0001:00003760       ?update@MyCar@@QAEXPAVTrackDesc@@PAUCarElt@@PAUSituation@@@Z 10004760 f   mycar.obj
 0001:00003ac0       ?loadBehaviour@MyCar@@QAEXH@Z 10004ac0 f   mycar.obj
 0001:00003c10       ?querySlipSpeed@MyCar@@QAENPAUCarElt@@@Z 10004c10 f   mycar.obj
 0001:00003dc0       ?queryAcceleration@MyCar@@QAENPAUCarElt@@N@Z 10004dc0 f   mycar.obj
 0001:00003f20       ?updateCa@MyCar@@AAEXXZ    10004f20 f   mycar.obj
 0001:000041c0       ?updateDError@MyCar@@AAEXXZ 100051c0 f   mycar.obj
 0001:00004280       ?initCarGeometry@MyCar@@AAEXXZ 10005280 f   mycar.obj
 0001:000042d0       ?init@OtherCar@@QAEXPAVTrackDesc@@PAUCarElt@@PAUSituation@@@Z 100052d0 f   mycar.obj
 0001:00004350       ?update@OtherCar@@QAEXXZ   10005350 f   mycar.obj
 0001:00004450       ??0AbstractCar@@QAE@XZ     10005450 f i mycar.obj
 0001:00004490       ??0v3d@@QAE@NNN@Z          10005490 f i mycar.obj
 0001:000044d0       ??0v3d@@QAE@XZ             100054d0 f i mycar.obj
 0001:000044f0       ??1AbstractCar@@QAE@XZ     100054f0 f i mycar.obj
 0001:00004510       ??Dv3d@@QAENABV0@@Z        10005510 f i mycar.obj
 0001:00004580       ??Gv3d@@QAE?AV0@ABV0@@Z    10005580 f i mycar.obj
 0001:000045f0       ??_GPathfinder@@QAEPAXI@Z  100055f0 f i mycar.obj
 0001:00004630       ?cos@@YAMM@Z               10005630 f i mycar.obj
 0001:00004650       ?crossProduct@v3d@@QAEXPBV1@PAV1@@Z 10005650 f i mycar.obj
 0001:000046f0       ?distToMiddleSqr3D@TrackSegment@@QAENNNN@Z 100056f0 f i mycar.obj
 0001:000047b0       ?distToPath@Pathfinder@@QAENHPAVv3d@@@Z 100057b0 f i mycar.obj
 0001:000048f0       ?fabs@@YAMM@Z              100058f0 f i mycar.obj
 0001:00004910       ?getCarPtr@AbstractCar@@QAEPAUCarElt@@XZ 10005910 f i mycar.obj
 0001:00004930       ?getCurrentSegment@Pathfinder@@QAEHPAUCarElt@@@Z 10005930 f i mycar.obj
 0001:00004980       ?getCurrentSegment@Pathfinder@@QAEHPAUCarElt@@H@Z 10005980 f i mycar.obj
 0001:000049d0       ?getCurrentSegment@TrackDesc@@QAEHPAUCarElt@@HH@Z 100059d0 f i mycar.obj
 0001:00004af0       ?getDir@PathSeg@@QAEPAVv3d@@XZ 10005af0 f i mycar.obj
 0001:00004b10       ?getKgamma@TrackSegment@@QAEMXZ 10005b10 f i mycar.obj
 0001:00004b30       ?getLength@PathSeg@@QAEMXZ 10005b30 f i mycar.obj
 0001:00004b50       ?getLoc@PathSeg@@QAEPAVv3d@@XZ 10005b50 f i mycar.obj
 0001:00004b70       ?getPathSeg@Pathfinder@@QAEPAVPathSeg@@H@Z 10005b70 f i mycar.obj
 0001:00004ba0       ?getSegmentPtr@TrackDesc@@QAEPAVTrackSegment@@H@Z 10005ba0 f i mycar.obj
 0001:00004bd0       ?getToRight@TrackSegment@@QAEPAVv3d@@XZ 10005bd0 f i mycar.obj
 0001:00004bf0       ?getnPathSeg@Pathfinder@@QAEHXZ 10005bf0 f i mycar.obj
 0001:00004c10       ?getnTrackSegments@TrackDesc@@QAEHXZ 10005c10 f i mycar.obj
 0001:00004c30       ?initCGh@AbstractCar@@IAEXXZ 10005c30 f i mycar.obj
 0001:00004c80       ?len@v3d@@QAENXZ           10005c80 f i mycar.obj
 0001:00004cf0       ?setCarPtr@AbstractCar@@IAEXPAUCarElt@@@Z 10005cf0 f i mycar.obj
 0001:00004d10       ?sgdMakeCoordMat4@@YAXQAY03NPBUsgdCoord@@@Z 10005d10 f i mycar.obj
 0001:00004d40       ?sgdMakeCoordMat4@@YAXQAY03NQBN1@Z 10005d40 f i mycar.obj
 0001:00004df0       ?sin@@YAMM@Z               10005df0 f i mycar.obj
 0001:00004e10       ?sqr@TrackSegment@@QAENN@Z 10005e10 f i mycar.obj
 0001:00004e50       ?updateDir@AbstractCar@@IAEXXZ 10005e50 f i mycar.obj
 0001:00004ec0       ?updatePos@AbstractCar@@IAEXXZ 10005ec0 f i mycar.obj
 0001:00004f20       ?updateSpeed@AbstractCar@@IAEXXZ 10005f20 f i mycar.obj
 0001:00004f60       ?updateSpeedSqr@AbstractCar@@IAEXXZ 10005f60 f i mycar.obj
 0001:00004fe0       _cosf                      10005fe0 f i mycar.obj
 0001:00005040       _fabsf                     10006040 f i mycar.obj
 0001:000050a0       _sinf                      100060a0 f i mycar.obj
 0001:00005100       ??0NeuralLayer@@QAE@HHH@Z  10006100 f   NeuralLayer.obj
 0001:000052e0       ??1NeuralLayer@@UAE@XZ     100062e0 f   NeuralLayer.obj
 0001:00005310       ?Propagate@NeuralLayer@@QAEXABHAAV1@@Z 10006310 f   NeuralLayer.obj
 0001:000054f0       ?BackPropagate@NeuralLayer@@QAEXABHAAV1@@Z 100064f0 f   NeuralLayer.obj
 0001:00005720       ?AdjustWeights@NeuralLayer@@QAEXAAV1@ABM1@Z 10006720 f   NeuralLayer.obj
 0001:00005890       ?SetInput@NeuralLayer@@QAEXAAV?$vector@MV?$allocator@M@std@@@std@@@Z 10006890 f   NeuralLayer.obj
 0001:00005910       ?GetOutput@NeuralLayer@@QAEXAAV?$vector@MV?$allocator@M@std@@@std@@@Z 10006910 f   NeuralLayer.obj
 0001:00005990       ?CalculateError@NeuralLayer@@QAEMHAAV?$vector@MV?$allocator@M@std@@@std@@@Z 10006990 f   NeuralLayer.obj
 0001:00005b90       ?ActLogistic@NeuralLayer@@QAEMABM@Z 10006b90 f   NeuralLayer.obj
 0001:00005c10       ?ActStep@NeuralLayer@@QAEMM@Z 10006c10 f   NeuralLayer.obj
 0001:00005c60       ?ActTanh@NeuralLayer@@QAEMM@Z 10006c60 f   NeuralLayer.obj
 0001:00005ca0       ?ActBipolarSigmoid@NeuralLayer@@QAEMABM@Z 10006ca0 f   NeuralLayer.obj
 0001:00005d20       ?DerLogistic@NeuralLayer@@QAEMABM@Z 10006d20 f   NeuralLayer.obj
 0001:00005d70       ?DerTanh@NeuralLayer@@QAEMM@Z 10006d70 f   NeuralLayer.obj
 0001:00005db0       ?DerBipolarSigmoid@NeuralLayer@@QAEMABM@Z 10006db0 f   NeuralLayer.obj
 0001:00005e10       ?Clear@NeuralLayer@@QAEXXZ 10006e10 f   NeuralLayer.obj
 0001:00005ee0       ??$_Allocate@M@std@@YAPAMIPAM@Z 10006ee0 f i NeuralLayer.obj
 0001:00005f40       ??$_Allocate@PAUNeuron@@@std@@YAPAPAUNeuron@@IPAPAU1@@Z 10006f40 f i NeuralLayer.obj
 0001:00005fa0       ??$_Debug_pointer@M@std@@YAXPAMPB_WI@Z 10006fa0 f i NeuralLayer.obj
 0001:00005fd0       ??$_Debug_pointer@PAUNeuron@@@std@@YAXPAPAUNeuron@@PB_WI@Z 10006fd0 f i NeuralLayer.obj
 0001:00006000       ??$_Debug_range2@PAM@std@@YAXPAM0PB_WIUrandom_access_iterator_tag@0@@Z 10007000 f i NeuralLayer.obj
 0001:00006060       ??$_Debug_range2@PAPAUNeuron@@@std@@YAXPAPAUNeuron@@0PB_WIUrandom_access_iterator_tag@0@@Z 10007060 f i NeuralLayer.obj
 0001:000060c0       ??$_Debug_range@PAM@std@@YAXPAM0PB_WI@Z 100070c0 f i NeuralLayer.obj
 0001:00006110       ??$_Debug_range@PAPAUNeuron@@@std@@YAXPAPAUNeuron@@0PB_WI@Z 10007110 f i NeuralLayer.obj
 0001:00006160       ??$_Destroy_range@U?$_Wrap_alloc@V?$allocator@M@std@@@std@@@std@@YAXPAM0AAU?$_Wrap_alloc@V?$allocator@M@std@@@0@@Z 10007160 f i NeuralLayer.obj
 0001:000061b0       ??$_Destroy_range@U?$_Wrap_alloc@V?$allocator@M@std@@@std@@@std@@YAXPAM0AAU?$_Wrap_alloc@V?$allocator@M@std@@@0@U_Scalar_ptr_iterator_tag@0@@Z 100071b0 f i NeuralLayer.obj
 0001:000061c0       ??$_Destroy_range@U?$_Wrap_alloc@V?$allocator@PAUNeuron@@@std@@@std@@@std@@YAXPAPAUNeuron@@0AAU?$_Wrap_alloc@V?$allocator@PAUNeuron@@@std@@@0@@Z 100071c0 f i NeuralLayer.obj
 0001:00006210       ??$_Destroy_range@U?$_Wrap_alloc@V?$allocator@PAUNeuron@@@std@@@std@@@std@@YAXPAPAUNeuron@@0AAU?$_Wrap_alloc@V?$allocator@PAUNeuron@@@std@@@0@U_Scalar_ptr_iterator_tag@0@@Z 10007210 f i NeuralLayer.obj
 0001:00006220       ??$_Iter_cat@PAM@std@@YA?AUrandom_access_iterator_tag@0@ABQAM@Z 10007220 f i NeuralLayer.obj
 0001:00006280       ??$_Iter_cat@PAPAUNeuron@@@std@@YA?AUrandom_access_iterator_tag@0@ABQAPAUNeuron@@@Z 10007280 f i NeuralLayer.obj
 0001:000062e0       ??$_Ptr_cat@MM@std@@YA?AU_Scalar_ptr_iterator_tag@0@PAM0@Z 100072e0 f i NeuralLayer.obj
 0001:00006330       ??$_Ptr_cat@PAUNeuron@@PAU1@@std@@YA?AU_Scalar_ptr_iterator_tag@0@PAPAUNeuron@@0@Z 10007330 f i NeuralLayer.obj
 0001:00006380       ??$_Umove@PAM@?$vector@MV?$allocator@M@std@@@std@@IAEPAMPAM00@Z 10007380 f i NeuralLayer.obj
 0001:00006400       ??$_Umove@PAPAUNeuron@@@?$vector@PAUNeuron@@V?$allocator@PAUNeuron@@@std@@@std@@IAEPAPAUNeuron@@PAPAU2@00@Z 10007400 f i NeuralLayer.obj
 0001:00006480       ??$_Uninit_move@MMM@std@@YAPAMPAM00AAU?$_Wrap_alloc@V?$allocator@M@std@@@0@0U_Scalar_ptr_iterator_tag@0@@Z 10007480 f i NeuralLayer.obj
 0001:00006500       ??$_Uninit_move@PAUNeuron@@PAU1@PAU1@@std@@YAPAPAUNeuron@@PAPAU1@00AAU?$_Wrap_alloc@V?$allocator@PAUNeuron@@@std@@@0@0U_Scalar_ptr_iterator_tag@0@@Z 10007500 f i NeuralLayer.obj
 0001:00006580       ??$_Uninitialized_move@PAMPAMU?$_Wrap_alloc@V?$allocator@M@std@@@std@@@std@@YAPAMPAM00AAU?$_Wrap_alloc@V?$allocator@M@std@@@0@@Z 10007580 f i NeuralLayer.obj
 0001:000065e0       ??$_Uninitialized_move@PAPAUNeuron@@PAPAU1@U?$_Wrap_alloc@V?$allocator@PAUNeuron@@@std@@@std@@@std@@YAPAPAUNeuron@@PAPAU1@00AAU?$_Wrap_alloc@V?$allocator@PAUNeuron@@@std@@@0@@Z 100075e0 f i NeuralLayer.obj
 0001:00006640       ??$_Val_type@PAM@std@@YAPAMPAM@Z 10007640 f i NeuralLayer.obj
 0001:00006650       ??$_Val_type@PAPAUNeuron@@@std@@YAPAPAUNeuron@@PAPAU1@@Z 10007650 f i NeuralLayer.obj
 0001:00006660       ??$addressof@$$CBM@std@@YAPBMABM@Z 10007660 f i NeuralLayer.obj
 0001:00006670       ??$addressof@M@std@@YAPAMAAM@Z 10007670 f i NeuralLayer.obj
 0001:00006680       ??$addressof@QAUNeuron@@@std@@YAPBQAUNeuron@@ABQAU1@@Z 10007680 f i NeuralLayer.obj
 0001:00006690       ??$construct@MAAM@?$_Wrap_alloc@V?$allocator@M@std@@@std@@QAEXPAMAAM@Z 10007690 f i NeuralLayer.obj
 0001:000066d0       ??$construct@MAAM@?$allocator@M@std@@QAEXPAMAAM@Z 100076d0 f i NeuralLayer.obj
 0001:00006780       ??$construct@MAAM@?$allocator_traits@V?$allocator@M@std@@@std@@SAXAAV?$allocator@M@1@PAMAAM@Z 10007780 f i NeuralLayer.obj
 0001:000067b0       ??$construct@MABM@?$_Wrap_alloc@V?$allocator@M@std@@@std@@QAEXPAMABM@Z 100077b0 f i NeuralLayer.obj
 0001:000067f0       ??$construct@MABM@?$allocator_traits@V?$allocator@M@std@@@std@@SAXAAV?$allocator@M@1@PAMABM@Z 100077f0 f i NeuralLayer.obj
 0001:00006820       ??$construct@MM@?$_Wrap_alloc@V?$allocator@M@std@@@std@@QAEXPAM$$QAM@Z 10007820 f i NeuralLayer.obj
 0001:00006860       ??$construct@MM@?$allocator@M@std@@QAEXPAM$$QAM@Z 10007860 f i NeuralLayer.obj
 0001:00006910       ??$construct@MM@?$allocator_traits@V?$allocator@M@std@@@std@@SAXAAV?$allocator@M@1@PAM$$QAM@Z 10007910 f i NeuralLayer.obj
 0001:00006940       ??$construct@PAUNeuron@@AAPAU1@@?$_Wrap_alloc@V?$allocator@PAUNeuron@@@std@@@std@@QAEXPAPAUNeuron@@AAPAU2@@Z 10007940 f i NeuralLayer.obj
 0001:00006980       ??$construct@PAUNeuron@@AAPAU1@@?$allocator@PAUNeuron@@@std@@QAEXPAPAUNeuron@@AAPAU2@@Z 10007980 f i NeuralLayer.obj
 0001:00006a30       ??$construct@PAUNeuron@@AAPAU1@@?$allocator_traits@V?$allocator@PAUNeuron@@@std@@@std@@SAXAAV?$allocator@PAUNeuron@@@1@PAPAUNeuron@@AAPAU3@@Z 10007a30 f i NeuralLayer.obj
 0001:00006a60       ??$construct@PAUNeuron@@ABQAU1@@?$_Wrap_alloc@V?$allocator@PAUNeuron@@@std@@@std@@QAEXPAPAUNeuron@@ABQAU2@@Z 10007a60 f i NeuralLayer.obj
 0001:00006aa0       ??$construct@PAUNeuron@@ABQAU1@@?$allocator_traits@V?$allocator@PAUNeuron@@@std@@@std@@SAXAAV?$allocator@PAUNeuron@@@1@PAPAUNeuron@@ABQAU3@@Z 10007aa0 f i NeuralLayer.obj
 0001:00006ad0       ??$forward@AAM@std@@YAAAMAAM@Z 10007ad0 f i NeuralLayer.obj
 0001:00006ae0       ??$forward@AAPAUNeuron@@@std@@YAAAPAUNeuron@@AAPAU1@@Z 10007ae0 f i NeuralLayer.obj
 0001:00006af0       ??$forward@ABM@std@@YAABMABM@Z 10007af0 f i NeuralLayer.obj
 0001:00006b00       ??$forward@ABQAUNeuron@@@std@@YAABQAUNeuron@@ABQAU1@@Z 10007b00 f i NeuralLayer.obj
 0001:00006b10       ??$forward@M@std@@YA$$QAMAAM@Z 10007b10 f i NeuralLayer.obj
 0001:00006b20       ??0?$_Vector_alloc@$0A@U?$_Vec_base_types@MV?$allocator@M@std@@@std@@@std@@QAE@ABV?$allocator@M@1@@Z 10007b20 f i NeuralLayer.obj
 0001:00006b90       ??0?$_Vector_alloc@$0A@U?$_Vec_base_types@PAUNeuron@@V?$allocator@PAUNeuron@@@std@@@std@@@std@@QAE@ABV?$allocator@PAUNeuron@@@1@@Z 10007b90 f i NeuralLayer.obj
 0001:00006c00       ??0?$_Vector_val@U?$_Simple_types@M@std@@@std@@QAE@XZ 10007c00 f i NeuralLayer.obj
 0001:00006c50       ??0?$_Vector_val@U?$_Simple_types@PAUNeuron@@@std@@@std@@QAE@XZ 10007c50 f i NeuralLayer.obj
 0001:00006ca0       ??0?$_Wrap_alloc@V?$allocator@M@std@@@std@@QAE@XZ 10007ca0 f i NeuralLayer.obj
 0001:00006cd0       ??0?$_Wrap_alloc@V?$allocator@PAUNeuron@@@std@@@std@@QAE@XZ 10007cd0 f i NeuralLayer.obj
 0001:00006d00       ??0?$allocator@M@std@@QAE@XZ 10007d00 f i NeuralLayer.obj
 0001:00006d20       ??0?$allocator@PAUNeuron@@@std@@QAE@XZ 10007d20 f i NeuralLayer.obj
 0001:00006d40       ??0?$vector@MV?$allocator@M@std@@@std@@QAE@XZ 10007d40 f i NeuralLayer.obj
 0001:00006d80       ??0?$vector@PAUNeuron@@V?$allocator@PAUNeuron@@@std@@@std@@QAE@XZ 10007d80 f i NeuralLayer.obj
 0001:00006dc0       ??0Neuron@@QAE@XZ          10007dc0 f i NeuralLayer.obj
 0001:00006e40       ??1?$_Vector_alloc@$0A@U?$_Vec_base_types@MV?$allocator@M@std@@@std@@@std@@QAE@XZ 10007e40 f i NeuralLayer.obj
 0001:00006e70       ??1?$_Vector_alloc@$0A@U?$_Vec_base_types@PAUNeuron@@V?$allocator@PAUNeuron@@@std@@@std@@@std@@QAE@XZ 10007e70 f i NeuralLayer.obj
 0001:00006ea0       ??1?$_Vector_val@U?$_Simple_types@M@std@@@std@@QAE@XZ 10007ea0 f i NeuralLayer.obj
 0001:00006ed0       ??1?$_Vector_val@U?$_Simple_types@PAUNeuron@@@std@@@std@@QAE@XZ 10007ed0 f i NeuralLayer.obj
 0001:00006f00       ??1?$vector@MV?$allocator@M@std@@@std@@QAE@XZ 10007f00 f i NeuralLayer.obj
 0001:00006f30       ??1?$vector@PAUNeuron@@V?$allocator@PAUNeuron@@@std@@@std@@QAE@XZ 10007f30 f i NeuralLayer.obj
 0001:00006f60       ??1Neuron@@UAE@XZ          10007f60 f i NeuralLayer.obj
 0001:00006fa0       ??A?$vector@MV?$allocator@M@std@@@std@@QAEAAMI@Z 10007fa0 f i NeuralLayer.obj
 0001:00007040       ??A?$vector@PAUNeuron@@V?$allocator@PAUNeuron@@@std@@@std@@QAEAAPAUNeuron@@I@Z 10008040 f i NeuralLayer.obj
 0001:000070e0       ??_ENeuralLayer@@UAEPAXI@Z 100080e0 f i NeuralLayer.obj
 0001:000070e0       ??_GNeuralLayer@@UAEPAXI@Z 100080e0 f i NeuralLayer.obj
 0001:00007120       ??_GNeuron@@UAEPAXI@Z      10008120 f i NeuralLayer.obj
 0001:00007120       ??_ENeuron@@UAEPAXI@Z      10008120 f i NeuralLayer.obj
 0001:00007160       ?_Alloc_proxy@?$_Vector_alloc@$0A@U?$_Vec_base_types@MV?$allocator@M@std@@@std@@@std@@QAEXXZ 10008160 f i NeuralLayer.obj
 0001:00007200       ?_Alloc_proxy@?$_Vector_alloc@$0A@U?$_Vec_base_types@PAUNeuron@@V?$allocator@PAUNeuron@@@std@@@std@@@std@@QAEXXZ 10008200 f i NeuralLayer.obj
 0001:000072a0       ?_Clrcont@_Iterator_base12@std@@QAEXXZ 100082a0 f i NeuralLayer.obj
 0001:000072c0       ?_Destroy@?$vector@MV?$allocator@M@std@@@std@@IAEXPAM0@Z 100082c0 f i NeuralLayer.obj
 0001:00007340       ?_Destroy@?$vector@PAUNeuron@@V?$allocator@PAUNeuron@@@std@@@std@@IAEXPAPAUNeuron@@0@Z 10008340 f i NeuralLayer.obj
 0001:000073c0       ?_Free_proxy@?$_Vector_alloc@$0A@U?$_Vec_base_types@MV?$allocator@M@std@@@std@@@std@@QAEXXZ 100083c0 f i NeuralLayer.obj
 0001:00007450       ?_Free_proxy@?$_Vector_alloc@$0A@U?$_Vec_base_types@PAUNeuron@@V?$allocator@PAUNeuron@@@std@@@std@@@std@@QAEXXZ 10008450 f i NeuralLayer.obj
 0001:000074e0       ?_Getal@?$_Vector_alloc@$0A@U?$_Vec_base_types@MV?$allocator@M@std@@@std@@@std@@QBE?AU?$_Wrap_alloc@V?$allocator@M@std@@@2@XZ 100084e0 f i NeuralLayer.obj
 0001:00007510       ?_Getal@?$_Vector_alloc@$0A@U?$_Vec_base_types@PAUNeuron@@V?$allocator@PAUNeuron@@@std@@@std@@@std@@QBE?AU?$_Wrap_alloc@V?$allocator@PAUNeuron@@@std@@@2@XZ 10008510 f i NeuralLayer.obj
 0001:00007540       ?_Getpfirst@_Container_base12@std@@QBEPAPAU_Iterator_base12@2@XZ 10008540 f i NeuralLayer.obj
 0001:00007580       ?_Getpnext@_Iterator_base12@std@@QAEPAPAU12@XZ 10008580 f i NeuralLayer.obj
 0001:000075a0       ?_Grow_to@?$vector@MV?$allocator@M@std@@@std@@IBEII@Z 100085a0 f i NeuralLayer.obj
 0001:00007620       ?_Grow_to@?$vector@PAUNeuron@@V?$allocator@PAUNeuron@@@std@@@std@@IBEII@Z 10008620 f i NeuralLayer.obj
 0001:000076a0       ?_Inside@?$vector@MV?$allocator@M@std@@@std@@IBE_NPBM@Z 100086a0 f i NeuralLayer.obj
 0001:000076f0       ?_Inside@?$vector@PAUNeuron@@V?$allocator@PAUNeuron@@@std@@@std@@IBE_NPBQAUNeuron@@@Z 100086f0 f i NeuralLayer.obj
 0001:00007740       ?_Orphan_range@?$vector@MV?$allocator@M@std@@@std@@IBEXPAM0@Z 10008740 f i NeuralLayer.obj
 0001:00007850       ?_Orphan_range@?$vector@PAUNeuron@@V?$allocator@PAUNeuron@@@std@@@std@@IBEXPAPAUNeuron@@0@Z 10008850 f i NeuralLayer.obj
 0001:00007960       ?_Reallocate@?$vector@MV?$allocator@M@std@@@std@@IAEXI@Z 10008960 f i NeuralLayer.obj
 0001:00007ac0       ?_Reallocate@?$vector@PAUNeuron@@V?$allocator@PAUNeuron@@@std@@@std@@IAEXI@Z 10008ac0 f i NeuralLayer.obj
 0001:00007c20       ?_Reserve@?$vector@MV?$allocator@M@std@@@std@@IAEXI@Z 10008c20 f i NeuralLayer.obj
 0001:00007c90       ?_Reserve@?$vector@PAUNeuron@@V?$allocator@PAUNeuron@@@std@@@std@@IAEXI@Z 10008c90 f i NeuralLayer.obj
 0001:00007d00       ?_Tidy@?$vector@MV?$allocator@M@std@@@std@@IAEXXZ 10008d00 f i NeuralLayer.obj
 0001:00007da0       ?_Tidy@?$vector@PAUNeuron@@V?$allocator@PAUNeuron@@@std@@@std@@IAEXXZ 10008da0 f i NeuralLayer.obj
 0001:00007e40       ?_Unused_capacity@?$vector@MV?$allocator@M@std@@@std@@QBEIXZ 10008e40 f i NeuralLayer.obj
 0001:00007e70       ?_Unused_capacity@?$vector@PAUNeuron@@V?$allocator@PAUNeuron@@@std@@@std@@QBEIXZ 10008e70 f i NeuralLayer.obj
 0001:00007ea0       ?_Xlen@?$vector@MV?$allocator@M@std@@@std@@IBEXXZ 10008ea0 f i NeuralLayer.obj
 0001:00007ed0       ?_Xlen@?$vector@PAUNeuron@@V?$allocator@PAUNeuron@@@std@@@std@@IBEXXZ 10008ed0 f i NeuralLayer.obj
 0001:00007f00       ?allocate@?$_Wrap_alloc@V?$allocator@M@std@@@std@@QAEPAMI@Z 10008f00 f i NeuralLayer.obj
 0001:00007f30       ?allocate@?$_Wrap_alloc@V?$allocator@PAUNeuron@@@std@@@std@@QAEPAPAUNeuron@@I@Z 10008f30 f i NeuralLayer.obj
 0001:00007f60       ?allocate@?$allocator@M@std@@QAEPAMI@Z 10008f60 f i NeuralLayer.obj
 0001:00007f90       ?allocate@?$allocator@PAUNeuron@@@std@@QAEPAPAUNeuron@@I@Z 10008f90 f i NeuralLayer.obj
 0001:00007fc0       ?capacity@?$vector@MV?$allocator@M@std@@@std@@QBEIXZ 10008fc0 f i NeuralLayer.obj
 0001:00007ff0       ?capacity@?$vector@PAUNeuron@@V?$allocator@PAUNeuron@@@std@@@std@@QBEIXZ 10008ff0 f i NeuralLayer.obj
 0001:00008020       ?clear@?$vector@MV?$allocator@M@std@@@std@@QAEXXZ 10009020 f i NeuralLayer.obj
 0001:00008070       ?clear@?$vector@PAUNeuron@@V?$allocator@PAUNeuron@@@std@@@std@@QAEXXZ 10009070 f i NeuralLayer.obj
 0001:000080c0       ?construct@?$allocator@M@std@@QAEXPAMABM@Z 100090c0 f i NeuralLayer.obj
 0001:00008120       ?construct@?$allocator@PAUNeuron@@@std@@QAEXPAPAUNeuron@@ABQAU3@@Z 10009120 f i NeuralLayer.obj
 0001:00008180       ?deallocate@?$_Wrap_alloc@V?$allocator@M@std@@@std@@QAEXPAMI@Z 10009180 f i NeuralLayer.obj
 0001:000081b0       ?deallocate@?$_Wrap_alloc@V?$allocator@PAUNeuron@@@std@@@std@@QAEXPAPAUNeuron@@I@Z 100091b0 f i NeuralLayer.obj
 0001:000081e0       ?deallocate@?$allocator@M@std@@QAEXPAMI@Z 100091e0 f i NeuralLayer.obj
 0001:00008210       ?deallocate@?$allocator@PAUNeuron@@@std@@QAEXPAPAUNeuron@@I@Z 10009210 f i NeuralLayer.obj
 0001:00008240       ?exp@@YAMM@Z               10009240 f i NeuralLayer.obj
 0001:00008260       ?max_size@?$_Wrap_alloc@V?$allocator@M@std@@@std@@QBEIXZ 10009260 f i NeuralLayer.obj
 0001:00008290       ?max_size@?$_Wrap_alloc@V?$allocator@PAUNeuron@@@std@@@std@@QBEIXZ 10009290 f i NeuralLayer.obj
 0001:000082c0       ?max_size@?$allocator@M@std@@QBEIXZ 100092c0 f i NeuralLayer.obj
 0001:000082e0       ?max_size@?$allocator@PAUNeuron@@@std@@QBEIXZ 100092e0 f i NeuralLayer.obj
 0001:00008300       ?max_size@?$allocator_traits@V?$allocator@M@std@@@std@@SAIABV?$allocator@M@2@@Z 10009300 f i NeuralLayer.obj
 0001:00008320       ?max_size@?$allocator_traits@V?$allocator@PAUNeuron@@@std@@@std@@SAIABV?$allocator@PAUNeuron@@@2@@Z 10009320 f i NeuralLayer.obj
 0001:00008340       ?max_size@?$vector@MV?$allocator@M@std@@@std@@QBEIXZ 10009340 f i NeuralLayer.obj
 0001:00008380       ?max_size@?$vector@PAUNeuron@@V?$allocator@PAUNeuron@@@std@@@std@@QBEIXZ 10009380 f i NeuralLayer.obj
 0001:000083c0       ?push_back@?$vector@MV?$allocator@M@std@@@std@@QAEX$$QAM@Z 100093c0 f i NeuralLayer.obj
 0001:00008500       ?push_back@?$vector@MV?$allocator@M@std@@@std@@QAEXABM@Z 10009500 f i NeuralLayer.obj
 0001:00008630       ?push_back@?$vector@PAUNeuron@@V?$allocator@PAUNeuron@@@std@@@std@@QAEXABQAUNeuron@@@Z 10009630 f i NeuralLayer.obj
 0001:00008760       ?size@?$vector@MV?$allocator@M@std@@@std@@QBEIXZ 10009760 f i NeuralLayer.obj
 0001:00008790       ?size@?$vector@PAUNeuron@@V?$allocator@PAUNeuron@@@std@@@std@@QBEIXZ 10009790 f i NeuralLayer.obj
 0001:000087c0       ?tanh@@YAMM@Z              100097c0 f i NeuralLayer.obj
 0001:000087e0       _expf                      100097e0 f i NeuralLayer.obj
 0001:00008840       _tanhf                     10009840 f i NeuralLayer.obj
 0001:000088a0       ?AddLayer@NeuralNetwork@@AAEXHHH@Z 100098a0 f   NeuralNetwork.obj
 0001:00008960       ??0NeuralNetwork@@QAE@HHHHABV?$basic_string@DU?$char_traits@D@std@@V?$allocator@D@2@@std@@@Z 10009960 f   NeuralNetwork.obj
 0001:00008a20       ??1NeuralNetwork@@UAE@XZ   10009a20 f   NeuralNetwork.obj
 0001:00008a60       ?Init@NeuralNetwork@@QAEXXZ 10009a60 f   NeuralNetwork.obj
 0001:00008bc0       ?Train@NeuralNetwork@@QAEXAAV?$vector@MV?$allocator@M@std@@@std@@0@Z 10009bc0 f   NeuralNetwork.obj
 0001:00008c10       ?Use@NeuralNetwork@@QAEXAAV?$vector@MV?$allocator@M@std@@@std@@0@Z 10009c10 f   NeuralNetwork.obj
 0001:00008c60       ?Propagate@NeuralNetwork@@QAEXXZ 10009c60 f   NeuralNetwork.obj
 0001:00008d40       ?BackPropagate@NeuralNetwork@@QAEXXZ 10009d40 f   NeuralNetwork.obj
 0001:00008e20       ?WriteWeights@NeuralNetwork@@QAEXXZ 10009e20 f   NeuralNetwork.obj
 0001:00008fb0       ?ReadWeights@NeuralNetwork@@QAEXXZ 10009fb0 f   NeuralNetwork.obj
 0001:00009130       ?SetInputs@NeuralNetwork@@QAEXAAV?$vector@MV?$allocator@M@std@@@std@@@Z 1000a130 f   NeuralNetwork.obj
 0001:00009160       ?FindError@NeuralNetwork@@QAEXAAV?$vector@MV?$allocator@M@std@@@std@@@Z 1000a160 f   NeuralNetwork.obj
 0001:000091a0       ??$?8DD@std@@YA_NABV?$allocator@D@0@0@Z 1000a1a0 f i NeuralNetwork.obj
 0001:000091b0       ??$?8V?$allocator@D@std@@V01@@std@@YA_NABU?$_Wrap_alloc@V?$allocator@D@std@@@0@0@Z 1000a1b0 f i NeuralNetwork.obj
 0001:000091f0       ??$?9V?$allocator@D@std@@V01@@std@@YA_NABU?$_Wrap_alloc@V?$allocator@D@std@@@0@0@Z 1000a1f0 f i NeuralNetwork.obj
 0001:00009240       ??$_Allocate@VNeuralLayer@@@std@@YAPAVNeuralLayer@@IPAV1@@Z 1000a240 f i NeuralNetwork.obj
 0001:000092a0       ??$_Debug_pointer@V?$_Vector_const_iterator@V?$_Vector_val@U?$_Simple_types@PAUNeuron@@@std@@@std@@@std@@@std@@YAXAAV?$_Vector_const_iterator@V?$_Vector_val@U?$_Simple_types@PAUNeuron@@@std@@@std@@@0@PB_WI@Z 1000a2a0 f i NeuralNetwork.obj
 0001:000092b0       ??$_Debug_pointer@VNeuralLayer@@@std@@YAXPAVNeuralLayer@@PB_WI@Z 1000a2b0 f i NeuralNetwork.obj
 0001:000092e0       ??$_Debug_range2@PAVNeuralLayer@@@std@@YAXPAVNeuralLayer@@0PB_WIUrandom_access_iterator_tag@0@@Z 1000a2e0 f i NeuralNetwork.obj
 0001:00009340       ??$_Debug_range2@V?$_Vector_const_iterator@V?$_Vector_val@U?$_Simple_types@PAUNeuron@@@std@@@std@@@std@@@std@@YAXV?$_Vector_const_iterator@V?$_Vector_val@U?$_Simple_types@PAUNeuron@@@std@@@std@@@0@0PB_WIUrandom_access_iterator_tag@0@@Z 1000a340 f i NeuralNetwork.obj
 0001:00009400       ??$_Debug_range@PAVNeuralLayer@@@std@@YAXPAVNeuralLayer@@0PB_WI@Z 1000a400 f i NeuralNetwork.obj
 0001:00009450       ??$_Debug_range@V?$_Vector_const_iterator@V?$_Vector_val@U?$_Simple_types@PAUNeuron@@@std@@@std@@@std@@@std@@YAXV?$_Vector_const_iterator@V?$_Vector_val@U?$_Simple_types@PAUNeuron@@@std@@@std@@@0@0PB_WI@Z 1000a450 f i NeuralNetwork.obj
 0001:00009530       ??$_Destroy_range@U?$_Wrap_alloc@V?$allocator@VNeuralLayer@@@std@@@std@@@std@@YAXPAVNeuralLayer@@0AAU?$_Wrap_alloc@V?$allocator@VNeuralLayer@@@std@@@0@@Z 1000a530 f i NeuralNetwork.obj
 0001:00009580       ??$_Destroy_range@U?$_Wrap_alloc@V?$allocator@VNeuralLayer@@@std@@@std@@@std@@YAXPAVNeuralLayer@@0AAU?$_Wrap_alloc@V?$allocator@VNeuralLayer@@@std@@@0@U_Nonscalar_ptr_iterator_tag@0@@Z 1000a580 f i NeuralNetwork.obj
 0001:000095b0       ??$_Iter_cat@PAVNeuralLayer@@@std@@YA?AUrandom_access_iterator_tag@0@ABQAVNeuralLayer@@@Z 1000a5b0 f i NeuralNetwork.obj
 0001:00009610       ??$_Iter_cat@V?$_Vector_const_iterator@V?$_Vector_val@U?$_Simple_types@PAUNeuron@@@std@@@std@@@std@@@std@@YA?AUrandom_access_iterator_tag@0@ABV?$_Vector_const_iterator@V?$_Vector_val@U?$_Simple_types@PAUNeuron@@@std@@@std@@@0@@Z 1000a610 f i NeuralNetwork.obj
 0001:00009670       ??$_Ptr_cat@V?$_Vector_const_iterator@V?$_Vector_val@U?$_Simple_types@PAUNeuron@@@std@@@std@@@std@@PAPAUNeuron@@@std@@YA?AU_Nonscalar_ptr_iterator_tag@0@AAV?$_Vector_const_iterator@V?$_Vector_val@U?$_Simple_types@PAUNeuron@@@std@@@std@@@0@AAPAPAUNeuron@@@Z 1000a670 f i NeuralNetwork.obj
 0001:000096c0       ??$_Ptr_cat@VNeuralLayer@@V1@@std@@YA?AU_Nonscalar_ptr_iterator_tag@0@PAVNeuralLayer@@0@Z 1000a6c0 f i NeuralNetwork.obj
 0001:00009710       ??$_Ucopy@V?$_Vector_const_iterator@V?$_Vector_val@U?$_Simple_types@PAUNeuron@@@std@@@std@@@std@@@?$vector@PAUNeuron@@V?$allocator@PAUNeuron@@@std@@@std@@IAEPAPAUNeuron@@V?$_Vector_const_iterator@V?$_Vector_val@U?$_Simple_types@PAUNeuron@@@std@@@std@@@1@0PAPAU2@@Z 1000a710 f i NeuralNetwork.obj
 0001:00009820       ??$_Umove@PAVNeuralLayer@@@?$vector@VNeuralLayer@@V?$allocator@VNeuralLayer@@@std@@@std@@IAEPAVNeuralLayer@@PAV2@00@Z 1000a820 f i NeuralNetwork.obj
 0001:000098a0       ??$_Uninit_copy@V?$_Vector_const_iterator@V?$_Vector_val@U?$_Simple_types@PAUNeuron@@@std@@@std@@@std@@PAPAUNeuron@@V?$allocator@PAUNeuron@@@2@@std@@YAPAPAUNeuron@@V?$_Vector_const_iterator@V?$_Vector_val@U?$_Simple_types@PAUNeuron@@@std@@@std@@@0@0PAPAU1@AAU?$_Wrap_alloc@V?$allocator@PAUNeuron@@@std@@@0@U_Nonscalar_ptr_iterator_tag@0@@Z 1000a8a0 f i NeuralNetwork.obj
 0001:00009a30       ??$_Uninit_move@PAVNeuralLayer@@PAV1@V?$allocator@VNeuralLayer@@@std@@V1@@std@@YAPAVNeuralLayer@@PAV1@00AAU?$_Wrap_alloc@V?$allocator@VNeuralLayer@@@std@@@0@0U_Nonscalar_ptr_iterator_tag@0@@Z 1000aa30 f i NeuralNetwork.obj
 0001:00009b30       ??$_Uninitialized_copy@V?$_Vector_const_iterator@V?$_Vector_val@U?$_Simple_types@PAUNeuron@@@std@@@std@@@std@@PAPAUNeuron@@U?$_Wrap_alloc@V?$allocator@PAUNeuron@@@std@@@2@@std@@YAPAPAUNeuron@@V?$_Vector_const_iterator@V?$_Vector_val@U?$_Simple_types@PAUNeuron@@@std@@@std@@@0@0PAPAU1@AAU?$_Wrap_alloc@V?$allocator@PAUNeuron@@@std@@@0@@Z 1000ab30 f i NeuralNetwork.obj
 0001:00009c20       ??$_Uninitialized_move@PAVNeuralLayer@@PAV1@U?$_Wrap_alloc@V?$allocator@VNeuralLayer@@@std@@@std@@@std@@YAPAVNeuralLayer@@PAV1@00AAU?$_Wrap_alloc@V?$allocator@VNeuralLayer@@@std@@@0@@Z 1000ac20 f i NeuralNetwork.obj
 0001:00009c80       ??$_Val_type@PAVNeuralLayer@@@std@@YAPAVNeuralLayer@@PAV1@@Z 1000ac80 f i NeuralNetwork.obj
 0001:00009c90       ??$addressof@$$CBVNeuralLayer@@@std@@YAPBVNeuralLayer@@ABV1@@Z 1000ac90 f i NeuralNetwork.obj
 0001:00009ca0       ??$construct@VNeuralLayer@@AAV1@@?$_Wrap_alloc@V?$allocator@VNeuralLayer@@@std@@@std@@QAEXPAVNeuralLayer@@AAV2@@Z 1000aca0 f i NeuralNetwork.obj
 0001:00009ce0       ??$construct@VNeuralLayer@@AAV1@@?$allocator@VNeuralLayer@@@std@@QAEXPAVNeuralLayer@@AAV2@@Z 1000ace0 f i NeuralNetwork.obj
 0001:00009d80       ??$construct@VNeuralLayer@@AAV1@@?$allocator_traits@V?$allocator@VNeuralLayer@@@std@@@std@@SAXAAV?$allocator@VNeuralLayer@@@1@PAVNeuralLayer@@AAV3@@Z 1000ad80 f i NeuralNetwork.obj
 0001:00009db0       ??$construct@VNeuralLayer@@ABV1@@?$_Wrap_alloc@V?$allocator@VNeuralLayer@@@std@@@std@@QAEXPAVNeuralLayer@@ABV2@@Z 1000adb0 f i NeuralNetwork.obj
 0001:00009df0       ??$construct@VNeuralLayer@@ABV1@@?$allocator_traits@V?$allocator@VNeuralLayer@@@std@@@std@@SAXAAV?$allocator@VNeuralLayer@@@1@PAVNeuralLayer@@ABV3@@Z 1000adf0 f i NeuralNetwork.obj
 0001:00009e20       ??$construct@VNeuralLayer@@V1@@?$_Wrap_alloc@V?$allocator@VNeuralLayer@@@std@@@std@@QAEXPAVNeuralLayer@@$$QAV2@@Z 1000ae20 f i NeuralNetwork.obj
 0001:00009e60       ??$construct@VNeuralLayer@@V1@@?$allocator@VNeuralLayer@@@std@@QAEXPAVNeuralLayer@@$$QAV2@@Z 1000ae60 f i NeuralNetwork.obj
 0001:00009f00       ??$construct@VNeuralLayer@@V1@@?$allocator_traits@V?$allocator@VNeuralLayer@@@std@@@std@@SAXAAV?$allocator@VNeuralLayer@@@1@PAVNeuralLayer@@$$QAV3@@Z 1000af00 f i NeuralNetwork.obj
 0001:00009f30       ??$destroy@PAUNeuron@@@?$_Wrap_alloc@V?$allocator@PAUNeuron@@@std@@@std@@QAEXPAPAUNeuron@@@Z 1000af30 f i NeuralNetwork.obj
 0001:00009f60       ??$destroy@PAUNeuron@@@?$allocator@PAUNeuron@@@std@@QAEXPAPAUNeuron@@@Z 1000af60 f i NeuralNetwork.obj
 0001:00009f80       ??$destroy@PAUNeuron@@@?$allocator_traits@V?$allocator@PAUNeuron@@@std@@@std@@SAXAAV?$allocator@PAUNeuron@@@1@PAPAUNeuron@@@Z 1000af80 f i NeuralNetwork.obj
 0001:00009fa0       ??$destroy@VNeuralLayer@@@?$_Wrap_alloc@V?$allocator@VNeuralLayer@@@std@@@std@@QAEXPAVNeuralLayer@@@Z 1000afa0 f i NeuralNetwork.obj
 0001:00009fd0       ??$destroy@VNeuralLayer@@@?$allocator@VNeuralLayer@@@std@@QAEXPAVNeuralLayer@@@Z 1000afd0 f i NeuralNetwork.obj
 0001:0000a010       ??$destroy@VNeuralLayer@@@?$allocator_traits@V?$allocator@VNeuralLayer@@@std@@@std@@SAXAAV?$allocator@VNeuralLayer@@@1@PAVNeuralLayer@@@Z 1000b010 f i NeuralNetwork.obj
 0001:0000a030       ??$forward@AAVNeuralLayer@@@std@@YAAAVNeuralLayer@@AAV1@@Z 1000b030 f i NeuralNetwork.obj
 0001:0000a040       ??$forward@ABVNeuralLayer@@@std@@YAABVNeuralLayer@@ABV1@@Z 1000b040 f i NeuralNetwork.obj
 0001:0000a050       ??$forward@VNeuralLayer@@@std@@YA$$QAVNeuralLayer@@AAV1@@Z 1000b050 f i NeuralNetwork.obj
 0001:0000a060       ??0?$_Iterator012@Urandom_access_iterator_tag@std@@PAUNeuron@@HPBQAU3@ABQAU3@U_Iterator_base12@2@@std@@QAE@ABU01@@Z 1000b060 f i NeuralNetwork.obj
 0001:0000a090       ??0?$_Iterator012@Urandom_access_iterator_tag@std@@PAUNeuron@@HPBQAU3@ABQAU3@U_Iterator_base12@2@@std@@QAE@XZ 1000b090 f i NeuralNetwork.obj
 0001:0000a0c0       ??0?$_Vector_alloc@$0A@U?$_Vec_base_types@VNeuralLayer@@V?$allocator@VNeuralLayer@@@std@@@std@@@std@@QAE@ABV?$allocator@VNeuralLayer@@@1@@Z 1000b0c0 f i NeuralNetwork.obj
 0001:0000a130       ??0?$_Vector_const_iterator@V?$_Vector_val@U?$_Simple_types@PAUNeuron@@@std@@@std@@@std@@QAE@ABV01@@Z 1000b130 f i NeuralNetwork.obj
 0001:0000a170       ??0?$_Vector_const_iterator@V?$_Vector_val@U?$_Simple_types@PAUNeuron@@@std@@@std@@@std@@QAE@PAPAUNeuron@@PBU_Container_base12@1@@Z 1000b170 f i NeuralNetwork.obj
 0001:0000a1f0       ??0?$_Vector_val@U?$_Simple_types@VNeuralLayer@@@std@@@std@@QAE@XZ 1000b1f0 f i NeuralNetwork.obj
 0001:0000a240       ??0?$_Wrap_alloc@V?$allocator@PAUNeuron@@@std@@@std@@QAE@ABV?$allocator@PAUNeuron@@@1@@Z 1000b240 f i NeuralNetwork.obj
 0001:0000a270       ??0?$_Wrap_alloc@V?$allocator@VNeuralLayer@@@std@@@std@@QAE@XZ 1000b270 f i NeuralNetwork.obj
 0001:0000a2a0       ??0?$allocator@D@std@@QAE@ABV01@@Z 1000b2a0 f i NeuralNetwork.obj
 0001:0000a2c0       ??0?$allocator@PAUNeuron@@@std@@QAE@ABV01@@Z 1000b2c0 f i NeuralNetwork.obj
 0001:0000a2e0       ??0?$allocator@VNeuralLayer@@@std@@QAE@XZ 1000b2e0 f i NeuralNetwork.obj
 0001:0000a300       ??0?$basic_string@DU?$char_traits@D@std@@V?$allocator@D@2@@std@@QAE@XZ 1000b300 f i NeuralNetwork.obj
 0001:0000a380       ??0?$vector@PAUNeuron@@V?$allocator@PAUNeuron@@@std@@@std@@QAE@ABV01@@Z 1000b380 f i NeuralNetwork.obj
 0001:0000a4a0       ??0?$vector@VNeuralLayer@@V?$allocator@VNeuralLayer@@@std@@@std@@QAE@XZ 1000b4a0 f i NeuralNetwork.obj
 0001:0000a4e0       ??0NeuralLayer@@QAE@ABV0@@Z 1000b4e0 f i NeuralNetwork.obj
 0001:0000a540       ??0_Iterator_base12@std@@QAE@ABU01@@Z 1000b540 f i NeuralNetwork.obj
 0001:0000a580       ??0_Iterator_base12@std@@QAE@XZ 1000b580 f i NeuralNetwork.obj
 0001:0000a5b0       ??1?$_Iterator012@Urandom_access_iterator_tag@std@@PAUNeuron@@HPBQAU3@ABQAU3@U_Iterator_base12@2@@std@@QAE@XZ 1000b5b0 f i NeuralNetwork.obj
 0001:0000a5e0       ??1?$_Vector_alloc@$0A@U?$_Vec_base_types@VNeuralLayer@@V?$allocator@VNeuralLayer@@@std@@@std@@@std@@QAE@XZ 1000b5e0 f i NeuralNetwork.obj
 0001:0000a610       ??1?$_Vector_const_iterator@V?$_Vector_val@U?$_Simple_types@PAUNeuron@@@std@@@std@@@std@@QAE@XZ 1000b610 f i NeuralNetwork.obj
 0001:0000a640       ??1?$_Vector_val@U?$_Simple_types@VNeuralLayer@@@std@@@std@@QAE@XZ 1000b640 f i NeuralNetwork.obj
 0001:0000a670       ??1?$basic_string@DU?$char_traits@D@std@@V?$allocator@D@2@@std@@QAE@XZ 1000b670 f i NeuralNetwork.obj
 0001:0000a6a0       ??1?$vector@VNeuralLayer@@V?$allocator@VNeuralLayer@@@std@@@std@@QAE@XZ 1000b6a0 f i NeuralNetwork.obj
 0001:0000a6d0       ??1_Iterator_base12@std@@QAE@XZ 1000b6d0 f i NeuralNetwork.obj
 0001:0000a740       ??4?$basic_string@DU?$char_traits@D@std@@V?$allocator@D@2@@std@@QAEAAV01@ABV01@@Z 1000b740 f i NeuralNetwork.obj
 0001:0000a7d0       ??4_Iterator_base12@std@@QAEAAU01@ABU01@@Z 1000b7d0 f i NeuralNetwork.obj
 0001:0000a8b0       ??8?$_Vector_const_iterator@V?$_Vector_val@U?$_Simple_types@PAUNeuron@@@std@@@std@@@std@@QBE_NABV01@@Z 1000b8b0 f i NeuralNetwork.obj
 0001:0000a910       ??9?$_Vector_const_iterator@V?$_Vector_val@U?$_Simple_types@PAUNeuron@@@std@@@std@@@std@@QBE_NABV01@@Z 1000b910 f i NeuralNetwork.obj
 0001:0000a960       ??A?$vector@VNeuralLayer@@V?$allocator@VNeuralLayer@@@std@@@std@@QAEAAVNeuralLayer@@I@Z 1000b960 f i NeuralNetwork.obj
 0001:0000aa00       ??D?$_Vector_const_iterator@V?$_Vector_val@U?$_Simple_types@PAUNeuron@@@std@@@std@@@std@@QBEABQAUNeuron@@XZ 1000ba00 f i NeuralNetwork.obj
 0001:0000aac0       ??E?$_Vector_const_iterator@V?$_Vector_val@U?$_Simple_types@PAUNeuron@@@std@@@std@@@std@@QAEAAV01@XZ 1000bac0 f i NeuralNetwork.obj
 0001:0000ab80       ??M?$_Vector_const_iterator@V?$_Vector_val@U?$_Simple_types@PAUNeuron@@@std@@@std@@@std@@QBE_NABV01@@Z 1000bb80 f i NeuralNetwork.obj
 0001:0000abe0       ??_GNeuralNetwork@@UAEPAXI@Z 1000bbe0 f i NeuralNetwork.obj
 0001:0000abe0       ??_ENeuralNetwork@@UAEPAXI@Z 1000bbe0 f i NeuralNetwork.obj
 0001:0000ac20       ?_Adopt@_Iterator_base12@std@@QAEXPBU_Container_base12@2@@Z 1000bc20 f i NeuralNetwork.obj
 0001:0000ad50       ?_Alloc_proxy@?$_Vector_alloc@$0A@U?$_Vec_base_types@VNeuralLayer@@V?$allocator@VNeuralLayer@@@std@@@std@@@std@@QAEXXZ 1000bd50 f i NeuralNetwork.obj
 0001:0000adf0       ?_Buy@?$vector@PAUNeuron@@V?$allocator@PAUNeuron@@@std@@@std@@IAE_NI@Z 1000bdf0 f i NeuralNetwork.obj
 0001:0000aea0       ?_Change_alloc@?$_String_alloc@$0A@U?$_String_base_types@DV?$allocator@D@std@@@std@@@std@@QAEXABU?$_Wrap_alloc@V?$allocator@D@std@@@2@@Z 1000bea0 f i NeuralNetwork.obj
 0001:0000aec0       ?_Compat@?$_Vector_const_iterator@V?$_Vector_val@U?$_Simple_types@PAUNeuron@@@std@@@std@@@std@@QBEXABV12@@Z 1000bec0 f i NeuralNetwork.obj
 0001:0000af70       ?_Destroy@?$vector@VNeuralLayer@@V?$allocator@VNeuralLayer@@@std@@@std@@IAEXPAVNeuralLayer@@0@Z 1000bf70 f i NeuralNetwork.obj
 0001:0000aff0       ?_Free_proxy@?$_Vector_alloc@$0A@U?$_Vec_base_types@VNeuralLayer@@V?$allocator@VNeuralLayer@@@std@@@std@@@std@@QAEXXZ 1000bff0 f i NeuralNetwork.obj
 0001:0000b080       ?_Getal@?$_Vector_alloc@$0A@U?$_Vec_base_types@VNeuralLayer@@V?$allocator@VNeuralLayer@@@std@@@std@@@std@@QBE?AU?$_Wrap_alloc@V?$allocator@VNeuralLayer@@@std@@@2@XZ 1000c080 f i NeuralNetwork.obj
 0001:0000b0b0       ?_Getcont@_Iterator_base12@std@@QBEPBU_Container_base12@2@XZ 1000c0b0 f i NeuralNetwork.obj
 0001:0000b0f0       ?_Grow_to@?$vector@VNeuralLayer@@V?$allocator@VNeuralLayer@@@std@@@std@@IBEII@Z 1000c0f0 f i NeuralNetwork.obj
 0001:0000b170       ?_Inside@?$vector@VNeuralLayer@@V?$allocator@VNeuralLayer@@@std@@@std@@IBE_NPBVNeuralLayer@@@Z 1000c170 f i NeuralNetwork.obj
 0001:0000b1c0       ?_Orphan_me@_Iterator_base12@std@@QAEXXZ 1000c1c0 f i NeuralNetwork.obj
 0001:0000b250       ?_Orphan_range@?$vector@VNeuralLayer@@V?$allocator@VNeuralLayer@@@std@@@std@@IBEXPAVNeuralLayer@@0@Z 1000c250 f i NeuralNetwork.obj
 0001:0000b360       ?_Reallocate@?$vector@VNeuralLayer@@V?$allocator@VNeuralLayer@@@std@@@std@@IAEXI@Z 1000c360 f i NeuralNetwork.obj
 0001:0000b4c0       ?_Reserve@?$vector@VNeuralLayer@@V?$allocator@VNeuralLayer@@@std@@@std@@IAEXI@Z 1000c4c0 f i NeuralNetwork.obj
 0001:0000b530       ?_Tidy@?$vector@VNeuralLayer@@V?$allocator@VNeuralLayer@@@std@@@std@@IAEXXZ 1000c530 f i NeuralNetwork.obj
 0001:0000b5d0       ?_Unused_capacity@?$vector@VNeuralLayer@@V?$allocator@VNeuralLayer@@@std@@@std@@QBEIXZ 1000c5d0 f i NeuralNetwork.obj
 0001:0000b600       ?_Xlen@?$vector@VNeuralLayer@@V?$allocator@VNeuralLayer@@@std@@@std@@IBEXXZ 1000c600 f i NeuralNetwork.obj
 0001:0000b630       ?allocate@?$_Wrap_alloc@V?$allocator@VNeuralLayer@@@std@@@std@@QAEPAVNeuralLayer@@I@Z 1000c630 f i NeuralNetwork.obj
 0001:0000b660       ?allocate@?$allocator@VNeuralLayer@@@std@@QAEPAVNeuralLayer@@I@Z 1000c660 f i NeuralNetwork.obj
 0001:0000b690       ?assign@?$basic_string@DU?$char_traits@D@std@@V?$allocator@D@2@@std@@QAEAAV12@ABV12@@Z 1000c690 f i NeuralNetwork.obj
 0001:0000b6d0       ?begin@?$vector@PAUNeuron@@V?$allocator@PAUNeuron@@@std@@@std@@QBE?AV?$_Vector_const_iterator@V?$_Vector_val@U?$_Simple_types@PAUNeuron@@@std@@@std@@@2@XZ 1000c6d0 f i NeuralNetwork.obj
 0001:0000b710       ?c_str@?$basic_string@DU?$char_traits@D@std@@V?$allocator@D@2@@std@@QBEPBDXZ 1000c710 f i NeuralNetwork.obj
 0001:0000b740       ?capacity@?$vector@VNeuralLayer@@V?$allocator@VNeuralLayer@@@std@@@std@@QBEIXZ 1000c740 f i NeuralNetwork.obj
 0001:0000b770       ?clear@?$vector@VNeuralLayer@@V?$allocator@VNeuralLayer@@@std@@@std@@QAEXXZ 1000c770 f i NeuralNetwork.obj
 0001:0000b7c0       ?construct@?$allocator@VNeuralLayer@@@std@@QAEXPAVNeuralLayer@@ABV3@@Z 1000c7c0 f i NeuralNetwork.obj
 0001:0000b860       ?deallocate@?$_Wrap_alloc@V?$allocator@VNeuralLayer@@@std@@@std@@QAEXPAVNeuralLayer@@I@Z 1000c860 f i NeuralNetwork.obj
 0001:0000b890       ?deallocate@?$allocator@VNeuralLayer@@@std@@QAEXPAVNeuralLayer@@I@Z 1000c890 f i NeuralNetwork.obj
 0001:0000b8c0       ?end@?$vector@PAUNeuron@@V?$allocator@PAUNeuron@@@std@@@std@@QBE?AV?$_Vector_const_iterator@V?$_Vector_val@U?$_Simple_types@PAUNeuron@@@std@@@std@@@2@XZ 1000c8c0 f i NeuralNetwork.obj
 0001:0000b900       ?max_size@?$_Wrap_alloc@V?$allocator@VNeuralLayer@@@std@@@std@@QBEIXZ 1000c900 f i NeuralNetwork.obj
 0001:0000b930       ?max_size@?$allocator@VNeuralLayer@@@std@@QBEIXZ 1000c930 f i NeuralNetwork.obj
 0001:0000b950       ?max_size@?$allocator_traits@V?$allocator@VNeuralLayer@@@std@@@std@@SAIABV?$allocator@VNeuralLayer@@@2@@Z 1000c950 f i NeuralNetwork.obj
 0001:0000b970       ?max_size@?$vector@VNeuralLayer@@V?$allocator@VNeuralLayer@@@std@@@std@@QBEIXZ 1000c970 f i NeuralNetwork.obj
 0001:0000b9b0       ?push_back@?$vector@VNeuralLayer@@V?$allocator@VNeuralLayer@@@std@@@std@@QAEXABVNeuralLayer@@@Z 1000c9b0 f i NeuralNetwork.obj
 0001:0000bae0       ?select_on_container_copy_construction@?$_Wrap_alloc@V?$allocator@PAUNeuron@@@std@@@std@@QBE?AU12@XZ 1000cae0 f i NeuralNetwork.obj
 0001:0000bb30       ?select_on_container_copy_construction@?$allocator@PAUNeuron@@@std@@QBE?AV12@XZ 1000cb30 f i NeuralNetwork.obj
 0001:0000bb60       ?select_on_container_copy_construction@?$allocator_traits@V?$allocator@PAUNeuron@@@std@@@std@@SA?AV?$allocator@PAUNeuron@@@2@ABV32@@Z 1000cb60 f i NeuralNetwork.obj
 0001:0000bb80       ?size@?$vector@VNeuralLayer@@V?$allocator@VNeuralLayer@@@std@@@std@@QBEIXZ 1000cb80 f i NeuralNetwork.obj
 0001:0000bbb0       ??0Pathfinder@@QAE@PAVTrackDesc@@PAUCarElt@@PAUSituation@@@Z 1000cbb0 f   pathfinder.obj
 0001:0000bde0       ??1Pathfinder@@QAE@XZ      1000cde0 f   pathfinder.obj
 0001:0000be80       ?plan@Pathfinder@@QAEXHPAUCarElt@@PAUSituation@@PAVMyCar@@PAVOtherCar@@@Z 1000ce80 f   pathfinder.obj
 0001:0000c9d0       ?plan@Pathfinder@@QAEXPAVMyCar@@@Z 1000d9d0 f   pathfinder.obj
 0001:0000cef0       ?initPit@Pathfinder@@QAEXPAUCarElt@@@Z 1000def0 f   pathfinder.obj
 0001:0000d3b0       ?plotPitStopPath@Pathfinder@@QAEXPAD@Z 1000e3b0 f   pathfinder.obj
 0001:0000d480       ?plotPath@Pathfinder@@QAEXPAD@Z 1000e480 f   pathfinder.obj
 0001:0000d550       ?initPitStopPath@Pathfinder@@AAEXXZ 1000e550 f   pathfinder.obj
 0001:0000dc50       ?collision@Pathfinder@@AAEHHPAUCarElt@@PAUSituation@@PAVMyCar@@PAVOtherCar@@@Z 1000ec50 f   pathfinder.obj
 0001:0000e190       ?overtake@Pathfinder@@AAEHHPAUSituation@@PAVMyCar@@PAVOtherCar@@@Z 1000f190 f   pathfinder.obj
 0001:0000f330       ?stepInterpolate@Pathfinder@@AAEXHHH@Z 10010330 f   pathfinder.obj
 0001:0000f5a0       ?interpolate@Pathfinder@@AAEXH@Z 100105a0 f   pathfinder.obj
 0001:0000f630       ?smooth@Pathfinder@@AAEXH@Z 10010630 f   pathfinder.obj
 0001:0000f950       ?correctPath@Pathfinder@@AAEHHPAUCarElt@@PAVMyCar@@@Z 10010950 f   pathfinder.obj
 0001:000102f0       ?smooth@Pathfinder@@AAEXHHHN@Z 100112f0 f   pathfinder.obj
 0001:00010490       ?smooth@Pathfinder@@AAEXHNN@Z 10011490 f   pathfinder.obj
 0001:00010bc0       ?optimize@Pathfinder@@AAEXHHN@Z 10011bc0 f   pathfinder.obj
 0001:00010c70       ?optimize2@Pathfinder@@AAEXHHN@Z 10011c70 f   pathfinder.obj
 0001:00010d50       ?optimize3@Pathfinder@@AAEXHHN@Z 10011d50 f   pathfinder.obj
 0001:00010e30       ?letoverlap@Pathfinder@@AAEHHPAUSituation@@PAVMyCar@@PAVOtherCar@@PAUtOverlapTimer@@@Z 10011e30 f   pathfinder.obj
 0001:00011660       ??0PathSeg@@QAE@XZ         10012660 f i pathfinder.obj
 0001:000116a0       ??0v3d@@QAE@ABV0@@Z        100126a0 f i pathfinder.obj
 0001:000116f0       ??4v3d@@QAEAAV0@ABV0@@Z    100126f0 f i pathfinder.obj
 0001:00011740       ??D@YA?AVv3d@@NABV0@@Z     10012740 f i pathfinder.obj
 0001:000117a0       ??Dv3d@@QAE?AV0@N@Z        100127a0 f i pathfinder.obj
 0001:00011810       ??Hv3d@@QAE?AV0@ABV0@@Z    10012810 f i pathfinder.obj
 0001:00011880       ??_H@YGXPAXIHP6EPAX0@Z@Z   10012880 f i pathfinder.obj
 0001:000118c0       ?adjustRadius@Pathfinder@@AAEXHHHNN@Z 100128c0 f i pathfinder.obj
 0001:00011f00       ?countSegments@Pathfinder@@AAEHHH@Z 10012f00 f i pathfinder.obj
 0001:00011f40       ?curvature@Pathfinder@@AAENNNNNNN@Z 10012f40 f i pathfinder.obj
 0001:00012080       ?diffSegId@TrackDesc@@QAEHHH@Z 10013080 f i pathfinder.obj
 0001:00012100       ?dirVector2D@TrackDesc@@SAXPAVv3d@@00@Z 10013100 f i pathfinder.obj
 0001:00012150       ?dirVector@v3d@@QAEXPBV1@PAV1@@Z 10013150 f i pathfinder.obj
 0001:000121b0       ?dist@Pathfinder@@QAENPAVv3d@@0@Z 100131b0 f i pathfinder.obj
 0001:00012280       ?distGFromPoint@TrackDesc@@QAENPAVv3d@@00@Z 10013280 f i pathfinder.obj
 0001:00012350       ?distToMiddle@TrackDesc@@QAENHPAVv3d@@@Z 10013350 f i pathfinder.obj
 0001:000123c0       ?getCurrentPos@AbstractCar@@QAEPAVv3d@@XZ 100133c0 f i pathfinder.obj
 0001:000123e0       ?getCurrentSegId@AbstractCar@@QAEHXZ 100133e0 f i pathfinder.obj
 0001:00012400       ?getDeltaPitch@MyCar@@QAENXZ 10013400 f i pathfinder.obj
 0001:00012420       ?getDir@AbstractCar@@QAEPAVv3d@@XZ 10013420 f i pathfinder.obj
 0001:00012440       ?getKalpha@TrackSegment@@QAEMXZ 10013440 f i pathfinder.obj
 0001:00012460       ?getKbeta@TrackSegment@@QAEMXZ 10013460 f i pathfinder.obj
 0001:00012480       ?getKfriction@TrackSegment@@QAEMXZ 10013480 f i pathfinder.obj
 0001:000124a0       ?getLeftBorder@TrackSegment@@QAEPAVv3d@@XZ 100134a0 f i pathfinder.obj
 0001:000124c0       ?getMiddle@TrackSegment@@QAEPAVv3d@@XZ 100134c0 f i pathfinder.obj
 0001:000124e0       ?getOptLoc@PathSeg@@QAEPAVv3d@@XZ 100134e0 f i pathfinder.obj
 0001:00012500       ?getPitLoc@PathSeg@@QAEPAVv3d@@XZ 10013500 f i pathfinder.obj
 0001:00012520       ?getPitSpeedSqrLimit@Pathfinder@@QAENXZ 10013520 f i pathfinder.obj
 0001:00012540       ?getRadius@TrackSegment@@QAEMXZ 10013540 f i pathfinder.obj
 0001:00012560       ?getRightBorder@TrackSegment@@QAEPAVv3d@@XZ 10013560 f i pathfinder.obj
 0001:00012580       ?getSpeed@AbstractCar@@QAENXZ 10013580 f i pathfinder.obj
 0001:000125a0       ?getSpeedSqr@AbstractCar@@QAENXZ 100135a0 f i pathfinder.obj
 0001:000125c0       ?getSpeedsqr@PathSeg@@QAEMXZ 100135c0 f i pathfinder.obj
 0001:000125e0       ?getTorcsTrack@TrackDesc@@QAEPAUtTrack@@XZ 100135e0 f i pathfinder.obj
 0001:00012600       ?getWidth@TrackSegment@@QAEMXZ 10013600 f i pathfinder.obj
 0001:00012620       ?isBetween@TrackDesc@@QAE_NHHH@Z 10013620 f i pathfinder.obj
 0001:00012690       ?isPitAvailable@Pathfinder@@QAE_NXZ 10013690 f i pathfinder.obj
 0001:000126b0       ?normalize@v3d@@QAEXXZ     100136b0 f i pathfinder.obj
 0001:00012730       ?pathSlope@Pathfinder@@AAENH@Z 10013730 f i pathfinder.obj
 0001:00012870       ?radius@@YANNNNNNN@Z       10013870 f i pathfinder.obj
 0001:000129c0       ?segmentsToPit@Pathfinder@@QAEHH@Z 100139c0 f i pathfinder.obj
 0001:00012a20       ?set@PathSeg@@QAEXMMPAVv3d@@@Z 10013a20 f i pathfinder.obj
 0001:00012a70       ?setLoc@PathSeg@@QAEXPAVv3d@@@Z 10013a70 f i pathfinder.obj
 0001:00012aa0       ?setOptLoc@PathSeg@@QAEXPAVv3d@@@Z 10013aa0 f i pathfinder.obj
 0001:00012ad0       ?setPitLoc@PathSeg@@QAEXPAVv3d@@@Z 10013ad0 f i pathfinder.obj
 0001:00012af0       ?setRadius@PathSeg@@QAEXM@Z 10013af0 f i pathfinder.obj
 0001:00012b20       ?setSpeedsqr@PathSeg@@QAEXM@Z 10013b20 f i pathfinder.obj
 0001:00012b40       ?setWeight@PathSeg@@QAEXM@Z 10013b40 f i pathfinder.obj
 0001:00012b70       ?sign@@YANN@Z              10013b70 f i pathfinder.obj
 0001:00012bc0       ?sqr@Pathfinder@@QAENN@Z   10013bc0 f i pathfinder.obj
 0001:00012c00       ?updateOCar@Pathfinder@@AAEHHPAUSituation@@PAVMyCar@@PAVOtherCar@@PAUtOCar@@@Z 10013c00 f i pathfinder.obj
 0001:00013290       ?updateOverlapTimer@Pathfinder@@AAEXHPAUSituation@@PAVMyCar@@PAVOtherCar@@PAUtOCar@@PAUtOverlapTimer@@@Z 10014290 f i pathfinder.obj
 0001:000134e0       ?setSingleSensor@SingleSensor@@QAEXMM@Z 100144e0 f   sensors.obj
 0001:00013530       ?update@SingleSensor@@QAEXXZ 10014530 f   sensors.obj
 0001:00013760       ?sensor_calc_str@SingleSensor@@IAEMPAUtrackSeg@@MMMM@Z 10014760 f   sensors.obj
 0001:00014420       ?sensor_calc_lft_rgt@SingleSensor@@IAEMPAUtrackSeg@@MMMM@Z 10015420 f   sensors.obj
 0001:000148d0       ?check_max_circle_intersect@SingleSensor@@IAE_NMMMMMMAAM@Z 100158d0 f   sensors.obj
 0001:00014df0       ?check_min_circle_intersect@SingleSensor@@IAE_NMMMMMMAAM@Z 10015df0 f   sensors.obj
 0001:000150b0       ?check_up_border_intersect@SingleSensor@@IAE_NMMMMMAAM00@Z 100160b0 f   sensors.obj
 0001:00015320       ?check_down_border_intersect@SingleSensor@@IAE_NMMMMMAAM00@Z 10016320 f   sensors.obj
 0001:000157e0       ??0Sensors@@QAE@XZ         100167e0 f   sensors.obj
 0001:00015800       ??0Sensors@@QAE@PAUCarElt@@H@Z 10016800 f   sensors.obj
 0001:000158a0       ??1Sensors@@QAE@XZ         100168a0 f   sensors.obj
 0001:000158e0       ?setSensor@Sensors@@QAEXHMM@Z 100168e0 f   sensors.obj
 0001:00015930       ?getSensorOut@Sensors@@QAEMH@Z 10016930 f   sensors.obj
 0001:00015960       ?sensors_update@Sensors@@QAEXXZ 10016960 f   sensors.obj
 0001:000159c0       ?acos@@YAMM@Z              100169c0 f i sensors.obj
 0001:000159e0       ?getSingleSensorOut@SingleSensor@@QAEMXZ 100169e0 f i sensors.obj
 0001:00015a00       ?init@SingleSensor@@QAEXPAUCarElt@@@Z 10016a00 f i sensors.obj
 0001:00015a20       ?tan@@YAMM@Z               10016a20 f i sensors.obj
 0001:00015a40       _acosf                     10016a40 f i sensors.obj
 0001:00015aa0       _tanf                      10016aa0 f i sensors.obj
 0001:00015b00       ?tridiagonal@@YAXHPAUSplineEquationData@@PAN@Z 10016b00 f   spline.obj
 0001:00015e60       ?tridiagonal2@@YAXHPAUSplineEquationData2@@@Z 10016e60 f   spline.obj
 0001:00016390       ?slopesp@@YAXHQBN0QAN@Z    10017390 f   spline.obj
 0001:000167e0       ?slopesn@@YAXHQBN0QAN@Z    100177e0 f   spline.obj
 0001:00016aa0       ?parametricslopesp@@YAXHQBN0QAN11@Z 10017aa0 f   spline.obj
 0001:00016bd0       ?parametricslopesn@@YAXHQBN0QAN11@Z 10017bd0 f   spline.obj
 0001:00016d00       ?spline@@YANHNQBN00@Z      10017d00 f   spline.obj
 0001:00018990       ?DllEntryPoint@@YGHPAUHINSTANCE__@@KPAX@Z 10019990 f   ANN_Bot_2.obj
 0001:00018cb0       _ANN_Bot_2                 10019cb0 f   ANN_Bot_2.obj
 0001:0001c1d0       ??_GMyCar@@QAEPAXI@Z       1001d1d0 f i ANN_Bot_2.obj
 0001:0001c210       ??_GSensors@@QAEPAXI@Z     1001d210 f i ANN_Bot_2.obj
 0001:0001c250       ??_GTrackDesc@@QAEPAXI@Z   1001d250 f i ANN_Bot_2.obj
 0001:0001c290       ?atan2@@YAMMM@Z            1001d290 f i ANN_Bot_2.obj
 0001:0001c2c0       ?pow@@YAMMM@Z              1001d2c0 f i ANN_Bot_2.obj
 0001:0001c2f0       ?strchr@@YAPADPADH@Z       1001d2f0 f i ANN_Bot_2.obj
 0001:0001c310       ?strrchr@@YAPADPADH@Z      1001d310 f i ANN_Bot_2.obj
 0001:0001c330       _atan2f                    1001d330 f i ANN_Bot_2.obj
 0001:0001c390       _powf                      1001d390 f i ANN_Bot_2.obj
 0001:0001c3f0       ?HmReadPrefs@@YAXH@Z       1001d3f0 f   pref.obj
 0001:0001d120       ??0TrackSegment@@QAE@XZ    1001e120 f   trackdesc.obj
 0001:0001d170       ??1TrackSegment@@QAE@XZ    1001e170 f   trackdesc.obj
 0001:0001d190       ?init@TrackSegment@@QAEXHPBUtrackSeg@@PBVv3d@@11@Z 1001e190 f   trackdesc.obj
 0001:0001d430       ??0TrackDesc@@QAE@PBUtTrack@@@Z 1001e430 f   trackdesc.obj
 0001:0001e3a0       ??1TrackDesc@@QAE@XZ       1001f3a0 f   trackdesc.obj
 0001:0001e400       ?plot@TrackDesc@@QAEXPAD@Z 1001f400 f   trackdesc.obj
 0001:0001e540       ?getCurrentSegment@TrackDesc@@QAEHPAUCarElt@@@Z 1001f540 f   trackdesc.obj
 0001:0001e620       ?getNearestId@TrackDesc@@QAEHPAVv3d@@@Z 1001f620 f   trackdesc.obj
 0001:0001e6d0       ??Kv3d@@QAE?AV0@N@Z        1001f6d0 f i trackdesc.obj
 0001:0001e740       ??_ETrackSegment@@QAEPAXI@Z 1001f740 f i trackdesc.obj
 0001:0001e7c0       ?distToLeft3D@TrackSegment@@QAENPAVv3d@@@Z 1001f7c0 f i trackdesc.obj
 0001:0001e890       ?distToMiddle2D@TrackSegment@@QAENNN@Z 1001f890 f i trackdesc.obj
 0001:0001e930       ?distToMiddle3D@TrackSegment@@QAENNNN@Z 1001f930 f i trackdesc.obj
 0001:0001e9f0       ?distToMiddle3D@TrackSegment@@QAENPAVv3d@@@Z 1001f9f0 f i trackdesc.obj
 0001:0001eac0       ?getRaceType@TrackSegment@@QAEIXZ 1001fac0 f i trackdesc.obj
 0001:0001eae0       ?setKbeta@TrackSegment@@QAEXN@Z 1001fae0 f i trackdesc.obj
 0001:0001eb10       ?setKgamma@TrackSegment@@QAEXN@Z 1001fb10 f i trackdesc.obj
 0001:0001eb40       ?setLength@TrackSegment@@QAEXN@Z 1001fb40 f i trackdesc.obj
 0001:0001eb64       ?GfScrGetSize@@YAXPAH000@Z 1001fb64 f   client:client.dll
 0001:0001eb6a       ?GfuiKeyEventRegisterCurrent@@YAXP6AHEHH@Z@Z 1001fb6a f   client:client.dll
 0001:0001eb70       ?GfuiSKeyEventRegisterCurrent@@YAXP6AHHHH@Z@Z 1001fb70 f   client:client.dll
 0001:0001eb76       ?GfuiMouseShow@@YAXXZ      1001fb76 f   client:client.dll
 0001:0001eb7c       ?GfctrlJoyInit@@YAPAUtCtrlJoyInfo@@XZ 1001fb7c f   client:client.dll
 0001:0001eb82       ?GfctrlJoyGetCurrent@@YAHPAUtCtrlJoyInfo@@@Z 1001fb82 f   client:client.dll
 0001:0001eb88       ?GfctrlJoyRelease@@YAXPAUtCtrlJoyInfo@@@Z 1001fb88 f   client:client.dll
 0001:0001eb8e       ?GfctrlMouseInit@@YAPAUtCtrlMouseInfo@@XZ 1001fb8e f   client:client.dll
 0001:0001eb94       ?GfctrlMouseGetCurrent@@YAHPAUtCtrlMouseInfo@@@Z 1001fb94 f   client:client.dll
 0001:0001eb9a       ?GfctrlMouseRelease@@YAXPAUtCtrlMouseInfo@@@Z 1001fb9a f   client:client.dll
 0001:0001eba0       ?GfctrlMouseCenter@@YAXXZ  1001fba0 f   client:client.dll
 0001:0001eba6       ?GfctrlMouseInitCenter@@YAXXZ 1001fba6 f   client:client.dll
 0001:0001ebac       ?GfctrlGetRefByName@@YAPAUtCtrlRef@@PBD@Z 1001fbac f   client:client.dll
 0001:0001ebb2       ?GfctrlGetNameByRef@@YAPBDHH@Z 1001fbb2 f   client:client.dll
 0001:0001ebb8       ?GfParmGetStr@@YAPBDPAXPBD11@Z 1001fbb8 f   tgf:tgf.dll
 0001:0001ebbe       ?GfParmGetNum@@YAMPAXPBD11M@Z 1001fbbe f   tgf:tgf.dll
 0001:0001ebc4       ?_tgf_win_calloc@@YAPAXII@Z 1001fbc4 f   tgf:tgf.dll
 0001:0001ebca       ?_tgf_win_free@@YAXPAX@Z   1001fbca f   tgf:tgf.dll
 0001:0001ebd0       ?_tgf_win_strdup@@YAPADPBD@Z 1001fbd0 f   tgf:tgf.dll
 0001:0001ebd6       ?GfParmReadFile@@YAPAXPBDH@Z 1001fbd6 f   tgf:tgf.dll
 0001:0001ebdc       ?GfParmWriteFile@@YAHPBDPAX0@Z 1001fbdc f   tgf:tgf.dll
 0001:0001ebe2       ?GfParmSetStr@@YAHPAXPBD11@Z 1001fbe2 f   tgf:tgf.dll
 0001:0001ebe8       ?GfParmSetNum@@YAHPAXPBD11M@Z 1001fbe8 f   tgf:tgf.dll
 0001:0001ebee       ?GfParmReleaseHandle@@YAXPAX@Z 1001fbee f   tgf:tgf.dll
 0001:0001ebf4       ?GetLocalDir@@YAPADXZ      1001fbf4 f   tgf:tgf.dll
 0001:0001ebfa       ?RtTrackSideTgAngleL@@YAMPAUtTrkLocPos@@@Z 1001fbfa f   robottools:robottools.dll
 0001:0001ec00       ?RtGetDistFromStart@@YAMPAUCarElt@@@Z 1001fc00 f   robottools:robottools.dll
 0001:0001ec10       ?sgdSqrt@@YANN@Z           1001fc10 f i sg_vs2008_32:sgd.obj
 0001:0001ec20       ?sgdSquare@@YANN@Z         1001fc20 f i sg_vs2008_32:sgd.obj
 0001:0001ec30       ?sgdAbs@@YANN@Z            1001fc30 f i sg_vs2008_32:sgd.obj
 0001:0001ec50       ?sgdASin@@YANN@Z           1001fc50 f i sg_vs2008_32:sgd.obj
 0001:0001ec60       ?sgdACos@@YANN@Z           1001fc60 f i sg_vs2008_32:sgd.obj
 0001:0001ec70       ?sgdATan2@@YANNN@Z         1001fc70 f i sg_vs2008_32:sgd.obj
 0001:0001ec90       ?sgdSin@@YANN@Z            1001fc90 f i sg_vs2008_32:sgd.obj
 0001:0001eca0       ?sgdCos@@YANN@Z            1001fca0 f i sg_vs2008_32:sgd.obj
 0001:0001ecb0       ?sgdZeroVec3@@YAXQAN@Z     1001fcb0 f i sg_vs2008_32:sgd.obj
 0001:0001ecc0       ?sgdSetVec3@@YAXQANNNN@Z   1001fcc0 f i sg_vs2008_32:sgd.obj
 0001:0001ece0       ?sgdSetVec4@@YAXQANNNNN@Z  1001fce0 f i sg_vs2008_32:sgd.obj
 0001:0001ed00       ?sgdCopyVec3@@YAXQANQBN@Z  1001fd00 f i sg_vs2008_32:sgd.obj
 0001:0001ed20       ?sgdCopyVec4@@YAXQANQBN@Z  1001fd20 f i sg_vs2008_32:sgd.obj
 0001:0001ed40       ?sgdAddVec3@@YAXQANQBN1@Z  1001fd40 f i sg_vs2008_32:sgd.obj
 0001:0001ed70       ?sgdSubVec2@@YAXQANQBN1@Z  1001fd70 f i sg_vs2008_32:sgd.obj
 0001:0001ed90       ?sgdSubVec3@@YAXQANQBN1@Z  1001fd90 f i sg_vs2008_32:sgd.obj
 0001:0001edc0       ?sgdNegateVec3@@YAXQAN@Z   1001fdc0 f i sg_vs2008_32:sgd.obj
 0001:0001ede0       ?sgdScaleVec2@@YAXQANN@Z   1001fde0 f i sg_vs2008_32:sgd.obj
 0001:0001ee00       ?sgdScaleVec3@@YAXQANN@Z   1001fe00 f i sg_vs2008_32:sgd.obj
 0001:0001ee20       ?sgdScaleVec3@@YAXQANQBNN@Z 1001fe20 f i sg_vs2008_32:sgd.obj
 0001:0001ee50       ?sgdScaleVec4@@YAXQANQBNN@Z 1001fe50 f i sg_vs2008_32:sgd.obj
 0001:0001ee80       ?sgdAddScaledVec3@@YAXQANQBN1N@Z 1001fe80 f i sg_vs2008_32:sgd.obj
 0001:0001eeb0       ?sgdScalarProductVec2@@YANQBN0@Z 1001feb0 f i sg_vs2008_32:sgd.obj
 0001:0001eed0       ?sgdScalarProductVec3@@YANQBN0@Z 1001fed0 f i sg_vs2008_32:sgd.obj
 0001:0001eef0       ?sgdScalarProductVec4@@YANQBN0@Z 1001fef0 f i sg_vs2008_32:sgd.obj
 0001:0001ef20       ?sgdDistanceSquaredVec3@@YANQBN0@Z 1001ff20 f i sg_vs2008_32:sgd.obj
 0001:0001ef50       ?sgdDistanceVec3@@YANQBN0@Z 1001ff50 f i sg_vs2008_32:sgd.obj
 0001:0001ef80       ?sgdLengthVec2@@YANQBN@Z   1001ff80 f i sg_vs2008_32:sgd.obj
 0001:0001efa0       ?sgdLengthVec3@@YANQBN@Z   1001ffa0 f i sg_vs2008_32:sgd.obj
 0001:0001efd0       ?sgdNormaliseVec2@@YAXQAN@Z 1001ffd0 f i sg_vs2008_32:sgd.obj
 0001:0001f000       ?sgdNormaliseVec3@@YAXQAN@Z 10020000 f i sg_vs2008_32:sgd.obj
 0001:0001f040       ?sgdNormaliseVec3@@YAXQANQBN@Z 10020040 f i sg_vs2008_32:sgd.obj
 0001:0001f080       ?sgdCopyMat4@@YAXQAY03NQAY03$$CBN@Z 10020080 f i sg_vs2008_32:sgd.obj
 0001:0001f0f0       ?sgdScaleMat4@@YAXQAY03NQAY03$$CBNN@Z 100200f0 f i sg_vs2008_32:sgd.obj
 0001:0001f180       ?sgdMakeIdentMat4@@YAXQAY03N@Z 10020180 f i sg_vs2008_32:sgd.obj
 0001:0001f1c0       ?sgdLineSegment3ToLine3@@YAXPAUsgdLine3@@UsgdLineSegment3@@@Z 100201c0 f i sg_vs2008_32:sgd.obj
 0001:0001f230       ?sgdAngleBetweenNormalizedVec3@@YANQAN0@Z 10020230 f i sg_vs2008_32:sgd.obj
 0001:0001f2a0       ?getCenter@sgdSphere@@QBEPBNXZ 100202a0 f i sg_vs2008_32:sgd.obj
 0001:0001f2b0       ?getRadius@sgdSphere@@QBENXZ 100202b0 f i sg_vs2008_32:sgd.obj
 0001:0001f2c0       ?isEmpty@sgdSphere@@QBEHXZ 100202c0 f i sg_vs2008_32:sgd.obj
 0001:0001f2e0       ?getMin@sgdBox@@QBEPBNXZ   100202e0 f i sg_vs2008_32:sgd.obj
 0001:0001f2f0       ?getMax@sgdBox@@QBEPBNXZ   100202f0 f i sg_vs2008_32:sgd.obj
 0001:0001f300       ?isEmpty@sgdBox@@QBEHXZ    10020300 f i sg_vs2008_32:sgd.obj
 0001:0001f330       ?sgdVectorProductVec3@@YAXQANQBN1@Z 10020330 f   sg_vs2008_32:sgd.obj
 0001:0001f370       ?_sgdClampToUnity@@YANN@Z  10020370 f i sg_vs2008_32:sgd.obj
 0001:0001f3a0       ?sgdCompare3DSqdDist@@YAHQBN0N@Z 100203a0 f   sg_vs2008_32:sgd.obj
 0001:0001f400       ?sgdMakeRotMat4@@YAXQAY03NNQBN@Z 10020400 f   sg_vs2008_32:sgd.obj
 0001:0001f530       ?sgdMakePickMatrix@@YAXQAY03NNNNNQAN@Z 10020530 f   sg_vs2008_32:sgd.obj
 0001:0001f5b0       ?sgdMakeLookAtMat4@@YAXQAY03NQBN11@Z 100205b0 f   sg_vs2008_32:sgd.obj
 0001:0001f730       ?sgdAngleBetweenVec3@@YANQAN0@Z 10020730 f   sg_vs2008_32:sgd.obj
 0001:0001f7d0       ?sgdAngleBetweenNormalizedVec3@@YANQAN00@Z 100207d0 f   sg_vs2008_32:sgd.obj
 0001:0001f960       ?sgdAngleBetweenVec3@@YANQAN00@Z 10020960 f   sg_vs2008_32:sgd.obj
 0001:0001fa00       ?extend@sgdBox@@QAEXQBN@Z  10020a00 f   sg_vs2008_32:sgd.obj
 0001:0001fad0       ?extend@sgdBox@@QAEXPBV1@@Z 10020ad0 f   sg_vs2008_32:sgd.obj
 0001:0001fb60       ?extend@sgdBox@@QAEXPBVsgdSphere@@@Z 10020b60 f   sg_vs2008_32:sgd.obj
 0001:0001fbd0       ?intersects@sgdBox@@QBEHQBN@Z 10020bd0 f   sg_vs2008_32:sgd.obj
 0001:0001fd10       ?extend@sgdSphere@@QAEXQBN@Z 10020d10 f   sg_vs2008_32:sgd.obj
 0001:0001fdc0       ?extend@sgdSphere@@QAEXPBVsgdBox@@@Z 10020dc0 f   sg_vs2008_32:sgd.obj
 0001:0001ff50       ?extend@sgdSphere@@QAEXPBV1@@Z 10020f50 f   sg_vs2008_32:sgd.obj
 0001:00020020       ?intersects@sgdSphere@@QBEHPBVsgdBox@@@Z 10021020 f   sg_vs2008_32:sgd.obj
 0001:000200d0       ?update@sgdFrustum@@AAEXXZ 100210d0 f   sg_vs2008_32:sgd.obj
 0001:000204d0       ?contains@sgdFrustum@@QBEHPBVsgdSphere@@@Z 100214d0 f   sg_vs2008_32:sgd.obj
 0001:00020640       ?sgdDistSquaredToLineVec3@@YANUsgdLine3@@QBN@Z 10021640 f   sg_vs2008_32:sgd.obj
 0001:00020680       ?sgdDistSquaredToLineSegmentVec3@@YANUsgdLineSegment3@@QBN@Z 10021680 f   sg_vs2008_32:sgd.obj
 0001:00020790       ?sgdMakeCoordMat4@@YAXQAY03NNNNNNN@Z 10021790 f   sg_vs2008_32:sgd.obj
 0001:00020950       ?sgdMakeTransMat4@@YAXQAY03NQBN@Z 10021950 f   sg_vs2008_32:sgd.obj
 0001:000209a0       ?sgdMakeTransMat4@@YAXQAY03NNNN@Z 100219a0 f   sg_vs2008_32:sgd.obj
 0001:000209f0       ?sgdSetCoord@@YAXPAUsgdCoord@@QAY03$$CBN@Z 100219f0 f   sg_vs2008_32:sgd.obj
 0001:00020cf0       ?sgdMakeNormal@@YAXQANQBN1@Z 10021cf0 f   sg_vs2008_32:sgd.obj
 0001:00020d40       ?sgdMakeNormal@@YAXQANQBN11@Z 10021d40 f   sg_vs2008_32:sgd.obj
 0001:00020de0       ?sgdMultMat4@@YAXQAY03NQAY03$$CBN1@Z 10021de0 f   sg_vs2008_32:sgd.obj
 0001:00020e90       ?sgdTransposeNegateMat4@@YAXQAY03NQAY03$$CBN@Z 10021e90 f   sg_vs2008_32:sgd.obj
 0001:00020f30       ?sgdTransposeNegateMat4@@YAXQAY03N@Z 10021f30 f   sg_vs2008_32:sgd.obj
 0001:00020f60       ?sgdInvertMat4@@YAXQAY03NQAY03$$CBN@Z 10021f60 f   sg_vs2008_32:sgd.obj
 0001:00021180       ?sgdXformVec3@@YAXQANQBNQAY03$$CBN@Z 10022180 f   sg_vs2008_32:sgd.obj
 0001:000211e0       ?sgdXformPnt3@@YAXQANQBNQAY03$$CBN@Z 100221e0 f   sg_vs2008_32:sgd.obj
 0001:00021240       ?sgdXformPnt4@@YAXQANQBNQAY03$$CBN@Z 10022240 f   sg_vs2008_32:sgd.obj
 0001:000212d0       ?sgdFullXformPnt3@@YAXQANQBNQAY03$$CBN@Z 100222d0 f   sg_vs2008_32:sgd.obj
 0001:00021330       ?sgdHPRfromVec3@@YAXQAN0@Z 10022330 f   sg_vs2008_32:sgd.obj
 0001:000213d0       ?sgdQuatToAngleAxis@@YAXPANQANQBN@Z 100223d0 f   sg_vs2008_32:sgd.obj
 0001:00021450       ?sgdAngleAxisToQuat@@YAXQANNQBN@Z 10022450 f   sg_vs2008_32:sgd.obj
 0001:000214f0       ?sgdMatrixToQuat@@YAXQANQAY03$$CBN@Z 100224f0 f   sg_vs2008_32:sgd.obj
 0001:00021650       ?sgdMultQuat@@YAXQANQBN1@Z 10022650 f   sg_vs2008_32:sgd.obj
 0001:00021720       ?sgdMultQuat2@@YAXQANQBN1@Z 10022720 f   sg_vs2008_32:sgd.obj
 0001:000217f0       ?sgdEulerToQuat@@YAXQANQBN@Z 100227f0 f   sg_vs2008_32:sgd.obj
 0001:000218e0       ?sgdQuatToEuler@@YAXQANQBN@Z 100228e0 f   sg_vs2008_32:sgd.obj
 0001:00021a40       ?sgdQuatToMatrix@@YAXQAY03NQBN@Z 10022a40 f   sg_vs2008_32:sgd.obj
 0001:00021b10       ?sgdMakeRotMat42@@YAXQAY03NQAN@Z 10022b10 f   sg_vs2008_32:sgd.obj
 0001:00021be0       ?sgdSlerpQuat2@@YAXQANQBN1N@Z 10022be0 f   sg_vs2008_32:sgd.obj
 0001:00021d00       ?sgdSlerpQuat@@YAXQANQBN1N@Z 10022d00 f   sg_vs2008_32:sgd.obj
 0001:00021df0       ?sgdRotateVecQuat@@YAXQAN0@Z 10022df0 f   sg_vs2008_32:sgd.obj
 0001:00021ee0       ?sgdRotateCoordQuat@@YAXQAN0@Z 10022ee0 f   sg_vs2008_32:sgd.obj
 0001:00021fd0       ?sgdDistSquaredToLineLineSegment@@YANUsgdLineSegment3@@UsgdLine3@@@Z 10022fd0 f   sg_vs2008_32:sgd.obj
 0001:000221e0       ?sgdReflectInPlaneVec3@@YAXQANQBN1@Z 100231e0 f   sg_vs2008_32:sgd.obj
 0001:00022230       ?sgdClassifyMat4@@YAHQAY03$$CBN@Z 10023230 f   sg_vs2008_32:sgd.obj
 0001:000224f0       ?sgdTriangleSolver_SAStoArea@@YANNNN@Z 100234f0 f   sg_vs2008_32:sgd.obj
 0001:00022510       ?sgdTriangleSolver_SSStoArea@@YANNNN@Z 10023510 f   sg_vs2008_32:sgd.obj
 0001:00022560       ?sgdTriangleSolver_SSStoAAA@@YAXNNNPAN00@Z 10023560 f   sg_vs2008_32:sgd.obj
 0001:00022700       ?sgdTriangleSolver_SAStoASA@@YAXNNNPAN00@Z 10023700 f   sg_vs2008_32:sgd.obj
 0001:00022780       ?sgdTriangleSolver_ASAtoSAS@@YAXNNNPAN00@Z 10023780 f   sg_vs2008_32:sgd.obj
 0001:00022830       ?sgdTriangleSolver_ASStoSAA@@YAXNNNHPAN00@Z 10023830 f   sg_vs2008_32:sgd.obj
 0001:000228c0       ?sgdTriangleSolver_SAAtoASS@@YAXNNNPAN00@Z 100238c0 f   sg_vs2008_32:sgd.obj
 0001:00022910       ?sgdTriArea@@YANQAN00@Z    10023910 f   sg_vs2008_32:sgd.obj
 0001:000229f0       ?getOutcode@sgdFrustum@@ABEHQBN@Z 100239f0 f   sg_vs2008_32:sgd.obj
 0001:00022ad0       ?contains@sgdFrustum@@QBEHQBN@Z 10023ad0 f   sg_vs2008_32:sgd.obj
 0001:00022af0       ?contains@sgdFrustum@@QBEHPBVsgdBox@@@Z 10023af0 f   sg_vs2008_32:sgd.obj
 0001:00022c10       ?sgdPreMultMat4@@YAXQAY03NQAY03$$CBN@Z 10023c10 f   sg_vs2008_32:sgd.obj
 0001:00022c50       ?sgdPostMultMat4@@YAXQAY03NQAY03$$CBN@Z 10023c50 f   sg_vs2008_32:sgd.obj
 0001:00022c90       ?sgdQuatToAngleAxis@@YAXPAN000QBN@Z 10023c90 f   sg_vs2008_32:sgd.obj
 0001:00022cd0       ?sgdAngleAxisToQuat@@YAXQANNNNN@Z 10023cd0 f   sg_vs2008_32:sgd.obj
 0001:00022d10       ?sgdTriangleSolver_ASAtoArea@@YANNNN@Z 10023d10 f   sg_vs2008_32:sgd.obj
 0001:00022d80       ?sgdTriangleSolver_ASStoArea@@YANNNNH@Z 10023d80 f   sg_vs2008_32:sgd.obj
 0001:00022de0       ?sgdTriangleSolver_SAAtoArea@@YANNNN@Z 10023de0 f   sg_vs2008_32:sgd.obj
 0001:00022e40       ?ulSetError@@YAXW4ulSeverity@@PBDZZ 10023e40 f   ul_vs2008_32:ulError.obj
 0001:00022eb0       ?ulGetError@@YAPADXZ       10023eb0 f   ul_vs2008_32:ulError.obj
 0001:00022ec0       ?ulClearError@@YAXXZ       10023ec0 f   ul_vs2008_32:ulError.obj
 0001:00022ed0       ?ulGetErrorCallback@@YAP6AXW4ulSeverity@@PAD@ZXZ 10023ed0 f   ul_vs2008_32:ulError.obj
 0001:00022ee0       ?ulSetErrorCallback@@YAXP6AXW4ulSeverity@@PAD@Z@Z 10023ee0 f   ul_vs2008_32:ulError.obj
 0001:00022ef0       ??0_Init_locks@std@@QAE@XZ 10023ef0 f   libcpmtd:xlock.obj
 0001:00022f40       ??0_Lockit@std@@QAE@H@Z    10023f40 f   libcpmtd:xlock.obj
 0001:00022f90       ??0_Lockit@std@@QAE@XZ     10023f90 f   libcpmtd:xlock.obj
 0001:00022fe0       ??1_Init_locks@std@@QAE@XZ 10023fe0 f   libcpmtd:xlock.obj
 0001:00023030       ??1_Lockit@std@@QAE@XZ     10024030 f   libcpmtd:xlock.obj
 0001:00023070       ?_Init_locks_ctor@_Init_locks@std@@CAXPAV12@@Z 10024070 f   libcpmtd:xlock.obj
 0001:000230c0       ?_Init_locks_dtor@_Init_locks@std@@CAXPAV12@@Z 100240c0 f   libcpmtd:xlock.obj
 0001:00023110       ?_Lockit_ctor@_Lockit@std@@CAXPAV12@@Z 10024110 f   libcpmtd:xlock.obj
 0001:00023130       ?_Lockit_ctor@_Lockit@std@@CAXPAV12@H@Z 10024130 f   libcpmtd:xlock.obj
 0001:00023170       ?_Lockit_ctor@_Lockit@std@@SAXH@Z 10024170 f   libcpmtd:xlock.obj
 0001:000231a0       ?_Lockit_dtor@_Lockit@std@@CAXPAV12@@Z 100241a0 f   libcpmtd:xlock.obj
 0001:000231c0       ?_Lockit_dtor@_Lockit@std@@SAXH@Z 100241c0 f   libcpmtd:xlock.obj
 0001:000231f0       ??_U@YAPAXI@Z              100241f0 f   libcpmtd:newaop.obj
 0001:00023210       ?_Debug_message@std@@YAXPBG0I@Z 10024210 f   libcpmtd:stdthrow.obj
 0001:00023230       ?_Debug_message@std@@YAXPB_W0I@Z 10024230 f   libcpmtd:stdthrow.obj
 0001:00023260       ??0_Ignore@std@@QAE@XZ     10024260 f i libcpmtd:xthrow.obj
 0001:00023270       ??0bad_alloc@std@@QAE@ABV01@@Z 10024270 f i libcpmtd:xthrow.obj
 0001:000232a0       ??0bad_alloc@std@@QAE@XZ   100242a0 f i libcpmtd:xthrow.obj
 0001:000232d0       ??0bad_function_call@std@@QAE@ABV01@@Z 100242d0 f i libcpmtd:xthrow.obj
 0001:00023300       ??0bad_function_call@std@@QAE@PBD@Z 10024300 f i libcpmtd:xthrow.obj
 0001:00023330       ??0id@locale@std@@QAE@I@Z  10024330 f i libcpmtd:xthrow.obj
 0001:00023350       ??0invalid_argument@std@@QAE@ABV01@@Z 10024350 f i libcpmtd:xthrow.obj
 0001:00023380       ??0invalid_argument@std@@QAE@PBD@Z 10024380 f i libcpmtd:xthrow.obj
 0001:000233b0       ??0length_error@std@@QAE@ABV01@@Z 100243b0 f i libcpmtd:xthrow.obj
 0001:000233e0       ??0length_error@std@@QAE@PBD@Z 100243e0 f i libcpmtd:xthrow.obj
 0001:00023410       ??0logic_error@std@@QAE@ABV01@@Z 10024410 f i libcpmtd:xthrow.obj
 0001:00023440       ??0logic_error@std@@QAE@PBD@Z 10024440 f i libcpmtd:xthrow.obj
 0001:00023470       ??0out_of_range@std@@QAE@ABV01@@Z 10024470 f i libcpmtd:xthrow.obj
 0001:000234a0       ??0out_of_range@std@@QAE@PBD@Z 100244a0 f i libcpmtd:xthrow.obj
 0001:000234d0       ??0overflow_error@std@@QAE@ABV01@@Z 100244d0 f i libcpmtd:xthrow.obj
 0001:00023500       ??0overflow_error@std@@QAE@PBD@Z 10024500 f i libcpmtd:xthrow.obj
 0001:00023530       ??0regex_error@std@@QAE@ABV01@@Z 10024530 f i libcpmtd:xthrow.obj
 0001:00023570       ??0regex_error@std@@QAE@W4error_type@regex_constants@1@@Z 10024570 f i libcpmtd:xthrow.obj
 0001:000235b0       ??0runtime_error@std@@QAE@ABV01@@Z 100245b0 f i libcpmtd:xthrow.obj
 0001:000235e0       ??0runtime_error@std@@QAE@PBD@Z 100245e0 f i libcpmtd:xthrow.obj
 0001:00023610       ??1bad_alloc@std@@UAE@XZ   10024610 f i libcpmtd:xthrow.obj
 0001:00023630       ??1bad_function_call@std@@UAE@XZ 10024630 f i libcpmtd:xthrow.obj
 0001:00023650       ??1invalid_argument@std@@UAE@XZ 10024650 f i libcpmtd:xthrow.obj
 0001:00023670       ??1length_error@std@@UAE@XZ 10024670 f i libcpmtd:xthrow.obj
 0001:00023690       ??1logic_error@std@@UAE@XZ 10024690 f i libcpmtd:xthrow.obj
 0001:000236b0       ??1out_of_range@std@@UAE@XZ 100246b0 f i libcpmtd:xthrow.obj
 0001:000236d0       ??1overflow_error@std@@UAE@XZ 100246d0 f i libcpmtd:xthrow.obj
 0001:000236f0       ??1regex_error@std@@UAE@XZ 100246f0 f i libcpmtd:xthrow.obj
 0001:00023710       ??1runtime_error@std@@UAE@XZ 10024710 f i libcpmtd:xthrow.obj
 0001:00023730       ??_Ebad_alloc@std@@UAEPAXI@Z 10024730 f i libcpmtd:xthrow.obj
 0001:00023730       ??_Gbad_alloc@std@@UAEPAXI@Z 10024730 f i libcpmtd:xthrow.obj
 0001:00023760       ??_Ebad_function_call@std@@UAEPAXI@Z 10024760 f i libcpmtd:xthrow.obj
 0001:00023760       ??_Gbad_function_call@std@@UAEPAXI@Z 10024760 f i libcpmtd:xthrow.obj
 0001:00023790       ??_Ginvalid_argument@std@@UAEPAXI@Z 10024790 f i libcpmtd:xthrow.obj
 0001:00023790       ??_Einvalid_argument@std@@UAEPAXI@Z 10024790 f i libcpmtd:xthrow.obj
 0001:000237c0       ??_Elength_error@std@@UAEPAXI@Z 100247c0 f i libcpmtd:xthrow.obj
 0001:000237c0       ??_Glength_error@std@@UAEPAXI@Z 100247c0 f i libcpmtd:xthrow.obj
 0001:000237f0       ??_Glogic_error@std@@UAEPAXI@Z 100247f0 f i libcpmtd:xthrow.obj
 0001:000237f0       ??_Elogic_error@std@@UAEPAXI@Z 100247f0 f i libcpmtd:xthrow.obj
 0001:00023820       ??_Gout_of_range@std@@UAEPAXI@Z 10024820 f i libcpmtd:xthrow.obj
 0001:00023820       ??_Eout_of_range@std@@UAEPAXI@Z 10024820 f i libcpmtd:xthrow.obj
 0001:00023850       ??_Eoverflow_error@std@@UAEPAXI@Z 10024850 f i libcpmtd:xthrow.obj
 0001:00023850       ??_Goverflow_error@std@@UAEPAXI@Z 10024850 f i libcpmtd:xthrow.obj
 0001:00023880       ??_Eregex_error@std@@UAEPAXI@Z 10024880 f i libcpmtd:xthrow.obj
 0001:00023880       ??_Gregex_error@std@@UAEPAXI@Z 10024880 f i libcpmtd:xthrow.obj
 0001:000238b0       ??_Gruntime_error@std@@UAEPAXI@Z 100248b0 f i libcpmtd:xthrow.obj
 0001:000238b0       ??_Eruntime_error@std@@UAEPAXI@Z 100248b0 f i libcpmtd:xthrow.obj
 0001:000238e0       ?_Stringify@regex_error@std@@CAPBDW4error_type@regex_constants@2@@Z 100248e0 f i libcpmtd:xthrow.obj
 0001:000239b0       ?_Xbad_alloc@std@@YAXXZ    100249b0 f   libcpmtd:xthrow.obj
 0001:000239d0       ?_Xbad_function_call@std@@YAXXZ 100249d0 f   libcpmtd:xthrow.obj
 0001:00023a00       ?_Xinvalid_argument@std@@YAXPBD@Z 10024a00 f   libcpmtd:xthrow.obj
 0001:00023a30       ?_Xlength_error@std@@YAXPBD@Z 10024a30 f   libcpmtd:xthrow.obj
 0001:00023a60       ?_Xout_of_range@std@@YAXPBD@Z 10024a60 f   libcpmtd:xthrow.obj
 0001:00023a90       ?_Xoverflow_error@std@@YAXPBD@Z 10024a90 f   libcpmtd:xthrow.obj
 0001:00023ac0       ?_Xregex_error@std@@YAXW4error_type@regex_constants@1@@Z 10024ac0 f   libcpmtd:xthrow.obj
 0001:00023af0       ?_Xruntime_error@std@@YAXPBD@Z 10024af0 f   libcpmtd:xthrow.obj
 0001:00023b20       ?what@bad_function_call@std@@UBEPBDXZ 10024b20 f i libcpmtd:xthrow.obj
 0001:00023b30       ?_Syserror_map@std@@YAPBDH@Z 10024b30 f   libcpmtd:syserror.obj
 0001:00023b80       ?_Winerror_map@std@@YAPBDH@Z 10024b80 f   libcpmtd:syserror.obj
 0001:00023bd0       __Mtxdst                   10024bd0 f   libcpmtd:xmtx.obj
 0001:00023be0       __Mtxinit                  10024be0 f   libcpmtd:xmtx.obj
 0001:00023c00       __Mtxlock                  10024c00 f   libcpmtd:xmtx.obj
 0001:00023c10       __Mtxunlock                10024c10 f   libcpmtd:xmtx.obj
 0001:00023c20       __Once                     10024c20 f   libcpmtd:xmtx.obj
 0001:00023c80       __get_purecall_handler     10024c80 f   LIBCMTD:purevirt.obj
 0001:00023ca0       __purecall                 10024ca0 f   LIBCMTD:purevirt.obj
 0001:00023ce0       __set_purecall_handler     10024ce0 f   LIBCMTD:purevirt.obj
 0001:00023d10       ??2@YAPAXI@Z               10024d10 f   LIBCMTD:new.obj
 0001:00023d60       ??3@YAXPAX@Z               10024d60 f   LIBCMTD:dbgdel.obj
 0001:00023e50       ___onexitinit              10024e50 f   LIBCMTD:onexit.obj
 0001:00023eb0       __onexit                   10024eb0 f   LIBCMTD:onexit.obj
 0001:00024070       _atexit                    10025070 f   LIBCMTD:onexit.obj
 0001:000240a0       _exp                       100250a0 f   LIBCMTD:87ctran.obj
 0001:000240dc       __CIexp                    100250dc f   LIBCMTD:87ctran.obj
 0001:00024117       __exp_default              10025117 f   LIBCMTD:87ctran.obj
 0001:00024121       __CIexp_default            10025121 f   LIBCMTD:87ctran.obj
 0001:00024130       __fclose_nolock            10025130 f   LIBCMTD:fclose.obj
 0001:00024240       _fclose                    10025240 f   LIBCMTD:fclose.obj
 0001:00024360       __fsopen                   10025360 f   LIBCMTD:fopen.obj
 0001:000245b0       _fopen                     100255b0 f   LIBCMTD:fopen.obj
 0001:000245d0       _fopen_s                   100255d0 f   LIBCMTD:fopen.obj
 0001:00024690       __fprintf_l                10025690 f   LIBCMTD:fprintf.obj
 0001:000246c0       __fprintf_p                100256c0 f   LIBCMTD:fprintf.obj
 0001:000246f0       __fprintf_p_l              100256f0 f   LIBCMTD:fprintf.obj
 0001:00024720       __fprintf_s_l              10025720 f   LIBCMTD:fprintf.obj
 0001:00024750       _fprintf                   10025750 f   LIBCMTD:fprintf.obj
 0001:00024a20       _fprintf_s                 10025a20 f   LIBCMTD:fprintf.obj
 0001:00024a50       __fscanf_l                 10025a50 f   LIBCMTD:fscanf.obj
 0001:00024a80       __fscanf_s_l               10025a80 f   LIBCMTD:fscanf.obj
 0001:00024ab0       _fscanf                    10025ab0 f   LIBCMTD:fscanf.obj
 0001:00024ae0       _fscanf_s                  10025ae0 f   LIBCMTD:fscanf.obj
 0001:00024b10       _vfscanf                   10025b10 f   LIBCMTD:fscanf.obj
 0001:00024dc0       __get_printf_count_output  10025dc0 f   LIBCMTD:printf.obj
 0001:00024df0       __printf_l                 10025df0 f   LIBCMTD:printf.obj
 0001:00024e20       __printf_p                 10025e20 f   LIBCMTD:printf.obj
 0001:00024e40       __printf_p_l               10025e40 f   LIBCMTD:printf.obj
 0001:00024e70       __printf_s_l               10025e70 f   LIBCMTD:printf.obj
 0001:00024ea0       __set_printf_count_output  10025ea0 f   LIBCMTD:printf.obj
 0001:00024f00       _printf                    10025f00 f   LIBCMTD:printf.obj
 0001:00025070       _printf_s                  10026070 f   LIBCMTD:printf.obj
 0001:00025090       _rand                      10026090 f   LIBCMTD:rand.obj
 0001:000250d0       _srand                     100260d0 f   LIBCMTD:rand.obj
 0001:000250e0       _memcpy                    100260e0 f   LIBCMTD:memcpy.obj
 0001:00025730       _strlen                    10026730 f   LIBCMTD:strlen.obj
 0001:000257c0       _memmove                   100267c0 f   LIBCMTD:memmove.obj
 0001:00025e10       ??_V@YAXPAX@Z              10026e10 f   LIBCMTD:delete2.obj
 0001:00025e30       __time64                   10026e30 f   LIBCMTD:time64.obj
 0001:00025eb0       @_RTC_AllocaHelper@12      10026eb0 f   LIBCMTD:stack.obj
 0001:00025ef0       @_RTC_CheckStackVars2@12   10026ef0 f   LIBCMTD:stack.obj
 0001:00025fd0       @_RTC_CheckStackVars@8     10026fd0 f   LIBCMTD:stack.obj
 0001:00026030       __RTC_CheckEsp             10027030 f   LIBCMTD:stack.obj
 0001:00026060       @__security_check_cookie@4 10027060 f   LIBCMTD:secchk.obj
 0001:00026070       __CxxThrowException@8      10027070 f   LIBCMTD:throw.obj
 0001:00026100       __RTC_InitBase             10027100 f   LIBCMTD:init.obj
 0001:00026130       __RTC_Shutdown             10027130 f   LIBCMTD:init.obj
 0001:00026250       ?_CallCatchBlock2@@YAPAXPAUEHRegistrationNode@@PBU_s_FuncInfo@@PAXHK@Z 10027250 f   LIBCMTD:_trnsctrl_.obj
 0001:000262c0       ?_CallMemberFunction0@@YGXPAX0@Z 100272c0 f   LIBCMTD:_trnsctrl_.obj
 0001:000262d0       ?_CallMemberFunction1@@YGXPAX00@Z 100272d0 f   LIBCMTD:_trnsctrl_.obj
 0001:000262e0       ?_CallMemberFunction2@@YGXPAX00H@Z 100272e0 f   LIBCMTD:_trnsctrl_.obj
 0001:000262f0       ?_CallSETranslator@@YAHPAUEHExceptionRecord@@PAUEHRegistrationNode@@PAX2PBU_s_FuncInfo@@H1@Z 100272f0 f   LIBCMTD:_trnsctrl_.obj
 0001:000263e0       ?_GetRangeOfTrysToCheck@@YAPBU_s_TryBlockMapEntry@@PBU_s_FuncInfo@@HHPAI1@Z 100273e0 f   LIBCMTD:_trnsctrl_.obj
 0001:00026470       ?_JumpToContinuation@@YGXPAXPAUEHRegistrationNode@@@Z 10027470 f   LIBCMTD:_trnsctrl_.obj
 0001:000264b0       ?_UnwindNestedFrames@@YGXPAUEHRegistrationNode@@PAUEHExceptionRecord@@@Z 100274b0 f   LIBCMTD:_trnsctrl_.obj
 0001:00026510       __CreateFrameInfo          10027510 f   LIBCMTD:_trnsctrl_.obj
 0001:00026540       __FindAndUnlinkFrame       10027540 f   LIBCMTD:_trnsctrl_.obj
 0001:000265a0       __IsExceptionObjectToBeDestroyed 100275a0 f   LIBCMTD:_trnsctrl_.obj
 0001:000265d0       ___CxxFrameHandler         100275d0 f   LIBCMTD:_trnsctrl_.obj
 0001:00026610       ___CxxFrameHandler2        10027610 f   LIBCMTD:_trnsctrl_.obj
 0001:00026650       ___CxxFrameHandler3        10027650 f   LIBCMTD:_trnsctrl_.obj
 0001:00026690       ___CxxLongjmpUnwind@4      10027690 f   LIBCMTD:_trnsctrl_.obj
 0001:000266c0       ??0type_info@@AAE@ABV0@@Z  100276c0 f   LIBCMTD:typinfo.obj
 0001:000266e0       ??1type_info@@UAE@XZ       100276e0 f   LIBCMTD:typinfo.obj
 0001:00026700       ??4type_info@@AAEAAV0@ABV0@@Z 10027700 f   LIBCMTD:typinfo.obj
 0001:00026710       ??8type_info@@QBE_NABV0@@Z 10027710 f   LIBCMTD:typinfo.obj
 0001:00026750       ??9type_info@@QBE_NABV0@@Z 10027750 f   LIBCMTD:typinfo.obj
 0001:00026790       ??_Etype_info@@UAEPAXI@Z   10027790 f i LIBCMTD:typinfo.obj
 0001:00026790       ??_Gtype_info@@UAEPAXI@Z   10027790 f i LIBCMTD:typinfo.obj
 0001:000267c0       ?_name_internal_method@type_info@@QBEPBDPAU__type_info_node@@@Z 100277c0 f   LIBCMTD:typinfo.obj
 0001:000267e0       ?_type_info_dtor_internal_method@type_info@@QAEXXZ 100277e0 f   LIBCMTD:typinfo.obj
 0001:00026800       ?before@type_info@@QBE_NABV1@@Z 10027800 f   LIBCMTD:typinfo.obj
 0001:00026840       ?name@type_info@@QBEPBDPAU__type_info_node@@@Z 10027840 f   LIBCMTD:typinfo.obj
 0001:00026860       ?raw_name@type_info@@QBEPBDXZ 10027860 f   LIBCMTD:typinfo.obj
 0001:00026880       __fpmath                   10027880 f   LIBCMTD:fpinit.obj
 0001:000268a0       ___setfflag                100278a0 f   LIBCMTD:fpinit.obj
 0001:000268c0       __cfltcvt_init             100278c0 f   LIBCMTD:fpinit.obj
 0001:00026980       _strcmp                    10027980 f   LIBCMTD:strcmp.obj
 0001:00026a10       _cos                       10027a10 f   LIBCMTD:cos.obj
 0001:00026a50       __CIcos                    10027a50 f   LIBCMTD:cos.obj
 0001:00026a8b       __CIcos_default            10027a8b f   LIBCMTD:cos.obj
 0001:00026a9f       __cos_default              10027a9f     LIBCMTD:cos.obj
 0001:00026b40       _fabs                      10027b40 f   LIBCMTD:fabs.obj
 0001:00026c40       _sin                       10027c40 f   LIBCMTD:sin.obj
 0001:00026c80       __CIsin                    10027c80 f   LIBCMTD:sin.obj
 0001:00026cbb       __CIsin_default            10027cbb f   LIBCMTD:sin.obj
 0001:00026ccf       __sin_default              10027ccf     LIBCMTD:sin.obj
 0001:00026d70       __CIsqrt                   10027d70 f   LIBCMTD:sqrt.obj
 0001:00026d84       _sqrt                      10027d84     LIBCMTD:sqrt.obj
 0001:00026e30       _ceil                      10027e30 f   LIBCMTD:ceil_pentium4.obj
 0001:00026e70       __ceil_pentium4            10027e70 f   LIBCMTD:ceil_pentium4.obj
 0001:00026f50       ?_invalid_parameter@@YAXPBG00II@Z 10027f50 f   LIBCMTD:invarg.obj
 0001:00026f80       ?_invoke_watson@@YAXPBG00II@Z 10027f80 f   LIBCMTD:invarg.obj
 0001:00026fa0       __call_reportfault         10027fa0 f   LIBCMTD:invarg.obj
 0001:00027100       __get_invalid_parameter_handler 10028100 f   LIBCMTD:invarg.obj
 0001:00027130       __initp_misc_invarg        10028130 f   LIBCMTD:invarg.obj
 0001:00027140       __invalid_parameter        10028140 f   LIBCMTD:invarg.obj
 0001:000271a0       __invoke_watson            100281a0 f   LIBCMTD:invarg.obj
 0001:000271e0       __set_invalid_parameter_handler 100281e0 f   LIBCMTD:invarg.obj
 0001:00027220       _sinh                      10028220 f   LIBCMTD:87ctrigh.obj
 0001:0002722a       _cosh                      1002822a f   LIBCMTD:87ctrigh.obj
 0001:00027231       _tanh                      10028231 f   LIBCMTD:87ctrigh.obj
 0001:00027238       __CIsinh                   10028238 f   LIBCMTD:87ctrigh.obj
 0001:00027242       __CIcosh                   10028242 f   LIBCMTD:87ctrigh.obj
 0001:00027249       __CItanh                   10028249 f   LIBCMTD:87ctrigh.obj
 0001:00027250       ?_CrtDbgReportW@@YAHHPBGH00ZZ 10028250 f   LIBCMTD:dbgrptw.obj
 0001:000272a0       __CrtDbgReportW            100282a0 f   LIBCMTD:dbgrptw.obj
 0001:000272f0       __CrtDbgReportWV           100282f0 f i LIBCMTD:dbgrptw.obj
 0001:00027320       __CrtSetReportHookW2       10028320 f   LIBCMTD:dbgrptw.obj
 0001:00027670       ___crtMessageWindowW       10028670 f   LIBCMTD:dbgrptw.obj
 0001:00027b20       __invoke_watson_if_error   10028b20 f i LIBCMTD:dbgrptw.obj
 0001:00027b50       __invoke_watson_if_oneof   10028b50 f i LIBCMTD:dbgrptw.obj
 0001:00027b90       _acos                      10028b90 f   LIBCMTD:acos.obj
 0001:00027bd0       __CIacos                   10028bd0 f   LIBCMTD:acos.obj
 0001:00027c0b       __CIacos_default           10028c0b f   LIBCMTD:acos.obj
 0001:00027c1f       __acos_default             10028c1f     LIBCMTD:acos.obj
 0001:00027ce0       _tan                       10028ce0 f   LIBCMTD:tan.obj
 0001:00027d20       __CItan                    10028d20 f   LIBCMTD:tan.obj
 0001:00027d5b       __CItan_default            10028d5b f   LIBCMTD:tan.obj
 0001:00027d6f       __tan_default              10028d6f     LIBCMTD:tan.obj
 0001:00027e10       __chkstk                   10028e10 f   LIBCMTD:chkstk.obj
 0001:00027e10       __alloca_probe             10028e10     LIBCMTD:chkstk.obj
 0001:00027e40       _free                      10028e40 f   LIBCMTD:dbgfree.obj
 0001:00027e60       _malloc                    10028e60 f   LIBCMTD:dbgmalloc.obj
 0001:00027e90       ___raise_securityfailure   10028e90 f   LIBCMTD:gs_report.obj
 0001:00027ee0       ___report_gsfailure        10028ee0 f   LIBCMTD:gs_report.obj
 0001:00027ff0       ___report_rangecheckfailure 10028ff0 f   LIBCMTD:gs_report.obj
 0001:00028000       ___report_securityfailure  10029000 f   LIBCMTD:gs_report.obj
 0001:000280e0       ___report_securityfailureEx 100290e0 f   LIBCMTD:gs_report.obj
 0001:00028210       _memset                    10029210 f   LIBCMTD:memset.obj
 0001:000282a0       _strchr                    100292a0 f   LIBCMTD:strchr.obj
 0001:0002830e       ___from_strstr_to_strchr   1002930e     LIBCMTD:strchr.obj
 0001:000283d0       _strncpy                   100293d0 f   LIBCMTD:strncpy.obj
 0001:00028500       _strrchr                   10029500 f   LIBCMTD:strrchr.obj
 0001:00028640       __snprintf                 10029640 f   LIBCMTD:snprintf.obj
 0001:00028820       __snprintf_l               10029820 f   LIBCMTD:snprintf.obj
 0001:00028850       _atan2                     10029850 f   LIBCMTD:87ctriga.obj
 0001:0002885a       __CIatan2                  1002985a f   LIBCMTD:87ctriga.obj
 0001:00028870       _pow                       10029870 f   LIBCMTD:pow.obj
 0001:000288b0       __CIpow                    100298b0 f   LIBCMTD:pow.obj
 0001:000288eb       __CIpow_default            100298eb f   LIBCMTD:pow.obj
 0001:00028904       __pow_default              10029904     LIBCMTD:pow.obj
 0001:00028b00       __chgsign                  10029b00 f   LIBCMTD:ieeemisc.obj
 0001:00028b40       __copysign                 10029b40 f   LIBCMTD:ieeemisc.obj
 0001:00028b70       __finite                   10029b70 f   LIBCMTD:ieeemisc.obj
 0001:00028b90       __fpclass                  10029b90 f   LIBCMTD:ieeemisc.obj
 0001:00028c80       __isnan                    10029c80 f   LIBCMTD:ieeemisc.obj
 0001:00028cc0       __logb                     10029cc0 f   LIBCMTD:ieeemisc.obj
 0001:00028df0       __nextafter                10029df0 f   LIBCMTD:ieeemisc.obj
 0001:00029110       __scalb                    1002a110 f   LIBCMTD:ieeemisc.obj
 0001:00029130       __ftol2_sse                1002a130 f   LIBCMTD:ftol2.obj
 0001:00029139       __ftol2_pentium4           1002a139 f   LIBCMTD:ftol2.obj
 0001:0002914c       __ftol2_sse_excpt          1002a14c f   LIBCMTD:ftol2.obj
 0001:00029166       __ftol2                    1002a166 f   LIBCMTD:ftol2.obj
 0001:000291e0       ??_L@YGXPAXIHP6EX0@Z1@Z    1002a1e0 f   LIBCMTD:ehvecctr.obj
 0001:00029290       ??_M@YGXPAXIHP6EX0@Z@Z     1002a290 f   LIBCMTD:ehvecdtr.obj
 0001:00029370       ?__ArrayUnwind@@YGXPAXIHP6EX0@Z@Z 1002a370 f   LIBCMTD:ehvecdtr.obj
 0001:00029400       _asin                      1002a400 f   LIBCMTD:asin.obj
 0001:00029440       __CIasin                   1002a440 f   LIBCMTD:asin.obj
 0001:0002947b       __CIasin_default           1002a47b f   LIBCMTD:asin.obj
 0001:0002948f       __asin_default             1002a48f     LIBCMTD:asin.obj
 0001:00029550       _atan                      1002a550 f   LIBCMTD:atan.obj
 0001:00029590       __CIatan                   1002a590 f   LIBCMTD:atan.obj
 0001:000295cb       __CIatan_default           1002a5cb f   LIBCMTD:atan.obj
 0001:000295df       __atan_default             1002a5df     LIBCMTD:atan.obj
 0001:00029670       _floor                     1002a670 f   LIBCMTD:floor_pentium4.obj
 0001:000296b0       __floor_pentium4           1002a6b0 f   LIBCMTD:floor_pentium4.obj
 0001:000297a0       __CRT_INIT@12              1002a7a0 f   LIBCMTD:dllcrt0.obj
 0001:000299d0       __DllMainCRTStartup@12     1002a9d0 f   LIBCMTD:dllcrt0.obj
 0001:00029bc0       ___DllXcptFilter           1002abc0 f   LIBCMTD:dllcrt0.obj
 0001:00029bf0       ___copy_path_to_wide_string 1002abf0 f   LIBCMTD:crt0dat.obj
 0001:00029de0       ___crtCorExitProcess       1002ade0 f   LIBCMTD:crt0dat.obj
 0001:00029e20       ___crtExitProcess          1002ae20 f   LIBCMTD:crt0dat.obj
 0001:00029e40       ___freeCrtMemory           1002ae40 f   LIBCMTD:crt0dat.obj
 0001:0002a010       __amsg_exit                1002b010 f   LIBCMTD:crt0dat.obj
 0001:0002a030       __c_exit                   1002b030 f   LIBCMTD:crt0dat.obj
 0001:0002a050       __cexit                    1002b050 f   LIBCMTD:crt0dat.obj
 0001:0002a070       __cinit                    1002b070 f   LIBCMTD:crt0dat.obj
 0001:0002a110       __exit                     1002b110 f   LIBCMTD:crt0dat.obj
 0001:0002a130       __get_pgmptr               1002b130 f   LIBCMTD:crt0dat.obj
 0001:0002a250       __get_wpgmptr              1002b250 f   LIBCMTD:crt0dat.obj
 0001:0002a370       __init_pointers            1002b370 f   LIBCMTD:crt0dat.obj
 0001:0002a400       __initterm_e               1002b400 f   LIBCMTD:crt0dat.obj
 0001:0002a440       __lockexit                 1002b440 f   LIBCMTD:crt0dat.obj
 0001:0002a450       __unlockexit               1002b450 f   LIBCMTD:crt0dat.obj
 0001:0002a660       _exit                      1002b660 f   LIBCMTD:crt0dat.obj
 0001:0002a680       ___initstdio               1002b680 f   LIBCMTD:_file.obj
 0001:0002a750       ___endstdio                1002b750 f   LIBCMTD:_file.obj
 0001:0002a790       ___iob_func                1002b790 f   LIBCMTD:_file.obj
 0001:0002a7a0       __lock_file                1002b7a0 f   LIBCMTD:_file.obj
 0001:0002a800       __lock_file2               1002b800 f   LIBCMTD:_file.obj
 0001:0002a840       __unlock_file              1002b840 f   LIBCMTD:_file.obj
 0001:0002a8a0       __unlock_file2             1002b8a0 f   LIBCMTD:_file.obj
 0001:0002a8e0       __vscprintf                1002b8e0 f   LIBCMTD:vsprintf.obj
 0001:0002a900       __vscprintf_helper         1002b900 f   LIBCMTD:vsprintf.obj
 0001:0002a9f0       __vscprintf_l              1002b9f0 f   LIBCMTD:vsprintf.obj
 0001:0002aa10       __vscprintf_p              1002ba10 f   LIBCMTD:vsprintf.obj
 0001:0002aa30       __vscprintf_p_l            1002ba30 f   LIBCMTD:vsprintf.obj
 0001:0002aa50       __vsprintf_l               1002ba50 f   LIBCMTD:vsprintf.obj
 0001:0002ac10       _vsprintf                  1002bc10 f   LIBCMTD:vsprintf.obj
 0001:0002ac30       __lock                     1002bc30 f   LIBCMTD:mlock.obj
 0001:0002ac70       __lockerr_exit             1002bc70 f   LIBCMTD:mlock.obj
 0001:0002aca0       __mtdeletelocks            1002bca0 f   LIBCMTD:mlock.obj
 0001:0002ad60       __mtinitlocknum            1002bd60 f   LIBCMTD:mlock.obj
 0001:0002ae80       __mtinitlocks              1002be80 f   LIBCMTD:mlock.obj
 0001:0002af00       __unlock                   1002bf00 f   LIBCMTD:mlock.obj
 0001:0002af20       ??0__non_rtti_object@std@@QAE@ABV01@@Z 1002bf20 f   LIBCMTD:stdexcpt.obj
 0001:0002af50       ??0__non_rtti_object@std@@QAE@PBD@Z 1002bf50 f   LIBCMTD:stdexcpt.obj
 0001:0002af80       ??0bad_cast@std@@QAE@ABV01@@Z 1002bf80 f   LIBCMTD:stdexcpt.obj
 0001:0002afb0       ??0bad_cast@std@@QAE@PBD@Z 1002bfb0 f   LIBCMTD:stdexcpt.obj
 0001:0002afe0       ??0bad_typeid@std@@QAE@ABV01@@Z 1002bfe0 f   LIBCMTD:stdexcpt.obj
 0001:0002b010       ??0bad_typeid@std@@QAE@PBD@Z 1002c010 f   LIBCMTD:stdexcpt.obj
 0001:0002b040       ??0exception@std@@QAE@ABQBD@Z 1002c040 f   LIBCMTD:stdexcpt.obj
 0001:0002b080       ??0exception@std@@QAE@ABQBDH@Z 1002c080 f   LIBCMTD:stdexcpt.obj
 0001:0002b0b0       ??0exception@std@@QAE@ABV01@@Z 1002c0b0 f   LIBCMTD:stdexcpt.obj
 0001:0002b0f0       ??0exception@std@@QAE@XZ   1002c0f0 f   LIBCMTD:stdexcpt.obj
 0001:0002b120       ??1__non_rtti_object@std@@UAE@XZ 1002c120 f   LIBCMTD:stdexcpt.obj
 0001:0002b140       ??1bad_cast@std@@UAE@XZ    1002c140 f   LIBCMTD:stdexcpt.obj
 0001:0002b160       ??1bad_typeid@std@@UAE@XZ  1002c160 f   LIBCMTD:stdexcpt.obj
 0001:0002b180       ??1exception@std@@UAE@XZ   1002c180 f   LIBCMTD:stdexcpt.obj
 0001:0002b1a0       ??4exception@std@@QAEAAV01@ABV01@@Z 1002c1a0 f   LIBCMTD:stdexcpt.obj
 0001:0002b1f0       ??_G__non_rtti_object@std@@UAEPAXI@Z 1002c1f0 f i LIBCMTD:stdexcpt.obj
 0001:0002b1f0       ??_E__non_rtti_object@std@@UAEPAXI@Z 1002c1f0 f i LIBCMTD:stdexcpt.obj
 0001:0002b220       ??_Gbad_cast@std@@UAEPAXI@Z 1002c220 f i LIBCMTD:stdexcpt.obj
 0001:0002b220       ??_Ebad_cast@std@@UAEPAXI@Z 1002c220 f i LIBCMTD:stdexcpt.obj
 0001:0002b250       ??_Gbad_typeid@std@@UAEPAXI@Z 1002c250 f i LIBCMTD:stdexcpt.obj
 0001:0002b250       ??_Ebad_typeid@std@@UAEPAXI@Z 1002c250 f i LIBCMTD:stdexcpt.obj
 0001:0002b280       ??_Gexception@std@@UAEPAXI@Z 1002c280 f i LIBCMTD:stdexcpt.obj
 0001:0002b280       ??_Eexception@std@@UAEPAXI@Z 1002c280 f i LIBCMTD:stdexcpt.obj
 0001:0002b2b0       ?_Copy_str@exception@std@@AAEXPBD@Z 1002c2b0 f   LIBCMTD:stdexcpt.obj
 0001:0002b310       ?_Tidy@exception@std@@AAEXXZ 1002c310 f   LIBCMTD:stdexcpt.obj
 0001:0002b350       ?what@exception@std@@UBEPBDXZ 1002c350 f   LIBCMTD:stdexcpt.obj
 0001:0002b3d0       ___crtCloseThreadpoolTimer 1002c3d0 f   LIBCMTD:winapisupp.obj
 0001:0002b400       ___crtCloseThreadpoolWait  1002c400 f   LIBCMTD:winapisupp.obj
 0001:0002b430       ___crtCreateSemaphoreExW@24 1002c430 f   LIBCMTD:winapisupp.obj
 0001:0002b490       ___crtCreateSymbolicLinkW  1002c490 f   LIBCMTD:winapisupp.obj
 0001:0002b4d0       ___crtCreateThreadpoolTimer 1002c4d0 f   LIBCMTD:winapisupp.obj
 0001:0002b510       ___crtCreateThreadpoolWait 1002c510 f   LIBCMTD:winapisupp.obj
 0001:0002b550       ___crtFlsAlloc             1002c550 f   LIBCMTD:winapisupp.obj
 0001:0002b580       ___crtFlsFree              1002c580 f   LIBCMTD:winapisupp.obj
 0001:0002b5c0       ___crtFlsGetValue          1002c5c0 f   LIBCMTD:winapisupp.obj
 0001:0002b600       ___crtFlsSetValue          1002c600 f   LIBCMTD:winapisupp.obj
 0001:0002b640       ___crtFlushProcessWriteBuffers 1002c640 f   LIBCMTD:winapisupp.obj
 0001:0002b670       ___crtFreeLibraryWhenCallbackReturns 1002c670 f   LIBCMTD:winapisupp.obj
 0001:0002b6a0       ___crtGetCurrentProcessorNumber 1002c6a0 f   LIBCMTD:winapisupp.obj
 0001:0002b6d0       ___crtGetLogicalProcessorInformation 1002c6d0 f   LIBCMTD:winapisupp.obj
 0001:0002b710       ___crtGetShowWindowMode    1002c710 f   LIBCMTD:winapisupp.obj
 0001:0002b740       ___crtInitializeCriticalSectionEx 1002c740 f   LIBCMTD:winapisupp.obj
 0001:0002b790       ___crtIsPackagedApp        1002c790 f   LIBCMTD:winapisupp.obj
 0001:0002b7d0       ___crtLoadWinApiPointers   1002c7d0 f   LIBCMTD:winapisupp.obj
 0001:0002bbe0       ___crtSetThreadStackGuarantee 1002cbe0 f   LIBCMTD:winapisupp.obj
 0001:0002bc10       ___crtSetThreadpoolTimer   1002cc10 f   LIBCMTD:winapisupp.obj
 0001:0002bc50       ___crtSetThreadpoolWait    1002cc50 f   LIBCMTD:winapisupp.obj
 0001:0002bc80       ___crtSetUnhandledExceptionFilter 1002cc80 f   LIBCMTD:winapisupp.obj
 0001:0002bc90       ___crtTerminateProcess     1002cc90 f   LIBCMTD:winapisupp.obj
 0001:0002bcb0       ___crtUnhandledException   1002ccb0 f   LIBCMTD:winapisupp.obj
 0001:0002bcd0       ___crtWaitForThreadpoolTimerCallbacks 1002ccd0 f   LIBCMTD:winapisupp.obj
 0001:0002bd00       __FF_MSGBANNER             1002cd00 f   LIBCMTD:crt0msg.obj
 0001:0002bd50       __GET_RTERRMSG             1002cd50 f   LIBCMTD:crt0msg.obj
 0001:0002bd90       __NMSG_WRITE               1002cd90 f   LIBCMTD:crt0msg.obj
 0001:0002c150       __set_abort_behavior       1002d150 f   LIBCMTD:abort.obj
 0001:0002c180       _abort                     1002d180 f   LIBCMTD:abort.obj
 0001:0002c1f0       ___getlocaleinfo           1002d1f0 f   LIBCMTD:inithelp.obj
 0001:0002c4f0       __initp_misc_purevirt      1002d4f0 f   LIBCMTD:inithelp.obj
 0001:0002c500       ?_query_new_handler@@YAP6AHI@ZXZ 1002d500 f   LIBCMTD:handler.obj
 0001:0002c520       ?_set_new_handler@@YAP6AHI@ZH@Z 1002d520 f   LIBCMTD:handler.obj
 0001:0002c560       ?_set_new_handler@@YAP6AHI@ZP6AHI@Z@Z 1002d560 f   LIBCMTD:handler.obj
 0001:0002c5a0       __callnewh                 1002d5a0 f   LIBCMTD:handler.obj
 0001:0002c5e0       __initp_heap_handler       1002d5e0 f   LIBCMTD:handler.obj
 0001:0002c5f0       ??0_LocaleUpdate@@QAE@PAUlocaleinfo_struct@@@Z 1002d5f0 f i LIBCMTD:dbgheap.obj
 0001:0002c6d0       ??1_LocaleUpdate@@QAE@XZ   1002d6d0 f i LIBCMTD:dbgheap.obj
 0001:0002c700       ?GetLocaleT@_LocaleUpdate@@QAEPAUlocaleinfo_struct@@XZ 1002d700 f i LIBCMTD:dbgheap.obj
 0001:0002cba0       __CrtCheckMemory           1002dba0 f   LIBCMTD:dbgheap.obj
 0001:0002d000       __CrtDoForAllClientObjects 1002e000 f   LIBCMTD:dbgheap.obj
 0001:0002d130       __CrtDumpMemoryLeaks       1002e130 f   LIBCMTD:dbgheap.obj
 0001:0002d1d0       __CrtGetAllocHook          1002e1d0 f   LIBCMTD:dbgheap.obj
 0001:0002d1e0       __CrtGetCheckCount         1002e1e0 f   LIBCMTD:dbgheap.obj
 0001:0002d1f0       __CrtGetDumpClient         1002e1f0 f   LIBCMTD:dbgheap.obj
 0001:0002d200       __CrtIsMemoryBlock         1002e200 f   LIBCMTD:dbgheap.obj
 0001:0002d370       __CrtIsValidHeapPointer    1002e370 f   LIBCMTD:dbgheap.obj
 0001:0002d3b0       __CrtIsValidPointer        1002e3b0 f   LIBCMTD:dbgheap.obj
 0001:0002d3e0       __CrtMemCheckpoint         1002e3e0 f   LIBCMTD:dbgheap.obj
 0001:0002d610       __CrtMemDifference         1002e610 f   LIBCMTD:dbgheap.obj
 0001:0002d870       __CrtMemDumpAllObjectsSince 1002e870 f   LIBCMTD:dbgheap.obj
 0001:0002d8b0       __CrtMemDumpStatistics     1002e8b0 f   LIBCMTD:dbgheap.obj
 0001:0002d9d0       __CrtReportBlockType       1002e9d0 f   LIBCMTD:dbgheap.obj
 0001:0002da00       __CrtSetAllocHook          1002ea00 f   LIBCMTD:dbgheap.obj
 0001:0002da20       __CrtSetBreakAlloc         1002ea20 f   LIBCMTD:dbgheap.obj
 0001:0002da40       __CrtSetCheckCount         1002ea40 f   LIBCMTD:dbgheap.obj
 0001:0002da60       __CrtSetDbgBlockType       1002ea60 f   LIBCMTD:dbgheap.obj
 0001:0002db50       __CrtSetDbgFlag            1002eb50 f   LIBCMTD:dbgheap.obj
 0001:0002dca0       __CrtSetDebugFillThreshold 1002eca0 f   LIBCMTD:dbgheap.obj
 0001:0002dcc0       __CrtSetDumpClient         1002ecc0 f   LIBCMTD:dbgheap.obj
 0001:0002dce0       __aligned_free             1002ece0 f   LIBCMTD:dbgheap.obj
 0001:0002dd00       __aligned_free_dbg         1002ed00 f   LIBCMTD:dbgheap.obj
 0001:0002ddb0       __aligned_malloc           1002edb0 f   LIBCMTD:dbgheap.obj
 0001:0002ddd0       __aligned_malloc_dbg       1002edd0 f   LIBCMTD:dbgheap.obj
 0001:0002ddf0       __aligned_msize            1002edf0 f   LIBCMTD:dbgheap.obj
 0001:0002de10       __aligned_msize_dbg        1002ee10 f   LIBCMTD:dbgheap.obj
 0001:0002df30       __aligned_offset_malloc    1002ef30 f   LIBCMTD:dbgheap.obj
 0001:0002df50       __aligned_offset_malloc_dbg 1002ef50 f   LIBCMTD:dbgheap.obj
 0001:0002e130       __aligned_offset_realloc   1002f130 f   LIBCMTD:dbgheap.obj
 0001:0002e160       __aligned_offset_realloc_dbg 1002f160 f   LIBCMTD:dbgheap.obj
 0001:0002e470       __aligned_offset_recalloc  1002f470 f   LIBCMTD:dbgheap.obj
 0001:0002e4a0       __aligned_offset_recalloc_dbg 1002f4a0 f   LIBCMTD:dbgheap.obj
 0001:0002e560       __aligned_realloc          1002f560 f   LIBCMTD:dbgheap.obj
 0001:0002e580       __aligned_realloc_dbg      1002f580 f   LIBCMTD:dbgheap.obj
 0001:0002e5b0       __aligned_recalloc         1002f5b0 f   LIBCMTD:dbgheap.obj
 0001:0002e5e0       __aligned_recalloc_dbg     1002f5e0 f   LIBCMTD:dbgheap.obj
 0001:0002e610       __calloc_dbg               1002f610 f   LIBCMTD:dbgheap.obj
 0001:0002e670       __calloc_dbg_impl          1002f670 f   LIBCMTD:dbgheap.obj
 0001:0002e6f0       __expand                   1002f6f0 f   LIBCMTD:dbgheap.obj
 0001:0002e720       __expand_dbg               1002f720 f   LIBCMTD:dbgheap.obj
 0001:0002e840       __free_dbg                 1002f840 f   LIBCMTD:dbgheap.obj
 0001:0002e8c0       __free_dbg_nolock          1002f8c0 f   LIBCMTD:dbgheap.obj
 0001:0002edc0       __free_nolock              1002fdc0 f   LIBCMTD:dbgheap.obj
 0001:0002ede0       __heap_alloc               1002fde0 f   LIBCMTD:dbgheap.obj
 0001:0002ee00       __heap_alloc_dbg           1002fe00 f   LIBCMTD:dbgheap.obj
 0001:0002f220       __malloc_dbg               10030220 f   LIBCMTD:dbgheap.obj
 0001:0002f250       __msize                    10030250 f   LIBCMTD:dbgheap.obj
 0001:0002f270       __msize_dbg                10030270 f   LIBCMTD:dbgheap.obj
 0001:0002f480       __nh_malloc                10030480 f   LIBCMTD:dbgheap.obj
 0001:0002f4a0       __nh_malloc_dbg            100304a0 f   LIBCMTD:dbgheap.obj
 0001:0002f730       __realloc_dbg              10030730 f   LIBCMTD:dbgheap.obj
 0001:0002f7c0       __recalloc                 100307c0 f   LIBCMTD:dbgheap.obj
 0001:0002f7f0       __recalloc_dbg             100307f0 f   LIBCMTD:dbgheap.obj
 0001:0002ff10       __except_handler4          10030f10 f   LIBCMTD:chandler4.obj
 0001:000300d0       __sse2_mathfcns_init       100310d0 f   LIBCMTD:mathfcns.obj
 0001:000300f0       __set_SSE2_enable          100310f0 f   LIBCMTD:mathfcns.obj
 0001:00030140       __CIexp_pentium4           10031140 f   LIBCMTD:exp_pentium4.obj
 0001:00030158       __exp_pentium4             10031158     LIBCMTD:exp_pentium4.obj
 0001:00030411       __fFEXP                    10031411     LIBCMTD:87tran.obj
 0001:00030468       __rtinfpopse               10031468     LIBCMTD:87tran.obj
 0001:0003046a       __rtinfnpopse              1003146a     LIBCMTD:87tran.obj
 0001:0003047a       __fFLN                     1003147a     LIBCMTD:87tran.obj
 0001:0003052f       __rtinfpop                 1003152f     LIBCMTD:87tran.obj
 0001:00030531       __rtinfnpop                10031531     LIBCMTD:87tran.obj
 0001:0003054e       __ffexpm1                  1003154e     LIBCMTD:87tran.obj
 0001:00030600       __cintrindisp2             10031600 f   LIBCMTD:87cdisp.obj
 0001:0003063e       __cintrindisp1             1003163e f   LIBCMTD:87cdisp.obj
 0001:0003067b       __ctrandisp2               1003167b f   LIBCMTD:87cdisp.obj
 0001:0003080a       __ctrandisp1               1003180a f   LIBCMTD:87cdisp.obj
 0001:0003083d       __fload                    1003183d f   LIBCMTD:87cdisp.obj
 0001:00030880       __fileno                   10031880 f   LIBCMTD:fileno.obj
 0001:00030910       __close                    10031910 f   LIBCMTD:close.obj
 0001:00030b40       __close_nolock             10031b40 f   LIBCMTD:close.obj
 0001:00030c20       ___doserrno                10031c20 f   LIBCMTD:dosmap.obj
 0001:00030c50       __dosmaperr                10031c50 f   LIBCMTD:dosmap.obj
 0001:00030c80       __errno                    10031c80 f   LIBCMTD:dosmap.obj
 0001:00030cb0       __get_doserrno             10031cb0 f   LIBCMTD:dosmap.obj
 0001:00030d40       __get_errno                10031d40 f   LIBCMTD:dosmap.obj
 0001:00030dd0       __get_errno_from_oserr     10031dd0 f   LIBCMTD:dosmap.obj
 0001:00030e50       __set_doserrno             10031e50 f   LIBCMTD:dosmap.obj
 0001:00030e80       __set_errno                10031e80 f   LIBCMTD:dosmap.obj
 0001:00030eb0       __freebuf                  10031eb0 f   LIBCMTD:_freebuf.obj
 0001:00030f40       __fflush_nolock            10031f40 f   LIBCMTD:fflush.obj
 0001:00030fb0       __flush                    10031fb0 f   LIBCMTD:fflush.obj
 0001:00031070       __flushall                 10032070 f   LIBCMTD:fflush.obj
 0001:00031080       _fflush                    10032080 f   LIBCMTD:fflush.obj
 0001:000312c0       __getstream                100322c0 f   LIBCMTD:stream.obj
 0001:000314f0       __openfile                 100324f0 f   LIBCMTD:_open.obj
 0001:00031cf0       __local_unwind4            10032cf0 f   LIBCMTD:exsup4.obj
 0001:00031dc6       __seh_longjmp_unwind4@4    10032dc6 f   LIBCMTD:exsup4.obj
 0001:00031de2       @_EH4_CallFilterFunc@8     10032de2 f   LIBCMTD:exsup4.obj
 0001:00031df9       @_EH4_TransferToHandler@8  10032df9 f   LIBCMTD:exsup4.obj
 0001:00031e12       @_EH4_GlobalUnwind2@8      10032e12 f   LIBCMTD:exsup4.obj
 0001:00031e2b       @_EH4_LocalUnwind@16       10032e2b f   LIBCMTD:exsup4.obj
 0001:00031e50       __vfprintf_l               10032e50 f   LIBCMTD:vfprintf.obj
 0001:00031e80       __vfprintf_p               10032e80 f   LIBCMTD:vfprintf.obj
 0001:00031ea0       __vfprintf_p_l             10032ea0 f   LIBCMTD:vfprintf.obj
 0001:00031ed0       __vfprintf_s_l             10032ed0 f   LIBCMTD:vfprintf.obj
 0001:00031f00       _vfprintf                  10032f00 f   LIBCMTD:vfprintf.obj
 0001:00031f20       _vfprintf_helper           10032f20 f   LIBCMTD:vfprintf.obj
 0001:000321f0       _vfprintf_s                100331f0 f   LIBCMTD:vfprintf.obj
 0001:00032210       __ftbuf                    10033210 f   LIBCMTD:_sftbuf.obj
 0001:000322a0       __stbuf                    100332a0 f   LIBCMTD:_sftbuf.obj
 0001:00032410       __output_l                 10033410 f   LIBCMTD:output.obj
 0001:00033ab0       _get_int64_arg             10034ab0 f i LIBCMTD:output.obj
 0001:00033ad0       _get_int_arg               10034ad0 f i LIBCMTD:output.obj
 0001:00033af0       _get_short_arg             10034af0 f i LIBCMTD:output.obj
 0001:00033cb0       __ioinit                   10034cb0 f   LIBCMTD:ioinit.obj
 0001:00034190       __ioterm                   10035190 f   LIBCMTD:ioinit.obj
 0001:00034230       __INTRN_LOCALE_CONV        10035230 f i LIBCMTD:input.obj
 0001:000343f0       __input_l                  100353f0 f   LIBCMTD:input.obj
 0001:000362d0       __input_s_l                100372d0 f   LIBCMTD:inputs.obj
 0001:00038490       __vprintf_l                10039490 f   LIBCMTD:vprintf.obj
 0001:000384b0       __vprintf_p                100394b0 f   LIBCMTD:vprintf.obj
 0001:000384d0       __vprintf_p_l              100394d0 f   LIBCMTD:vprintf.obj
 0001:000384f0       __vprintf_s_l              100394f0 f   LIBCMTD:vprintf.obj
 0001:00038510       _vprintf                   10039510 f   LIBCMTD:vprintf.obj
 0001:00038530       _vprintf_helper            10039530 f   LIBCMTD:vprintf.obj
 0001:00038670       _vprintf_s                 10039670 f   LIBCMTD:vprintf.obj
 0001:00038690       ___get_flsindex            10039690 f   LIBCMTD:tidtable.obj
 0001:000386a0       ___threadhandle            100396a0 f   LIBCMTD:tidtable.obj
 0001:000386b0       ___threadid                100396b0 f   LIBCMTD:tidtable.obj
 0001:000386c0       __freefls@4                100396c0 f   LIBCMTD:tidtable.obj
 0001:000388c0       __freeptd                  100398c0 f   LIBCMTD:tidtable.obj
 0001:00038900       __getptd                   10039900 f   LIBCMTD:tidtable.obj
 0001:00038930       __getptd_noexit            10039930 f   LIBCMTD:tidtable.obj
 0001:000389e0       __initptd                  100399e0 f   LIBCMTD:tidtable.obj
 0001:00038b20       __mtinit                   10039b20 f   LIBCMTD:tidtable.obj
 0001:00038bd0       __mtterm                   10039bd0 f   LIBCMTD:tidtable.obj
 0001:00038c00       ___isa_available_init      10039c00 f   LIBCMTD:cpu_disp.obj
 0001:00038e00       __aulldiv                  10039e00 f   LIBCMTD:ulldiv.obj
 0001:00038fc0       ?_RTC_AllocaFailure@@YAXPAXPAU_RTC_ALLOCA_NODE@@H@Z 10039fc0 f   LIBCMTD:error.obj
 0001:00039130       ?_RTC_Failure@@YAXPAXH@Z   1003a130 f   LIBCMTD:error.obj
 0001:00039180       ?_RTC_StackFailure@@YAXPAXPBD@Z 1003a180 f   LIBCMTD:error.obj
 0001:000394e0       __RTC_UninitUse            1003a4e0 f   LIBCMTD:error.obj
 0001:000395e0       ?_RTC_GetErrorFunc@@YAP6AHHPBDH00ZZPBX@Z 1003a5e0 f   LIBCMTD:userapi.obj
 0001:000395f0       ?_RTC_GetErrorFuncW@@YAP6AHHPB_WH00ZZPBX@Z 1003a5f0 f   LIBCMTD:userapi.obj
 0001:00039600       __RTC_GetErrDesc           1003a600 f   LIBCMTD:userapi.obj
 0001:00039620       __RTC_NumErrors            1003a620 f   LIBCMTD:userapi.obj
 0001:00039630       __RTC_SetErrorFunc         1003a630 f   LIBCMTD:userapi.obj
 0001:00039650       __RTC_SetErrorFuncW        1003a650 f   LIBCMTD:userapi.obj
 0001:00039670       __RTC_SetErrorType         1003a670 f   LIBCMTD:userapi.obj
 0001:000396a0       __CRT_RTC_INIT             1003a6a0 f   LIBCMTD:chkesp.obj
 0001:000396b0       __CRT_RTC_INITW            1003a6b0 f   LIBCMTD:chkesp.obj
 0001:000396c0       __chkesp                   1003a6c0 f   LIBCMTD:chkesp.obj
 0001:00039700       __CallSettingFrame@12      1003a700 f   LIBCMTD:lowhelpr.obj
 0001:00039727       __NLG_Return               1003a727     LIBCMTD:lowhelpr.obj
 0001:00039750       ?_inconsistency@@YAXXZ     1003a750 f   LIBCMTD:hooks.obj
 0001:000397e0       ?terminate@@YAXXZ          1003a7e0 f   LIBCMTD:hooks.obj
 0001:00039860       ?unexpected@@YAXXZ         1003a860 f   LIBCMTD:hooks.obj
 0001:00039890       __initp_eh_hooks           1003a890 f   LIBCMTD:hooks.obj
 0001:000398b0       ___DestructExceptionObject 1003a8b0 f   LIBCMTD:frame.obj
 0001:000399d0       ??0bad_exception@std@@QAE@ABV01@@Z 1003a9d0 f i LIBCMTD:frame.obj
 0001:00039a00       ??0bad_exception@std@@QAE@PBD@Z 1003aa00 f i LIBCMTD:frame.obj
 0001:00039a30       ??1bad_exception@std@@UAE@XZ 1003aa30 f i LIBCMTD:frame.obj
 0001:00039a50       ??_Gbad_exception@std@@UAEPAXI@Z 1003aa50 f i LIBCMTD:frame.obj
 0001:00039a50       ??_Ebad_exception@std@@UAEPAXI@Z 1003aa50 f i LIBCMTD:frame.obj
 0001:0003a650       ?__uncaught_exception@@YA_NXZ 1003b650 f   LIBCMTD:frame.obj
 0001:0003a680       ?_is_exception_typeof@@YAHABVtype_info@@PAU_EXCEPTION_POINTERS@@@Z 1003b680 f   LIBCMTD:frame.obj
 0001:0003a760       ___AdjustPointer           1003b760 f   LIBCMTD:frame.obj
 0001:0003a7b0       ___BuildCatchObject        1003b7b0 f   LIBCMTD:frame.obj
 0001:0003a8c0       ___BuildCatchObjectHelper  1003b8c0 f   LIBCMTD:frame.obj
 0001:0003ab40       ___CxxDetectRethrow        1003bb40 f   LIBCMTD:frame.obj
 0001:0003abc0       ___CxxExceptionFilter      1003bbc0 f   LIBCMTD:frame.obj
 0001:0003adc0       ___CxxQueryExceptionSize   1003bdc0 f   LIBCMTD:frame.obj
 0001:0003add0       ___CxxRegisterExceptionObject 1003bdd0 f   LIBCMTD:frame.obj
 0001:0003af10       ___CxxUnregisterExceptionObject 1003bf10 f   LIBCMTD:frame.obj
 0001:0003b090       ___FrameUnwindFilter       1003c090 f   LIBCMTD:frame.obj
 0001:0003b110       ___FrameUnwindToState      1003c110 f   LIBCMTD:frame.obj
 0001:0003b290       ___InternalCxxFrameHandler 1003c290 f   LIBCMTD:frame.obj
 0001:0003b400       ___TypeMatch               1003c400 f   LIBCMTD:frame.obj
 0001:0003b4c0       ?_Name_base@type_info@@CAPBDPBV1@PAU__type_info_node@@@Z 1003c4c0 f   LIBCMTD:typname.obj
 0001:0003b670       ?_Name_base_internal@type_info@@CAPBDPBV1@PAU__type_info_node@@@Z 1003c670 f   LIBCMTD:typname.obj
 0001:0003b830       ?_Type_info_dtor@type_info@@CAXPAV1@@Z 1003c830 f   LIBCMTD:typname.obj
 0001:0003b940       ?_Type_info_dtor_internal@type_info@@CAXPAV1@@Z 1003c940 f   LIBCMTD:typname.obj
 0001:0003ba50       ___clean_type_info_names_internal 1003ca50 f   LIBCMTD:typname.obj
 0001:0003bb00       ___unDNameHelper           1003cb00 f   LIBCMTD:typname.obj
 0001:0003bb40       __cfltcvt                  1003cb40 f   LIBCMTD:cvt.obj
 0001:0003bb70       __cfltcvt_l                1003cb70 f   LIBCMTD:cvt.obj
 0001:0003bc30       __cftoa                    1003cc30 f   LIBCMTD:cvt.obj
 0001:0003bc60       __cftoa_l                  1003cc60 f   LIBCMTD:cvt.obj
 0001:0003c4d0       __cftoe                    1003d4d0 f   LIBCMTD:cvt.obj
 0001:0003c910       __cftoe_l                  1003d910 f   LIBCMTD:cvt.obj
 0001:0003cb40       __cftof                    1003db40 f   LIBCMTD:cvt.obj
 0001:0003cdf0       __cftof_l                  1003ddf0 f   LIBCMTD:cvt.obj
 0001:0003cff0       __cftog                    1003dff0 f   LIBCMTD:cvt.obj
 0001:0003d020       __cftog_l                  1003e020 f   LIBCMTD:cvt.obj
 0001:0003d2b0       __cropzeros                1003e2b0 f   LIBCMTD:cvt.obj
 0001:0003d2d0       __cropzeros_l              1003e2d0 f   LIBCMTD:cvt.obj
 0001:0003d3f0       __fassign                  1003e3f0 f   LIBCMTD:cvt.obj
 0001:0003d410       __fassign_l                1003e410 f   LIBCMTD:cvt.obj
 0001:0003d460       __forcdecpt                1003e460 f   LIBCMTD:cvt.obj
 0001:0003d480       __forcdecpt_l              1003e480 f   LIBCMTD:cvt.obj
 0001:0003d550       __positive                 1003e550 f   LIBCMTD:cvt.obj
 0001:0003d5b0       __setdefaultprecision      1003e5b0 f   LIBCMTD:fp8.obj
 0001:0003d5f0       __initp_misc_cfltcvt_tab   1003e5f0 f   LIBCMTD:cmiscdat.obj
 0001:0003d630       __CIcos_pentium4           1003e630 f   LIBCMTD:cos_pentium4.obj
 0001:0003d648       __cos_pentium4             1003e648     LIBCMTD:cos_pentium4.obj
 0001:0003d7e0       __trandisp1                1003e7e0 f   LIBCMTD:87disp.obj
 0001:0003d847       __trandisp2                1003e847 f   LIBCMTD:87disp.obj
 0001:0003d8d3       __rttospopde               1003e8d3     LIBCMTD:87disp.obj
 0001:0003d8d8       __rttospop                 1003e8d8     LIBCMTD:87disp.obj
 0001:0003d8da       __rtnospop                 1003e8da     LIBCMTD:87disp.obj
 0001:0003d8dc       __rttosnpop                1003e8dc     LIBCMTD:87disp.obj
 0001:0003d8dd       __rtnospopde               1003e8dd     LIBCMTD:87disp.obj
 0001:0003d8e4       __rtzeropop                1003e8e4     LIBCMTD:87disp.obj
 0001:0003d8e6       __rtzeronpop               1003e8e6     LIBCMTD:87disp.obj
 0001:0003d8eb       __rtonepop                 1003e8eb     LIBCMTD:87disp.obj
 0001:0003d8ed       __rtonenpop                1003e8ed     LIBCMTD:87disp.obj
 0001:0003d8f2       __tosnan1                  1003e8f2     LIBCMTD:87disp.obj
 0001:0003d91d       __nosnan2                  1003e91d     LIBCMTD:87disp.obj
 0001:0003d91f       __tosnan2                  1003e91f     LIBCMTD:87disp.obj
 0001:0003d947       __nan2                     1003e947     LIBCMTD:87disp.obj
 0001:0003d986       __rtindfpop                1003e986     LIBCMTD:87disp.obj
 0001:0003d988       __rtindfnpop               1003e988     LIBCMTD:87disp.obj
 0001:0003d999       __rttosnpopde              1003e999     LIBCMTD:87disp.obj
 0001:0003d9a3       __rtchsifneg               1003e9a3     LIBCMTD:87disp.obj
 0001:0003d9b0       __twoToTOS                 1003e9b0 f   LIBCMTD:common.obj
 0001:0003d9c5       __load_CW                  1003e9c5 f   LIBCMTD:common.obj
 0001:0003d9dc       __convertTOStoQNaN         1003e9dc f   LIBCMTD:common.obj
 0001:0003d9f5       __fload_withFB             1003e9f5 f   LIBCMTD:common.obj
 0001:0003da38       __checkTOS_withFB          1003ea38 f   LIBCMTD:common.obj
 0001:0003da4e       __fast_exit                1003ea4e f   LIBCMTD:common.obj
 0001:0003da5b       __math_exit                1003ea5b f   LIBCMTD:common.obj
 0001:0003da85       __check_overflow_exit      1003ea85 f   LIBCMTD:common.obj
 0001:0003da99       __check_range_exit         1003ea99 f   LIBCMTD:common.obj
 0001:0003db40       __startTwoArgErrorHandling 1003eb40 f   LIBCMTD:genexcep.obj
 0001:0003db57       __startOneArgErrorHandling 1003eb57 f   LIBCMTD:genexcep.obj
 0001:0003dba0       __errcode                  1003eba0 f   LIBCMTD:fpexcept.obj
 0001:0003dc10       __except1                  1003ec10 f   LIBCMTD:fpexcept.obj
 0001:0003dd10       __except2                  1003ed10 f   LIBCMTD:fpexcept.obj
 0001:0003de60       __handle_exc               1003ee60 f   LIBCMTD:fpexcept.obj
 0001:0003e180       __handle_qnan1             1003f180 f   LIBCMTD:fpexcept.obj
 0001:0003e1e0       __handle_qnan2             1003f1e0 f   LIBCMTD:fpexcept.obj
 0001:0003e250       __raise_exc                1003f250 f   LIBCMTD:fpexcept.obj
 0001:0003e280       __raise_exc_ex             1003f280 f   LIBCMTD:fpexcept.obj
 0001:0003e7f0       __raise_excf               1003f7f0 f   LIBCMTD:fpexcept.obj
 0001:0003e820       __set_errno_from_matherr   1003f820 f   LIBCMTD:fpexcept.obj
 0001:0003e860       __umatherr                 1003f860 f   LIBCMTD:fpexcept.obj
 0001:0003e900       __add_exp                  1003f900 f   LIBCMTD:util.obj
 0001:0003e930       __decomp                   1003f930 f   LIBCMTD:util.obj
 0001:0003ea50       __get_exp                  1003fa50 f   LIBCMTD:util.obj
 0001:0003ea80       __set_bexp                 1003fa80 f   LIBCMTD:util.obj
 0001:0003eab0       __set_exp                  1003fab0 f   LIBCMTD:util.obj
 0001:0003eaf0       __sptype                   1003faf0 f   LIBCMTD:util.obj
 0001:0003eb70       ___clrfp_sse2              1003fb70 f   LIBCMTD:fpctrl.obj
 0001:0003ebb0       ___ctrlfp_sse2             1003fbb0 f   LIBCMTD:fpctrl.obj
 0001:0003ec10       ___fclrf_sse2              1003fc10 f   LIBCMTD:fpctrl.obj
 0001:0003ec30       ___get_fpsr_sse2           1003fc30 f   LIBCMTD:fpctrl.obj
 0001:0003ec60       ___set_fpsr_sse2           1003fc60 f   LIBCMTD:fpctrl.obj
 0001:0003ed40       ___set_statfp_sse2         1003fd40 f   LIBCMTD:fpctrl.obj
 0001:0003ed70       ___statfp_sse2             1003fd70 f   LIBCMTD:fpctrl.obj
 0001:0003eda0       __clrfp                    1003fda0 f   LIBCMTD:fpctrl.obj
 0001:0003edc0       __ctrlfp                   1003fdc0 f   LIBCMTD:fpctrl.obj
 0001:0003edf0       __set_statfp               1003fdf0 f   LIBCMTD:fpctrl.obj
 0001:0003ee60       __statfp                   1003fe60 f   LIBCMTD:fpctrl.obj
 0001:0003ee70       __CIsin_pentium4           1003fe70 f   LIBCMTD:sin_pentium4.obj
 0001:0003ee88       __sin_pentium4             1003fe88     LIBCMTD:sin_pentium4.obj
 0001:0003f040       ___libm_error_support      10040040 f   LIBCMTD:libm_error.obj
 0001:0003fc10       ___libm_setusermatherr     10040c10 f   LIBCMTD:libm_error.obj
 0001:0003fc40       __ceil_default             10040c40 f   LIBCMTD:ceil.obj
 0001:0003fd80       __CrtDefaultAllocHook      10040d80 f   LIBCMTD:dbghook.obj
 0001:0003fd90       __crt_debugger_hook        10040d90 f   LIBCMTD:dbghook.obj
 0001:0003fda0       __fFSINH                   10040da0     LIBCMTD:87trigh.obj
 0001:0003fdf2       __fFCOSH                   10040df2     LIBCMTD:87trigh.obj
 0001:0003fea0       _memcpy_s                  10040ea0 f   LIBCMTD:memcpy_s.obj
 0001:00040070       _wcscpy_s                  10041070 f   LIBCMTD:wcscpy_s.obj
 0001:00040380       _wcslen                    10041380 f   LIBCMTD:wcslen.obj
 0001:000403c0       ___swprintf_l              100413c0 f   LIBCMTD:swprintf.obj
 0001:000403f0       __scwprintf                100413f0 f   LIBCMTD:swprintf.obj
 0001:00040410       __scwprintf_l              10041410 f   LIBCMTD:swprintf.obj
 0001:00040440       __scwprintf_p              10041440 f   LIBCMTD:swprintf.obj
 0001:00040460       __scwprintf_p_l            10041460 f   LIBCMTD:swprintf.obj
 0001:00040490       __snwprintf_s              10041490 f   LIBCMTD:swprintf.obj
 0001:000404c0       __snwprintf_s_l            100414c0 f   LIBCMTD:swprintf.obj
 0001:000404f0       __swprintf                 100414f0 f   LIBCMTD:swprintf.obj
 0001:00040710       __swprintf_p               10041710 f   LIBCMTD:swprintf.obj
 0001:00040740       __swprintf_p_l             10041740 f   LIBCMTD:swprintf.obj
 0001:00040770       __swprintf_s_l             10041770 f   LIBCMTD:swprintf.obj
 0001:000407a0       _swprintf_s                100417a0 f   LIBCMTD:swprintf.obj
 0001:000407d0       ___fpecode                 100417d0 f   LIBCMTD:winsig.obj
 0001:000407e0       ___get_sigabrt             100417e0 f   LIBCMTD:winsig.obj
 0001:00040800       ___pxcptinfoptrs           10041800 f   LIBCMTD:winsig.obj
 0001:00040810       __initp_misc_winsig        10041810 f   LIBCMTD:winsig.obj
 0001:00040930       _raise                     10041930 f   LIBCMTD:winsig.obj
 0001:00040ca0       _signal                    10041ca0 f   LIBCMTD:winsig.obj
 0001:00041050       ___crtMessageBoxW          10042050 f   LIBCMTD:crtmboxw.obj
 0001:00041360       ___crtMessageBoxWaitThreadW@4 10042360 f   LIBCMTD:crtmboxw.obj
 0001:000413a0       __CrtDbgBreak              100423a0 f   LIBCMTD:dbgrptt.obj
 0001:000413b0       __CrtGetReportHook         100423b0 f   LIBCMTD:dbgrptt.obj
 0001:000413c0       __CrtSetReportFile         100423c0 f   LIBCMTD:dbgrptt.obj
 0001:000414c0       __CrtSetReportHook         100424c0 f   LIBCMTD:dbgrptt.obj
 0001:000414e0       __CrtSetReportMode         100424e0 f   LIBCMTD:dbgrptt.obj
 0001:00041620       __VCrtDbgReportA           10042620 f   LIBCMTD:dbgrptt.obj
 0001:00041e90       __VCrtDbgReportW           10042e90 f   LIBCMTD:dbgrptt.obj
 0001:00042800       __CIacos_pentium4          10043800 f   LIBCMTD:acos_pentium4.obj
 0001:00042818       __acos_pentium4            10043818     LIBCMTD:acos_pentium4.obj
 0001:00042d60       __CItan_pentium4           10043d60 f   LIBCMTD:tan_pentium4.obj
 0001:00042d78       __tan_pentium4             10043d78     LIBCMTD:tan_pentium4.obj
 0001:00042fc0       __VEC_memset               10043fc0 f   LIBCMTD:p4_memset.obj
 0001:00043090       __flsbuf                   10044090 f   LIBCMTD:_flsbuf.obj
 0001:00043360       __vsnprintf                10044360 f   LIBCMTD:vsnprint.obj
 0001:00043380       __vsnprintf_l              10044380 f   LIBCMTD:vsnprint.obj
 0001:0004357c       __fFATN2                   1004457c     LIBCMTD:87triga.obj
 0001:000435cc       __rtpiby2                  100445cc     LIBCMTD:87triga.obj
 0001:00043610       __CIpow_pentium4           10044610 f   LIBCMTD:pow_pentium4.obj
 0001:00043629       __pow_pentium4             10044629     LIBCMTD:pow_pentium4.obj
 0001:00044170       __d_inttype                10045170 f   LIBCMTD:powhlp.obj
 0001:00044200       __powhlp                   10045200 f   LIBCMTD:powhlp.obj
 0001:000443b0       _ldexp                     100453b0 f   LIBCMTD:ldexp.obj
 0001:00044690       __CIasin_pentium4          10045690 f   LIBCMTD:asin_pentium4.obj
 0001:000446a8       __asin_pentium4            100456a8     LIBCMTD:asin_pentium4.obj
 0001:00044c10       __CIatan_pentium4          10045c10 f   LIBCMTD:atan_pentium4.obj
 0001:00044c28       __atan_pentium4            10045c28     LIBCMTD:atan_pentium4.obj
 0001:00044f00       __floor_default            10045f00 f   LIBCMTD:floor.obj
 0001:00045040       __XcptFilter               10046040 f   LIBCMTD:winxfltr.obj
 0001:00045240       ___CppXcptFilter           10046240 f   LIBCMTD:winxfltr.obj
 0001:000452d0       __get_heap_handle          100462d0 f   LIBCMTD:heapinit.obj
 0001:00045310       __heap_init                10046310 f   LIBCMTD:heapinit.obj
 0001:00045340       __heap_term                10046340 f   LIBCMTD:heapinit.obj
 0001:00045350       __set_pgmptr               10046350 f i LIBCMTD:stdargv.obj
 0001:00045360       __setargv                  10046360 f   LIBCMTD:stdargv.obj
 0001:00045830       __setenvp                  10046830 f   LIBCMTD:stdenvp.obj
 0001:000459d0       ___security_init_cookie    100469d0 f   LIBCMTD:gs_support.obj
 0001:00045ab0       _DllMain@12                10046ab0 f   LIBCMTD:dllmain.obj
 0001:00045ac0       ___crtGetEnvironmentStringsA 10046ac0 f   LIBCMTD:a_env.obj
 0001:00045bc0       __RTC_Initialize           10046bc0 f   LIBCMTD:initsect.obj
 0001:00045bf0       __RTC_Terminate            10046bf0 f   LIBCMTD:initsect.obj
 0001:00045c20       __FindPESection            10046c20 f   LIBCMTD:pesect.obj
 0001:00045ca0       __IsNonwritableInCurrentImage 10046ca0 f   LIBCMTD:pesect.obj
 0001:00045dd0       __ValidateImageBase        10046dd0 f   LIBCMTD:pesect.obj
 0001:00045e30       __initp_misc_rand_s        10046e30 f   LIBCMTD:rand_s.obj
 0001:00045e40       _rand_s                    10046e40 f   LIBCMTD:rand_s.obj
 0001:000460b0       ___initmbctable            100470b0 f   LIBCMTD:mbctype.obj
 0001:000466d0       ___updatetmbcinfo          100476d0 f   LIBCMTD:mbctype.obj
 0001:000467e0       __getmbcp                  100477e0 f   LIBCMTD:mbctype.obj
 0001:00046850       __setmbcp                  10047850 f   LIBCMTD:mbctype.obj
 0001:00046af0       __setmbcp_nolock           10047af0 f   LIBCMTD:mbctype.obj
 0001:00046e70       __fcloseall                10047e70 f   LIBCMTD:closeall.obj
 0001:00046fa0       __output_p_l               10047fa0 f   LIBCMTD:outputp.obj
 0001:0004ad90       __validate_param_reuseA    1004bd90 f   LIBCMTD:outputp.obj
 0001:0004b080       _get_crtdouble_arg         1004c080 f i LIBCMTD:outputp.obj
 0001:0004b240       _strcpy_s                  1004c240 f   LIBCMTD:strcpy_s.obj
 0001:0004b540       _wcscat_s                  1004c540 f   LIBCMTD:wcscat_s.obj
 0001:0004b950       _wcsncpy_s                 1004c950 f   LIBCMTD:wcsncpy_s.obj
 0001:0004bd80       ___set_app_type            1004cd80 f   LIBCMTD:errmode.obj
 0001:0004bd90       __set_error_mode           1004cd90 f   LIBCMTD:errmode.obj
 0001:0004be50       _strncpy_s                 1004ce50 f   LIBCMTD:strncpy_s.obj
 0001:0004c380       __MarkAllocaS              1004d380 f i LIBCMTD:a_loc.obj
 0001:0004c3a0       ___crtGetLocaleInfoA       1004d3a0 f   LIBCMTD:a_loc.obj
 0001:0004c3f0       __freea                    1004d3f0 f i LIBCMTD:a_loc.obj
 0001:0004c460       _GetTableIndexFromLcid     1004d460 f   LIBCMTD:winapinls.obj
 0001:0004c4d0       _GetTableIndexFromLocaleName 1004d4d0 f   LIBCMTD:winapinls.obj
 0001:0004c560       ___crtCompareStringEx      1004d560 f   LIBCMTD:winapinls.obj
 0001:0004c5d0       ___crtDownlevelLCIDToLocaleName 1004d5d0 f   LIBCMTD:winapinls.obj
 0001:0004c6a0       ___crtDownlevelLocaleNameToLCID 1004d6a0 f   LIBCMTD:winapinls.obj
 0001:0004c700       ___crtEnumSystemLocalesEx  1004d700 f   LIBCMTD:winapinls.obj
 0001:0004c770       ___crtGetDateFormatEx      1004d770 f   LIBCMTD:winapinls.obj
 0001:0004c7e0       ___crtGetLocaleInfoEx      1004d7e0 f   LIBCMTD:winapinls.obj
 0001:0004c840       ___crtGetTimeFormatEx      1004d840 f   LIBCMTD:winapinls.obj
 0001:0004c8b0       ___crtGetUserDefaultLocaleName 1004d8b0 f   LIBCMTD:winapinls.obj
 0001:0004c900       ___crtIsValidLocaleName    1004d900 f   LIBCMTD:winapinls.obj
 0001:0004c940       ___crtLCMapStringEx        1004d940 f   LIBCMTD:winapinls.obj
 0001:0004c9b0       ___wcsnicmp_ascii          1004d9b0 f   LIBCMTD:winapinls.obj
 0001:0004ca80       ___addlocaleref            1004da80 f   LIBCMTD:localref.obj
 0001:0004cba0       ___freetlocinfo            1004dba0 f   LIBCMTD:localref.obj
 0001:0004ce90       ___removelocaleref         1004de90 f   LIBCMTD:localref.obj
 0001:0004cfb0       ___updatetlocinfo          1004dfb0 f   LIBCMTD:localref.obj
 0001:0004d080       __updatetlocinfoEx_nolock  1004e080 f   LIBCMTD:localref.obj
 0001:0004d100       __chvalidator              1004e100 f   LIBCMTD:isctype.obj
 0001:0004d150       __chvalidator_l            1004e150 f   LIBCMTD:isctype.obj
 0001:0004d210       __isctype                  1004e210 f   LIBCMTD:isctype.obj
 0001:0004d250       __isctype_l                1004e250 f   LIBCMTD:isctype.obj
 0001:0004d3a0       __free_base                1004e3a0 f   LIBCMTD:free.obj
 0001:0004d3f0       __realloc_base             1004e3f0 f   LIBCMTD:realloc.obj
 0001:0004d4f0       __expand_base              1004e4f0 f   LIBCMTD:expand.obj
 0001:0004d660       __CrtDbgReport             1004e660 f   LIBCMTD:dbgrpt.obj
 0001:0004d6b0       __CrtDbgReportV            1004e6b0 f i LIBCMTD:dbgrpt.obj
 0001:0004d6e0       __CrtSetReportHook2        1004e6e0 f   LIBCMTD:dbgrpt.obj
 0001:0004da30       ___crtMessageWindowA       1004ea30 f   LIBCMTD:dbgrpt.obj
 0001:0004ded0       __heapchk                  1004eed0 f   LIBCMTD:heapchk.obj
 0001:0004df00       __heapset                  1004ef00 f   LIBCMTD:heapchk.obj
 0001:0004df10       __scprintf                 1004ef10 f   LIBCMTD:sprintf.obj
 0001:0004df30       __scprintf_l               1004ef30 f   LIBCMTD:sprintf.obj
 0001:0004df60       __scprintf_p               1004ef60 f   LIBCMTD:sprintf.obj
 0001:0004df80       __scprintf_p_l             1004ef80 f   LIBCMTD:sprintf.obj
 0001:0004dfb0       __snprintf_s               1004efb0 f   LIBCMTD:sprintf.obj
 0001:0004dfe0       __snprintf_s_l             1004efe0 f   LIBCMTD:sprintf.obj
 0001:0004e010       __sprintf_l                1004f010 f   LIBCMTD:sprintf.obj
 0001:0004e040       __sprintf_p                1004f040 f   LIBCMTD:sprintf.obj
 0001:0004e070       __sprintf_p_l              1004f070 f   LIBCMTD:sprintf.obj
 0001:0004e0a0       __sprintf_s_l              1004f0a0 f   LIBCMTD:sprintf.obj
 0001:0004e0d0       _sprintf                   1004f0d0 f   LIBCMTD:sprintf.obj
 0001:0004e290       _sprintf_s                 1004f290 f   LIBCMTD:sprintf.obj
 0001:0004e2c0       __heap_alloc_base          1004f2c0 f i LIBCMTD:malloc.obj
 0001:0004e320       __malloc_base              1004f320 f   LIBCMTD:malloc.obj
 0001:0004e3b0       __87except                 1004f3b0 f   LIBCMTD:87except.obj
 0001:0004e5b0       ___lock_fhandle            1004f5b0 f   LIBCMTD:osfinfo.obj
 0001:0004e6a0       __alloc_osfhnd             1004f6a0 f   LIBCMTD:osfinfo.obj
 0001:0004e940       __free_osfhnd              1004f940 f   LIBCMTD:osfinfo.obj
 0001:0004ea30       __get_osfhandle            1004fa30 f   LIBCMTD:osfinfo.obj
 0001:0004ebb0       __open_osfhandle           1004fbb0 f   LIBCMTD:osfinfo.obj
 0001:0004ede0       __set_osfhnd               1004fde0 f   LIBCMTD:osfinfo.obj
 0001:0004eeb0       __unlock_fhandle           1004feb0 f   LIBCMTD:osfinfo.obj
 0001:0004eee0       __commit                   1004fee0 f   LIBCMTD:commit.obj
 0001:0004f120       __write                    10050120 f   LIBCMTD:write.obj
 0001:0004f370       __write_nolock             10050370 f   LIBCMTD:write.obj
 0001:00050100       __open                     10051100 f   LIBCMTD:open.obj
 0001:00050290       __sopen                    10051290 f   LIBCMTD:open.obj
 0001:00050300       __sopen_helper             10051300 f   LIBCMTD:open.obj
 0001:00050590       __sopen_nolock             10051590 f   LIBCMTD:open.obj
 0001:00050600       __sopen_s                  10051600 f   LIBCMTD:open.obj
 0001:00050630       __mbsnbcmp                 10051630 f   LIBCMTD:mbsnbcmp.obj
 0001:00050650       __mbsnbcmp_l               10051650 f   LIBCMTD:mbsnbcmp.obj
 0001:00050970       __mbsnbicmp                10051970 f   LIBCMTD:mbsnbicm.obj
 0001:00050990       __mbsnbicmp_l              10051990 f   LIBCMTD:mbsnbicm.obj
 0001:00050ed0       __global_unwind2           10051ed0 f   LIBCMTD:exsup.obj
 0001:00050f35       __local_unwind2            10051f35 f   LIBCMTD:exsup.obj
 0001:00050fb9       __abnormal_termination     10051fb9 f   LIBCMTD:exsup.obj
 0001:00050fdc       __NLG_Notify1              10051fdc f   LIBCMTD:exsup.obj
 0001:00050fe5       __NLG_Notify               10051fe5 f   LIBCMTD:exsup.obj
 0001:00050ffc       __NLG_Dispatch             10051ffc     LIBCMTD:exsup.obj
 0001:00050ffc       __NLG_Dispatch2            10051ffc     LIBCMTD:exsup.obj
 0001:00051004       __NLG_Call                 10052004 f   LIBCMTD:exsup.obj
 0001:00051006       __NLG_Return2              10052006     LIBCMTD:exsup.obj
 0001:00051010       __output_s_l               10052010 f   LIBCMTD:outputs.obj
 0001:000529b0       __isatty                   100539b0 f   LIBCMTD:isatty.obj
 0001:00052a70       ___iswcsym                 10053a70 f i LIBCMTD:_wctype.obj
 0001:00052ab0       ___iswcsymf                10053ab0 f i LIBCMTD:_wctype.obj
 0001:00052af0       __isleadbyte_l             10053af0 f i LIBCMTD:_wctype.obj
 0001:00052b40       __iswalnum_l               10053b40 f i LIBCMTD:_wctype.obj
 0001:00052b60       __iswalpha_l               10053b60 f i LIBCMTD:_wctype.obj
 0001:00052b80       __iswcntrl_l               10053b80 f i LIBCMTD:_wctype.obj
 0001:00052ba0       __iswcsym_l                10053ba0 f i LIBCMTD:_wctype.obj
 0001:00052be0       __iswcsymf_l               10053be0 f i LIBCMTD:_wctype.obj
 0001:00052c20       __iswdigit_l               10053c20 f i LIBCMTD:_wctype.obj
 0001:00052c40       __iswgraph_l               10053c40 f i LIBCMTD:_wctype.obj
 0001:00052c60       __iswlower_l               10053c60 f i LIBCMTD:_wctype.obj
 0001:00052c80       __iswprint_l               10053c80 f i LIBCMTD:_wctype.obj
 0001:00052ca0       __iswpunct_l               10053ca0 f i LIBCMTD:_wctype.obj
 0001:00052cc0       __iswspace_l               10053cc0 f i LIBCMTD:_wctype.obj
 0001:00052ce0       __iswupper_l               10053ce0 f i LIBCMTD:_wctype.obj
 0001:00052d00       __iswxdigit_l              10053d00 f i LIBCMTD:_wctype.obj
 0001:00052d20       _isleadbyte                10053d20 f i LIBCMTD:_wctype.obj
 0001:00052d40       _iswalnum                  10053d40 f i LIBCMTD:_wctype.obj
 0001:00052d60       _iswalpha                  10053d60 f i LIBCMTD:_wctype.obj
 0001:00052d80       _iswascii                  10053d80 f i LIBCMTD:_wctype.obj
 0001:00052db0       _iswcntrl                  10053db0 f i LIBCMTD:_wctype.obj
 0001:00052dd0       _iswdigit                  10053dd0 f i LIBCMTD:_wctype.obj
 0001:00052df0       _iswgraph                  10053df0 f i LIBCMTD:_wctype.obj
 0001:00052e10       _iswlower                  10053e10 f i LIBCMTD:_wctype.obj
 0001:00052e30       _iswprint                  10053e30 f i LIBCMTD:_wctype.obj
 0001:00052e50       _iswpunct                  10053e50 f i LIBCMTD:_wctype.obj
 0001:00052e70       _iswspace                  10053e70 f i LIBCMTD:_wctype.obj
 0001:00052e90       _iswupper                  10053e90 f i LIBCMTD:_wctype.obj
 0001:00052eb0       _iswxdigit                 10053eb0 f i LIBCMTD:_wctype.obj
 0001:00052ed0       __wctomb_l                 10053ed0 f   LIBCMTD:wctomb.obj
 0001:00052f50       __wctomb_s_l               10053f50 f   LIBCMTD:wctomb.obj
 0001:000532a0       _wctomb                    100542a0 f   LIBCMTD:wctomb.obj
 0001:000532f0       _wctomb_s                  100542f0 f   LIBCMTD:wctomb.obj
 0001:00053310       __aullrem                  10054310 f   LIBCMTD:ullrem.obj
 0001:00053390       __filbuf                   10054390 f   LIBCMTD:_filbuf.obj
 0001:00053600       __ungetc_nolock            10054600 f   LIBCMTD:ungetc.obj
 0001:00053830       _ungetc                    10054830 f   LIBCMTD:ungetc.obj
 0001:00053930       ___isascii                 10054930 f i LIBCMTD:_ctype.obj
 0001:00053960       ___iscsym                  10054960 f i LIBCMTD:_ctype.obj
 0001:000539a0       ___iscsymf                 100549a0 f i LIBCMTD:_ctype.obj
 0001:000539e0       ___toascii                 100549e0 f i LIBCMTD:_ctype.obj
 0001:000539f0       __isalnum_l                100549f0 f i LIBCMTD:_ctype.obj
 0001:00053a70       __isalpha_l                10054a70 f i LIBCMTD:_ctype.obj
 0001:00053af0       __iscntrl_l                10054af0 f i LIBCMTD:_ctype.obj
 0001:00053b70       __iscsym_l                 10054b70 f i LIBCMTD:_ctype.obj
 0001:00053bb0       __iscsymf_l                10054bb0 f i LIBCMTD:_ctype.obj
 0001:00053bf0       __isdigit_l                10054bf0 f i LIBCMTD:_ctype.obj
 0001:00053c70       __isgraph_l                10054c70 f i LIBCMTD:_ctype.obj
 0001:00053cf0       __islower_l                10054cf0 f i LIBCMTD:_ctype.obj
 0001:00053d70       __isprint_l                10054d70 f i LIBCMTD:_ctype.obj
 0001:00053df0       __ispunct_l                10054df0 f i LIBCMTD:_ctype.obj
 0001:00053e70       __isspace_l                10054e70 f i LIBCMTD:_ctype.obj
 0001:00053ef0       __isupper_l                10054ef0 f i LIBCMTD:_ctype.obj
 0001:00053f70       __isxdigit_l               10054f70 f i LIBCMTD:_ctype.obj
 0001:00053ff0       _isalnum                   10054ff0 f i LIBCMTD:_ctype.obj
 0001:00054030       _isalpha                   10055030 f i LIBCMTD:_ctype.obj
 0001:00054070       _iscntrl                   10055070 f i LIBCMTD:_ctype.obj
 0001:000540a0       _isdigit                   100550a0 f i LIBCMTD:_ctype.obj
 0001:000540d0       _isgraph                   100550d0 f i LIBCMTD:_ctype.obj
 0001:00054110       _islower                   10055110 f i LIBCMTD:_ctype.obj
 0001:00054140       _isprint                   10055140 f i LIBCMTD:_ctype.obj
 0001:00054180       _ispunct                   10055180 f i LIBCMTD:_ctype.obj
 0001:000541b0       _isspace                   100551b0 f i LIBCMTD:_ctype.obj
 0001:000541e0       _isupper                   100551e0 f i LIBCMTD:_ctype.obj
 0001:00054210       _isxdigit                  10055210 f i LIBCMTD:_ctype.obj
 0001:00054250       __mbtowc_l                 10055250 f   LIBCMTD:mbtowc.obj
 0001:00054490       _mbtowc                    10055490 f   LIBCMTD:mbtowc.obj
 0001:000544b0       __allshl                   100554b0 f   LIBCMTD:llshl.obj
 0001:00054900       ?_RTC_GetSrcLine@@YAHPAEPA_WKPAH1K@Z 10055900 f   LIBCMTD:pdblkup.obj
 0001:00054bb0       ?_ValidateExecute@@YAHP6GHXZ@Z 10055bb0 f   LIBCMTD:validate.obj
 0001:00054bd0       ?_ValidateRead@@YAHPBXI@Z  10055bd0 f   LIBCMTD:validate.obj
 0001:00054bf0       ?_ValidateWrite@@YAHPAXI@Z 10055bf0 f   LIBCMTD:validate.obj
 0001:00054c10       ??0Block@_HeapManager@@QAE@XZ 10055c10 f i LIBCMTD:undname.obj
 0001:00054c30       ??0DName@@QAE@AAPBDD@Z     10055c30 f   LIBCMTD:undname.obj
 0001:00054ef0       ??0DName@@QAE@ABV0@@Z      10055ef0 f i LIBCMTD:undname.obj
 0001:00054f10       ??0DName@@QAE@D@Z          10055f10 f   LIBCMTD:undname.obj
 0001:00054ff0       ??0DName@@QAE@PAV0@@Z      10055ff0 f   LIBCMTD:undname.obj
 0001:00055130       ??0DName@@QAE@PBD@Z        10056130 f   LIBCMTD:undname.obj
 0001:00055220       ??0DName@@QAE@W4DNameStatus@@@Z 10056220 f   LIBCMTD:undname.obj
 0001:00055340       ??0DName@@QAE@XZ           10056340 f i LIBCMTD:undname.obj
 0001:00055400       ??0DName@@QAE@_J@Z         10056400 f   LIBCMTD:undname.obj
 0001:00055580       ??0DName@@QAE@_K@Z         10056580 f   LIBCMTD:undname.obj
 0001:000556c0       ??0DNameNode@@IAE@XZ       100566c0 f   LIBCMTD:undname.obj
 0001:000556e0       ??0DNameStatusNode@@AAE@W4DNameStatus@@@Z 100566e0 f   LIBCMTD:undname.obj
 0001:00055730       ??0Replicator@@QAE@XZ      10056730 f i LIBCMTD:undname.obj
 0001:00055750       ??0UnDecorator@@QAE@PADPBDHP6APADJ@ZK@Z 10056750 f i LIBCMTD:undname.obj
 0001:000557f0       ??0charNode@@QAE@D@Z       100567f0 f   LIBCMTD:undname.obj
 0001:00055820       ??0pDNameNode@@QAE@PAVDName@@@Z 10056820 f   LIBCMTD:undname.obj
 0001:00055880       ??0pairNode@@QAE@PAVDNameNode@@0@Z 10056880 f   LIBCMTD:undname.obj
 0001:000558c0       ??0pcharNode@@QAE@PBDH@Z   100568c0 f   LIBCMTD:undname.obj
 0001:00055960       ??2@YAPAXIAAV_HeapManager@@H@Z 10056960 f i LIBCMTD:undname.obj
 0001:00055980       ??4DName@@QAEAAV0@ABV0@@Z  10056980 f   LIBCMTD:undname.obj
 0001:000559a0       ??4DName@@QAEAAV0@D@Z      100569a0 f i LIBCMTD:undname.obj
 0001:00055a80       ??4DName@@QAEAAV0@PAV0@@Z  10056a80 f   LIBCMTD:undname.obj
 0001:00055bb0       ??4DName@@QAEAAV0@PBD@Z    10056bb0 f   LIBCMTD:undname.obj
 0001:00055c90       ??4DName@@QAEAAV0@W4DNameStatus@@@Z 10056c90 f   LIBCMTD:undname.obj
 0001:00055d90       ??AReplicator@@QBE?AVDName@@H@Z 10056d90 f   LIBCMTD:undname.obj
 0001:00055e00       ??BUnDecorator@@QAEPADXZ   10056e00 f i LIBCMTD:undname.obj
 0001:00056090       ??H@YA?AVDName@@DABV0@@Z   10057090 f i LIBCMTD:undname.obj
 0001:000560c0       ??H@YA?AVDName@@PBDABV0@@Z 100570c0 f i LIBCMTD:undname.obj
 0001:000560f0       ??H@YA?AVDName@@W4DNameStatus@@ABV0@@Z 100570f0 f i LIBCMTD:undname.obj
 0001:00056120       ??HDName@@QBE?AV0@ABV0@@Z  10057120 f   LIBCMTD:undname.obj
 0001:00056160       ??HDName@@QBE?AV0@D@Z      10057160 f   LIBCMTD:undname.obj
 0001:000561a0       ??HDName@@QBE?AV0@PAV0@@Z  100571a0 f   LIBCMTD:undname.obj
 0001:000561e0       ??HDName@@QBE?AV0@PBD@Z    100571e0 f   LIBCMTD:undname.obj
 0001:00056220       ??HDName@@QBE?AV0@W4DNameStatus@@@Z 10057220 f   LIBCMTD:undname.obj
 0001:00056260       ??YDName@@QAEAAV0@ABV0@@Z  10057260 f   LIBCMTD:undname.obj
 0001:000562d0       ??YDName@@QAEAAV0@D@Z      100572d0 f   LIBCMTD:undname.obj
 0001:00056350       ??YDName@@QAEAAV0@PAV0@@Z  10057350 f   LIBCMTD:undname.obj
 0001:00056400       ??YDName@@QAEAAV0@PBD@Z    10057400 f   LIBCMTD:undname.obj
 0001:000564a0       ??YDName@@QAEAAV0@W4DNameStatus@@@Z 100574a0 f   LIBCMTD:undname.obj
 0001:00056500       ??YReplicator@@QAEAAV0@ABVDName@@@Z 10057500 f   LIBCMTD:undname.obj
 0001:00056590       ??_5DName@@QAEAAV0@ABV0@@Z 10057590 f   LIBCMTD:undname.obj
 0001:000565f0       ?Constructor@_HeapManager@@QAEXP6APAXI@ZP6AXPAX@Z@Z 100575f0 f i LIBCMTD:undname.obj
 0001:00056630       ?Destructor@_HeapManager@@QAEXXZ 10057630 f i LIBCMTD:undname.obj
 0001:00056680       ?UScore@UnDecorator@@SAPBDW4Tokens@@@Z 10057680 f   LIBCMTD:undname.obj
 0001:000566b0       ?append@DName@@AAEXPAVDNameNode@@@Z 100576b0 f   LIBCMTD:undname.obj
 0001:00056740       ?composeDeclaration@UnDecorator@@CA?AVDName@@ABV2@@Z 10057740 f i LIBCMTD:undname.obj
 0001:000583c0       ?dbGetString@DName@@QBEPADXZ 100593c0 f   LIBCMTD:undname.obj
 0001:000583e0       ?doAccessSpecifiers@UnDecorator@@SAHXZ 100593e0 f i LIBCMTD:undname.obj
 0001:00058410       ?doAllocationLanguage@UnDecorator@@SAHXZ 10059410 f i LIBCMTD:undname.obj
 0001:00058440       ?doAllocationModel@UnDecorator@@SAHXZ 10059440 f i LIBCMTD:undname.obj
 0001:00058470       ?doEcsu@UnDecorator@@SAHXZ 10059470 f i LIBCMTD:undname.obj
 0001:000584a0       ?doEllipsis@UnDecorator@@SAHXZ 100594a0 f i LIBCMTD:undname.obj
 0001:000584d0       ?doFunctionReturns@UnDecorator@@SAHXZ 100594d0 f i LIBCMTD:undname.obj
 0001:00058500       ?doMSKeywords@UnDecorator@@SAHXZ 10059500 f i LIBCMTD:undname.obj
 0001:00058530       ?doMemberTypes@UnDecorator@@SAHXZ 10059530 f i LIBCMTD:undname.obj
 0001:00058560       ?doNameOnly@UnDecorator@@SAHXZ 10059560 f i LIBCMTD:undname.obj
 0001:00058570       ?doNoIdentCharCheck@UnDecorator@@SAHXZ 10059570 f i LIBCMTD:undname.obj
 0001:00058580       ?doPchar@DName@@AAEXPBDH@Z 10059580 f   LIBCMTD:undname.obj
 0001:000586c0       ?doPtr64@UnDecorator@@SAHXZ 100596c0 f i LIBCMTD:undname.obj
 0001:000586f0       ?doRestrictionSpec@UnDecorator@@SAHXZ 100596f0 f i LIBCMTD:undname.obj
 0001:00058720       ?doThisTypes@UnDecorator@@SAHXZ 10059720 f i LIBCMTD:undname.obj
 0001:00058750       ?doThrowTypes@UnDecorator@@SAHXZ 10059750 f i LIBCMTD:undname.obj
 0001:00058780       ?doTypeOnly@UnDecorator@@SAHXZ 10059780 f i LIBCMTD:undname.obj
 0001:00058790       ?doUnderScore@UnDecorator@@SAHXZ 10059790 f i LIBCMTD:undname.obj
 0001:000587c0       ?getArgumentList@UnDecorator@@CA?AVDName@@XZ 100597c0 f   LIBCMTD:undname.obj
 0001:00058910       ?getArgumentTypes@UnDecorator@@CA?AVDName@@XZ 10059910 f   LIBCMTD:undname.obj
 0001:00058a70       ?getArrayType@UnDecorator@@CA?AVDName@@ABV2@@Z 10059a70 f i LIBCMTD:undname.obj
 0001:00058cb0       ?getBasedType@UnDecorator@@CA?AVDName@@XZ 10059cb0 f   LIBCMTD:undname.obj
 0001:00058d70       ?getBasicDataType@UnDecorator@@CA?AVDName@@ABV2@@Z 10059d70 f   LIBCMTD:undname.obj
 0001:00059330       ?getCallIndex@UnDecorator@@CA?AVDName@@XZ 1005a330 f i LIBCMTD:undname.obj
 0001:00059350       ?getCallingConvention@UnDecorator@@CA?AVDName@@XZ 1005a350 f   LIBCMTD:undname.obj
 0001:000594c0       ?getDataIndirectType@UnDecorator@@CA?AVDName@@ABV2@PBD0H@Z 1005a4c0 f   LIBCMTD:undname.obj
 0001:00059bd0       ?getDataIndirectType@UnDecorator@@CA?AVDName@@XZ 1005abd0 f i LIBCMTD:undname.obj
 0001:00059c10       ?getDataType@UnDecorator@@CA?AVDName@@PAV2@@Z 1005ac10 f   LIBCMTD:undname.obj
 0001:00059d30       ?getDecoratedName@UnDecorator@@CA?AVDName@@XZ 1005ad30 f   LIBCMTD:undname.obj
 0001:0005a060       ?getDimension@UnDecorator@@CA?AVDName@@_N@Z 1005b060 f   LIBCMTD:undname.obj
 0001:0005a310       ?getDispatchTarget@UnDecorator@@CA?AVDName@@XZ 1005b310 f   LIBCMTD:undname.obj
 0001:0005a3b0       ?getDisplacement@UnDecorator@@CA?AVDName@@XZ 1005b3b0 f i LIBCMTD:undname.obj
 0001:0005a3d0       ?getECSUDataType@UnDecorator@@CA?AVDName@@XZ 1005b3d0 f   LIBCMTD:undname.obj
 0001:0005a5a0       ?getECSUName@UnDecorator@@CA?AVDName@@XZ 1005b5a0 f i LIBCMTD:undname.obj
 0001:0005a5c0       ?getEnumType@UnDecorator@@CA?AVDName@@XZ 1005b5c0 f i LIBCMTD:undname.obj
 0001:0005a710       ?getExtendedDataIndirectType@UnDecorator@@CA?AVDName@@AAPBDAA_NH@Z 1005b710 f   LIBCMTD:undname.obj
 0001:0005a960       ?getExternalDataType@UnDecorator@@CA?AVDName@@ABV2@@Z 1005b960 f i LIBCMTD:undname.obj
 0001:0005a9f0       ?getFunctionIndirectType@UnDecorator@@CA?AVDName@@ABV2@@Z 1005b9f0 f   LIBCMTD:undname.obj
 0001:0005ae60       ?getGuardNumber@UnDecorator@@CA?AVDName@@XZ 1005be60 f i LIBCMTD:undname.obj
 0001:0005ae80       ?getLastChar@DName@@QBEDXZ 1005be80 f i LIBCMTD:undname.obj
 0001:0005aeb0       ?getLastChar@DNameStatusNode@@UBEDXZ 1005beb0 f i LIBCMTD:undname.obj
 0001:0005aee0       ?getLastChar@charNode@@UBEDXZ 1005bee0 f i LIBCMTD:undname.obj
 0001:0005af00       ?getLastChar@pDNameNode@@UBEDXZ 1005bf00 f i LIBCMTD:undname.obj
 0001:0005af30       ?getLastChar@pairNode@@UBEDXZ 1005bf30 f i LIBCMTD:undname.obj
 0001:0005af80       ?getLastChar@pcharNode@@UBEDXZ 1005bf80 f i LIBCMTD:undname.obj
 0001:0005afc0       ?getLexicalFrame@UnDecorator@@CA?AVDName@@XZ 1005bfc0 f i LIBCMTD:undname.obj
 0001:0005b000       ?getMemory@_HeapManager@@QAEPAXIH@Z 1005c000 f   LIBCMTD:undname.obj
 0001:0005b110       ?getNumberOfDimensions@UnDecorator@@CAHXZ 1005c110 f   LIBCMTD:undname.obj
 0001:0005b210       ?getOperatorName@UnDecorator@@CA?AVDName@@_NPA_N@Z 1005c210 f i LIBCMTD:undname.obj
 0001:0005bba0       ?getPointerType@UnDecorator@@CA?AVDName@@ABV2@0@Z 1005cba0 f i LIBCMTD:undname.obj
 0001:0005bbd0       ?getPointerTypeArray@UnDecorator@@CA?AVDName@@ABV2@0@Z 1005cbd0 f i LIBCMTD:undname.obj
 0001:0005bc00       ?getPrimaryDataType@UnDecorator@@CA?AVDName@@ABV2@@Z 1005cc00 f   LIBCMTD:undname.obj
 0001:0005bfa0       ?getPtrRefDataType@UnDecorator@@CA?AVDName@@ABV2@H@Z 1005cfa0 f i LIBCMTD:undname.obj
 0001:0005c0e0       ?getPtrRefType@UnDecorator@@CA?AVDName@@ABV2@0PBD@Z 1005d0e0 f   LIBCMTD:undname.obj
 0001:0005c250       ?getReferenceType@UnDecorator@@CA?AVDName@@ABV2@0PBD@Z 1005d250 f i LIBCMTD:undname.obj
 0001:0005c270       ?getRestrictionSpec@UnDecorator@@CA?AVDName@@XZ 1005d270 f   LIBCMTD:undname.obj
 0001:0005c3c0       ?getReturnType@UnDecorator@@CA?AVDName@@PAV2@@Z 1005d3c0 f   LIBCMTD:undname.obj
 0001:0005c410       ?getScope@UnDecorator@@CA?AVDName@@XZ 1005d410 f   LIBCMTD:undname.obj
 0001:0005c900       ?getScopedName@UnDecorator@@CA?AVDName@@XZ 1005d900 f   LIBCMTD:undname.obj
 0001:0005ca20       ?getSignedDimension@UnDecorator@@CA?AVDName@@XZ 1005da20 f   LIBCMTD:undname.obj
 0001:0005caa0       ?getStorageConvention@UnDecorator@@CA?AVDName@@XZ 1005daa0 f i LIBCMTD:undname.obj
 0001:0005cac0       ?getString@DName@@QBEPADPAD0@Z 1005dac0 f i LIBCMTD:undname.obj
 0001:0005cb00       ?getString@DName@@QBEPADPADH@Z 1005db00 f i LIBCMTD:undname.obj
 0001:0005cb90       ?getString@DNameStatusNode@@UBEPADPAD0@Z 1005db90 f i LIBCMTD:undname.obj
 0001:0005cbd0       ?getString@charNode@@UBEPADPAD0@Z 1005dbd0 f i LIBCMTD:undname.obj
 0001:0005cc00       ?getString@pDNameNode@@UBEPADPAD0@Z 1005dc00 f i LIBCMTD:undname.obj
 0001:0005cc40       ?getString@pairNode@@UBEPADPAD0@Z 1005dc40 f i LIBCMTD:undname.obj
 0001:0005cca0       ?getString@pcharNode@@UBEPADPAD0@Z 1005dca0 f i LIBCMTD:undname.obj
 0001:0005ccd0       ?getStringEncoding@UnDecorator@@CA?AVDName@@PADH@Z 1005dcd0 f   LIBCMTD:undname.obj
 0001:0005cde0       ?getStringHelper@@YAPADPAD00H@Z 1005dde0 f i LIBCMTD:undname.obj
 0001:0005ce20       ?getSymbolName@UnDecorator@@CA?AVDName@@XZ 1005de20 f i LIBCMTD:undname.obj
 0001:0005ceb0       ?getTemplateArgumentList@UnDecorator@@CA?AVDName@@XZ 1005deb0 f   LIBCMTD:undname.obj
 0001:0005d130       ?getTemplateConstant@UnDecorator@@CA?AVDName@@XZ 1005e130 f   LIBCMTD:undname.obj
 0001:0005d600       ?getTemplateName@UnDecorator@@CA?AVDName@@_N@Z 1005e600 f   LIBCMTD:undname.obj
 0001:0005d7d0       ?getThisType@UnDecorator@@CA?AVDName@@XZ 1005e7d0 f i LIBCMTD:undname.obj
 0001:0005d810       ?getThrowTypes@UnDecorator@@CA?AVDName@@XZ 1005e810 f   LIBCMTD:undname.obj
 0001:0005d8c0       ?getTypeEncoding@UnDecorator@@CAHXZ 1005e8c0 f i LIBCMTD:undname.obj
 0001:0005e300       ?getVCallThunkType@UnDecorator@@CA?AVDName@@XZ 1005f300 f i LIBCMTD:undname.obj
 0001:0005e360       ?getVbTableType@UnDecorator@@CA?AVDName@@ABV2@@Z 1005f360 f i LIBCMTD:undname.obj
 0001:0005e380       ?getVdispMapType@UnDecorator@@CA?AVDName@@ABV2@@Z 1005f380 f i LIBCMTD:undname.obj
 0001:0005e3f0       ?getVfTableType@UnDecorator@@CA?AVDName@@ABV2@@Z 1005f3f0 f i LIBCMTD:undname.obj
 0001:0005e5b0       ?getZName@UnDecorator@@CA?AVDName@@_N0@Z 1005f5b0 f   LIBCMTD:undname.obj
 0001:0005e860       ?haveTemplateParameters@UnDecorator@@SAHXZ 1005f860 f i LIBCMTD:undname.obj
 0001:0005e870       ?isArray@DName@@QBEHXZ     1005f870 f i LIBCMTD:undname.obj
 0001:0005e890       ?isComArray@DName@@QBEHXZ  1005f890 f i LIBCMTD:undname.obj
 0001:0005e8b0       ?isEmpty@DName@@QBEHXZ     1005f8b0 f i LIBCMTD:undname.obj
 0001:0005e8e0       ?isFull@Replicator@@QBEHXZ 1005f8e0 f i LIBCMTD:undname.obj
 0001:0005e910       ?isNoTE@DName@@QBEHXZ      1005f910 f i LIBCMTD:undname.obj
 0001:0005e930       ?isPinPtr@DName@@QBEHXZ    1005f930 f i LIBCMTD:undname.obj
 0001:0005e950       ?isPtrRef@DName@@QBEHXZ    1005f950 f i LIBCMTD:undname.obj
 0001:0005e970       ?isUDC@DName@@QBEHXZ       1005f970 f i LIBCMTD:undname.obj
 0001:0005e9b0       ?isUDTThunk@DName@@QBEHXZ  1005f9b0 f i LIBCMTD:undname.obj
 0001:0005e9f0       ?isVCallThunk@DName@@QBEHXZ 1005f9f0 f i LIBCMTD:undname.obj
 0001:0005ea10       ?isValid@DName@@QBEHXZ     1005fa10 f i LIBCMTD:undname.obj
 0001:0005ea50       ?length@DName@@QBEHXZ      1005fa50 f i LIBCMTD:undname.obj
 0001:0005ea80       ?length@DNameStatusNode@@UBEHXZ 1005fa80 f i LIBCMTD:undname.obj
 0001:0005eaa0       ?length@charNode@@UBEHXZ   1005faa0 f i LIBCMTD:undname.obj
 0001:0005eab0       ?length@pDNameNode@@UBEHXZ 1005fab0 f i LIBCMTD:undname.obj
 0001:0005eae0       ?length@pairNode@@UBEHXZ   1005fae0 f i LIBCMTD:undname.obj
 0001:0005eb30       ?length@pcharNode@@UBEHXZ  1005fb30 f i LIBCMTD:undname.obj
 0001:0005eb50       ?make@DNameStatusNode@@SAPAV1@W4DNameStatus@@@Z 1005fb50 f i LIBCMTD:undname.obj
 0001:0005ec00       ?setIsArray@DName@@QAEXXZ  1005fc00 f i LIBCMTD:undname.obj
 0001:0005ec20       ?setIsComArray@DName@@QAEXXZ 1005fc20 f i LIBCMTD:undname.obj
 0001:0005ec40       ?setIsNoTE@DName@@QAEXXZ   1005fc40 f i LIBCMTD:undname.obj
 0001:0005ec60       ?setIsPinPtr@DName@@QAEXXZ 1005fc60 f i LIBCMTD:undname.obj
 0001:0005ec80       ?setIsUDC@DName@@QAEXXZ    1005fc80 f i LIBCMTD:undname.obj
 0001:0005ecb0       ?setIsVCallThunk@DName@@QAEXXZ 1005fcb0 f i LIBCMTD:undname.obj
 0001:0005ecd0       ?setPtrRef@DName@@QAEAAV1@XZ 1005fcd0 f i LIBCMTD:undname.obj
 0001:0005ecf0       ?status@DName@@QBE?AW4DNameStatus@@XZ 1005fcf0 f i LIBCMTD:undname.obj
 0001:0005edf0       ___unDName                 1005fdf0 f   LIBCMTD:undname.obj
 0001:0005eec0       ___unDNameEx               1005fec0 f   LIBCMTD:undname.obj
 0001:0005efa0       __tolower                  1005ffa0 f   LIBCMTD:tolower.obj
 0001:0005efb0       __tolower_l                1005ffb0 f   LIBCMTD:tolower.obj
 0001:0005f1f0       _tolower                   100601f0 f   LIBCMTD:tolower.obj
 0001:0005f240       __fptostr                  10060240 f   LIBCMTD:_fptostr.obj
 0001:0005f560       __atodbl                   10060560 f   LIBCMTD:atodbl.obj
 0001:0005f580       __atodbl_l                 10060580 f   LIBCMTD:atodbl.obj
 0001:0005f680       __atoflt                   10060680 f   LIBCMTD:atodbl.obj
 0001:0005f6a0       __atoflt_l                 100606a0 f   LIBCMTD:atodbl.obj
 0001:0005f7a0       __atoldbl                  100607a0 f   LIBCMTD:atodbl.obj
 0001:0005f7c0       __atoldbl_l                100607c0 f   LIBCMTD:atodbl.obj
 0001:0005f8c0       ___dtold                   100608c0 f   LIBCMTD:cfout.obj
 0001:0005fa20       __fltout2                  10060a20 f   LIBCMTD:cfout.obj
 0001:0005fad0       __alldiv                   10060ad0 f   LIBCMTD:lldiv.obj
 0001:0005fb80       __allrem                   10060b80 f   LIBCMTD:llrem.obj
 0001:0005fc40       __aullshr                  10060c40 f   LIBCMTD:ullshr.obj
 0001:0005fc60       __get_output_format        10060c60 f   LIBCMTD:outputformat.obj
 0001:0005fc70       __set_output_format        10060c70 f   LIBCMTD:outputformat.obj
 0001:0005fd10       __controlfp_s              10060d10 f   LIBCMTD:contrlfp.obj
 0001:0005fe00       __fptrap                   10060e00 f   LIBCMTD:crt0fp.obj
 0001:0005fe10       __matherr                  10060e10 f   LIBCMTD:matherr.obj
 0001:0005fe20       __frnd                     10060e20 f   LIBCMTD:frnd.obj
 0001:0005fe40       ___vswprintf_l             10060e40 f   LIBCMTD:vswprint.obj
 0001:0005fe60       __vscwprintf               10060e60 f   LIBCMTD:vswprint.obj
 0001:0005fe80       __vscwprintf_helper        10060e80 f   LIBCMTD:vswprint.obj
 0001:0005ff70       __vscwprintf_l             10060f70 f   LIBCMTD:vswprint.obj
 0001:0005ff90       __vscwprintf_p             10060f90 f   LIBCMTD:vswprint.obj
 0001:0005ffb0       __vscwprintf_p_l           10060fb0 f   LIBCMTD:vswprint.obj
 0001:0005ffd0       __vswprintf                10060fd0 f   LIBCMTD:vswprint.obj
 0001:0005fff0       __vswprintf_l              10060ff0 f   LIBCMTD:vswprint.obj
 0001:00060210       __vsnwprintf_s             10061210 f   LIBCMTD:vswprnc.obj
 0001:00060240       __vsnwprintf_s_l           10061240 f   LIBCMTD:vswprnc.obj
 0001:00060620       __vswprintf_c              10061620 f   LIBCMTD:vswprnc.obj
 0001:00060670       __vswprintf_c_l            10061670 f   LIBCMTD:vswprnc.obj
 0001:000606c0       __vswprintf_helper         100616c0 f   LIBCMTD:vswprnc.obj
 0001:00060930       __vswprintf_p              10061930 f   LIBCMTD:vswprnc.obj
 0001:00060980       __vswprintf_p_l            10061980 f   LIBCMTD:vswprnc.obj
 0001:000609d0       __vswprintf_s_l            100619d0 f   LIBCMTD:vswprnc.obj
 0001:00060c60       _vswprintf_s               10061c60 f   LIBCMTD:vswprnc.obj
 0001:00060c80       __woutput_l                10061c80 f   LIBCMTD:woutput.obj
 0001:00062260       _strcat_s                  10063260 f   LIBCMTD:strcat_s.obj
 0001:00062a90       __i64toa_s                 10063a90 f   LIBCMTD:xtoas.obj
 0001:00062ae0       __itoa_s                   10063ae0 f   LIBCMTD:xtoas.obj
 0001:00062b40       __ltoa_s                   10063b40 f   LIBCMTD:xtoas.obj
 0001:00062b80       __ui64toa_s                10063b80 f   LIBCMTD:xtoas.obj
 0001:00062ba0       __ultoa_s                  10063ba0 f   LIBCMTD:xtoas.obj
 0001:00062fa0       __mbstowcs_l               10063fa0 f   LIBCMTD:mbstowcs.obj
 0001:00062fc0       __mbstowcs_l_helper        10063fc0 f   LIBCMTD:mbstowcs.obj
 0001:00063350       __mbstowcs_s_l             10064350 f   LIBCMTD:mbstowcs.obj
 0001:00063710       _mbstowcs                  10064710 f   LIBCMTD:mbstowcs.obj
 0001:00063760       _mbstowcs_s                10064760 f   LIBCMTD:mbstowcs.obj
 0001:000637f0       __wcstombs_l               100647f0 f   LIBCMTD:wcstombs.obj
 0001:00063810       __wcstombs_l_helper        10064810 f   LIBCMTD:wcstombs.obj
 0001:00063d20       __wcstombs_s_l             10064d20 f   LIBCMTD:wcstombs.obj
 0001:00064080       _wcstombs                  10065080 f   LIBCMTD:wcstombs.obj
 0001:000640a0       _wcstombs_s                100650a0 f   LIBCMTD:wcstombs.obj
 0001:00064510       __i64tow_s                 10065510 f   LIBCMTD:xtows.obj
 0001:00064560       __itow_s                   10065560 f   LIBCMTD:xtows.obj
 0001:000645c0       __ltow_s                   100655c0 f   LIBCMTD:xtows.obj
 0001:00064600       __ui64tow_s                10065600 f   LIBCMTD:xtows.obj
 0001:00064620       __ultow_s                  10065620 f   LIBCMTD:xtows.obj
 0001:00064a40       __vsnprintf_c              10065a40 f   LIBCMTD:vsnprnc.obj
 0001:00064a90       __vsnprintf_c_l            10065a90 f   LIBCMTD:vsnprnc.obj
 0001:00064ae0       __vsnprintf_helper         10065ae0 f   LIBCMTD:vsnprnc.obj
 0001:00064ce0       __vsnprintf_s              10065ce0 f   LIBCMTD:vsnprnc.obj
 0001:00064d10       __vsnprintf_s_l            10065d10 f   LIBCMTD:vsnprnc.obj
 0001:000650d0       __vsprintf_p               100660d0 f   LIBCMTD:vsnprnc.obj
 0001:00065120       __vsprintf_p_l             10066120 f   LIBCMTD:vsnprnc.obj
 0001:00065170       __vsprintf_s_l             10066170 f   LIBCMTD:vsnprnc.obj
 0001:00065400       _vsprintf_s                10066400 f   LIBCMTD:vsnprnc.obj
 0001:00065420       __lseeki64                 10066420 f   LIBCMTD:lseeki64.obj
 0001:00065690       __lseeki64_nolock          10066690 f   LIBCMTD:lseeki64.obj
 0001:00065760       __getbuf                   10066760 f   LIBCMTD:_getbuf.obj
 0001:000658f0       __ismbbalnum               100668f0 f   LIBCMTD:ismbbyte.obj
 0001:00065910       __ismbbalnum_l             10066910 f   LIBCMTD:ismbbyte.obj
 0001:00065930       __ismbbalpha               10066930 f   LIBCMTD:ismbbyte.obj
 0001:00065950       __ismbbalpha_l             10066950 f   LIBCMTD:ismbbyte.obj
 0001:00065970       __ismbbgraph               10066970 f   LIBCMTD:ismbbyte.obj
 0001:00065990       __ismbbgraph_l             10066990 f   LIBCMTD:ismbbyte.obj
 0001:000659b0       __ismbbkalnum              100669b0 f   LIBCMTD:ismbbyte.obj
 0001:000659d0       __ismbbkalnum_l            100669d0 f   LIBCMTD:ismbbyte.obj
 0001:000659f0       __ismbbkana                100669f0 f   LIBCMTD:ismbbyte.obj
 0001:00065a10       __ismbbkana_l              10066a10 f   LIBCMTD:ismbbyte.obj
 0001:00065a80       __ismbbkprint              10066a80 f   LIBCMTD:ismbbyte.obj
 0001:00065aa0       __ismbbkprint_l            10066aa0 f   LIBCMTD:ismbbyte.obj
 0001:00065ac0       __ismbbkpunct              10066ac0 f   LIBCMTD:ismbbyte.obj
 0001:00065ae0       __ismbbkpunct_l            10066ae0 f   LIBCMTD:ismbbyte.obj
 0001:00065b00       __ismbblead                10066b00 f   LIBCMTD:ismbbyte.obj
 0001:00065b20       __ismbblead_l              10066b20 f   LIBCMTD:ismbbyte.obj
 0001:00065b40       __ismbbprint               10066b40 f   LIBCMTD:ismbbyte.obj
 0001:00065b60       __ismbbprint_l             10066b60 f   LIBCMTD:ismbbyte.obj
 0001:00065b80       __ismbbpunct               10066b80 f   LIBCMTD:ismbbyte.obj
 0001:00065ba0       __ismbbpunct_l             10066ba0 f   LIBCMTD:ismbbyte.obj
 0001:00065bc0       __ismbbtrail               10066bc0 f   LIBCMTD:ismbbyte.obj
 0001:00065be0       __ismbbtrail_l             10066be0 f   LIBCMTD:ismbbyte.obj
 0001:00065ef0       ___crtLCMapStringA         10066ef0 f   LIBCMTD:a_map.obj
 0001:00066060       ___crtGetStringTypeA       10067060 f   LIBCMTD:a_str.obj
 0001:000665b0       __strtol_l                 100675b0 f   LIBCMTD:strtol.obj
 0001:000665d0       __strtoul_l                100675d0 f   LIBCMTD:strtol.obj
 0001:000665f0       _strtol                    100675f0 f   LIBCMTD:strtol.obj
 0001:00066640       _strtoul                   10067640 f   LIBCMTD:strtol.obj
 0001:00066690       _wcsnlen                   10067690 f   LIBCMTD:wcslen_s.obj
 0001:000666d0       ___free_lconv_mon          100676d0 f   LIBCMTD:initmon.obj
 0001:00066880       ___init_monetary           10067880 f   LIBCMTD:initmon.obj
 0001:00066e90       ___free_lconv_num          10067e90 f   LIBCMTD:initnum.obj
 0001:00066f40       ___init_numeric            10067f40 f   LIBCMTD:initnum.obj
 0001:00067310       ___free_lc_time            10068310 f   LIBCMTD:inittime.obj
 0001:00067c40       ___init_time               10068c40 f   LIBCMTD:inittime.obj
 0001:00068c40       _localeconv                10069c40 f   LIBCMTD:lconv.obj
 0001:00068c90       ___init_dummy              10069c90 f   LIBCMTD:wsetloca.obj
 0001:00068ca0       __locterm                  10069ca0 f   LIBCMTD:wsetloca.obj
 0001:00068d30       ____setlc_active_func      10069d30 f   LIBCMTD:wsetloca.obj
 0001:00068d40       ____unguarded_readlc_active_add_func 10069d40 f   LIBCMTD:wsetloca.obj
 0001:00068d50       ___copy_locale_name        10069d50 f   LIBCMTD:wsetloca.obj
 0001:00068df0       ___create_locale           10069df0 f   LIBCMTD:wsetloca.obj
 0001:00068e10       ___free_locale             10069e10 f   LIBCMTD:wsetloca.obj
 0001:00068e30       ___get_current_locale      10069e30 f   LIBCMTD:wsetloca.obj
 0001:00068e40       ___lc_lctowcs              10069e40 f   LIBCMTD:wsetloca.obj
 0001:00068ef0       ___lc_wcstolc              10069ef0 f   LIBCMTD:wsetloca.obj
 0001:00069110       __configthreadlocale       1006a110 f   LIBCMTD:wsetloca.obj
 0001:00069270       __create_locale            1006a270 f   LIBCMTD:wsetloca.obj
 0001:000692e0       __expandlocale             1006a2e0 f   LIBCMTD:wsetloca.obj
 0001:000697d0       __free_locale              1006a7d0 f   LIBCMTD:wsetloca.obj
 0001:00069900       __get_current_locale       1006a900 f   LIBCMTD:wsetloca.obj
 0001:00069a20       __wcreate_locale           1006aa20 f   LIBCMTD:wsetloca.obj
 0001:00069c00       __wcscats                  1006ac00 f   LIBCMTD:wsetloca.obj
 0001:00069c80       __wsetlocale               1006ac80 f   LIBCMTD:wsetloca.obj
 0001:0006ad10       ___pctype_func             1006bd10 f   LIBCMTD:ctype.obj
 0001:0006ad60       ___pwctype_func            1006bd60 f   LIBCMTD:ctype.obj
 0001:0006ad70       __putwch                   1006bd70 f   LIBCMTD:putwch.obj
 0001:0006ae00       __putwch_nolock            1006be00 f   LIBCMTD:putwch.obj
 0001:0006af00       __wopen                    1006bf00 f   LIBCMTD:wopen.obj
 0001:0006b090       __wsopen                   1006c090 f   LIBCMTD:wopen.obj
 0001:0006b100       __wsopen_helper            1006c100 f   LIBCMTD:wopen.obj
 0001:0006b390       __wsopen_nolock            1006c390 f   LIBCMTD:wopen.obj
 0001:0006c400       __wsopen_s                 1006d400 f   LIBCMTD:wopen.obj
 0001:0006c430       _strncmp                   1006d430 f   LIBCMTD:strncmp.obj
 0001:0006c4b0       __strnicmp                 1006d4b0 f   LIBCMTD:strnicmp.obj
 0001:0006c680       __strnicmp_l               1006d680 f   LIBCMTD:strnicmp.obj
 0001:0006c910       __iswctype_l               1006d910 f   LIBCMTD:iswctype.obj
 0001:0006c930       _is_wctype                 1006d930 f   LIBCMTD:iswctype.obj
 0001:0006c950       _iswctype                  1006d950 f   LIBCMTD:iswctype.obj
 0001:0006c9b0       ____lc_codepage_func       1006d9b0 f   LIBCMTD:initctyp.obj
 0001:0006ca00       ____lc_collate_cp_func     1006da00 f   LIBCMTD:initctyp.obj
 0001:0006ca50       ____lc_locale_name_func    1006da50 f   LIBCMTD:initctyp.obj
 0001:0006caa0       ____mb_cur_max_func        1006daa0 f   LIBCMTD:initctyp.obj
 0001:0006caf0       ____mb_cur_max_l_func      1006daf0 f   LIBCMTD:initctyp.obj
 0001:0006cb20       ___init_ctype              1006db20 f   LIBCMTD:initctyp.obj
 0001:0006d160       __read                     1006e160 f   LIBCMTD:read.obj
 0001:0006d430       __read_nolock              1006e430 f   LIBCMTD:read.obj
 0001:0006e670       __wmakepath_s              1006f670 f   LIBCMTD:wmakepath_s.obj
 0001:0006ea30       __wsplitpath_s             1006fa30 f   LIBCMTD:wsplitpath_s.obj
 0001:0006f070       __atoi64                   10070070 f   LIBCMTD:atox.obj
 0001:0006f090       __atoi64_l                 10070090 f   LIBCMTD:atox.obj
 0001:0006f0b0       __atoi_l                   100700b0 f   LIBCMTD:atox.obj
 0001:0006f0d0       __atol_l                   100700d0 f   LIBCMTD:atox.obj
 0001:0006f0f0       _atoi                      100700f0 f   LIBCMTD:atox.obj
 0001:0006f110       _atol                      10070110 f   LIBCMTD:atox.obj
 0001:0006f130       __CopyMan                  10070130 f i LIBCMTD:intrncvt.obj
 0001:0006f180       __FillZeroMan              10070180 f i LIBCMTD:intrncvt.obj
 0001:0006f1b0       __IncMan                   100701b0 f i LIBCMTD:intrncvt.obj
 0001:0006f260       __IsZeroMan                10070260 f i LIBCMTD:intrncvt.obj
 0001:0006f2a0       __RoundMan                 100702a0 f i LIBCMTD:intrncvt.obj
 0001:0006f380       __ShrMan                   10070380 f i LIBCMTD:intrncvt.obj
 0001:0006f470       __ZeroTail                 10070470 f i LIBCMTD:intrncvt.obj
 0001:0006f500       ___addl                    10070500 f i LIBCMTD:intrncvt.obj
 0001:0006f540       __ld12cvt                  10070540 f i LIBCMTD:intrncvt.obj
 0001:0006f800       __ld12tod                  10070800 f   LIBCMTD:intrncvt.obj
 0001:0006f820       __ld12tof                  10070820 f   LIBCMTD:intrncvt.obj
 0001:0006f840       __ld12told                 10070840 f   LIBCMTD:intrncvt.obj
 0001:0006f940       ___STRINGTOLD_L            10070940 f   LIBCMTD:strgtold.obj
 0001:0006f9b0       ___ld12mul                 100709b0 f i LIBCMTD:strgtold.obj
 0001:0006fdc0       ___multtenpow12            10070dc0 f i LIBCMTD:strgtold.obj
 0001:0006fea0       ___shl_12                  10070ea0 f i LIBCMTD:strgtold.obj
 0001:0006ff20       ___shr_12                  10070f20 f i LIBCMTD:strgtold.obj
 0001:0006ffa0       ___strgtold12_l            10070fa0 f   LIBCMTD:strgtold.obj
 0001:00070a70       _$I10_OUTPUT               10071a70 f   LIBCMTD:x10fout.obj
 0001:00071080       ___add_12                  10072080 f i LIBCMTD:x10fout.obj
 0001:00071330       ___control87_2             10072330 f   LIBCMTD:ieee87.obj
 0001:000717d0       __clearfp                  100727d0 f   LIBCMTD:ieee87.obj
 0001:00071810       __control87                10072810 f i LIBCMTD:ieee87.obj
 0001:000718c0       __controlfp                100728c0 f   LIBCMTD:ieee87.obj
 0001:000718e0       __fpreset                  100728e0 f   LIBCMTD:ieee87.obj
 0001:00071aa0       __set_controlfp            10072aa0 f   LIBCMTD:ieee87.obj
 0001:00071b30       __statusfp                 10072b30 f   LIBCMTD:ieee87.obj
 0001:00071b70       __statusfp2                10072b70 f   LIBCMTD:ieee87.obj
 0001:00071bb0       __validate_param_reuseW    10072bb0 f   LIBCMTD:woutputp.obj
 0001:00071e90       __woutput_p_l              10072e90 f   LIBCMTD:woutputp.obj
 0001:00075980       __woutput_s_l              10076980 f   LIBCMTD:woutputs.obj
 0001:000770c0       __fputwc_nolock            100780c0 f   LIBCMTD:fputwc.obj
 0001:000773b0       _fputwc                    100783b0 f   LIBCMTD:fputwc.obj
 0001:000774c0       _putwc                     100784c0 f   LIBCMTD:fputwc.obj
 0001:000774e0       ___init_collate            100784e0 f   LIBCMTD:initcoll.obj
 0001:000776a0       _memcmp                    100786a0 f   LIBCMTD:memcmp.obj
 0001:00077f70       _wcscmp                    10078f70 f   LIBCMTD:wcscmp.obj
 0001:00077fd0       _wcscspn                   10078fd0 f   LIBCMTD:wcscspn.obj
 0001:00078040       _wcsncmp                   10079040 f   LIBCMTD:wcsncmp.obj
 0001:000780a0       _wcspbrk                   100790a0 f   LIBCMTD:wcspbrk.obj
 0001:00078c40       ___get_qualified_locale    10079c40 f   LIBCMTD:getqloc.obj
 0001:00079c20       ___get_qualified_locale_downlevel 1007ac20 f   LIBCMTD:getqloc_downlevel.obj
 0001:00079ef0       ___termconout              1007aef0 f   LIBCMTD:initcon.obj
 0001:00079f20       ___initconout              1007af20 f   LIBCMTD:initcon.obj
 0001:00079f50       __chsize                   1007af50 f   LIBCMTD:chsize.obj
 0001:00079f90       __chsize_nolock            1007af90 f   LIBCMTD:chsize.obj
 0001:0007a240       __chsize_s                 1007b240 f   LIBCMTD:chsize.obj
 0001:0007a500       __get_fmode                1007b500 f   LIBCMTD:setmode.obj
 0001:0007a5a0       __set_fmode                1007b5a0 f   LIBCMTD:setmode.obj
 0001:0007a650       __setmode                  1007b650 f   LIBCMTD:setmode.obj
 0001:0007a910       __setmode_nolock           1007b910 f   LIBCMTD:setmode.obj
 0001:0007ab80       ___ascii_strnicmp          1007bb80 f   LIBCMTD:_strnicm.obj
 0001:0007b120       __strtoi64                 1007c120 f   LIBCMTD:strtoq.obj
 0001:0007b170       __strtoi64_l               1007c170 f   LIBCMTD:strtoq.obj
 0001:0007b190       __strtoui64                1007c190 f   LIBCMTD:strtoq.obj
 0001:0007b1e0       __strtoui64_l              1007c1e0 f   LIBCMTD:strtoq.obj
 0001:0007b200       ___mtold12                 1007c200 f   LIBCMTD:mantold.obj
 0001:0007b710       __wcstol_l                 1007c710 f   LIBCMTD:wcstol.obj
 0001:0007b730       __wcstoul_l                1007c730 f   LIBCMTD:wcstol.obj
 0001:0007b750       _wcstol                    1007c750 f   LIBCMTD:wcstol.obj
 0001:0007b770       _wcstoul                   1007c770 f   LIBCMTD:wcstol.obj
 0001:0007b790       __flswbuf                  1007c790 f   LIBCMTD:_flswbuf.obj
 0001:0007ba80       __wtoi                     1007ca80 f   LIBCMTD:wtox.obj
 0001:0007baa0       __wtoi64                   1007caa0 f   LIBCMTD:wtox.obj
 0001:0007bac0       __wtoi64_l                 1007cac0 f   LIBCMTD:wtox.obj
 0001:0007bae0       __wtoi_l                   1007cae0 f   LIBCMTD:wtox.obj
 0001:0007bb00       __wtol                     1007cb00 f   LIBCMTD:wtox.obj
 0001:0007bb20       __wtol_l                   1007cb20 f   LIBCMTD:wtox.obj
 0001:0007bb40       _wcschr                    1007cb40 f   LIBCMTD:wcschr.obj
 0001:0007bcc0       __wcsicmp                  1007ccc0 f   LIBCMTD:wcsicmp.obj
 0001:0007be90       __wcsicmp_l                1007ce90 f   LIBCMTD:wcsicmp.obj
 0001:0007c100       __wcsnicmp                 1007d100 f   LIBCMTD:wcsnicmp.obj
 0001:0007c2f0       __wcsnicmp_l               1007d2f0 f   LIBCMTD:wcsnicmp.obj
 0001:0007c550       __allmul                   1007d550 f   LIBCMTD:llmul.obj
 0001:0007c590       __wchartodigit             1007d590 f   LIBCMTD:wchtodig.obj
 0001:0007ce00       __wcstoi64                 1007de00 f   LIBCMTD:wcstoq.obj
 0001:0007ce50       __wcstoi64_l               1007de50 f   LIBCMTD:wcstoq.obj
 0001:0007ce70       __wcstoui64                1007de70 f   LIBCMTD:wcstoq.obj
 0001:0007cec0       __wcstoui64_l              1007dec0 f   LIBCMTD:wcstoq.obj
 0001:0007cee0       __towlower_l               1007dee0 f   LIBCMTD:towlower.obj
 0001:0007d030       _towlower                  1007e030 f   LIBCMTD:towlower.obj
 0001:0007d050       ___crtLCMapStringW         1007e050 f   LIBCMTD:w_map.obj
 0001:0007d08e       _InterlockedIncrement@4    1007e08e f   kernel32:KERNEL32.dll
 0001:0007d094       _InterlockedDecrement@4    1007e094 f   kernel32:KERNEL32.dll
 0001:0007d09a       _EnterCriticalSection@4    1007e09a f   kernel32:KERNEL32.dll
 0001:0007d0a0       _LeaveCriticalSection@4    1007e0a0 f   kernel32:KERNEL32.dll
 0001:0007d0a6       _DeleteCriticalSection@4   1007e0a6 f   kernel32:KERNEL32.dll
 0001:0007d0ac       _Sleep@4                   1007e0ac f   kernel32:KERNEL32.dll
 0001:0007d0b2       _InterlockedExchange@8     1007e0b2 f   kernel32:KERNEL32.dll
 0001:0007d0b8       _EncodePointer@4           1007e0b8 f   kernel32:KERNEL32.dll
 0001:0007d0be       _DecodePointer@4           1007e0be f   kernel32:KERNEL32.dll
 0001:0007d0c4       _GetSystemTimeAsFileTime@4 1007e0c4 f   kernel32:KERNEL32.dll
 0001:0007d0ca       _RaiseException@16         1007e0ca f   kernel32:KERNEL32.dll
 0001:0007d0d0       _RtlUnwind@16              1007e0d0 f   kernel32:KERNEL32.dll
 0001:0007d0d6       _IsDebuggerPresent@0       1007e0d6 f   kernel32:KERNEL32.dll
 0001:0007d0dc       _IsProcessorFeaturePresent@4 1007e0dc f   kernel32:KERNEL32.dll
 0001:0007d0e2       _GetModuleFileNameW@12     1007e0e2 f   kernel32:KERNEL32.dll
 0001:0007d0e8       _GetModuleHandleExW@12     1007e0e8 f   kernel32:KERNEL32.dll
 0001:0007d0ee       _GetCommandLineA@0         1007e0ee f   kernel32:KERNEL32.dll
 0001:0007d0f4       _GetCurrentThreadId@0      1007e0f4 f   kernel32:KERNEL32.dll
 0001:0007d0fa       _GetLastError@0            1007e0fa f   kernel32:KERNEL32.dll
 0001:0007d100       _ExitProcess@4             1007e100 f   kernel32:KERNEL32.dll
 0001:0007d106       _GetProcAddress@8          1007e106 f   kernel32:KERNEL32.dll
 0001:0007d10c       _AreFileApisANSI@0         1007e10c f   kernel32:KERNEL32.dll
 0001:0007d112       _MultiByteToWideChar@24    1007e112 f   kernel32:KERNEL32.dll
 0001:0007d118       _InitializeCriticalSectionAndSpinCount@8 1007e118 f   kernel32:KERNEL32.dll
 0001:0007d11e       _FatalAppExitA@8           1007e11e f   kernel32:KERNEL32.dll
 0001:0007d124       _UnhandledExceptionFilter@4 1007e124 f   kernel32:KERNEL32.dll
 0001:0007d12a       _SetUnhandledExceptionFilter@4 1007e12a f   kernel32:KERNEL32.dll
 0001:0007d130       _SetLastError@4            1007e130 f   kernel32:KERNEL32.dll
 0001:0007d136       _GetCurrentProcess@0       1007e136 f   kernel32:KERNEL32.dll
 0001:0007d13c       _TerminateProcess@8        1007e13c f   kernel32:KERNEL32.dll
 0001:0007d142       _TlsAlloc@0                1007e142 f   kernel32:KERNEL32.dll
 0001:0007d148       _TlsGetValue@4             1007e148 f   kernel32:KERNEL32.dll
 0001:0007d14e       _TlsSetValue@8             1007e14e f   kernel32:KERNEL32.dll
 0001:0007d154       _TlsFree@4                 1007e154 f   kernel32:KERNEL32.dll
 0001:0007d15a       _GetStartupInfoW@4         1007e15a f   kernel32:KERNEL32.dll
 0001:0007d160       _GetModuleHandleW@4        1007e160 f   kernel32:KERNEL32.dll
 0001:0007d166       _CreateSemaphoreW@16       1007e166 f   kernel32:KERNEL32.dll
 0001:0007d16c       _GetStdHandle@4            1007e16c f   kernel32:KERNEL32.dll
 0001:0007d172       _WriteFile@20              1007e172 f   kernel32:KERNEL32.dll
 0001:0007d178       _HeapValidate@12           1007e178 f   kernel32:KERNEL32.dll
 0001:0007d17e       _GetSystemInfo@4           1007e17e f   kernel32:KERNEL32.dll
 0001:0007d184       _CloseHandle@4             1007e184 f   kernel32:KERNEL32.dll
 0001:0007d18a       _GetFileType@4             1007e18a f   kernel32:KERNEL32.dll
 0001:0007d190       _GetCurrentThread@0        1007e190 f   kernel32:KERNEL32.dll
 0001:0007d196       _LoadLibraryExW@12         1007e196 f   kernel32:KERNEL32.dll
 0001:0007d19c       _lstrlenA@4                1007e19c f   kernel32:KERNEL32.dll
 0001:0007d1a2       _LoadLibraryW@4            1007e1a2 f   kernel32:KERNEL32.dll
 0001:0007d1a8       _WideCharToMultiByte@32    1007e1a8 f   kernel32:KERNEL32.dll
 0001:0007d1ae       _SetConsoleCtrlHandler@8   1007e1ae f   kernel32:KERNEL32.dll
 0001:0007d1b4       _OutputDebugStringW@4      1007e1b4 f   kernel32:KERNEL32.dll
 0001:0007d1ba       _WaitForSingleObjectEx@12  1007e1ba f   kernel32:KERNEL32.dll
 0001:0007d1c0       _CreateThread@24           1007e1c0 f   kernel32:KERNEL32.dll
 0001:0007d1c6       _OutputDebugStringA@4      1007e1c6 f   kernel32:KERNEL32.dll
 0001:0007d1cc       _WriteConsoleW@20          1007e1cc f   kernel32:KERNEL32.dll
 0001:0007d1d2       _GetProcessHeap@0          1007e1d2 f   kernel32:KERNEL32.dll
 0001:0007d1d8       _GetModuleFileNameA@12     1007e1d8 f   kernel32:KERNEL32.dll
 0001:0007d1de       _QueryPerformanceCounter@4 1007e1de f   kernel32:KERNEL32.dll
 0001:0007d1e4       _GetCurrentProcessId@0     1007e1e4 f   kernel32:KERNEL32.dll
 0001:0007d1ea       _GetEnvironmentStringsW@0  1007e1ea f   kernel32:KERNEL32.dll
 0001:0007d1f0       _FreeEnvironmentStringsW@4 1007e1f0 f   kernel32:KERNEL32.dll
 0001:0007d1f6       _FreeLibrary@4             1007e1f6 f   kernel32:KERNEL32.dll
 0001:0007d1fc       _IsValidCodePage@4         1007e1fc f   kernel32:KERNEL32.dll
 0001:0007d202       _GetACP@0                  1007e202 f   kernel32:KERNEL32.dll
 0001:0007d208       _GetOEMCP@0                1007e208 f   kernel32:KERNEL32.dll
 0001:0007d20e       _GetCPInfo@8               1007e20e f   kernel32:KERNEL32.dll
 0001:0007d214       _GetDateFormatW@24         1007e214 f   kernel32:KERNEL32.dll
 0001:0007d21a       _GetTimeFormatW@24         1007e21a f   kernel32:KERNEL32.dll
 0001:0007d220       _CompareStringW@24         1007e220 f   kernel32:KERNEL32.dll
 0001:0007d226       _LCMapStringW@24           1007e226 f   kernel32:KERNEL32.dll
 0001:0007d22c       _GetLocaleInfoW@16         1007e22c f   kernel32:KERNEL32.dll
 0001:0007d232       _IsValidLocale@8           1007e232 f   kernel32:KERNEL32.dll
 0001:0007d238       _GetUserDefaultLCID@0      1007e238 f   kernel32:KERNEL32.dll
 0001:0007d23e       _EnumSystemLocalesW@8      1007e23e f   kernel32:KERNEL32.dll
 0001:0007d244       _HeapFree@12               1007e244 f   kernel32:KERNEL32.dll
 0001:0007d24a       _HeapReAlloc@16            1007e24a f   kernel32:KERNEL32.dll
 0001:0007d250       _HeapSize@12               1007e250 f   kernel32:KERNEL32.dll
 0001:0007d256       _HeapQueryInformation@20   1007e256 f   kernel32:KERNEL32.dll
 0001:0007d25c       _HeapAlloc@12              1007e25c f   kernel32:KERNEL32.dll
 0001:0007d262       _SetStdHandle@8            1007e262 f   kernel32:KERNEL32.dll
 0001:0007d268       _FlushFileBuffers@4        1007e268 f   kernel32:KERNEL32.dll
 0001:0007d26e       _GetConsoleCP@0            1007e26e f   kernel32:KERNEL32.dll
 0001:0007d274       _GetConsoleMode@8          1007e274 f   kernel32:KERNEL32.dll
 0001:0007d27a       _VirtualQuery@12           1007e27a f   kernel32:KERNEL32.dll
 0001:0007d280       _SetFilePointerEx@20       1007e280 f   kernel32:KERNEL32.dll
 0001:0007d286       _GetStringTypeW@16         1007e286 f   kernel32:KERNEL32.dll
 0001:0007d28c       _CreateFileW@28            1007e28c f   kernel32:KERNEL32.dll
 0001:0007d292       _ReadFile@20               1007e292 f   kernel32:KERNEL32.dll
 0001:0007d298       _ReadConsoleW@20           1007e298 f   kernel32:KERNEL32.dll
 0001:0007d29e       _SetEndOfFile@4            1007e29e f   kernel32:KERNEL32.dll
 0002:00000000       __imp__TlsAlloc@0          10080000     kernel32:KERNEL32.dll
 0002:00000004       __imp__SetEndOfFile@4      10080004     kernel32:KERNEL32.dll
 0002:00000008       __imp__ReadConsoleW@20     10080008     kernel32:KERNEL32.dll
 0002:0000000c       __imp__ReadFile@20         1008000c     kernel32:KERNEL32.dll
 0002:00000010       __imp__CreateFileW@28      10080010     kernel32:KERNEL32.dll
 0002:00000014       __imp__GetStringTypeW@16   10080014     kernel32:KERNEL32.dll
 0002:00000018       __imp__SetFilePointerEx@20 10080018     kernel32:KERNEL32.dll
 0002:0000001c       __imp__VirtualQuery@12     1008001c     kernel32:KERNEL32.dll
 0002:00000020       __imp__GetConsoleMode@8    10080020     kernel32:KERNEL32.dll
 0002:00000024       __imp__GetConsoleCP@0      10080024     kernel32:KERNEL32.dll
 0002:00000028       __imp__FlushFileBuffers@4  10080028     kernel32:KERNEL32.dll
 0002:0000002c       __imp__SetStdHandle@8      1008002c     kernel32:KERNEL32.dll
 0002:00000030       __imp__HeapAlloc@12        10080030     kernel32:KERNEL32.dll
 0002:00000034       __imp__HeapQueryInformation@20 10080034     kernel32:KERNEL32.dll
 0002:00000038       __imp__HeapSize@12         10080038     kernel32:KERNEL32.dll
 0002:0000003c       __imp__HeapReAlloc@16      1008003c     kernel32:KERNEL32.dll
 0002:00000040       __imp__HeapFree@12         10080040     kernel32:KERNEL32.dll
 0002:00000044       __imp__EnumSystemLocalesW@8 10080044     kernel32:KERNEL32.dll
 0002:00000048       __imp__GetUserDefaultLCID@0 10080048     kernel32:KERNEL32.dll
 0002:0000004c       __imp__IsValidLocale@8     1008004c     kernel32:KERNEL32.dll
 0002:00000050       __imp__GetLocaleInfoW@16   10080050     kernel32:KERNEL32.dll
 0002:00000054       __imp__LCMapStringW@24     10080054     kernel32:KERNEL32.dll
 0002:00000058       __imp__CompareStringW@24   10080058     kernel32:KERNEL32.dll
 0002:0000005c       __imp__GetTimeFormatW@24   1008005c     kernel32:KERNEL32.dll
 0002:00000060       __imp__GetDateFormatW@24   10080060     kernel32:KERNEL32.dll
 0002:00000064       __imp__GetCPInfo@8         10080064     kernel32:KERNEL32.dll
 0002:00000068       __imp__GetOEMCP@0          10080068     kernel32:KERNEL32.dll
 0002:0000006c       __imp__GetACP@0            1008006c     kernel32:KERNEL32.dll
 0002:00000070       __imp__IsValidCodePage@4   10080070     kernel32:KERNEL32.dll
 0002:00000074       __imp__FreeLibrary@4       10080074     kernel32:KERNEL32.dll
 0002:00000078       __imp__InterlockedIncrement@4 10080078     kernel32:KERNEL32.dll
 0002:0000007c       __imp__InterlockedDecrement@4 1008007c     kernel32:KERNEL32.dll
 0002:00000080       __imp__EnterCriticalSection@4 10080080     kernel32:KERNEL32.dll
 0002:00000084       __imp__LeaveCriticalSection@4 10080084     kernel32:KERNEL32.dll
 0002:00000088       __imp__DeleteCriticalSection@4 10080088     kernel32:KERNEL32.dll
 0002:0000008c       __imp__Sleep@4             1008008c     kernel32:KERNEL32.dll
 0002:00000090       __imp__InterlockedExchange@8 10080090     kernel32:KERNEL32.dll
 0002:00000094       __imp__EncodePointer@4     10080094     kernel32:KERNEL32.dll
 0002:00000098       __imp__DecodePointer@4     10080098     kernel32:KERNEL32.dll
 0002:0000009c       __imp__GetSystemTimeAsFileTime@4 1008009c     kernel32:KERNEL32.dll
 0002:000000a0       __imp__RaiseException@16   100800a0     kernel32:KERNEL32.dll
 0002:000000a4       __imp__RtlUnwind@16        100800a4     kernel32:KERNEL32.dll
 0002:000000a8       __imp__IsDebuggerPresent@0 100800a8     kernel32:KERNEL32.dll
 0002:000000ac       __imp__IsProcessorFeaturePresent@4 100800ac     kernel32:KERNEL32.dll
 0002:000000b0       __imp__GetModuleFileNameW@12 100800b0     kernel32:KERNEL32.dll
 0002:000000b4       __imp__GetModuleHandleExW@12 100800b4     kernel32:KERNEL32.dll
 0002:000000b8       __imp__GetCommandLineA@0   100800b8     kernel32:KERNEL32.dll
 0002:000000bc       __imp__GetCurrentThreadId@0 100800bc     kernel32:KERNEL32.dll
 0002:000000c0       __imp__GetLastError@0      100800c0     kernel32:KERNEL32.dll
 0002:000000c4       __imp__ExitProcess@4       100800c4     kernel32:KERNEL32.dll
 0002:000000c8       __imp__GetProcAddress@8    100800c8     kernel32:KERNEL32.dll
 0002:000000cc       __imp__AreFileApisANSI@0   100800cc     kernel32:KERNEL32.dll
 0002:000000d0       __imp__MultiByteToWideChar@24 100800d0     kernel32:KERNEL32.dll
 0002:000000d4       __imp__InitializeCriticalSectionAndSpinCount@8 100800d4     kernel32:KERNEL32.dll
 0002:000000d8       __imp__FatalAppExitA@8     100800d8     kernel32:KERNEL32.dll
 0002:000000dc       __imp__UnhandledExceptionFilter@4 100800dc     kernel32:KERNEL32.dll
 0002:000000e0       __imp__SetUnhandledExceptionFilter@4 100800e0     kernel32:KERNEL32.dll
 0002:000000e4       __imp__SetLastError@4      100800e4     kernel32:KERNEL32.dll
 0002:000000e8       __imp__GetCurrentProcess@0 100800e8     kernel32:KERNEL32.dll
 0002:000000ec       __imp__TerminateProcess@8  100800ec     kernel32:KERNEL32.dll
 0002:000000f0       __imp__TlsGetValue@4       100800f0     kernel32:KERNEL32.dll
 0002:000000f4       __imp__TlsSetValue@8       100800f4     kernel32:KERNEL32.dll
 0002:000000f8       __imp__TlsFree@4           100800f8     kernel32:KERNEL32.dll
 0002:000000fc       __imp__GetStartupInfoW@4   100800fc     kernel32:KERNEL32.dll
 0002:00000100       __imp__GetModuleHandleW@4  10080100     kernel32:KERNEL32.dll
 0002:00000104       __imp__CreateSemaphoreW@16 10080104     kernel32:KERNEL32.dll
 0002:00000108       __imp__GetStdHandle@4      10080108     kernel32:KERNEL32.dll
 0002:0000010c       __imp__WriteFile@20        1008010c     kernel32:KERNEL32.dll
 0002:00000110       __imp__HeapValidate@12     10080110     kernel32:KERNEL32.dll
 0002:00000114       __imp__GetSystemInfo@4     10080114     kernel32:KERNEL32.dll
 0002:00000118       __imp__CloseHandle@4       10080118     kernel32:KERNEL32.dll
 0002:0000011c       __imp__GetFileType@4       1008011c     kernel32:KERNEL32.dll
 0002:00000120       __imp__GetCurrentThread@0  10080120     kernel32:KERNEL32.dll
 0002:00000124       __imp__LoadLibraryExW@12   10080124     kernel32:KERNEL32.dll
 0002:00000128       __imp__lstrlenA@4          10080128     kernel32:KERNEL32.dll
 0002:0000012c       __imp__LoadLibraryW@4      1008012c     kernel32:KERNEL32.dll
 0002:00000130       __imp__WideCharToMultiByte@32 10080130     kernel32:KERNEL32.dll
 0002:00000134       __imp__SetConsoleCtrlHandler@8 10080134     kernel32:KERNEL32.dll
 0002:00000138       __imp__OutputDebugStringW@4 10080138     kernel32:KERNEL32.dll
 0002:0000013c       __imp__WaitForSingleObjectEx@12 1008013c     kernel32:KERNEL32.dll
 0002:00000140       __imp__CreateThread@24     10080140     kernel32:KERNEL32.dll
 0002:00000144       __imp__OutputDebugStringA@4 10080144     kernel32:KERNEL32.dll
 0002:00000148       __imp__WriteConsoleW@20    10080148     kernel32:KERNEL32.dll
 0002:0000014c       __imp__GetProcessHeap@0    1008014c     kernel32:KERNEL32.dll
 0002:00000150       __imp__GetModuleFileNameA@12 10080150     kernel32:KERNEL32.dll
 0002:00000154       __imp__QueryPerformanceCounter@4 10080154     kernel32:KERNEL32.dll
 0002:00000158       __imp__GetCurrentProcessId@0 10080158     kernel32:KERNEL32.dll
 0002:0000015c       __imp__GetEnvironmentStringsW@0 1008015c     kernel32:KERNEL32.dll
 0002:00000160       __imp__FreeEnvironmentStringsW@4 10080160     kernel32:KERNEL32.dll
 0002:00000164       \177KERNEL32_NULL_THUNK_DATA 10080164     kernel32:KERNEL32.dll
 0002:00000168       __imp_?GfuiKeyEventRegisterCurrent@@YAXP6AHEHH@Z@Z 10080168     client:client.dll
 0002:0000016c       __imp_?GfuiSKeyEventRegisterCurrent@@YAXP6AHHHH@Z@Z 1008016c     client:client.dll
 0002:00000170       __imp_?GfuiMouseShow@@YAXXZ 10080170     client:client.dll
 0002:00000174       __imp_?GfctrlJoyInit@@YAPAUtCtrlJoyInfo@@XZ 10080174     client:client.dll
 0002:00000178       __imp_?GfctrlJoyGetCurrent@@YAHPAUtCtrlJoyInfo@@@Z 10080178     client:client.dll
 0002:0000017c       __imp_?GfctrlJoyRelease@@YAXPAUtCtrlJoyInfo@@@Z 1008017c     client:client.dll
 0002:00000180       __imp_?GfctrlMouseInit@@YAPAUtCtrlMouseInfo@@XZ 10080180     client:client.dll
 0002:00000184       __imp_?GfctrlMouseGetCurrent@@YAHPAUtCtrlMouseInfo@@@Z 10080184     client:client.dll
 0002:00000188       __imp_?GfctrlMouseRelease@@YAXPAUtCtrlMouseInfo@@@Z 10080188     client:client.dll
 0002:0000018c       __imp_?GfctrlMouseCenter@@YAXXZ 1008018c     client:client.dll
 0002:00000190       __imp_?GfctrlMouseInitCenter@@YAXXZ 10080190     client:client.dll
 0002:00000194       __imp_?GfctrlGetRefByName@@YAPAUtCtrlRef@@PBD@Z 10080194     client:client.dll
 0002:00000198       __imp_?GfctrlGetNameByRef@@YAPBDHH@Z 10080198     client:client.dll
 0002:0000019c       __imp_?GfScrGetSize@@YAXPAH000@Z 1008019c     client:client.dll
 0002:000001a0       \177client_NULL_THUNK_DATA 100801a0     client:client.dll
 0002:000001a4       __imp_?RtTrackSideTgAngleL@@YAMPAUtTrkLocPos@@@Z 100801a4     robottools:robottools.dll
 0002:000001a8       __imp_?RtGetDistFromStart@@YAMPAUCarElt@@@Z 100801a8     robottools:robottools.dll
 0002:000001ac       \177robottools_NULL_THUNK_DATA 100801ac     robottools:robottools.dll
 0002:000001b0       __imp_?_tgf_win_free@@YAXPAX@Z 100801b0     tgf:tgf.dll
 0002:000001b4       __imp_?_tgf_win_strdup@@YAPADPBD@Z 100801b4     tgf:tgf.dll
 0002:000001b8       __imp_?GfParmReadFile@@YAPAXPBDH@Z 100801b8     tgf:tgf.dll
 0002:000001bc       __imp_?GfParmWriteFile@@YAHPBDPAX0@Z 100801bc     tgf:tgf.dll
 0002:000001c0       __imp_?_tgf_win_calloc@@YAPAXII@Z 100801c0     tgf:tgf.dll
 0002:000001c4       __imp_?GfParmSetNum@@YAHPAXPBD11M@Z 100801c4     tgf:tgf.dll
 0002:000001c8       __imp_?GfParmReleaseHandle@@YAXPAX@Z 100801c8     tgf:tgf.dll
 0002:000001cc       __imp_?GetLocalDir@@YAPADXZ 100801cc     tgf:tgf.dll
 0002:000001d0       __imp_?GfParmGetNum@@YAMPAXPBD11M@Z 100801d0     tgf:tgf.dll
 0002:000001d4       __imp_?GfParmSetStr@@YAHPAXPBD11@Z 100801d4     tgf:tgf.dll
 0002:000001d8       __imp_?GfParmGetStr@@YAPBDPAXPBD11@Z 100801d8     tgf:tgf.dll
 0002:000001dc       \177tgf_NULL_THUNK_DATA    100801dc     tgf:tgf.dll
 0002:000001e0       ___xc_a                    100801e0     LIBCMTD:crt0init.obj
 0002:00000240       ___xc_z                    10080240     LIBCMTD:crt0init.obj
 0002:00000244       ___xi_a                    10080244     LIBCMTD:crt0init.obj
 0002:0000025c       ___xi_z                    1008025c     LIBCMTD:crt0init.obj
 0002:00000260       ___xp_a                    10080260     LIBCMTD:crt0init.obj
 0002:00000270       ___xp_z                    10080270     LIBCMTD:crt0init.obj
 0002:00000274       ___xt_a                    10080274     LIBCMTD:crt0init.obj
 0002:00000278       ___xt_z                    10080278     LIBCMTD:crt0init.obj
 0002:000002b8       ?min_exponent@?$numeric_limits@O@std@@2HB 100802b8     BackProp.obj
 0002:000002bc       ?min_exponent10@?$numeric_limits@O@std@@2HB 100802bc     BackProp.obj
 0002:000002c0       ?skipws@?$_Iosb@H@std@@2W4_Fmtflags@12@B 100802c0     BackProp.obj
 0002:000002c4       ?unitbuf@?$_Iosb@H@std@@2W4_Fmtflags@12@B 100802c4     BackProp.obj
 0002:000002c8       ?uppercase@?$_Iosb@H@std@@2W4_Fmtflags@12@B 100802c8     BackProp.obj
 0002:000002cc       ?showbase@?$_Iosb@H@std@@2W4_Fmtflags@12@B 100802cc     BackProp.obj
 0002:000002d0       ?showpoint@?$_Iosb@H@std@@2W4_Fmtflags@12@B 100802d0     BackProp.obj
 0002:000002d4       ?showpos@?$_Iosb@H@std@@2W4_Fmtflags@12@B 100802d4     BackProp.obj
 0002:000002d8       ?left@?$_Iosb@H@std@@2W4_Fmtflags@12@B 100802d8     BackProp.obj
 0002:000002dc       ?right@?$_Iosb@H@std@@2W4_Fmtflags@12@B 100802dc     BackProp.obj
 0002:000002e0       ?internal@?$_Iosb@H@std@@2W4_Fmtflags@12@B 100802e0     BackProp.obj
 0002:000002e4       ?dec@?$_Iosb@H@std@@2W4_Fmtflags@12@B 100802e4     BackProp.obj
 0002:000002e8       ?oct@?$_Iosb@H@std@@2W4_Fmtflags@12@B 100802e8     BackProp.obj
 0002:000002ec       ?hex@?$_Iosb@H@std@@2W4_Fmtflags@12@B 100802ec     BackProp.obj
 0002:000002f0       ?scientific@?$_Iosb@H@std@@2W4_Fmtflags@12@B 100802f0     BackProp.obj
 0002:000002f4       ?fixed@?$_Iosb@H@std@@2W4_Fmtflags@12@B 100802f4     BackProp.obj
 0002:000002f8       ?hexfloat@?$_Iosb@H@std@@2W4_Fmtflags@12@B 100802f8     BackProp.obj
 0002:000002fc       ?boolalpha@?$_Iosb@H@std@@2W4_Fmtflags@12@B 100802fc     BackProp.obj
 0002:00000300       ?collate@?$_Locbase@H@std@@2HB 10080300     BackProp.obj
 0002:00000304       ?has_denorm@_Num_base@std@@2W4float_denorm_style@2@B 10080304     BackProp.obj
 0002:00000308       ?ctype@?$_Locbase@H@std@@2HB 10080308     BackProp.obj
 0002:0000030c       ?_Stdio@?$_Iosb@H@std@@2W4_Fmtflags@12@B 1008030c     BackProp.obj
 0002:00000310       ?monetary@?$_Locbase@H@std@@2HB 10080310     BackProp.obj
 0002:00000314       ?has_denorm_loss@_Num_base@std@@2_NB 10080314     BackProp.obj
 0002:00000318       ?adjustfield@?$_Iosb@H@std@@2W4_Fmtflags@12@B 10080318     BackProp.obj
 0002:0000031c       ?numeric@?$_Locbase@H@std@@2HB 1008031c     BackProp.obj
 0002:00000320       ?has_infinity@_Num_base@std@@2_NB 10080320     BackProp.obj
 0002:00000324       ?time@?$_Locbase@H@std@@2HB 10080324     BackProp.obj
 0002:00000328       ?basefield@?$_Iosb@H@std@@2W4_Fmtflags@12@B 10080328     BackProp.obj
 0002:0000032c       ?has_quiet_NaN@_Num_base@std@@2_NB 1008032c     BackProp.obj
 0002:00000330       ?messages@?$_Locbase@H@std@@2HB 10080330     BackProp.obj
 0002:00000334       ?floatfield@?$_Iosb@H@std@@2W4_Fmtflags@12@B 10080334     BackProp.obj
 0002:00000338       ?all@?$_Locbase@H@std@@2HB 10080338     BackProp.obj
 0002:0000033c       ?has_signaling_NaN@_Num_base@std@@2_NB 1008033c     BackProp.obj
 0002:00000340       ?none@?$_Locbase@H@std@@2HB 10080340     BackProp.obj
 0002:00000344       ?goodbit@?$_Iosb@H@std@@2W4_Iostate@12@B 10080344     BackProp.obj
 0002:00000348       ?is_bounded@_Num_base@std@@2_NB 10080348     BackProp.obj
 0002:00000349       ?is_exact@_Num_base@std@@2_NB 10080349     BackProp.obj
 0002:0000034c       ?eofbit@?$_Iosb@H@std@@2W4_Iostate@12@B 1008034c     BackProp.obj
 0002:00000350       ?is_iec559@_Num_base@std@@2_NB 10080350     BackProp.obj
 0002:00000354       ?failbit@?$_Iosb@H@std@@2W4_Iostate@12@B 10080354     BackProp.obj
 0002:00000358       ?is_integer@_Num_base@std@@2_NB 10080358     BackProp.obj
 0002:0000035c       ?badbit@?$_Iosb@H@std@@2W4_Iostate@12@B 1008035c     BackProp.obj
 0002:00000360       ?is_modulo@_Num_base@std@@2_NB 10080360     BackProp.obj
 0002:00000364       ?_Hardfail@?$_Iosb@H@std@@2W4_Iostate@12@B 10080364     BackProp.obj
 0002:00000368       ?is_signed@_Num_base@std@@2_NB 10080368     BackProp.obj
 0002:0000036c       ?in@?$_Iosb@H@std@@2W4_Openmode@12@B 1008036c     BackProp.obj
 0002:00000370       ?is_specialized@_Num_base@std@@2_NB 10080370     BackProp.obj
 0002:000003b8       ?out@?$_Iosb@H@std@@2W4_Openmode@12@B 100803b8     BackProp.obj
 0002:000003bc       ?tinyness_before@_Num_base@std@@2_NB 100803bc     BackProp.obj
 0002:000003c0       ?ate@?$_Iosb@H@std@@2W4_Openmode@12@B 100803c0     BackProp.obj
 0002:000003c4       ?traps@_Num_base@std@@2_NB 100803c4     BackProp.obj
 0002:000003c8       ?app@?$_Iosb@H@std@@2W4_Openmode@12@B 100803c8     BackProp.obj
 0002:000003cc       ?round_style@_Num_base@std@@2W4float_round_style@2@B 100803cc     BackProp.obj
 0002:000003d0       ?trunc@?$_Iosb@H@std@@2W4_Openmode@12@B 100803d0     BackProp.obj
 0002:000003d4       ?digits@_Num_base@std@@2HB 100803d4     BackProp.obj
 0002:000003d8       ?_Nocreate@?$_Iosb@H@std@@2W4_Openmode@12@B 100803d8     BackProp.obj
 0002:000003dc       ?digits10@_Num_base@std@@2HB 100803dc     BackProp.obj
 0002:000003e0       ?_Noreplace@?$_Iosb@H@std@@2W4_Openmode@12@B 100803e0     BackProp.obj
 0002:000003e4       ?max_digits10@_Num_base@std@@2HB 100803e4     BackProp.obj
 0002:000003e8       ?binary@?$_Iosb@H@std@@2W4_Openmode@12@B 100803e8     BackProp.obj
 0002:000003ec       ?max_exponent@_Num_base@std@@2HB 100803ec     BackProp.obj
 0002:000003f0       ?max_exponent10@_Num_base@std@@2HB 100803f0     BackProp.obj
 0002:000003f4       ?beg@?$_Iosb@H@std@@2W4_Seekdir@12@B 100803f4     BackProp.obj
 0002:000003f8       ?min_exponent@_Num_base@std@@2HB 100803f8     BackProp.obj
 0002:000003fc       ?cur@?$_Iosb@H@std@@2W4_Seekdir@12@B 100803fc     BackProp.obj
 0002:00000400       ?min_exponent10@_Num_base@std@@2HB 10080400     BackProp.obj
 0002:00000404       ?end@?$_Iosb@H@std@@2W4_Seekdir@12@B 10080404     BackProp.obj
 0002:00000408       ?radix@_Num_base@std@@2HB  10080408     BackProp.obj
 0002:0000040c       ?_Stream_err@failure@ios_base@std@@0W4io_errc@43@B 1008040c     BackProp.obj
 0002:00000410       ?is_bounded@_Num_int_base@std@@2_NB 10080410     BackProp.obj
 0002:00000411       ?is_exact@_Num_int_base@std@@2_NB 10080411     BackProp.obj
 0002:00000412       ?is_integer@_Num_int_base@std@@2_NB 10080412     BackProp.obj
 0002:00000413       ?is_modulo@_Num_int_base@std@@2_NB 10080413     BackProp.obj
 0002:00000414       ?is_specialized@_Num_int_base@std@@2_NB 10080414     BackProp.obj
 0002:00000418       ?radix@_Num_int_base@std@@2HB 10080418     BackProp.obj
 0002:0000041c       ?has_denorm@_Num_float_base@std@@2W4float_denorm_style@2@B 1008041c     BackProp.obj
 0002:00000420       ?has_denorm_loss@_Num_float_base@std@@2_NB 10080420     BackProp.obj
 0002:00000421       ?has_infinity@_Num_float_base@std@@2_NB 10080421     BackProp.obj
 0002:00000422       ?has_quiet_NaN@_Num_float_base@std@@2_NB 10080422     BackProp.obj
 0002:00000423       ?has_signaling_NaN@_Num_float_base@std@@2_NB 10080423     BackProp.obj
 0002:00000424       ?is_bounded@_Num_float_base@std@@2_NB 10080424     BackProp.obj
 0002:00000425       ?is_exact@_Num_float_base@std@@2_NB 10080425     BackProp.obj
 0002:00000426       ?is_iec559@_Num_float_base@std@@2_NB 10080426     BackProp.obj
 0002:00000427       ?is_integer@_Num_float_base@std@@2_NB 10080427     BackProp.obj
 0002:00000428       ?is_modulo@_Num_float_base@std@@2_NB 10080428     BackProp.obj
 0002:00000429       ?is_signed@_Num_float_base@std@@2_NB 10080429     BackProp.obj
 0002:0000042a       ?is_specialized@_Num_float_base@std@@2_NB 1008042a     BackProp.obj
 0002:0000042b       ?tinyness_before@_Num_float_base@std@@2_NB 1008042b     BackProp.obj
 0002:0000042c       ?traps@_Num_float_base@std@@2_NB 1008042c     BackProp.obj
 0002:00000430       ?round_style@_Num_float_base@std@@2W4float_round_style@2@B 10080430     BackProp.obj
 0002:00000434       ?radix@_Num_float_base@std@@2HB 10080434     BackProp.obj
 0002:00000438       ?is_signed@?$numeric_limits@D@std@@2_NB 10080438     BackProp.obj
 0002:0000043c       ?digits@?$numeric_limits@D@std@@2HB 1008043c     BackProp.obj
 0002:00000440       ?digits10@?$numeric_limits@D@std@@2HB 10080440     BackProp.obj
 0002:00000444       ?table_size@?$ctype@D@std@@2IB 10080444     BackProp.obj
 0002:00000448       ?is_signed@?$numeric_limits@_W@std@@2_NB 10080448     BackProp.obj
 0002:0000044c       ?digits@?$numeric_limits@_W@std@@2HB 1008044c     BackProp.obj
 0002:00000450       ?digits10@?$numeric_limits@_W@std@@2HB 10080450     BackProp.obj
 0002:00000454       ?is_modulo@?$numeric_limits@_N@std@@2_NB 10080454     BackProp.obj
 0002:00000455       ?is_signed@?$numeric_limits@_N@std@@2_NB 10080455     BackProp.obj
 0002:00000458       ?digits@?$numeric_limits@_N@std@@2HB 10080458     BackProp.obj
 0002:0000045c       ?digits10@?$numeric_limits@_N@std@@2HB 1008045c     BackProp.obj
 0002:00000460       ?is_signed@?$numeric_limits@C@std@@2_NB 10080460     BackProp.obj
 0002:00000464       ?digits@?$numeric_limits@C@std@@2HB 10080464     BackProp.obj
 0002:00000468       ?digits10@?$numeric_limits@C@std@@2HB 10080468     BackProp.obj
 0002:0000046c       ?is_signed@?$numeric_limits@E@std@@2_NB 1008046c     BackProp.obj
 0002:00000470       ?digits@?$numeric_limits@E@std@@2HB 10080470     BackProp.obj
 0002:00000474       ?digits10@?$numeric_limits@E@std@@2HB 10080474     BackProp.obj
 0002:00000478       ?value@?$integral_constant@I$0A@@std@@2IB 10080478     BackProp.obj
 0002:0000047c       ?is_signed@?$numeric_limits@F@std@@2_NB 1008047c     BackProp.obj
 0002:0000047d       ?value@?$integral_constant@_N$0A@@std@@2_NB 1008047d     BackProp.obj
 0002:00000480       ?digits@?$numeric_limits@F@std@@2HB 10080480     BackProp.obj
 0002:00000484       ?digits10@?$numeric_limits@F@std@@2HB 10080484     BackProp.obj
 0002:00000488       ?value@?$integral_constant@_N$00@std@@2_NB 10080488     BackProp.obj
 0002:00000489       ?is_signed@?$numeric_limits@G@std@@2_NB 10080489     BackProp.obj
 0002:0000048c       ?digits@?$numeric_limits@G@std@@2HB 1008048c     BackProp.obj
 0002:00000490       ?digits10@?$numeric_limits@G@std@@2HB 10080490     BackProp.obj
 0002:00000494       ?is_signed@?$numeric_limits@H@std@@2_NB 10080494     BackProp.obj
 0002:00000498       ?digits@?$numeric_limits@H@std@@2HB 10080498     BackProp.obj
 0002:0000049c       ?digits10@?$numeric_limits@H@std@@2HB 1008049c     BackProp.obj
 0002:000004a0       ?is_signed@?$numeric_limits@I@std@@2_NB 100804a0     BackProp.obj
 0002:000004a4       ?digits@?$numeric_limits@I@std@@2HB 100804a4     BackProp.obj
 0002:000004a8       ?digits10@?$numeric_limits@I@std@@2HB 100804a8     BackProp.obj
 0002:000004ac       ?value@?$_Sizeof@U_Nil@std@@U12@U12@U12@U12@U12@U12@U12@@std@@2IB 100804ac     BackProp.obj
 0002:000004b0       ?is_signed@?$numeric_limits@J@std@@2_NB 100804b0     BackProp.obj
 0002:000004b4       ?digits@?$numeric_limits@J@std@@2HB 100804b4     BackProp.obj
 0002:000004b8       ?digits10@?$numeric_limits@J@std@@2HB 100804b8     BackProp.obj
 0002:000004bc       ?is_signed@?$numeric_limits@K@std@@2_NB 100804bc     BackProp.obj
 0002:000004c0       ?digits@?$numeric_limits@K@std@@2HB 100804c0     BackProp.obj
 0002:000004c4       ?digits10@?$numeric_limits@K@std@@2HB 100804c4     BackProp.obj
 0002:000004c8       ?is_signed@?$numeric_limits@_J@std@@2_NB 100804c8     BackProp.obj
 0002:000004cc       ?digits@?$numeric_limits@_J@std@@2HB 100804cc     BackProp.obj
 0002:000004d0       ?digits10@?$numeric_limits@_J@std@@2HB 100804d0     BackProp.obj
 0002:000004d4       ?is_signed@?$numeric_limits@_K@std@@2_NB 100804d4     BackProp.obj
 0002:000004d8       ?digits@?$numeric_limits@_K@std@@2HB 100804d8     BackProp.obj
 0002:000004dc       ?digits10@?$numeric_limits@_K@std@@2HB 100804dc     BackProp.obj
 0002:000004e0       ?digits@?$numeric_limits@M@std@@2HB 100804e0     BackProp.obj
 0002:000004e4       ?digits10@?$numeric_limits@M@std@@2HB 100804e4     BackProp.obj
 0002:000004e8       ?max_digits10@?$numeric_limits@M@std@@2HB 100804e8     BackProp.obj
 0002:000004ec       ?max_exponent@?$numeric_limits@M@std@@2HB 100804ec     BackProp.obj
 0002:000004f0       ?max_exponent10@?$numeric_limits@M@std@@2HB 100804f0     BackProp.obj
 0002:000004f4       ?min_exponent@?$numeric_limits@M@std@@2HB 100804f4     BackProp.obj
 0002:000004f8       ?min_exponent10@?$numeric_limits@M@std@@2HB 100804f8     BackProp.obj
 0002:000004fc       ?digits@?$numeric_limits@N@std@@2HB 100804fc     BackProp.obj
 0002:00000500       ?digits10@?$numeric_limits@N@std@@2HB 10080500     BackProp.obj
 0002:00000504       ?max_digits10@?$numeric_limits@N@std@@2HB 10080504     BackProp.obj
 0002:00000508       ?max_exponent@?$numeric_limits@N@std@@2HB 10080508     BackProp.obj
 0002:0000050c       ?max_exponent10@?$numeric_limits@N@std@@2HB 1008050c     BackProp.obj
 0002:00000510       ?min_exponent@?$numeric_limits@N@std@@2HB 10080510     BackProp.obj
 0002:00000514       ?min_exponent10@?$numeric_limits@N@std@@2HB 10080514     BackProp.obj
 0002:00000518       ?digits@?$numeric_limits@O@std@@2HB 10080518     BackProp.obj
 0002:0000051c       ?digits10@?$numeric_limits@O@std@@2HB 1008051c     BackProp.obj
 0002:00000520       ?max_digits10@?$numeric_limits@O@std@@2HB 10080520     BackProp.obj
 0002:00000524       ?value@?$_Sizeof@HU_Nil@std@@U12@U12@U12@U12@U12@U12@@std@@2IB 10080524     BackProp.obj
 0002:00000528       ?max_exponent@?$numeric_limits@O@std@@2HB 10080528     BackProp.obj
 0002:0000052c       ?max_exponent10@?$numeric_limits@O@std@@2HB 1008052c     BackProp.obj
 0002:00000534       ??_7error_category@std@@6B@ 10080534     BackProp.obj
 0002:00000550       ??_7_Generic_error_category@std@@6B@ 10080550     BackProp.obj
 0002:00000568       ??_C@_07DCLBNMLN@generic?$AA@ 10080568     BackProp.obj
 0002:00000570       ??_C@_0O@BFJCFAAK@unknown?5error?$AA@ 10080570     BackProp.obj
 0002:00000584       ??_7_Iostream_error_category@std@@6B@ 10080584     BackProp.obj
 0002:0000059c       ??_C@_08LLGCOLLL@iostream?$AA@ 1008059c     BackProp.obj
 0002:000005a8       ??_C@_0BG@PADBLCHM@iostream?5stream?5error?$AA@ 100805a8     BackProp.obj
 0002:000005c4       ??_7_System_error_category@std@@6B@ 100805c4     BackProp.obj
 0002:000005dc       ??_C@_06FHFOAHML@system?$AA@ 100805dc     BackProp.obj
 0002:000005e8       ??_C@_1HG@HDDJJEAD@?$AAD?$AA?3?$AA?2?$AAP?$AAr?$AAo?$AAg?$AAr?$AAa?$AAm?$AA?2?$AAM?$AAi?$AAc?$AAr?$AAo?$AAs?$AAo?$AAf?$AAt?$AA?5?$AAV?$AAi?$AAs?$AAu?$AAa?$AAl?$AA?5?$AAS?$AAt?$AAu?$AAd@ 100805e8     BackProp.obj
 0002:00000660       ??_C@_0BI@CFPLBAOH@invalid?5string?5position?$AA@ 10080660     BackProp.obj
 0002:00000678       ??_C@_0BA@JFNIOLAK@string?5too?5long?$AA@ 10080678     BackProp.obj
 0002:00000688       ??_C@_1CK@EOPGIILJ@?$AAi?$AAn?$AAv?$AAa?$AAl?$AAi?$AAd?$AA?5?$AAn?$AAu?$AAl?$AAl?$AA?5?$AAp?$AAo?$AAi?$AAn?$AAt?$AAe?$AAr?$AA?$AA@ 10080688     BackProp.obj
 0002:000006b8       __real@0000000000000000    100806b8     BackProp.obj
 0002:000006c0       __real@3ff0000000000000    100806c0     BackProp.obj
 0002:000006c8       __real@4000000000000000    100806c8     BackProp.obj
 0002:000006d0       __real@40cfff8000000000    100806d0     BackProp.obj
 0002:000006e0       __xmm@80000000000000008000000000000000 100806e0     BackProp.obj
 0002:00000700       ?PATHERR@MyCar@@2NB        10080700     mycar.obj
 0002:00000708       ?CORRLEN@MyCar@@2NB        10080708     mycar.obj
 0002:00000710       ?TURNTOL@MyCar@@2NB        10080710     mycar.obj
 0002:00000718       ?TURNSPEED@MyCar@@2NB      10080718     mycar.obj
 0002:00000720       ?MARGIN@MyCar@@2NB         10080720     mycar.obj
 0002:00000728       ?STABLESPEED@MyCar@@2NB    10080728     mycar.obj
 0002:00000730       ?TIMETOCATCH@MyCar@@2NB    10080730     mycar.obj
 0002:00000738       ?MINOVERTAKERANGE@MyCar@@2NB 10080738     mycar.obj
 0002:00000740       ?OVERTAKERADIUS@MyCar@@2NB 10080740     mycar.obj
 0002:00000748       ?OVERTAKEDIST@MyCar@@2NB   10080748     mycar.obj
 0002:00000750       ?OVERTAKEMINDIST@MyCar@@2NB 10080750     mycar.obj
 0002:00000758       ?OVERTAKEANGLE@MyCar@@2NB  10080758     mycar.obj
 0002:00000760       ?OVERTAKEMARGIN@MyCar@@2NB 10080760     mycar.obj
 0002:00000768       ?MAXALLOWEDPITCH@MyCar@@2NB 10080768     mycar.obj
 0002:00000770       ?FLYSPEED@MyCar@@2NB       10080770     mycar.obj
 0002:00000778       ?OVERLAPSTARTDIST@MyCar@@2NB 10080778     mycar.obj
 0002:00000780       ?OVERLAPPASSDIST@MyCar@@2NB 10080780     mycar.obj
 0002:00000788       ?OVERLAPWAITTIME@MyCar@@2NB 10080788     mycar.obj
 0002:00000790       ?LAPBACKTIMEPENALTY@MyCar@@2NB 10080790     mycar.obj
 0002:00000798       ?TCL_SLIP@MyCar@@2NB       10080798     mycar.obj
 0002:000007a0       ?TCL_RANGE@MyCar@@2NB      100807a0     mycar.obj
 0002:000007a8       ?SHIFT@MyCar@@2NB          100807a8     mycar.obj
 0002:000007b0       ?SHIFT_MARGIN@MyCar@@2NB   100807b0     mycar.obj
 0002:000007c0       ?MAX_SPEED@MyCar@@2NB      100807c0     mycar.obj
 0002:000007c8       ?MAX_FUEL_PER_METER@MyCar@@2NB 100807c8     mycar.obj
 0002:000007d0       ?LOOKAHEAD_MAX_ERROR@MyCar@@2NB 100807d0     mycar.obj
 0002:000007d8       ?LOOKAHEAD_FACTOR@MyCar@@2NB 100807d8     mycar.obj
 0002:000009dc       ??_C@_09KBFOLGED@GC?5height?$AA@ 100809dc     mycar.obj
 0002:000009e8       ??_C@_03DAGGNFD@Car?$AA@   100809e8     mycar.obj
 0002:000009ec       __real@00000000            100809ec     mycar.obj
 0002:000009f0       __real@3e4ccccd            100809f0     mycar.obj
 0002:000009f4       __real@3f800000            100809f4     mycar.obj
 0002:000009f8       __real@3f847ae147ae147b    100809f8     mycar.obj
 0002:00000a00       __real@3f947ae147ae147b    10080a00     mycar.obj
 0002:00000a08       __real@3fb999999999999a    10080a08     mycar.obj
 0002:00000a10       __real@3fc999999999999a    10080a10     mycar.obj
 0002:00000a18       __real@3fcccccd            10080a18     mycar.obj
 0002:00000a20       __real@3fdd70a3d70a3d71    10080a20     mycar.obj
 0002:00000a28       __real@3fe0000000000000    10080a28     mycar.obj
 0002:00000a30       __real@3fe4000000000000    10080a30     mycar.obj
 0002:00000a38       __real@3feccccccccccccd    10080a38     mycar.obj
 0002:00000a40       __real@3fee666666666666    10080a40     mycar.obj
 0002:00000a48       __real@3fef5c28f5c28f5c    10080a48     mycar.obj
 0002:00000a50       __real@3ff199999999999a    10080a50     mycar.obj
 0002:00000a58       __real@3ff3333333333333    10080a58     mycar.obj
 0002:00000a60       __real@3ff3ae147ae147ae    10080a60     mycar.obj
 0002:00000a68       __real@3ff4cccccccccccd    10080a68     mycar.obj
 0002:00000a70       __real@3ff8000000000000    10080a70     mycar.obj
 0002:00000a78       __real@3ff999999999999a    10080a78     mycar.obj
 0002:00000a80       __real@40000000            10080a80     mycar.obj
 0002:00000a88       __real@4010000000000000    10080a88     mycar.obj
 0002:00000a90       __real@4014000000000000    10080a90     mycar.obj
 0002:00000a98       __real@402e000000000000    10080a98     mycar.obj
 0002:00000aa0       __real@4034000000000000    10080aa0     mycar.obj
 0002:00000aa8       __real@4039000000000000    10080aa8     mycar.obj
 0002:00000ab0       __real@4046800000000000    10080ab0     mycar.obj
 0002:00000ab8       __real@42c80000            10080ab8     mycar.obj
 0002:00000abc       __real@43340000            10080abc     mycar.obj
 0002:00000ac0       __real@47efffffe0000000    10080ac0     mycar.obj
 0002:00000ac8       __real@bff0000000000000    10080ac8     mycar.obj
 0002:00000ad0       __real@c008000000000000    10080ad0     mycar.obj
 0002:00000ae0       __xmm@80000000800000008000000080000000 10080ae0     mycar.obj
 0002:00000af4       ??_7Neuron@@6B@            10080af4     NeuralLayer.obj
 0002:00000afc       ??_7NeuralLayer@@6B@       10080afc     NeuralLayer.obj
 0002:00000b00       ??_C@_1HE@JKLHPCBN@?$AAD?$AA?3?$AA?2?$AAP?$AAr?$AAo?$AAg?$AAr?$AAa?$AAm?$AA?2?$AAM?$AAi?$AAc?$AAr?$AAo?$AAs?$AAo?$AAf?$AAt?$AA?5?$AAV?$AAi?$AAs?$AAu?$AAa?$AAl?$AA?5?$AAS?$AAt?$AAu?$AAd@ 10080b00     NeuralLayer.obj
 0002:00000b74       ??_C@_1DM@LHGCHCBA@?$AAv?$AAe?$AAc?$AAt?$AAo?$AAr?$AA?5?$AAs?$AAu?$AAb?$AAs?$AAc?$AAr?$AAi?$AAp?$AAt?$AA?5?$AAo?$AAu?$AAt?$AA?5?$AAo?$AAf?$AA?5?$AAr?$AAa?$AAn?$AAg?$AAe?$AA?$AA@ 10080b74     NeuralLayer.obj
 0002:00000bb0       ??_C@_0CE@OFMIGAMM@Standard?5C?$CL?$CL?5Libraries?5Out?5of?5Ra@ 10080bb0     NeuralLayer.obj
 0002:00000bd8       ??_C@_1FG@IBPIFFN@?$AA?$CC?$AAS?$AAt?$AAa?$AAn?$AAd?$AAa?$AAr?$AAd?$AA?5?$AAC?$AA?$CL?$AA?$CL?$AA?5?$AAL?$AAi?$AAb?$AAr?$AAa?$AAr?$AAi?$AAe?$AAs?$AA?5?$AAO?$AAu?$AAt?$AA?5?$AAo?$AAf?$AA?5?$AAR@ 10080bd8     NeuralLayer.obj
 0002:00000c30       ??_C@_15GANGMFKL@?$AA?$CF?$AAs?$AA?$AA@ 10080c30     NeuralLayer.obj
 0002:00000c38       ??_C@_1HK@EJDBECKJ@?$AAs?$AAt?$AAd?$AA?3?$AA?3?$AAv?$AAe?$AAc?$AAt?$AAo?$AAr?$AA?$DM?$AAf?$AAl?$AAo?$AAa?$AAt?$AA?0?$AAc?$AAl?$AAa?$AAs?$AAs?$AA?5?$AAs?$AAt?$AAd?$AA?3?$AA?3?$AAa?$AAl?$AAl@ 10080c38     NeuralLayer.obj
 0002:00000cb4       ??_C@_1BO@MEPPHOO@?$AA?$CC?$AAo?$AAu?$AAt?$AA?5?$AAo?$AAf?$AA?5?$AAr?$AAa?$AAn?$AAg?$AAe?$AA?$CC?$AA?$AA@ 10080cb4     NeuralLayer.obj
 0002:00000cd8       ??_C@_1KC@PBBINCGB@?$AAs?$AAt?$AAd?$AA?3?$AA?3?$AAv?$AAe?$AAc?$AAt?$AAo?$AAr?$AA?$DM?$AAs?$AAt?$AAr?$AAu?$AAc?$AAt?$AA?5?$AAN?$AAe?$AAu?$AAr?$AAo?$AAn?$AA?5?$AA?$CK?$AA?0?$AAc?$AAl?$AAa?$AAs@ 10080cd8     NeuralLayer.obj
 0002:00000d7c       ??_C@_0BD@OLBABOEK@vector?$DMT?$DO?5too?5long?$AA@ 10080d7c     NeuralLayer.obj
 0002:00000d90       ??_C@_1HG@JNLFGNNC@?$AAD?$AA?3?$AA?2?$AAP?$AAr?$AAo?$AAg?$AAr?$AAa?$AAm?$AA?2?$AAM?$AAi?$AAc?$AAr?$AAo?$AAs?$AAo?$AAf?$AAt?$AA?5?$AAV?$AAi?$AAs?$AAu?$AAa?$AAl?$AA?5?$AAS?$AAt?$AAu?$AAd@ 10080d90     NeuralLayer.obj
 0002:00000e08       ??_C@_1CO@DGLIKNHI@?$AAi?$AAn?$AAv?$AAa?$AAl?$AAi?$AAd?$AA?5?$AAi?$AAt?$AAe?$AAr?$AAa?$AAt?$AAo?$AAr?$AA?5?$AAr?$AAa?$AAn?$AAg?$AAe?$AA?$AA@ 10080e08     NeuralLayer.obj
 0002:00000e38       __real@3f000000            10080e38     NeuralLayer.obj
 0002:00000e3c       __real@46fffe00            10080e3c     NeuralLayer.obj
 0002:00000e40       __real@47c34ff3            10080e40     NeuralLayer.obj
 0002:00000e44       __real@bf800000            10080e44     NeuralLayer.obj
 0002:00000e60       ??_C@_1HI@INMNAKMP@?$AAD?$AA?3?$AA?2?$AAP?$AAr?$AAo?$AAg?$AAr?$AAa?$AAm?$AA?2?$AAM?$AAi?$AAc?$AAr?$AAo?$AAs?$AAo?$AAf?$AAt?$AA?5?$AAV?$AAi?$AAs?$AAu?$AAa?$AAl?$AA?5?$AAS?$AAt?$AAu?$AAd@ 10080e60     NeuralNetwork.obj
 0002:00000ed8       ??_C@_1DC@POOIKBAO@?$AAI?$AAT?$AAE?$AAR?$AAA?$AAT?$AAO?$AAR?$AA?5?$AAL?$AAI?$AAS?$AAT?$AA?5?$AAC?$AAO?$AAR?$AAR?$AAU?$AAP?$AAT?$AAE?$AAD?$AA?$CB?$AA?$AA@ 10080ed8     NeuralNetwork.obj
 0002:00000f0c       ?npos@?$basic_string@DU?$char_traits@D@std@@V?$allocator@D@2@@std@@2IB 10080f0c     NeuralNetwork.obj
 0002:00000f14       ??_7NeuralNetwork@@6B@     10080f14     NeuralNetwork.obj
 0002:00000f18       ??_C@_1KK@GHDIDJBF@?$AAs?$AAt?$AAd?$AA?3?$AA?3?$AAv?$AAe?$AAc?$AAt?$AAo?$AAr?$AA?$DM?$AAc?$AAl?$AAa?$AAs?$AAs?$AA?5?$AAN?$AAe?$AAu?$AAr?$AAa?$AAl?$AAL?$AAa?$AAy?$AAe?$AAr?$AA?0?$AAc?$AAl@ 10080f18     NeuralNetwork.obj
 0002:00000fc8       ??_C@_1EG@FOHJJHAC@?$AAv?$AAe?$AAc?$AAt?$AAo?$AAr?$AA?5?$AAi?$AAt?$AAe?$AAr?$AAa?$AAt?$AAo?$AAr?$AA?5?$AAn?$AAo?$AAt?$AA?5?$AAd?$AAe?$AAr?$AAe?$AAf?$AAe?$AAr?$AAe?$AAn?$AAc?$AAa?$AAb@ 10080fc8     NeuralNetwork.obj
 0002:00001010       ??_C@_1NM@MMLFNMCL@?$AAs?$AAt?$AAd?$AA?3?$AA?3?$AA_?$AAV?$AAe?$AAc?$AAt?$AAo?$AAr?$AA_?$AAc?$AAo?$AAn?$AAs?$AAt?$AA_?$AAi?$AAt?$AAe?$AAr?$AAa?$AAt?$AAo?$AAr?$AA?$DM?$AAc?$AAl?$AAa?$AAs@ 10081010     NeuralNetwork.obj
 0002:000010f0       ??_C@_1EE@EJDKCLKB@?$AAv?$AAe?$AAc?$AAt?$AAo?$AAr?$AA?5?$AAi?$AAt?$AAe?$AAr?$AAa?$AAt?$AAo?$AAr?$AA?5?$AAn?$AAo?$AAt?$AA?5?$AAi?$AAn?$AAc?$AAr?$AAe?$AAm?$AAe?$AAn?$AAt?$AAa?$AAb?$AAl@ 100810f0     NeuralNetwork.obj
 0002:00001138       ??_C@_1NO@EFHKFELJ@?$AAs?$AAt?$AAd?$AA?3?$AA?3?$AA_?$AAV?$AAe?$AAc?$AAt?$AAo?$AAr?$AA_?$AAc?$AAo?$AAn?$AAs?$AAt?$AA_?$AAi?$AAt?$AAe?$AAr?$AAa?$AAt?$AAo?$AAr?$AA?$DM?$AAc?$AAl?$AAa?$AAs@ 10081138     NeuralNetwork.obj
 0002:00001218       ??_C@_1DM@HINDPMBP@?$AAv?$AAe?$AAc?$AAt?$AAo?$AAr?$AA?5?$AAi?$AAt?$AAe?$AAr?$AAa?$AAt?$AAo?$AAr?$AAs?$AA?5?$AAi?$AAn?$AAc?$AAo?$AAm?$AAp?$AAa?$AAt?$AAi?$AAb?$AAl?$AAe?$AA?$AA@ 10081218     NeuralNetwork.obj
 0002:00001254       ??_C@_0CI@FNPHFCCM@Standard?5C?$CL?$CL?5Libraries?5Invalid?5A@ 10081254     NeuralNetwork.obj
 0002:00001280       ??_C@_1FO@GJIHNDLM@?$AA?$CC?$AAS?$AAt?$AAa?$AAn?$AAd?$AAa?$AAr?$AAd?$AA?5?$AAC?$AA?$CL?$AA?$CL?$AA?5?$AAL?$AAi?$AAb?$AAr?$AAa?$AAr?$AAi?$AAe?$AAs?$AA?5?$AAI?$AAn?$AAv?$AAa?$AAl?$AAi?$AAd?$AA?5@ 10081280     NeuralNetwork.obj
 0002:000012e0       ??_C@_1NG@OOHAEEHO@?$AAs?$AAt?$AAd?$AA?3?$AA?3?$AA_?$AAV?$AAe?$AAc?$AAt?$AAo?$AAr?$AA_?$AAc?$AAo?$AAn?$AAs?$AAt?$AA_?$AAi?$AAt?$AAe?$AAr?$AAa?$AAt?$AAo?$AAr?$AA?$DM?$AAc?$AAl?$AAa?$AAs@ 100812e0     NeuralNetwork.obj
 0002:000013b8       ??_C@_1CG@JNLFBNGN@?$AA?$CC?$AAi?$AAn?$AAv?$AAa?$AAl?$AAi?$AAd?$AA?5?$AAa?$AAr?$AAg?$AAu?$AAm?$AAe?$AAn?$AAt?$AA?$CC?$AA?$AA@ 100813b8     NeuralNetwork.obj
 0002:000013e0       __real@37444b1e            100813e0     NeuralNetwork.obj
 0002:000013e4       __real@3f4ccccd            100813e4     NeuralNetwork.obj
 0002:000013e8       ?COLLDIST@Pathfinder@@0NB  100813e8     pathfinder.obj
 0002:00001470       __real@3e112e0be826d695    10081470     pathfinder.obj
 0002:00001478       __real@3f1a36e2eb1c432d    10081478     pathfinder.obj
 0002:00001480       __real@4008000000000000    10081480     pathfinder.obj
 0002:00001488       __real@401e000000000000    10081488     pathfinder.obj
 0002:00001490       __real@4066800000000000    10081490     pathfinder.obj
 0002:00001498       __real@407c200000000000    10081498     pathfinder.obj
 0002:000014a0       __real@407f400000000000    100814a0     pathfinder.obj
 0002:000014a8       __real@4089000000000000    100814a8     pathfinder.obj
 0002:000014b0       __real@408f400000000000    100814b0     pathfinder.obj
 0002:000014b8       __real@40c3880000000000    100814b8     pathfinder.obj
 0002:000014d0       __real@3dcccccd            100814d0     sensors.obj
 0002:000019e4       __real@3ea9fbe7            100819e4     ANN_Bot_2.obj
 0002:000019e8       __real@3f454c985f06f694    100819e8     ANN_Bot_2.obj
 0002:000019f0       __real@3f4a36e2eb1c432d    100819f0     ANN_Bot_2.obj
 0002:000019f8       __real@3fc3333333333333    100819f8     ANN_Bot_2.obj
 0002:00001a00       __real@3fd6666666666666    10081a00     ANN_Bot_2.obj
 0002:00001a08       __real@3fe3333333333333    10081a08     ANN_Bot_2.obj
 0002:00001a10       __real@3fe6666666666666    10081a10     ANN_Bot_2.obj
 0002:00001a18       __real@3fe999999999999a    10081a18     ANN_Bot_2.obj
 0002:00001a20       __real@3feb333333333333    10081a20     ANN_Bot_2.obj
 0002:00001a28       __real@400ccccccccccccd    10081a28     ANN_Bot_2.obj
 0002:00001a30       __real@4018000000000000    10081a30     ANN_Bot_2.obj
 0002:00001a38       __real@40200000            10081a38     ANN_Bot_2.obj
 0002:00001a40       __real@4024000000000000    10081a40     ANN_Bot_2.obj
 0002:00001a48       __real@40800000            10081a48     ANN_Bot_2.obj
 0002:00001a4c       __real@40a00000            10081a4c     ANN_Bot_2.obj
 0002:00001a50       __real@41f00000            10081a50     ANN_Bot_2.obj
 0002:00001a54       __real@42700000            10081a54     ANN_Bot_2.obj
 0002:00001a58       __real@42820000            10081a58     ANN_Bot_2.obj
 0002:00001a5c       __real@42b40000            10081a5c     ANN_Bot_2.obj
 0002:00001a60       __real@461c4000            10081a60     ANN_Bot_2.obj
 0002:00001a64       __real@c1f00000            10081a64     ANN_Bot_2.obj
 0002:00001a68       __real@c2700000            10081a68     ANN_Bot_2.obj
 0002:00001a6c       __real@c2b40000            10081a6c     ANN_Bot_2.obj
 0002:00001d4c       ?nbCmdControl@@3HB         10081d4c     pref.obj
 0002:00001e90       __real@4059000000000000    10081e90     pref.obj
 0002:00001ef8       __real@7f7fffff            10081ef8     trackdesc.obj
 0002:00001f00       __real@404ca5dc1a63c1f8    10081f00     sg_vs2008_32:sgd.obj
 0002:00001f08       __real@3f91df46a2529d39    10081f08     sg_vs2008_32:sgd.obj
 0002:00001f10       __real@4022d97c7f3321d2    10081f10     sg_vs2008_32:sgd.obj
 0002:00001f18       __real@400921fb54442d18    10081f18     sg_vs2008_32:sgd.obj
 0002:00001f20       __real@401921fb54442d18    10081f20     sg_vs2008_32:sgd.obj
 0002:00001f28       __real@3ff921fb54442d18    10081f28     sg_vs2008_32:sgd.obj
 0002:00001f30       __real@3fefffeb074a771d    10081f30     sg_vs2008_32:sgd.obj
 0002:00001f38       __real@bff921fb54442d18    10081f38     sg_vs2008_32:sgd.obj
 0002:00001f40       __real@bfefffeb074a771d    10081f40     sg_vs2008_32:sgd.obj
 0002:00001f48       ??_C@_0CL@MFADICKC@sgdGetAngleBetweenVectors?3?5Norma@ 10081f48     sg_vs2008_32:sgd.obj
 0002:00001f78       __real@c000000000000000    10081f78     sg_vs2008_32:sgd.obj
 0002:00001f80       ??_C@_0ED@LKGOFPEJ@sgFrustum?3?5Can?8t?5support?5fields?5@ 10081f80     sg_vs2008_32:sgd.obj
 0002:00001fc4       ??_C@_0DF@MFOAFILF@sgFrustum?3?5Can?8t?5support?5width?5o@ 10081fc4     sg_vs2008_32:sgd.obj
 0002:00001ffc       ??_C@_0DE@FLABMHND@sgdFrustum?3?5Can?8t?5support?5depth?5@ 10081ffc     sg_vs2008_32:sgd.obj
 0002:00002030       __real@bee4f8b588e368f1    10082030     sg_vs2008_32:sgd.obj
 0002:00002038       ??_C@_0CE@HBHLABFJ@sgdMat4ToCoord?3?5ERROR?5?9?5Bad?5Matr@ 10082038     sg_vs2008_32:sgd.obj
 0002:00002060       __real@3ee4f8b588e368f1    10082060     sg_vs2008_32:sgd.obj
 0002:00002068       ??_C@_0CJ@BEEFNIHJ@sg?3?5ERROR?5?9?5Singular?5matrix?0?5no?5@ 10082068     sg_vs2008_32:sgd.obj
 0002:00002098       __real@3cb0000000000000    10082098     sg_vs2008_32:sgd.obj
 0002:000020a0       __real@c04ca5dc1a63c1f8    100820a0     sg_vs2008_32:sgd.obj
 0002:000020a8       __real@3feffffde7210be9    100820a8     sg_vs2008_32:sgd.obj
 0002:000020b0       __real@3eb0c6f7a0b5ed8d    100820b0     sg_vs2008_32:sgd.obj
 0002:000020b8       __real@404e000000000000    100820b8     sg_vs2008_32:sgd.obj
 0002:000020c0       __real@4056800000000000    100820c0     sg_vs2008_32:sgd.obj
 0002:000020c8       ??_C@_05JLFELJNP@FATAL?$AA@ 100820c8     ul_vs2008_32:ulError.obj
 0002:000020d0       ??_C@_07KCOHIFOP@WARNING?$AA@ 100820d0     ul_vs2008_32:ulError.obj
 0002:000020d8       ??_C@_05KOLFGEDA@DEBUG?$AA@ 100820d8     ul_vs2008_32:ulError.obj
 0002:000020e4       ??_C@_07KJFPOMFC@?$CFs?3?5?$CFs?6?$AA@ 100820e4     ul_vs2008_32:ulError.obj
 0002:000020ec       ?_VBITS@?$vector@_NV?$allocator@_N@std@@@std@@2HB 100820ec     libcpmtd:xthrow.obj
 0002:000020f0       ?value@?$integral_constant@H$0A@@std@@2HB 100820f0     libcpmtd:xthrow.obj
 0002:000020f8       ?_Names@?$_Regex_traits@D@std@@0QBU?$_Cl_names@D@2@B 100820f8     libcpmtd:xthrow.obj
 0002:000021b8       ??_C@_05IIMHCHIO@alnum?$AA@ 100821b8     libcpmtd:xthrow.obj
 0002:000021c0       ??_C@_05IAEKHIAN@alpha?$AA@ 100821c0     libcpmtd:xthrow.obj
 0002:000021c8       ??_C@_05BABJKOGB@blank?$AA@ 100821c8     libcpmtd:xthrow.obj
 0002:000021d0       ??_C@_05JMDPEFNK@cntrl?$AA@ 100821d0     libcpmtd:xthrow.obj
 0002:000021d8       ??_C@_01LPLHEDKD@d?$AA@    100821d8     libcpmtd:xthrow.obj
 0002:000021dc       ??_C@_05ODNOIFML@digit?$AA@ 100821dc     libcpmtd:xthrow.obj
 0002:000021e4       ??_C@_05KCJBMLII@graph?$AA@ 100821e4     libcpmtd:xthrow.obj
 0002:000021ec       ??_C@_05IPJEPLHL@lower?$AA@ 100821ec     libcpmtd:xthrow.obj
 0002:000021f4       ??_C@_05IJDJACGD@print?$AA@ 100821f4     libcpmtd:xthrow.obj
 0002:000021fc       ??_C@_05KOBGHFJJ@punct?$AA@ 100821fc     libcpmtd:xthrow.obj
 0002:00002204       ??_C@_05OLNILLAB@space?$AA@ 10082204     libcpmtd:xthrow.obj
 0002:0000220c       ??_C@_01LKDEMHDF@s?$AA@    1008220c     libcpmtd:xthrow.obj
 0002:00002210       ??_C@_05NECKJAMC@upper?$AA@ 10082210     libcpmtd:xthrow.obj
 0002:00002218       ??_C@_01NOFIACDB@w?$AA@    10082218     libcpmtd:xthrow.obj
 0002:0000221c       ??_C@_06BAPHGFFK@xdigit?$AA@ 1008221c     libcpmtd:xthrow.obj
 0002:00002228       ?_Names@?$_Regex_traits@_W@std@@0QBU?$_Cl_names@_W@2@B 10082228     libcpmtd:xthrow.obj
 0002:000022e8       ??_C@_1M@KLMEPMCM@?$AAa?$AAl?$AAn?$AAu?$AAm?$AA?$AA@ 100822e8     libcpmtd:xthrow.obj
 0002:000022f4       ??_C@_1M@DHGLHBMI@?$AAa?$AAl?$AAp?$AAh?$AAa?$AA?$AA@ 100822f4     libcpmtd:xthrow.obj
 0002:00002300       ??_C@_1M@EJAAJBPE@?$AAb?$AAl?$AAa?$AAn?$AAk?$AA?$AA@ 10082300     libcpmtd:xthrow.obj
 0002:0000230c       ??_C@_1M@LMIMILA@?$AAc?$AAn?$AAt?$AAr?$AAl?$AA?$AA@ 1008230c     libcpmtd:xthrow.obj
 0002:00002318       ??_C@_13GKPPEALH@?$AAd?$AA?$AA@ 10082318     libcpmtd:xthrow.obj
 0002:0000231c       ??_C@_1M@JDAEIBKG@?$AAd?$AAi?$AAg?$AAi?$AAt?$AA?$AA@ 1008231c     libcpmtd:xthrow.obj
 0002:00002328       ??_C@_1M@MDKNJLLK@?$AAg?$AAr?$AAa?$AAp?$AAh?$AA?$AA@ 10082328     libcpmtd:xthrow.obj
 0002:00002334       ??_C@_1M@LGAECJJD@?$AAl?$AAo?$AAw?$AAe?$AAr?$AA?$AA@ 10082334     libcpmtd:xthrow.obj
 0002:00002340       ??_C@_1M@ELNLAPLA@?$AAp?$AAr?$AAi?$AAn?$AAt?$AA?$AA@ 10082340     libcpmtd:xthrow.obj
 0002:0000234c       ??_C@_1M@BPFMAOAO@?$AAp?$AAu?$AAn?$AAc?$AAt?$AA?$AA@ 1008234c     libcpmtd:xthrow.obj
 0002:00002358       ??_C@_1M@LPGODFOM@?$AAs?$AAp?$AAa?$AAc?$AAe?$AA?$AA@ 10082358     libcpmtd:xthrow.obj
 0002:00002364       ??_C@_13KHDBCPJB@?$AAs?$AA?$AA@ 10082364     libcpmtd:xthrow.obj
 0002:00002368       ??_C@_1M@PLNFCNIC@?$AAu?$AAp?$AAp?$AAe?$AAr?$AA?$AA@ 10082368     libcpmtd:xthrow.obj
 0002:00002374       ??_C@_13CIFDLIMG@?$AAw?$AA?$AA@ 10082374     libcpmtd:xthrow.obj
 0002:00002378       ??_C@_1O@OAFMJDHN@?$AAx?$AAd?$AAi?$AAg?$AAi?$AAt?$AA?$AA@ 10082378     libcpmtd:xthrow.obj
 0002:0000238c       ??_7bad_alloc@std@@6B@     1008238c     libcpmtd:xthrow.obj
 0002:00002394       ??_C@_0P@GHFPNOJB@bad?5allocation?$AA@ 10082394     libcpmtd:xthrow.obj
 0002:000023a8       ??_7logic_error@std@@6B@   100823a8     libcpmtd:xthrow.obj
 0002:000023b4       ??_7invalid_argument@std@@6B@ 100823b4     libcpmtd:xthrow.obj
 0002:000023c0       ??_7length_error@std@@6B@  100823c0     libcpmtd:xthrow.obj
 0002:000023cc       ??_7out_of_range@std@@6B@  100823cc     libcpmtd:xthrow.obj
 0002:000023d8       ??_7runtime_error@std@@6B@ 100823d8     libcpmtd:xthrow.obj
 0002:000023e4       ??_7overflow_error@std@@6B@ 100823e4     libcpmtd:xthrow.obj
 0002:000023f0       ??_7bad_function_call@std@@6B@ 100823f0     libcpmtd:xthrow.obj
 0002:000023f8       ??_C@_0BC@DPJNKNAF@bad?5function?5call?$AA@ 100823f8     libcpmtd:xthrow.obj
 0002:00002410       ??_7regex_error@std@@6B@   10082410     libcpmtd:xthrow.obj
 0002:00002418       ??_C@_0FI@CMNGHIFF@regex_error?$CIerror_collate?$CJ?3?5The?5@ 10082418     libcpmtd:xthrow.obj
 0002:00002470       ??_C@_0FE@LJMHKIOC@regex_error?$CIerror_ctype?$CJ?3?5The?5ex@ 10082470     libcpmtd:xthrow.obj
 0002:000024c8       ??_C@_0GI@HEGGMMDL@regex_error?$CIerror_escape?$CJ?3?5The?5e@ 100824c8     libcpmtd:xthrow.obj
 0002:00002530       ??_C@_0FA@HFMLPGNN@regex_error?$CIerror_backref?$CJ?3?5The?5@ 10082530     libcpmtd:xthrow.obj
 0002:00002580       ??_C@_0EH@LGEANNAL@regex_error?$CIerror_brack?$CJ?3?5The?5ex@ 10082580     libcpmtd:xthrow.obj
 0002:000025c8       ??_C@_0EH@CAGOJGLE@regex_error?$CIerror_paren?$CJ?3?5The?5ex@ 100825c8     libcpmtd:xthrow.obj
 0002:00002610       ??_C@_0EH@DICJJKLO@regex_error?$CIerror_brace?$CJ?3?5The?5ex@ 10082610     libcpmtd:xthrow.obj
 0002:00002658       ??_C@_0FM@BLDIHIBB@regex_error?$CIerror_badbrace?$CJ?3?5The@ 10082658     libcpmtd:xthrow.obj
 0002:000026b8       ??_C@_0HA@ICNJLCMC@regex_error?$CIerror_range?$CJ?3?5The?5ex@ 100826b8     libcpmtd:xthrow.obj
 0002:00002728       ??_C@_0GP@PICOBCHA@regex_error?$CIerror_space?$CJ?3?5There?5@ 10082728     libcpmtd:xthrow.obj
 0002:00002798       ??_C@_0FK@LCHHHEOA@regex_error?$CIerror_badrepeat?$CJ?3?5On@ 10082798     libcpmtd:xthrow.obj
 0002:000027f8       ??_C@_0HL@NEKOFBJA@regex_error?$CIerror_complexity?$CJ?3?5T@ 100827f8     libcpmtd:xthrow.obj
 0002:00002878       ??_C@_0JC@HCDLJLGO@regex_error?$CIerror_stack?$CJ?3?5There?5@ 10082878     libcpmtd:xthrow.obj
 0002:0000290c       ??_C@_0BJ@CHBLKGNM@regex_error?$CIerror_parse?$CJ?$AA@ 1008290c     libcpmtd:xthrow.obj
 0002:00002928       ??_C@_0BK@DFJCACNI@regex_error?$CIerror_syntax?$CJ?$AA@ 10082928     libcpmtd:xthrow.obj
 0002:00002944       ??_C@_0M@KGKAAGCA@regex_error?$AA@ 10082944     libcpmtd:xthrow.obj
 0002:00002950       ??_C@_1FO@BEGKGBFG@?$AAf?$AA?3?$AA?2?$AAd?$AAd?$AA?2?$AAv?$AAc?$AAt?$AAo?$AAo?$AAl?$AAs?$AA?2?$AAc?$AAr?$AAt?$AA_?$AAb?$AAl?$AAd?$AA?2?$AAs?$AAe?$AAl?$AAf?$AA_?$AAx?$AA8?$AA6?$AA?2?$AAc@ 10082950     libcpmtd:xthrow.obj
 0002:00002e80       ??_C@_0BC@CIJDGCDI@permission?5denied?$AA@ 10082e80     libcpmtd:syserror.obj
 0002:00002e94       ??_C@_0M@MIDIAGJP@file?5exists?$AA@ 10082e94     libcpmtd:syserror.obj
 0002:00002ea0       ??_C@_0P@FDINDDOK@no?5such?5device?$AA@ 10082ea0     libcpmtd:syserror.obj
 0002:00002eb0       ??_C@_0BC@EJHOMAAK@filename?5too?5long?$AA@ 10082eb0     libcpmtd:syserror.obj
 0002:00002ec4       ??_C@_0BI@NGCEHDD@device?5or?5resource?5busy?$AA@ 10082ec4     libcpmtd:syserror.obj
 0002:00002edc       ??_C@_08GLNPIFBN@io?5error?$AA@ 10082edc     libcpmtd:syserror.obj
 0002:00002ee8       ??_C@_0BE@JIDOCPHM@directory?5not?5empty?$AA@ 10082ee8     libcpmtd:syserror.obj
 0002:00002efc       ??_C@_0BB@FCMFBGOM@invalid?5argument?$AA@ 10082efc     libcpmtd:syserror.obj
 0002:00002f10       ??_C@_0BD@IJDJKDEA@no?5space?5on?5device?$AA@ 10082f10     libcpmtd:syserror.obj
 0002:00002f24       ??_C@_0BK@NDOCBPGE@no?5such?5file?5or?5directory?$AA@ 10082f24     libcpmtd:syserror.obj
 0002:00002f40       ??_C@_0BH@KEFGLDAF@function?5not?5supported?$AA@ 10082f40     libcpmtd:syserror.obj
 0002:00002f58       ??_C@_0BC@NJECKMKE@no?5lock?5available?$AA@ 10082f58     libcpmtd:syserror.obj
 0002:00002f6c       ??_C@_0BC@ENOOLCNF@not?5enough?5memory?$AA@ 10082f6c     libcpmtd:syserror.obj
 0002:00002f80       ??_C@_0BP@LKNGHENJ@resource?5unavailable?5try?5again?$AA@ 10082f80     libcpmtd:syserror.obj
 0002:00002fa0       ??_C@_0BC@PPHBOELF@cross?5device?5link?$AA@ 10082fa0     libcpmtd:syserror.obj
 0002:00002fb4       ??_C@_0BD@MOLBPMEA@operation?5canceled?$AA@ 10082fb4     libcpmtd:syserror.obj
 0002:00002fc8       ??_C@_0BE@GHAFMPAH@too?5many?5files?5open?$AA@ 10082fc8     libcpmtd:syserror.obj
 0002:00002fdc       ??_C@_0BC@FNODOBAE@permission_denied?$AA@ 10082fdc     libcpmtd:syserror.obj
 0002:00002ff0       ??_C@_0P@LNDJPBFK@address_in_use?$AA@ 10082ff0     libcpmtd:syserror.obj
 0002:00003000       ??_C@_0BG@IPMGOJF@address_not_available?$AA@ 10083000     libcpmtd:syserror.obj
 0002:00003018       ??_C@_0BN@LCBDHODA@address_family_not_supported?$AA@ 10083018     libcpmtd:syserror.obj
 0002:00003038       ??_C@_0BP@FOJJHMCC@connection_already_in_progress?$AA@ 10083038     libcpmtd:syserror.obj
 0002:00003058       ??_C@_0BE@DLHHIBGN@bad_file_descriptor?$AA@ 10083058     libcpmtd:syserror.obj
 0002:0000306c       ??_C@_0BD@OJMJDIGI@connection_aborted?$AA@ 1008306c     libcpmtd:syserror.obj
 0002:00003080       ??_C@_0BD@NGKCIFEP@connection_refused?$AA@ 10083080     libcpmtd:syserror.obj
 0002:00003094       ??_C@_0BB@JOANDNCK@connection_reset?$AA@ 10083094     libcpmtd:syserror.obj
 0002:000030a8       ??_C@_0BN@JLJNLKLK@destination_address_required?$AA@ 100830a8     libcpmtd:syserror.obj
 0002:000030c8       ??_C@_0M@IJGMGFGP@bad_address?$AA@ 100830c8     libcpmtd:syserror.obj
 0002:000030d4       ??_C@_0BB@KKNHPPIN@host_unreachable?$AA@ 100830d4     libcpmtd:syserror.obj
 0002:000030e8       ??_C@_0BG@DJGBJIIK@operation_in_progress?$AA@ 100830e8     libcpmtd:syserror.obj
 0002:00003100       ??_C@_0M@EGEKIIMP@interrupted?$AA@ 10083100     libcpmtd:syserror.obj
 0002:0000310c       ??_C@_0BB@FFIHMIPJ@invalid_argument?$AA@ 1008310c     libcpmtd:syserror.obj
 0002:00003120       ??_C@_0BC@FIFLCHLO@already_connected?$AA@ 10083120     libcpmtd:syserror.obj
 0002:00003134       ??_C@_0BE@GJJJJDDA@too_many_files_open?$AA@ 10083134     libcpmtd:syserror.obj
 0002:00003148       ??_C@_0N@HPMLKHPL@message_size?$AA@ 10083148     libcpmtd:syserror.obj
 0002:00003158       ??_C@_0BC@LEEIKBAL@filename_too_long?$AA@ 10083158     libcpmtd:syserror.obj
 0002:0000316c       ??_C@_0N@FCPALPJK@network_down?$AA@ 1008316c     libcpmtd:syserror.obj
 0002:0000317c       ??_C@_0O@EHNDLHIG@network_reset?$AA@ 1008317c     libcpmtd:syserror.obj
 0002:0000318c       ??_C@_0BE@JFNJIDNF@network_unreachable?$AA@ 1008318c     libcpmtd:syserror.obj
 0002:000031a0       ??_C@_0BA@FDIJKJCL@no_buffer_space?$AA@ 100831a0     libcpmtd:syserror.obj
 0002:000031b0       ??_C@_0BD@JHIHCGKP@no_protocol_option?$AA@ 100831b0     libcpmtd:syserror.obj
 0002:000031c4       ??_C@_0O@GBCLHHD@not_connected?$AA@ 100831c4     libcpmtd:syserror.obj
 0002:000031d4       ??_C@_0N@IMHKKLEM@not_a_socket?$AA@ 100831d4     libcpmtd:syserror.obj
 0002:000031e4       ??_C@_0BI@ICEIDKLJ@operation_not_supported?$AA@ 100831e4     libcpmtd:syserror.obj
 0002:000031fc       ??_C@_0BH@KAPBAIJF@protocol_not_supported?$AA@ 100831fc     libcpmtd:syserror.obj
 0002:00003214       ??_C@_0BE@GAOJJFPC@wrong_protocol_type?$AA@ 10083214     libcpmtd:syserror.obj
 0002:00003228       ??_C@_09NCHNLHPG@timed_out?$AA@ 10083228     libcpmtd:syserror.obj
 0002:00003234       ??_C@_0BG@GDGHKFDH@operation_would_block?$AA@ 10083234     libcpmtd:syserror.obj
 0002:0000324c       ??_C@_0BN@LKKBCCDB@address?5family?5not?5supported?$AA@ 1008324c     libcpmtd:syserror.obj
 0002:0000326c       ??_C@_0P@LDMLAFHI@address?5in?5use?$AA@ 1008326c     libcpmtd:syserror.obj
 0002:0000327c       ??_C@_0BG@DHPCNBJB@address?5not?5available?$AA@ 1008327c     libcpmtd:syserror.obj
 0002:00003294       ??_C@_0BC@DFIBIBIL@already?5connected?$AA@ 10083294     libcpmtd:syserror.obj
 0002:000032a8       ??_C@_0BH@CAKOHOMI@argument?5list?5too?5long?$AA@ 100832a8     libcpmtd:syserror.obj
 0002:000032c0       ??_C@_0BH@CGIMPKIM@argument?5out?5of?5domain?$AA@ 100832c0     libcpmtd:syserror.obj
 0002:000032d8       ??_C@_0M@KGHGGJGL@bad?5address?$AA@ 100832d8     libcpmtd:syserror.obj
 0002:000032e4       ??_C@_0BE@MPJPGCEO@bad?5file?5descriptor?$AA@ 100832e4     libcpmtd:syserror.obj
 0002:000032f8       ??_C@_0M@PMMIEFCP@bad?5message?$AA@ 100832f8     libcpmtd:syserror.obj
 0002:00003304       ??_C@_0M@KPHOFDBE@broken?5pipe?$AA@ 10083304     libcpmtd:syserror.obj
 0002:00003310       ??_C@_0BD@MGNDDEGM@connection?5aborted?$AA@ 10083310     libcpmtd:syserror.obj
 0002:00003324       ??_C@_0BP@KAIHPOGN@connection?5already?5in?5progress?$AA@ 10083324     libcpmtd:syserror.obj
 0002:00003344       ??_C@_0BD@PJLIIJEL@connection?5refused?$AA@ 10083344     libcpmtd:syserror.obj
 0002:00003358       ??_C@_0BB@IECNJNOI@connection?5reset?$AA@ 10083358     libcpmtd:syserror.obj
 0002:0000336c       ??_C@_0BN@KDMIFEIP@destination?5address?5required?$AA@ 1008336c     libcpmtd:syserror.obj
 0002:0000338c       ??_C@_0BI@BNCLIGPB@executable?5format?5error?$AA@ 1008338c     libcpmtd:syserror.obj
 0002:000033a4       ??_C@_0P@DNAJLBJK@file?5too?5large?$AA@ 100833a4     libcpmtd:syserror.obj
 0002:000033b4       ??_C@_0BB@DHFDFGDM@host?5unreachable?$AA@ 100833b4     libcpmtd:syserror.obj
 0002:000033c8       ??_C@_0BD@JPHBMONG@identifier?5removed?$AA@ 100833c8     libcpmtd:syserror.obj
 0002:000033dc       ??_C@_0BG@CDNPAGJK@illegal?5byte?5sequence?$AA@ 100833dc     libcpmtd:syserror.obj
 0002:000033f4       ??_C@_0CD@BNPLBMNA@inappropriate?5io?5control?5operati@ 100833f4     libcpmtd:syserror.obj
 0002:00003418       ??_C@_0N@OHAFKDEK@invalid?5seek?$AA@ 10083418     libcpmtd:syserror.obj
 0002:00003428       ??_C@_0P@FLLDBIDK@is?5a?5directory?$AA@ 10083428     libcpmtd:syserror.obj
 0002:00003438       ??_C@_0N@IFLPBIOP@message?5size?$AA@ 10083438     libcpmtd:syserror.obj
 0002:00003448       ??_C@_0N@KIIEAAIO@network?5down?$AA@ 10083448     libcpmtd:syserror.obj
 0002:00003458       ??_C@_0O@FNPDBHEE@network?5reset?$AA@ 10083458     libcpmtd:syserror.obj
 0002:00003468       ??_C@_0BE@IFNCKGE@network?5unreachable?$AA@ 10083468     libcpmtd:syserror.obj
 0002:0000347c       ??_C@_0BA@PFFCAOFK@no?5buffer?5space?$AA@ 1008347c     libcpmtd:syserror.obj
 0002:0000348c       ??_C@_0BB@IEPBLJHK@no?5child?5process?$AA@ 1008348c     libcpmtd:syserror.obj
 0002:000034a0       ??_C@_07PLECNNKG@no?5link?$AA@ 100834a0     libcpmtd:syserror.obj
 0002:000034a8       ??_C@_0BF@PBGGPKKE@no?5message?5available?$AA@ 100834a8     libcpmtd:syserror.obj
 0002:000034c0       ??_C@_0L@EDOLMPAK@no?5message?$AA@ 100834c0     libcpmtd:syserror.obj
 0002:000034cc       ??_C@_0BD@EAMBFIDF@no?5protocol?5option?$AA@ 100834cc     libcpmtd:syserror.obj
 0002:000034e0       ??_C@_0BE@MKFDAFMP@no?5stream?5resources?$AA@ 100834e0     libcpmtd:syserror.obj
 0002:000034f4       ??_C@_0BK@IMCPHCBI@no?5such?5device?5or?5address?$AA@ 100834f4     libcpmtd:syserror.obj
 0002:00003510       ??_C@_0BA@ENLPPKBN@no?5such?5process?$AA@ 10083510     libcpmtd:syserror.obj
 0002:00003520       ??_C@_0BA@DOCPFFJG@not?5a?5directory?$AA@ 10083520     libcpmtd:syserror.obj
 0002:00003530       ??_C@_0N@POEIPGGF@not?5a?5socket?$AA@ 10083530     libcpmtd:syserror.obj
 0002:00003540       ??_C@_0N@LGAPMMPI@not?5a?5stream?$AA@ 10083540     libcpmtd:syserror.obj
 0002:00003550       ??_C@_0O@GLMIBBEG@not?5connected?$AA@ 10083550     libcpmtd:syserror.obj
 0002:00003560       ??_C@_0O@NHEDABJP@not?5supported?$AA@ 10083560     libcpmtd:syserror.obj
 0002:00003570       ??_C@_0BG@KDKHOPCO@operation?5in?5progress?$AA@ 10083570     libcpmtd:syserror.obj
 0002:00003588       ??_C@_0BI@OHIEJAAB@operation?5not?5permitted?$AA@ 10083588     libcpmtd:syserror.obj
 0002:000035a0       ??_C@_0BI@LNEGIFLN@operation?5not?5supported?$AA@ 100835a0     libcpmtd:syserror.obj
 0002:000035b8       ??_C@_0BG@OEMDKMEE@operation?5would?5block?$AA@ 100835b8     libcpmtd:syserror.obj
 0002:000035d0       ??_C@_0L@BLPOFLNJ@owner?5dead?$AA@ 100835d0     libcpmtd:syserror.obj
 0002:000035dc       ??_C@_0P@FNPOCJBE@protocol?5error?$AA@ 100835dc     libcpmtd:syserror.obj
 0002:000035ec       ??_C@_0BH@JPPPLHJB@protocol?5not?5supported?$AA@ 100835ec     libcpmtd:syserror.obj
 0002:00003604       ??_C@_0BG@EICBIHDP@read?5only?5file?5system?$AA@ 10083604     libcpmtd:syserror.obj
 0002:0000361c       ??_C@_0BO@BJBOMOEJ@resource?5deadlock?5would?5occur?$AA@ 1008361c     libcpmtd:syserror.obj
 0002:0000363c       ??_C@_0BE@GOIPJJHG@result?5out?5of?5range?$AA@ 1008363c     libcpmtd:syserror.obj
 0002:00003650       ??_C@_0BG@MPLKFPAE@state?5not?5recoverable?$AA@ 10083650     libcpmtd:syserror.obj
 0002:00003668       ??_C@_0P@DIIFGFCG@stream?5timeout?$AA@ 10083668     libcpmtd:syserror.obj
 0002:00003678       ??_C@_0P@IPFDMIFL@text?5file?5busy?$AA@ 10083678     libcpmtd:syserror.obj
 0002:00003688       ??_C@_09KJPPMAOI@timed?5out?$AA@ 10083688     libcpmtd:syserror.obj
 0002:00003694       ??_C@_0BO@HACHBEKI@too?5many?5files?5open?5in?5system?$AA@ 10083694     libcpmtd:syserror.obj
 0002:000036b4       ??_C@_0P@HCOMKFCC@too?5many?5links?$AA@ 100836b4     libcpmtd:syserror.obj
 0002:000036c4       ??_C@_0BO@EFGOJEF@too?5many?5symbolic?5link?5levels?$AA@ 100836c4     libcpmtd:syserror.obj
 0002:000036e4       ??_C@_0BA@KGKGOOJA@value?5too?5large?$AA@ 100836e4     libcpmtd:syserror.obj
 0002:000036f4       ??_C@_0BE@MIEJDDNH@wrong?5protocol?5type?$AA@ 100836f4     libcpmtd:syserror.obj
 0002:00003708       ??_C@_1EO@LHDAJOCM@?$AA_?$AAB?$AAL?$AAO?$AAC?$AAK?$AA_?$AAT?$AAY?$AAP?$AAE?$AA_?$AAI?$AAS?$AA_?$AAV?$AAA?$AAL?$AAI?$AAD?$AA?$CI?$AAp?$AAH?$AAe?$AAa?$AAd?$AA?9?$AA?$DO?$AAn?$AAB?$AAl?$AAo@ 10083708     LIBCMTD:dbgdel.obj
 0002:00003758       ??_C@_1GE@BDAODJCD@?$AAf?$AA?3?$AA?2?$AAd?$AAd?$AA?2?$AAv?$AAc?$AAt?$AAo?$AAo?$AAl?$AAs?$AA?2?$AAc?$AAr?$AAt?$AA_?$AAb?$AAl?$AAd?$AA?2?$AAs?$AAe?$AAl?$AAf?$AA_?$AAx?$AA8?$AA6?$AA?2?$AAc@ 10083758     LIBCMTD:dbgdel.obj
 0002:000037bc       ??_C@_0DA@HMCPFNKN@f?3?2dd?2vctools?2crt_bld?2self_x86?2c@ 100837bc     LIBCMTD:onexit.obj
 0002:000037ec       ??_C@_1CC@FADMNIL@?$AA?$CI?$AAs?$AAt?$AAr?$AAe?$AAa?$AAm?$AA?5?$AA?$CB?$AA?$DN?$AA?5?$AAN?$AAU?$AAL?$AAL?$AA?$CJ?$AA?$AA@ 100837ec     LIBCMTD:fclose.obj
 0002:00003810       ??_C@_1GA@KMIDAPAP@?$AAf?$AA?3?$AA?2?$AAd?$AAd?$AA?2?$AAv?$AAc?$AAt?$AAo?$AAo?$AAl?$AAs?$AA?2?$AAc?$AAr?$AAt?$AA_?$AAb?$AAl?$AAd?$AA?2?$AAs?$AAe?$AAl?$AAf?$AA_?$AAx?$AA8?$AA6?$AA?2?$AAc@ 10083810     LIBCMTD:fclose.obj
 0002:00003870       ??_C@_1O@EGMJNCOI@?$AAf?$AAc?$AAl?$AAo?$AAs?$AAe?$AA?$AA@ 10083870     LIBCMTD:fclose.obj
 0002:00003880       ??_C@_1BM@JMKHIAHP@?$AA?$CI?$AAs?$AAt?$AAr?$AA?5?$AA?$CB?$AA?$DN?$AA?5?$AAN?$AAU?$AAL?$AAL?$AA?$CJ?$AA?$AA@ 10083880     LIBCMTD:fclose.obj
 0002:0000389c       ??_C@_1BO@JINCABEC@?$AA_?$AAf?$AAc?$AAl?$AAo?$AAs?$AAe?$AA_?$AAn?$AAo?$AAl?$AAo?$AAc?$AAk?$AA?$AA@ 1008389c     LIBCMTD:fclose.obj
 0002:000038bc       ??_C@_1BO@CLGIAEOJ@?$AA?$CI?$AAf?$AAi?$AAl?$AAe?$AA?5?$AA?$CB?$AA?$DN?$AA?5?$AAN?$AAU?$AAL?$AAL?$AA?$CJ?$AA?$AA@ 100838bc     LIBCMTD:fopen.obj
 0002:000038e0       ??_C@_1FO@NCADDBOO@?$AAf?$AA?3?$AA?2?$AAd?$AAd?$AA?2?$AAv?$AAc?$AAt?$AAo?$AAo?$AAl?$AAs?$AA?2?$AAc?$AAr?$AAt?$AA_?$AAb?$AAl?$AAd?$AA?2?$AAs?$AAe?$AAl?$AAf?$AA_?$AAx?$AA8?$AA6?$AA?2?$AAc@ 100838e0     LIBCMTD:fopen.obj
 0002:00003940       ??_C@_1BA@HNEAFMNL@?$AA_?$AAf?$AAs?$AAo?$AAp?$AAe?$AAn?$AA?$AA@ 10083940     LIBCMTD:fopen.obj
 0002:00003950       ??_C@_1BO@MJMKAKCJ@?$AA?$CI?$AAm?$AAo?$AAd?$AAe?$AA?5?$AA?$CB?$AA?$DN?$AA?5?$AAN?$AAU?$AAL?$AAL?$AA?$CJ?$AA?$AA@ 10083950     LIBCMTD:fopen.obj
 0002:00003970       ??_C@_1CI@HBNALCBB@?$AA?$CI?$AA?$CK?$AAm?$AAo?$AAd?$AAe?$AA?5?$AA?$CB?$AA?$DN?$AA?5?$AA_?$AAT?$AA?$CI?$AA?8?$AA?2?$AA0?$AA?8?$AA?$CJ?$AA?$CJ?$AA?$AA@ 10083970     LIBCMTD:fopen.obj
 0002:00003998       ??_C@_1CA@LLJLFCDN@?$AA?$CI?$AAp?$AAf?$AAi?$AAl?$AAe?$AA?5?$AA?$CB?$AA?$DN?$AA?5?$AAN?$AAU?$AAL?$AAL?$AA?$CJ?$AA?$AA@ 10083998     LIBCMTD:fopen.obj
 0002:000039b8       ??_C@_1BA@PBGKCCAP@?$AAf?$AAo?$AAp?$AAe?$AAn?$AA_?$AAs?$AA?$AA@ 100839b8     LIBCMTD:fopen.obj
 0002:000039c8       ??_C@_1GC@NHJDDBOH@?$AAf?$AA?3?$AA?2?$AAd?$AAd?$AA?2?$AAv?$AAc?$AAt?$AAo?$AAo?$AAl?$AAs?$AA?2?$AAc?$AAr?$AAt?$AA_?$AAb?$AAl?$AAd?$AA?2?$AAs?$AAe?$AAl?$AAf?$AA_?$AAx?$AA8?$AA6?$AA?2?$AAc@ 100839c8     LIBCMTD:fprintf.obj
 0002:00003a2c       ??_C@_1BA@DNOHIGNM@?$AAf?$AAp?$AAr?$AAi?$AAn?$AAt?$AAf?$AA?$AA@ 10083a2c     LIBCMTD:fprintf.obj
 0002:00003a3c       ??_C@_1CC@MGIEJOME@?$AA?$CI?$AAf?$AAo?$AAr?$AAm?$AAa?$AAt?$AA?5?$AA?$CB?$AA?$DN?$AA?5?$AAN?$AAU?$AAL?$AAL?$AA?$CJ?$AA?$AA@ 10083a3c     LIBCMTD:fprintf.obj
 0002:00003a60       ??_C@_1BAA@ODEGEDCK@?$AA?$CI?$AA?5?$AA?$CI?$AA_?$AAS?$AAt?$AAr?$AAe?$AAa?$AAm?$AA?9?$AA?$DO?$AA_?$AAf?$AAl?$AAa?$AAg?$AA?5?$AA?$CG?$AA?5?$AA_?$AAI?$AAO?$AAS?$AAT?$AAR?$AAG?$AA?$CJ?$AA?5?$AA?$HM?$AA?$HM?$AA?5@ 10083a60     LIBCMTD:fprintf.obj
 0002:00003b60       ??_C@_1GA@KJNOFLMC@?$AAf?$AA?3?$AA?2?$AAd?$AAd?$AA?2?$AAv?$AAc?$AAt?$AAo?$AAo?$AAl?$AAs?$AA?2?$AAc?$AAr?$AAt?$AA_?$AAb?$AAl?$AAd?$AA?2?$AAs?$AAe?$AAl?$AAf?$AA_?$AAx?$AA8?$AA6?$AA?2?$AAc@ 10083b60     LIBCMTD:fscanf.obj
 0002:00003bc0       ??_C@_1BA@LCFKCAGP@?$AAv?$AAf?$AAs?$AAc?$AAa?$AAn?$AAf?$AA?$AA@ 10083bc0     LIBCMTD:fscanf.obj
 0002:00003bd0       ??_C@_1GA@LHEGHOAF@?$AAf?$AA?3?$AA?2?$AAd?$AAd?$AA?2?$AAv?$AAc?$AAt?$AAo?$AAo?$AAl?$AAs?$AA?2?$AAc?$AAr?$AAt?$AA_?$AAb?$AAl?$AAd?$AA?2?$AAs?$AAe?$AAl?$AAf?$AA_?$AAx?$AA8?$AA6?$AA?2?$AAc@ 10083bd0     LIBCMTD:printf.obj
 0002:00003c30       ??_C@_1O@GKDHFACN@?$AAp?$AAr?$AAi?$AAn?$AAt?$AAf?$AA?$AA@ 10083c30     LIBCMTD:printf.obj
 0002:00003c60       ?ProcessDetach@NativeDll@<CrtImplementationDetails>@@0IB 10083c60     LIBCMTD:_trnsctrl_.obj
 0002:00003c64       ?ProcessAttach@NativeDll@<CrtImplementationDetails>@@0IB 10083c64     LIBCMTD:_trnsctrl_.obj
 0002:00003c68       ?ThreadAttach@NativeDll@<CrtImplementationDetails>@@0IB 10083c68     LIBCMTD:_trnsctrl_.obj
 0002:00003c6c       ?ThreadDetach@NativeDll@<CrtImplementationDetails>@@0IB 10083c6c     LIBCMTD:_trnsctrl_.obj
 0002:00003c70       ?ProcessVerifier@NativeDll@<CrtImplementationDetails>@@0IB 10083c70     LIBCMTD:_trnsctrl_.obj
 0002:00003c78       ??_7type_info@@6B@         10083c78     LIBCMTD:typinfo.obj
 0002:00003c7c       __FPinit                   10083c7c     LIBCMTD:fpinit.obj
 0002:00003cd4       ??_C@_1BA@GLMCNLEM@?$AAW?$AAa?$AAr?$AAn?$AAi?$AAn?$AAg?$AA?$AA@ 10083cd4     LIBCMTD:dbgrptw.obj
 0002:00003ce4       ??_C@_1M@ILHOPKA@?$AAE?$AAr?$AAr?$AAo?$AAr?$AA?$AA@ 10083ce4     LIBCMTD:dbgrptw.obj
 0002:00003cf0       ??_C@_1CC@CGHMNGDG@?$AAA?$AAs?$AAs?$AAe?$AAr?$AAt?$AAi?$AAo?$AAn?$AA?5?$AAF?$AAa?$AAi?$AAl?$AAe?$AAd?$AA?$AA@ 10083cf0     LIBCMTD:dbgrptw.obj
 0002:00003d14       ??_C@_17LGKOMLJ@?$AA?4?$AA?4?$AA?4?$AA?$AA@ 10083d14     LIBCMTD:dbgrptw.obj
 0002:00003d20       ??_C@_1HI@OFEHGPPC@?$AAm?$AAo?$AAd?$AAe?$AA?5?$AA?$DN?$AA?$DN?$AA?5?$AA_?$AAC?$AAR?$AAT?$AA_?$AAR?$AAP?$AAT?$AAH?$AAO?$AAO?$AAK?$AA_?$AAI?$AAN?$AAS?$AAT?$AAA?$AAL?$AAL?$AA?5?$AA?$HM?$AA?$HM?$AA?5@ 10083d20     LIBCMTD:dbgrptw.obj
 0002:00003d98       ??_C@_1GA@IBJGKIFE@?$AAf?$AA?3?$AA?2?$AAd?$AAd?$AA?2?$AAv?$AAc?$AAt?$AAo?$AAo?$AAl?$AAs?$AA?2?$AAc?$AAr?$AAt?$AA_?$AAb?$AAl?$AAd?$AA?2?$AAs?$AAe?$AAl?$AAf?$AA_?$AAx?$AA8?$AA6?$AA?2?$AAc@ 10083d98     LIBCMTD:dbgrptw.obj
 0002:00003df8       ??_C@_1CI@IIHEAKEI@?$AA_?$AAC?$AAr?$AAt?$AAS?$AAe?$AAt?$AAR?$AAe?$AAp?$AAo?$AAr?$AAt?$AAH?$AAo?$AAo?$AAk?$AAW?$AA2?$AA?$AA@ 10083df8     LIBCMTD:dbgrptw.obj
 0002:00003e20       ??_C@_1CG@JBJEFOCM@?$AAp?$AAf?$AAn?$AAN?$AAe?$AAw?$AAH?$AAo?$AAo?$AAk?$AA?5?$AA?$CB?$AA?$DN?$AA?5?$AAN?$AAU?$AAL?$AAL?$AA?$AA@ 10083e20     LIBCMTD:dbgrptw.obj
 0002:00003e48       ??_C@_1FI@PHIAFFHM@?$AA?$CI?$AA?$CC?$AAT?$AAh?$AAe?$AA?5?$AAh?$AAo?$AAo?$AAk?$AA?5?$AAf?$AAu?$AAn?$AAc?$AAt?$AAi?$AAo?$AAn?$AA?5?$AAi?$AAs?$AA?5?$AAn?$AAo?$AAt?$AA?5?$AAi?$AAn?$AA?5?$AAt?$AAh@ 10083e48     LIBCMTD:dbgrptw.obj
 0002:00003ea0       ??_C@_0DA@PCCBBBID@f?3?2dd?2vctools?2crt_bld?2self_x86?2c@ 10083ea0     LIBCMTD:dbgrptw.obj
 0002:00003ed0       ??_C@_1CI@PGJIFDEK@?$AA_?$AA_?$AAc?$AAr?$AAt?$AAM?$AAe?$AAs?$AAs?$AAa?$AAg?$AAe?$AAW?$AAi?$AAn?$AAd?$AAo?$AAw?$AAW?$AA?$AA@ 10083ed0     LIBCMTD:dbgrptw.obj
 0002:00003ef8       ??_C@_1GI@DEDNNLCI@?$AAw?$AAc?$AAs?$AAc?$AAp?$AAy?$AA_?$AAs?$AA?$CI?$AAs?$AAz?$AAE?$AAx?$AAe?$AAN?$AAa?$AAm?$AAe?$AA?0?$AA?5?$AA2?$AA6?$AA0?$AA?0?$AA?5?$AAL?$AA?$CC?$AA?$DM?$AAp?$AAr?$AAo?$AAg@ 10083ef8     LIBCMTD:dbgrptw.obj
 0002:00003f60       ??_C@_1CO@EAEJAADC@?$AA?$DM?$AAp?$AAr?$AAo?$AAg?$AAr?$AAa?$AAm?$AA?5?$AAn?$AAa?$AAm?$AAe?$AA?5?$AAu?$AAn?$AAk?$AAn?$AAo?$AAw?$AAn?$AA?$DO?$AA?$AA@ 10083f60     LIBCMTD:dbgrptw.obj
 0002:00003f90       ??_C@_1NO@LECLLHOL@?$AAm?$AAe?$AAm?$AAc?$AAp?$AAy?$AA_?$AAs?$AA?$CI?$AAs?$AAz?$AAS?$AAh?$AAo?$AAr?$AAt?$AAP?$AAr?$AAo?$AAg?$AAN?$AAa?$AAm?$AAe?$AA?0?$AA?5?$AAs?$AAi?$AAz?$AAe?$AAo?$AAf@ 10083f90     LIBCMTD:dbgrptw.obj
 0002:00004070       ??_C@_1OG@PMPPFHAF@?$AA?6?$AA?6?$AAF?$AAo?$AAr?$AA?5?$AAi?$AAn?$AAf?$AAo?$AAr?$AAm?$AAa?$AAt?$AAi?$AAo?$AAn?$AA?5?$AAo?$AAn?$AA?5?$AAh?$AAo?$AAw?$AA?5?$AAy?$AAo?$AAu?$AAr?$AA?5?$AAp?$AAr@ 10084070     LIBCMTD:dbgrptw.obj
 0002:00004158       ??_C@_11LOCGONAA@?$AA?$AA@ 10084158     LIBCMTD:dbgrptw.obj
 0002:0000415c       ??_C@_1BK@PEDCIPMA@?$AAE?$AAx?$AAp?$AAr?$AAe?$AAs?$AAs?$AAi?$AAo?$AAn?$AA?3?$AA?5?$AA?$AA@ 1008415c     LIBCMTD:dbgrptw.obj
 0002:00004178       ??_C@_15IABLJNFO@?$AA?6?$AA?6?$AA?$AA@ 10084178     LIBCMTD:dbgrptw.obj
 0002:00004180       ??_C@_1BA@GLLGCPCK@?$AA?6?$AAL?$AAi?$AAn?$AAe?$AA?3?$AA?5?$AA?$AA@ 10084180     LIBCMTD:dbgrptw.obj
 0002:00004190       ??_C@_1BA@LNHECFIM@?$AA?6?$AAF?$AAi?$AAl?$AAe?$AA?3?$AA?5?$AA?$AA@ 10084190     LIBCMTD:dbgrptw.obj
 0002:000041a0       ??_C@_1BE@CGCJKGHI@?$AA?6?$AAM?$AAo?$AAd?$AAu?$AAl?$AAe?$AA?3?$AA?5?$AA?$AA@ 100841a0     LIBCMTD:dbgrptw.obj
 0002:000041b8       ??_C@_1KM@HNMIBKJH@?$AAD?$AAe?$AAb?$AAu?$AAg?$AA?5?$AA?$CF?$AAs?$AA?$CB?$AA?6?$AA?6?$AAP?$AAr?$AAo?$AAg?$AAr?$AAa?$AAm?$AA?3?$AA?5?$AA?$CF?$AAs?$AA?$CF?$AAs?$AA?$CF?$AAs?$AA?$CF?$AAs?$AA?$CF?$AAs?$AA?$CF?$AAs@ 100841b8     LIBCMTD:dbgrptw.obj
 0002:00004264       ??_C@_1BI@KALLJECN@?$AA?$CI?$AA?$CK?$AA_?$AAe?$AAr?$AAr?$AAn?$AAo?$AA?$CI?$AA?$CJ?$AA?$CJ?$AA?$AA@ 10084264     LIBCMTD:dbgrptw.obj
 0002:00004280       ??_C@_1JI@EACPGHID@?$AAw?$AAc?$AAs?$AAc?$AAp?$AAy?$AA_?$AAs?$AA?$CI?$AAs?$AAz?$AAO?$AAu?$AAt?$AAM?$AAe?$AAs?$AAs?$AAa?$AAg?$AAe?$AA?0?$AA?5?$AA4?$AA0?$AA9?$AA6?$AA?0?$AA?5?$AAL?$AA?$CC?$AA_@ 10084280     LIBCMTD:dbgrptw.obj
 0002:00004318       ??_C@_1FG@BBOLDHGF@?$AA_?$AAC?$AAr?$AAt?$AAD?$AAb?$AAg?$AAR?$AAe?$AAp?$AAo?$AAr?$AAt?$AA?3?$AA?5?$AAS?$AAt?$AAr?$AAi?$AAn?$AAg?$AA?5?$AAt?$AAo?$AAo?$AA?5?$AAl?$AAo?$AAn?$AAg?$AA?5?$AAo@ 10084318     LIBCMTD:dbgrptw.obj
 0002:00004370       ??_C@_1EK@MBDPDCGA@?$AAM?$AAi?$AAc?$AAr?$AAo?$AAs?$AAo?$AAf?$AAt?$AA?5?$AAV?$AAi?$AAs?$AAu?$AAa?$AAl?$AA?5?$AAC?$AA?$CL?$AA?$CL?$AA?5?$AAR?$AAu?$AAn?$AAt?$AAi?$AAm?$AAe?$AA?5?$AAL?$AAi?$AAb@ 10084370     LIBCMTD:dbgrptw.obj
 0002:000043c8       ??_C@_1GC@BMNPEKNN@?$AAf?$AA?3?$AA?2?$AAd?$AAd?$AA?2?$AAv?$AAc?$AAt?$AAo?$AAo?$AAl?$AAs?$AA?2?$AAc?$AAr?$AAt?$AA_?$AAb?$AAl?$AAd?$AA?2?$AAs?$AAe?$AAl?$AAf?$AA_?$AAx?$AA8?$AA6?$AA?2?$AAc@ 100843c8     LIBCMTD:snprintf.obj
 0002:0000442c       ??_C@_1BE@CHNFPLHD@?$AA_?$AAs?$AAn?$AAp?$AAr?$AAi?$AAn?$AAt?$AAf?$AA?$AA@ 1008442c     LIBCMTD:snprintf.obj
 0002:00004440       ??_C@_1EC@FABAOFFO@?$AA?$CI?$AAc?$AAo?$AAu?$AAn?$AAt?$AA?5?$AA?$DN?$AA?$DN?$AA?5?$AA0?$AA?$CJ?$AA?5?$AA?$HM?$AA?$HM?$AA?5?$AA?$CI?$AAs?$AAt?$AAr?$AAi?$AAn?$AAg?$AA?5?$AA?$CB?$AA?$DN?$AA?5?$AAN?$AAU?$AAL?$AAL?$AA?$CJ@ 10084440     LIBCMTD:snprintf.obj
 0002:000044e0       __pRawDllMain              100844e0     LIBCMTD:dllcrt0.obj
 0002:000044e0       __pDefaultRawDllMain       100844e0     LIBCMTD:dllcrt0.obj
 0002:000044e4       ??_C@_0DB@OLNOAEGF@f?3?2dd?2vctools?2crt_bld?2self_x86?2c@ 100844e4     LIBCMTD:dllcrt0.obj
 0002:00004518       ??_C@_1BI@BGOHAHKC@?$AAm?$AAs?$AAc?$AAo?$AAr?$AAe?$AAe?$AA?4?$AAd?$AAl?$AAl?$AA?$AA@ 10084518     LIBCMTD:crt0dat.obj
 0002:00004530       ??_C@_0P@MIGLKIOC@CorExitProcess?$AA@ 10084530     LIBCMTD:crt0dat.obj
 0002:00004540       ??_C@_1BO@LKEBEKJP@?$AAp?$AAV?$AAa?$AAl?$AAu?$AAe?$AA?5?$AA?$CB?$AA?$DN?$AA?5?$AAN?$AAU?$AAL?$AAL?$AA?$AA@ 10084540     LIBCMTD:crt0dat.obj
 0002:00004560       ??_C@_1GC@DGCPEDNJ@?$AAf?$AA?3?$AA?2?$AAd?$AAd?$AA?2?$AAv?$AAc?$AAt?$AAo?$AAo?$AAl?$AAs?$AA?2?$AAc?$AAr?$AAt?$AA_?$AAb?$AAl?$AAd?$AA?2?$AAs?$AAe?$AAl?$AAf?$AA_?$AAx?$AA8?$AA6?$AA?2?$AAc@ 10084560     LIBCMTD:crt0dat.obj
 0002:000045c4       ??_C@_1BK@PNLDCCDP@?$AA_?$AAg?$AAe?$AAt?$AA_?$AAw?$AAp?$AAg?$AAm?$AAp?$AAt?$AAr?$AA?$AA@ 100845c4     LIBCMTD:crt0dat.obj
 0002:000045e0       ??_C@_1CC@CDIPMFPD@?$AA_?$AAw?$AAp?$AAg?$AAm?$AAp?$AAt?$AAr?$AA?5?$AA?$CB?$AA?$DN?$AA?5?$AAN?$AAU?$AAL?$AAL?$AA?$AA@ 100845e0     LIBCMTD:crt0dat.obj
 0002:00004604       ??_C@_1BI@COAAPHJK@?$AA_?$AAg?$AAe?$AAt?$AA_?$AAp?$AAg?$AAm?$AAp?$AAt?$AAr?$AA?$AA@ 10084604     LIBCMTD:crt0dat.obj
 0002:0000461c       ??_C@_1CA@BBNAFCKO@?$AA_?$AAp?$AAg?$AAm?$AAp?$AAt?$AAr?$AA?5?$AA?$CB?$AA?$DN?$AA?5?$AAN?$AAU?$AAL?$AAL?$AA?$AA@ 1008461c     LIBCMTD:crt0dat.obj
 0002:0000463c       ??_C@_1BK@DJNILIMN@?$AAp?$AAa?$AAt?$AAh?$AA?5?$AA?$CB?$AA?$DN?$AA?5?$AAN?$AAU?$AAL?$AAL?$AA?$AA@ 1008463c     LIBCMTD:crt0dat.obj
 0002:00004658       ??_C@_1DG@KANBJOCK@?$AA_?$AA_?$AAc?$AAo?$AAp?$AAy?$AA_?$AAp?$AAa?$AAt?$AAh?$AA_?$AAt?$AAo?$AA_?$AAw?$AAi?$AAd?$AAe?$AA_?$AAs?$AAt?$AAr?$AAi?$AAn?$AAg?$AA?$AA@ 10084658     LIBCMTD:crt0dat.obj
 0002:00004690       ??_C@_1CA@BGODLPHH@?$AAo?$AAu?$AAt?$AAP?$AAa?$AAt?$AAh?$AA?5?$AA?$CB?$AA?$DN?$AA?5?$AAN?$AAU?$AAL?$AAL?$AA?$AA@ 10084690     LIBCMTD:crt0dat.obj
 0002:000046b0       ??_C@_0DB@LJJKGJFF@f?3?2dd?2vctools?2crt_bld?2self_x86?2c@ 100846b0     LIBCMTD:crt0dat.obj
 0002:000046e4       ??_C@_0CP@BNKDODJJ@f?3?2dd?2vctools?2crt_bld?2self_x86?2c@ 100846e4     LIBCMTD:_file.obj
 0002:00004718       ??_C@_1GE@DPADKNCG@?$AAf?$AA?3?$AA?2?$AAd?$AAd?$AA?2?$AAv?$AAc?$AAt?$AAo?$AAo?$AAl?$AAs?$AA?2?$AAc?$AAr?$AAt?$AA_?$AAb?$AAl?$AAd?$AA?2?$AAs?$AAe?$AAl?$AAf?$AA_?$AAx?$AA8?$AA6?$AA?2?$AAc@ 10084718     LIBCMTD:vsprintf.obj
 0002:0000477c       ??_C@_1BI@IGILPKD@?$AA_?$AAv?$AAs?$AAp?$AAr?$AAi?$AAn?$AAt?$AAf?$AA_?$AAl?$AA?$AA@ 1008477c     LIBCMTD:vsprintf.obj
 0002:00004794       ??_C@_1CC@OLIJCKA@?$AA?$CI?$AAs?$AAt?$AAr?$AAi?$AAn?$AAg?$AA?5?$AA?$CB?$AA?$DN?$AA?5?$AAN?$AAU?$AAL?$AAL?$AA?$CJ?$AA?$AA@ 10084794     LIBCMTD:vsprintf.obj
 0002:000047b8       ??_C@_1CE@HMKDJHB@?$AA_?$AAv?$AAs?$AAc?$AAp?$AAr?$AAi?$AAn?$AAt?$AAf?$AA_?$AAh?$AAe?$AAl?$AAp?$AAe?$AAr?$AA?$AA@ 100847b8     LIBCMTD:vsprintf.obj
 0002:000047dc       ??_C@_0CP@MKONOLCI@f?3?2dd?2vctools?2crt_bld?2self_x86?2c@ 100847dc     LIBCMTD:mlock.obj
 0002:00004810       ??_7exception@std@@6B@     10084810     LIBCMTD:stdexcpt.obj
 0002:00004818       ??_C@_0BC@EOODALEL@Unknown?5exception?$AA@ 10084818     LIBCMTD:stdexcpt.obj
 0002:00004830       ??_7bad_cast@std@@6B@      10084830     LIBCMTD:stdexcpt.obj
 0002:0000483c       ??_7bad_typeid@std@@6B@    1008483c     LIBCMTD:stdexcpt.obj
 0002:00004848       ??_7__non_rtti_object@std@@6B@ 10084848     LIBCMTD:stdexcpt.obj
 0002:00004850       ??_C@_1BK@MGMFAEKH@?$AAk?$AAe?$AAr?$AAn?$AAe?$AAl?$AA3?$AA2?$AA?4?$AAd?$AAl?$AAl?$AA?$AA@ 10084850     LIBCMTD:winapisupp.obj
 0002:0000486c       ??_C@_08KNHFBNJ@FlsAlloc?$AA@ 1008486c     LIBCMTD:winapisupp.obj
 0002:00004878       ??_C@_07PEJMOBNF@FlsFree?$AA@ 10084878     LIBCMTD:winapisupp.obj
 0002:00004880       ??_C@_0M@GDNOONDI@FlsGetValue?$AA@ 10084880     LIBCMTD:winapisupp.obj
 0002:0000488c       ??_C@_0M@JCPCPOEF@FlsSetValue?$AA@ 1008488c     LIBCMTD:winapisupp.obj
 0002:00004898       ??_C@_0BM@HCFOFFN@InitializeCriticalSectionEx?$AA@ 10084898     LIBCMTD:winapisupp.obj
 0002:000048b4       ??_C@_0BD@KIEEOEEH@CreateSemaphoreExW?$AA@ 100848b4     LIBCMTD:winapisupp.obj
 0002:000048c8       ??_C@_0BI@BKLFFAPO@SetThreadStackGuarantee?$AA@ 100848c8     LIBCMTD:winapisupp.obj
 0002:000048e0       ??_C@_0BG@OGFAJCKC@CreateThreadpoolTimer?$AA@ 100848e0     LIBCMTD:winapisupp.obj
 0002:000048f8       ??_C@_0BD@LPLEMMDI@SetThreadpoolTimer?$AA@ 100848f8     LIBCMTD:winapisupp.obj
 0002:0000490c       ??_C@_0CA@FMNJENH@WaitForThreadpoolTimerCallbacks?$AA@ 1008490c     LIBCMTD:winapisupp.obj
 0002:0000492c       ??_C@_0BF@DCFCCNOC@CloseThreadpoolTimer?$AA@ 1008492c     LIBCMTD:winapisupp.obj
 0002:00004944       ??_C@_0BF@FLABGKKM@CreateThreadpoolWait?$AA@ 10084944     LIBCMTD:winapisupp.obj
 0002:0000495c       ??_C@_0BC@MGCOHNA@SetThreadpoolWait?$AA@ 1008495c     LIBCMTD:winapisupp.obj
 0002:00004970       ??_C@_0BE@OCIOMIMP@CloseThreadpoolWait?$AA@ 10084970     LIBCMTD:winapisupp.obj
 0002:00004984       ??_C@_0BJ@LKGHFHBO@FlushProcessWriteBuffers?$AA@ 10084984     LIBCMTD:winapisupp.obj
 0002:000049a0       ??_C@_0BP@KALKKPMO@FreeLibraryWhenCallbackReturns?$AA@ 100849a0     LIBCMTD:winapisupp.obj
 0002:000049c0       ??_C@_0BK@DFNBACLA@GetCurrentProcessorNumber?$AA@ 100849c0     LIBCMTD:winapisupp.obj
 0002:000049dc       ??_C@_0BP@KHGALBC@GetLogicalProcessorInformation?$AA@ 100849dc     LIBCMTD:winapisupp.obj
 0002:000049fc       ??_C@_0BE@FKKLLFLM@CreateSymbolicLinkW?$AA@ 100849fc     LIBCMTD:winapisupp.obj
 0002:00004a10       ??_C@_0BJ@OHNKDLIJ@SetDefaultDllDirectories?$AA@ 10084a10     LIBCMTD:winapisupp.obj
 0002:00004a2c       ??_C@_0BE@LJANKFHF@EnumSystemLocalesEx?$AA@ 10084a2c     LIBCMTD:winapisupp.obj
 0002:00004a40       ??_C@_0BA@IHGNDAEB@CompareStringEx?$AA@ 10084a40     LIBCMTD:winapisupp.obj
 0002:00004a50       ??_C@_0BA@EPCJIIPD@GetDateFormatEx?$AA@ 10084a50     LIBCMTD:winapisupp.obj
 0002:00004a60       ??_C@_0BA@ONOKGCMP@GetLocaleInfoEx?$AA@ 10084a60     LIBCMTD:winapisupp.obj
 0002:00004a70       ??_C@_0BA@CIJJKCJJ@GetTimeFormatEx?$AA@ 10084a70     LIBCMTD:winapisupp.obj
 0002:00004a80       ??_C@_0BJ@PBCCBIPI@GetUserDefaultLocaleName?$AA@ 10084a80     LIBCMTD:winapisupp.obj
 0002:00004a9c       ??_C@_0BC@CELBKLLA@IsValidLocaleName?$AA@ 10084a9c     LIBCMTD:winapisupp.obj
 0002:00004ab0       ??_C@_0O@KKBNKAPF@LCMapStringEx?$AA@ 10084ab0     LIBCMTD:winapisupp.obj
 0002:00004ac0       ??_C@_0BE@JOGNEJCI@GetCurrentPackageId?$AA@ 10084ac0     LIBCMTD:winapisupp.obj
 0002:00004b90       ??_C@_1FK@PGACCAFB@?$AAR?$AA6?$AA0?$AA0?$AA2?$AA?$AN?$AA?6?$AA?9?$AA?5?$AAf?$AAl?$AAo?$AAa?$AAt?$AAi?$AAn?$AAg?$AA?5?$AAp?$AAo?$AAi?$AAn?$AAt?$AA?5?$AAs?$AAu?$AAp?$AAp?$AAo?$AAr?$AAt?$AA?5@ 10084b90     LIBCMTD:crt0msg.obj
 0002:00004bf0       ??_C@_1FE@LLNEDJMD@?$AAR?$AA6?$AA0?$AA0?$AA8?$AA?$AN?$AA?6?$AA?9?$AA?5?$AAn?$AAo?$AAt?$AA?5?$AAe?$AAn?$AAo?$AAu?$AAg?$AAh?$AA?5?$AAs?$AAp?$AAa?$AAc?$AAe?$AA?5?$AAf?$AAo?$AAr?$AA?5?$AAa?$AAr@ 10084bf0     LIBCMTD:crt0msg.obj
 0002:00004c48       ??_C@_1FI@HONFMGBI@?$AAR?$AA6?$AA0?$AA0?$AA9?$AA?$AN?$AA?6?$AA?9?$AA?5?$AAn?$AAo?$AAt?$AA?5?$AAe?$AAn?$AAo?$AAu?$AAg?$AAh?$AA?5?$AAs?$AAp?$AAa?$AAc?$AAe?$AA?5?$AAf?$AAo?$AAr?$AA?5?$AAe?$AAn@ 10084c48     LIBCMTD:crt0msg.obj
 0002:00004ca0       ??_C@_1EG@BEHAGFJD@?$AAR?$AA6?$AA0?$AA1?$AA0?$AA?$AN?$AA?6?$AA?9?$AA?5?$AAa?$AAb?$AAo?$AAr?$AAt?$AA?$CI?$AA?$CJ?$AA?5?$AAh?$AAa?$AAs?$AA?5?$AAb?$AAe?$AAe?$AAn?$AA?5?$AAc?$AAa?$AAl?$AAl?$AAe?$AAd@ 10084ca0     LIBCMTD:crt0msg.obj
 0002:00004ce8       ??_C@_1FI@LOGNIKDM@?$AAR?$AA6?$AA0?$AA1?$AA6?$AA?$AN?$AA?6?$AA?9?$AA?5?$AAn?$AAo?$AAt?$AA?5?$AAe?$AAn?$AAo?$AAu?$AAg?$AAh?$AA?5?$AAs?$AAp?$AAa?$AAc?$AAe?$AA?5?$AAf?$AAo?$AAr?$AA?5?$AAt?$AAh@ 10084ce8     LIBCMTD:crt0msg.obj
 0002:00004d40       ??_C@_1FK@BEOGODMC@?$AAR?$AA6?$AA0?$AA1?$AA7?$AA?$AN?$AA?6?$AA?9?$AA?5?$AAu?$AAn?$AAe?$AAx?$AAp?$AAe?$AAc?$AAt?$AAe?$AAd?$AA?5?$AAm?$AAu?$AAl?$AAt?$AAi?$AAt?$AAh?$AAr?$AAe?$AAa?$AAd?$AA?5@ 10084d40     LIBCMTD:crt0msg.obj
 0002:00004da0       ??_C@_1EC@JIBHAOPH@?$AAR?$AA6?$AA0?$AA1?$AA8?$AA?$AN?$AA?6?$AA?9?$AA?5?$AAu?$AAn?$AAe?$AAx?$AAp?$AAe?$AAc?$AAt?$AAe?$AAd?$AA?5?$AAh?$AAe?$AAa?$AAp?$AA?5?$AAe?$AAr?$AAr?$AAo?$AAr?$AA?$AN?$AA?6@ 10084da0     LIBCMTD:crt0msg.obj
 0002:00004de8       ??_C@_1FC@ECHBIFBC@?$AAR?$AA6?$AA0?$AA1?$AA9?$AA?$AN?$AA?6?$AA?9?$AA?5?$AAu?$AAn?$AAa?$AAb?$AAl?$AAe?$AA?5?$AAt?$AAo?$AA?5?$AAo?$AAp?$AAe?$AAn?$AA?5?$AAc?$AAo?$AAn?$AAs?$AAo?$AAl?$AAe?$AA?5@ 10084de8     LIBCMTD:crt0msg.obj
 0002:00004e40       ??_C@_1GK@FHCKBEFA@?$AAR?$AA6?$AA0?$AA2?$AA4?$AA?$AN?$AA?6?$AA?9?$AA?5?$AAn?$AAo?$AAt?$AA?5?$AAe?$AAn?$AAo?$AAu?$AAg?$AAh?$AA?5?$AAs?$AAp?$AAa?$AAc?$AAe?$AA?5?$AAf?$AAo?$AAr?$AA?5?$AA_?$AAo@ 10084e40     LIBCMTD:crt0msg.obj
 0002:00004eb0       ??_C@_1EM@MAADIHMB@?$AAR?$AA6?$AA0?$AA2?$AA5?$AA?$AN?$AA?6?$AA?9?$AA?5?$AAp?$AAu?$AAr?$AAe?$AA?5?$AAv?$AAi?$AAr?$AAt?$AAu?$AAa?$AAl?$AA?5?$AAf?$AAu?$AAn?$AAc?$AAt?$AAi?$AAo?$AAn?$AA?5?$AAc@ 10084eb0     LIBCMTD:crt0msg.obj
 0002:00004f00       ??_C@_1GK@MCAAGJMO@?$AAR?$AA6?$AA0?$AA2?$AA6?$AA?$AN?$AA?6?$AA?9?$AA?5?$AAn?$AAo?$AAt?$AA?5?$AAe?$AAn?$AAo?$AAu?$AAg?$AAh?$AA?5?$AAs?$AAp?$AAa?$AAc?$AAe?$AA?5?$AAf?$AAo?$AAr?$AA?5?$AAs?$AAt@ 10084f00     LIBCMTD:crt0msg.obj
 0002:00004f70       ??_C@_1GK@MFGOKLAG@?$AAR?$AA6?$AA0?$AA2?$AA7?$AA?$AN?$AA?6?$AA?9?$AA?5?$AAn?$AAo?$AAt?$AA?5?$AAe?$AAn?$AAo?$AAu?$AAg?$AAh?$AA?5?$AAs?$AAp?$AAa?$AAc?$AAe?$AA?5?$AAf?$AAo?$AAr?$AA?5?$AAl?$AAo@ 10084f70     LIBCMTD:crt0msg.obj
 0002:00004fe0       ??_C@_1EK@HHFLMAOL@?$AAR?$AA6?$AA0?$AA2?$AA8?$AA?$AN?$AA?6?$AA?9?$AA?5?$AAu?$AAn?$AAa?$AAb?$AAl?$AAe?$AA?5?$AAt?$AAo?$AA?5?$AAi?$AAn?$AAi?$AAt?$AAi?$AAa?$AAl?$AAi?$AAz?$AAe?$AA?5?$AAh?$AAe@ 10084fe0     LIBCMTD:crt0msg.obj
 0002:0000502c       ??_C@_1DO@BMFCDCD@?$AAR?$AA6?$AA0?$AA3?$AA0?$AA?$AN?$AA?6?$AA?9?$AA?5?$AAC?$AAR?$AAT?$AA?5?$AAn?$AAo?$AAt?$AA?5?$AAi?$AAn?$AAi?$AAt?$AAi?$AAa?$AAl?$AAi?$AAz?$AAe?$AAd?$AA?$AN?$AA?6?$AA?$AA@ 1008502c     LIBCMTD:crt0msg.obj
 0002:00005070       ??_C@_1MG@ENCOOIDF@?$AAR?$AA6?$AA0?$AA3?$AA1?$AA?$AN?$AA?6?$AA?9?$AA?5?$AAA?$AAt?$AAt?$AAe?$AAm?$AAp?$AAt?$AA?5?$AAt?$AAo?$AA?5?$AAi?$AAn?$AAi?$AAt?$AAi?$AAa?$AAl?$AAi?$AAz?$AAe?$AA?5?$AAt@ 10085070     LIBCMTD:crt0msg.obj
 0002:00005138       ??_C@_1GG@GOPILAJP@?$AAR?$AA6?$AA0?$AA3?$AA2?$AA?$AN?$AA?6?$AA?9?$AA?5?$AAn?$AAo?$AAt?$AA?5?$AAe?$AAn?$AAo?$AAu?$AAg?$AAh?$AA?5?$AAs?$AAp?$AAa?$AAc?$AAe?$AA?5?$AAf?$AAo?$AAr?$AA?5?$AAl?$AAo@ 10085138     LIBCMTD:crt0msg.obj
 0002:000051a0       ??_C@_1BOO@KGEDBGAJ@?$AAR?$AA6?$AA0?$AA3?$AA3?$AA?$AN?$AA?6?$AA?9?$AA?5?$AAA?$AAt?$AAt?$AAe?$AAm?$AAp?$AAt?$AA?5?$AAt?$AAo?$AA?5?$AAu?$AAs?$AAe?$AA?5?$AAM?$AAS?$AAI?$AAL?$AA?5?$AAc?$AAo?$AAd@ 100851a0     LIBCMTD:crt0msg.obj
 0002:00005390       ??_C@_1GG@MKFPEKFO@?$AAR?$AA6?$AA0?$AA3?$AA4?$AA?$AN?$AA?6?$AA?9?$AA?5?$AAi?$AAn?$AAc?$AAo?$AAn?$AAs?$AAi?$AAs?$AAt?$AAe?$AAn?$AAt?$AA?5?$AAo?$AAn?$AAe?$AAx?$AAi?$AAt?$AA?5?$AAb?$AAe?$AAg@ 10085390     LIBCMTD:crt0msg.obj
 0002:000053f8       ??_C@_1BO@BFCDCGC@?$AAD?$AAO?$AAM?$AAA?$AAI?$AAN?$AA?5?$AAe?$AAr?$AAr?$AAo?$AAr?$AA?$AN?$AA?6?$AA?$AA@ 100853f8     LIBCMTD:crt0msg.obj
 0002:00005418       ??_C@_1BK@KMOMNAAI@?$AAS?$AAI?$AAN?$AAG?$AA?5?$AAe?$AAr?$AAr?$AAo?$AAr?$AA?$AN?$AA?6?$AA?$AA@ 10085418     LIBCMTD:crt0msg.obj
 0002:00005434       ??_C@_1BM@JBBEPPHI@?$AAT?$AAL?$AAO?$AAS?$AAS?$AA?5?$AAe?$AAr?$AAr?$AAo?$AAr?$AA?$AN?$AA?6?$AA?$AA@ 10085434     LIBCMTD:crt0msg.obj
 0002:00005450       ??_C@_15JNBOKNOG@?$AA?$AN?$AA?6?$AA?$AA@ 10085450     LIBCMTD:crt0msg.obj
 0002:00005458       ??_C@_1BO@BKOMIGKJ@?$AAr?$AAu?$AAn?$AAt?$AAi?$AAm?$AAe?$AA?5?$AAe?$AAr?$AAr?$AAo?$AAr?$AA?5?$AA?$AA@ 10085458     LIBCMTD:crt0msg.obj
 0002:00005478       ??_C@_1GC@HKOJBOFF@?$AAf?$AA?3?$AA?2?$AAd?$AAd?$AA?2?$AAv?$AAc?$AAt?$AAo?$AAo?$AAl?$AAs?$AA?2?$AAc?$AAr?$AAt?$AA_?$AAb?$AAl?$AAd?$AA?2?$AAs?$AAe?$AAl?$AAf?$AA_?$AAx?$AA8?$AA6?$AA?2?$AAc@ 10085478     LIBCMTD:crt0msg.obj
 0002:000054dc       ??_C@_1BI@EAHMBMEC@?$AA_?$AAN?$AAM?$AAS?$AAG?$AA_?$AAW?$AAR?$AAI?$AAT?$AAE?$AA?$AA@ 100854dc     LIBCMTD:crt0msg.obj
 0002:000054f8       ??_C@_1KO@BKLCKNFL@?$AAw?$AAc?$AAs?$AAc?$AAp?$AAy?$AA_?$AAs?$AA?$CI?$AAo?$AAu?$AAt?$AAm?$AAs?$AAg?$AA?0?$AA?5?$AA?$CI?$AAs?$AAi?$AAz?$AAe?$AAo?$AAf?$AA?$CI?$AAo?$AAu?$AAt?$AAm?$AAs?$AAg?$AA?$CJ@ 100854f8     LIBCMTD:crt0msg.obj
 0002:000055a8       ??_C@_1DE@JNGNBFGO@?$AAR?$AAu?$AAn?$AAt?$AAi?$AAm?$AAe?$AA?5?$AAE?$AAr?$AAr?$AAo?$AAr?$AA?$CB?$AA?6?$AA?6?$AAP?$AAr?$AAo?$AAg?$AAr?$AAa?$AAm?$AA?3?$AA?5?$AA?$AA@ 100855a8     LIBCMTD:crt0msg.obj
 0002:000055e0       ??_C@_1HK@FJJNAABO@?$AAw?$AAc?$AAs?$AAc?$AAp?$AAy?$AA_?$AAs?$AA?$CI?$AAp?$AAr?$AAo?$AAg?$AAn?$AAa?$AAm?$AAe?$AA?0?$AA?5?$AAp?$AAr?$AAo?$AAg?$AAn?$AAa?$AAm?$AAe?$AA_?$AAs?$AAi?$AAz?$AAe@ 100855e0     LIBCMTD:crt0msg.obj
 0002:00005660       ??_C@_1HI@FLHKGEBE@?$AAw?$AAc?$AAs?$AAn?$AAc?$AAp?$AAy?$AA_?$AAs?$AA?$CI?$AAp?$AAc?$AAh?$AA?0?$AA?5?$AAp?$AAr?$AAo?$AAg?$AAn?$AAa?$AAm?$AAe?$AA_?$AAs?$AAi?$AAz?$AAe?$AA?5?$AA?9?$AA?5?$AA?$CI@ 10085660     LIBCMTD:crt0msg.obj
 0002:000056d8       ??_C@_1IA@DCJGKHFO@?$AAw?$AAc?$AAs?$AAc?$AAa?$AAt?$AA_?$AAs?$AA?$CI?$AAo?$AAu?$AAt?$AAm?$AAs?$AAg?$AA?0?$AA?5?$AA?$CI?$AAs?$AAi?$AAz?$AAe?$AAo?$AAf?$AA?$CI?$AAo?$AAu?$AAt?$AAm?$AAs?$AAg?$AA?$CJ@ 100856d8     LIBCMTD:crt0msg.obj
 0002:00005758       ??_C@_1IG@NMONDPP@?$AAw?$AAc?$AAs?$AAc?$AAa?$AAt?$AA_?$AAs?$AA?$CI?$AAo?$AAu?$AAt?$AAm?$AAs?$AAg?$AA?0?$AA?5?$AA?$CI?$AAs?$AAi?$AAz?$AAe?$AAo?$AAf?$AA?$CI?$AAo?$AAu?$AAt?$AAm?$AAs?$AAg?$AA?$CJ@ 10085758     LIBCMTD:crt0msg.obj
 0002:000057e0       ??_C@_0DC@CFDMMFIG@f?3?2dd?2vctools?2crt_bld?2self_x86?2c@ 100857e0     LIBCMTD:inithelp.obj
 0002:00005818       ??_C@_1GE@PLPIMDHG@?$AAf?$AA?3?$AA?2?$AAd?$AAd?$AA?2?$AAv?$AAc?$AAt?$AAo?$AAo?$AAl?$AAs?$AA?2?$AAc?$AAr?$AAt?$AA_?$AAb?$AAl?$AAd?$AA?2?$AAs?$AAe?$AAl?$AAf?$AA_?$AAx?$AA8?$AA6?$AA?2?$AAc@ 10085818     LIBCMTD:inithelp.obj
 0002:0000587c       ??_C@_1CA@KHHCPEI@?$AA_?$AA_?$AAg?$AAe?$AAt?$AAl?$AAo?$AAc?$AAa?$AAl?$AAe?$AAi?$AAn?$AAf?$AAo?$AA?$AA@ 1008587c     LIBCMTD:inithelp.obj
 0002:000058a0       ??_C@_1GO@NGIGJNHH@?$AAs?$AAt?$AAr?$AAn?$AAc?$AAp?$AAy?$AA_?$AAs?$AA?$CI?$AA?$CK?$AAs?$AAt?$AAr?$AAa?$AAd?$AAd?$AAr?$AAe?$AAs?$AAs?$AA?0?$AA?5?$AAo?$AAu?$AAt?$AAs?$AAi?$AAz?$AAe?$AA?0?$AA?5@ 100858a0     LIBCMTD:inithelp.obj
 0002:00005910       ??_C@_1BC@JLLICHIC@?$AAp?$AAn?$AAh?$AA?5?$AA?$DN?$AA?$DN?$AA?5?$AA0?$AA?$AA@ 10085910     LIBCMTD:handler.obj
 0002:00005928       ??_C@_1GG@CDHAPCGF@?$AAf?$AA?3?$AA?2?$AAd?$AAd?$AA?2?$AAv?$AAc?$AAt?$AAo?$AAo?$AAl?$AAs?$AA?2?$AAc?$AAr?$AAt?$AA_?$AAb?$AAl?$AAd?$AA?2?$AAs?$AAe?$AAl?$AAf?$AA_?$AAx?$AA8?$AA6?$AA?2?$AAc@ 10085928     LIBCMTD:handler.obj
 0002:000059a4       ??_C@_04HJMOFLDF@Free?$AA@ 100859a4     LIBCMTD:dbgheap.obj
 0002:000059ac       ??_C@_06EFAGIKOH@Normal?$AA@ 100859ac     LIBCMTD:dbgheap.obj
 0002:000059b4       ??_C@_03OGPFLFLO@CRT?$AA@  100859b4     LIBCMTD:dbgheap.obj
 0002:000059b8       ??_C@_06KMEJCCGM@Ignore?$AA@ 100859b8     LIBCMTD:dbgheap.obj
 0002:000059c0       ??_C@_06PJIGMIJB@Client?$AA@ 100859c0     LIBCMTD:dbgheap.obj
 0002:000059c8       ??_C@_1CE@LJFEPPMP@?$AA_?$AAC?$AAr?$AAt?$AAC?$AAh?$AAe?$AAc?$AAk?$AAM?$AAe?$AAm?$AAo?$AAr?$AAy?$AA?$CI?$AA?$CJ?$AA?$AA@ 100859c8     LIBCMTD:dbgheap.obj
 0002:000059f0       ??_C@_1GC@DNJKKEAA@?$AAf?$AA?3?$AA?2?$AAd?$AAd?$AA?2?$AAv?$AAc?$AAt?$AAo?$AAo?$AAl?$AAs?$AA?2?$AAc?$AAr?$AAt?$AA_?$AAb?$AAl?$AAd?$AA?2?$AAs?$AAe?$AAl?$AAf?$AA_?$AAx?$AA8?$AA6?$AA?2?$AAc@ 100859f0     LIBCMTD:dbgheap.obj
 0002:00005a54       ??_C@_0DF@BBEGIFEK@Client?5hook?5allocation?5failure?5a@ 10085a54     LIBCMTD:dbgheap.obj
 0002:00005a8c       ??_C@_0CB@CCLOLAHO@Client?5hook?5allocation?5failure?4?6@ 10085a8c     LIBCMTD:dbgheap.obj
 0002:00005ab0       ??_C@_02DKCKIIND@?$CFs?$AA@ 10085ab0     LIBCMTD:dbgheap.obj
 0002:00005ab4       ??_C@_0CF@BICKFLAF@Invalid?5allocation?5size?3?5?$CFIu?5byt@ 10085ab4     LIBCMTD:dbgheap.obj
 0002:00005adc       ??_C@_0DC@JEMAGEKG@Error?3?5memory?5allocation?3?5bad?5me@ 10085adc     LIBCMTD:dbgheap.obj
 0002:00005b10       ??_C@_0DI@KKJPDPGM@Client?5hook?5re?9allocation?5failur@ 10085b10     LIBCMTD:dbgheap.obj
 0002:00005b48       ??_C@_0CE@DOFMDOL@Client?5hook?5re?9allocation?5failur@ 10085b48     LIBCMTD:dbgheap.obj
 0002:00005b70       ??_C@_0ED@GPCPBAGP@Invalid?5allocation?5size?3?5?$CFIu?5byt@ 10085b70     LIBCMTD:dbgheap.obj
 0002:00005bb8       ??_C@_0FA@EFEIGJKG@Error?3?5memory?5allocation?3?5bad?5me@ 10085bb8     LIBCMTD:dbgheap.obj
 0002:00005c08       ??_C@_0EM@LGFLMAGJ@The?5Block?5at?50x?$CFp?5was?5allocated?5@ 10085c08     LIBCMTD:dbgheap.obj
 0002:00005c58       ??_C@_1EE@GFOPCECE@?$AA_?$AAC?$AAr?$AAt?$AAI?$AAs?$AAV?$AAa?$AAl?$AAi?$AAd?$AAH?$AAe?$AAa?$AAp?$AAP?$AAo?$AAi?$AAn?$AAt?$AAe?$AAr?$AA?$CI?$AAp?$AAU?$AAs?$AAe?$AAr?$AAD?$AAa?$AAt?$AAa@ 10085c58     LIBCMTD:dbgheap.obj
 0002:00005ca0       ??_C@_1IK@DCPKDGNH@?$AAp?$AAO?$AAl?$AAd?$AAB?$AAl?$AAo?$AAc?$AAk?$AA?9?$AA?$DO?$AAn?$AAL?$AAi?$AAn?$AAe?$AA?5?$AA?$DN?$AA?$DN?$AA?5?$AAI?$AAG?$AAN?$AAO?$AAR?$AAE?$AA_?$AAL?$AAI?$AAN?$AAE?$AA?5@ 10085ca0     LIBCMTD:dbgheap.obj
 0002:00005d2c       ??_C@_0DA@HFBKENN@Error?3?5possible?5heap?5corruption?5@ 10085d2c     LIBCMTD:dbgheap.obj
 0002:00005d60       ??_C@_1GE@PCKLOLAO@?$AAf?$AAR?$AAe?$AAa?$AAl?$AAl?$AAo?$AAc?$AA?5?$AA?$HM?$AA?$HM?$AA?5?$AA?$CI?$AA?$CB?$AAf?$AAR?$AAe?$AAa?$AAl?$AAl?$AAo?$AAc?$AA?5?$AA?$CG?$AA?$CG?$AA?5?$AAp?$AAN?$AAe?$AAw?$AAB?$AAl@ 10085d60     LIBCMTD:dbgheap.obj
 0002:00005dc4       ??_C@_1DC@GEFKNOOL@?$AA_?$AAp?$AAL?$AAa?$AAs?$AAt?$AAB?$AAl?$AAo?$AAc?$AAk?$AA?5?$AA?$DN?$AA?$DN?$AA?5?$AAp?$AAO?$AAl?$AAd?$AAB?$AAl?$AAo?$AAc?$AAk?$AA?$AA@ 10085dc4     LIBCMTD:dbgheap.obj
 0002:00005df8       ??_C@_1DE@KOOKLFBB@?$AA_?$AAp?$AAF?$AAi?$AAr?$AAs?$AAt?$AAB?$AAl?$AAo?$AAc?$AAk?$AA?5?$AA?$DN?$AA?$DN?$AA?5?$AAp?$AAO?$AAl?$AAd?$AAB?$AAl?$AAo?$AAc?$AAk?$AA?$AA@ 10085df8     LIBCMTD:dbgheap.obj
 0002:00005e2c       ??_C@_1CE@CJACEFBA@?$AAp?$AAU?$AAs?$AAe?$AAr?$AAD?$AAa?$AAt?$AAa?$AA?5?$AA?$CB?$AA?$DN?$AA?5?$AAN?$AAU?$AAL?$AAL?$AA?$AA@ 10085e2c     LIBCMTD:dbgheap.obj
 0002:00005e50       ??_C@_1BI@HAPNGHDP@?$AA_?$AAe?$AAx?$AAp?$AAa?$AAn?$AAd?$AA_?$AAd?$AAb?$AAg?$AA?$AA@ 10085e50     LIBCMTD:dbgheap.obj
 0002:00005e68       ??_C@_0EJ@HEIBCIMJ@The?5Block?5at?50x?$CFp?5was?5allocated?5@ 10085e68     LIBCMTD:dbgheap.obj
 0002:00005eb4       ??_C@_0BL@KEIPLFAC@Client?5hook?5free?5failure?4?6?$AA@ 10085eb4     LIBCMTD:dbgheap.obj
 0002:00005ed0       ??_C@_0KI@JGFOHMEB@HEAP?5CORRUPTION?5DETECTED?3?5before@ 10085ed0     LIBCMTD:dbgheap.obj
 0002:00005f78       ??_C@_0IK@PJCGLBOB@HEAP?5CORRUPTION?5DETECTED?3?5before@ 10085f78     LIBCMTD:dbgheap.obj
 0002:00006008       ??_C@_0KE@MBMNHHHN@HEAP?5CORRUPTION?5DETECTED?3?5after?5@ 10086008     LIBCMTD:dbgheap.obj
 0002:000060b0       ??_C@_0IG@LEMBDCJK@HEAP?5CORRUPTION?5DETECTED?3?5after?5@ 100860b0     LIBCMTD:dbgheap.obj
 0002:00006138       ??_C@_1HK@HPCBMDFG@?$AAp?$AAH?$AAe?$AAa?$AAd?$AA?9?$AA?$DO?$AAn?$AAL?$AAi?$AAn?$AAe?$AA?5?$AA?$DN?$AA?$DN?$AA?5?$AAI?$AAG?$AAN?$AAO?$AAR?$AAE?$AA_?$AAL?$AAI?$AAN?$AAE?$AA?5?$AA?$CG?$AA?$CG?$AA?5?$AAp@ 10086138     LIBCMTD:dbgheap.obj
 0002:000061b4       ??_C@_1DM@ODCJIDCP@?$AAp?$AAH?$AAe?$AAa?$AAd?$AA?9?$AA?$DO?$AAn?$AAB?$AAl?$AAo?$AAc?$AAk?$AAU?$AAs?$AAe?$AA?5?$AA?$DN?$AA?$DN?$AA?5?$AAn?$AAB?$AAl?$AAo?$AAc?$AAk?$AAU?$AAs?$AAe?$AA?$AA@ 100861b4     LIBCMTD:dbgheap.obj
 0002:000061f0       ??_C@_1CK@DMAGEMBG@?$AA_?$AAp?$AAL?$AAa?$AAs?$AAt?$AAB?$AAl?$AAo?$AAc?$AAk?$AA?5?$AA?$DN?$AA?$DN?$AA?5?$AAp?$AAH?$AAe?$AAa?$AAd?$AA?$AA@ 100861f0     LIBCMTD:dbgheap.obj
 0002:0000621c       ??_C@_1CM@MMAADDMD@?$AA_?$AAp?$AAF?$AAi?$AAr?$AAs?$AAt?$AAB?$AAl?$AAo?$AAc?$AAk?$AA?5?$AA?$DN?$AA?$DN?$AA?5?$AAp?$AAH?$AAe?$AAa?$AAd?$AA?$AA@ 1008621c     LIBCMTD:dbgheap.obj
 0002:00006248       ??_C@_1BG@MBKOGDLD@?$AA_?$AAm?$AAs?$AAi?$AAz?$AAe?$AA_?$AAd?$AAb?$AAg?$AA?$AA@ 10086248     LIBCMTD:dbgheap.obj
 0002:00006260       ??_C@_0CE@MKKHMBMK@_heapchk?5fails?5with?5_HEAPBADBEGI@ 10086260     LIBCMTD:dbgheap.obj
 0002:00006284       ??_C@_0CD@CPKEAPBD@_heapchk?5fails?5with?5_HEAPBADNODE@ 10086284     LIBCMTD:dbgheap.obj
 0002:000062a8       ??_C@_0CC@MJGLGBDG@_heapchk?5fails?5with?5_HEAPBADEND?4@ 100862a8     LIBCMTD:dbgheap.obj
 0002:000062cc       ??_C@_0CC@MFFCHFHO@_heapchk?5fails?5with?5_HEAPBADPTR?4@ 100862cc     LIBCMTD:dbgheap.obj
 0002:000062f0       ??_C@_0CL@HNNNMKMJ@_heapchk?5fails?5with?5unknown?5retu@ 100862f0     LIBCMTD:dbgheap.obj
 0002:0000631c       ??_C@_07OHKEFPKJ@DAMAGED?$AA@ 1008631c     LIBCMTD:dbgheap.obj
 0002:00006328       ??_C@_0KA@IHNJJKPL@HEAP?5CORRUPTION?5DETECTED?3?5on?5top@ 10086328     LIBCMTD:dbgheap.obj
 0002:000063c8       ??_C@_0IC@BBJIOOJH@HEAP?5CORRUPTION?5DETECTED?3?5on?5top@ 100863c8     LIBCMTD:dbgheap.obj
 0002:00006450       ??_C@_0EG@DGJMPDBH@?$CFhs?5located?5at?50x?$CFp?5is?5?$CFIu?5bytes@ 10086450     LIBCMTD:dbgheap.obj
 0002:00006498       ??_C@_0CI@JMLBEDHJ@?$CFhs?5located?5at?50x?$CFp?5is?5?$CFIu?5bytes@ 10086498     LIBCMTD:dbgheap.obj
 0002:000064c0       ??_C@_1BHO@NNANJNF@?$AA?$CI?$AAf?$AAN?$AAe?$AAw?$AAB?$AAi?$AAt?$AAs?$AA?$DN?$AA?$DN?$AA_?$AAC?$AAR?$AAT?$AAD?$AAB?$AAG?$AA_?$AAR?$AAE?$AAP?$AAO?$AAR?$AAT?$AA_?$AAF?$AAL?$AAA?$AAG?$AA?$CJ?$AA?5@ 100864c0     LIBCMTD:dbgheap.obj
 0002:00006640       ??_C@_1BO@GJFDNMNF@?$AA_?$AAC?$AAr?$AAt?$AAS?$AAe?$AAt?$AAD?$AAb?$AAg?$AAF?$AAl?$AAa?$AAg?$AA?$AA@ 10086640     LIBCMTD:dbgheap.obj
 0002:00006660       ??_C@_1BI@CJGCEEDL@?$AAp?$AAf?$AAn?$AA?5?$AA?$CB?$AA?$DN?$AA?5?$AAN?$AAU?$AAL?$AAL?$AA?$AA@ 10086660     LIBCMTD:dbgheap.obj
 0002:00006678       ??_C@_1DE@GJCKCKEC@?$AA_?$AAC?$AAr?$AAt?$AAD?$AAo?$AAF?$AAo?$AAr?$AAA?$AAl?$AAl?$AAC?$AAl?$AAi?$AAe?$AAn?$AAt?$AAO?$AAb?$AAj?$AAe?$AAc?$AAt?$AAs?$AA?$AA@ 10086678     LIBCMTD:dbgheap.obj
 0002:000066ac       ??_C@_1BM@MIMANDHC@?$AAs?$AAt?$AAa?$AAt?$AAe?$AA?5?$AA?$CB?$AA?$DN?$AA?5?$AAN?$AAU?$AAL?$AAL?$AA?$AA@ 100866ac     LIBCMTD:dbgheap.obj
 0002:000066c8       ??_C@_1CE@NJJKELF@?$AA_?$AAC?$AAr?$AAt?$AAM?$AAe?$AAm?$AAC?$AAh?$AAe?$AAc?$AAk?$AAp?$AAo?$AAi?$AAn?$AAt?$AA?$AA@ 100866c8     LIBCMTD:dbgheap.obj
 0002:000066ec       ??_C@_0DP@LEFMFBOD@Bad?5memory?5block?5found?5at?50x?$CFp?4?6@ 100866ec     LIBCMTD:dbgheap.obj
 0002:0000672c       ??_C@_0CB@EAAIGELO@Bad?5memory?5block?5found?5at?50x?$CFp?4?6@ 1008672c     LIBCMTD:dbgheap.obj
 0002:00006750       ??_C@_1CE@PDIENACM@?$AA_?$AAC?$AAr?$AAt?$AAM?$AAe?$AAm?$AAD?$AAi?$AAf?$AAf?$AAe?$AAr?$AAe?$AAn?$AAc?$AAe?$AA?$AA@ 10086750     LIBCMTD:dbgheap.obj
 0002:00006774       ??_C@_1CC@DHPFEMMN@?$AAo?$AAl?$AAd?$AAS?$AAt?$AAa?$AAt?$AAe?$AA?5?$AA?$CB?$AA?$DN?$AA?5?$AAN?$AAU?$AAL?$AAL?$AA?$AA@ 10086774     LIBCMTD:dbgheap.obj
 0002:00006798       ??_C@_1CC@DFPEDFBP@?$AAn?$AAe?$AAw?$AAS?$AAt?$AAa?$AAt?$AAe?$AA?5?$AA?$CB?$AA?$DN?$AA?5?$AAN?$AAU?$AAL?$AAL?$AA?$AA@ 10086798     LIBCMTD:dbgheap.obj
 0002:000067bc       ??_C@_05MKKEDADM@?$CF?42X?5?$AA@ 100867bc     LIBCMTD:dbgheap.obj
 0002:000067c4       ??_C@_1CG@LPFIACGM@?$AA_?$AAp?$AAr?$AAi?$AAn?$AAt?$AAM?$AAe?$AAm?$AAB?$AAl?$AAo?$AAc?$AAk?$AAD?$AAa?$AAt?$AAa?$AA?$AA@ 100867c4     LIBCMTD:dbgheap.obj
 0002:000067ec       ??_C@_0BA@HJBKCELP@?5Data?3?5?$DM?$CFs?$DO?5?$CFs?6?$AA@ 100867ec     LIBCMTD:dbgheap.obj
 0002:000067fc       ??_C@_0BE@KCIPKCIA@Dumping?5objects?5?9?$DO?6?$AA@ 100867fc     LIBCMTD:dbgheap.obj
 0002:00006810       ??_C@_0BE@OIEFNFL@?$CDFile?5Error?$CD?$CI?$CFd?$CJ?5?3?5?$AA@ 10086810     LIBCMTD:dbgheap.obj
 0002:00006824       ??_C@_0L@JMEFFCCJ@?$CFhs?$CI?$CFd?$CJ?5?3?5?$AA@ 10086824     LIBCMTD:dbgheap.obj
 0002:00006830       ??_C@_06PKLGBFGM@?$HL?$CFld?$HN?5?$AA@ 10086830     LIBCMTD:dbgheap.obj
 0002:00006838       ??_C@_0DD@GHNAAKBB@client?5block?5at?50x?$CFp?0?5subtype?5?$CFx@ 10086838     LIBCMTD:dbgheap.obj
 0002:0000686c       ??_C@_0CH@FAGDDGPN@normal?5block?5at?50x?$CFp?0?5?$CFIu?5bytes?5@ 1008686c     LIBCMTD:dbgheap.obj
 0002:00006894       ??_C@_0DA@MDLBNIBM@crt?5block?5at?50x?$CFp?0?5subtype?5?$CFx?0?5?$CF@ 10086894     LIBCMTD:dbgheap.obj
 0002:000068c4       ??_C@_0BH@GFGKJDCO@Object?5dump?5complete?4?6?$AA@ 100868c4     LIBCMTD:dbgheap.obj
 0002:000068dc       ??_C@_0BI@JBFPOEJA@Detected?5memory?5leaks?$CB?6?$AA@ 100868dc     LIBCMTD:dbgheap.obj
 0002:000068f4       ??_C@_1CM@MPNIBKGK@?$AA_?$AAC?$AAr?$AAt?$AAM?$AAe?$AAm?$AAD?$AAu?$AAm?$AAp?$AAS?$AAt?$AAa?$AAt?$AAi?$AAs?$AAt?$AAi?$AAc?$AAs?$AA?$AA@ 100868f4     LIBCMTD:dbgheap.obj
 0002:00006920       ??_C@_0BO@DACNIABB@?$CFId?5bytes?5in?5?$CFId?5?$CFhs?5Blocks?4?6?$AA@ 10086920     LIBCMTD:dbgheap.obj
 0002:00006940       ??_C@_0CB@BLHDAFNE@Largest?5number?5used?3?5?$CFId?5bytes?4?6@ 10086940     LIBCMTD:dbgheap.obj
 0002:00006964       ??_C@_0BP@DEDHGGGI@Total?5allocations?3?5?$CFId?5bytes?4?6?$AA@ 10086964     LIBCMTD:dbgheap.obj
 0002:00006984       ??_C@_1CE@NPMGPNNP@?$AAI?$AAS?$AA_?$AA2?$AA_?$AAP?$AAO?$AAW?$AA_?$AAN?$AA?$CI?$AAa?$AAl?$AAi?$AAg?$AAn?$AA?$CJ?$AA?$AA@ 10086984     LIBCMTD:dbgheap.obj
 0002:000069a8       ??_C@_1DG@DONCJBBJ@?$AA_?$AAa?$AAl?$AAi?$AAg?$AAn?$AAe?$AAd?$AA_?$AAo?$AAf?$AAf?$AAs?$AAe?$AAt?$AA_?$AAm?$AAa?$AAl?$AAl?$AAo?$AAc?$AA_?$AAd?$AAb?$AAg?$AA?$AA@ 100869a8     LIBCMTD:dbgheap.obj
 0002:000069e0       ??_C@_1DK@LFLKFPDA@?$AAo?$AAf?$AAf?$AAs?$AAe?$AAt?$AA?5?$AA?$DN?$AA?$DN?$AA?5?$AA0?$AA?5?$AA?$HM?$AA?$HM?$AA?5?$AAo?$AAf?$AAf?$AAs?$AAe?$AAt?$AA?5?$AA?$DM?$AA?5?$AAs?$AAi?$AAz?$AAe?$AA?$AA@ 100869e0     LIBCMTD:dbgheap.obj
 0002:00006a20       ??_C@_0EI@NDNJMAJK@The?5block?5at?50x?$CFp?5was?5not?5alloca@ 10086a20     LIBCMTD:dbgheap.obj
 0002:00006a68       ??_C@_0DL@PGHMMKNE@Damage?5before?50x?$CFp?5which?5was?5all@ 10086a68     LIBCMTD:dbgheap.obj
 0002:00006aa4       ??_C@_1DI@NINIKFFK@?$AA_?$AAa?$AAl?$AAi?$AAg?$AAn?$AAe?$AAd?$AA_?$AAo?$AAf?$AAf?$AAs?$AAe?$AAt?$AA_?$AAr?$AAe?$AAa?$AAl?$AAl?$AAo?$AAc?$AA_?$AAd?$AAb?$AAg?$AA?$AA@ 10086aa4     LIBCMTD:dbgheap.obj
 0002:00006ae0       ??_C@_0EF@PGELACII@The?5block?5at?50x?$CFp?5was?5not?5alloca@ 10086ae0     LIBCMTD:dbgheap.obj
 0002:00006b28       ??_C@_1CC@MOBIKHH@?$AAm?$AAe?$AAm?$AAb?$AAl?$AAo?$AAc?$AAk?$AA?5?$AA?$CB?$AA?$DN?$AA?5?$AAN?$AAU?$AAL?$AAL?$AA?$AA@ 10086b28     LIBCMTD:dbgheap.obj
 0002:00006b4c       ??_C@_1CG@CEGMHIMN@?$AA_?$AAa?$AAl?$AAi?$AAg?$AAn?$AAe?$AAd?$AA_?$AAm?$AAs?$AAi?$AAz?$AAe?$AA_?$AAd?$AAb?$AAg?$AA?$AA@ 10086b4c     LIBCMTD:dbgheap.obj
 0002:00007080       __infinity                 10087080     LIBCMTD:87tran.obj
 0002:0000708a       __minfinity                1008708a     LIBCMTD:87tran.obj
 0002:00007094       __logemax                  10087094     LIBCMTD:87tran.obj
 0002:000070ba       __OP_EXPjmptab             100870ba     LIBCMTD:87tran.obj
 0002:00007110       ??_C@_1GA@PBJHELNC@?$AAf?$AA?3?$AA?2?$AAd?$AAd?$AA?2?$AAv?$AAc?$AAt?$AAo?$AAo?$AAl?$AAs?$AA?2?$AAc?$AAr?$AAt?$AA_?$AAb?$AAl?$AAd?$AA?2?$AAs?$AAe?$AAl?$AAf?$AA_?$AAx?$AA8?$AA6?$AA?2?$AAc@ 10087110     LIBCMTD:fileno.obj
 0002:00007170       ??_C@_1BA@JGHIEKKM@?$AA_?$AAf?$AAi?$AAl?$AAe?$AAn?$AAo?$AA?$AA@ 10087170     LIBCMTD:fileno.obj
 0002:00007180       ??_C@_1FO@LPCLHKGE@?$AA?$CI?$AAf?$AAh?$AA?5?$AA?$DO?$AA?$DN?$AA?5?$AA0?$AA?5?$AA?$CG?$AA?$CG?$AA?5?$AA?$CI?$AAu?$AAn?$AAs?$AAi?$AAg?$AAn?$AAe?$AAd?$AA?$CJ?$AAf?$AAh?$AA?5?$AA?$DM?$AA?5?$AA?$CI?$AAu?$AAn?$AAs?$AAi@ 10087180     LIBCMTD:close.obj
 0002:000071e0       ??_C@_1FO@NNGNFGFH@?$AAf?$AA?3?$AA?2?$AAd?$AAd?$AA?2?$AAv?$AAc?$AAt?$AAo?$AAo?$AAl?$AAs?$AA?2?$AAc?$AAr?$AAt?$AA_?$AAb?$AAl?$AAd?$AA?2?$AAs?$AAe?$AAl?$AAf?$AA_?$AAx?$AA8?$AA6?$AA?2?$AAc@ 100871e0     LIBCMTD:close.obj
 0002:00007240       ??_C@_1O@EDEJGJBM@?$AA_?$AAc?$AAl?$AAo?$AAs?$AAe?$AA?$AA@ 10087240     LIBCMTD:close.obj
 0002:00007250       ??_C@_1CM@OKGMMMDH@?$AA?$CI?$AA_?$AAo?$AAs?$AAf?$AAi?$AAl?$AAe?$AA?$CI?$AAf?$AAh?$AA?$CJ?$AA?5?$AA?$CG?$AA?5?$AAF?$AAO?$AAP?$AAE?$AAN?$AA?$CJ?$AA?$AA@ 10087250     LIBCMTD:close.obj
 0002:00007280       ??_C@_1JE@ECKHFIFP@?$AA?$CI?$AA?$CC?$AAI?$AAn?$AAv?$AAa?$AAl?$AAi?$AAd?$AA?5?$AAf?$AAi?$AAl?$AAe?$AA?5?$AAd?$AAe?$AAs?$AAc?$AAr?$AAi?$AAp?$AAt?$AAo?$AAr?$AA?4?$AA?5?$AAF?$AAi?$AAl?$AAe?$AA?5@ 10087280     LIBCMTD:close.obj
 0002:00007318       ??_C@_1GA@MFGIMPNL@?$AAf?$AA?3?$AA?2?$AAd?$AAd?$AA?2?$AAv?$AAc?$AAt?$AAo?$AAo?$AAl?$AAs?$AA?2?$AAc?$AAr?$AAt?$AA_?$AAb?$AAl?$AAd?$AA?2?$AAs?$AAe?$AAl?$AAf?$AA_?$AAx?$AA8?$AA6?$AA?2?$AAc@ 10087318     LIBCMTD:dosmap.obj
 0002:00007378       ??_C@_1BG@KCMPBBDK@?$AA_?$AAg?$AAe?$AAt?$AA_?$AAe?$AAr?$AAr?$AAn?$AAo?$AA?$AA@ 10087378     LIBCMTD:dosmap.obj
 0002:00007390       ??_C@_1BM@INIPHHDD@?$AA_?$AAg?$AAe?$AAt?$AA_?$AAd?$AAo?$AAs?$AAe?$AAr?$AAr?$AAn?$AAo?$AA?$AA@ 10087390     LIBCMTD:dosmap.obj
 0002:000073ac       ??_C@_1BO@KIJENGPH@?$AAs?$AAt?$AAr?$AAe?$AAa?$AAm?$AA?5?$AA?$CB?$AA?$DN?$AA?5?$AAN?$AAU?$AAL?$AAL?$AA?$AA@ 100873ac     LIBCMTD:_freebuf.obj
 0002:000073d0       ??_C@_1GE@MIMBMOF@?$AAf?$AA?3?$AA?2?$AAd?$AAd?$AA?2?$AAv?$AAc?$AAt?$AAo?$AAo?$AAl?$AAs?$AA?2?$AAc?$AAr?$AAt?$AA_?$AAb?$AAl?$AAd?$AA?2?$AAs?$AAe?$AAl?$AAf?$AA_?$AAx?$AA8?$AA6?$AA?2?$AAc@ 100873d0     LIBCMTD:_freebuf.obj
 0002:00007434       ??_C@_0DA@NLPACBPK@f?3?2dd?2vctools?2crt_bld?2self_x86?2c@ 10087434     LIBCMTD:stream.obj
 0002:00007484       ??_C@_1CC@JBMDNKJP@?$AAf?$AAi?$AAl?$AAe?$AAn?$AAa?$AAm?$AAe?$AA?5?$AA?$CB?$AA?$DN?$AA?5?$AAN?$AAU?$AAL?$AAL?$AA?$AA@ 10087484     LIBCMTD:_open.obj
 0002:000074a8       ??_C@_1FO@POGAHKND@?$AAf?$AA?3?$AA?2?$AAd?$AAd?$AA?2?$AAv?$AAc?$AAt?$AAo?$AAo?$AAl?$AAs?$AA?2?$AAc?$AAr?$AAt?$AA_?$AAb?$AAl?$AAd?$AA?2?$AAs?$AAe?$AAl?$AAf?$AA_?$AAx?$AA8?$AA6?$AA?2?$AAc@ 100874a8     LIBCMTD:_open.obj
 0002:00007508       ??_C@_1BK@HGLMNMEC@?$AAm?$AAo?$AAd?$AAe?$AA?5?$AA?$CB?$AA?$DN?$AA?5?$AAN?$AAU?$AAL?$AAL?$AA?$AA@ 10087508     LIBCMTD:_open.obj
 0002:00007524       ??_C@_1BI@MFCLPIBM@?$AAs?$AAt?$AAr?$AA?5?$AA?$CB?$AA?$DN?$AA?5?$AAN?$AAU?$AAL?$AAL?$AA?$AA@ 10087524     LIBCMTD:_open.obj
 0002:0000753c       ??_C@_1DK@PKMJBLLN@?$AA?$CI?$AA?$CC?$AAI?$AAn?$AAv?$AAa?$AAl?$AAi?$AAd?$AA?5?$AAf?$AAi?$AAl?$AAe?$AA?5?$AAo?$AAp?$AAe?$AAn?$AA?5?$AAm?$AAo?$AAd?$AAe?$AA?$CC?$AA?0?$AA0?$AA?$CJ?$AA?$AA@ 1008753c     LIBCMTD:_open.obj
 0002:00007578       ??_C@_1BE@DONHJJKE@?$AA_?$AAo?$AAp?$AAe?$AAn?$AAf?$AAi?$AAl?$AAe?$AA?$AA@ 10087578     LIBCMTD:_open.obj
 0002:0000758c       ??_C@_1CI@KEDPFCAL@?$AA?$CI?$AA?$CK?$AAm?$AAo?$AAd?$AAe?$AA?5?$AA?$DN?$AA?$DN?$AA?5?$AA_?$AAT?$AA?$CI?$AA?8?$AA?2?$AA0?$AA?8?$AA?$CJ?$AA?$CJ?$AA?$AA@ 1008758c     LIBCMTD:_open.obj
 0002:000075b8       ??_C@_1GE@PEEPNGBM@?$AAf?$AA?3?$AA?2?$AAd?$AAd?$AA?2?$AAv?$AAc?$AAt?$AAo?$AAo?$AAl?$AAs?$AA?2?$AAc?$AAr?$AAt?$AA_?$AAb?$AAl?$AAd?$AA?2?$AAs?$AAe?$AAl?$AAf?$AA_?$AAx?$AA8?$AA6?$AA?2?$AAc@ 100875b8     LIBCMTD:vfprintf.obj
 0002:0000761c       ??_C@_1CA@OEHMHBJF@?$AAv?$AAf?$AAp?$AAr?$AAi?$AAn?$AAt?$AAf?$AA_?$AAh?$AAe?$AAl?$AAp?$AAe?$AAr?$AA?$AA@ 1008761c     LIBCMTD:vfprintf.obj
 0002:00007640       ??_C@_1GC@DGAFOCMO@?$AAf?$AA?3?$AA?2?$AAd?$AAd?$AA?2?$AAv?$AAc?$AAt?$AAo?$AAo?$AAl?$AAs?$AA?2?$AAc?$AAr?$AAt?$AA_?$AAb?$AAl?$AAd?$AA?2?$AAs?$AAe?$AAl?$AAf?$AA_?$AAx?$AA8?$AA6?$AA?2?$AAc@ 10087640     LIBCMTD:_sftbuf.obj
 0002:000076a4       ??_C@_0DB@OLNNDFNH@f?3?2dd?2vctools?2crt_bld?2self_x86?2c@ 100876a4     LIBCMTD:_sftbuf.obj
 0002:000076d8       ??_C@_1CO@KCKAACMI@?$AAf?$AAl?$AAa?$AAg?$AA?5?$AA?$DN?$AA?$DN?$AA?5?$AA0?$AA?5?$AA?$HM?$AA?$HM?$AA?5?$AAf?$AAl?$AAa?$AAg?$AA?5?$AA?$DN?$AA?$DN?$AA?5?$AA1?$AA?$AA@ 100876d8     LIBCMTD:_sftbuf.obj
 0002:00007708       ??_C@_06OJHGLDPL@?$CInull?$CJ?$AA@ 10087708     LIBCMTD:output.obj
 0002:00007710       ??_C@_1O@CEDCILHN@?$AA?$CI?$AAn?$AAu?$AAl?$AAl?$AA?$CJ?$AA?$AA@ 10087710     LIBCMTD:output.obj
 0002:00007720       ___lookuptable             10087720     LIBCMTD:output.obj
 0002:00007780       ??_C@_1GA@HHFOFBLN@?$AAf?$AA?3?$AA?2?$AAd?$AAd?$AA?2?$AAv?$AAc?$AAt?$AAo?$AAo?$AAl?$AAs?$AA?2?$AAc?$AAr?$AAt?$AA_?$AAb?$AAl?$AAd?$AA?2?$AAs?$AAe?$AAl?$AAf?$AA_?$AAx?$AA8?$AA6?$AA?2?$AAc@ 10087780     LIBCMTD:output.obj
 0002:000077e0       ??_C@_1BE@IONLIDNC@?$AA_?$AAo?$AAu?$AAt?$AAp?$AAu?$AAt?$AA_?$AAl?$AA?$AA@ 100877e0     LIBCMTD:output.obj
 0002:000077f4       ??_C@_1CC@IFFHEMNF@?$AA?$CI?$AAc?$AAh?$AA?5?$AA?$CB?$AA?$DN?$AA?5?$AA_?$AAT?$AA?$CI?$AA?8?$AA?2?$AA0?$AA?8?$AA?$CJ?$AA?$CJ?$AA?$AA@ 100877f4     LIBCMTD:output.obj
 0002:00007818       ??_C@_1EK@PNGFDECN@?$AA?$CI?$AA?$CC?$AA?8?$AAn?$AA?8?$AA?5?$AAf?$AAo?$AAr?$AAm?$AAa?$AAt?$AA?5?$AAs?$AAp?$AAe?$AAc?$AAi?$AAf?$AAi?$AAe?$AAr?$AA?5?$AAd?$AAi?$AAs?$AAa?$AAb?$AAl?$AAe?$AAd?$AA?$CC@ 10087818     LIBCMTD:output.obj
 0002:00007864       ??_C@_0DA@NFBEBPEE@f?3?2dd?2vctools?2crt_bld?2self_x86?2c@ 10087864     LIBCMTD:output.obj
 0002:00007894       ??_C@_0DA@NBLAKPEL@f?3?2dd?2vctools?2crt_bld?2self_x86?2c@ 10087894     LIBCMTD:ioinit.obj
 0002:000078c4       ??_C@_1DO@MBOKMJPK@?$AAn?$AAF?$AAl?$AAo?$AAa?$AAt?$AAS?$AAt?$AAr?$AAU?$AAs?$AAe?$AAd?$AA?$DM?$AA?$DN?$AA?$CI?$AA?$CK?$AAp?$AAn?$AAF?$AAl?$AAo?$AAa?$AAt?$AAS?$AAt?$AAr?$AAS?$AAz?$AA?$CJ?$AA?$AA@ 100878c4     LIBCMTD:input.obj
 0002:00007908       ??_C@_1FO@LDDBLKJ@?$AAf?$AA?3?$AA?2?$AAd?$AAd?$AA?2?$AAv?$AAc?$AAt?$AAo?$AAo?$AAl?$AAs?$AA?2?$AAc?$AAr?$AAt?$AA_?$AAb?$AAl?$AAd?$AA?2?$AAs?$AAe?$AAl?$AAf?$AA_?$AAx?$AA8?$AA6?$AA?2?$AAc@ 10087908     LIBCMTD:input.obj
 0002:00007968       ??_C@_0CP@MMGCGBFO@f?3?2dd?2vctools?2crt_bld?2self_x86?2c@ 10087968     LIBCMTD:input.obj
 0002:00007998       ??_C@_1BC@MJNBEDIJ@?$AA_?$AAi?$AAn?$AAp?$AAu?$AAt?$AA_?$AAl?$AA?$AA@ 10087998     LIBCMTD:input.obj
 0002:000079ac       ??_C@_1BG@LBKFJFHM@?$AA_?$AAi?$AAn?$AAp?$AAu?$AAt?$AA_?$AAs?$AA_?$AAl?$AA?$AA@ 100879ac     LIBCMTD:inputs.obj
 0002:000079c4       ??_C@_1DG@MPPGJOHD@?$AA?$CI?$AA?$CC?$AAI?$AAn?$AAv?$AAa?$AAl?$AAi?$AAd?$AA?5?$AAI?$AAn?$AAp?$AAu?$AAt?$AA?5?$AAF?$AAo?$AAr?$AAm?$AAa?$AAt?$AA?$CC?$AA?0?$AA0?$AA?$CJ?$AA?$AA@ 100879c4     LIBCMTD:inputs.obj
 0002:00007a00       ??_C@_1GC@DHFFJKMC@?$AAf?$AA?3?$AA?2?$AAd?$AAd?$AA?2?$AAv?$AAc?$AAt?$AAo?$AAo?$AAl?$AAs?$AA?2?$AAc?$AAr?$AAt?$AA_?$AAb?$AAl?$AAd?$AA?2?$AAs?$AAe?$AAl?$AAf?$AA_?$AAx?$AA8?$AA6?$AA?2?$AAc@ 10087a00     LIBCMTD:vprintf.obj
 0002:00007a64       ??_C@_1BO@JGFPDJCP@?$AAv?$AAp?$AAr?$AAi?$AAn?$AAt?$AAf?$AA_?$AAh?$AAe?$AAl?$AAp?$AAe?$AAr?$AA?$AA@ 10087a64     LIBCMTD:vprintf.obj
 0002:00007a84       ??_C@_0DC@LMJHGCKC@f?3?2dd?2vctools?2crt_bld?2self_x86?2c@ 10087a84     LIBCMTD:tidtable.obj
 0002:00007b58       ??_C@_0NN@NGPKDKPD@The?5value?5of?5ESP?5was?5not?5properl@ 10087b58     LIBCMTD:error.obj
 0002:00007c38       ??_C@_0BBN@GPMLNJCF@A?5cast?5to?5a?5smaller?5data?5type?5ha@ 10087c38     LIBCMTD:error.obj
 0002:00007d58       ??_C@_0BN@FFOINMNJ@Stack?5memory?5was?5corrupted?6?$AN?$AA@ 10087d58     LIBCMTD:error.obj
 0002:00007d78       ??_C@_0DG@HKJMLLLP@A?5local?5variable?5was?5used?5before@ 10087d78     LIBCMTD:error.obj
 0002:00007db0       ??_C@_0CM@NGINOKPC@Stack?5memory?5around?5_alloca?5was?5@ 10087db0     LIBCMTD:error.obj
 0002:00007ddc       ??_C@_0BO@GNIAFIKK@Unknown?5Runtime?5Check?5Error?6?$AN?$AA@ 10087ddc     LIBCMTD:error.obj
 0002:00007e00       ??_C@_1GM@OLMCBDMB@?$AAR?$AAu?$AAn?$AAt?$AAi?$AAm?$AAe?$AA?5?$AAC?$AAh?$AAe?$AAc?$AAk?$AA?5?$AAE?$AAr?$AAr?$AAo?$AAr?$AA?4?$AA?6?$AA?$AN?$AA?5?$AAU?$AAn?$AAa?$AAb?$AAl?$AAe?$AA?5?$AAt?$AAo@ 10087e00     LIBCMTD:error.obj
 0002:00007e70       ??_C@_1EA@NFKNIFJP@?$AAR?$AAu?$AAn?$AA?9?$AAT?$AAi?$AAm?$AAe?$AA?5?$AAC?$AAh?$AAe?$AAc?$AAk?$AA?5?$AAF?$AAa?$AAi?$AAl?$AAu?$AAr?$AAe?$AA?5?$AA?$CD?$AA?$CF?$AAd?$AA?5?$AA?9?$AA?5?$AA?$CF?$AAs?$AA?$AA@ 10087e70     LIBCMTD:error.obj
 0002:00007eb0       ??_C@_0BB@PFFGGCJP@Unknown?5Filename?$AA@ 10087eb0     LIBCMTD:error.obj
 0002:00007ec4       ??_C@_0BE@GNBOBNCK@Unknown?5Module?5Name?$AA@ 10087ec4     LIBCMTD:error.obj
 0002:00007ed8       ??_C@_0CA@IODNCDPG@Run?9Time?5Check?5Failure?5?$CD?$CFd?5?9?5?$CFs?$AA@ 10087ed8     LIBCMTD:error.obj
 0002:00007ef8       ??_C@_0CG@IAFNJNEE@Stack?5corrupted?5near?5unknown?5var@ 10087ef8     LIBCMTD:error.obj
 0002:00007f20       ??_C@_1BG@OILDLIOJ@?$AAu?$AAs?$AAe?$AAr?$AA3?$AA2?$AA?4?$AAd?$AAl?$AAl?$AA?$AA@ 10087f20     LIBCMTD:error.obj
 0002:00007f38       ??_C@_09FOPFMPEJ@wsprintfA?$AA@ 10087f38     LIBCMTD:error.obj
 0002:00007f48       ??_C@_0EJ@LJKNEOLN@Stack?5area?5around?5_alloca?5memory@ 10087f48     LIBCMTD:error.obj
 0002:00007f94       ??_C@_08OMAHNMHJ@?6Data?3?5?$DM?$AA@ 10087f94     LIBCMTD:error.obj
 0002:00007fa0       ??_C@_0CK@DKGBICFE@?6Allocation?5number?5within?5this?5f@ 10087fa0     LIBCMTD:error.obj
 0002:00007fcc       ??_C@_07DFDJCKFN@?6Size?3?5?$AA@ 10087fcc     LIBCMTD:error.obj
 0002:00007fd4       ??_C@_0N@MHFFIMFG@?6Address?3?50x?$AA@ 10087fd4     LIBCMTD:error.obj
 0002:00007fe8       ??_C@_0EI@CLEPFNGI@Stack?5area?5around?5_alloca?5memory@ 10087fe8     LIBCMTD:error.obj
 0002:00008030       ??_C@_0BC@KIBAILCI@?$CFs?$CFs?$CFp?$CFs?$CFld?$CFs?$CFd?$CFs?$AA@ 10088030     LIBCMTD:error.obj
 0002:00008044       ??_C@_01EEMJAFIK@?6?$AA@   10088044     LIBCMTD:error.obj
 0002:00008048       ??_C@_02LLMPMKNF@?$DO?5?$AA@ 10088048     LIBCMTD:error.obj
 0002:0000804c       ??_C@_08KJEDNCKC@?$CFs?$CFs?$CFs?$CFs?$AA@ 1008804c     LIBCMTD:error.obj
 0002:00008058       ??_C@_0DE@OHJBPMBP@A?5variable?5is?5being?5used?5without@ 10088058     LIBCMTD:error.obj
 0002:000080a0       ??_C@_0BJ@HEGAHDFO@Stack?5pointer?5corruption?$AA@ 100880a0     LIBCMTD:userapi.obj
 0002:000080bc       ??_C@_0CK@FEGOIOPB@Cast?5to?5smaller?5type?5causing?5los@ 100880bc     LIBCMTD:userapi.obj
 0002:000080e8       ??_C@_0BI@CIGMDCBH@Stack?5memory?5corruption?$AA@ 100880e8     LIBCMTD:userapi.obj
 0002:00008100       ??_C@_0CK@CNLNOEPB@Local?5variable?5used?5before?5initi@ 10088100     LIBCMTD:userapi.obj
 0002:0000812c       ??_C@_0BP@OGBCLIBO@Stack?5around?5_alloca?5corrupted?$AA@ 1008812c     LIBCMTD:userapi.obj
 0002:00008150       ??_C@_0NM@DNEDKLDF@The?5value?5of?5ESP?5was?5not?5properl@ 10088150     LIBCMTD:chkesp.obj
 0002:0000822c       ??_C@_00CNPNBAHC@?$AA@     1008822c     LIBCMTD:chkesp.obj
 0002:00008230       ??_C@_0DP@CBBAPGOP@f?3?2dd?2vctools?2crt_bld?2self_x86?2c@ 10088230     LIBCMTD:chkesp.obj
 0002:00008270       __pDestructExceptionObject 10088270     LIBCMTD:frame.obj
 0002:00008278       ??_7bad_exception@std@@6B@ 10088278     LIBCMTD:frame.obj
 0002:00008280       ??_C@_0O@DPKOEFFH@bad?5exception?$AA@ 10088280     LIBCMTD:frame.obj
 0002:00008290       ??_C@_1CK@GELGGBDK@?$AAp?$AAN?$AAo?$AAd?$AAe?$AA?9?$AA?$DO?$AA_?$AAN?$AAe?$AAx?$AAt?$AA?5?$AA?$CB?$AA?$DN?$AA?5?$AAN?$AAU?$AAL?$AAL?$AA?$AA@ 10088290     LIBCMTD:typname.obj
 0002:000082c0       ??_C@_1HG@KNCBMCDD@?$AAf?$AA?3?$AA?2?$AAd?$AAd?$AA?2?$AAv?$AAc?$AAt?$AAo?$AAo?$AAl?$AAs?$AA?2?$AAc?$AAr?$AAt?$AA_?$AAb?$AAl?$AAd?$AA?2?$AAs?$AAe?$AAl?$AAf?$AA_?$AAx?$AA8?$AA6?$AA?2?$AAc@ 100882c0     LIBCMTD:typname.obj
 0002:00008338       ??_C@_1CM@OOICDMK@?$AAt?$AAy?$AAp?$AAe?$AA_?$AAi?$AAn?$AAf?$AAo?$AA?3?$AA?3?$AA_?$AAN?$AAa?$AAm?$AAe?$AA_?$AAb?$AAa?$AAs?$AAe?$AA?$AA@ 10088338     LIBCMTD:typname.obj
 0002:00008368       ??_C@_1JK@NAFNEPGC@?$AAs?$AAt?$AAr?$AAc?$AAp?$AAy?$AA_?$AAs?$AA?5?$AA?$CI?$AA?$CI?$AAc?$AAh?$AAa?$AAr?$AA?5?$AA?$CK?$AA?$CJ?$AA?$CI?$AA?$CI?$AAt?$AAy?$AAp?$AAe?$AA_?$AAi?$AAn?$AAf?$AAo?$AA?5?$AA?$CK?$AA?$CJ@ 10088368     LIBCMTD:typname.obj
 0002:00008404       ??_C@_1DO@OJJLFJPE@?$AAt?$AAy?$AAp?$AAe?$AA_?$AAi?$AAn?$AAf?$AAo?$AA?3?$AA?3?$AA_?$AAN?$AAa?$AAm?$AAe?$AA_?$AAb?$AAa?$AAs?$AAe?$AA_?$AAi?$AAn?$AAt?$AAe?$AAr?$AAn?$AAa?$AAl?$AA?$AA@ 10088404     LIBCMTD:typname.obj
 0002:00008448       ??_C@_1GI@EAJKJPED@?$AAs?$AAt?$AAr?$AAc?$AAp?$AAy?$AA_?$AAs?$AA?5?$AA?$CI?$AAp?$AAT?$AAm?$AAp?$AAT?$AAy?$AAp?$AAe?$AAN?$AAa?$AAm?$AAe?$AA?0?$AA?5?$AAl?$AAe?$AAn?$AA?$CL?$AA2?$AA?0?$AA?5?$AA?$CI@ 10088448     LIBCMTD:typname.obj
 0002:000084b0       ??_C@_1BI@ICGGMGLK@?$AAb?$AAu?$AAf?$AA?5?$AA?$CB?$AA?$DN?$AA?5?$AAN?$AAU?$AAL?$AAL?$AA?$AA@ 100884b0     LIBCMTD:cvt.obj
 0002:000084c8       ??_C@_1GO@NCCGBNKI@?$AAf?$AA?3?$AA?2?$AAd?$AAd?$AA?2?$AAv?$AAc?$AAt?$AAo?$AAo?$AAl?$AAs?$AA?2?$AAc?$AAr?$AAt?$AA_?$AAb?$AAl?$AAd?$AA?2?$AAs?$AAe?$AAl?$AAf?$AA_?$AAx?$AA8?$AA6?$AA?2?$AAc@ 100884c8     LIBCMTD:cvt.obj
 0002:00008538       ??_C@_1BE@OLBNEILL@?$AA_?$AAc?$AAf?$AAt?$AAo?$AAe?$AA2?$AA_?$AAl?$AA?$AA@ 10088538     LIBCMTD:cvt.obj
 0002:0000854c       ??_C@_1CA@CBMNPEO@?$AAs?$AAi?$AAz?$AAe?$AAI?$AAn?$AAB?$AAy?$AAt?$AAe?$AAs?$AA?5?$AA?$DO?$AA?5?$AA0?$AA?$AA@ 1008854c     LIBCMTD:cvt.obj
 0002:00008570       ??_C@_1HE@NACBNDPP@?$AAs?$AAi?$AAz?$AAe?$AAI?$AAn?$AAB?$AAy?$AAt?$AAe?$AAs?$AA?5?$AA?$DO?$AA?5?$AA?$CI?$AAs?$AAi?$AAz?$AAe?$AA_?$AAt?$AA?$CJ?$AA?$CI?$AA3?$AA?5?$AA?$CL?$AA?5?$AA?$CI?$AAn?$AAd?$AAe?$AAc@ 10088570     LIBCMTD:cvt.obj
 0002:000085e8       ??_C@_1LE@EOIFGNCJ@?$AAs?$AAt?$AAr?$AAc?$AAp?$AAy?$AA_?$AAs?$AA?$CI?$AAp?$AA?0?$AA?5?$AA?$CI?$AAs?$AAi?$AAz?$AAe?$AAI?$AAn?$AAB?$AAy?$AAt?$AAe?$AAs?$AA?5?$AA?$DN?$AA?$DN?$AA?5?$AA?$CI?$AAs?$AAi?$AAz@ 100885e8     LIBCMTD:cvt.obj
 0002:0000869c       ??_C@_05KLBDPFGC@e?$CL000?$AA@ 1008869c     LIBCMTD:cvt.obj
 0002:000086a4       ??_C@_1BC@INKAPMHI@?$AA_?$AAc?$AAf?$AAt?$AAo?$AAe?$AA_?$AAl?$AA?$AA@ 100886a4     LIBCMTD:cvt.obj
 0002:000086b8       ??_C@_1BC@JOKPCIC@?$AA_?$AAc?$AAf?$AAt?$AAo?$AAa?$AA_?$AAl?$AA?$AA@ 100886b8     LIBCMTD:cvt.obj
 0002:000086d0       ??_C@_1FC@IKIMAMJB@?$AAs?$AAi?$AAz?$AAe?$AAI?$AAn?$AAB?$AAy?$AAt?$AAe?$AAs?$AA?5?$AA?$DO?$AA?5?$AA?$CI?$AAs?$AAi?$AAz?$AAe?$AA_?$AAt?$AA?$CJ?$AA?$CI?$AA1?$AA?5?$AA?$CL?$AA?5?$AA4?$AA?5?$AA?$CL?$AA?5?$AAn@ 100886d0     LIBCMTD:cvt.obj
 0002:00008724       ??_C@_1BE@CKPDLI@?$AA_?$AAc?$AAf?$AAt?$AAo?$AAf?$AA2?$AA_?$AAl?$AA?$AA@ 10088724     LIBCMTD:cvt.obj
 0002:00008738       ??_C@_1BC@DCPPLJL@?$AA_?$AAc?$AAf?$AAt?$AAo?$AAf?$AA_?$AAl?$AA?$AA@ 10088738     LIBCMTD:cvt.obj
 0002:0000874c       ??_C@_1BC@MPIFPLAF@?$AA_?$AAc?$AAf?$AAt?$AAo?$AAg?$AA_?$AAl?$AA?$AA@ 1008874c     LIBCMTD:cvt.obj
 0002:00008760       ??_C@_1GG@PHGJJHBC@?$AAf?$AA?3?$AA?2?$AAd?$AAd?$AA?2?$AAv?$AAc?$AAt?$AAo?$AAo?$AAl?$AAs?$AA?2?$AAc?$AAr?$AAt?$AA_?$AAb?$AAl?$AAd?$AA?2?$AAs?$AAe?$AAl?$AAf?$AA_?$AAx?$AA8?$AA6?$AA?2?$AAc@ 10088760     LIBCMTD:fp8.obj
 0002:000087c8       ??_C@_1CK@JMKHCBEI@?$AA_?$AAs?$AAe?$AAt?$AAd?$AAe?$AAf?$AAa?$AAu?$AAl?$AAt?$AAp?$AAr?$AAe?$AAc?$AAi?$AAs?$AAi?$AAo?$AAn?$AA?$AA@ 100887c8     LIBCMTD:fp8.obj
 0002:000087f8       ??_C@_1GE@KOCFNGPB@?$AA_?$AAc?$AAo?$AAn?$AAt?$AAr?$AAo?$AAl?$AAf?$AAp?$AA_?$AAs?$AA?$CI?$AA?$CI?$AA?$CI?$AAv?$AAo?$AAi?$AAd?$AA?5?$AA?$CK?$AA?$CJ?$AA0?$AA?$CJ?$AA?0?$AA?5?$AA0?$AAx?$AA0?$AA0?$AA0?$AA1@ 100887f8     LIBCMTD:fp8.obj
 0002:00009110       __indefinite               10089110     LIBCMTD:87disp.obj
 0002:0000911a       __piby2                    1008911a     LIBCMTD:87disp.obj
 0002:00009148       __DEFAULT_CW_in_mem        10089148     LIBCMTD:common.obj
 0002:0000914a       __pi_by_2_to_61            1008914a     LIBCMTD:common.obj
 0002:00009184       ??_C@_03KHJOGHMM@exp?$AA@  10089184     LIBCMTD:fpexcept.obj
 0002:00009188       ??_C@_03JGHBODFD@pow?$AA@  10089188     LIBCMTD:fpexcept.obj
 0002:0000918c       ??_C@_03MGHMBJCF@log?$AA@  1008918c     LIBCMTD:fpexcept.obj
 0002:00009190       ??_C@_05HGHHAHAP@log10?$AA@ 10089190     LIBCMTD:fpexcept.obj
 0002:00009198       ??_C@_04COOMCNPB@sinh?$AA@ 10089198     LIBCMTD:fpexcept.obj
 0002:000091a0       ??_C@_04HPJJNFIM@cosh?$AA@ 100891a0     LIBCMTD:fpexcept.obj
 0002:000091a8       ??_C@_04FJHINJAO@tanh?$AA@ 100891a8     LIBCMTD:fpexcept.obj
 0002:000091b0       ??_C@_04FIHNOPOL@asin?$AA@ 100891b0     LIBCMTD:fpexcept.obj
 0002:000091b8       ??_C@_04PDIFKINK@acos?$AA@ 100891b8     LIBCMTD:fpexcept.obj
 0002:000091c0       ??_C@_04MLLJIGOK@atan?$AA@ 100891c0     LIBCMTD:fpexcept.obj
 0002:000091c8       ??_C@_05KNGEOGJB@atan2?$AA@ 100891c8     LIBCMTD:fpexcept.obj
 0002:000091d0       ??_C@_04EIAKFFMI@sqrt?$AA@ 100891d0     LIBCMTD:fpexcept.obj
 0002:000091d8       ??_C@_03BLEJJJBH@sin?$AA@  100891d8     LIBCMTD:fpexcept.obj
 0002:000091dc       ??_C@_03LALBNOCG@cos?$AA@  100891dc     LIBCMTD:fpexcept.obj
 0002:000091e0       ??_C@_03IIINPABG@tan?$AA@  100891e0     LIBCMTD:fpexcept.obj
 0002:000091e4       ??_C@_04GFPJNGEK@ceil?$AA@ 100891e4     LIBCMTD:fpexcept.obj
 0002:000091ec       ??_C@_05PBJFFIGL@floor?$AA@ 100891ec     LIBCMTD:fpexcept.obj
 0002:000091f4       ??_C@_04ODHECPBC@fabs?$AA@ 100891f4     LIBCMTD:fpexcept.obj
 0002:000091fc       ??_C@_04EHEDPDJG@modf?$AA@ 100891fc     LIBCMTD:fpexcept.obj
 0002:00009204       ??_C@_05CEJMAHNP@ldexp?$AA@ 10089204     LIBCMTD:fpexcept.obj
 0002:0000920c       ??_C@_05KBKMEMPO@_cabs?$AA@ 1008920c     LIBCMTD:fpexcept.obj
 0002:00009214       ??_C@_06MEIMCGCF@_hypot?$AA@ 10089214     LIBCMTD:fpexcept.obj
 0002:0000921c       ??_C@_04KEPJIHGP@fmod?$AA@ 1008921c     LIBCMTD:fpexcept.obj
 0002:00009224       ??_C@_05GKKHEGJL@frexp?$AA@ 10089224     LIBCMTD:fpexcept.obj
 0002:0000922c       ??_C@_03MJLDFKDL@_y0?$AA@  1008922c     LIBCMTD:fpexcept.obj
 0002:00009230       ??_C@_03NAKIGLHK@_y1?$AA@  10089230     LIBCMTD:fpexcept.obj
 0002:00009234       ??_C@_03ONILCKOB@_yn?$AA@  10089234     LIBCMTD:fpexcept.obj
 0002:00009238       ??_C@_05JGDBENOH@_logb?$AA@ 10089238     LIBCMTD:fpexcept.obj
 0002:00009240       ??_C@_0L@KDOEJCKC@_nextafter?$AA@ 10089240     LIBCMTD:fpexcept.obj
 0002:00009b58       ??_C@_05EOHGHCHD@exp10?$AA@ 10089b58     LIBCMTD:libm_error.obj
 0002:00009b6a       __OP_SINHjmptab            10089b6a     LIBCMTD:87trigh.obj
 0002:00009b8a       __OP_COSHjmptab            10089b8a     LIBCMTD:87trigh.obj
 0002:00009baa       __OP_TANHjmptab            10089baa     LIBCMTD:87trigh.obj
 0002:00009bcc       ??_C@_1BI@GKKCBDMD@?$AAd?$AAs?$AAt?$AA?5?$AA?$CB?$AA?$DN?$AA?5?$AAN?$AAU?$AAL?$AAL?$AA?$AA@ 10089bcc     LIBCMTD:memcpy_s.obj
 0002:00009be8       ??_C@_1GE@NEOPGGBM@?$AAf?$AA?3?$AA?2?$AAd?$AAd?$AA?2?$AAv?$AAc?$AAt?$AAo?$AAo?$AAl?$AAs?$AA?2?$AAc?$AAr?$AAt?$AA_?$AAb?$AAl?$AAd?$AA?2?$AAs?$AAe?$AAl?$AAf?$AA_?$AAx?$AA8?$AA6?$AA?2?$AAc@ 10089be8     LIBCMTD:memcpy_s.obj
 0002:00009c4c       ??_C@_1BC@GKHDJMGB@?$AAm?$AAe?$AAm?$AAc?$AAp?$AAy?$AA_?$AAs?$AA?$AA@ 10089c4c     LIBCMTD:memcpy_s.obj
 0002:00009c60       ??_C@_1BI@DCHLDCPP@?$AAs?$AAr?$AAc?$AA?5?$AA?$CB?$AA?$DN?$AA?5?$AAN?$AAU?$AAL?$AAL?$AA?$AA@ 10089c60     LIBCMTD:memcpy_s.obj
 0002:00009c78       ??_C@_1CK@DDKKOLAN@?$AAs?$AAi?$AAz?$AAe?$AAI?$AAn?$AAB?$AAy?$AAt?$AAe?$AAs?$AA?5?$AA?$DO?$AA?$DN?$AA?5?$AAc?$AAo?$AAu?$AAn?$AAt?$AA?$AA@ 10089c78     LIBCMTD:memcpy_s.obj
 0002:00009ca8       ??_C@_1FC@PFMLEHKI@?$AA?$CI?$AA?$CI?$AA_?$AAD?$AAs?$AAt?$AA?$CJ?$AA?$CJ?$AA?5?$AA?$CB?$AA?$DN?$AA?5?$AAN?$AAU?$AAL?$AAL?$AA?5?$AA?$CG?$AA?$CG?$AA?5?$AA?$CI?$AA?$CI?$AA_?$AAS?$AAi?$AAz?$AAe?$AAI?$AAn?$AAW?$AAo?$AAr@ 10089ca8     LIBCMTD:wcscpy_s.obj
 0002:00009d00       ??_C@_1GI@BGBNCIMA@?$AAf?$AA?3?$AA?2?$AAd?$AAd?$AA?2?$AAv?$AAc?$AAt?$AAo?$AAo?$AAl?$AAs?$AA?2?$AAc?$AAr?$AAt?$AA_?$AAb?$AAl?$AAd?$AA?2?$AAs?$AAe?$AAl?$AAf?$AA_?$AAx?$AA8?$AA6?$AA?2?$AAc@ 10089d00     LIBCMTD:wcscpy_s.obj
 0002:00009d68       ??_C@_1BC@KIONAFPO@?$AAw?$AAc?$AAs?$AAc?$AAp?$AAy?$AA_?$AAs?$AA?$AA@ 10089d68     LIBCMTD:wcscpy_s.obj
 0002:00009d7c       ??_C@_1CG@OFBJMIGJ@?$AA?$CI?$AA?$CI?$AA?$CI?$AA_?$AAS?$AAr?$AAc?$AA?$CJ?$AA?$CJ?$AA?$CJ?$AA?5?$AA?$CB?$AA?$DN?$AA?5?$AAN?$AAU?$AAL?$AAL?$AA?$AA@ 10089d7c     LIBCMTD:wcscpy_s.obj
 0002:00009da4       ??_C@_1CI@HCPHDDLE@?$AAB?$AAu?$AAf?$AAf?$AAe?$AAr?$AA?5?$AAi?$AAs?$AA?5?$AAt?$AAo?$AAo?$AA?5?$AAs?$AAm?$AAa?$AAl?$AAl?$AA?$AA@ 10089da4     LIBCMTD:wcscpy_s.obj
 0002:00009dcc       ??_C@_1DM@MADKGDLO@?$AA?$CI?$AAL?$AA?$CC?$AAB?$AAu?$AAf?$AAf?$AAe?$AAr?$AA?5?$AAi?$AAs?$AA?5?$AAt?$AAo?$AAo?$AA?5?$AAs?$AAm?$AAa?$AAl?$AAl?$AA?$CC?$AA?5?$AA?$CG?$AA?$CG?$AA?5?$AA0?$AA?$CJ?$AA?$AA@ 10089dcc     LIBCMTD:wcscpy_s.obj
 0002:00009e08       ??_C@_1GE@DKGHLBLP@?$AAf?$AA?3?$AA?2?$AAd?$AAd?$AA?2?$AAv?$AAc?$AAt?$AAo?$AAo?$AAl?$AAs?$AA?2?$AAc?$AAr?$AAt?$AA_?$AAb?$AAl?$AAd?$AA?2?$AAs?$AAe?$AAl?$AAf?$AA_?$AAx?$AA8?$AA6?$AA?2?$AAc@ 10089e08     LIBCMTD:swprintf.obj
 0002:00009e6c       ??_C@_1BE@BMIJMLDD@?$AA_?$AAs?$AAw?$AAp?$AAr?$AAi?$AAn?$AAt?$AAf?$AA?$AA@ 10089e6c     LIBCMTD:swprintf.obj
 0002:00009e80       ??_C@_0DA@ELJOOIJF@f?3?2dd?2vctools?2crt_bld?2self_x86?2c@ 10089e80     LIBCMTD:winsig.obj
 0002:00009eb0       ??_C@_1DO@MLNEDKGB@?$AA?$CI?$AA?$CC?$AAI?$AAn?$AAv?$AAa?$AAl?$AAi?$AAd?$AA?5?$AAs?$AAi?$AAg?$AAn?$AAa?$AAl?$AA?5?$AAo?$AAr?$AA?5?$AAe?$AAr?$AAr?$AAo?$AAr?$AA?$CC?$AA?0?$AA?5?$AA0?$AA?$CJ?$AA?$AA@ 10089eb0     LIBCMTD:winsig.obj
 0002:00009ef0       ??_C@_1GA@DBECNFG@?$AAf?$AA?3?$AA?2?$AAd?$AAd?$AA?2?$AAv?$AAc?$AAt?$AAo?$AAo?$AAl?$AAs?$AA?2?$AAc?$AAr?$AAt?$AA_?$AAb?$AAl?$AAd?$AA?2?$AAs?$AAe?$AAl?$AAf?$AA_?$AAx?$AA8?$AA6?$AA?2?$AAc@ 10089ef0     LIBCMTD:winsig.obj
 0002:00009f50       ??_C@_1O@EJLDHPPL@?$AAs?$AAi?$AAg?$AAn?$AAa?$AAl?$AA?$AA@ 10089f50     LIBCMTD:winsig.obj
 0002:00009f60       ??_C@_1M@DMJEIKHL@?$AAr?$AAa?$AAi?$AAs?$AAe?$AA?$AA@ 10089f60     LIBCMTD:winsig.obj
 0002:00009f6c       ??_C@_1BG@GOEBHBDC@?$AAU?$AAS?$AAE?$AAR?$AA3?$AA2?$AA?4?$AAD?$AAL?$AAL?$AA?$AA@ 10089f6c     LIBCMTD:crtmboxw.obj
 0002:00009f84       ??_C@_0M@DLDCCGNP@MessageBoxW?$AA@ 10089f84     LIBCMTD:crtmboxw.obj
 0002:00009f90       ??_C@_0BA@HNOPNCHB@GetActiveWindow?$AA@ 10089f90     LIBCMTD:crtmboxw.obj
 0002:00009fa0       ??_C@_0BD@HHGDFDBJ@GetLastActivePopup?$AA@ 10089fa0     LIBCMTD:crtmboxw.obj
 0002:00009fb4       ??_C@_0BK@DEKFELLI@GetUserObjectInformationW?$AA@ 10089fb4     LIBCMTD:crtmboxw.obj
 0002:00009fd0       ??_C@_0BI@DFKBFLJE@GetProcessWindowStation?$AA@ 10089fd0     LIBCMTD:crtmboxw.obj
 0002:00009fe8       ??_C@_1FA@IFFFOLDJ@?$AAn?$AAR?$AAp?$AAt?$AAT?$AAy?$AAp?$AAe?$AA?5?$AA?$DO?$AA?$DN?$AA?5?$AA0?$AA?5?$AA?$CG?$AA?$CG?$AA?5?$AAn?$AAR?$AAp?$AAt?$AAT?$AAy?$AAp?$AAe?$AA?5?$AA?$DM?$AA?5?$AA_?$AAC?$AAR?$AAT@ 10089fe8     LIBCMTD:dbgrptt.obj
 0002:0000a038       ??_C@_1GC@FIGJJMEN@?$AAf?$AA?3?$AA?2?$AAd?$AAd?$AA?2?$AAv?$AAc?$AAt?$AAo?$AAo?$AAl?$AAs?$AA?2?$AAc?$AAr?$AAt?$AA_?$AAb?$AAl?$AAd?$AA?2?$AAs?$AAe?$AAl?$AAf?$AA_?$AAx?$AA8?$AA6?$AA?2?$AAc@ 1008a038     LIBCMTD:dbgrptt.obj
 0002:0000a09c       ??_C@_1CE@FIHIECNJ@?$AA_?$AAC?$AAr?$AAt?$AAS?$AAe?$AAt?$AAR?$AAe?$AAp?$AAo?$AAr?$AAt?$AAM?$AAo?$AAd?$AAe?$AA?$AA@ 1008a09c     LIBCMTD:dbgrptt.obj
 0002:0000a0c0       ??_C@_1NK@LOFHIHFC@?$AAf?$AAM?$AAo?$AAd?$AAe?$AA?5?$AA?$DN?$AA?$DN?$AA?5?$AA_?$AAC?$AAR?$AAT?$AAD?$AAB?$AAG?$AA_?$AAR?$AAE?$AAP?$AAO?$AAR?$AAT?$AA_?$AAM?$AAO?$AAD?$AAE?$AA?5?$AA?$HM?$AA?$HM?$AA?5@ 1008a0c0     LIBCMTD:dbgrptt.obj
 0002:0000a19c       ??_C@_1CE@IKKEDCME@?$AA_?$AAC?$AAr?$AAt?$AAS?$AAe?$AAt?$AAR?$AAe?$AAp?$AAo?$AAr?$AAt?$AAF?$AAi?$AAl?$AAe?$AA?$AA@ 1008a19c     LIBCMTD:dbgrptt.obj
 0002:0000a1c0       ??_C@_1CA@KHJHLKA@?$AA_?$AAV?$AAC?$AAr?$AAt?$AAD?$AAb?$AAg?$AAR?$AAe?$AAp?$AAo?$AAr?$AAt?$AAA?$AA?$AA@ 1008a1c0     LIBCMTD:dbgrptt.obj
 0002:0000a1e0       ??_C@_1FA@JPHJBHEM@?$AA_?$AAi?$AAt?$AAo?$AAa?$AA_?$AAs?$AA?$CI?$AAn?$AAL?$AAi?$AAn?$AAe?$AA?0?$AA?5?$AAs?$AAz?$AAL?$AAi?$AAn?$AAe?$AAM?$AAe?$AAs?$AAs?$AAa?$AAg?$AAe?$AA?0?$AA?5?$AA4?$AA0@ 1008a1e0     LIBCMTD:dbgrptt.obj
 0002:0000a230       ??_C@_0CG@BNGLOCEO@Second?5Chance?5Assertion?5Failed?3?5@ 1008a230     LIBCMTD:dbgrptt.obj
 0002:0000a258       ??_C@_0P@DFJNDPOP@?$DMfile?5unknown?$DO?$AA@ 1008a258     LIBCMTD:dbgrptt.obj
 0002:0000a268       ??_C@_07BHGABMGB@?0?5Line?5?$AA@ 1008a268     LIBCMTD:dbgrptt.obj
 0002:0000a270       ??_C@_1JI@GAALPGBM@?$AAs?$AAt?$AAr?$AAc?$AAp?$AAy?$AA_?$AAs?$AA?$CI?$AAs?$AAz?$AAU?$AAs?$AAe?$AAr?$AAM?$AAe?$AAs?$AAs?$AAa?$AAg?$AAe?$AA?0?$AA?5?$AA4?$AA0?$AA9?$AA6?$AA?0?$AA?5?$AA?$CC?$AA_@ 1008a270     LIBCMTD:dbgrptt.obj
 0002:0000a308       ??_C@_0CL@EACFGMNB@_CrtDbgReport?3?5String?5too?5long?5o@ 1008a308     LIBCMTD:dbgrptt.obj
 0002:0000a338       ??_C@_1KK@GIGAEDMO@?$AAs?$AAt?$AAr?$AAc?$AAp?$AAy?$AA_?$AAs?$AA?$CI?$AAs?$AAz?$AAL?$AAi?$AAn?$AAe?$AAM?$AAe?$AAs?$AAs?$AAa?$AAg?$AAe?$AA?0?$AA?5?$AA4?$AA0?$AA9?$AA6?$AA?0?$AA?5?$AAs?$AAz@ 1008a338     LIBCMTD:dbgrptt.obj
 0002:0000a3e4       ??_C@_0BD@CAENFOHP@Assertion?5failed?3?5?$AA@ 1008a3e4     LIBCMTD:dbgrptt.obj
 0002:0000a3f8       ??_C@_0BC@LAIDCHCH@Assertion?5failed?$CB?$AA@ 1008a3f8     LIBCMTD:dbgrptt.obj
 0002:0000a410       ??_C@_1FK@NPGBPOFO@?$AAs?$AAt?$AAr?$AAc?$AAa?$AAt?$AA_?$AAs?$AA?$CI?$AAs?$AAz?$AAL?$AAi?$AAn?$AAe?$AAM?$AAe?$AAs?$AAs?$AAa?$AAg?$AAe?$AA?0?$AA?5?$AA4?$AA0?$AA9?$AA6?$AA?0?$AA?5?$AAs?$AAz@ 1008a410     LIBCMTD:dbgrptt.obj
 0002:0000a470       ??_C@_1EI@CACDLAFK@?$AAs?$AAt?$AAr?$AAc?$AAa?$AAt?$AA_?$AAs?$AA?$CI?$AAs?$AAz?$AAL?$AAi?$AAn?$AAe?$AAM?$AAe?$AAs?$AAs?$AAa?$AAg?$AAe?$AA?0?$AA?5?$AA4?$AA0?$AA9?$AA6?$AA?0?$AA?5?$AA?$CC?$AA?2@ 1008a470     LIBCMTD:dbgrptt.obj
 0002:0000a4b8       ??_C@_01LIIJDEN@?$AN?$AA@  1008a4b8     LIBCMTD:dbgrptt.obj
 0002:0000a4c0       ??_C@_1EI@LDHJEDO@?$AAs?$AAt?$AAr?$AAc?$AAa?$AAt?$AA_?$AAs?$AA?$CI?$AAs?$AAz?$AAL?$AAi?$AAn?$AAe?$AAM?$AAe?$AAs?$AAs?$AAa?$AAg?$AAe?$AA?0?$AA?5?$AA4?$AA0?$AA9?$AA6?$AA?0?$AA?5?$AA?$CC?$AA?2@ 1008a4c0     LIBCMTD:dbgrptt.obj
 0002:0000a508       ??_C@_0M@IPILFDFN@?$CFs?$CI?$CFd?$CJ?5?3?5?$CFs?$AA@ 1008a508     LIBCMTD:dbgrptt.obj
 0002:0000a518       ??_C@_1JG@CPKCIOEE@?$AAs?$AAt?$AAr?$AAc?$AAp?$AAy?$AA_?$AAs?$AA?$CI?$AAs?$AAz?$AAO?$AAu?$AAt?$AAM?$AAe?$AAs?$AAs?$AAa?$AAg?$AAe?$AA?0?$AA?5?$AA4?$AA0?$AA9?$AA6?$AA?0?$AA?5?$AA?$CC?$AA_?$AAC@ 1008a518     LIBCMTD:dbgrptt.obj
 0002:0000a5b0       ??_C@_1FI@IBIOIHEG@?$AAs?$AAt?$AAr?$AAc?$AAp?$AAy?$AA_?$AAs?$AA?$CI?$AAs?$AAz?$AAO?$AAu?$AAt?$AAM?$AAe?$AAs?$AAs?$AAa?$AAg?$AAe?$AA?0?$AA?5?$AA4?$AA0?$AA9?$AA6?$AA?0?$AA?5?$AAs?$AAz?$AAL@ 1008a5b0     LIBCMTD:dbgrptt.obj
 0002:0000a608       ??_C@_1IM@OOKIFKOH@?$AAe?$AA?5?$AA?$DN?$AA?5?$AAm?$AAb?$AAs?$AAt?$AAo?$AAw?$AAc?$AAs?$AA_?$AAs?$AA?$CI?$AA?$CG?$AAr?$AAe?$AAt?$AA?0?$AA?5?$AAs?$AAz?$AAO?$AAu?$AAt?$AAM?$AAe?$AAs?$AAs?$AAa?$AAg@ 1008a608     LIBCMTD:dbgrptt.obj
 0002:0000a698       ??_C@_1MC@IGEECMDB@?$AAw?$AAc?$AAs?$AAc?$AAp?$AAy?$AA_?$AAs?$AA?$CI?$AAs?$AAz?$AAO?$AAu?$AAt?$AAM?$AAe?$AAs?$AAs?$AAa?$AAg?$AAe?$AA2?$AA?0?$AA?5?$AA4?$AA0?$AA9?$AA6?$AA?0?$AA?5?$AAL?$AA?$CC@ 1008a698     LIBCMTD:dbgrptt.obj
 0002:0000a760       ??_C@_1HO@PJOFIKFE@?$AA_?$AAC?$AAr?$AAt?$AAD?$AAb?$AAg?$AAR?$AAe?$AAp?$AAo?$AAr?$AAt?$AA?3?$AA?5?$AAS?$AAt?$AAr?$AAi?$AAn?$AAg?$AA?5?$AAt?$AAo?$AAo?$AA?5?$AAl?$AAo?$AAn?$AAg?$AA?5?$AAo@ 1008a760     LIBCMTD:dbgrptt.obj
 0002:0000a7e0       ??_C@_1CA@HPALHDOD@?$AA_?$AAV?$AAC?$AAr?$AAt?$AAD?$AAb?$AAg?$AAR?$AAe?$AAp?$AAo?$AAr?$AAt?$AAW?$AA?$AA@ 1008a7e0     LIBCMTD:dbgrptt.obj
 0002:0000a800       ??_C@_1FA@CNLLOMHI@?$AA_?$AAi?$AAt?$AAo?$AAw?$AA_?$AAs?$AA?$CI?$AAn?$AAL?$AAi?$AAn?$AAe?$AA?0?$AA?5?$AAs?$AAz?$AAL?$AAi?$AAn?$AAe?$AAM?$AAe?$AAs?$AAs?$AAa?$AAg?$AAe?$AA?0?$AA?5?$AA4?$AA0@ 1008a800     LIBCMTD:dbgrptt.obj
 0002:0000a850       ??_C@_1EM@MJFLEDMB@?$AAS?$AAe?$AAc?$AAo?$AAn?$AAd?$AA?5?$AAC?$AAh?$AAa?$AAn?$AAc?$AAe?$AA?5?$AAA?$AAs?$AAs?$AAe?$AAr?$AAt?$AAi?$AAo?$AAn?$AA?5?$AAF?$AAa?$AAi?$AAl?$AAe?$AAd?$AA?3?$AA?5@ 1008a850     LIBCMTD:dbgrptt.obj
 0002:0000a89c       ??_C@_1BO@OCHMLCAG@?$AA?$DM?$AAf?$AAi?$AAl?$AAe?$AA?5?$AAu?$AAn?$AAk?$AAn?$AAo?$AAw?$AAn?$AA?$DO?$AA?$AA@ 1008a89c     LIBCMTD:dbgrptt.obj
 0002:0000a8bc       ??_C@_1BA@ELMMDCFC@?$AA?0?$AA?5?$AAL?$AAi?$AAn?$AAe?$AA?5?$AA?$AA@ 1008a8bc     LIBCMTD:dbgrptt.obj
 0002:0000a8cc       ??_C@_13LBAGMAIH@?$AA?6?$AA?$AA@ 1008a8cc     LIBCMTD:dbgrptt.obj
 0002:0000a8d0       ??_C@_1JK@KHFABAEO@?$AAw?$AAc?$AAs?$AAc?$AAp?$AAy?$AA_?$AAs?$AA?$CI?$AAs?$AAz?$AAU?$AAs?$AAe?$AAr?$AAM?$AAe?$AAs?$AAs?$AAa?$AAg?$AAe?$AA?0?$AA?5?$AA4?$AA0?$AA9?$AA6?$AA?0?$AA?5?$AAL?$AA?$CC@ 1008a8d0     LIBCMTD:dbgrptt.obj
 0002:0000a970       ??_C@_1KO@DGAHENCH@?$AAw?$AAc?$AAs?$AAc?$AAp?$AAy?$AA_?$AAs?$AA?$CI?$AAs?$AAz?$AAL?$AAi?$AAn?$AAe?$AAM?$AAe?$AAs?$AAs?$AAa?$AAg?$AAe?$AA?0?$AA?5?$AA4?$AA0?$AA9?$AA6?$AA?0?$AA?5?$AAs?$AAz@ 1008a970     LIBCMTD:dbgrptt.obj
 0002:0000aa20       ??_C@_1CG@FFFGGODN@?$AAA?$AAs?$AAs?$AAe?$AAr?$AAt?$AAi?$AAo?$AAn?$AA?5?$AAf?$AAa?$AAi?$AAl?$AAe?$AAd?$AA?3?$AA?5?$AA?$AA@ 1008aa20     LIBCMTD:dbgrptt.obj
 0002:0000aa48       ??_C@_1CE@OJBNHDMO@?$AAA?$AAs?$AAs?$AAe?$AAr?$AAt?$AAi?$AAo?$AAn?$AA?5?$AAf?$AAa?$AAi?$AAl?$AAe?$AAd?$AA?$CB?$AA?$AA@ 1008aa48     LIBCMTD:dbgrptt.obj
 0002:0000aa70       ??_C@_1FK@HPADHBBD@?$AAw?$AAc?$AAs?$AAc?$AAa?$AAt?$AA_?$AAs?$AA?$CI?$AAs?$AAz?$AAL?$AAi?$AAn?$AAe?$AAM?$AAe?$AAs?$AAs?$AAa?$AAg?$AAe?$AA?0?$AA?5?$AA4?$AA0?$AA9?$AA6?$AA?0?$AA?5?$AAs?$AAz@ 1008aa70     LIBCMTD:dbgrptt.obj
 0002:0000aad0       ??_C@_1EK@NMDFGHMF@?$AAw?$AAc?$AAs?$AAc?$AAa?$AAt?$AA_?$AAs?$AA?$CI?$AAs?$AAz?$AAL?$AAi?$AAn?$AAe?$AAM?$AAe?$AAs?$AAs?$AAa?$AAg?$AAe?$AA?0?$AA?5?$AA4?$AA0?$AA9?$AA6?$AA?0?$AA?5?$AAL?$AA?$CC@ 1008aad0     LIBCMTD:dbgrptt.obj
 0002:0000ab1c       ??_C@_13CMNBPIDO@?$AA?$AN?$AA?$AA@ 1008ab1c     LIBCMTD:dbgrptt.obj
 0002:0000ab20       ??_C@_1EK@PHCBEDKB@?$AAw?$AAc?$AAs?$AAc?$AAa?$AAt?$AA_?$AAs?$AA?$CI?$AAs?$AAz?$AAL?$AAi?$AAn?$AAe?$AAM?$AAe?$AAs?$AAs?$AAa?$AAg?$AAe?$AA?0?$AA?5?$AA4?$AA0?$AA9?$AA6?$AA?0?$AA?5?$AAL?$AA?$CC@ 1008ab20     LIBCMTD:dbgrptt.obj
 0002:0000ab6c       ??_C@_1BI@JIDBEPIG@?$AA?$CF?$AAs?$AA?$CI?$AA?$CF?$AAd?$AA?$CJ?$AA?5?$AA?3?$AA?5?$AA?$CF?$AAs?$AA?$AA@ 1008ab6c     LIBCMTD:dbgrptt.obj
 0002:0000ab88       ??_C@_1FI@DBAIJPJE@?$AAw?$AAc?$AAs?$AAc?$AAp?$AAy?$AA_?$AAs?$AA?$CI?$AAs?$AAz?$AAO?$AAu?$AAt?$AAM?$AAe?$AAs?$AAs?$AAa?$AAg?$AAe?$AA?0?$AA?5?$AA4?$AA0?$AA9?$AA6?$AA?0?$AA?5?$AAs?$AAz?$AAL@ 1008ab88     LIBCMTD:dbgrptt.obj
 0002:0000abe0       ??_C@_1JC@EOAPFDLN@?$AAw?$AAc?$AAs?$AAt?$AAo?$AAm?$AAb?$AAs?$AA_?$AAs?$AA?$CI?$AA?$CI?$AA?$CI?$AAv?$AAo?$AAi?$AAd?$AA?5?$AA?$CK?$AA?$CJ?$AA0?$AA?$CJ?$AA?0?$AA?5?$AAs?$AAz?$AAO?$AAu?$AAt?$AAM?$AAe?$AAs@ 1008abe0     LIBCMTD:dbgrptt.obj
 0002:0000ac78       ??_C@_1MA@LBAMNNOB@?$AAs?$AAt?$AAr?$AAc?$AAp?$AAy?$AA_?$AAs?$AA?$CI?$AAs?$AAz?$AAO?$AAu?$AAt?$AAM?$AAe?$AAs?$AAs?$AAa?$AAg?$AAe?$AA2?$AA?0?$AA?5?$AA4?$AA0?$AA9?$AA6?$AA?0?$AA?5?$AA?$CC?$AA_@ 1008ac78     LIBCMTD:dbgrptt.obj
 0002:0000ad38       ??_C@_0DP@GNPEPHJD@_CrtDbgReport?3?5String?5too?5long?5o@ 1008ad38     LIBCMTD:dbgrptt.obj
 0002:0000ad78       ??_C@_1IE@CPGKIAGP@?$AAw?$AAc?$AAs?$AAt?$AAo?$AAm?$AAb?$AAs?$AA_?$AAs?$AA?$CI?$AA?$CG?$AAr?$AAe?$AAt?$AA?0?$AA?5?$AAs?$AAz?$AAa?$AAO?$AAu?$AAt?$AAM?$AAe?$AAs?$AAs?$AAa?$AAg?$AAe?$AA?0?$AA?5@ 1008ad78     LIBCMTD:dbgrptt.obj
 0002:0000dcc0       ??_C@_1GC@GNCCMPNN@?$AAf?$AA?3?$AA?2?$AAd?$AAd?$AA?2?$AAv?$AAc?$AAt?$AAo?$AAo?$AAl?$AAs?$AA?2?$AAc?$AAr?$AAt?$AA_?$AAb?$AAl?$AAd?$AA?2?$AAs?$AAe?$AAl?$AAf?$AA_?$AAx?$AA8?$AA6?$AA?2?$AAc@ 1008dcc0     LIBCMTD:_flsbuf.obj
 0002:0000dd28       ??_C@_1HO@MLMGPAFH@?$AA?$CI?$AA?$CC?$AAi?$AAn?$AAc?$AAo?$AAn?$AAs?$AAi?$AAs?$AAt?$AAe?$AAn?$AAt?$AA?5?$AAI?$AAO?$AAB?$AA?5?$AAf?$AAi?$AAe?$AAl?$AAd?$AAs?$AA?$CC?$AA?0?$AA?5?$AAs?$AAt?$AAr?$AAe@ 1008dd28     LIBCMTD:_flsbuf.obj
 0002:0000dda8       ??_C@_1BK@FHMHFMNL@?$AA_?$AAv?$AAs?$AAn?$AAp?$AAr?$AAi?$AAn?$AAt?$AAf?$AA_?$AAl?$AA?$AA@ 1008dda8     LIBCMTD:vsnprint.obj
 0002:0000ddd0       __OP_ATAN2jmptab           1008ddd0     LIBCMTD:87triga.obj
 0002:00013090       __XcptActTab               10093090     LIBCMTD:winxfltr.obj
 0002:00013120       __XcptActTabCount          10093120     LIBCMTD:winxfltr.obj
 0002:00013124       __XcptActTabSize           10093124     LIBCMTD:winxfltr.obj
 0002:00013128       __First_FPE_Indx           10093128     LIBCMTD:winxfltr.obj
 0002:0001312c       __Num_FPE                  1009312c     LIBCMTD:winxfltr.obj
 0002:00013130       ??_C@_1BC@DENNNKIM@?$AA_?$AAc?$AAr?$AAt?$AAh?$AAe?$AAa?$AAp?$AA?$AA@ 10093130     LIBCMTD:heapinit.obj
 0002:00013148       ??_C@_1GE@JDDMFOID@?$AAf?$AA?3?$AA?2?$AAd?$AAd?$AA?2?$AAv?$AAc?$AAt?$AAo?$AAo?$AAl?$AAs?$AA?2?$AAc?$AAr?$AAt?$AA_?$AAb?$AAl?$AAd?$AA?2?$AAs?$AAe?$AAl?$AAf?$AA_?$AAx?$AA8?$AA6?$AA?2?$AAc@ 10093148     LIBCMTD:heapinit.obj
 0002:000131ac       ??_C@_0DB@OEPBJOLC@f?3?2dd?2vctools?2crt_bld?2self_x86?2c@ 100931ac     LIBCMTD:stdargv.obj
 0002:000131e0       ??_C@_0DB@BMEBJJKP@f?3?2dd?2vctools?2crt_bld?2self_x86?2c@ 100931e0     LIBCMTD:stdenvp.obj
 0002:00013218       ??_C@_1GC@DGBFLDBN@?$AAf?$AA?3?$AA?2?$AAd?$AAd?$AA?2?$AAv?$AAc?$AAt?$AAo?$AAo?$AAl?$AAs?$AA?2?$AAc?$AAr?$AAt?$AA_?$AAb?$AAl?$AAd?$AA?2?$AAs?$AAe?$AAl?$AAf?$AA_?$AAx?$AA8?$AA6?$AA?2?$AAc@ 10093218     LIBCMTD:stdenvp.obj
 0002:0001327c       ??_C@_1BC@GHMCNHHL@?$AA_?$AAs?$AAe?$AAt?$AAe?$AAn?$AAv?$AAp?$AA?$AA@ 1009327c     LIBCMTD:stdenvp.obj
 0002:00013290       ??_C@_1DE@MMOGFGHF@?$AAs?$AAt?$AAr?$AAc?$AAp?$AAy?$AA_?$AAs?$AA?$CI?$AA?$CK?$AAe?$AAn?$AAv?$AA?0?$AA?5?$AAc?$AAc?$AAh?$AAa?$AAr?$AAs?$AA?0?$AA?5?$AAp?$AA?$CJ?$AA?$AA@ 10093290     LIBCMTD:stdenvp.obj
 0002:000132c4       ??_C@_0CP@PPLBCJDN@f?3?2dd?2vctools?2crt_bld?2self_x86?2c@ 100932c4     LIBCMTD:a_env.obj
 0002:000132f4       ??_C@_1CK@GFDNDKK@?$AA_?$AAR?$AAa?$AAn?$AAd?$AAo?$AAm?$AAV?$AAa?$AAl?$AAu?$AAe?$AA?5?$AA?$CB?$AA?$DN?$AA?5?$AAN?$AAU?$AAL?$AAL?$AA?$AA@ 100932f4     LIBCMTD:rand_s.obj
 0002:00013320       ??_C@_1GA@HBGBBKCD@?$AAf?$AA?3?$AA?2?$AAd?$AAd?$AA?2?$AAv?$AAc?$AAt?$AAo?$AAo?$AAl?$AAs?$AA?2?$AAc?$AAr?$AAt?$AA_?$AAb?$AAl?$AAd?$AA?2?$AAs?$AAe?$AAl?$AAf?$AA_?$AAx?$AA8?$AA6?$AA?2?$AAc@ 10093320     LIBCMTD:rand_s.obj
 0002:00013380       ??_C@_1O@IJGPPOGF@?$AAr?$AAa?$AAn?$AAd?$AA_?$AAs?$AA?$AA@ 10093380     LIBCMTD:rand_s.obj
 0002:00013390       ??_C@_1BK@GAEMIDIL@?$AAA?$AAD?$AAV?$AAA?$AAP?$AAI?$AA3?$AA2?$AA?4?$AAD?$AAL?$AAL?$AA?$AA@ 10093390     LIBCMTD:rand_s.obj
 0002:000133b0       ??_C@_1GA@EBEDGGGB@?$AA?$CI?$AA?$CC?$AAr?$AAa?$AAn?$AAd?$AA_?$AAs?$AA?5?$AAi?$AAs?$AA?5?$AAn?$AAo?$AAt?$AA?5?$AAa?$AAv?$AAa?$AAi?$AAl?$AAa?$AAb?$AAl?$AAe?$AA?5?$AAo?$AAn?$AA?5?$AAt?$AAh?$AAi@ 100933b0     LIBCMTD:rand_s.obj
 0002:00013410       ??_C@_0BC@JEAENNKH@SystemFunction036?$AA@ 10093410     LIBCMTD:rand_s.obj
 0002:00013434       ??_C@_1M@HPNHIDJI@?$AAj?$AAa?$AA?9?$AAJ?$AAP?$AA?$AA@ 10093434     LIBCMTD:mbctype.obj
 0002:00013440       ??_C@_1M@BIBDDEMK@?$AAz?$AAh?$AA?9?$AAC?$AAN?$AA?$AA@ 10093440     LIBCMTD:mbctype.obj
 0002:0001344c       ??_C@_1M@JLOOOEGK@?$AAk?$AAo?$AA?9?$AAK?$AAR?$AA?$AA@ 1009344c     LIBCMTD:mbctype.obj
 0002:00013458       ??_C@_1M@CLNBBOPM@?$AAz?$AAh?$AA?9?$AAT?$AAW?$AA?$AA@ 10093458     LIBCMTD:mbctype.obj
 0002:00013464       ??_C@_0DB@MHMEONEC@f?3?2dd?2vctools?2crt_bld?2self_x86?2c@ 10093464     LIBCMTD:mbctype.obj
 0002:00013498       ??_C@_1BI@KANOLAMF@?$AA_?$AAo?$AAu?$AAt?$AAp?$AAu?$AAt?$AA_?$AAp?$AA_?$AAl?$AA?$AA@ 10093498     LIBCMTD:outputp.obj
 0002:000134b0       ??_C@_1JC@PFJNKEIO@?$AA?$CI?$AA?$CI?$AAt?$AAy?$AAp?$AAe?$AA_?$AAp?$AAo?$AAs?$AA?5?$AA?$DO?$AA?$DN?$AA?5?$AA0?$AA?$CJ?$AA?5?$AA?$CG?$AA?$CG?$AA?5?$AA?$CI?$AA?$CK?$AAe?$AAn?$AAd?$AA_?$AAp?$AAo?$AAs?$AA?5?$AA?$DN?$AA?$DN@ 100934b0     LIBCMTD:outputp.obj
 0002:00013548       ??_C@_1EE@DMAIGNBG@?$AA?$CI?$AA?$CC?$AAI?$AAn?$AAc?$AAo?$AAr?$AAr?$AAe?$AAc?$AAt?$AA?5?$AAf?$AAo?$AAr?$AAm?$AAa?$AAt?$AA?5?$AAs?$AAp?$AAe?$AAc?$AAi?$AAf?$AAi?$AAe?$AAr?$AA?$CC?$AA?0?$AA?5?$AA0@ 10093548     LIBCMTD:outputp.obj
 0002:00013590       ??_C@_1JE@NMBHOLFI@?$AA?$CI?$AA?$CI?$AAw?$AAi?$AAd?$AAt?$AAh?$AA_?$AAp?$AAo?$AAs?$AA?5?$AA?$DO?$AA?$DN?$AA?5?$AA0?$AA?$CJ?$AA?5?$AA?$CG?$AA?$CG?$AA?5?$AA?$CI?$AA?$CK?$AAe?$AAn?$AAd?$AA_?$AAp?$AAo?$AAs?$AA?5?$AA?$DN@ 10093590     LIBCMTD:outputp.obj
 0002:00013628       ??_C@_1II@PIPIMLPF@?$AA_?$AAt?$AAv?$AAa?$AAl?$AAi?$AAd?$AAa?$AAt?$AAe?$AA_?$AAp?$AAa?$AAr?$AAa?$AAm?$AA_?$AAr?$AAe?$AAu?$AAs?$AAe?$AA?$CI?$AA?$CG?$AAp?$AAo?$AAs?$AA_?$AAv?$AAa?$AAl?$AAu@ 10093628     LIBCMTD:outputp.obj
 0002:000136b0       ??_C@_1JG@JBJBOCFB@?$AA?$CI?$AA?$CI?$AAp?$AAr?$AAe?$AAc?$AAi?$AAs?$AA_?$AAp?$AAo?$AAs?$AA?5?$AA?$DO?$AA?$DN?$AA?5?$AA0?$AA?$CJ?$AA?5?$AA?$CG?$AA?$CG?$AA?5?$AA?$CI?$AA?$CK?$AAe?$AAn?$AAd?$AA_?$AAp?$AAo?$AAs?$AA?5@ 100936b0     LIBCMTD:outputp.obj
 0002:00013748       ??_C@_1IK@EIEPDKHJ@?$AA_?$AAt?$AAv?$AAa?$AAl?$AAi?$AAd?$AAa?$AAt?$AAe?$AA_?$AAp?$AAa?$AAr?$AAa?$AAm?$AA_?$AAr?$AAe?$AAu?$AAs?$AAe?$AA?$CI?$AA?$CG?$AAp?$AAo?$AAs?$AA_?$AAv?$AAa?$AAl?$AAu@ 10093748     LIBCMTD:outputp.obj
 0002:000137d8       ??_C@_1EM@BNPHBBIA@?$AA?$CI?$AA?$CI?$AAt?$AAy?$AAp?$AAe?$AA_?$AAp?$AAo?$AAs?$AA?$DO?$AA?$DN?$AA0?$AA?$CJ?$AA?5?$AA?$CG?$AA?$CG?$AA?5?$AA?$CI?$AAt?$AAy?$AAp?$AAe?$AA_?$AAp?$AAo?$AAs?$AA?$DM?$AA_?$AAA?$AAR?$AAG@ 100937d8     LIBCMTD:outputp.obj
 0002:00013828       ??_C@_1IK@MHEDJAMK@?$AA_?$AAt?$AAv?$AAa?$AAl?$AAi?$AAd?$AAa?$AAt?$AAe?$AA_?$AAp?$AAa?$AAr?$AAa?$AAm?$AA_?$AAr?$AAe?$AAu?$AAs?$AAe?$AA?$CI?$AA?$CG?$AAp?$AAo?$AAs?$AA_?$AAv?$AAa?$AAl?$AAu@ 10093828     LIBCMTD:outputp.obj
 0002:000138b8       ??_C@_1IG@FDCPLALG@?$AA_?$AAt?$AAv?$AAa?$AAl?$AAi?$AAd?$AAa?$AAt?$AAe?$AA_?$AAp?$AAa?$AAr?$AAa?$AAm?$AA_?$AAr?$AAe?$AAu?$AAs?$AAe?$AA?$CI?$AA?$CG?$AAp?$AAo?$AAs?$AA_?$AAv?$AAa?$AAl?$AAu@ 100938b8     LIBCMTD:outputp.obj
 0002:00013940       ??_C@_1IG@HJIMKDHC@?$AA_?$AAt?$AAv?$AAa?$AAl?$AAi?$AAd?$AAa?$AAt?$AAe?$AA_?$AAp?$AAa?$AAr?$AAa?$AAm?$AA_?$AAr?$AAe?$AAu?$AAs?$AAe?$AA?$CI?$AA?$CG?$AAp?$AAo?$AAs?$AA_?$AAv?$AAa?$AAl?$AAu@ 10093940     LIBCMTD:outputp.obj
 0002:000139c8       ??_C@_1IM@DNGHAPLB@?$AA_?$AAt?$AAv?$AAa?$AAl?$AAi?$AAd?$AAa?$AAt?$AAe?$AA_?$AAp?$AAa?$AAr?$AAa?$AAm?$AA_?$AAr?$AAe?$AAu?$AAs?$AAe?$AA?$CI?$AA?$CG?$AAp?$AAo?$AAs?$AA_?$AAv?$AAa?$AAl?$AAu@ 100939c8     LIBCMTD:outputp.obj
 0002:00013a54       ??_C@_1DG@GOHGNKHE@?$AAp?$AAa?$AAs?$AAs?$AA?5?$AA?$DN?$AA?$DN?$AA?5?$AAF?$AAO?$AAR?$AAM?$AAA?$AAT?$AA_?$AAO?$AAU?$AAT?$AAP?$AAU?$AAT?$AA_?$AAP?$AAA?$AAS?$AAS?$AA?$AA@ 10093a54     LIBCMTD:outputp.obj
 0002:00013a90       ??_C@_1IK@NBGDDCBN@?$AA_?$AAt?$AAv?$AAa?$AAl?$AAi?$AAd?$AAa?$AAt?$AAe?$AA_?$AAp?$AAa?$AAr?$AAa?$AAm?$AA_?$AAr?$AAe?$AAu?$AAs?$AAe?$AA?$CI?$AA?$CG?$AAp?$AAo?$AAs?$AA_?$AAv?$AAa?$AAl?$AAu@ 10093a90     LIBCMTD:outputp.obj
 0002:00013b20       ??_C@_1JC@OACKELNN@?$AA_?$AAt?$AAv?$AAa?$AAl?$AAi?$AAd?$AAa?$AAt?$AAe?$AA_?$AAp?$AAa?$AAr?$AAa?$AAm?$AA_?$AAr?$AAe?$AAu?$AAs?$AAe?$AA?$CI?$AA?$CG?$AAp?$AAo?$AAs?$AA_?$AAv?$AAa?$AAl?$AAu@ 10093b20     LIBCMTD:outputp.obj
 0002:00013bb8       ??_C@_1FK@LNCFKALM@?$AA?$CI?$AA?$CI?$AAs?$AAt?$AAa?$AAt?$AAe?$AA?5?$AA?$DN?$AA?$DN?$AA?5?$AAS?$AAT?$AA_?$AAN?$AAO?$AAR?$AAM?$AAA?$AAL?$AA?$CJ?$AA?5?$AA?$HM?$AA?$HM?$AA?5?$AA?$CI?$AAs?$AAt?$AAa?$AAt?$AAe?$AA?5@ 10093bb8     LIBCMTD:outputp.obj
 0002:00013c18       ??_C@_1FK@BCPANIEK@?$AA?$CI?$AA?$CC?$AAM?$AAi?$AAs?$AAs?$AAi?$AAn?$AAg?$AA?5?$AAp?$AAo?$AAs?$AAi?$AAt?$AAi?$AAo?$AAn?$AA?5?$AAi?$AAn?$AA?5?$AAt?$AAh?$AAe?$AA?5?$AAf?$AAo?$AAr?$AAm?$AAa?$AAt@ 10093c18     LIBCMTD:outputp.obj
 0002:00013c78       ??_C@_1FC@NCPEPIBI@?$AA?$CI?$AA?$CI?$AA_?$AAD?$AAs?$AAt?$AA?$CJ?$AA?$CJ?$AA?5?$AA?$CB?$AA?$DN?$AA?5?$AAN?$AAU?$AAL?$AAL?$AA?5?$AA?$CG?$AA?$CG?$AA?5?$AA?$CI?$AA?$CI?$AA_?$AAS?$AAi?$AAz?$AAe?$AAI?$AAn?$AAB?$AAy?$AAt@ 10093c78     LIBCMTD:strcpy_s.obj
 0002:00013ccc       ??_C@_1BC@CFJEPFGF@?$AAs?$AAt?$AAr?$AAc?$AAp?$AAy?$AA_?$AAs?$AA?$AA@ 10093ccc     LIBCMTD:strcpy_s.obj
 0002:00013ce0       ??_C@_1GI@NOKGIAGA@?$AAf?$AA?3?$AA?2?$AAd?$AAd?$AA?2?$AAv?$AAc?$AAt?$AAo?$AAo?$AAl?$AAs?$AA?2?$AAc?$AAr?$AAt?$AA_?$AAb?$AAl?$AAd?$AA?2?$AAs?$AAe?$AAl?$AAf?$AA_?$AAx?$AA8?$AA6?$AA?2?$AAc@ 10093ce0     LIBCMTD:wcscat_s.obj
 0002:00013d48       ??_C@_1BC@PLIEPKPJ@?$AAw?$AAc?$AAs?$AAc?$AAa?$AAt?$AA_?$AAs?$AA?$AA@ 10093d48     LIBCMTD:wcscat_s.obj
 0002:00013d5c       ??_C@_1DM@FHLMIEG@?$AAS?$AAt?$AAr?$AAi?$AAn?$AAg?$AA?5?$AAi?$AAs?$AA?5?$AAn?$AAo?$AAt?$AA?5?$AAn?$AAu?$AAl?$AAl?$AA?5?$AAt?$AAe?$AAr?$AAm?$AAi?$AAn?$AAa?$AAt?$AAe?$AAd?$AA?$AA@ 10093d5c     LIBCMTD:wcscat_s.obj
 0002:00013d98       ??_C@_1FA@MJKDNFFB@?$AA?$CI?$AAL?$AA?$CC?$AAS?$AAt?$AAr?$AAi?$AAn?$AAg?$AA?5?$AAi?$AAs?$AA?5?$AAn?$AAo?$AAt?$AA?5?$AAn?$AAu?$AAl?$AAl?$AA?5?$AAt?$AAe?$AAr?$AAm?$AAi?$AAn?$AAa?$AAt?$AAe?$AAd@ 10093d98     LIBCMTD:wcscat_s.obj
 0002:00013de8       ??_C@_1GK@PAJJBKJF@?$AAf?$AA?3?$AA?2?$AAd?$AAd?$AA?2?$AAv?$AAc?$AAt?$AAo?$AAo?$AAl?$AAs?$AA?2?$AAc?$AAr?$AAt?$AA_?$AAb?$AAl?$AAd?$AA?2?$AAs?$AAe?$AAl?$AAf?$AA_?$AAx?$AA8?$AA6?$AA?2?$AAc@ 10093de8     LIBCMTD:wcsncpy_s.obj
 0002:00013e54       ??_C@_1BE@PMMBFFCC@?$AAw?$AAc?$AAs?$AAn?$AAc?$AAp?$AAy?$AA_?$AAs?$AA?$AA@ 10093e54     LIBCMTD:wcsncpy_s.obj
 0002:00013e68       ??_C@_1DE@BCNCAIK@?$AA?$CI?$AA?$CC?$AAI?$AAn?$AAv?$AAa?$AAl?$AAi?$AAd?$AA?5?$AAe?$AAr?$AAr?$AAo?$AAr?$AA_?$AAm?$AAo?$AAd?$AAe?$AA?$CC?$AA?0?$AA?5?$AA0?$AA?$CJ?$AA?$AA@ 10093e68     LIBCMTD:errmode.obj
 0002:00013ea0       ??_C@_1GC@FGMGFCNB@?$AAf?$AA?3?$AA?2?$AAd?$AAd?$AA?2?$AAv?$AAc?$AAt?$AAo?$AAo?$AAl?$AAs?$AA?2?$AAc?$AAr?$AAt?$AA_?$AAb?$AAl?$AAd?$AA?2?$AAs?$AAe?$AAl?$AAf?$AA_?$AAx?$AA8?$AA6?$AA?2?$AAc@ 10093ea0     LIBCMTD:errmode.obj
 0002:00013f04       ??_C@_1CA@LFDHAMEM@?$AA_?$AAs?$AAe?$AAt?$AA_?$AAe?$AAr?$AAr?$AAo?$AAr?$AA_?$AAm?$AAo?$AAd?$AAe?$AA?$AA@ 10093f04     LIBCMTD:errmode.obj
 0002:00013f24       ??_C@_1BE@NDMJHJJG@?$AAs?$AAt?$AAr?$AAn?$AAc?$AAp?$AAy?$AA_?$AAs?$AA?$AA@ 10093f24     LIBCMTD:strncpy_s.obj
 0002:00013f38       ??_C@_1FE@KNPCCODH@?$AA?$CI?$AA?$CC?$AAC?$AAo?$AAr?$AAr?$AAu?$AAp?$AAt?$AAe?$AAd?$AA?5?$AAp?$AAo?$AAi?$AAn?$AAt?$AAe?$AAr?$AA?5?$AAp?$AAa?$AAs?$AAs?$AAe?$AAd?$AA?5?$AAt?$AAo?$AA?5?$AA_?$AAf@ 10093f38     LIBCMTD:a_loc.obj
 0002:00013f90       ??_C@_1GA@INJGGEBC@?$AAf?$AA?3?$AA?2?$AAd?$AAd?$AA?2?$AAv?$AAc?$AAt?$AAo?$AAo?$AAl?$AAs?$AA?2?$AAc?$AAr?$AAt?$AA_?$AAb?$AAl?$AAd?$AA?2?$AAs?$AAe?$AAl?$AAf?$AA_?$AAx?$AA8?$AA6?$AA?2?$AAc@ 10093f90     LIBCMTD:a_loc.obj
 0002:00013ff0       ??_C@_1M@ELCKCCJJ@?$AAm?$AAi?$AA?9?$AAn?$AAz?$AA?$AA@ 10093ff0     LIBCMTD:winapinls.obj
 0002:00013ffc       ??_C@_1M@CBOOLAPA@?$AAm?$AAk?$AA?9?$AAm?$AAk?$AA?$AA@ 10093ffc     LIBCMTD:winapinls.obj
 0002:00014008       ??_C@_1M@GPHNBJKN@?$AAm?$AAl?$AA?9?$AAi?$AAn?$AA?$AA@ 10094008     LIBCMTD:winapinls.obj
 0002:00014014       ??_C@_1M@PABJILIG@?$AAm?$AAn?$AA?9?$AAm?$AAn?$AA?$AA@ 10094014     LIBCMTD:winapinls.obj
 0002:00014020       ??_C@_1M@FGBKKIPG@?$AAm?$AAr?$AA?9?$AAi?$AAn?$AA?$AA@ 10094020     LIBCMTD:winapinls.obj
 0002:0001402c       ??_C@_1M@NDBPDDAL@?$AAm?$AAs?$AA?9?$AAb?$AAn?$AA?$AA@ 1009402c     LIBCMTD:winapinls.obj
 0002:00014038       ??_C@_1M@OPIHOOPI@?$AAm?$AAs?$AA?9?$AAm?$AAy?$AA?$AA@ 10094038     LIBCMTD:winapinls.obj
 0002:00014044       ??_C@_1M@PPDBCNFM@?$AAm?$AAt?$AA?9?$AAm?$AAt?$AA?$AA@ 10094044     LIBCMTD:winapinls.obj
 0002:00014050       ??_C@_1M@KDJDKMDD@?$AAn?$AAb?$AA?9?$AAn?$AAo?$AA?$AA@ 10094050     LIBCMTD:winapinls.obj
 0002:0001405c       ??_C@_1M@KFCFLMJP@?$AAn?$AAl?$AA?9?$AAb?$AAe?$AA?$AA@ 1009405c     LIBCMTD:winapinls.obj
 0002:00014068       ??_C@_1M@KPOPDDGO@?$AAn?$AAl?$AA?9?$AAn?$AAl?$AA?$AA@ 10094068     LIBCMTD:winapinls.obj
 0002:00014074       ??_C@_1M@LJKPEMLN@?$AAn?$AAn?$AA?9?$AAn?$AAo?$AA?$AA@ 10094074     LIBCMTD:winapinls.obj
 0002:00014080       ??_C@_1M@BDGHHBFL@?$AAn?$AAs?$AA?9?$AAz?$AAa?$AA?$AA@ 10094080     LIBCMTD:winapinls.obj
 0002:0001408c       ??_C@_1M@IDEHOAP@?$AAp?$AAa?$AA?9?$AAi?$AAn?$AA?$AA@ 1009408c     LIBCMTD:winapinls.obj
 0002:00014098       ??_C@_1M@HDBKGOGH@?$AAp?$AAl?$AA?9?$AAp?$AAl?$AA?$AA@ 10094098     LIBCMTD:winapinls.obj
 0002:000140a4       ??_C@_1M@LJLLCMEH@?$AAp?$AAt?$AA?9?$AAb?$AAr?$AA?$AA@ 100940a4     LIBCMTD:winapinls.obj
 0002:000140b0       ??_C@_1M@NCMONAAL@?$AAp?$AAt?$AA?9?$AAp?$AAt?$AA?$AA@ 100940b0     LIBCMTD:winapinls.obj
 0002:000140bc       ??_C@_1O@EAKMAJDN@?$AAq?$AAu?$AAz?$AA?9?$AAb?$AAo?$AA?$AA@ 100940bc     LIBCMTD:winapinls.obj
 0002:000140cc       ??_C@_1O@BHHPIGDN@?$AAq?$AAu?$AAz?$AA?9?$AAe?$AAc?$AA?$AA@ 100940cc     LIBCMTD:winapinls.obj
 0002:000140dc       ??_C@_1O@GBAPEKMJ@?$AAq?$AAu?$AAz?$AA?9?$AAp?$AAe?$AA?$AA@ 100940dc     LIBCMTD:winapinls.obj
 0002:000140ec       ??_C@_1M@CLGLEFBO@?$AAr?$AAo?$AA?9?$AAr?$AAo?$AA?$AA@ 100940ec     LIBCMTD:winapinls.obj
 0002:000140f8       ??_C@_1M@CEEDODME@?$AAr?$AAu?$AA?9?$AAr?$AAu?$AA?$AA@ 100940f8     LIBCMTD:winapinls.obj
 0002:00014104       ??_C@_1M@HPKKKMPP@?$AAs?$AAa?$AA?9?$AAi?$AAn?$AA?$AA@ 10094104     LIBCMTD:winapinls.obj
 0002:00014110       ??_C@_1M@BKMAIGOJ@?$AAs?$AAe?$AA?9?$AAf?$AAi?$AA?$AA@ 10094110     LIBCMTD:winapinls.obj
 0002:0001411c       ??_C@_1M@NDPIFLFI@?$AAs?$AAe?$AA?9?$AAn?$AAo?$AA?$AA@ 1009411c     LIBCMTD:winapinls.obj
 0002:00014128       ??_C@_1M@DANKKHJ@?$AAs?$AAe?$AA?9?$AAs?$AAe?$AA?$AA@ 10094128     LIBCMTD:winapinls.obj
 0002:00014134       ??_C@_1M@PNBLONPJ@?$AAs?$AAk?$AA?9?$AAs?$AAk?$AA?$AA@ 10094134     LIBCMTD:winapinls.obj
 0002:00014140       ??_C@_1M@LFMODOAL@?$AAs?$AAl?$AA?9?$AAs?$AAi?$AA?$AA@ 10094140     LIBCMTD:winapinls.obj
 0002:0001414c       ??_C@_1O@DFKOMPG@?$AAs?$AAm?$AAa?$AA?9?$AAn?$AAo?$AA?$AA@ 1009414c     LIBCMTD:winapinls.obj
 0002:0001415c       ??_C@_1O@NDKPBNNH@?$AAs?$AAm?$AAa?$AA?9?$AAs?$AAe?$AA?$AA@ 1009415c     LIBCMTD:winapinls.obj
 0002:0001416c       ??_C@_1O@PLLKBHAB@?$AAs?$AAm?$AAj?$AA?9?$AAn?$AAo?$AA?$AA@ 1009416c     LIBCMTD:winapinls.obj
 0002:0001417c       ??_C@_1O@CLEPOGCA@?$AAs?$AAm?$AAj?$AA?9?$AAs?$AAe?$AA?$AA@ 1009417c     LIBCMTD:winapinls.obj
 0002:0001418c       ??_C@_1O@DLGJGKMK@?$AAs?$AAm?$AAn?$AA?9?$AAf?$AAi?$AA?$AA@ 1009418c     LIBCMTD:winapinls.obj
 0002:0001419c       ??_C@_1O@OJDJGAJC@?$AAs?$AAm?$AAs?$AA?9?$AAf?$AAi?$AA?$AA@ 1009419c     LIBCMTD:winapinls.obj
 0002:000141ac       ??_C@_1M@BOFOGHPB@?$AAs?$AAq?$AA?9?$AAa?$AAl?$AA?$AA@ 100941ac     LIBCMTD:winapinls.obj
 0002:000141b8       ??_C@_1BG@LJBBIPGB@?$AAs?$AAr?$AA?9?$AAb?$AAa?$AA?9?$AAc?$AAy?$AAr?$AAl?$AA?$AA@ 100941b8     LIBCMTD:winapinls.obj
 0002:000141d0       ??_C@_1BG@JLBENFOE@?$AAs?$AAr?$AA?9?$AAb?$AAa?$AA?9?$AAl?$AAa?$AAt?$AAn?$AA?$AA@ 100941d0     LIBCMTD:winapinls.obj
 0002:000141e8       ??_C@_1BG@KODPNHE@?$AAs?$AAr?$AA?9?$AAs?$AAp?$AA?9?$AAc?$AAy?$AAr?$AAl?$AA?$AA@ 100941e8     LIBCMTD:winapinls.obj
 0002:00014200       ??_C@_1BG@CIOGKHPB@?$AAs?$AAr?$AA?9?$AAs?$AAp?$AA?9?$AAl?$AAa?$AAt?$AAn?$AA?$AA@ 10094200     LIBCMTD:winapinls.obj
 0002:00014218       ??_C@_1M@NGFJLMAC@?$AAs?$AAv?$AA?9?$AAf?$AAi?$AA?$AA@ 10094218     LIBCMTD:winapinls.obj
 0002:00014224       ??_C@_1M@MPJEJAJC@?$AAs?$AAv?$AA?9?$AAs?$AAe?$AA?$AA@ 10094224     LIBCMTD:winapinls.obj
 0002:00014230       ??_C@_1M@MPNDHLFK@?$AAs?$AAw?$AA?9?$AAk?$AAe?$AA?$AA@ 10094230     LIBCMTD:winapinls.obj
 0002:0001423c       ??_C@_1O@KOHBJJI@?$AAs?$AAy?$AAr?$AA?9?$AAs?$AAy?$AA?$AA@ 1009423c     LIBCMTD:winapinls.obj
 0002:0001424c       ??_C@_1M@LDCEFHA@?$AAt?$AAa?$AA?9?$AAi?$AAn?$AA?$AA@ 1009424c     LIBCMTD:winapinls.obj
 0002:00014258       ??_C@_1M@CNJOFAK@?$AAt?$AAe?$AA?9?$AAi?$AAn?$AA?$AA@ 10094258     LIBCMTD:winapinls.obj
 0002:00014264       ??_C@_1M@GNAECACD@?$AAt?$AAh?$AA?9?$AAt?$AAh?$AA?$AA@ 10094264     LIBCMTD:winapinls.obj
 0002:00014270       ??_C@_1M@CHBIHOJO@?$AAt?$AAn?$AA?9?$AAz?$AAa?$AA?$AA@ 10094270     LIBCMTD:winapinls.obj
 0002:0001427c       ??_C@_1M@GCCMIGPJ@?$AAt?$AAr?$AA?9?$AAt?$AAr?$AA?$AA@ 1009427c     LIBCMTD:winapinls.obj
 0002:00014288       ??_C@_1M@CELMCNBK@?$AAt?$AAt?$AA?9?$AAr?$AAu?$AA?$AA@ 10094288     LIBCMTD:winapinls.obj
 0002:00014294       ??_C@_1M@KLMCELGA@?$AAu?$AAk?$AA?9?$AAu?$AAa?$AA?$AA@ 10094294     LIBCMTD:winapinls.obj
 0002:000142a0       ??_C@_1M@EPAJJAJF@?$AAu?$AAr?$AA?9?$AAp?$AAk?$AA?$AA@ 100942a0     LIBCMTD:winapinls.obj
 0002:000142ac       ??_C@_1BG@GEGPMCDJ@?$AAu?$AAz?$AA?9?$AAu?$AAz?$AA?9?$AAc?$AAy?$AAr?$AAl?$AA?$AA@ 100942ac     LIBCMTD:winapinls.obj
 0002:000142c4       ??_C@_1BG@EGGKJILM@?$AAu?$AAz?$AA?9?$AAu?$AAz?$AA?9?$AAl?$AAa?$AAt?$AAn?$AA?$AA@ 100942c4     LIBCMTD:winapinls.obj
 0002:000142dc       ??_C@_1M@GFOCLFF@?$AAv?$AAi?$AA?9?$AAv?$AAn?$AA?$AA@ 100942dc     LIBCMTD:winapinls.obj
 0002:000142e8       ??_C@_1M@CPAMEDFI@?$AAx?$AAh?$AA?9?$AAz?$AAa?$AA?$AA@ 100942e8     LIBCMTD:winapinls.obj
 0002:000142f4       ??_C@_1O@EBKIFIGN@?$AAz?$AAh?$AA?9?$AAc?$AAh?$AAs?$AA?$AA@ 100942f4     LIBCMTD:winapinls.obj
 0002:00014304       ??_C@_1O@NMHPGANE@?$AAz?$AAh?$AA?9?$AAc?$AAh?$AAt?$AA?$AA@ 10094304     LIBCMTD:winapinls.obj
 0002:00014314       ??_C@_1M@LPINJOMC@?$AAz?$AAh?$AA?9?$AAc?$AAn?$AA?$AA@ 10094314     LIBCMTD:winapinls.obj
 0002:00014320       ??_C@_1M@OCJEJODD@?$AAz?$AAh?$AA?9?$AAh?$AAk?$AA?$AA@ 10094320     LIBCMTD:winapinls.obj
 0002:0001432c       ??_C@_1M@DNDLJINH@?$AAz?$AAh?$AA?9?$AAm?$AAo?$AA?$AA@ 1009432c     LIBCMTD:winapinls.obj
 0002:00014338       ??_C@_1M@MBFDNDND@?$AAz?$AAh?$AA?9?$AAs?$AAg?$AA?$AA@ 10094338     LIBCMTD:winapinls.obj
 0002:00014344       ??_C@_1M@IMEPLEPE@?$AAz?$AAh?$AA?9?$AAt?$AAw?$AA?$AA@ 10094344     LIBCMTD:winapinls.obj
 0002:00014350       ??_C@_1M@BBGHNHJP@?$AAz?$AAu?$AA?9?$AAz?$AAa?$AA?$AA@ 10094350     LIBCMTD:winapinls.obj
 0002:00014360       _LcidToLocaleNameTable     10094360     LIBCMTD:winapinls.obj
 0002:00014a80       _LocaleNameToIndexTable    10094a80     LIBCMTD:winapinls.obj
 0002:000151a0       ??_C@_15EMKDOKLE@?$AAa?$AAr?$AA?$AA@ 100951a0     LIBCMTD:winapinls.obj
 0002:000151a8       ??_C@_15KNPADPLH@?$AAb?$AAg?$AA?$AA@ 100951a8     LIBCMTD:winapinls.obj
 0002:000151b0       ??_C@_15EDMHLDMO@?$AAc?$AAa?$AA?$AA@ 100951b0     LIBCMTD:winapinls.obj
 0002:000151b8       ??_C@_1O@BPEAJADD@?$AAz?$AAh?$AA?9?$AAC?$AAH?$AAS?$AA?$AA@ 100951b8     LIBCMTD:winapinls.obj
 0002:000151c8       ??_C@_15LJNHCMNK@?$AAc?$AAs?$AA?$AA@ 100951c8     LIBCMTD:winapinls.obj
 0002:000151d0       ??_C@_15FOMCIDHG@?$AAd?$AAa?$AA?$AA@ 100951d0     LIBCMTD:winapinls.obj
 0002:000151d8       ??_C@_15NBKABECB@?$AAd?$AAe?$AA?$AA@ 100951d8     LIBCMTD:winapinls.obj
 0002:000151e0       ??_C@_15GHPEIIAO@?$AAe?$AAl?$AA?$AA@ 100951e0     LIBCMTD:winapinls.obj
 0002:000151e8       ??_C@_15MNPNEAIF@?$AAe?$AAn?$AA?$AA@ 100951e8     LIBCMTD:winapinls.obj
 0002:000151f0       ??_C@_15GPIOMPMH@?$AAe?$AAs?$AA?$AA@ 100951f0     LIBCMTD:winapinls.obj
 0002:000151f8       ??_C@_15NGLOAKJC@?$AAf?$AAi?$AA?$AA@ 100951f8     LIBCMTD:winapinls.obj
 0002:00015200       ??_C@_15FBKGNKAM@?$AAf?$AAr?$AA?$AA@ 10095200     LIBCMTD:winapinls.obj
 0002:00015208       ??_C@_15KGGCNEFK@?$AAh?$AAe?$AA?$AA@ 10095208     LIBCMTD:winapinls.obj
 0002:00015210       ??_C@_15PGHLIDMF@?$AAh?$AAu?$AA?$AA@ 10095210     LIBCMTD:winapinls.obj
 0002:00015218       ??_C@_15BIEMAPLM@?$AAi?$AAs?$AA?$AA@ 10095218     LIBCMTD:winapinls.obj
 0002:00015220       ??_C@_15IFJLDHAF@?$AAi?$AAt?$AA?$AA@ 10095220     LIBCMTD:winapinls.obj
 0002:00015228       ??_C@_15GEMIOCAG@?$AAj?$AAa?$AA?$AA@ 10095228     LIBCMTD:winapinls.obj
 0002:00015230       ??_C@_15EPELEGJA@?$AAk?$AAo?$AA?$AA@ 10095230     LIBCMTD:winapinls.obj
 0002:00015238       ??_C@_15NDDHIMN@?$AAn?$AAl?$AA?$AA@ 10095238     LIBCMTD:winapinls.obj
 0002:00015240       ??_C@_15BPIGNHCD@?$AAn?$AAo?$AA?$AA@ 10095240     LIBCMTD:winapinls.obj
 0002:00015248       ??_C@_15DEOPBLCG@?$AAp?$AAl?$AA?$AA@ 10095248     LIBCMTD:winapinls.obj
 0002:00015250       ??_C@_15KBECGEFG@?$AAp?$AAt?$AA?$AA@ 10095250     LIBCMTD:winapinls.obj
 0002:00015258       ??_C@_15GLJCBFMD@?$AAr?$AAo?$AA?$AA@ 10095258     LIBCMTD:winapinls.obj
 0002:00015260       ??_C@_15FEDGKCDI@?$AAr?$AAu?$AA?$AA@ 10095260     LIBCMTD:winapinls.obj
 0002:00015268       ??_C@_15GLKMLLHM@?$AAh?$AAr?$AA?$AA@ 10095268     LIBCMTD:winapinls.obj
 0002:00015270       ??_C@_15CPKMFBDB@?$AAs?$AAk?$AA?$AA@ 10095270     LIBCMTD:winapinls.obj
 0002:00015278       ??_C@_15BAAIOGMK@?$AAs?$AAq?$AA?$AA@ 10095278     LIBCMTD:winapinls.obj
 0002:00015280       ??_C@_15INNPNOHD@?$AAs?$AAv?$AA?$AA@ 10095280     LIBCMTD:winapinls.obj
 0002:00015288       ??_C@_15CABMMOGH@?$AAt?$AAh?$AA?$AA@ 10095288     LIBCMTD:winapinls.obj
 0002:00015290       ??_C@_15BPLIHJJM@?$AAt?$AAr?$AA?$AA@ 10095290     LIBCMTD:winapinls.obj
 0002:00015298       ??_C@_15NEOEKKDJ@?$AAu?$AAr?$AA?$AA@ 10095298     LIBCMTD:winapinls.obj
 0002:000152a0       ??_C@_15NFICGAJK@?$AAi?$AAd?$AA?$AA@ 100952a0     LIBCMTD:winapinls.obj
 0002:000152a8       ??_C@_15PJPFLCCM@?$AAu?$AAk?$AA?$AA@ 100952a8     LIBCMTD:winapinls.obj
 0002:000152b0       ??_C@_15HPJPHDM@?$AAb?$AAe?$AA?$AA@ 100952b0     LIBCMTD:winapinls.obj
 0002:000152b8       ??_C@_15LCHLGJII@?$AAs?$AAl?$AA?$AA@ 100952b8     LIBCMTD:winapinls.obj
 0002:000152c0       ??_C@_15PCFJPHHO@?$AAe?$AAt?$AA?$AA@ 100952c0     LIBCMTD:winapinls.obj
 0002:000152c8       ??_C@_15HPFPGODN@?$AAl?$AAv?$AA?$AA@ 100952c8     LIBCMTD:winapinls.obj
 0002:000152d0       ??_C@_15NFFGKGLG@?$AAl?$AAt?$AA?$AA@ 100952d0     LIBCMTD:winapinls.obj
 0002:000152d8       ??_C@_15BDAKCCHN@?$AAf?$AAa?$AA?$AA@ 100952d8     LIBCMTD:winapinls.obj
 0002:000152e0       ??_C@_15NFGIAIAJ@?$AAv?$AAi?$AA?$AA@ 100952e0     LIBCMTD:winapinls.obj
 0002:000152e8       ??_C@_15LMKNDMHN@?$AAh?$AAy?$AA?$AA@ 100952e8     LIBCMTD:winapinls.obj
 0002:000152f0       ??_C@_15IJBHMCFL@?$AAa?$AAz?$AA?$AA@ 100952f0     LIBCMTD:winapinls.obj
 0002:000152f8       ??_C@_15EKOFJABL@?$AAe?$AAu?$AA?$AA@ 100952f8     LIBCMTD:winapinls.obj
 0002:00015300       ??_C@_15BGHADCNK@?$AAm?$AAk?$AA?$AA@ 10095300     LIBCMTD:winapinls.obj
 0002:00015308       ??_C@_15JDNICKHM@?$AAa?$AAf?$AA?$AA@ 10095308     LIBCMTD:winapinls.obj
 0002:00015310       ??_C@_15KPJEDBKD@?$AAk?$AAa?$AA?$AA@ 10095310     LIBCMTD:winapinls.obj
 0002:00015318       ??_C@_15PDNFFFEO@?$AAf?$AAo?$AA?$AA@ 10095318     LIBCMTD:winapinls.obj
 0002:00015320       ??_C@_15OMLEGLOC@?$AAh?$AAi?$AA?$AA@ 10095320     LIBCMTD:winapinls.obj
 0002:00015328       ??_C@_15IDNNENKK@?$AAm?$AAs?$AA?$AA@ 10095328     LIBCMTD:winapinls.obj
 0002:00015330       ??_C@_15MACJNBMH@?$AAk?$AAk?$AA?$AA@ 10095330     LIBCMTD:winapinls.obj
 0002:00015338       ??_C@_15DKDJEOND@?$AAk?$AAy?$AA?$AA@ 10095338     LIBCMTD:winapinls.obj
 0002:00015340       ??_C@_15DFGDLJBG@?$AAs?$AAw?$AA?$AA@ 10095340     LIBCMTD:winapinls.obj
 0002:00015348       ??_C@_15BBFAICNG@?$AAu?$AAz?$AA?$AA@ 10095348     LIBCMTD:winapinls.obj
 0002:00015350       ??_C@_15DKNDCGEA@?$AAt?$AAt?$AA?$AA@ 10095350     LIBCMTD:winapinls.obj
 0002:00015358       ??_C@_15MGIFMDPL@?$AAp?$AAa?$AA?$AA@ 10095358     LIBCMTD:winapinls.obj
 0002:00015360       ??_C@_15HCNDBBA@?$AAg?$AAu?$AA?$AA@ 10095360     LIBCMTD:winapinls.obj
 0002:00015368       ??_C@_15FNBEIBON@?$AAt?$AAa?$AA?$AA@ 10095368     LIBCMTD:winapinls.obj
 0002:00015370       ??_C@_15NCHGBGLK@?$AAt?$AAe?$AA?$AA@ 10095370     LIBCMTD:winapinls.obj
 0002:00015378       ??_C@_15PHPHCBPF@?$AAk?$AAn?$AA?$AA@ 10095378     LIBCMTD:winapinls.obj
 0002:00015380       ??_C@_15DLGBCKMP@?$AAm?$AAr?$AA?$AA@ 10095380     LIBCMTD:winapinls.obj
 0002:00015388       ??_C@_15EABBLBFF@?$AAs?$AAa?$AA?$AA@ 10095388     LIBCMTD:winapinls.obj
 0002:00015390       ??_C@_15CBKOMCOI@?$AAm?$AAn?$AA?$AA@ 10095390     LIBCMTD:winapinls.obj
 0002:00015398       ??_C@_15CKDMCJAF@?$AAg?$AAl?$AA?$AA@ 10095398     LIBCMTD:winapinls.obj
 0002:000153a0       ??_C@_17CNJFBPG@?$AAk?$AAo?$AAk?$AA?$AA@ 100953a0     LIBCMTD:winapinls.obj
 0002:000153a8       ??_C@_17FFBJICPL@?$AAs?$AAy?$AAr?$AA?$AA@ 100953a8     LIBCMTD:winapinls.obj
 0002:000153b0       ??_C@_17KPNDCPAF@?$AAd?$AAi?$AAv?$AA?$AA@ 100953b0     LIBCMTD:winapinls.obj
 0002:000153b8       ??_C@_1M@OKAHONE@?$AAa?$AAr?$AA?9?$AAS?$AAA?$AA?$AA@ 100953b8     LIBCMTD:winapinls.obj
 0002:000153c4       ??_C@_1M@FFFIGIGK@?$AAb?$AAg?$AA?9?$AAB?$AAG?$AA?$AA@ 100953c4     LIBCMTD:winapinls.obj
 0002:000153d0       ??_C@_1M@BJNKEDC@?$AAc?$AAa?$AA?9?$AAE?$AAS?$AA?$AA@ 100953d0     LIBCMTD:winapinls.obj
 0002:000153dc       ??_C@_1M@IJJHFJHA@?$AAc?$AAs?$AA?9?$AAC?$AAZ?$AA?$AA@ 100953dc     LIBCMTD:winapinls.obj
 0002:000153e8       ??_C@_1M@CLPEOBGI@?$AAd?$AAa?$AA?9?$AAD?$AAK?$AA?$AA@ 100953e8     LIBCMTD:winapinls.obj
 0002:000153f4       ??_C@_1M@MCMADGCB@?$AAd?$AAe?$AA?9?$AAD?$AAE?$AA?$AA@ 100953f4     LIBCMTD:winapinls.obj
 0002:00015400       ??_C@_1M@OOCKEMAM@?$AAe?$AAl?$AA?9?$AAG?$AAR?$AA?$AA@ 10095400     LIBCMTD:winapinls.obj
 0002:0001540c       ??_C@_1M@BMHNFIME@?$AAe?$AAn?$AA?9?$AAU?$AAS?$AA?$AA@ 1009540c     LIBCMTD:winapinls.obj
 0002:00015418       ??_C@_1M@DDNJFGID@?$AAf?$AAi?$AA?9?$AAF?$AAI?$AA?$AA@ 10095418     LIBCMTD:winapinls.obj
 0002:00015424       ??_C@_1M@GLIPPMAC@?$AAf?$AAr?$AA?9?$AAF?$AAR?$AA?$AA@ 10095424     LIBCMTD:winapinls.obj
 0002:00015430       ??_C@_1M@GFMCHPE@?$AAh?$AAe?$AA?9?$AAI?$AAL?$AA?$AA@ 10095430     LIBCMTD:winapinls.obj
 0002:0001543c       ??_C@_1M@MHLPGNKM@?$AAh?$AAu?$AA?9?$AAH?$AAU?$AA?$AA@ 1009543c     LIBCMTD:winapinls.obj
 0002:00015448       ??_C@_1M@LPDDNNPN@?$AAi?$AAs?$AA?9?$AAI?$AAS?$AA?$AA@ 10095448     LIBCMTD:winapinls.obj
 0002:00015454       ??_C@_1M@MADIPODN@?$AAi?$AAt?$AA?9?$AAI?$AAT?$AA?$AA@ 10095454     LIBCMTD:winapinls.obj
 0002:00015460       ??_C@_1M@IHBJJGG@?$AAn?$AAl?$AA?9?$AAN?$AAL?$AA?$AA@ 10095460     LIBCMTD:winapinls.obj
 0002:0001546c       ??_C@_1M@EANAGDL@?$AAn?$AAb?$AA?9?$AAN?$AAO?$AA?$AA@ 1009546c     LIBCMTD:winapinls.obj
 0002:00015478       ??_C@_1M@NEIEMEGP@?$AAp?$AAl?$AA?9?$AAP?$AAL?$AA?$AA@ 10095478     LIBCMTD:winapinls.obj
 0002:00015484       ??_C@_1M@BOCFIGEP@?$AAp?$AAt?$AA?9?$AAB?$AAR?$AA?$AA@ 10095484     LIBCMTD:winapinls.obj
 0002:00015490       ??_C@_1M@IMPFOPBG@?$AAr?$AAo?$AA?9?$AAR?$AAO?$AA?$AA@ 10095490     LIBCMTD:winapinls.obj
 0002:0001549c       ??_C@_1M@IDNNEJMM@?$AAr?$AAu?$AA?9?$AAR?$AAU?$AA?$AA@ 1009549c     LIBCMTD:winapinls.obj
 0002:000154a8       ??_C@_1M@LILEEOGM@?$AAh?$AAr?$AA?9?$AAH?$AAR?$AA?$AA@ 100954a8     LIBCMTD:winapinls.obj
 0002:000154b4       ??_C@_1M@FKIFEHPB@?$AAs?$AAk?$AA?9?$AAS?$AAK?$AA?$AA@ 100954b4     LIBCMTD:winapinls.obj
 0002:000154c0       ??_C@_1M@LJMAMNPJ@?$AAs?$AAq?$AA?9?$AAA?$AAL?$AA?$AA@ 100954c0     LIBCMTD:winapinls.obj
 0002:000154cc       ??_C@_1M@GIAKDKJK@?$AAs?$AAv?$AA?9?$AAS?$AAE?$AA?$AA@ 100954cc     LIBCMTD:winapinls.obj
 0002:000154d8       ??_C@_1M@MKJKIKCL@?$AAt?$AAh?$AA?9?$AAT?$AAH?$AA?$AA@ 100954d8     LIBCMTD:winapinls.obj
 0002:000154e4       ??_C@_1M@MFLCCMPB@?$AAt?$AAr?$AA?9?$AAT?$AAR?$AA?$AA@ 100954e4     LIBCMTD:winapinls.obj
 0002:000154f0       ??_C@_1M@OIJHDKJN@?$AAu?$AAr?$AA?9?$AAP?$AAK?$AA?$AA@ 100954f0     LIBCMTD:winapinls.obj
 0002:000154fc       ??_C@_1M@LHIPCIEK@?$AAi?$AAd?$AA?9?$AAI?$AAD?$AA?$AA@ 100954fc     LIBCMTD:winapinls.obj
 0002:00015508       ??_C@_1M@MFMOBGI@?$AAu?$AAk?$AA?9?$AAU?$AAA?$AA?$AA@ 10095508     LIBCMTD:winapinls.obj
 0002:00015514       ??_C@_1M@OBGLJIPL@?$AAb?$AAe?$AA?9?$AAB?$AAY?$AA?$AA@ 10095514     LIBCMTD:winapinls.obj
 0002:00015520       ??_C@_1M@BCFAJEAD@?$AAs?$AAl?$AA?9?$AAS?$AAI?$AA?$AA@ 10095520     LIBCMTD:winapinls.obj
 0002:0001552c       ??_C@_1M@FKFFEDDN@?$AAe?$AAt?$AA?9?$AAE?$AAE?$AA?$AA@ 1009552c     LIBCMTD:winapinls.obj
 0002:00015538       ??_C@_1M@KGKKAACI@?$AAl?$AAv?$AA?9?$AAL?$AAV?$AA?$AA@ 10095538     LIBCMTD:winapinls.obj
 0002:00015544       ??_C@_1M@IFGBIJO@?$AAl?$AAt?$AA?9?$AAL?$AAT?$AA?$AA@ 10095544     LIBCMTD:winapinls.obj
 0002:00015550       ??_C@_1M@FGEAHEDM@?$AAf?$AAa?$AA?9?$AAI?$AAR?$AA?$AA@ 10095550     LIBCMTD:winapinls.obj
 0002:0001555c       ??_C@_1M@KBMAIBFN@?$AAv?$AAi?$AA?9?$AAV?$AAN?$AA?$AA@ 1009555c     LIBCMTD:winapinls.obj
 0002:00015568       ??_C@_1M@GPCBKDJK@?$AAh?$AAy?$AA?9?$AAA?$AAM?$AA?$AA@ 10095568     LIBCMTD:winapinls.obj
 0002:00015574       ??_C@_1BG@BECMDDJB@?$AAa?$AAz?$AA?9?$AAA?$AAZ?$AA?9?$AAL?$AAa?$AAt?$AAn?$AA?$AA@ 10095574     LIBCMTD:winapinls.obj
 0002:0001558c       ??_C@_1M@MAOFCAEA@?$AAe?$AAu?$AA?9?$AAE?$AAS?$AA?$AA@ 1009558c     LIBCMTD:winapinls.obj
 0002:00015598       ??_C@_1M@IGHABKPI@?$AAm?$AAk?$AA?9?$AAM?$AAK?$AA?$AA@ 10095598     LIBCMTD:winapinls.obj
 0002:000155a4       ??_C@_1M@IAIGNEJG@?$AAt?$AAn?$AA?9?$AAZ?$AAA?$AA?$AA@ 100955a4     LIBCMTD:winapinls.obj
 0002:000155b0       ??_C@_1M@IIJCOJFA@?$AAx?$AAh?$AA?9?$AAZ?$AAA?$AA?$AA@ 100955b0     LIBCMTD:winapinls.obj
 0002:000155bc       ??_C@_1M@LGPJHNJH@?$AAz?$AAu?$AA?9?$AAZ?$AAA?$AA?$AA@ 100955bc     LIBCMTD:winapinls.obj
 0002:000155c8       ??_C@_1M@HOKAOIO@?$AAa?$AAf?$AA?9?$AAZ?$AAA?$AA?$AA@ 100955c8     LIBCMTD:winapinls.obj
 0002:000155d4       ??_C@_1M@DPCLHLIE@?$AAk?$AAa?$AA?9?$AAG?$AAE?$AA?$AA@ 100955d4     LIBCMTD:winapinls.obj
 0002:000155e0       ??_C@_1M@BLKMHJBI@?$AAf?$AAo?$AA?9?$AAF?$AAO?$AA?$AA@ 100955e0     LIBCMTD:winapinls.obj
 0002:000155ec       ??_C@_1M@LGGJAPPB@?$AAh?$AAi?$AA?9?$AAI?$AAN?$AA?$AA@ 100955ec     LIBCMTD:winapinls.obj
 0002:000155f8       ??_C@_1M@FIKPIHFE@?$AAm?$AAt?$AA?9?$AAM?$AAT?$AA?$AA@ 100955f8     LIBCMTD:winapinls.obj
 0002:00015604       ??_C@_1M@HEGGPBFA@?$AAs?$AAe?$AA?9?$AAN?$AAO?$AA?$AA@ 10095604     LIBCMTD:winapinls.obj
 0002:00015610       ??_C@_1M@EIBJEEPA@?$AAm?$AAs?$AA?9?$AAM?$AAY?$AA?$AA@ 10095610     LIBCMTD:winapinls.obj
 0002:0001561c       ??_C@_1M@FHLBGMPP@?$AAk?$AAk?$AA?9?$AAK?$AAZ?$AA?$AA@ 1009561c     LIBCMTD:winapinls.obj
 0002:00015628       ??_C@_1M@NGJJLCGI@?$AAk?$AAy?$AA?9?$AAK?$AAG?$AA?$AA@ 10095628     LIBCMTD:winapinls.obj
 0002:00015634       ??_C@_1M@GIENNBFC@?$AAs?$AAw?$AA?9?$AAK?$AAE?$AA?$AA@ 10095634     LIBCMTD:winapinls.obj
 0002:00015640       ??_C@_1BG@NDGMJIMJ@?$AAu?$AAz?$AA?9?$AAU?$AAZ?$AA?9?$AAL?$AAa?$AAt?$AAn?$AA?$AA@ 10095640     LIBCMTD:winapinls.obj
 0002:00015658       ??_C@_1M@IDCCIHBC@?$AAt?$AAt?$AA?9?$AAR?$AAU?$AA?$AA@ 10095658     LIBCMTD:winapinls.obj
 0002:00015664       ??_C@_1M@LOICPMOJ@?$AAb?$AAn?$AA?9?$AAI?$AAN?$AA?$AA@ 10095664     LIBCMTD:winapinls.obj
 0002:00015670       ??_C@_1M@KPKKNEAH@?$AAp?$AAa?$AA?9?$AAI?$AAN?$AA?$AA@ 10095670     LIBCMTD:winapinls.obj
 0002:0001567c       ??_C@_1M@PJGPPBOG@?$AAg?$AAu?$AA?9?$AAI?$AAN?$AA?$AA@ 1009567c     LIBCMTD:winapinls.obj
 0002:00015688       ??_C@_1M@KMKMOPHI@?$AAt?$AAa?$AA?9?$AAI?$AAN?$AA?$AA@ 10095688     LIBCMTD:winapinls.obj
 0002:00015694       ??_C@_1M@KFEHEPAC@?$AAt?$AAe?$AA?9?$AAI?$AAN?$AA?$AA@ 10095694     LIBCMTD:winapinls.obj
 0002:000156a0       ??_C@_1M@CDCLMGHI@?$AAk?$AAn?$AA?9?$AAI?$AAN?$AA?$AA@ 100956a0     LIBCMTD:winapinls.obj
 0002:000156ac       ??_C@_1M@MIODLDKF@?$AAm?$AAl?$AA?9?$AAI?$AAN?$AA?$AA@ 100956ac     LIBCMTD:winapinls.obj
 0002:000156b8       ??_C@_1M@PBIEACPO@?$AAm?$AAr?$AA?9?$AAI?$AAN?$AA?$AA@ 100956b8     LIBCMTD:winapinls.obj
 0002:000156c4       ??_C@_1M@NIDEAGPH@?$AAs?$AAa?$AA?9?$AAI?$AAN?$AA?$AA@ 100956c4     LIBCMTD:winapinls.obj
 0002:000156d0       ??_C@_1M@FHIHCBIO@?$AAm?$AAn?$AA?9?$AAM?$AAN?$AA?$AA@ 100956d0     LIBCMTD:winapinls.obj
 0002:000156dc       ??_C@_1M@JAIJPENP@?$AAc?$AAy?$AA?9?$AAG?$AAB?$AA?$AA@ 100956dc     LIBCMTD:winapinls.obj
 0002:000156e8       ??_C@_1M@PHGFBEPN@?$AAg?$AAl?$AA?9?$AAE?$AAS?$AA?$AA@ 100956e8     LIBCMTD:winapinls.obj
 0002:000156f4       ??_C@_1O@KPIPDNCP@?$AAk?$AAo?$AAk?$AA?9?$AAI?$AAN?$AA?$AA@ 100956f4     LIBCMTD:winapinls.obj
 0002:00015704       ??_C@_1O@KNHJLDJA@?$AAs?$AAy?$AAr?$AA?9?$AAS?$AAY?$AA?$AA@ 10095704     LIBCMTD:winapinls.obj
 0002:00015714       ??_C@_1O@MKEKBLAH@?$AAd?$AAi?$AAv?$AA?9?$AAM?$AAV?$AA?$AA@ 10095714     LIBCMTD:winapinls.obj
 0002:00015724       ??_C@_1O@OHDCKDDF@?$AAq?$AAu?$AAz?$AA?9?$AAB?$AAO?$AA?$AA@ 10095724     LIBCMTD:winapinls.obj
 0002:00015734       ??_C@_1M@LEPJNLFD@?$AAn?$AAs?$AA?9?$AAZ?$AAA?$AA?$AA@ 10095734     LIBCMTD:winapinls.obj
 0002:00015740       ??_C@_1M@OMLEIIJB@?$AAm?$AAi?$AA?9?$AAN?$AAZ?$AA?$AA@ 10095740     LIBCMTD:winapinls.obj
 0002:0001574c       ??_C@_1M@PMPEAILG@?$AAa?$AAr?$AA?9?$AAI?$AAQ?$AA?$AA@ 1009574c     LIBCMTD:winapinls.obj
 0002:00015758       ??_C@_1M@CNKPNOEE@?$AAd?$AAe?$AA?9?$AAC?$AAH?$AA?$AA@ 10095758     LIBCMTD:winapinls.obj
 0002:00015764       ??_C@_1M@LKMGMLKO@?$AAe?$AAn?$AA?9?$AAG?$AAB?$AA?$AA@ 10095764     LIBCMTD:winapinls.obj
 0002:00015770       ??_C@_1M@PGKJFFGL@?$AAe?$AAs?$AA?9?$AAM?$AAX?$AA?$AA@ 10095770     LIBCMTD:winapinls.obj
 0002:0001577c       ??_C@_1M@DNNANBDC@?$AAf?$AAr?$AA?9?$AAB?$AAE?$AA?$AA@ 1009577c     LIBCMTD:winapinls.obj
 0002:00015788       ??_C@_1M@HLGMDFHM@?$AAi?$AAt?$AA?9?$AAC?$AAH?$AA?$AA@ 10095788     LIBCMTD:winapinls.obj
 0002:00015794       ??_C@_1M@CLLBGJH@?$AAn?$AAl?$AA?9?$AAB?$AAE?$AA?$AA@ 10095794     LIBCMTD:winapinls.obj
 0002:000157a0       ??_C@_1M@BODBOGLF@?$AAn?$AAn?$AA?9?$AAN?$AAO?$AA?$AA@ 100957a0     LIBCMTD:winapinls.obj
 0002:000157ac       ??_C@_1M@HFFAHKAD@?$AAp?$AAt?$AA?9?$AAP?$AAT?$AA?$AA@ 100957ac     LIBCMTD:winapinls.obj
 0002:000157b8       ??_C@_1BG@LNOAKHIE@?$AAs?$AAr?$AA?9?$AAS?$AAP?$AA?9?$AAL?$AAa?$AAt?$AAn?$AA?$AA@ 100957b8     LIBCMTD:winapinls.obj
 0002:000157d0       ??_C@_1M@HBMHBGAK@?$AAs?$AAv?$AA?9?$AAF?$AAI?$AA?$AA@ 100957d0     LIBCMTD:winapinls.obj
 0002:000157dc       ??_C@_1BG@DGCJGJBE@?$AAa?$AAz?$AA?9?$AAA?$AAZ?$AA?9?$AAC?$AAy?$AAr?$AAl?$AA?$AA@ 100957dc     LIBCMTD:winapinls.obj
 0002:000157f4       ??_C@_1M@KEJDAAHB@?$AAs?$AAe?$AA?9?$AAS?$AAE?$AA?$AA@ 100957f4     LIBCMTD:winapinls.obj
 0002:00015800       ??_C@_1M@HEIBJJAD@?$AAm?$AAs?$AA?9?$AAB?$AAN?$AA?$AA@ 10095800     LIBCMTD:winapinls.obj
 0002:0001580c       ??_C@_1BG@PBGJMCEM@?$AAu?$AAz?$AA?9?$AAU?$AAZ?$AA?9?$AAC?$AAy?$AAr?$AAl?$AA?$AA@ 1009580c     LIBCMTD:winapinls.obj
 0002:00015824       ??_C@_1O@LAOBCMDF@?$AAq?$AAu?$AAz?$AA?9?$AAE?$AAC?$AA?$AA@ 10095824     LIBCMTD:winapinls.obj
 0002:00015834       ??_C@_1M@POEEMAIO@?$AAa?$AAr?$AA?9?$AAE?$AAG?$AA?$AA@ 10095834     LIBCMTD:winapinls.obj
 0002:00015840       ??_C@_1M@EFAKDEDL@?$AAz?$AAh?$AA?9?$AAH?$AAK?$AA?$AA@ 10095840     LIBCMTD:winapinls.obj
 0002:0001584c       ??_C@_1M@HKKIJHGI@?$AAd?$AAe?$AA?9?$AAA?$AAT?$AA?$AA@ 1009584c     LIBCMTD:winapinls.obj
 0002:00015858       ??_C@_1M@KBFBEHJF@?$AAe?$AAn?$AA?9?$AAA?$AAU?$AA?$AA@ 10095858     LIBCMTD:winapinls.obj
 0002:00015864       ??_C@_1M@MNPLFAAH@?$AAe?$AAs?$AA?9?$AAE?$AAS?$AA?$AA@ 10095864     LIBCMTD:winapinls.obj
 0002:00015870       ??_C@_1M@HJOOJFMA@?$AAf?$AAr?$AA?9?$AAC?$AAA?$AA?$AA@ 10095870     LIBCMTD:winapinls.obj
 0002:0001587c       ??_C@_1BG@JPOFPNAB@?$AAs?$AAr?$AA?9?$AAS?$AAP?$AA?9?$AAC?$AAy?$AAr?$AAl?$AA?$AA@ 1009587c     LIBCMTD:winapinls.obj
 0002:00015894       ??_C@_1M@LNFOCMOB@?$AAs?$AAe?$AA?9?$AAF?$AAI?$AA?$AA@ 10095894     LIBCMTD:winapinls.obj
 0002:000158a0       ??_C@_1O@MGJBOAMB@?$AAq?$AAu?$AAz?$AA?9?$AAP?$AAE?$AA?$AA@ 100958a0     LIBCMTD:winapinls.obj
 0002:000158b0       ??_C@_1M@GJINLBOK@?$AAa?$AAr?$AA?9?$AAL?$AAY?$AA?$AA@ 100958b0     LIBCMTD:winapinls.obj
 0002:000158bc       ??_C@_1M@GGMNHJNL@?$AAz?$AAh?$AA?9?$AAS?$AAG?$AA?$AA@ 100958bc     LIBCMTD:winapinls.obj
 0002:000158c8       ??_C@_1M@HOIKODND@?$AAd?$AAe?$AA?9?$AAL?$AAU?$AA?$AA@ 100958c8     LIBCMTD:winapinls.obj
 0002:000158d4       ??_C@_1M@DDOCCGFG@?$AAe?$AAn?$AA?9?$AAC?$AAA?$AA?$AA@ 100958d4     LIBCMTD:winapinls.obj
 0002:000158e0       ??_C@_1M@BNOEMJLF@?$AAe?$AAs?$AA?9?$AAG?$AAT?$AA?$AA@ 100958e0     LIBCMTD:winapinls.obj
 0002:000158ec       ??_C@_1M@EOGNKEK@?$AAf?$AAr?$AA?9?$AAC?$AAH?$AA?$AA@ 100958ec     LIBCMTD:winapinls.obj
 0002:000158f8       ??_C@_1M@FLIDJFHL@?$AAh?$AAr?$AA?9?$AAB?$AAA?$AA?$AA@ 100958f8     LIBCMTD:winapinls.obj
 0002:00015904       ??_C@_1O@FMCELNAJ@?$AAs?$AAm?$AAj?$AA?9?$AAN?$AAO?$AA?$AA@ 10095904     LIBCMTD:winapinls.obj
 0002:00015914       ??_C@_1M@JHGLJMGJ@?$AAa?$AAr?$AA?9?$AAD?$AAZ?$AA?$AA@ 10095914     LIBCMTD:winapinls.obj
 0002:00015920       ??_C@_1M@JKKFDCNP@?$AAz?$AAh?$AA?9?$AAM?$AAO?$AA?$AA@ 10095920     LIBCMTD:winapinls.obj
 0002:0001592c       ??_C@_1M@GEEFALPE@?$AAd?$AAe?$AA?9?$AAL?$AAI?$AA?$AA@ 1009592c     LIBCMTD:winapinls.obj
 0002:00015938       ??_C@_1M@IGEOFBG@?$AAe?$AAn?$AA?9?$AAN?$AAZ?$AA?$AA@ 10095938     LIBCMTD:winapinls.obj
 0002:00015944       ??_C@_1M@KDBONEHP@?$AAe?$AAs?$AA?9?$AAC?$AAR?$AA?$AA@ 10095944     LIBCMTD:winapinls.obj
 0002:00015950       ??_C@_1M@FHMDOHNN@?$AAf?$AAr?$AA?9?$AAL?$AAU?$AA?$AA@ 10095950     LIBCMTD:winapinls.obj
 0002:0001595c       ??_C@_1BG@NFKKMAFG@?$AAb?$AAs?$AA?9?$AAB?$AAA?$AA?9?$AAL?$AAa?$AAt?$AAn?$AA?$AA@ 1009595c     LIBCMTD:winapinls.obj
 0002:00015974       ??_C@_1O@IMNBEMCI@?$AAs?$AAm?$AAj?$AA?9?$AAS?$AAE?$AA?$AA@ 10095974     LIBCMTD:winapinls.obj
 0002:00015984       ??_C@_1M@DHHMBNDP@?$AAa?$AAr?$AA?9?$AAM?$AAA?$AA?$AA@ 10095984     LIBCMTD:winapinls.obj
 0002:00015990       ??_C@_1M@BNBLJCGH@?$AAe?$AAn?$AA?9?$AAI?$AAE?$AA?$AA@ 10095990     LIBCMTD:winapinls.obj
 0002:0001599c       ??_C@_1M@GEPAFMDL@?$AAe?$AAs?$AA?9?$AAP?$AAA?$AA?$AA@ 1009599c     LIBCMTD:winapinls.obj
 0002:000159a8       ??_C@_1M@OJONDMDL@?$AAf?$AAr?$AA?9?$AAM?$AAC?$AA?$AA@ 100959a8     LIBCMTD:winapinls.obj
 0002:000159b4       ??_C@_1BG@OBCNFJB@?$AAs?$AAr?$AA?9?$AAB?$AAA?$AA?9?$AAL?$AAa?$AAt?$AAn?$AA?$AA@ 100959b4     LIBCMTD:winapinls.obj
 0002:000159cc       ??_C@_1O@KEMEEGPO@?$AAs?$AAm?$AAa?$AA?9?$AAN?$AAO?$AA?$AA@ 100959cc     LIBCMTD:winapinls.obj
 0002:000159dc       ??_C@_1M@ELMGFODK@?$AAa?$AAr?$AA?9?$AAT?$AAN?$AA?$AA@ 100959dc     LIBCMTD:winapinls.obj
 0002:000159e8       ??_C@_1M@BHDLHFAF@?$AAe?$AAn?$AA?9?$AAZ?$AAA?$AA?$AA@ 100959e8     LIBCMTD:winapinls.obj
 0002:000159f4       ??_C@_1M@BMGIGLIF@?$AAe?$AAs?$AA?9?$AAD?$AAO?$AA?$AA@ 100959f4     LIBCMTD:winapinls.obj
 0002:00015a00       ??_C@_1BG@CMBHIPBE@?$AAs?$AAr?$AA?9?$AAB?$AAA?$AA?9?$AAC?$AAy?$AAr?$AAl?$AA?$AA@ 10095a00     LIBCMTD:winapinls.obj
 0002:00015a18       ??_C@_1O@HEDBLHNP@?$AAs?$AAm?$AAa?$AA?9?$AAS?$AAE?$AA?$AA@ 10095a18     LIBCMTD:winapinls.obj
 0002:00015a28       ??_C@_1M@DAGCADIM@?$AAa?$AAr?$AA?9?$AAO?$AAM?$AA?$AA@ 10095a28     LIBCMTD:winapinls.obj
 0002:00015a34       ??_C@_1M@FODLMICG@?$AAe?$AAn?$AA?9?$AAJ?$AAM?$AA?$AA@ 10095a34     LIBCMTD:winapinls.obj
 0002:00015a40       ??_C@_1M@DNMLCIHB@?$AAe?$AAs?$AA?9?$AAV?$AAE?$AA?$AA@ 10095a40     LIBCMTD:winapinls.obj
 0002:00015a4c       ??_C@_1O@EOKHMKJK@?$AAs?$AAm?$AAs?$AA?9?$AAF?$AAI?$AA?$AA@ 10095a4c     LIBCMTD:winapinls.obj
 0002:00015a5c       ??_C@_1M@CAFJMKOF@?$AAa?$AAr?$AA?9?$AAY?$AAE?$AA?$AA@ 10095a5c     LIBCMTD:winapinls.obj
 0002:00015a68       ??_C@_1M@CBFHIJLI@?$AAe?$AAn?$AA?9?$AAC?$AAB?$AA?$AA@ 10095a68     LIBCMTD:winapinls.obj
 0002:00015a74       ??_C@_1M@BGNFLDN@?$AAe?$AAs?$AA?9?$AAC?$AAO?$AA?$AA@ 10095a74     LIBCMTD:winapinls.obj
 0002:00015a80       ??_C@_1O@JMPHMAMC@?$AAs?$AAm?$AAn?$AA?9?$AAF?$AAI?$AA?$AA@ 10095a80     LIBCMTD:winapinls.obj
 0002:00015a90       ??_C@_1M@JLANABKE@?$AAa?$AAr?$AA?9?$AAS?$AAY?$AA?$AA@ 10095a90     LIBCMTD:winapinls.obj
 0002:00015a9c       ??_C@_1M@HPKGCFGN@?$AAe?$AAn?$AA?9?$AAB?$AAZ?$AA?$AA@ 10095a9c     LIBCMTD:winapinls.obj
 0002:00015aa8       ??_C@_1M@OLJCMLGM@?$AAe?$AAs?$AA?9?$AAP?$AAE?$AA?$AA@ 10095aa8     LIBCMTD:winapinls.obj
 0002:00015ab4       ??_C@_1M@MKKGFKLE@?$AAa?$AAr?$AA?9?$AAJ?$AAO?$AA?$AA@ 10095ab4     LIBCMTD:winapinls.obj
 0002:00015ac0       ??_C@_1M@EKPGLDNI@?$AAe?$AAn?$AA?9?$AAT?$AAT?$AA?$AA@ 10095ac0     LIBCMTD:winapinls.obj
 0002:00015acc       ??_C@_1M@OONGHFHE@?$AAe?$AAs?$AA?9?$AAA?$AAR?$AA?$AA@ 10095acc     LIBCMTD:winapinls.obj
 0002:00015ad8       ??_C@_1M@OOJFGBHE@?$AAa?$AAr?$AA?9?$AAL?$AAB?$AA?$AA@ 10095ad8     LIBCMTD:winapinls.obj
 0002:00015ae4       ??_C@_1M@GCEJHNEG@?$AAe?$AAn?$AA?9?$AAZ?$AAW?$AA?$AA@ 10095ae4     LIBCMTD:winapinls.obj
 0002:00015af0       ??_C@_1M@JNOCAHJI@?$AAe?$AAs?$AA?9?$AAE?$AAC?$AA?$AA@ 10095af0     LIBCMTD:winapinls.obj
 0002:00015afc       ??_C@_1M@JEFHPGGB@?$AAa?$AAr?$AA?9?$AAK?$AAW?$AA?$AA@ 10095afc     LIBCMTD:winapinls.obj
 0002:00015b08       ??_C@_1M@MLKIBJOJ@?$AAe?$AAn?$AA?9?$AAP?$AAH?$AA?$AA@ 10095b08     LIBCMTD:winapinls.obj
 0002:00015b14       ??_C@_1M@BDNIPEND@?$AAe?$AAs?$AA?9?$AAC?$AAL?$AA?$AA@ 10095b14     LIBCMTD:winapinls.obj
 0002:00015b20       ??_C@_1M@MPNMEKBD@?$AAa?$AAr?$AA?9?$AAA?$AAE?$AA?$AA@ 10095b20     LIBCMTD:winapinls.obj
 0002:00015b2c       ??_C@_1M@KBJALCPI@?$AAe?$AAs?$AA?9?$AAU?$AAY?$AA?$AA@ 10095b2c     LIBCMTD:winapinls.obj
 0002:00015b38       ??_C@_1M@LLCCOAGA@?$AAa?$AAr?$AA?9?$AAB?$AAH?$AA?$AA@ 10095b38     LIBCMTD:winapinls.obj
 0002:00015b44       ??_C@_1M@PBFNCDEL@?$AAe?$AAs?$AA?9?$AAP?$AAY?$AA?$AA@ 10095b44     LIBCMTD:winapinls.obj
 0002:00015b50       ??_C@_1M@EDGINPNP@?$AAa?$AAr?$AA?9?$AAQ?$AAA?$AA?$AA@ 10095b50     LIBCMTD:winapinls.obj
 0002:00015b5c       ??_C@_1M@MKDBIIJI@?$AAe?$AAs?$AA?9?$AAB?$AAO?$AA?$AA@ 10095b5c     LIBCMTD:winapinls.obj
 0002:00015b68       ??_C@_1M@CPKKEBLD@?$AAe?$AAs?$AA?9?$AAS?$AAV?$AA?$AA@ 10095b68     LIBCMTD:winapinls.obj
 0002:00015b74       ??_C@_1M@NDBGMMJL@?$AAe?$AAs?$AA?9?$AAH?$AAN?$AA?$AA@ 10095b74     LIBCMTD:winapinls.obj
 0002:00015b80       ??_C@_1M@JIJIBHDP@?$AAe?$AAs?$AA?9?$AAN?$AAI?$AA?$AA@ 10095b80     LIBCMTD:winapinls.obj
 0002:00015b8c       ??_C@_1M@CGFMKEEK@?$AAe?$AAs?$AA?9?$AAP?$AAR?$AA?$AA@ 10095b8c     LIBCMTD:winapinls.obj
 0002:00015b98       ??_C@_1O@ICJHKIIK@?$AAz?$AAh?$AA?9?$AAC?$AAH?$AAT?$AA?$AA@ 10095b98     LIBCMTD:winapinls.obj
 0002:00015ba8       ??_C@_15CLNEJCE@?$AAs?$AAr?$AA?$AA@ 10095ba8     LIBCMTD:winapinls.obj
 0002:00015bb0       ??_C@_1M@KAHEKEIG@?$AAa?$AAf?$AA?9?$AAz?$AAa?$AA?$AA@ 10095bb0     LIBCMTD:winapinls.obj
 0002:00015bbc       ??_C@_1M@GIECOABL@?$AAa?$AAr?$AA?9?$AAa?$AAe?$AA?$AA@ 10095bbc     LIBCMTD:winapinls.obj
 0002:00015bc8       ??_C@_1M@BMLMEKGI@?$AAa?$AAr?$AA?9?$AAb?$AAh?$AA?$AA@ 10095bc8     LIBCMTD:winapinls.obj
 0002:00015bd4       ??_C@_1M@DAPFDGGB@?$AAa?$AAr?$AA?9?$AAd?$AAz?$AA?$AA@ 10095bd4     LIBCMTD:winapinls.obj
 0002:00015be0       ??_C@_1M@FJNKGKIG@?$AAa?$AAr?$AA?9?$AAe?$AAg?$AA?$AA@ 10095be0     LIBCMTD:winapinls.obj
 0002:00015bec       ??_C@_1M@FLGKKCLO@?$AAa?$AAr?$AA?9?$AAi?$AAq?$AA?$AA@ 10095bec     LIBCMTD:winapinls.obj
 0002:00015bf8       ??_C@_1M@GNDIPALM@?$AAa?$AAr?$AA?9?$AAj?$AAo?$AA?$AA@ 10095bf8     LIBCMTD:winapinls.obj
 0002:00015c04       ??_C@_1M@DDMJFMGJ@?$AAa?$AAr?$AA?9?$AAk?$AAw?$AA?$AA@ 10095c04     LIBCMTD:winapinls.obj
 0002:00015c10       ??_C@_1M@EJALMLHM@?$AAa?$AAr?$AA?9?$AAl?$AAb?$AA?$AA@ 10095c10     LIBCMTD:winapinls.obj
 0002:00015c1c       ??_C@_1M@MOBDBLOC@?$AAa?$AAr?$AA?9?$AAl?$AAy?$AA?$AA@ 10095c1c     LIBCMTD:winapinls.obj
 0002:00015c28       ??_C@_1M@JAOCLHDH@?$AAa?$AAr?$AA?9?$AAm?$AAa?$AA?$AA@ 10095c28     LIBCMTD:winapinls.obj
 0002:00015c34       ??_C@_1M@JHPMKJIE@?$AAa?$AAr?$AA?9?$AAo?$AAm?$AA?$AA@ 10095c34     LIBCMTD:winapinls.obj
 0002:00015c40       ??_C@_1M@OEPGHFNH@?$AAa?$AAr?$AA?9?$AAq?$AAa?$AA?$AA@ 10095c40     LIBCMTD:winapinls.obj
 0002:00015c4c       ??_C@_1M@KJDONENM@?$AAa?$AAr?$AA?9?$AAs?$AAa?$AA?$AA@ 10095c4c     LIBCMTD:winapinls.obj
 0002:00015c58       ??_C@_1M@DMJDKLKM@?$AAa?$AAr?$AA?9?$AAs?$AAy?$AA?$AA@ 10095c58     LIBCMTD:winapinls.obj
 0002:00015c64       ??_C@_1M@OMFIPEDC@?$AAa?$AAr?$AA?9?$AAt?$AAn?$AA?$AA@ 10095c64     LIBCMTD:winapinls.obj
 0002:00015c70       ??_C@_1M@IHMHGAON@?$AAa?$AAr?$AA?9?$AAy?$AAe?$AA?$AA@ 10095c70     LIBCMTD:winapinls.obj
 0002:00015c7c       ??_C@_1BG@KDCPGJGB@?$AAa?$AAz?$AA?9?$AAa?$AAz?$AA?9?$AAc?$AAy?$AAr?$AAl?$AA?$AA@ 10095c7c     LIBCMTD:winapinls.obj
 0002:00015c94       ??_C@_1BG@IBCKDDOE@?$AAa?$AAz?$AA?9?$AAa?$AAz?$AA?9?$AAl?$AAa?$AAt?$AAn?$AA?$AA@ 10095c94     LIBCMTD:winapinls.obj
 0002:00015cac       ??_C@_1M@EGPFDCPD@?$AAb?$AAe?$AA?9?$AAb?$AAy?$AA?$AA@ 10095cac     LIBCMTD:winapinls.obj
 0002:00015cb8       ??_C@_1M@PCMGMCGC@?$AAb?$AAg?$AA?9?$AAb?$AAg?$AA?$AA@ 10095cb8     LIBCMTD:winapinls.obj
 0002:00015cc4       ??_C@_1M@BJBMFGOB@?$AAb?$AAn?$AA?9?$AAi?$AAn?$AA?$AA@ 10095cc4     LIBCMTD:winapinls.obj
 0002:00015cd0       ??_C@_1BG@EAKMMACD@?$AAb?$AAs?$AA?9?$AAb?$AAa?$AA?9?$AAl?$AAa?$AAt?$AAn?$AA?$AA@ 10095cd0     LIBCMTD:winapinls.obj
 0002:00015ce8       ??_C@_1M@KGADAODK@?$AAc?$AAa?$AA?9?$AAe?$AAs?$AA?$AA@ 10095ce8     LIBCMTD:winapinls.obj
 0002:00015cf4       ??_C@_1M@COAJPDHI@?$AAc?$AAs?$AA?9?$AAc?$AAz?$AA?$AA@ 10095cf4     LIBCMTD:winapinls.obj
 0002:00015d00       ??_C@_1M@DHBHFONH@?$AAc?$AAy?$AA?9?$AAg?$AAb?$AA?$AA@ 10095d00     LIBCMTD:winapinls.obj
 0002:00015d0c       ??_C@_1M@IMGKELGA@?$AAd?$AAa?$AA?9?$AAd?$AAk?$AA?$AA@ 10095d0c     LIBCMTD:winapinls.obj
 0002:00015d18       ??_C@_1M@NNDGDNGA@?$AAd?$AAe?$AA?9?$AAa?$AAt?$AA?$AA@ 10095d18     LIBCMTD:winapinls.obj
 0002:00015d24       ??_C@_1M@IKDBHEEM@?$AAd?$AAe?$AA?9?$AAc?$AAh?$AA?$AA@ 10095d24     LIBCMTD:winapinls.obj
 0002:00015d30       ??_C@_1M@GFFOJMCJ@?$AAd?$AAe?$AA?9?$AAd?$AAe?$AA?$AA@ 10095d30     LIBCMTD:winapinls.obj
 0002:00015d3c       ??_C@_1M@MDNLKBPM@?$AAd?$AAe?$AA?9?$AAl?$AAi?$AA?$AA@ 10095d3c     LIBCMTD:winapinls.obj
 0002:00015d48       ??_C@_1M@NJBEEJNL@?$AAd?$AAe?$AA?9?$AAl?$AAu?$AA?$AA@ 10095d48     LIBCMTD:winapinls.obj
 0002:00015d54       ??_C@_1O@GNNELBAP@?$AAd?$AAi?$AAv?$AA?9?$AAm?$AAv?$AA?$AA@ 10095d54     LIBCMTD:winapinls.obj
 0002:00015d64       ??_C@_1M@EJLEOGAE@?$AAe?$AAl?$AA?9?$AAg?$AAr?$AA?$AA@ 10095d64     LIBCMTD:winapinls.obj
 0002:00015d70       ??_C@_1M@GMPONJN@?$AAe?$AAn?$AA?9?$AAa?$AAu?$AA?$AA@ 10095d70     LIBCMTD:winapinls.obj
 0002:00015d7c       ??_C@_1M@NIDIIPGF@?$AAe?$AAn?$AA?9?$AAb?$AAz?$AA?$AA@ 10095d7c     LIBCMTD:winapinls.obj
 0002:00015d88       ??_C@_1M@JEHMIMFO@?$AAe?$AAn?$AA?9?$AAc?$AAa?$AA?$AA@ 10095d88     LIBCMTD:winapinls.obj
 0002:00015d94       ??_C@_1M@IGMJCDLA@?$AAe?$AAn?$AA?9?$AAc?$AAb?$AA?$AA@ 10095d94     LIBCMTD:winapinls.obj
 0002:00015da0       ??_C@_1M@BNFIGBKG@?$AAe?$AAn?$AA?9?$AAg?$AAb?$AA?$AA@ 10095da0     LIBCMTD:winapinls.obj
 0002:00015dac       ??_C@_1M@LKIFDIGP@?$AAe?$AAn?$AA?9?$AAi?$AAe?$AA?$AA@ 10095dac     LIBCMTD:winapinls.obj
 0002:00015db8       ??_C@_1M@PJKFGCCO@?$AAe?$AAn?$AA?9?$AAj?$AAm?$AA?$AA@ 10095db8     LIBCMTD:winapinls.obj
 0002:00015dc4       ??_C@_1M@KPPKEPBO@?$AAe?$AAn?$AA?9?$AAn?$AAz?$AA?$AA@ 10095dc4     LIBCMTD:winapinls.obj
 0002:00015dd0       ??_C@_1M@GMDGLDOB@?$AAe?$AAn?$AA?9?$AAp?$AAh?$AA?$AA@ 10095dd0     LIBCMTD:winapinls.obj
 0002:00015ddc       ??_C@_1M@ONGIBJNA@?$AAe?$AAn?$AA?9?$AAt?$AAt?$AA?$AA@ 10095ddc     LIBCMTD:winapinls.obj
 0002:00015de8       ??_C@_1M@LLODPCMM@?$AAe?$AAn?$AA?9?$AAu?$AAs?$AA?$AA@ 10095de8     LIBCMTD:winapinls.obj
 0002:00015df4       ??_C@_1M@LAKFNPAN@?$AAe?$AAn?$AA?9?$AAz?$AAa?$AA?$AA@ 10095df4     LIBCMTD:winapinls.obj
 0002:00015e00       ??_C@_1M@MFNHNHEO@?$AAe?$AAn?$AA?9?$AAz?$AAw?$AA?$AA@ 10095e00     LIBCMTD:winapinls.obj
 0002:00015e0c       ??_C@_1M@EJEINPHM@?$AAe?$AAs?$AA?9?$AAa?$AAr?$AA?$AA@ 10095e0c     LIBCMTD:winapinls.obj
 0002:00015e18       ??_C@_1M@GNKPCCJA@?$AAe?$AAs?$AA?9?$AAb?$AAo?$AA?$AA@ 10095e18     LIBCMTD:winapinls.obj
 0002:00015e24       ??_C@_1M@LEEGFONL@?$AAe?$AAs?$AA?9?$AAc?$AAl?$AA?$AA@ 10095e24     LIBCMTD:winapinls.obj
 0002:00015e30       ??_C@_1M@KGPDPBDF@?$AAe?$AAs?$AA?9?$AAc?$AAo?$AA?$AA@ 10095e30     LIBCMTD:winapinls.obj
 0002:00015e3c       ??_C@_1M@EIAHOHH@?$AAe?$AAs?$AA?9?$AAc?$AAr?$AA?$AA@ 10095e3c     LIBCMTD:winapinls.obj
 0002:00015e48       ??_C@_1M@LLPGMBIN@?$AAe?$AAs?$AA?9?$AAd?$AAo?$AA?$AA@ 10095e48     LIBCMTD:winapinls.obj
 0002:00015e54       ??_C@_1M@DKHMKNJA@?$AAe?$AAs?$AA?9?$AAe?$AAc?$AA?$AA@ 10095e54     LIBCMTD:winapinls.obj
 0002:00015e60       ??_C@_1M@GKGFPKAP@?$AAe?$AAs?$AA?9?$AAe?$AAs?$AA?$AA@ 10095e60     LIBCMTD:winapinls.obj
 0002:00015e6c       ??_C@_1M@LKHKGDLN@?$AAe?$AAs?$AA?9?$AAg?$AAt?$AA?$AA@ 10095e6c     LIBCMTD:winapinls.obj
 0002:00015e78       ??_C@_1M@HEIIGGJD@?$AAe?$AAs?$AA?9?$AAh?$AAn?$AA?$AA@ 10095e78     LIBCMTD:winapinls.obj
 0002:00015e84       ??_C@_1M@FBDHPPGD@?$AAe?$AAs?$AA?9?$AAm?$AAx?$AA?$AA@ 10095e84     LIBCMTD:winapinls.obj
 0002:00015e90       ??_C@_1M@DPAGLNDH@?$AAe?$AAs?$AA?9?$AAn?$AAi?$AA?$AA@ 10095e90     LIBCMTD:winapinls.obj
 0002:00015e9c       ??_C@_1M@MDGOPGDD@?$AAe?$AAs?$AA?9?$AAp?$AAa?$AA?$AA@ 10095e9c     LIBCMTD:winapinls.obj
 0002:00015ea8       ??_C@_1M@EMAMGBGE@?$AAe?$AAs?$AA?9?$AAp?$AAe?$AA?$AA@ 10095ea8     LIBCMTD:winapinls.obj
 0002:00015eb4       ??_C@_1M@IBMCAOEC@?$AAe?$AAs?$AA?9?$AAp?$AAr?$AA?$AA@ 10095eb4     LIBCMTD:winapinls.obj
 0002:00015ec0       ??_C@_1M@FGMDIJED@?$AAe?$AAs?$AA?9?$AAp?$AAy?$AA?$AA@ 10095ec0     LIBCMTD:winapinls.obj
 0002:00015ecc       ??_C@_1M@IIDEOLLL@?$AAe?$AAs?$AA?9?$AAs?$AAv?$AA?$AA@ 10095ecc     LIBCMTD:winapinls.obj
 0002:00015ed8       ??_C@_1M@GAOBIPA@?$AAe?$AAs?$AA?9?$AAu?$AAy?$AA?$AA@ 10095ed8     LIBCMTD:winapinls.obj
 0002:00015ee4       ??_C@_1M@JKFFICHJ@?$AAe?$AAs?$AA?9?$AAv?$AAe?$AA?$AA@ 10095ee4     LIBCMTD:winapinls.obj
 0002:00015ef0       ??_C@_1M@PNMLOJDF@?$AAe?$AAt?$AA?9?$AAe?$AAe?$AA?$AA@ 10095ef0     LIBCMTD:winapinls.obj
 0002:00015efc       ??_C@_1M@GHHLIKEI@?$AAe?$AAu?$AA?9?$AAe?$AAs?$AA?$AA@ 10095efc     LIBCMTD:winapinls.obj
 0002:00015f08       ??_C@_1M@PBNONODE@?$AAf?$AAa?$AA?9?$AAi?$AAr?$AA?$AA@ 10095f08     LIBCMTD:winapinls.obj
 0002:00015f14       ??_C@_1M@JEEHPMIL@?$AAf?$AAi?$AA?9?$AAf?$AAi?$AA?$AA@ 10095f14     LIBCMTD:winapinls.obj
 0002:00015f20       ??_C@_1M@LMDCNDBA@?$AAf?$AAo?$AA?9?$AAf?$AAo?$AA?$AA@ 10095f20     LIBCMTD:winapinls.obj
 0002:00015f2c       ??_C@_1M@JKEOHLDK@?$AAf?$AAr?$AA?9?$AAb?$AAe?$AA?$AA@ 10095f2c     LIBCMTD:winapinls.obj
 0002:00015f38       ??_C@_1M@NOHADPMI@?$AAf?$AAr?$AA?9?$AAc?$AAa?$AA?$AA@ 10095f38     LIBCMTD:winapinls.obj
 0002:00015f44       ??_C@_1M@KDHIHAEC@?$AAf?$AAr?$AA?9?$AAc?$AAh?$AA?$AA@ 10095f44     LIBCMTD:winapinls.obj
 0002:00015f50       ??_C@_1M@MMBBFGAK@?$AAf?$AAr?$AA?9?$AAf?$AAr?$AA?$AA@ 10095f50     LIBCMTD:winapinls.obj
 0002:00015f5c       ??_C@_1M@PAFNENNF@?$AAf?$AAr?$AA?9?$AAl?$AAu?$AA?$AA@ 10095f5c     LIBCMTD:winapinls.obj
 0002:00015f68       ??_C@_1M@EOHDJGDD@?$AAf?$AAr?$AA?9?$AAm?$AAc?$AA?$AA@ 10095f68     LIBCMTD:winapinls.obj
 0002:00015f74       ??_C@_1M@FAPLLOPF@?$AAg?$AAl?$AA?9?$AAe?$AAs?$AA?$AA@ 10095f74     LIBCMTD:winapinls.obj
 0002:00015f80       ??_C@_1M@FOPBFLOO@?$AAg?$AAu?$AA?9?$AAi?$AAn?$AA?$AA@ 10095f80     LIBCMTD:winapinls.obj
 0002:00015f8c       ??_C@_1M@KBMCINPM@?$AAh?$AAe?$AA?9?$AAi?$AAl?$AA?$AA@ 10095f8c     LIBCMTD:winapinls.obj
 0002:00015f98       ??_C@_1M@BBPHKFPJ@?$AAh?$AAi?$AA?9?$AAi?$AAn?$AA?$AA@ 10095f98     LIBCMTD:winapinls.obj
 0002:00015fa4       ??_C@_1M@PMBNDPHD@?$AAh?$AAr?$AA?9?$AAb?$AAa?$AA?$AA@ 10095fa4     LIBCMTD:winapinls.obj
 0002:00015fb0       ??_C@_1M@BPCKOEGE@?$AAh?$AAr?$AA?9?$AAh?$AAr?$AA?$AA@ 10095fb0     LIBCMTD:winapinls.obj
 0002:00015fbc       ??_C@_1M@GACBMHKE@?$AAh?$AAu?$AA?9?$AAh?$AAu?$AA?$AA@ 10095fbc     LIBCMTD:winapinls.obj
 0002:00015fc8       ??_C@_1M@MILPAJJC@?$AAh?$AAy?$AA?9?$AAa?$AAm?$AA?$AA@ 10095fc8     LIBCMTD:winapinls.obj
 0002:00015fd4       ??_C@_1M@BABBICEC@?$AAi?$AAd?$AA?9?$AAi?$AAd?$AA?$AA@ 10095fd4     LIBCMTD:winapinls.obj
 0002:00015fe0       ??_C@_1M@BIKNHHPF@?$AAi?$AAs?$AA?9?$AAi?$AAs?$AA?$AA@ 10095fe0     LIBCMTD:winapinls.obj
 0002:00015fec       ??_C@_1M@NMPCJPHE@?$AAi?$AAt?$AA?9?$AAc?$AAh?$AA?$AA@ 10095fec     LIBCMTD:winapinls.obj
 0002:00015ff8       ??_C@_1M@GHKGFEDF@?$AAi?$AAt?$AA?9?$AAi?$AAt?$AA?$AA@ 10095ff8     LIBCMTD:winapinls.obj
 0002:00016004       ??_C@_1M@NIEJCJJA@?$AAj?$AAa?$AA?9?$AAj?$AAp?$AA?$AA@ 10096004     LIBCMTD:winapinls.obj
 0002:00016010       ??_C@_1M@JILFNBIM@?$AAk?$AAa?$AA?9?$AAg?$AAe?$AA?$AA@ 10096010     LIBCMTD:winapinls.obj
 0002:0001601c       ??_C@_1M@PACPMGPH@?$AAk?$AAk?$AA?9?$AAk?$AAz?$AA?$AA@ 1009601c     LIBCMTD:winapinls.obj
 0002:00016028       ??_C@_1M@IELFGMHA@?$AAk?$AAn?$AA?9?$AAi?$AAn?$AA?$AA@ 10096028     LIBCMTD:winapinls.obj
 0002:00016034       ??_C@_1O@IBBJHCH@?$AAk?$AAo?$AAk?$AA?9?$AAi?$AAn?$AA?$AA@ 10096034     LIBCMTD:winapinls.obj
 0002:00016044       ??_C@_1M@DMHAEOGC@?$AAk?$AAo?$AA?9?$AAk?$AAr?$AA?$AA@ 10096044     LIBCMTD:winapinls.obj
 0002:00016050       ??_C@_1M@HBAHBIGA@?$AAk?$AAy?$AA?9?$AAk?$AAg?$AA?$AA@ 10096050     LIBCMTD:winapinls.obj
 0002:0001605c       ??_C@_1M@KPMILCJG@?$AAl?$AAt?$AA?9?$AAl?$AAt?$AA?$AA@ 1009605c     LIBCMTD:winapinls.obj
 0002:00016068       ??_C@_1M@BDEKKCA@?$AAl?$AAv?$AA?9?$AAl?$AAv?$AA?$AA@ 10096068     LIBCMTD:winapinls.obj
 0002:00016078       ??_C@_1GG@BCIJGKDA@?$AAf?$AA?3?$AA?2?$AAd?$AAd?$AA?2?$AAv?$AAc?$AAt?$AAo?$AAo?$AAl?$AAs?$AA?2?$AAc?$AAr?$AAt?$AA_?$AAb?$AAl?$AAd?$AA?2?$AAs?$AAe?$AAl?$AAf?$AA_?$AAx?$AA8?$AA6?$AA?2?$AAc@ 10096078     LIBCMTD:winapinls.obj
 0002:000160e0       ??_C@_1DO@MBHJDOGM@?$AA_?$AA_?$AAc?$AAr?$AAt?$AAD?$AAo?$AAw?$AAn?$AAl?$AAe?$AAv?$AAe?$AAl?$AAL?$AAC?$AAI?$AAD?$AAT?$AAo?$AAL?$AAo?$AAc?$AAa?$AAl?$AAe?$AAN?$AAa?$AAm?$AAe?$AA?$AA@ 100960e0     LIBCMTD:winapinls.obj
 0002:00016120       ??_C@_1FO@LFACCMJH@?$AAw?$AAc?$AAs?$AAc?$AAp?$AAy?$AA_?$AAs?$AA?$CI?$AAo?$AAu?$AAt?$AAL?$AAo?$AAc?$AAa?$AAl?$AAe?$AAN?$AAa?$AAm?$AAe?$AA?0?$AA?5?$AAc?$AAc?$AAh?$AAL?$AAo?$AAc?$AAa?$AAl@ 10096120     LIBCMTD:winapinls.obj
 0002:00016180       ??_C@_1BJK@FEBNHLFF@?$AA?$CI?$AA?$CI?$AAp?$AAt?$AAl?$AAo?$AAc?$AAi?$AA?9?$AA?$DO?$AAl?$AAc?$AA_?$AAc?$AAa?$AAt?$AAe?$AAg?$AAo?$AAr?$AAy?$AA?$FL?$AAc?$AAa?$AAt?$AAe?$AAg?$AAo?$AAr?$AAy?$AA?$FN?$AA?4@ 10096180     LIBCMTD:localref.obj
 0002:00016320       ??_C@_1GE@HMAALBPJ@?$AAf?$AA?3?$AA?2?$AAd?$AAd?$AA?2?$AAv?$AAc?$AAt?$AAo?$AAo?$AAl?$AAs?$AA?2?$AAc?$AAr?$AAt?$AA_?$AAb?$AAl?$AAd?$AA?2?$AAs?$AAe?$AAl?$AAf?$AA_?$AAx?$AA8?$AA6?$AA?2?$AAc@ 10096320     LIBCMTD:localref.obj
 0002:00016384       ??_C@_1CI@JELMFMDH@?$AAc?$AA?5?$AA?$DO?$AA?$DN?$AA?5?$AA?9?$AA1?$AA?5?$AA?$CG?$AA?$CG?$AA?5?$AAc?$AA?5?$AA?$DM?$AA?$DN?$AA?5?$AA2?$AA5?$AA5?$AA?$AA@ 10096384     LIBCMTD:isctype.obj
 0002:000163b0       ??_C@_1GC@CHGJNMHG@?$AAf?$AA?3?$AA?2?$AAd?$AAd?$AA?2?$AAv?$AAc?$AAt?$AAo?$AAo?$AAl?$AAs?$AA?2?$AAc?$AAr?$AAt?$AA_?$AAb?$AAl?$AAd?$AA?2?$AAs?$AAe?$AAl?$AAf?$AA_?$AAx?$AA8?$AA6?$AA?2?$AAc@ 100963b0     LIBCMTD:isctype.obj
 0002:00016414       ??_C@_1BO@KFIJIAEA@?$AAp?$AAB?$AAl?$AAo?$AAc?$AAk?$AA?5?$AA?$CB?$AA?$DN?$AA?5?$AAN?$AAU?$AAL?$AAL?$AA?$AA@ 10096414     LIBCMTD:expand.obj
 0002:00016438       ??_C@_1GA@EBHFLDNH@?$AAf?$AA?3?$AA?2?$AAd?$AAd?$AA?2?$AAv?$AAc?$AAt?$AAo?$AAo?$AAl?$AAs?$AA?2?$AAc?$AAr?$AAt?$AA_?$AAb?$AAl?$AAd?$AA?2?$AAs?$AAe?$AAl?$AAf?$AA_?$AAx?$AA8?$AA6?$AA?2?$AAc@ 10096438     LIBCMTD:expand.obj
 0002:00016498       ??_C@_1BK@JMCGJOCC@?$AA_?$AAe?$AAx?$AAp?$AAa?$AAn?$AAd?$AA_?$AAb?$AAa?$AAs?$AAe?$AA?$AA@ 10096498     LIBCMTD:expand.obj
 0002:000164c0       ??_C@_03KHICJKCI@?4?4?4?$AA@ 100964c0     LIBCMTD:dbgrpt.obj
 0002:000164c4       ??_C@_1CG@GNMJDMIO@?$AA_?$AAC?$AAr?$AAt?$AAS?$AAe?$AAt?$AAR?$AAe?$AAp?$AAo?$AAr?$AAt?$AAH?$AAo?$AAo?$AAk?$AA2?$AA?$AA@ 100964c4     LIBCMTD:dbgrpt.obj
 0002:000164ec       ??_C@_1CI@IDOKFLAJ@?$AA_?$AA_?$AAc?$AAr?$AAt?$AAM?$AAe?$AAs?$AAs?$AAa?$AAg?$AAe?$AAW?$AAi?$AAn?$AAd?$AAo?$AAw?$AAA?$AA?$AA@ 100964ec     LIBCMTD:dbgrpt.obj
 0002:00016518       ??_C@_1GG@DLDHOIGE@?$AAs?$AAt?$AAr?$AAc?$AAp?$AAy?$AA_?$AAs?$AA?$CI?$AAs?$AAz?$AAE?$AAx?$AAe?$AAN?$AAa?$AAm?$AAe?$AA?0?$AA?5?$AA2?$AA6?$AA0?$AA?0?$AA?5?$AA?$CC?$AA?$DM?$AAp?$AAr?$AAo?$AAg?$AAr@ 10096518     LIBCMTD:dbgrpt.obj
 0002:00016580       ??_C@_0BH@DNAGHKFM@?$DMprogram?5name?5unknown?$DO?$AA@ 10096580     LIBCMTD:dbgrpt.obj
 0002:00016598       ??_C@_1LG@BEHAHJLI@?$AAD?$AAe?$AAb?$AAu?$AAg?$AA?5?$AA?$CF?$AAs?$AA?$CB?$AA?6?$AA?6?$AAP?$AAr?$AAo?$AAg?$AAr?$AAa?$AAm?$AA?3?$AA?5?$AA?$CF?$AAh?$AAs?$AA?$CF?$AAs?$AA?$CF?$AAs?$AA?$CF?$AAh?$AAs?$AA?$CF?$AAs@ 10096598     LIBCMTD:dbgrpt.obj
 0002:00016650       ??_C@_1BA@KBJJGFFE@?$AAs?$AAp?$AAr?$AAi?$AAn?$AAt?$AAf?$AA?$AA@ 10096650     LIBCMTD:sprintf.obj
 0002:00016660       ??_C@_03KOEHGMDN@Sun?$AA@  10096660     LIBCMTD:nlsdata.obj
 0002:00016664       ??_C@_03PDAGKDH@Mon?$AA@   10096664     LIBCMTD:nlsdata.obj
 0002:00016668       ??_C@_03NAGEINEP@Tue?$AA@  10096668     LIBCMTD:nlsdata.obj
 0002:0001666c       ??_C@_03MHOMLAJA@Wed?$AA@  1009666c     LIBCMTD:nlsdata.obj
 0002:00016670       ??_C@_03IOFIKPDN@Thu?$AA@  10096670     LIBCMTD:nlsdata.obj
 0002:00016674       ??_C@_03IDIOELNC@Fri?$AA@  10096674     LIBCMTD:nlsdata.obj
 0002:00016678       ??_C@_03FEFJNEK@Sat?$AA@   10096678     LIBCMTD:nlsdata.obj
 0002:0001667c       ??_C@_06OOPIFAJ@Sunday?$AA@ 1009667c     LIBCMTD:nlsdata.obj
 0002:00016684       ??_C@_06JLEDEDGH@Monday?$AA@ 10096684     LIBCMTD:nlsdata.obj
 0002:0001668c       ??_C@_07BAAGCFCM@Tuesday?$AA@ 1009668c     LIBCMTD:nlsdata.obj
 0002:00016694       ??_C@_09DLIGFAKA@Wednesday?$AA@ 10096694     LIBCMTD:nlsdata.obj
 0002:000166a0       ??_C@_08HACCIKIA@Thursday?$AA@ 100966a0     LIBCMTD:nlsdata.obj
 0002:000166ac       ??_C@_06JECMNKMI@Friday?$AA@ 100966ac     LIBCMTD:nlsdata.obj
 0002:000166b4       ??_C@_08INBOOONO@Saturday?$AA@ 100966b4     LIBCMTD:nlsdata.obj
 0002:000166c0       ??_C@_03JIHJHPIE@Jan?$AA@  100966c0     LIBCMTD:nlsdata.obj
 0002:000166c4       ??_C@_03HJBDCHOM@Feb?$AA@  100966c4     LIBCMTD:nlsdata.obj
 0002:000166c8       ??_C@_03ODNJBKGA@Mar?$AA@  100966c8     LIBCMTD:nlsdata.obj
 0002:000166cc       ??_C@_03LEOLGMJP@Apr?$AA@  100966cc     LIBCMTD:nlsdata.obj
 0002:000166d0       ??_C@_03CNMDKL@May?$AA@    100966d0     LIBCMTD:nlsdata.obj
 0002:000166d4       ??_C@_03IDFGHECI@Jun?$AA@  100966d4     LIBCMTD:nlsdata.obj
 0002:000166d8       ??_C@_03LBGABGKK@Jul?$AA@  100966d8     LIBCMTD:nlsdata.obj
 0002:000166dc       ??_C@_03IFJFEIGA@Aug?$AA@  100966dc     LIBCMTD:nlsdata.obj
 0002:000166e0       ??_C@_03GGCAPAJC@Sep?$AA@  100966e0     LIBCMTD:nlsdata.obj
 0002:000166e4       ??_C@_03BMAOKBAD@Oct?$AA@  100966e4     LIBCMTD:nlsdata.obj
 0002:000166e8       ??_C@_03JPJOFNIA@Nov?$AA@  100966e8     LIBCMTD:nlsdata.obj
 0002:000166ec       ??_C@_03MKABNOCG@Dec?$AA@  100966ec     LIBCMTD:nlsdata.obj
 0002:000166f0       ??_C@_07CGJPFGJA@January?$AA@ 100966f0     LIBCMTD:nlsdata.obj
 0002:000166f8       ??_C@_08GNJGEPFN@February?$AA@ 100966f8     LIBCMTD:nlsdata.obj
 0002:00016704       ??_C@_05HPCKOFNC@March?$AA@ 10096704     LIBCMTD:nlsdata.obj
 0002:0001670c       ??_C@_05DMJDNLEJ@April?$AA@ 1009670c     LIBCMTD:nlsdata.obj
 0002:00016714       ??_C@_04CNLMGBGM@June?$AA@ 10096714     LIBCMTD:nlsdata.obj
 0002:0001671c       ??_C@_04MIEPOIFP@July?$AA@ 1009671c     LIBCMTD:nlsdata.obj
 0002:00016724       ??_C@_06LBBHFDDG@August?$AA@ 10096724     LIBCMTD:nlsdata.obj
 0002:0001672c       ??_C@_09BHHEALKD@September?$AA@ 1009672c     LIBCMTD:nlsdata.obj
 0002:00016738       ??_C@_07JJNFCEND@October?$AA@ 10096738     LIBCMTD:nlsdata.obj
 0002:00016740       ??_C@_08HCHEGEOA@November?$AA@ 10096740     LIBCMTD:nlsdata.obj
 0002:0001674c       ??_C@_08EDHMEBNP@December?$AA@ 1009674c     LIBCMTD:nlsdata.obj
 0002:00016758       ??_C@_02DEDBPAFC@AM?$AA@   10096758     LIBCMTD:nlsdata.obj
 0002:0001675c       ??_C@_02CJNFDJBF@PM?$AA@   1009675c     LIBCMTD:nlsdata.obj
 0002:00016760       ??_C@_08BPBNCDIB@MM?1dd?1yy?$AA@ 10096760     LIBCMTD:nlsdata.obj
 0002:0001676c       ??_C@_0BE@CKGJFCPC@dddd?0?5MMMM?5dd?0?5yyyy?$AA@ 1009676c     LIBCMTD:nlsdata.obj
 0002:00016780       ??_C@_08JCCMCCIL@HH?3mm?3ss?$AA@ 10096780     LIBCMTD:nlsdata.obj
 0002:0001678c       ??_C@_17MBGCMIPB@?$AAS?$AAu?$AAn?$AA?$AA@ 1009678c     LIBCMTD:nlsdata.obj
 0002:00016794       ??_C@_17KBOMKBF@?$AAM?$AAo?$AAn?$AA?$AA@ 10096794     LIBCMTD:nlsdata.obj
 0002:0001679c       ??_C@_17BMKGEGOJ@?$AAT?$AAu?$AAe?$AA?$AA@ 1009679c     LIBCMTD:nlsdata.obj
 0002:000167a4       ??_C@_17CJEDCEPE@?$AAW?$AAe?$AAd?$AA?$AA@ 100967a4     LIBCMTD:nlsdata.obj
 0002:000167ac       ??_C@_17PDPHAADD@?$AAT?$AAh?$AAu?$AA?$AA@ 100967ac     LIBCMTD:nlsdata.obj
 0002:000167b4       ??_C@_17HFOLPPLP@?$AAF?$AAr?$AAi?$AA?$AA@ 100967b4     LIBCMTD:nlsdata.obj
 0002:000167bc       ??_C@_17GGIBDPIH@?$AAS?$AAa?$AAt?$AA?$AA@ 100967bc     LIBCMTD:nlsdata.obj
 0002:000167c4       ??_C@_1O@IHNHDHPB@?$AAS?$AAu?$AAn?$AAd?$AAa?$AAy?$AA?$AA@ 100967c4     LIBCMTD:nlsdata.obj
 0002:000167d4       ??_C@_1O@MMNBFLIA@?$AAM?$AAo?$AAn?$AAd?$AAa?$AAy?$AA?$AA@ 100967d4     LIBCMTD:nlsdata.obj
 0002:000167e4       ??_C@_1BA@ENFBFFEK@?$AAT?$AAu?$AAe?$AAs?$AAd?$AAa?$AAy?$AA?$AA@ 100967e4     LIBCMTD:nlsdata.obj
 0002:000167f4       ??_C@_1BE@EBOGMDOH@?$AAW?$AAe?$AAd?$AAn?$AAe?$AAs?$AAd?$AAa?$AAy?$AA?$AA@ 100967f4     LIBCMTD:nlsdata.obj
 0002:00016808       ??_C@_1BC@HHMNLIHE@?$AAT?$AAh?$AAu?$AAr?$AAs?$AAd?$AAa?$AAy?$AA?$AA@ 10096808     LIBCMTD:nlsdata.obj
 0002:0001681c       ??_C@_1O@PDICJHAG@?$AAF?$AAr?$AAi?$AAd?$AAa?$AAy?$AA?$AA@ 1009681c     LIBCMTD:nlsdata.obj
 0002:0001682c       ??_C@_1BC@ENMNNPAJ@?$AAS?$AAa?$AAt?$AAu?$AAr?$AAd?$AAa?$AAy?$AA?$AA@ 1009682c     LIBCMTD:nlsdata.obj
 0002:00016840       ??_C@_17DKNBKCHM@?$AAJ?$AAa?$AAn?$AA?$AA@ 10096840     LIBCMTD:nlsdata.obj
 0002:00016848       ??_C@_17LMDJEKJN@?$AAF?$AAe?$AAb?$AA?$AA@ 10096848     LIBCMTD:nlsdata.obj
 0002:00016850       ??_C@_17CKNLEDEC@?$AAM?$AAa?$AAr?$AA?$AA@ 10096850     LIBCMTD:nlsdata.obj
 0002:00016858       ??_C@_17LFPOIHDD@?$AAA?$AAp?$AAr?$AA?$AA@ 10096858     LIBCMTD:nlsdata.obj
 0002:00016860       ??_C@_17PNNKMEED@?$AAM?$AAa?$AAy?$AA?$AA@ 10096860     LIBCMTD:nlsdata.obj
 0002:00016868       ??_C@_17KCJGOCPB@?$AAJ?$AAu?$AAn?$AA?$AA@ 10096868     LIBCMTD:nlsdata.obj
 0002:00016870       ??_C@_17IJPCKHK@?$AAJ?$AAu?$AAl?$AA?$AA@ 10096870     LIBCMTD:nlsdata.obj
 0002:00016878       ??_C@_17ICPELBCN@?$AAA?$AAu?$AAg?$AA?$AA@ 10096878     LIBCMTD:nlsdata.obj
 0002:00016880       ??_C@_17HCHCOKMG@?$AAS?$AAe?$AAp?$AA?$AA@ 10096880     LIBCMTD:nlsdata.obj
 0002:00016888       ??_C@_17FNLKOI@?$AAO?$AAc?$AAt?$AA?$AA@ 10096888     LIBCMTD:nlsdata.obj
 0002:00016890       ??_C@_17BBDMLCIG@?$AAN?$AAo?$AAv?$AA?$AA@ 10096890     LIBCMTD:nlsdata.obj
 0002:00016898       ??_C@_17EGKACKIF@?$AAD?$AAe?$AAc?$AA?$AA@ 10096898     LIBCMTD:nlsdata.obj
 0002:000168a0       ??_C@_1BA@EFMEIEBA@?$AAJ?$AAa?$AAn?$AAu?$AAa?$AAr?$AAy?$AA?$AA@ 100968a0     LIBCMTD:nlsdata.obj
 0002:000168b0       ??_C@_1BC@JGDDFFAM@?$AAF?$AAe?$AAb?$AAr?$AAu?$AAa?$AAr?$AAy?$AA?$AA@ 100968b0     LIBCMTD:nlsdata.obj
 0002:000168c4       ??_C@_1M@IKEENEDF@?$AAM?$AAa?$AAr?$AAc?$AAh?$AA?$AA@ 100968c4     LIBCMTD:nlsdata.obj
 0002:000168d0       ??_C@_1M@GJNLMHFD@?$AAA?$AAp?$AAr?$AAi?$AAl?$AA?$AA@ 100968d0     LIBCMTD:nlsdata.obj
 0002:000168dc       ??_C@_19EPFLPGAP@?$AAJ?$AAu?$AAn?$AAe?$AA?$AA@ 100968dc     LIBCMTD:nlsdata.obj
 0002:000168e8       ??_C@_19BIFMLPCD@?$AAJ?$AAu?$AAl?$AAy?$AA?$AA@ 100968e8     LIBCMTD:nlsdata.obj
 0002:000168f4       ??_C@_1O@PAHLKOAC@?$AAA?$AAu?$AAg?$AAu?$AAs?$AAt?$AA?$AA@ 100968f4     LIBCMTD:nlsdata.obj
 0002:00016904       ??_C@_1BE@DKAAMBJL@?$AAS?$AAe?$AAp?$AAt?$AAe?$AAm?$AAb?$AAe?$AAr?$AA?$AA@ 10096904     LIBCMTD:nlsdata.obj
 0002:00016918       ??_C@_1BA@EPANDLNG@?$AAO?$AAc?$AAt?$AAo?$AAb?$AAe?$AAr?$AA?$AA@ 10096918     LIBCMTD:nlsdata.obj
 0002:00016928       ??_C@_1BC@BGLIFPF@?$AAN?$AAo?$AAv?$AAe?$AAm?$AAb?$AAe?$AAr?$AA?$AA@ 10096928     LIBCMTD:nlsdata.obj
 0002:0001693c       ??_C@_1BC@FEMKIFH@?$AAD?$AAe?$AAc?$AAe?$AAm?$AAb?$AAe?$AAr?$AA?$AA@ 1009693c     LIBCMTD:nlsdata.obj
 0002:00016950       ??_C@_15ODEHAHHF@?$AAA?$AAM?$AA?$AA@ 10096950     LIBCMTD:nlsdata.obj
 0002:00016958       ??_C@_15CLMNNGEL@?$AAP?$AAM?$AA?$AA@ 10096958     LIBCMTD:nlsdata.obj
 0002:00016960       ??_C@_1BC@IEBCMHCM@?$AAM?$AAM?$AA?1?$AAd?$AAd?$AA?1?$AAy?$AAy?$AA?$AA@ 10096960     LIBCMTD:nlsdata.obj
 0002:00016974       ??_C@_1CI@KNAKOEBC@?$AAd?$AAd?$AAd?$AAd?$AA?0?$AA?5?$AAM?$AAM?$AAM?$AAM?$AA?5?$AAd?$AAd?$AA?0?$AA?5?$AAy?$AAy?$AAy?$AAy?$AA?$AA@ 10096974     LIBCMTD:nlsdata.obj
 0002:0001699c       ??_C@_1BC@GDGBMEMK@?$AAH?$AAH?$AA?3?$AAm?$AAm?$AA?3?$AAs?$AAs?$AA?$AA@ 1009699c     LIBCMTD:nlsdata.obj
 0002:000169b0       ??_C@_0DB@KIKNCIEC@f?3?2dd?2vctools?2crt_bld?2self_x86?2c@ 100969b0     LIBCMTD:osfinfo.obj
 0002:000169e8       ??_C@_1GC@MLKLDJJG@?$AAf?$AA?3?$AA?2?$AAd?$AAd?$AA?2?$AAv?$AAc?$AAt?$AAo?$AAo?$AAl?$AAs?$AA?2?$AAc?$AAr?$AAt?$AA_?$AAb?$AAl?$AAd?$AA?2?$AAs?$AAe?$AAl?$AAf?$AA_?$AAx?$AA8?$AA6?$AA?2?$AAc@ 100969e8     LIBCMTD:osfinfo.obj
 0002:00016a4c       ??_C@_1BO@EMBOBGKE@?$AA_?$AAg?$AAe?$AAt?$AA_?$AAo?$AAs?$AAf?$AAh?$AAa?$AAn?$AAd?$AAl?$AAe?$AA?$AA@ 10096a4c     LIBCMTD:osfinfo.obj
 0002:00016a70       ??_C@_1HC@KFLBHHBC@?$AA?$CI?$AAf?$AAi?$AAl?$AAe?$AAd?$AAe?$AAs?$AA?5?$AA?$DO?$AA?$DN?$AA?5?$AA0?$AA?5?$AA?$CG?$AA?$CG?$AA?5?$AA?$CI?$AAu?$AAn?$AAs?$AAi?$AAg?$AAn?$AAe?$AAd?$AA?$CJ?$AAf?$AAi?$AAl?$AAe?$AAd@ 10096a70     LIBCMTD:commit.obj
 0002:00016ae8       ??_C@_1GA@BOPCOCFN@?$AAf?$AA?3?$AA?2?$AAd?$AAd?$AA?2?$AAv?$AAc?$AAt?$AAo?$AAo?$AAl?$AAs?$AA?2?$AAc?$AAr?$AAt?$AA_?$AAb?$AAl?$AAd?$AA?2?$AAs?$AAe?$AAl?$AAf?$AA_?$AAx?$AA8?$AA6?$AA?2?$AAc@ 10096ae8     LIBCMTD:commit.obj
 0002:00016b48       ??_C@_1BA@FLNMBBIM@?$AA_?$AAc?$AAo?$AAm?$AAm?$AAi?$AAt?$AA?$AA@ 10096b48     LIBCMTD:commit.obj
 0002:00016b58       ??_C@_1DG@LNNHNFHJ@?$AA?$CI?$AA_?$AAo?$AAs?$AAf?$AAi?$AAl?$AAe?$AA?$CI?$AAf?$AAi?$AAl?$AAe?$AAd?$AAe?$AAs?$AA?$CJ?$AA?5?$AA?$CG?$AA?5?$AAF?$AAO?$AAP?$AAE?$AAN?$AA?$CJ?$AA?$AA@ 10096b58     LIBCMTD:commit.obj
 0002:00016b90       ??_C@_1FO@EPLDPDDL@?$AAf?$AA?3?$AA?2?$AAd?$AAd?$AA?2?$AAv?$AAc?$AAt?$AAo?$AAo?$AAl?$AAs?$AA?2?$AAc?$AAr?$AAt?$AA_?$AAb?$AAl?$AAd?$AA?2?$AAs?$AAe?$AAl?$AAf?$AA_?$AAx?$AA8?$AA6?$AA?2?$AAc@ 10096b90     LIBCMTD:write.obj
 0002:00016bf0       ??_C@_1O@KOFKDHPL@?$AA_?$AAw?$AAr?$AAi?$AAt?$AAe?$AA?$AA@ 10096bf0     LIBCMTD:write.obj
 0002:00016c00       ??_C@_1BM@KFJLMBPG@?$AA?$CI?$AAb?$AAu?$AAf?$AA?5?$AA?$CB?$AA?$DN?$AA?5?$AAN?$AAU?$AAL?$AAL?$AA?$CJ?$AA?$AA@ 10096c00     LIBCMTD:write.obj
 0002:00016c1c       ??_C@_1BM@NCANHCIP@?$AA_?$AAw?$AAr?$AAi?$AAt?$AAe?$AA_?$AAn?$AAo?$AAl?$AAo?$AAc?$AAk?$AA?$AA@ 10096c1c     LIBCMTD:write.obj
 0002:00016c38       ??_C@_1CC@EEOLPHGO@?$AA?$CI?$AA?$CI?$AAc?$AAn?$AAt?$AA?5?$AA?$CG?$AA?5?$AA1?$AA?$CJ?$AA?5?$AA?$DN?$AA?$DN?$AA?5?$AA0?$AA?$CJ?$AA?$AA@ 10096c38     LIBCMTD:write.obj
 0002:00016c5c       ??_C@_1DI@CNMHHHLG@?$AAi?$AAs?$AAl?$AAe?$AAa?$AAd?$AAb?$AAy?$AAt?$AAe?$AA?$CI?$AA_?$AAd?$AAb?$AAc?$AAs?$AAB?$AAu?$AAf?$AAf?$AAe?$AAr?$AA?$CI?$AAf?$AAh?$AA?$CJ?$AA?$CJ?$AA?$AA@ 10096c5c     LIBCMTD:write.obj
 0002:00016c94       ??_C@_1BO@DPAOGEII@?$AA?$CI?$AAp?$AAa?$AAt?$AAh?$AA?5?$AA?$CB?$AA?$DN?$AA?5?$AAN?$AAU?$AAL?$AAL?$AA?$CJ?$AA?$AA@ 10096c94     LIBCMTD:open.obj
 0002:00016cb8       ??_C@_1FM@LFKHNNH@?$AAf?$AA?3?$AA?2?$AAd?$AAd?$AA?2?$AAv?$AAc?$AAt?$AAo?$AAo?$AAl?$AAs?$AA?2?$AAc?$AAr?$AAt?$AA_?$AAb?$AAl?$AAd?$AA?2?$AAs?$AAe?$AAl?$AAf?$AA_?$AAx?$AA8?$AA6?$AA?2?$AAc@ 10096cb8     LIBCMTD:open.obj
 0002:00016d14       ??_C@_1M@MFLJCMFJ@?$AA_?$AAo?$AAp?$AAe?$AAn?$AA?$AA@ 10096d14     LIBCMTD:open.obj
 0002:00016d20       ??_C@_1BM@PGEEHLHE@?$AA?$CI?$AAp?$AAf?$AAh?$AA?5?$AA?$CB?$AA?$DN?$AA?5?$AAN?$AAU?$AAL?$AAL?$AA?$CJ?$AA?$AA@ 10096d20     LIBCMTD:open.obj
 0002:00016d3c       ??_C@_1BM@IOBAMMHO@?$AA_?$AAs?$AAo?$AAp?$AAe?$AAn?$AA_?$AAh?$AAe?$AAl?$AAp?$AAe?$AAr?$AA?$AA@ 10096d3c     LIBCMTD:open.obj
 0002:00016d58       ??_C@_1FG@NFINBJCM@?$AA?$CI?$AA?$CI?$AAp?$AAm?$AAo?$AAd?$AAe?$AA?5?$AA?$CG?$AA?5?$AA?$CI?$AA?$HO?$AA?$CI?$AA_?$AAS?$AA_?$AAI?$AAR?$AAE?$AAA?$AAD?$AA?5?$AA?$HM?$AA?5?$AA_?$AAS?$AA_?$AAI?$AAW?$AAR?$AAI?$AAT@ 10096d58     LIBCMTD:open.obj
 0002:00016db0       ??_C@_1BG@MODEICJK@?$AAs?$AA1?$AA?5?$AA?$CB?$AA?$DN?$AA?5?$AAN?$AAU?$AAL?$AAL?$AA?$AA@ 10096db0     LIBCMTD:mbsnbcmp.obj
 0002:00016dc8       ??_C@_1GE@IIBFGEPN@?$AAf?$AA?3?$AA?2?$AAd?$AAd?$AA?2?$AAv?$AAc?$AAt?$AAo?$AAo?$AAl?$AAs?$AA?2?$AAc?$AAr?$AAt?$AA_?$AAb?$AAl?$AAd?$AA?2?$AAs?$AAe?$AAl?$AAf?$AA_?$AAx?$AA8?$AA6?$AA?2?$AAc@ 10096dc8     LIBCMTD:mbsnbcmp.obj
 0002:00016e2c       ??_C@_1BI@LPHOHGHI@?$AA_?$AAm?$AAb?$AAs?$AAn?$AAb?$AAc?$AAm?$AAp?$AA_?$AAl?$AA?$AA@ 10096e2c     LIBCMTD:mbsnbcmp.obj
 0002:00016e44       ??_C@_1BG@GBJNMPFA@?$AAs?$AA2?$AA?5?$AA?$CB?$AA?$DN?$AA?5?$AAN?$AAU?$AAL?$AAL?$AA?$AA@ 10096e44     LIBCMTD:mbsnbcmp.obj
 0002:00016e60       ??_C@_1GE@JLFFJINF@?$AAf?$AA?3?$AA?2?$AAd?$AAd?$AA?2?$AAv?$AAc?$AAt?$AAo?$AAo?$AAl?$AAs?$AA?2?$AAc?$AAr?$AAt?$AA_?$AAb?$AAl?$AAd?$AA?2?$AAs?$AAe?$AAl?$AAf?$AA_?$AAx?$AA8?$AA6?$AA?2?$AAc@ 10096e60     LIBCMTD:mbsnbicm.obj
 0002:00016ec4       ??_C@_1BK@GEJONGBG@?$AA_?$AAm?$AAb?$AAs?$AAn?$AAb?$AAi?$AAc?$AAm?$AAp?$AA_?$AAl?$AA?$AA@ 10096ec4     LIBCMTD:mbsnbicm.obj
 0002:00016ee0       ___lookuptable_s           10096ee0     LIBCMTD:outputs.obj
 0002:00016f3c       ??_C@_1BI@COFBLHCG@?$AA_?$AAo?$AAu?$AAt?$AAp?$AAu?$AAt?$AA_?$AAs?$AA_?$AAl?$AA?$AA@ 10096f3c     LIBCMTD:outputs.obj
 0002:00016f58       ??_C@_1GA@LPGDJDEN@?$AAf?$AA?3?$AA?2?$AAd?$AAd?$AA?2?$AAv?$AAc?$AAt?$AAo?$AAo?$AAl?$AAs?$AA?2?$AAc?$AAr?$AAt?$AA_?$AAb?$AAl?$AAd?$AA?2?$AAs?$AAe?$AAl?$AAf?$AA_?$AAx?$AA8?$AA6?$AA?2?$AAc@ 10096f58     LIBCMTD:isatty.obj
 0002:00016fb8       ??_C@_1BA@LEBDGIHM@?$AA_?$AAi?$AAs?$AAa?$AAt?$AAt?$AAy?$AA?$AA@ 10096fb8     LIBCMTD:isatty.obj
 0002:00016fc8       ??_C@_1CO@HFMIILNF@?$AAs?$AAi?$AAz?$AAe?$AAI?$AAn?$AAB?$AAy?$AAt?$AAe?$AAs?$AA?5?$AA?$DM?$AA?$DN?$AA?5?$AAI?$AAN?$AAT?$AA_?$AAM?$AAA?$AAX?$AA?$AA@ 10096fc8     LIBCMTD:wctomb.obj
 0002:00016ff8       ??_C@_1GA@LDLHPOO@?$AAf?$AA?3?$AA?2?$AAd?$AAd?$AA?2?$AAv?$AAc?$AAt?$AAo?$AAo?$AAl?$AAs?$AA?2?$AAc?$AAr?$AAt?$AA_?$AAb?$AAl?$AAd?$AA?2?$AAs?$AAe?$AAl?$AAf?$AA_?$AAx?$AA8?$AA6?$AA?2?$AAc@ 10096ff8     LIBCMTD:wctomb.obj
 0002:00017058       ??_C@_1BI@IEADNOHF@?$AA_?$AAw?$AAc?$AAt?$AAo?$AAm?$AAb?$AA_?$AAs?$AA_?$AAl?$AA?$AA@ 10097058     LIBCMTD:wctomb.obj
 0002:00017070       ??_C@_1DA@HPBFKMEB@?$AA?$CI?$AA?$CC?$AAB?$AAu?$AAf?$AAf?$AAe?$AAr?$AA?5?$AAt?$AAo?$AAo?$AA?5?$AAs?$AAm?$AAa?$AAl?$AAl?$AA?$CC?$AA?0?$AA?5?$AA0?$AA?$CJ?$AA?$AA@ 10097070     LIBCMTD:wctomb.obj
 0002:000170a0       ??_C@_1GC@CHFNJKFB@?$AAf?$AA?3?$AA?2?$AAd?$AAd?$AA?2?$AAv?$AAc?$AAt?$AAo?$AAo?$AAl?$AAs?$AA?2?$AAc?$AAr?$AAt?$AA_?$AAb?$AAl?$AAd?$AA?2?$AAs?$AAe?$AAl?$AAf?$AA_?$AAx?$AA8?$AA6?$AA?2?$AAc@ 100970a0     LIBCMTD:_filbuf.obj
 0002:00017104       ??_C@_1BA@IIKEPOGH@?$AA_?$AAf?$AAi?$AAl?$AAb?$AAu?$AAf?$AA?$AA@ 10097104     LIBCMTD:_filbuf.obj
 0002:00017118       ??_C@_1GA@OAFAANFO@?$AAf?$AA?3?$AA?2?$AAd?$AAd?$AA?2?$AAv?$AAc?$AAt?$AAo?$AAo?$AAl?$AAs?$AA?2?$AAc?$AAr?$AAt?$AA_?$AAb?$AAl?$AAd?$AA?2?$AAs?$AAe?$AAl?$AAf?$AA_?$AAx?$AA8?$AA6?$AA?2?$AAc@ 10097118     LIBCMTD:ungetc.obj
 0002:00017178       ??_C@_1O@JDPLECOK@?$AAu?$AAn?$AAg?$AAe?$AAt?$AAc?$AA?$AA@ 10097178     LIBCMTD:ungetc.obj
 0002:00017188       ??_C@_1HC@OEJDDIIH@?$AAf?$AA?3?$AA?2?$AAd?$AAd?$AA?2?$AAv?$AAc?$AAt?$AAo?$AAo?$AAl?$AAs?$AA?2?$AAc?$AAr?$AAt?$AA_?$AAb?$AAl?$AAd?$AA?2?$AAs?$AAe?$AAl?$AAf?$AA_?$AAx?$AA8?$AA6?$AA?2?$AAc@ 10097188     LIBCMTD:ungetc.obj
 0002:000171fc       ??_C@_1BO@OLMLKKEA@?$AA_?$AAu?$AAn?$AAg?$AAe?$AAt?$AAc?$AA_?$AAn?$AAo?$AAl?$AAo?$AAc?$AAk?$AA?$AA@ 100971fc     LIBCMTD:ungetc.obj
 0002:00017220       ??_C@_1NC@EINCOKCO@?$AA_?$AAl?$AAo?$AAc?$AA_?$AAu?$AAp?$AAd?$AAa?$AAt?$AAe?$AA?4?$AAG?$AAe?$AAt?$AAL?$AAo?$AAc?$AAa?$AAl?$AAe?$AAT?$AA?$CI?$AA?$CJ?$AA?9?$AA?$DO?$AAl?$AAo?$AAc?$AAi?$AAn?$AAf@ 10097220     LIBCMTD:mbtowc.obj
 0002:000172f8       ??_C@_1GA@GFFDGGFH@?$AAf?$AA?3?$AA?2?$AAd?$AAd?$AA?2?$AAv?$AAc?$AAt?$AAo?$AAo?$AAl?$AAs?$AA?2?$AAc?$AAr?$AAt?$AA_?$AAb?$AAl?$AAd?$AA?2?$AAs?$AAe?$AAl?$AAf?$AA_?$AAx?$AA8?$AA6?$AA?2?$AAc@ 100972f8     LIBCMTD:mbtowc.obj
 0002:00017358       ?LocalIdBitWidth@CrossScopeId@CodeViewInfo@@2IB 10097358     LIBCMTD:pdblkup.obj
 0002:0001735c       ?IdScopeBitWidth@CrossScopeId@CodeViewInfo@@2IB 1009735c     LIBCMTD:pdblkup.obj
 0002:00017360       ?StartCrossScopeId@CrossScopeId@CodeViewInfo@@2IB 10097360     LIBCMTD:pdblkup.obj
 0002:00017364       ?LocalIdMask@CrossScopeId@CodeViewInfo@@2IB 10097364     LIBCMTD:pdblkup.obj
 0002:00017368       ?ScopeIdMask@CrossScopeId@CodeViewInfo@@2IB 10097368     LIBCMTD:pdblkup.obj
 0002:0001736c       ?MaxLocalId@CrossScopeId@CodeViewInfo@@2IB 1009736c     LIBCMTD:pdblkup.obj
 0002:00017370       ?MaxScopeId@CrossScopeId@CodeViewInfo@@2IB 10097370     LIBCMTD:pdblkup.obj
 0002:000173ac       ??_C@_0O@COHOBMLB@RegOpenKeyExW?$AA@ 100973ac     LIBCMTD:pdblkup.obj
 0002:000173bc       ??_C@_0BB@GLNAEDBD@RegQueryValueExW?$AA@ 100973bc     LIBCMTD:pdblkup.obj
 0002:000173d0       ??_C@_0M@HLOHPNFA@RegCloseKey?$AA@ 100973d0     LIBCMTD:pdblkup.obj
 0002:000173e0       ??_C@_1FM@OEMPKHJI@?$AAS?$AAO?$AAF?$AAT?$AAW?$AAA?$AAR?$AAE?$AA?2?$AAM?$AAi?$AAc?$AAr?$AAo?$AAs?$AAo?$AAf?$AAt?$AA?2?$AAV?$AAi?$AAs?$AAu?$AAa?$AAl?$AAS?$AAt?$AAu?$AAd?$AAi?$AAo?$AA?2@ 100973e0     LIBCMTD:pdblkup.obj
 0002:0001743c       ??_C@_1CK@HHHCOJPD@?$AAE?$AAn?$AAv?$AAi?$AAr?$AAo?$AAn?$AAm?$AAe?$AAn?$AAt?$AAD?$AAi?$AAr?$AAe?$AAc?$AAt?$AAo?$AAr?$AAy?$AA?$AA@ 1009743c     LIBCMTD:pdblkup.obj
 0002:00017484       ??_C@_1BC@MIBIBMGK@?$AAM?$AAS?$AAP?$AAD?$AAB?$AA1?$AA1?$AA0?$AA?$AA@ 10097484     LIBCMTD:pdblkup.obj
 0002:00017498       ??_C@_0BB@KCIACLNC@PDBOpenValidate5?$AA@ 10097498     LIBCMTD:pdblkup.obj
 0002:000174ac       ??_C@_01KDCPPGHE@r?$AA@    100974ac     LIBCMTD:pdblkup.obj
 0002:00017638       ??_C@_08EHJDFFNH@__based?$CI?$AA@ 10097638     LIBCMTD:undname.obj
 0002:00017644       ??_C@_07KOLFKCDI@__cdecl?$AA@ 10097644     LIBCMTD:undname.obj
 0002:0001764c       ??_C@_08GHMPAG@__pascal?$AA@ 1009764c     LIBCMTD:undname.obj
 0002:00017658       ??_C@_09IFJBGAPI@__stdcall?$AA@ 10097658     LIBCMTD:undname.obj
 0002:00017664       ??_C@_0L@NPHFGOKO@__thiscall?$AA@ 10097664     LIBCMTD:undname.obj
 0002:00017670       ??_C@_0L@JMKHOMEK@__fastcall?$AA@ 10097670     LIBCMTD:undname.obj
 0002:0001767c       ??_C@_09HIJEGCPM@__clrcall?$AA@ 1009767c     LIBCMTD:undname.obj
 0002:00017688       ??_C@_06GHPCKEAG@__eabi?$AA@ 10097688     LIBCMTD:undname.obj
 0002:00017690       ??_C@_07JOMMBBKO@__ptr64?$AA@ 10097690     LIBCMTD:undname.obj
 0002:00017698       ??_C@_0L@PILCLIHE@__restrict?$AA@ 10097698     LIBCMTD:undname.obj
 0002:000176a4       ??_C@_0M@GFIIJFMG@__unaligned?$AA@ 100976a4     LIBCMTD:undname.obj
 0002:000176b0       ??_C@_09DHDLOLLB@restrict?$CI?$AA@ 100976b0     LIBCMTD:undname.obj
 0002:000176bc       ??_C@_04NIHEBCM@?5new?$AA@ 100976bc     LIBCMTD:undname.obj
 0002:000176c4       ??_C@_07FPCDHGMM@?5delete?$AA@ 100976c4     LIBCMTD:undname.obj
 0002:000176cc       ??_C@_01NEMOKFLO@?$DN?$AA@ 100976cc     LIBCMTD:undname.obj
 0002:000176d0       ??_C@_02GPIOPFAK@?$DO?$DO?$AA@ 100976d0     LIBCMTD:undname.obj
 0002:000176d4       ??_C@_02FODMEDOG@?$DM?$DM?$AA@ 100976d4     LIBCMTD:undname.obj
 0002:000176d8       ??_C@_01DCLJPIOD@?$CB?$AA@ 100976d8     LIBCMTD:undname.obj
 0002:000176dc       ??_C@_02EGOFBIJA@?$DN?$DN?$AA@ 100976dc     LIBCMTD:undname.obj
 0002:000176e0       ??_C@_02FDNJECIE@?$CB?$DN?$AA@ 100976e0     LIBCMTD:undname.obj
 0002:000176e4       ??_C@_02GPECMEKF@?$FL?$FN?$AA@ 100976e4     LIBCMTD:undname.obj
 0002:000176e8       ??_C@_08LHJFAFGD@operator?$AA@ 100976e8     LIBCMTD:undname.obj
 0002:000176f4       ??_C@_02HBOOOICD@?9?$DO?$AA@ 100976f4     LIBCMTD:undname.obj
 0002:000176f8       ??_C@_01NBENCBCI@?$CK?$AA@ 100976f8     LIBCMTD:undname.obj
 0002:000176fc       ??_C@_02ECNGHCIF@?$CL?$CL?$AA@ 100976fc     LIBCMTD:undname.obj
 0002:00017700       ??_C@_02BAABKJLB@?9?9?$AA@ 10097700     LIBCMTD:undname.obj
 0002:00017704       ??_C@_01JOAMLHOP@?9?$AA@   10097704     LIBCMTD:undname.obj
 0002:00017708       ??_C@_01MIFGBAGJ@?$CL?$AA@ 10097708     LIBCMTD:undname.obj
 0002:0001770c       ??_C@_01HNPIGOCE@?$CG?$AA@ 1009770c     LIBCMTD:undname.obj
 0002:00017710       ??_C@_03MNHNFDLC@?9?$DO?$CK?$AA@ 10097710     LIBCMTD:undname.obj
 0002:00017714       ??_C@_01KMDKNFGN@?1?$AA@   10097714     LIBCMTD:undname.obj
 0002:00017718       ??_C@_01FGNFDNOH@?$CF?$AA@ 10097718     LIBCMTD:undname.obj
 0002:0001771c       ??_C@_01MNNFJEPP@?$DM?$AA@ 1009771c     LIBCMTD:undname.obj
 0002:00017720       ??_C@_02EHCHHCKH@?$DM?$DN?$AA@ 10097720     LIBCMTD:undname.obj
 0002:00017724       ??_C@_01PPODPGHN@?$DO?$AA@ 10097724     LIBCMTD:undname.obj
 0002:00017728       ??_C@_02EEKDKGMJ@?$DO?$DN?$AA@ 10097728     LIBCMTD:undname.obj
 0002:0001772c       ??_C@_01IHBHIGKO@?0?$AA@   1009772c     LIBCMTD:undname.obj
 0002:00017730       ??_C@_02HCKGKOFO@?$CI?$CJ?$AA@ 10097730     LIBCMTD:undname.obj
 0002:00017734       ??_C@_01PJKLJHI@?$HO?$AA@  10097734     LIBCMTD:undname.obj
 0002:00017738       ??_C@_01JKBOJNNK@?$FO?$AA@ 10097738     LIBCMTD:undname.obj
 0002:0001773c       ??_C@_01DNKMNLPK@?$HM?$AA@ 1009773c     LIBCMTD:undname.obj
 0002:00017740       ??_C@_02PPKAJPJL@?$CG?$CG?$AA@ 10097740     LIBCMTD:undname.obj
 0002:00017744       ??_C@_02NONPIBCD@?$HM?$HM?$AA@ 10097744     LIBCMTD:undname.obj
 0002:00017748       ??_C@_02FPIMKNGF@?$CK?$DN?$AA@ 10097748     LIBCMTD:undname.obj
 0002:0001774c       ??_C@_02FOEOMHFC@?$CL?$DN?$AA@ 1009774c     LIBCMTD:undname.obj
 0002:00017750       ??_C@_02FKMDLLOA@?9?$DN?$AA@ 10097750     LIBCMTD:undname.obj
 0002:00017754       ??_C@_02FJEHGPIO@?1?$DN?$AA@ 10097754     LIBCMTD:undname.obj
 0002:00017758       ??_C@_02FENAOKFI@?$CF?$DN?$AA@ 10097758     LIBCMTD:undname.obj
 0002:0001775c       ??_C@_03IKFCCPFF@?$DO?$DO?$DN?$AA@ 1009775c     LIBCMTD:undname.obj
 0002:00017760       ??_C@_03CDNPDDLA@?$DM?$DM?$DN?$AA@ 10097760     LIBCMTD:undname.obj
 0002:00017764       ??_C@_02FGJGFEAB@?$CG?$DN?$AA@ 10097764     LIBCMTD:undname.obj
 0002:00017768       ??_C@_02DHLNPPGH@?$HM?$DN?$AA@ 10097768     LIBCMTD:undname.obj
 0002:0001776c       ??_C@_02MHEGNOJ@?$FO?$DN?$AA@ 1009776c     LIBCMTD:undname.obj
 0002:00017770       ??_C@_09IFPLHPGF@?$GAvftable?8?$AA@ 10097770     LIBCMTD:undname.obj
 0002:0001777c       ??_C@_09BLBHBJP@?$GAvbtable?8?$AA@ 1009777c     LIBCMTD:undname.obj
 0002:00017788       ??_C@_07FEEIOKP@?$GAvcall?8?$AA@ 10097788     LIBCMTD:undname.obj
 0002:00017790       ??_C@_08LLFFHHDJ@?$GAtypeof?8?$AA@ 10097790     LIBCMTD:undname.obj
 0002:0001779c       ??_C@_0BF@KDPPACIK@?$GAlocal?5static?5guard?8?$AA@ 1009779c     LIBCMTD:undname.obj
 0002:000177b4       ??_C@_08OBABFOLI@?$GAstring?8?$AA@ 100977b4     LIBCMTD:undname.obj
 0002:000177c0       ??_C@_0BD@JDLKDPAB@?$GAvbase?5destructor?8?$AA@ 100977c0     LIBCMTD:undname.obj
 0002:000177d4       ??_C@_0BN@DEGPLNFK@?$GAvector?5deleting?5destructor?8?$AA@ 100977d4     LIBCMTD:undname.obj
 0002:000177f4       ??_C@_0BO@OBMKPJIG@?$GAdefault?5constructor?5closure?8?$AA@ 100977f4     LIBCMTD:undname.obj
 0002:00017814       ??_C@_0BN@IMDCHIKM@?$GAscalar?5deleting?5destructor?8?$AA@ 10097814     LIBCMTD:undname.obj
 0002:00017834       ??_C@_0BO@PFGOCPJJ@?$GAvector?5constructor?5iterator?8?$AA@ 10097834     LIBCMTD:undname.obj
 0002:00017854       ??_C@_0BN@LFPFMEDL@?$GAvector?5destructor?5iterator?8?$AA@ 10097854     LIBCMTD:undname.obj
 0002:00017874       ??_C@_0CE@IKBNEHA@?$GAvector?5vbase?5constructor?5iterat@ 10097874     LIBCMTD:undname.obj
 0002:00017898       ??_C@_0BL@NILFHHPC@?$GAvirtual?5displacement?5map?8?$AA@ 10097898     LIBCMTD:undname.obj
 0002:000178b4       ??_C@_0CB@JONCMFFK@?$GAeh?5vector?5constructor?5iterator?8@ 100978b4     LIBCMTD:undname.obj
 0002:000178d8       ??_C@_0CA@GCEOPDGL@?$GAeh?5vector?5destructor?5iterator?8?$AA@ 100978d8     LIBCMTD:undname.obj
 0002:000178f8       ??_C@_0CH@OOJPLCPH@?$GAeh?5vector?5vbase?5constructor?5ite@ 100978f8     LIBCMTD:undname.obj
 0002:00017920       ??_C@_0BL@LLKPOHJI@?$GAcopy?5constructor?5closure?8?$AA@ 10097920     LIBCMTD:undname.obj
 0002:0001793c       ??_C@_0BA@KBCDOMBN@?$GAudt?5returning?8?$AA@ 1009793c     LIBCMTD:undname.obj
 0002:0001794c       ??_C@_03KLGMFNMG@?$GAEH?$AA@ 1009794c     LIBCMTD:undname.obj
 0002:00017950       ??_C@_05KHLCHHI@?$GARTTI?$AA@ 10097950     LIBCMTD:undname.obj
 0002:00017958       ??_C@_0BA@KKLDJDLB@?$GAlocal?5vftable?8?$AA@ 10097958     LIBCMTD:undname.obj
 0002:00017968       ??_C@_0CE@IIHCMGGL@?$GAlocal?5vftable?5constructor?5closu@ 10097968     LIBCMTD:undname.obj
 0002:0001798c       ??_C@_06FHBGPFGH@?5new?$FL?$FN?$AA@ 1009798c     LIBCMTD:undname.obj
 0002:00017994       ??_C@_09LBNFPBCA@?5delete?$FL?$FN?$AA@ 10097994     LIBCMTD:undname.obj
 0002:000179a0       ??_C@_0P@HJKNJFNN@?$GAomni?5callsig?8?$AA@ 100979a0     LIBCMTD:undname.obj
 0002:000179b0       ??_C@_0BL@CNOONJFP@?$GAplacement?5delete?5closure?8?$AA@ 100979b0     LIBCMTD:undname.obj
 0002:000179cc       ??_C@_0BN@CKNJLHMB@?$GAplacement?5delete?$FL?$FN?5closure?8?$AA@ 100979cc     LIBCMTD:undname.obj
 0002:000179ec       ??_C@_0CG@CFDHKGGD@?$GAmanaged?5vector?5constructor?5iter@ 100979ec     LIBCMTD:undname.obj
 0002:00017a14       ??_C@_0CF@IMGKMJNO@?$GAmanaged?5vector?5destructor?5itera@ 10097a14     LIBCMTD:undname.obj
 0002:00017a3c       ??_C@_0CG@HLDDJMAG@?$GAeh?5vector?5copy?5constructor?5iter@ 10097a3c     LIBCMTD:undname.obj
 0002:00017a64       ??_C@_0CM@FCBBDIGB@?$GAeh?5vector?5vbase?5copy?5constructo@ 10097a64     LIBCMTD:undname.obj
 0002:00017a90       ??_C@_0BL@CLIPGLGB@?$GAdynamic?5initializer?5for?5?8?$AA@ 10097a90     LIBCMTD:undname.obj
 0002:00017aac       ??_C@_0CB@PDBIFEP@?$GAdynamic?5atexit?5destructor?5for?5?8@ 10097aac     LIBCMTD:undname.obj
 0002:00017ad0       ??_C@_0CD@CGAJBKEJ@?$GAvector?5copy?5constructor?5iterato@ 10097ad0     LIBCMTD:undname.obj
 0002:00017af4       ??_C@_0CJ@GJELGAMM@?$GAvector?5vbase?5copy?5constructor?5i@ 10097af4     LIBCMTD:undname.obj
 0002:00017b20       ??_C@_0CL@FGIJHLCE@?$GAmanaged?5vector?5copy?5constructor@ 10097b20     LIBCMTD:undname.obj
 0002:00017b4c       ??_C@_0BM@PMGGMLDN@?$GAlocal?5static?5thread?5guard?8?$AA@ 10097b4c     LIBCMTD:undname.obj
 0002:00017b68       ??_C@_0BC@DAFEJGAK@?5Type?5Descriptor?8?$AA@ 10097b68     LIBCMTD:undname.obj
 0002:00017b7c       ??_C@_0BM@LDKODKLH@?5Base?5Class?5Descriptor?5at?5?$CI?$AA@ 10097b7c     LIBCMTD:undname.obj
 0002:00017b98       ??_C@_0BD@LGICGFMM@?5Base?5Class?5Array?8?$AA@ 10097b98     LIBCMTD:undname.obj
 0002:00017bac       ??_C@_0BN@MECKDCOJ@?5Class?5Hierarchy?5Descriptor?8?$AA@ 10097bac     LIBCMTD:undname.obj
 0002:00017bcc       ??_C@_0BK@CFCOFLF@?5Complete?5Object?5Locator?8?$AA@ 10097bcc     LIBCMTD:undname.obj
 0002:00017be8       ??_C@_04HEJADOOB@CV?3?5?$AA@ 10097be8     LIBCMTD:undname.obj
 0002:00017bf0       ??_C@_02MOLJINC@?3?3?$AA@  10097bf0     LIBCMTD:undname.obj
 0002:00017bf4       ??_C@_0BE@JAEOCHPE@template?9parameter?9?$AA@ 10097bf4     LIBCMTD:undname.obj
 0002:00017c08       ??_C@_0O@KHGCOMHP@generic?9type?9?$AA@ 10097c08     LIBCMTD:undname.obj
 0002:00017c18       ??_C@_01NLNLIGKH@?$GA?$AA@ 10097c18     LIBCMTD:undname.obj
 0002:00017c1c       ??_C@_01GEODFPGF@?8?$AA@   10097c1c     LIBCMTD:undname.obj
 0002:00017c20       ??_C@_0BG@JNJLAMPM@?$GAanonymous?5namespace?8?$AA@ 10097c20     LIBCMTD:undname.obj
 0002:00017c38       ??_C@_02OHHJMEON@?8?8?$AA@ 10097c38     LIBCMTD:undname.obj
 0002:00017c3c       ??_C@_0BN@IBLMMFAP@?$GAnon?9type?9template?9parameter?$AA@ 10097c3c     LIBCMTD:undname.obj
 0002:00017c5c       ??_C@_04GKJNKENE@void?$AA@ 10097c5c     LIBCMTD:undname.obj
 0002:00017c64       ??_C@_0BE@EODMJLIF@?$GAtemplate?9parameter?$AA@ 10097c64     LIBCMTD:undname.obj
 0002:00017c78       ??_C@_04HIBGFPH@NULL?$AA@  10097c78     LIBCMTD:undname.obj
 0002:00017c80       ??_C@_03OPGICMGF@?$HN?8?5?$AA@ 10097c80     LIBCMTD:undname.obj
 0002:00017c84       ??_C@_02IGFCGPIL@?$HN?8?$AA@ 10097c84     LIBCMTD:undname.obj
 0002:00017c88       ??_C@_01CLKCMJKC@?5?$AA@   10097c88     LIBCMTD:undname.obj
 0002:00017c8c       ??_C@_0N@CBHHHENL@?$GAvtordispex?$HL?$AA@ 10097c8c     LIBCMTD:undname.obj
 0002:00017c9c       ??_C@_0L@GHPFDFH@?$GAvtordisp?$HL?$AA@ 10097c9c     LIBCMTD:undname.obj
 0002:00017ca8       ??_C@_0L@HNGCOGAE@?$GAadjustor?$HL?$AA@ 10097ca8     LIBCMTD:undname.obj
 0002:00017cb4       ??_C@_0CB@KJDOOODE@?$GAlocal?5static?5destructor?5helper?8@ 10097cb4     LIBCMTD:undname.obj
 0002:00017cd8       ??_C@_0DB@ILEFOCIJ@?$GAtemplate?5static?5data?5member?5con@ 10097cd8     LIBCMTD:undname.obj
 0002:00017d0c       ??_C@_0DA@HGFJFBBE@?$GAtemplate?5static?5data?5member?5des@ 10097d0c     LIBCMTD:undname.obj
 0002:00017d3c       ??_C@_07PGOEDBHP@static?5?$AA@ 10097d3c     LIBCMTD:undname.obj
 0002:00017d44       ??_C@_08NIEOINHE@virtual?5?$AA@ 10097d44     LIBCMTD:undname.obj
 0002:00017d50       ??_C@_09LAPHOOG@private?3?5?$AA@ 10097d50     LIBCMTD:undname.obj
 0002:00017d5c       ??_C@_0M@GAIFPFIP@protected?3?5?$AA@ 10097d5c     LIBCMTD:undname.obj
 0002:00017d68       ??_C@_08GPDDCMKI@public?3?5?$AA@ 10097d68     LIBCMTD:undname.obj
 0002:00017d74       ??_C@_08KJLFOPNE@?$FLthunk?$FN?3?$AA@ 10097d74     LIBCMTD:undname.obj
 0002:00017d80       ??_C@_0M@DHNBOJMP@extern?5?$CCC?$CC?5?$AA@ 10097d80     LIBCMTD:undname.obj
 0002:00017d8c       ??_C@_02KCKGHPCA@?$CJ?5?$AA@ 10097d8c     LIBCMTD:undname.obj
 0002:00017d90       ??_C@_05CIHEBHNO@char?5?$AA@ 10097d90     LIBCMTD:undname.obj
 0002:00017d98       ??_C@_06EHJMALKF@short?5?$AA@ 10097d98     LIBCMTD:undname.obj
 0002:00017da0       ??_C@_04LAHKHJMA@int?5?$AA@ 10097da0     LIBCMTD:undname.obj
 0002:00017da8       ??_C@_05CJIMAING@long?5?$AA@ 10097da8     LIBCMTD:undname.obj
 0002:00017db0       ??_C@_09EBBEKKIH@unsigned?5?$AA@ 10097db0     LIBCMTD:undname.obj
 0002:00017dbc       ??_C@_05BEFAKPML@void?5?$AA@ 10097dbc     LIBCMTD:undname.obj
 0002:00017dc4       ??_C@_08PABEKFH@volatile?$AA@ 10097dc4     LIBCMTD:undname.obj
 0002:00017dd0       ??_C@_0P@GCOCNKDM@std?3?3nullptr_t?$AA@ 10097dd0     LIBCMTD:undname.obj
 0002:00017de0       ??_C@_0L@EGPHHEKN@?$DMellipsis?$DO?$AA@ 10097de0     LIBCMTD:undname.obj
 0002:00017dec       ??_C@_04EENFHACM@?0?4?4?4?$AA@ 10097dec     LIBCMTD:undname.obj
 0002:00017df4       ??_C@_0M@ELJOJFFH@?0?$DMellipsis?$DO?$AA@ 10097df4     LIBCMTD:undname.obj
 0002:00017e00       ??_C@_07HDJPLPEK@?5throw?$CI?$AA@ 10097e00     LIBCMTD:undname.obj
 0002:00017e08       ??_C@_03PBJBJNON@cpu?$AA@  10097e08     LIBCMTD:undname.obj
 0002:00017e0c       ??_C@_03DCBBJBAA@amp?$AA@  10097e0c     LIBCMTD:undname.obj
 0002:00017e10       ??_C@_02KEGNLNML@?0?5?$AA@ 10097e10     LIBCMTD:undname.obj
 0002:00017e14       ??_C@_04ENMBGAPA@char?$AA@ 10097e14     LIBCMTD:undname.obj
 0002:00017e1c       ??_C@_05BFKKPKCG@short?$AA@ 10097e1c     LIBCMTD:undname.obj
 0002:00017e24       ??_C@_03JBIPMCLC@int?$AA@  10097e24     LIBCMTD:undname.obj
 0002:00017e28       ??_C@_04GOKPGOLB@long?$AA@ 10097e28     LIBCMTD:undname.obj
 0002:00017e30       ??_C@_05KNFBNCOH@float?$AA@ 10097e30     LIBCMTD:undname.obj
 0002:00017e38       ??_C@_06BNJCAIGJ@double?$AA@ 10097e38     LIBCMTD:undname.obj
 0002:00017e40       ??_C@_04DDKJGDCM@bool?$AA@ 10097e40     LIBCMTD:undname.obj
 0002:00017e48       ??_C@_06EBGKOKIG@__int8?$AA@ 10097e48     LIBCMTD:undname.obj
 0002:00017e50       ??_C@_07ICFHOGAF@__int16?$AA@ 10097e50     LIBCMTD:undname.obj
 0002:00017e58       ??_C@_07OFLPPHGP@__int32?$AA@ 10097e58     LIBCMTD:undname.obj
 0002:00017e60       ??_C@_07LFCOJCAC@__int64?$AA@ 10097e60     LIBCMTD:undname.obj
 0002:00017e68       ??_C@_08GAHOLHEO@__int128?$AA@ 10097e68     LIBCMTD:undname.obj
 0002:00017e74       ??_C@_09EEKGDCPH@?$DMunknown?$DO?$AA@ 10097e74     LIBCMTD:undname.obj
 0002:00017e80       ??_C@_07CLGGIAMF@wchar_t?$AA@ 10097e80     LIBCMTD:undname.obj
 0002:00017e88       ??_C@_06GCICPBLB@__w64?5?$AA@ 10097e88     LIBCMTD:undname.obj
 0002:00017e90       ??_C@_07NFANNNEC@UNKNOWN?$AA@ 10097e90     LIBCMTD:undname.obj
 0002:00017e98       ??_C@_07EDHNAJHC@signed?5?$AA@ 10097e98     LIBCMTD:undname.obj
 0002:00017ea0       ??_C@_05BNCCCJPP@const?$AA@ 10097ea0     LIBCMTD:undname.obj
 0002:00017ea8       ??_C@_09EFNPDFFP@?5volatile?$AA@ 10097ea8     LIBCMTD:undname.obj
 0002:00017eb4       ??_C@_0P@GCIFDJCJ@?$GAunknown?5ecsu?8?$AA@ 10097eb4     LIBCMTD:undname.obj
 0002:00017ec4       ??_C@_06MOJHIBMG@union?5?$AA@ 10097ec4     LIBCMTD:undname.obj
 0002:00017ecc       ??_C@_07DIBCDNGL@struct?5?$AA@ 10097ecc     LIBCMTD:undname.obj
 0002:00017ed4       ??_C@_06LJBABKPM@class?5?$AA@ 10097ed4     LIBCMTD:undname.obj
 0002:00017edc       ??_C@_08KOFANOFK@coclass?5?$AA@ 10097edc     LIBCMTD:undname.obj
 0002:00017ee8       ??_C@_0N@DLIEFKNA@cointerface?5?$AA@ 10097ee8     LIBCMTD:undname.obj
 0002:00017ef8       ??_C@_05LJGMCFOG@enum?5?$AA@ 10097ef8     LIBCMTD:undname.obj
 0002:00017f00       ??_C@_09GAIEOBLP@volatile?5?$AA@ 10097f00     LIBCMTD:undname.obj
 0002:00017f0c       ??_C@_06LIJLOJAG@const?5?$AA@ 10097f0c     LIBCMTD:undname.obj
 0002:00017f14       ??_C@_0M@EALIELKG@cli?3?3array?$DM?$AA@ 10097f14     LIBCMTD:undname.obj
 0002:00017f20       ??_C@_0O@GKABPPIF@cli?3?3pin_ptr?$DM?$AA@ 10097f20     LIBCMTD:undname.obj
 0002:00017f30       ??_C@_02GOGNNPBN@?$CJ?$FL?$AA@ 10097f30     LIBCMTD:undname.obj
 0002:00017f34       ??_C@_06EEGAIFAK@?$HLflat?$HN?$AA@ 10097f34     LIBCMTD:undname.obj
 0002:00017f3c       ??_C@_05JIBOFOHK@?$HLfor?5?$AA@ 10097f3c     LIBCMTD:undname.obj
 0002:00017f44       ??_C@_02MDINNEEG@s?5?$AA@  10097f44     LIBCMTD:undname.obj
 0002:00017f4c       ??_7DNameNode@@6B@         10097f4c     LIBCMTD:undname.obj
 0002:00017f5c       ??_7charNode@@6B@          10097f5c     LIBCMTD:undname.obj
 0002:00017f6c       ??_7pcharNode@@6B@         10097f6c     LIBCMTD:undname.obj
 0002:00017f7c       ??_7pDNameNode@@6B@        10097f7c     LIBCMTD:undname.obj
 0002:00017f8c       ??_7DNameStatusNode@@6B@   10097f8c     LIBCMTD:undname.obj
 0002:00017f9c       ??_7pairNode@@6B@          10097f9c     LIBCMTD:undname.obj
 0002:00017fa8       ??_C@_04OKOHEJBO@?5?$DP?$DP?5?$AA@ 10097fa8     LIBCMTD:undname.obj
 0002:00017fb0       ??_C@_1GE@BDKOPHIO@?$AAf?$AA?3?$AA?2?$AAd?$AAd?$AA?2?$AAv?$AAc?$AAt?$AAo?$AAo?$AAl?$AAs?$AA?2?$AAc?$AAr?$AAt?$AA_?$AAb?$AAl?$AAd?$AA?2?$AAs?$AAe?$AAl?$AAf?$AA_?$AAx?$AA8?$AA6?$AA?2?$AAc@ 10097fb0     LIBCMTD:_fptostr.obj
 0002:00018014       ??_C@_1BC@OPALLEB@?$AA_?$AAf?$AAp?$AAt?$AAo?$AAs?$AAt?$AAr?$AA?$AA@ 10098014     LIBCMTD:_fptostr.obj
 0002:00018028       ??_C@_1GM@CEDLGDDI@?$AAs?$AAi?$AAz?$AAe?$AAI?$AAn?$AAB?$AAy?$AAt?$AAe?$AAs?$AA?5?$AA?$DO?$AA?5?$AA?$CI?$AAs?$AAi?$AAz?$AAe?$AA_?$AAt?$AA?$CJ?$AA?$CI?$AA?$CI?$AAd?$AAi?$AAg?$AAi?$AAt?$AAs?$AA?5?$AA?$DO@ 10098028     LIBCMTD:_fptostr.obj
 0002:00018094       ??_C@_1BK@CLIEHFDF@?$AAp?$AAf?$AAl?$AAt?$AA?5?$AA?$CB?$AA?$DN?$AA?5?$AAN?$AAU?$AAL?$AAL?$AA?$AA@ 10098094     LIBCMTD:_fptostr.obj
 0002:000180b0       ??_C@_1HC@PKFDNKN@?$AAf?$AA?3?$AA?2?$AAd?$AAd?$AA?2?$AAv?$AAc?$AAt?$AAo?$AAo?$AAl?$AAs?$AA?2?$AAc?$AAr?$AAt?$AA_?$AAb?$AAl?$AAd?$AA?2?$AAs?$AAe?$AAl?$AAf?$AA_?$AAx?$AA8?$AA6?$AA?2?$AAc@ 100980b0     LIBCMTD:cfout.obj
 0002:00018124       ??_C@_1BC@BPMMEHLK@?$AA_?$AAf?$AAl?$AAt?$AAo?$AAu?$AAt?$AA2?$AA?$AA@ 10098124     LIBCMTD:cfout.obj
 0002:00018138       ??_C@_1FK@KODCOBKF@?$AAs?$AAt?$AAr?$AAc?$AAp?$AAy?$AA_?$AAs?$AA?$CI?$AAr?$AAe?$AAs?$AAu?$AAl?$AAt?$AAs?$AAt?$AAr?$AA?0?$AA?5?$AAr?$AAe?$AAs?$AAu?$AAl?$AAt?$AAs?$AAi?$AAz?$AAe?$AA?0?$AA?5@ 10098138     LIBCMTD:cfout.obj
 0002:00018198       ??_C@_1EM@EGEEBJLG@?$AA?$CI?$AAo?$AAp?$AAt?$AAi?$AAo?$AAn?$AAs?$AA?5?$AA?$CG?$AA?5?$AA?$HO?$AA_?$AAT?$AAW?$AAO?$AA_?$AAD?$AAI?$AAG?$AAI?$AAT?$AA_?$AAE?$AAX?$AAP?$AAO?$AAN?$AAE?$AAN?$AAT?$AA?$CJ@ 10098198     LIBCMTD:outputformat.obj
 0002:000181e8       ??_C@_1GM@NFGGJJCM@?$AAf?$AA?3?$AA?2?$AAd?$AAd?$AA?2?$AAv?$AAc?$AAt?$AAo?$AAo?$AAl?$AAs?$AA?2?$AAc?$AAr?$AAt?$AA_?$AAb?$AAl?$AAd?$AA?2?$AAs?$AAe?$AAl?$AAf?$AA_?$AAx?$AA8?$AA6?$AA?2?$AAc@ 100981e8     LIBCMTD:outputformat.obj
 0002:00018254       ??_C@_1CG@EBJECAJM@?$AA_?$AAs?$AAe?$AAt?$AA_?$AAo?$AAu?$AAt?$AAp?$AAu?$AAt?$AA_?$AAf?$AAo?$AAr?$AAm?$AAa?$AAt?$AA?$AA@ 10098254     LIBCMTD:outputformat.obj
 0002:0001827c       ??_C@_1DG@JNDMIEJL@?$AA?$CI?$AA?$CC?$AAI?$AAn?$AAv?$AAa?$AAl?$AAi?$AAd?$AA?5?$AAi?$AAn?$AAp?$AAu?$AAt?$AA?5?$AAv?$AAa?$AAl?$AAu?$AAe?$AA?$CC?$AA?0?$AA?5?$AA0?$AA?$CJ?$AA?$AA@ 1009827c     LIBCMTD:contrlfp.obj
 0002:000182b8       ??_C@_1HI@JIOCECAH@?$AAf?$AA?3?$AA?2?$AAd?$AAd?$AA?2?$AAv?$AAc?$AAt?$AAo?$AAo?$AAl?$AAs?$AA?2?$AAc?$AAr?$AAt?$AA_?$AAb?$AAl?$AAd?$AA?2?$AAs?$AAe?$AAl?$AAf?$AA_?$AAx?$AA8?$AA6?$AA?2?$AAc@ 100982b8     LIBCMTD:contrlfp.obj
 0002:00018330       ??_C@_1BK@CDOALEA@?$AA_?$AAc?$AAo?$AAn?$AAt?$AAr?$AAo?$AAl?$AAf?$AAp?$AA_?$AAs?$AA?$AA@ 10098330     LIBCMTD:contrlfp.obj
 0002:00018350       ??_C@_1GE@KINELFI@?$AAf?$AA?3?$AA?2?$AAd?$AAd?$AA?2?$AAv?$AAc?$AAt?$AAo?$AAo?$AAl?$AAs?$AA?2?$AAc?$AAr?$AAt?$AA_?$AAb?$AAl?$AAd?$AA?2?$AAs?$AAe?$AAl?$AAf?$AA_?$AAx?$AA8?$AA6?$AA?2?$AAc@ 10098350     LIBCMTD:vswprint.obj
 0002:000183b4       ??_C@_1BK@EPLNBKAK@?$AA_?$AAv?$AAs?$AAw?$AAp?$AAr?$AAi?$AAn?$AAt?$AAf?$AA_?$AAl?$AA?$AA@ 100983b4     LIBCMTD:vswprint.obj
 0002:000183d0       ??_C@_1CG@IMMIEPNA@?$AA_?$AAv?$AAs?$AAc?$AAw?$AAp?$AAr?$AAi?$AAn?$AAt?$AAf?$AA_?$AAh?$AAe?$AAl?$AAp?$AAe?$AAr?$AA?$AA@ 100983d0     LIBCMTD:vswprint.obj
 0002:000183f8       ??_C@_1CE@IGKFIJFD@?$AA_?$AAv?$AAs?$AAw?$AAp?$AAr?$AAi?$AAn?$AAt?$AAf?$AA_?$AAh?$AAe?$AAl?$AAp?$AAe?$AAr?$AA?$AA@ 100983f8     LIBCMTD:vswprnc.obj
 0002:0001841c       ??_C@_1BO@MLMCMBKN@?$AAf?$AAo?$AAr?$AAm?$AAa?$AAt?$AA?5?$AA?$CB?$AA?$DN?$AA?5?$AAN?$AAU?$AAL?$AAL?$AA?$AA@ 1009841c     LIBCMTD:vswprnc.obj
 0002:0001843c       ??_C@_1BO@OALHJLCI@?$AA_?$AAv?$AAs?$AAw?$AAp?$AAr?$AAi?$AAn?$AAt?$AAf?$AA_?$AAs?$AA_?$AAl?$AA?$AA@ 1009843c     LIBCMTD:vswprnc.obj
 0002:00018460       ??_C@_1EE@MPCHJFGP@?$AAs?$AAt?$AAr?$AAi?$AAn?$AAg?$AA?5?$AA?$CB?$AA?$DN?$AA?5?$AAN?$AAU?$AAL?$AAL?$AA?5?$AA?$CG?$AA?$CG?$AA?5?$AAs?$AAi?$AAz?$AAe?$AAI?$AAn?$AAW?$AAo?$AAr?$AAd?$AAs?$AA?5?$AA?$DO?$AA?5@ 10098460     LIBCMTD:vswprnc.obj
 0002:000184a4       ??_C@_1CA@BKFKMJFF@?$AA_?$AAv?$AAs?$AAn?$AAw?$AAp?$AAr?$AAi?$AAn?$AAt?$AAf?$AA_?$AAs?$AA_?$AAl?$AA?$AA@ 100984a4     LIBCMTD:vswprnc.obj
 0002:000184c4       ??_C@_1BG@BBCDFOMA@?$AA_?$AAw?$AAo?$AAu?$AAt?$AAp?$AAu?$AAt?$AA_?$AAl?$AA?$AA@ 100984c4     LIBCMTD:woutput.obj
 0002:000184dc       ??_C@_1BC@HGPNAKGC@?$AAs?$AAt?$AAr?$AAc?$AAa?$AAt?$AA_?$AAs?$AA?$AA@ 100984dc     LIBCMTD:strcat_s.obj
 0002:000184f0       ??_C@_1FM@MFCBFCGB@?$AAf?$AA?3?$AA?2?$AAd?$AAd?$AA?2?$AAv?$AAc?$AAt?$AAo?$AAo?$AAl?$AAs?$AA?2?$AAc?$AAr?$AAt?$AA_?$AAb?$AAl?$AAd?$AA?2?$AAs?$AAe?$AAl?$AAf?$AA_?$AAx?$AA8?$AA6?$AA?2?$AAc@ 100984f0     LIBCMTD:xtoas.obj
 0002:0001854c       ??_C@_1O@GIMBNLEI@?$AAx?$AAt?$AAo?$AAa?$AA_?$AAs?$AA?$AA@ 1009854c     LIBCMTD:xtoas.obj
 0002:0001855c       ??_C@_1CC@JNJFIMGE@?$AAs?$AAi?$AAz?$AAe?$AAI?$AAn?$AAT?$AAC?$AAh?$AAa?$AAr?$AAs?$AA?5?$AA?$DO?$AA?5?$AA0?$AA?$AA@ 1009855c     LIBCMTD:xtoas.obj
 0002:00018580       ??_C@_1FA@MKGGAGEI@?$AAs?$AAi?$AAz?$AAe?$AAI?$AAn?$AAT?$AAC?$AAh?$AAa?$AAr?$AAs?$AA?5?$AA?$DO?$AA?5?$AA?$CI?$AAs?$AAi?$AAz?$AAe?$AA_?$AAt?$AA?$CJ?$AA?$CI?$AAi?$AAs?$AA_?$AAn?$AAe?$AAg?$AA?5?$AA?$DP@ 10098580     LIBCMTD:xtoas.obj
 0002:000185d0       ??_C@_1DE@PCJGDBBD@?$AA2?$AA?5?$AA?$DM?$AA?$DN?$AA?5?$AAr?$AAa?$AAd?$AAi?$AAx?$AA?5?$AA?$CG?$AA?$CG?$AA?5?$AAr?$AAa?$AAd?$AAi?$AAx?$AA?5?$AA?$DM?$AA?$DN?$AA?5?$AA3?$AA6?$AA?$AA@ 100985d0     LIBCMTD:xtoas.obj
 0002:00018604       ??_C@_1CM@HABGDNLJ@?$AAl?$AAe?$AAn?$AAg?$AAt?$AAh?$AA?5?$AA?$DM?$AA?5?$AAs?$AAi?$AAz?$AAe?$AAI?$AAn?$AAT?$AAC?$AAh?$AAa?$AAr?$AAs?$AA?$AA@ 10098604     LIBCMTD:xtoas.obj
 0002:00018630       ??_C@_1BC@MJJNBNFN@?$AAx?$AA6?$AA4?$AAt?$AAo?$AAa?$AA_?$AAs?$AA?$AA@ 10098630     LIBCMTD:xtoas.obj
 0002:00018644       ??_C@_1BE@EEKACIGI@?$AAs?$AA?5?$AA?$CB?$AA?$DN?$AA?5?$AAN?$AAU?$AAL?$AAL?$AA?$AA@ 10098644     LIBCMTD:mbstowcs.obj
 0002:00018658       ??_C@_1GE@LCCDHBMH@?$AAf?$AA?3?$AA?2?$AAd?$AAd?$AA?2?$AAv?$AAc?$AAt?$AAo?$AAo?$AAl?$AAs?$AA?2?$AAc?$AAr?$AAt?$AA_?$AAb?$AAl?$AAd?$AA?2?$AAs?$AAe?$AAl?$AAf?$AA_?$AAx?$AA8?$AA6?$AA?2?$AAc@ 10098658     LIBCMTD:mbstowcs.obj
 0002:000186bc       ??_C@_1CG@JEHFHLNG@?$AA_?$AAm?$AAb?$AAs?$AAt?$AAo?$AAw?$AAc?$AAs?$AA_?$AAl?$AA_?$AAh?$AAe?$AAl?$AAp?$AAe?$AAr?$AA?$AA@ 100986bc     LIBCMTD:mbstowcs.obj
 0002:000186e8       ??_C@_1JA@JKDFMOPO@?$AA?$CI?$AAp?$AAw?$AAc?$AAs?$AA?5?$AA?$DN?$AA?$DN?$AA?5?$AAN?$AAU?$AAL?$AAL?$AA?5?$AA?$CG?$AA?$CG?$AA?5?$AAs?$AAi?$AAz?$AAe?$AAI?$AAn?$AAW?$AAo?$AAr?$AAd?$AAs?$AA?5?$AA?$DN?$AA?$DN?$AA?5@ 100986e8     LIBCMTD:mbstowcs.obj
 0002:00018778       ??_C@_1BM@PHENIGHD@?$AA_?$AAm?$AAb?$AAs?$AAt?$AAo?$AAw?$AAc?$AAs?$AA_?$AAs?$AA_?$AAl?$AA?$AA@ 10098778     LIBCMTD:mbstowcs.obj
 0002:00018794       ??_C@_1CM@LLECFMFH@?$AAb?$AAu?$AAf?$AAf?$AAe?$AAr?$AAS?$AAi?$AAz?$AAe?$AA?5?$AA?$DM?$AA?$DN?$AA?5?$AAI?$AAN?$AAT?$AA_?$AAM?$AAA?$AAX?$AA?$AA@ 10098794     LIBCMTD:mbstowcs.obj
 0002:000187c0       ??_C@_1CO@JNPEPJAL@?$AAr?$AAe?$AAt?$AAs?$AAi?$AAz?$AAe?$AA?5?$AA?$DM?$AA?$DN?$AA?5?$AAs?$AAi?$AAz?$AAe?$AAI?$AAn?$AAW?$AAo?$AAr?$AAd?$AAs?$AA?$AA@ 100987c0     LIBCMTD:mbstowcs.obj
 0002:000187f0       ??_C@_1BK@OIBENBPM@?$AAp?$AAw?$AAc?$AAs?$AA?5?$AA?$CB?$AA?$DN?$AA?5?$AAN?$AAU?$AAL?$AAL?$AA?$AA@ 100987f0     LIBCMTD:wcstombs.obj
 0002:00018810       ??_C@_1GE@OAENIBOD@?$AAf?$AA?3?$AA?2?$AAd?$AAd?$AA?2?$AAv?$AAc?$AAt?$AAo?$AAo?$AAl?$AAs?$AA?2?$AAc?$AAr?$AAt?$AA_?$AAb?$AAl?$AAd?$AA?2?$AAs?$AAe?$AAl?$AAf?$AA_?$AAx?$AA8?$AA6?$AA?2?$AAc@ 10098810     LIBCMTD:wcstombs.obj
 0002:00018874       ??_C@_1CG@LLJCAOHF@?$AA_?$AAw?$AAc?$AAs?$AAt?$AAo?$AAm?$AAb?$AAs?$AA_?$AAl?$AA_?$AAh?$AAe?$AAl?$AAp?$AAe?$AAr?$AA?$AA@ 10098874     LIBCMTD:wcstombs.obj
 0002:000188a0       ??_C@_1IM@MFGKHGBP@?$AA?$CI?$AAd?$AAs?$AAt?$AA?5?$AA?$CB?$AA?$DN?$AA?5?$AAN?$AAU?$AAL?$AAL?$AA?5?$AA?$CG?$AA?$CG?$AA?5?$AAs?$AAi?$AAz?$AAe?$AAI?$AAn?$AAB?$AAy?$AAt?$AAe?$AAs?$AA?5?$AA?$DO?$AA?5?$AA0?$AA?$CJ@ 100988a0     LIBCMTD:wcstombs.obj
 0002:0001892c       ??_C@_1BM@BDMCLLDL@?$AA_?$AAw?$AAc?$AAs?$AAt?$AAo?$AAm?$AAb?$AAs?$AA_?$AAs?$AA_?$AAl?$AA?$AA@ 1009892c     LIBCMTD:wcstombs.obj
 0002:00018948       ??_C@_1CM@KEOGBFLI@?$AAs?$AAi?$AAz?$AAe?$AAI?$AAn?$AAB?$AAy?$AAt?$AAe?$AAs?$AA?5?$AA?$DO?$AA?5?$AAr?$AAe?$AAt?$AAs?$AAi?$AAz?$AAe?$AA?$AA@ 10098948     LIBCMTD:wcstombs.obj
 0002:00018974       ??_C@_1O@NCBFODOE@?$AAx?$AAt?$AAo?$AAw?$AA_?$AAs?$AA?$AA@ 10098974     LIBCMTD:xtows.obj
 0002:00018984       ??_C@_1BC@HDEJCFPB@?$AAx?$AA6?$AA4?$AAt?$AAo?$AAw?$AA_?$AAs?$AA?$AA@ 10098984     LIBCMTD:xtows.obj
 0002:00018998       ??_C@_1CE@PCFPEIFI@?$AA_?$AAv?$AAs?$AAn?$AAp?$AAr?$AAi?$AAn?$AAt?$AAf?$AA_?$AAh?$AAe?$AAl?$AAp?$AAe?$AAr?$AA?$AA@ 10098998     LIBCMTD:vsnprnc.obj
 0002:000189bc       ??_C@_1BM@BLJALHEF@?$AA_?$AAv?$AAs?$AAp?$AAr?$AAi?$AAn?$AAt?$AAf?$AA_?$AAs?$AA_?$AAl?$AA?$AA@ 100989bc     LIBCMTD:vsnprnc.obj
 0002:000189d8       ??_C@_1EE@OKCKIGFK@?$AAs?$AAt?$AAr?$AAi?$AAn?$AAg?$AA?5?$AA?$CB?$AA?$DN?$AA?5?$AAN?$AAU?$AAL?$AAL?$AA?5?$AA?$CG?$AA?$CG?$AA?5?$AAs?$AAi?$AAz?$AAe?$AAI?$AAn?$AAB?$AAy?$AAt?$AAe?$AAs?$AA?5?$AA?$DO?$AA?5@ 100989d8     LIBCMTD:vsnprnc.obj
 0002:00018a1c       ??_C@_1BO@MMPELNIM@?$AA_?$AAv?$AAs?$AAn?$AAp?$AAr?$AAi?$AAn?$AAt?$AAf?$AA_?$AAs?$AA_?$AAl?$AA?$AA@ 10098a1c     LIBCMTD:vsnprnc.obj
 0002:00018a40       ??_C@_1GE@MINKPNPH@?$AAf?$AA?3?$AA?2?$AAd?$AAd?$AA?2?$AAv?$AAc?$AAt?$AAo?$AAo?$AAl?$AAs?$AA?2?$AAc?$AAr?$AAt?$AA_?$AAb?$AAl?$AAd?$AA?2?$AAs?$AAe?$AAl?$AAf?$AA_?$AAx?$AA8?$AA6?$AA?2?$AAc@ 10098a40     LIBCMTD:lseeki64.obj
 0002:00018aa4       ??_C@_1BE@KHFBJMNM@?$AA_?$AAl?$AAs?$AAe?$AAe?$AAk?$AAi?$AA6?$AA4?$AA?$AA@ 10098aa4     LIBCMTD:lseeki64.obj
 0002:00018ab8       ??_C@_1GC@DKMGNNCC@?$AAf?$AA?3?$AA?2?$AAd?$AAd?$AA?2?$AAv?$AAc?$AAt?$AAo?$AAo?$AAl?$AAs?$AA?2?$AAc?$AAr?$AAt?$AA_?$AAb?$AAl?$AAd?$AA?2?$AAs?$AAe?$AAl?$AAf?$AA_?$AAx?$AA8?$AA6?$AA?2?$AAc@ 10098ab8     LIBCMTD:_getbuf.obj
 0002:00018b1c       ??_C@_0DB@JEHOCBEJ@f?3?2dd?2vctools?2crt_bld?2self_x86?2c@ 10098b1c     LIBCMTD:_getbuf.obj
 0002:00018b50       __atan_table               10098b50     LIBCMTD:atan_table.obj
 0002:0001a360       ??_C@_1BK@LAOAACLJ@?$AAn?$AAp?$AAt?$AAr?$AA?5?$AA?$CB?$AA?$DN?$AA?5?$AAN?$AAU?$AAL?$AAL?$AA?$AA@ 1009a360     LIBCMTD:strtol.obj
 0002:0001a380       ??_C@_1GA@IPHKKOEI@?$AAf?$AA?3?$AA?2?$AAd?$AAd?$AA?2?$AAv?$AAc?$AAt?$AAo?$AAo?$AAl?$AAs?$AA?2?$AAc?$AAr?$AAt?$AA_?$AAb?$AAl?$AAd?$AA?2?$AAs?$AAe?$AAl?$AAf?$AA_?$AAx?$AA8?$AA6?$AA?2?$AAc@ 1009a380     LIBCMTD:strtol.obj
 0002:0001a3e0       ??_C@_1BA@LOLAMAJG@?$AAs?$AAt?$AAr?$AAt?$AAo?$AAx?$AAl?$AA?$AA@ 1009a3e0     LIBCMTD:strtol.obj
 0002:0001a3f0       ??_C@_1FE@CEHLKAHD@?$AAi?$AAb?$AAa?$AAs?$AAe?$AA?5?$AA?$DN?$AA?$DN?$AA?5?$AA0?$AA?5?$AA?$HM?$AA?$HM?$AA?5?$AA?$CI?$AA2?$AA?5?$AA?$DM?$AA?$DN?$AA?5?$AAi?$AAb?$AAa?$AAs?$AAe?$AA?5?$AA?$CG?$AA?$CG?$AA?5?$AAi?$AAb?$AAa@ 1009a3f0     LIBCMTD:strtol.obj
 0002:0001a444       ??_C@_0DB@BECNGFDL@f?3?2dd?2vctools?2crt_bld?2self_x86?2c@ 1009a444     LIBCMTD:initmon.obj
 0002:0001a478       ??_C@_1DM@GKAPAMDO@?$AAp?$AAl?$AAo?$AAc?$AAi?$AA?9?$AA?$DO?$AAl?$AAc?$AAo?$AAn?$AAv?$AA_?$AAm?$AAo?$AAn?$AA_?$AAr?$AAe?$AAf?$AAc?$AAo?$AAu?$AAn?$AAt?$AA?5?$AA?$DO?$AA?5?$AA0?$AA?$AA@ 1009a478     LIBCMTD:initmon.obj
 0002:0001a4b8       ??_C@_1GC@IKADOFBJ@?$AAf?$AA?3?$AA?2?$AAd?$AAd?$AA?2?$AAv?$AAc?$AAt?$AAo?$AAo?$AAl?$AAs?$AA?2?$AAc?$AAr?$AAt?$AA_?$AAb?$AAl?$AAd?$AA?2?$AAs?$AAe?$AAl?$AAf?$AA_?$AAx?$AA8?$AA6?$AA?2?$AAc@ 1009a4b8     LIBCMTD:initmon.obj
 0002:0001a51c       ??_C@_0DB@KKFMDHFI@f?3?2dd?2vctools?2crt_bld?2self_x86?2c@ 1009a51c     LIBCMTD:initnum.obj
 0002:0001a550       ??_C@_1DM@IFKAINNE@?$AAp?$AAl?$AAo?$AAc?$AAi?$AA?9?$AA?$DO?$AAl?$AAc?$AAo?$AAn?$AAv?$AA_?$AAn?$AAu?$AAm?$AA_?$AAr?$AAe?$AAf?$AAc?$AAo?$AAu?$AAn?$AAt?$AA?5?$AA?$DO?$AA?5?$AA0?$AA?$AA@ 1009a550     LIBCMTD:initnum.obj
 0002:0001a590       ??_C@_1GC@EDJOCBCL@?$AAf?$AA?3?$AA?2?$AAd?$AAd?$AA?2?$AAv?$AAc?$AAt?$AAo?$AAo?$AAl?$AAs?$AA?2?$AAc?$AAr?$AAt?$AA_?$AAb?$AAl?$AAd?$AA?2?$AAs?$AAe?$AAl?$AAf?$AA_?$AAx?$AA8?$AA6?$AA?2?$AAc@ 1009a590     LIBCMTD:initnum.obj
 0002:0001a5f4       ??_C@_0DC@KICHHNFK@f?3?2dd?2vctools?2crt_bld?2self_x86?2c@ 1009a5f4     LIBCMTD:inittime.obj
 0002:0001a628       ??_C@_1EE@FDHCFDHN@?$AAp?$AAl?$AAo?$AAc?$AAi?$AA?9?$AA?$DO?$AAl?$AAc?$AA_?$AAt?$AAi?$AAm?$AAe?$AA_?$AAc?$AAu?$AAr?$AAr?$AA?9?$AA?$DO?$AAr?$AAe?$AAf?$AAc?$AAo?$AAu?$AAn?$AAt?$AA?5?$AA?$DO?$AA?5@ 1009a628     LIBCMTD:inittime.obj
 0002:0001a670       ??_C@_1GE@GJCMHHMH@?$AAf?$AA?3?$AA?2?$AAd?$AAd?$AA?2?$AAv?$AAc?$AAt?$AAo?$AAo?$AAl?$AAs?$AA?2?$AAc?$AAr?$AAt?$AA_?$AAb?$AAl?$AAd?$AA?2?$AAs?$AAe?$AAl?$AAf?$AA_?$AAx?$AA8?$AA6?$AA?2?$AAc@ 1009a670     LIBCMTD:inittime.obj
 0002:0001a6d8       ___lc_category             1009a6d8     LIBCMTD:wsetloca.obj
 0002:0001a720       ??_C@_1O@GIFLHMA@?$AAL?$AAC?$AA_?$AAA?$AAL?$AAL?$AA?$AA@ 1009a720     LIBCMTD:wsetloca.obj
 0002:0001a730       ??_C@_1BG@PPOMIBNJ@?$AAL?$AAC?$AA_?$AAC?$AAO?$AAL?$AAL?$AAA?$AAT?$AAE?$AA?$AA@ 1009a730     LIBCMTD:wsetloca.obj
 0002:0001a748       ??_C@_1BC@FFJGAPJM@?$AAL?$AAC?$AA_?$AAC?$AAT?$AAY?$AAP?$AAE?$AA?$AA@ 1009a748     LIBCMTD:wsetloca.obj
 0002:0001a75c       ??_C@_1BI@PCKFNJFB@?$AAL?$AAC?$AA_?$AAM?$AAO?$AAN?$AAE?$AAT?$AAA?$AAR?$AAY?$AA?$AA@ 1009a75c     LIBCMTD:wsetloca.obj
 0002:0001a774       ??_C@_1BG@ENIEDKID@?$AAL?$AAC?$AA_?$AAN?$AAU?$AAM?$AAE?$AAR?$AAI?$AAC?$AA?$AA@ 1009a774     LIBCMTD:wsetloca.obj
 0002:0001a78c       ??_C@_1BA@HAAOMIIG@?$AAL?$AAC?$AA_?$AAT?$AAI?$AAM?$AAE?$AA?$AA@ 1009a78c     LIBCMTD:wsetloca.obj
 0002:0001a820       ??_C@_1GA@LDEGDKD@?$AA?$CI?$AA?$CC?$AAI?$AAn?$AAv?$AAa?$AAl?$AAi?$AAd?$AA?5?$AAp?$AAa?$AAr?$AAa?$AAm?$AAe?$AAt?$AAe?$AAr?$AA?5?$AAf?$AAo?$AAr?$AA?5?$AA_?$AAc?$AAo?$AAn?$AAf?$AAi?$AAg?$AAt@ 1009a820     LIBCMTD:wsetloca.obj
 0002:0001a880       ??_C@_1GE@GBFCCMHH@?$AAf?$AA?3?$AA?2?$AAd?$AAd?$AA?2?$AAv?$AAc?$AAt?$AAo?$AAo?$AAl?$AAs?$AA?2?$AAc?$AAr?$AAt?$AA_?$AAb?$AAl?$AAd?$AA?2?$AAs?$AAe?$AAl?$AAf?$AA_?$AAx?$AA8?$AA6?$AA?2?$AAc@ 1009a880     LIBCMTD:wsetloca.obj
 0002:0001a8e4       ??_C@_1CI@FGIONOJM@?$AA_?$AAc?$AAo?$AAn?$AAf?$AAi?$AAg?$AAt?$AAh?$AAr?$AAe?$AAa?$AAd?$AAl?$AAo?$AAc?$AAa?$AAl?$AAe?$AA?$AA@ 1009a8e4     LIBCMTD:wsetloca.obj
 0002:0001a90c       ??_C@_0DC@NCPJHDFJ@f?3?2dd?2vctools?2crt_bld?2self_x86?2c@ 1009a90c     LIBCMTD:wsetloca.obj
 0002:0001a940       ??_C@_1FG@OHLFEKMC@?$AAL?$AAC?$AA_?$AAM?$AAI?$AAN?$AA?5?$AA?$DM?$AA?$DN?$AA?5?$AA_?$AAc?$AAa?$AAt?$AAe?$AAg?$AAo?$AAr?$AAy?$AA?5?$AA?$CG?$AA?$CG?$AA?5?$AA_?$AAc?$AAa?$AAt?$AAe?$AAg?$AAo?$AAr?$AAy@ 1009a940     LIBCMTD:wsetloca.obj
 0002:0001a998       ??_C@_1BI@KJNPAEHL@?$AA_?$AAw?$AAs?$AAe?$AAt?$AAl?$AAo?$AAc?$AAa?$AAl?$AAe?$AA?$AA@ 1009a998     LIBCMTD:wsetloca.obj
 0002:0001a9b0       ??_C@_15NBPDDFIP@?$AA?$DN?$AA?$DL?$AA?$AA@ 1009a9b0     LIBCMTD:wsetloca.obj
 0002:0001a9b8       ??_C@_13PJJBFPED@?$AA?$DL?$AA?$AA@ 1009a9b8     LIBCMTD:wsetloca.obj
 0002:0001a9bc       ??_C@_1CG@DKJCBBPP@?$AA_?$AAw?$AAs?$AAe?$AAt?$AAl?$AAo?$AAc?$AAa?$AAl?$AAe?$AA_?$AAn?$AAo?$AAl?$AAo?$AAc?$AAk?$AA?$AA@ 1009a9bc     LIBCMTD:wsetloca.obj
 0002:0001a9e8       ??_C@_1IA@DGCOPCLP@?$AAw?$AAc?$AAs?$AAn?$AAc?$AAp?$AAy?$AA_?$AAs?$AA?$CI?$AAl?$AAc?$AAt?$AAe?$AAm?$AAp?$AA?0?$AA?5?$AA?$CI?$AAs?$AAi?$AAz?$AAe?$AAo?$AAf?$AA?$CI?$AAl?$AAc?$AAt?$AAe?$AAm?$AAp@ 1009a9e8     LIBCMTD:wsetloca.obj
 0002:0001aa68       ??_C@_1CI@ODOPEMNJ@?$AA_?$AAw?$AAs?$AAe?$AAt?$AAl?$AAo?$AAc?$AAa?$AAl?$AAe?$AA_?$AAs?$AAe?$AAt?$AA_?$AAc?$AAa?$AAt?$AA?$AA@ 1009aa68     LIBCMTD:wsetloca.obj
 0002:0001aa90       ??_C@_1EM@MHOCNIAA@?$AAw?$AAc?$AAs?$AAc?$AAp?$AAy?$AA_?$AAs?$AA?$CI?$AAp?$AAc?$AAh?$AA_?$AAc?$AAa?$AAt?$AA_?$AAl?$AAo?$AAc?$AAa?$AAl?$AAe?$AA?0?$AA?5?$AAc?$AAc?$AAh?$AA?0?$AA?5?$AAl?$AAc@ 1009aa90     LIBCMTD:wsetloca.obj
 0002:0001aadc       ??_C@_13NMPKAAJP@?$AA?$DN?$AA?$AA@ 1009aadc     LIBCMTD:wsetloca.obj
 0002:0001aae0       ??_C@_1CI@LKOPFFBD@?$AA_?$AAw?$AAs?$AAe?$AAt?$AAl?$AAo?$AAc?$AAa?$AAl?$AAe?$AA_?$AAg?$AAe?$AAt?$AA_?$AAa?$AAl?$AAl?$AA?$AA@ 1009aae0     LIBCMTD:wsetloca.obj
 0002:0001ab08       ??_C@_1DC@HMLJMODP@?$AAw?$AAc?$AAs?$AAc?$AAa?$AAt?$AA_?$AAs?$AA?$CI?$AAp?$AAc?$AAh?$AA?0?$AA?5?$AAc?$AAc?$AAh?$AA?0?$AA?5?$AAL?$AA?$CC?$AA?$DL?$AA?$CC?$AA?$CJ?$AA?$AA@ 1009ab08     LIBCMTD:wsetloca.obj
 0002:0001ab3c       ??_C@_1BM@OIIBLEFG@?$AA_?$AAe?$AAx?$AAp?$AAa?$AAn?$AAd?$AAl?$AAo?$AAc?$AAa?$AAl?$AAe?$AA?$AA@ 1009ab3c     LIBCMTD:wsetloca.obj
 0002:0001ab58       ??_C@_1BFG@FHLOBJGM@?$AAw?$AAc?$AAs?$AAn?$AAc?$AAp?$AAy?$AA_?$AAs?$AA?$CI?$AAl?$AAo?$AAc?$AAa?$AAl?$AAe?$AAN?$AAa?$AAm?$AAe?$AAO?$AAu?$AAt?$AAp?$AAu?$AAt?$AA?0?$AA?5?$AAl?$AAo?$AAc?$AAa@ 1009ab58     LIBCMTD:wsetloca.obj
 0002:0001acb0       ??_C@_1EI@OCINLCHN@?$AAw?$AAc?$AAs?$AAc?$AAp?$AAy?$AA_?$AAs?$AA?$CI?$AAo?$AAu?$AAt?$AAp?$AAu?$AAt?$AA?0?$AA?5?$AAs?$AAi?$AAz?$AAe?$AAI?$AAn?$AAC?$AAh?$AAa?$AAr?$AAs?$AA?0?$AA?5?$AAL?$AA?$CC@ 1009acb0     LIBCMTD:wsetloca.obj
 0002:0001acf8       ??_C@_13FHBKNHDA@?$AAC?$AA?$AA@ 1009acf8     LIBCMTD:wsetloca.obj
 0002:0001ad00       ??_C@_1MO@NNCNEOAP@?$AAw?$AAc?$AAs?$AAn?$AAc?$AAp?$AAy?$AA_?$AAs?$AA?$CI?$AAl?$AAo?$AAc?$AAa?$AAl?$AAe?$AAN?$AAa?$AAm?$AAe?$AAO?$AAu?$AAt?$AAp?$AAu?$AAt?$AA?0?$AA?5?$AAl?$AAo?$AAc?$AAa@ 1009ad00     LIBCMTD:wsetloca.obj
 0002:0001add0       ??_C@_1IG@MKDIEKFD@?$AAw?$AAc?$AAs?$AAn?$AAc?$AAp?$AAy?$AA_?$AAs?$AA?$CI?$AAc?$AAa?$AAc?$AAh?$AAe?$AAo?$AAu?$AAt?$AA?0?$AA?5?$AAc?$AAa?$AAc?$AAh?$AAe?$AAo?$AAu?$AAt?$AAL?$AAe?$AAn?$AA?0@ 1009add0     LIBCMTD:wsetloca.obj
 0002:0001ae58       ??_C@_1KK@KMIFPBBC@?$AAw?$AAc?$AAs?$AAn?$AAc?$AAp?$AAy?$AA_?$AAs?$AA?$CI?$AAl?$AAo?$AAc?$AAa?$AAl?$AAe?$AAN?$AAa?$AAm?$AAe?$AAO?$AAu?$AAt?$AAp?$AAu?$AAt?$AA?0?$AA?5?$AAl?$AAo?$AAc?$AAa@ 1009ae58     LIBCMTD:wsetloca.obj
 0002:0001af08       ??_C@_1BEK@OJDMMIMP@?$AAw?$AAc?$AAs?$AAn?$AAc?$AAp?$AAy?$AA_?$AAs?$AA?$CI?$AA_?$AAp?$AAs?$AAe?$AAt?$AAl?$AAo?$AAc?$AA_?$AAd?$AAa?$AAt?$AAa?$AA?9?$AA?$DO?$AA_?$AAc?$AAa?$AAc?$AAh?$AAe?$AAL@ 1009af08     LIBCMTD:wsetloca.obj
 0002:0001b058       ??_C@_1BGG@FCLLNAOE@?$AAw?$AAc?$AAs?$AAn?$AAc?$AAp?$AAy?$AA_?$AAs?$AA?$CI?$AA_?$AAp?$AAs?$AAe?$AAt?$AAl?$AAo?$AAc?$AA_?$AAd?$AAa?$AAt?$AAa?$AA?9?$AA?$DO?$AA_?$AAc?$AAa?$AAc?$AAh?$AAe?$AAL@ 1009b058     LIBCMTD:wsetloca.obj
 0002:0001b1c0       ??_C@_1IC@FCCDBGLL@?$AAw?$AAc?$AAs?$AAn?$AAc?$AAp?$AAy?$AA_?$AAs?$AA?$CI?$AAc?$AAa?$AAc?$AAh?$AAe?$AAi?$AAn?$AA?0?$AA?5?$AAc?$AAa?$AAc?$AAh?$AAe?$AAi?$AAn?$AAL?$AAe?$AAn?$AA?0?$AA?5?$AAe@ 1009b1c0     LIBCMTD:wsetloca.obj
 0002:0001b248       ??_C@_1FA@HOOAAHFF@?$AAw?$AAc?$AAs?$AAc?$AAp?$AAy?$AA_?$AAs?$AA?$CI?$AAo?$AAu?$AAt?$AAp?$AAu?$AAt?$AA?0?$AA?5?$AAs?$AAi?$AAz?$AAe?$AAI?$AAn?$AAC?$AAh?$AAa?$AAr?$AAs?$AA?0?$AA?5?$AAc?$AAa@ 1009b248     LIBCMTD:wsetloca.obj
 0002:0001b298       ??_C@_1BC@LEOKFFML@?$AA_?$AAw?$AAc?$AAs?$AAc?$AAa?$AAt?$AAs?$AA?$AA@ 1009b298     LIBCMTD:wsetloca.obj
 0002:0001b2b0       ??_C@_1BII@IONPPCCF@?$AAw?$AAc?$AAs?$AAc?$AAa?$AAt?$AA_?$AAs?$AA?$CI?$AAo?$AAu?$AAt?$AAs?$AAt?$AAr?$AA?0?$AA?5?$AAn?$AAu?$AAm?$AAb?$AAe?$AAr?$AAO?$AAf?$AAE?$AAl?$AAe?$AAm?$AAe?$AAn?$AAt@ 1009b2b0     LIBCMTD:wsetloca.obj
 0002:0001b438       ??_C@_1BK@GNCHCGCN@?$AA_?$AA_?$AAl?$AAc?$AA_?$AAw?$AAc?$AAs?$AAt?$AAo?$AAl?$AAc?$AA?$AA@ 1009b438     LIBCMTD:wsetloca.obj
 0002:0001b458       ??_C@_1NI@NELJHJBO@?$AAw?$AAc?$AAs?$AAn?$AAc?$AAp?$AAy?$AA_?$AAs?$AA?$CI?$AAn?$AAa?$AAm?$AAe?$AAs?$AA?9?$AA?$DO?$AAs?$AAz?$AAC?$AAo?$AAd?$AAe?$AAP?$AAa?$AAg?$AAe?$AA?0?$AA?5?$AA?$CI?$AAs?$AAi@ 1009b458     LIBCMTD:wsetloca.obj
 0002:0001b530       ??_C@_17MBJJLFDM@?$AA_?$AA?4?$AA?0?$AA?$AA@ 1009b530     LIBCMTD:wsetloca.obj
 0002:0001b538       ??_C@_1MO@PBGOIBFL@?$AAw?$AAc?$AAs?$AAn?$AAc?$AAp?$AAy?$AA_?$AAs?$AA?$CI?$AAn?$AAa?$AAm?$AAe?$AAs?$AA?9?$AA?$DO?$AAs?$AAz?$AAL?$AAa?$AAn?$AAg?$AAu?$AAa?$AAg?$AAe?$AA?0?$AA?5?$AA?$CI?$AAs?$AAi@ 1009b538     LIBCMTD:wsetloca.obj
 0002:0001b608       ??_C@_1MI@CLMFNAAJ@?$AAw?$AAc?$AAs?$AAn?$AAc?$AAp?$AAy?$AA_?$AAs?$AA?$CI?$AAn?$AAa?$AAm?$AAe?$AAs?$AA?9?$AA?$DO?$AAs?$AAz?$AAC?$AAo?$AAu?$AAn?$AAt?$AAr?$AAy?$AA?0?$AA?5?$AA?$CI?$AAs?$AAi?$AAz@ 1009b608     LIBCMTD:wsetloca.obj
 0002:0001b6d0       ??_C@_1MO@NBFBMKCB@?$AAw?$AAc?$AAs?$AAn?$AAc?$AAp?$AAy?$AA_?$AAs?$AA?$CI?$AAn?$AAa?$AAm?$AAe?$AAs?$AA?9?$AA?$DO?$AAs?$AAz?$AAC?$AAo?$AAd?$AAe?$AAP?$AAa?$AAg?$AAe?$AA?0?$AA?5?$AA?$CI?$AAs?$AAi@ 1009b6d0     LIBCMTD:wsetloca.obj
 0002:0001b7a0       ??_C@_1BK@HEBMGPEK@?$AA_?$AA_?$AAl?$AAc?$AA_?$AAl?$AAc?$AAt?$AAo?$AAw?$AAc?$AAs?$AA?$AA@ 1009b7a0     LIBCMTD:wsetloca.obj
 0002:0001b7c0       ??_C@_1GM@FOFMGOEK@?$AAw?$AAc?$AAs?$AAc?$AAp?$AAy?$AA_?$AAs?$AA?$CI?$AAl?$AAo?$AAc?$AAa?$AAl?$AAe?$AA?0?$AA?5?$AAn?$AAu?$AAm?$AAb?$AAe?$AAr?$AAO?$AAf?$AAE?$AAl?$AAe?$AAm?$AAe?$AAn?$AAt@ 1009b7c0     LIBCMTD:wsetloca.obj
 0002:0001b82c       ??_C@_13ENNFDPBH@?$AA_?$AA?$AA@ 1009b82c     LIBCMTD:wsetloca.obj
 0002:0001b830       ??_C@_13JOFGPIOO@?$AA?4?$AA?$AA@ 1009b830     LIBCMTD:wsetloca.obj
 0002:0001b834       ??_C@_1CG@HCGEAFEA@?$AA_?$AA_?$AAc?$AAo?$AAp?$AAy?$AA_?$AAl?$AAo?$AAc?$AAa?$AAl?$AAe?$AA_?$AAn?$AAa?$AAm?$AAe?$AA?$AA@ 1009b834     LIBCMTD:wsetloca.obj
 0002:0001b860       ??_C@_1GI@HBNMCKGD@?$AAw?$AAc?$AAs?$AAn?$AAc?$AAp?$AAy?$AA_?$AAs?$AA?$CI?$AAl?$AAo?$AAc?$AAa?$AAl?$AAe?$AAN?$AAa?$AAm?$AAe?$AAC?$AAo?$AAp?$AAy?$AA?0?$AA?5?$AAc?$AAc?$AAh?$AA?$CL?$AA1?$AA?0@ 1009b860     LIBCMTD:wsetloca.obj
 0002:0001b8c8       ___newctype                1009b8c8     LIBCMTD:ctype.obj
 0002:0001bbc8       __wctype                   1009bbc8     LIBCMTD:ctype.obj
 0002:0001bdd0       ___newclmap                1009bdd0     LIBCMTD:ctype.obj
 0002:0001bf50       ___newcumap                1009bf50     LIBCMTD:ctype.obj
 0002:0001c0d0       ??_C@_1O@HFEBJM@?$AA_?$AAw?$AAo?$AAp?$AAe?$AAn?$AA?$AA@ 1009c0d0     LIBCMTD:wopen.obj
 0002:0001c0e0       ??_C@_1BO@NAANLDBI@?$AA_?$AAw?$AAs?$AAo?$AAp?$AAe?$AAn?$AA_?$AAh?$AAe?$AAl?$AAp?$AAe?$AAr?$AA?$AA@ 1009c0e0     LIBCMTD:wopen.obj
 0002:0001c100       ??_C@_0M@HHGEPIBF@CreateFile2?$AA@ 1009c100     LIBCMTD:wopen.obj
 0002:0001c10c       ??_C@_1BO@JMCLMIEA@?$AA_?$AAw?$AAs?$AAo?$AAp?$AAe?$AAn?$AA_?$AAn?$AAo?$AAl?$AAo?$AAc?$AAk?$AA?$AA@ 1009c10c     LIBCMTD:wopen.obj
 0002:0001c12c       ??_C@_1CG@ICBEBDJJ@?$AA_?$AAg?$AAe?$AAt?$AA_?$AAf?$AAm?$AAo?$AAd?$AAe?$AA?$CI?$AA?$CG?$AAf?$AAm?$AAo?$AAd?$AAe?$AA?$CJ?$AA?$AA@ 1009c12c     LIBCMTD:wopen.obj
 0002:0001c154       ??_C@_1DI@DGKIFCCE@?$AA?$CI?$AA?5?$AA?$CC?$AAI?$AAn?$AAv?$AAa?$AAl?$AAi?$AAd?$AA?5?$AAo?$AAp?$AAe?$AAn?$AA?5?$AAf?$AAl?$AAa?$AAg?$AA?$CC?$AA?5?$AA?0?$AA?5?$AA0?$AA?5?$AA?$CJ?$AA?$AA@ 1009c154     LIBCMTD:wopen.obj
 0002:0001c18c       ??_C@_1DO@PJLMOANO@?$AA?$CI?$AA?5?$AA?$CC?$AAI?$AAn?$AAv?$AAa?$AAl?$AAi?$AAd?$AA?5?$AAs?$AAh?$AAa?$AAr?$AAi?$AAn?$AAg?$AA?5?$AAf?$AAl?$AAa?$AAg?$AA?$CC?$AA?5?$AA?0?$AA?5?$AA0?$AA?5?$AA?$CJ?$AA?$AA@ 1009c18c     LIBCMTD:wopen.obj
 0002:0001c1d0       ??_C@_1HM@GJANBLHJ@?$AA?$CI?$AAo?$AAf?$AAl?$AAa?$AAg?$AA?5?$AA?$CG?$AA?5?$AA?$CI?$AA_?$AAO?$AA_?$AAT?$AAE?$AAX?$AAT?$AA?5?$AA?$HM?$AA?5?$AA_?$AAO?$AA_?$AAW?$AAT?$AAE?$AAX?$AAT?$AA?5?$AA?$HM?$AA?5?$AA_@ 1009c1d0     LIBCMTD:wopen.obj
 0002:0001c24c       ??_C@_1CM@IDLMKMPG@?$AA0?$AA?5?$AA?$CG?$AA?$CG?$AA?5?$AA?$CC?$AAI?$AAn?$AAt?$AAe?$AAr?$AAn?$AAa?$AAl?$AA?5?$AAE?$AAr?$AAr?$AAo?$AAr?$AA?$CC?$AA?$AA@ 1009c24c     LIBCMTD:wopen.obj
 0002:0001c278       ??_C@_1IA@IENOJNJF@?$AA0?$AA?5?$AA?$CG?$AA?$CG?$AA?5?$AA?$CC?$AAO?$AAn?$AAl?$AAy?$AA?5?$AAU?$AAT?$AAF?$AA?9?$AA1?$AA6?$AA?5?$AAl?$AAi?$AAt?$AAt?$AAl?$AAe?$AA?5?$AAe?$AAn?$AAd?$AAi?$AAa?$AAn?$AA?5@ 1009c278     LIBCMTD:wopen.obj
 0002:0001c2f8       ??_C@_1GE@CONPOJMA@?$AAf?$AA?3?$AA?2?$AAd?$AAd?$AA?2?$AAv?$AAc?$AAt?$AAo?$AAo?$AAl?$AAs?$AA?2?$AAc?$AAr?$AAt?$AA_?$AAb?$AAl?$AAd?$AA?2?$AAs?$AAe?$AAl?$AAf?$AA_?$AAx?$AA8?$AA6?$AA?2?$AAc@ 1009c2f8     LIBCMTD:strnicmp.obj
 0002:0001c35c       ??_C@_1BI@BJLEPLEF@?$AA_?$AAs?$AAt?$AAr?$AAn?$AAi?$AAc?$AAm?$AAp?$AA_?$AAl?$AA?$AA@ 1009c35c     LIBCMTD:strnicmp.obj
 0002:0001c374       ??_C@_1CC@JLPHKJPH@?$AAc?$AAo?$AAu?$AAn?$AAt?$AA?5?$AA?$DM?$AA?$DN?$AA?5?$AAI?$AAN?$AAT?$AA_?$AAM?$AAA?$AAX?$AA?$AA@ 1009c374     LIBCMTD:strnicmp.obj
 0002:0001c398       ??_C@_1BE@BHJDFFNA@?$AA_?$AAs?$AAt?$AAr?$AAn?$AAi?$AAc?$AAm?$AAp?$AA?$AA@ 1009c398     LIBCMTD:strnicmp.obj
 0002:0001c3ac       ??_C@_0DC@EHLBFILA@f?3?2dd?2vctools?2crt_bld?2self_x86?2c@ 1009c3ac     LIBCMTD:initctyp.obj
 0002:0001c3e0       ??_C@_1GE@OCPKBDKE@?$AAf?$AA?3?$AA?2?$AAd?$AAd?$AA?2?$AAv?$AAc?$AAt?$AAo?$AAo?$AAl?$AAs?$AA?2?$AAc?$AAr?$AAt?$AA_?$AAb?$AAl?$AAd?$AA?2?$AAs?$AAe?$AAl?$AAf?$AA_?$AAx?$AA8?$AA6?$AA?2?$AAc@ 1009c3e0     LIBCMTD:initctyp.obj
 0002:0001c444       ??_C@_1DG@NMBGBDM@?$AAp?$AAl?$AAo?$AAc?$AAi?$AA?9?$AA?$DO?$AAc?$AAt?$AAy?$AAp?$AAe?$AA1?$AA_?$AAr?$AAe?$AAf?$AAc?$AAo?$AAu?$AAn?$AAt?$AA?5?$AA?$DO?$AA?5?$AA0?$AA?$AA@ 1009c444     LIBCMTD:initctyp.obj
 0002:0001c480       ??_C@_1FM@NGICBHLO@?$AAf?$AA?3?$AA?2?$AAd?$AAd?$AA?2?$AAv?$AAc?$AAt?$AAo?$AAo?$AAl?$AAs?$AA?2?$AAc?$AAr?$AAt?$AA_?$AAb?$AAl?$AAd?$AA?2?$AAs?$AAe?$AAl?$AAf?$AA_?$AAx?$AA8?$AA6?$AA?2?$AAc@ 1009c480     LIBCMTD:read.obj
 0002:0001c4dc       ??_C@_1M@NHJOLLDM@?$AA_?$AAr?$AAe?$AAa?$AAd?$AA?$AA@ 1009c4dc     LIBCMTD:read.obj
 0002:0001c4e8       ??_C@_1CC@HBLPFNKH@?$AA?$CI?$AAc?$AAn?$AAt?$AA?5?$AA?$DM?$AA?$DN?$AA?5?$AAI?$AAN?$AAT?$AA_?$AAM?$AAA?$AAX?$AA?$CJ?$AA?$AA@ 1009c4e8     LIBCMTD:read.obj
 0002:0001c50c       ??_C@_1BK@JJBHNDKJ@?$AA_?$AAr?$AAe?$AAa?$AAd?$AA_?$AAn?$AAo?$AAl?$AAo?$AAc?$AAk?$AA?$AA@ 1009c50c     LIBCMTD:read.obj
 0002:0001c528       ??_C@_1CG@OHLJHGGK@?$AA?$CI?$AAi?$AAn?$AAp?$AAu?$AAt?$AAb?$AAu?$AAf?$AA?5?$AA?$CB?$AA?$DN?$AA?5?$AAN?$AAU?$AAL?$AAL?$AA?$CJ?$AA?$AA@ 1009c528     LIBCMTD:read.obj
 0002:0001c550       ??_C@_0CO@CEGKNHEH@f?3?2dd?2vctools?2crt_bld?2self_x86?2c@ 1009c550     LIBCMTD:read.obj
 0002:0001c580       ??_C@_1GO@DHMODCKM@?$AAf?$AA?3?$AA?2?$AAd?$AAd?$AA?2?$AAv?$AAc?$AAt?$AAo?$AAo?$AAl?$AAs?$AA?2?$AAc?$AAr?$AAt?$AA_?$AAb?$AAl?$AAd?$AA?2?$AAs?$AAe?$AAl?$AAf?$AA_?$AAx?$AA8?$AA6?$AA?2?$AAc@ 1009c580     LIBCMTD:wmakepath_s.obj
 0002:0001c5f0       ??_C@_1BK@KHBCJPCH@?$AA_?$AAw?$AAm?$AAa?$AAk?$AAe?$AAp?$AAa?$AAt?$AAh?$AA_?$AAs?$AA?$AA@ 1009c5f0     LIBCMTD:wmakepath_s.obj
 0002:0001c60c       ??_C@_1CI@MLPLHPBP@?$AA?$CI?$AA?$CI?$AA?$CI?$AA_?$AAP?$AAa?$AAt?$AAh?$AA?$CJ?$AA?$CJ?$AA?$CJ?$AA?5?$AA?$CB?$AA?$DN?$AA?5?$AAN?$AAU?$AAL?$AAL?$AA?$AA@ 1009c60c     LIBCMTD:wsplitpath_s.obj
 0002:0001c638       ??_C@_1HA@GHKPFCBF@?$AAf?$AA?3?$AA?2?$AAd?$AAd?$AA?2?$AAv?$AAc?$AAt?$AAo?$AAo?$AAl?$AAs?$AA?2?$AAc?$AAr?$AAt?$AA_?$AAb?$AAl?$AAd?$AA?2?$AAs?$AAe?$AAl?$AAf?$AA_?$AAx?$AA8?$AA6?$AA?2?$AAc@ 1009c638     LIBCMTD:wsplitpath_s.obj
 0002:0001c6a8       ??_C@_1BM@OEAFIBCF@?$AA_?$AAw?$AAs?$AAp?$AAl?$AAi?$AAt?$AAp?$AAa?$AAt?$AAh?$AA_?$AAs?$AA?$AA@ 1009c6a8     LIBCMTD:wsplitpath_s.obj
 0002:0001c6c4       ??_C@_1DE@MLEJGPLF@?$AA?$CI?$AAL?$AA?$CC?$AAI?$AAn?$AAv?$AAa?$AAl?$AAi?$AAd?$AA?5?$AAp?$AAa?$AAr?$AAa?$AAm?$AAe?$AAt?$AAe?$AAr?$AA?$CC?$AA?0?$AA?5?$AA0?$AA?$CJ?$AA?$AA@ 1009c6c4     LIBCMTD:wsplitpath_s.obj
 0002:0001c6f8       ??_C@_1CA@MBDBOHIB@?$AA_?$AAL?$AAo?$AAc?$AAa?$AAl?$AAe?$AA?5?$AA?$CB?$AA?$DN?$AA?5?$AAN?$AAU?$AAL?$AAL?$AA?$AA@ 1009c6f8     LIBCMTD:strgtold.obj
 0002:0001c718       ??_C@_1IG@IGKPPFIM@?$AAf?$AA?3?$AA?2?$AAd?$AAd?$AA?2?$AAv?$AAc?$AAt?$AAo?$AAo?$AAl?$AAs?$AA?2?$AAc?$AAr?$AAt?$AA_?$AAb?$AAl?$AAd?$AA?2?$AAs?$AAe?$AAl?$AAf?$AA_?$AAx?$AA8?$AA6?$AA?2?$AAc@ 1009c718     LIBCMTD:strgtold.obj
 0002:0001c7a0       ??_C@_1BO@IHLJHOPI@?$AA_?$AA_?$AAs?$AAt?$AAr?$AAg?$AAt?$AAo?$AAl?$AAd?$AA1?$AA2?$AA_?$AAl?$AA?$AA@ 1009c7a0     LIBCMTD:strgtold.obj
 0002:0001c7c0       ??_C@_1HG@HFJMHCFK@?$AAf?$AA?3?$AA?2?$AAd?$AAd?$AA?2?$AAv?$AAc?$AAt?$AAo?$AAo?$AAl?$AAs?$AA?2?$AAc?$AAr?$AAt?$AA_?$AAb?$AAl?$AAd?$AA?2?$AAs?$AAe?$AAl?$AAf?$AA_?$AAx?$AA8?$AA6?$AA?2?$AAc@ 1009c7c0     LIBCMTD:x10fout.obj
 0002:0001c838       ??_C@_1BI@ELMAAFLN@?$AA$?$AAI?$AA1?$AA0?$AA_?$AAO?$AAU?$AAT?$AAP?$AAU?$AAT?$AA?$AA@ 1009c838     LIBCMTD:x10fout.obj
 0002:0001c850       ??_C@_1EG@CDDBFNOB@?$AAs?$AAt?$AAr?$AAc?$AAp?$AAy?$AA_?$AAs?$AA?$CI?$AAf?$AAo?$AAs?$AA?9?$AA?$DO?$AAm?$AAa?$AAn?$AA?0?$AA?5?$AA2?$AA1?$AA?$CL?$AA1?$AA?0?$AA?5?$AA?$CC?$AA1?$AA?$CD?$AAS?$AAN?$AAA?$AAN@ 1009c850     LIBCMTD:x10fout.obj
 0002:0001c898       ??_C@_06PGGFOGJG@1?$CDSNAN?$AA@ 1009c898     LIBCMTD:x10fout.obj
 0002:0001c8a0       ??_C@_1EE@MADEBIHF@?$AAs?$AAt?$AAr?$AAc?$AAp?$AAy?$AA_?$AAs?$AA?$CI?$AAf?$AAo?$AAs?$AA?9?$AA?$DO?$AAm?$AAa?$AAn?$AA?0?$AA?5?$AA2?$AA1?$AA?$CL?$AA1?$AA?0?$AA?5?$AA?$CC?$AA1?$AA?$CD?$AAI?$AAN?$AAD?$AA?$CC@ 1009c8a0     LIBCMTD:x10fout.obj
 0002:0001c8e4       ??_C@_05PHHOCPM@1?$CDIND?$AA@ 1009c8e4     LIBCMTD:x10fout.obj
 0002:0001c8f0       ??_C@_1EE@ICBBBPAI@?$AAs?$AAt?$AAr?$AAc?$AAp?$AAy?$AA_?$AAs?$AA?$CI?$AAf?$AAo?$AAs?$AA?9?$AA?$DO?$AAm?$AAa?$AAn?$AA?0?$AA?5?$AA2?$AA1?$AA?$CL?$AA1?$AA?0?$AA?5?$AA?$CC?$AA1?$AA?$CD?$AAI?$AAN?$AAF?$AA?$CC@ 1009c8f0     LIBCMTD:x10fout.obj
 0002:0001c934       ??_C@_05DNEBIAHO@1?$CDINF?$AA@ 1009c934     LIBCMTD:x10fout.obj
 0002:0001c940       ??_C@_1EG@MCFPJJEM@?$AAs?$AAt?$AAr?$AAc?$AAp?$AAy?$AA_?$AAs?$AA?$CI?$AAf?$AAo?$AAs?$AA?9?$AA?$DO?$AAm?$AAa?$AAn?$AA?0?$AA?5?$AA2?$AA1?$AA?$CL?$AA1?$AA?0?$AA?5?$AA?$CC?$AA1?$AA?$CD?$AAQ?$AAN?$AAA?$AAN@ 1009c940     LIBCMTD:x10fout.obj
 0002:0001c988       ??_C@_06IMKFLFPG@1?$CDQNAN?$AA@ 1009c988     LIBCMTD:x10fout.obj
 0002:0001c990       ?commonFlags@?1??_control87@@9@9 1009c990     LIBCMTD:ieee87.obj
 0002:0001c998       ??_C@_1HO@BFDKGHOI@?$AAf?$AA?3?$AA?2?$AAd?$AAd?$AA?2?$AAv?$AAc?$AAt?$AAo?$AAo?$AAl?$AAs?$AA?2?$AAc?$AAr?$AAt?$AA_?$AAb?$AAl?$AAd?$AA?2?$AAs?$AAe?$AAl?$AAf?$AA_?$AAx?$AA8?$AA6?$AA?2?$AAc@ 1009c998     LIBCMTD:ieee87.obj
 0002:0001ca18       ??_C@_1BO@OFDNCLL@?$AA_?$AAs?$AAe?$AAt?$AA_?$AAc?$AAo?$AAn?$AAt?$AAr?$AAo?$AAl?$AAf?$AAp?$AA?$AA@ 1009ca18     LIBCMTD:ieee87.obj
 0002:0001ca38       ??_C@_1GO@OKJGOMCB@?$AA_?$AAc?$AAo?$AAn?$AAt?$AAr?$AAo?$AAl?$AAf?$AAp?$AA_?$AAs?$AA?$CI?$AA?$CI?$AA?$CI?$AAv?$AAo?$AAi?$AAd?$AA?5?$AA?$CK?$AA?$CJ?$AA0?$AA?$CJ?$AA?0?$AA?5?$AAn?$AAe?$AAw?$AAc?$AAt?$AAr@ 1009ca38     LIBCMTD:ieee87.obj
 0002:0001caa8       ??_C@_1BK@GDEKGMNC@?$AA_?$AAw?$AAo?$AAu?$AAt?$AAp?$AAu?$AAt?$AA_?$AAp?$AA_?$AAl?$AA?$AA@ 1009caa8     LIBCMTD:woutputp.obj
 0002:0001cac4       ??_C@_1BK@ONMFGLDB@?$AA_?$AAw?$AAo?$AAu?$AAt?$AAp?$AAu?$AAt?$AA_?$AAs?$AA_?$AAl?$AA?$AA@ 1009cac4     LIBCMTD:woutputs.obj
 0002:0001cae0       ??_C@_1GA@BJIGKGEA@?$AAf?$AA?3?$AA?2?$AAd?$AAd?$AA?2?$AAv?$AAc?$AAt?$AAo?$AAo?$AAl?$AAs?$AA?2?$AAc?$AAr?$AAt?$AA_?$AAb?$AAl?$AAd?$AA?2?$AAs?$AAe?$AAl?$AAf?$AA_?$AAx?$AA8?$AA6?$AA?2?$AAc@ 1009cae0     LIBCMTD:fputwc.obj
 0002:0001cb40       ??_C@_1O@HJNPHHHB@?$AAf?$AAp?$AAu?$AAt?$AAw?$AAc?$AA?$AA@ 1009cb40     LIBCMTD:fputwc.obj
 0002:0001cb50       ___rg_language             1009cb50     LIBCMTD:getqloc.obj
 0002:0001ce5c       ??_C@_1BC@LLOKLNP@?$AAa?$AAm?$AAe?$AAr?$AAi?$AAc?$AAa?$AAn?$AA?$AA@ 1009ce5c     LIBCMTD:getqloc.obj
 0002:0001ce70       ??_C@_1CC@HEIGCDGG@?$AAa?$AAm?$AAe?$AAr?$AAi?$AAc?$AAa?$AAn?$AA?5?$AAe?$AAn?$AAg?$AAl?$AAi?$AAs?$AAh?$AA?$AA@ 1009ce70     LIBCMTD:getqloc.obj
 0002:0001ce94       ??_C@_1CC@IHCNOMIN@?$AAa?$AAm?$AAe?$AAr?$AAi?$AAc?$AAa?$AAn?$AA?9?$AAe?$AAn?$AAg?$AAl?$AAi?$AAs?$AAh?$AA?$AA@ 1009ce94     LIBCMTD:getqloc.obj
 0002:0001ceb8       ??_C@_1BG@GKAGPCGG@?$AAa?$AAu?$AAs?$AAt?$AAr?$AAa?$AAl?$AAi?$AAa?$AAn?$AA?$AA@ 1009ceb8     LIBCMTD:getqloc.obj
 0002:0001ced0       ??_C@_1BA@GMENCENF@?$AAb?$AAe?$AAl?$AAg?$AAi?$AAa?$AAn?$AA?$AA@ 1009ced0     LIBCMTD:getqloc.obj
 0002:0001cee0       ??_C@_1BC@PJMIIAAN@?$AAc?$AAa?$AAn?$AAa?$AAd?$AAi?$AAa?$AAn?$AA?$AA@ 1009cee0     LIBCMTD:getqloc.obj
 0002:0001cef4       ??_C@_17NOIMNFBF@?$AAc?$AAh?$AAh?$AA?$AA@ 1009cef4     LIBCMTD:getqloc.obj
 0002:0001cefc       ??_C@_17GGDALCHA@?$AAc?$AAh?$AAi?$AA?$AA@ 1009cefc     LIBCMTD:getqloc.obj
 0002:0001cf04       ??_C@_1BA@NPNJKIBL@?$AAc?$AAh?$AAi?$AAn?$AAe?$AAs?$AAe?$AA?$AA@ 1009cf04     LIBCMTD:getqloc.obj
 0002:0001cf14       ??_C@_1CC@DINBAMMJ@?$AAc?$AAh?$AAi?$AAn?$AAe?$AAs?$AAe?$AA?9?$AAh?$AAo?$AAn?$AAg?$AAk?$AAo?$AAn?$AAg?$AA?$AA@ 1009cf14     LIBCMTD:getqloc.obj
 0002:0001cf38       ??_C@_1CG@IOBJPACO@?$AAc?$AAh?$AAi?$AAn?$AAe?$AAs?$AAe?$AA?9?$AAs?$AAi?$AAm?$AAp?$AAl?$AAi?$AAf?$AAi?$AAe?$AAd?$AA?$AA@ 1009cf38     LIBCMTD:getqloc.obj
 0002:0001cf60       ??_C@_1CE@GAJNDCKG@?$AAc?$AAh?$AAi?$AAn?$AAe?$AAs?$AAe?$AA?9?$AAs?$AAi?$AAn?$AAg?$AAa?$AAp?$AAo?$AAr?$AAe?$AA?$AA@ 1009cf60     LIBCMTD:getqloc.obj
 0002:0001cf84       ??_C@_1CI@PAJPIOOD@?$AAc?$AAh?$AAi?$AAn?$AAe?$AAs?$AAe?$AA?9?$AAt?$AAr?$AAa?$AAd?$AAi?$AAt?$AAi?$AAo?$AAn?$AAa?$AAl?$AA?$AA@ 1009cf84     LIBCMTD:getqloc.obj
 0002:0001cfac       ??_C@_1BM@NILJBMMD@?$AAd?$AAu?$AAt?$AAc?$AAh?$AA?9?$AAb?$AAe?$AAl?$AAg?$AAi?$AAa?$AAn?$AA?$AA@ 1009cfac     LIBCMTD:getqloc.obj
 0002:0001cfc8       ??_C@_1CC@OOJPJNEJ@?$AAe?$AAn?$AAg?$AAl?$AAi?$AAs?$AAh?$AA?9?$AAa?$AAm?$AAe?$AAr?$AAi?$AAc?$AAa?$AAn?$AA?$AA@ 1009cfc8     LIBCMTD:getqloc.obj
 0002:0001cfec       ??_C@_1BI@IOLFEEM@?$AAe?$AAn?$AAg?$AAl?$AAi?$AAs?$AAh?$AA?9?$AAa?$AAu?$AAs?$AA?$AA@ 1009cfec     LIBCMTD:getqloc.obj
 0002:0001d004       ??_C@_1BO@HFFNLENJ@?$AAe?$AAn?$AAg?$AAl?$AAi?$AAs?$AAh?$AA?9?$AAb?$AAe?$AAl?$AAi?$AAz?$AAe?$AA?$AA@ 1009d004     LIBCMTD:getqloc.obj
 0002:0001d024       ??_C@_1BI@HAPKJMPO@?$AAe?$AAn?$AAg?$AAl?$AAi?$AAs?$AAh?$AA?9?$AAc?$AAa?$AAn?$AA?$AA@ 1009d024     LIBCMTD:getqloc.obj
 0002:0001d03c       ??_C@_1CE@HLNDMIOJ@?$AAe?$AAn?$AAg?$AAl?$AAi?$AAs?$AAh?$AA?9?$AAc?$AAa?$AAr?$AAi?$AAb?$AAb?$AAe?$AAa?$AAn?$AA?$AA@ 1009d03c     LIBCMTD:getqloc.obj
 0002:0001d060       ??_C@_1BI@LDHJHHAC@?$AAe?$AAn?$AAg?$AAl?$AAi?$AAs?$AAh?$AA?9?$AAi?$AAr?$AAe?$AA?$AA@ 1009d060     LIBCMTD:getqloc.obj
 0002:0001d078       ??_C@_1CA@NJMMCFOC@?$AAe?$AAn?$AAg?$AAl?$AAi?$AAs?$AAh?$AA?9?$AAj?$AAa?$AAm?$AAa?$AAi?$AAc?$AAa?$AA?$AA@ 1009d078     LIBCMTD:getqloc.obj
 0002:0001d098       ??_C@_1BG@BHJEBBGG@?$AAe?$AAn?$AAg?$AAl?$AAi?$AAs?$AAh?$AA?9?$AAn?$AAz?$AA?$AA@ 1009d098     LIBCMTD:getqloc.obj
 0002:0001d0b0       ??_C@_1CK@FGOEJJCO@?$AAe?$AAn?$AAg?$AAl?$AAi?$AAs?$AAh?$AA?9?$AAs?$AAo?$AAu?$AAt?$AAh?$AA?5?$AAa?$AAf?$AAr?$AAi?$AAc?$AAa?$AA?$AA@ 1009d0b0     LIBCMTD:getqloc.obj
 0002:0001d0dc       ??_C@_1DE@PDBJPCJ@?$AAe?$AAn?$AAg?$AAl?$AAi?$AAs?$AAh?$AA?9?$AAt?$AAr?$AAi?$AAn?$AAi?$AAd?$AAa?$AAd?$AA?5?$AAy?$AA?5?$AAt?$AAo?$AAb?$AAa?$AAg?$AAo?$AA?$AA@ 1009d0dc     LIBCMTD:getqloc.obj
 0002:0001d110       ??_C@_1BG@JGCANDME@?$AAe?$AAn?$AAg?$AAl?$AAi?$AAs?$AAh?$AA?9?$AAu?$AAk?$AA?$AA@ 1009d110     LIBCMTD:getqloc.obj
 0002:0001d128       ??_C@_1BG@DINKMLE@?$AAe?$AAn?$AAg?$AAl?$AAi?$AAs?$AAh?$AA?9?$AAu?$AAs?$AA?$AA@ 1009d128     LIBCMTD:getqloc.obj
 0002:0001d140       ??_C@_1BI@NMFDBHJE@?$AAe?$AAn?$AAg?$AAl?$AAi?$AAs?$AAh?$AA?9?$AAu?$AAs?$AAa?$AA?$AA@ 1009d140     LIBCMTD:getqloc.obj
 0002:0001d158       ??_C@_1BO@OIHKJKII@?$AAf?$AAr?$AAe?$AAn?$AAc?$AAh?$AA?9?$AAb?$AAe?$AAl?$AAg?$AAi?$AAa?$AAn?$AA?$AA@ 1009d158     LIBCMTD:getqloc.obj
 0002:0001d178       ??_C@_1CA@NKAELJKI@?$AAf?$AAr?$AAe?$AAn?$AAc?$AAh?$AA?9?$AAc?$AAa?$AAn?$AAa?$AAd?$AAi?$AAa?$AAn?$AA?$AA@ 1009d178     LIBCMTD:getqloc.obj
 0002:0001d198       ??_C@_1CE@MGKCNLGN@?$AAf?$AAr?$AAe?$AAn?$AAc?$AAh?$AA?9?$AAl?$AAu?$AAx?$AAe?$AAm?$AAb?$AAo?$AAu?$AAr?$AAg?$AA?$AA@ 1009d198     LIBCMTD:getqloc.obj
 0002:0001d1bc       ??_C@_1BK@CEGEAILM@?$AAf?$AAr?$AAe?$AAn?$AAc?$AAh?$AA?9?$AAs?$AAw?$AAi?$AAs?$AAs?$AA?$AA@ 1009d1bc     LIBCMTD:getqloc.obj
 0002:0001d1d8       ??_C@_1CA@PAFKEOCC@?$AAg?$AAe?$AAr?$AAm?$AAa?$AAn?$AA?9?$AAa?$AAu?$AAs?$AAt?$AAr?$AAi?$AAa?$AAn?$AA?$AA@ 1009d1d8     LIBCMTD:getqloc.obj
 0002:0001d1f8       ??_C@_1CI@HCFHGOFD@?$AAg?$AAe?$AAr?$AAm?$AAa?$AAn?$AA?9?$AAl?$AAi?$AAc?$AAh?$AAt?$AAe?$AAn?$AAs?$AAt?$AAe?$AAi?$AAn?$AA?$AA@ 1009d1f8     LIBCMTD:getqloc.obj
 0002:0001d220       ??_C@_1CE@FEDDNPDG@?$AAg?$AAe?$AAr?$AAm?$AAa?$AAn?$AA?9?$AAl?$AAu?$AAx?$AAe?$AAm?$AAb?$AAo?$AAu?$AAr?$AAg?$AA?$AA@ 1009d220     LIBCMTD:getqloc.obj
 0002:0001d244       ??_C@_1BK@LIMINNMN@?$AAg?$AAe?$AAr?$AAm?$AAa?$AAn?$AA?9?$AAs?$AAw?$AAi?$AAs?$AAs?$AA?$AA@ 1009d244     LIBCMTD:getqloc.obj
 0002:0001d260       ??_C@_1BM@LGMDBEPD@?$AAi?$AAr?$AAi?$AAs?$AAh?$AA?9?$AAe?$AAn?$AAg?$AAl?$AAi?$AAs?$AAh?$AA?$AA@ 1009d260     LIBCMTD:getqloc.obj
 0002:0001d27c       ??_C@_1BM@NNCFBAEE@?$AAi?$AAt?$AAa?$AAl?$AAi?$AAa?$AAn?$AA?9?$AAs?$AAw?$AAi?$AAs?$AAs?$AA?$AA@ 1009d27c     LIBCMTD:getqloc.obj
 0002:0001d298       ??_C@_1BE@FEDJNPIB@?$AAn?$AAo?$AAr?$AAw?$AAe?$AAg?$AAi?$AAa?$AAn?$AA?$AA@ 1009d298     LIBCMTD:getqloc.obj
 0002:0001d2ac       ??_C@_1CC@CILKDEIE@?$AAn?$AAo?$AAr?$AAw?$AAe?$AAg?$AAi?$AAa?$AAn?$AA?9?$AAb?$AAo?$AAk?$AAm?$AAa?$AAl?$AA?$AA@ 1009d2ac     LIBCMTD:getqloc.obj
 0002:0001d2d0       ??_C@_1CE@DHMMHEPL@?$AAn?$AAo?$AAr?$AAw?$AAe?$AAg?$AAi?$AAa?$AAn?$AA?9?$AAn?$AAy?$AAn?$AAo?$AAr?$AAs?$AAk?$AA?$AA@ 1009d2d0     LIBCMTD:getqloc.obj
 0002:0001d2f4       ??_C@_1CK@OPNMHECD@?$AAp?$AAo?$AAr?$AAt?$AAu?$AAg?$AAu?$AAe?$AAs?$AAe?$AA?9?$AAb?$AAr?$AAa?$AAz?$AAi?$AAl?$AAi?$AAa?$AAn?$AA?$AA@ 1009d2f4     LIBCMTD:getqloc.obj
 0002:0001d320       ??_C@_1CE@KEEHCDB@?$AAs?$AAp?$AAa?$AAn?$AAi?$AAs?$AAh?$AA?9?$AAa?$AAr?$AAg?$AAe?$AAn?$AAt?$AAi?$AAn?$AAa?$AA?$AA@ 1009d320     LIBCMTD:getqloc.obj
 0002:0001d344       ??_C@_1CA@GIAOLHJD@?$AAs?$AAp?$AAa?$AAn?$AAi?$AAs?$AAh?$AA?9?$AAb?$AAo?$AAl?$AAi?$AAv?$AAi?$AAa?$AA?$AA@ 1009d344     LIBCMTD:getqloc.obj
 0002:0001d364       ??_C@_1BM@OJNDFNPD@?$AAs?$AAp?$AAa?$AAn?$AAi?$AAs?$AAh?$AA?9?$AAc?$AAh?$AAi?$AAl?$AAe?$AA?$AA@ 1009d364     LIBCMTD:getqloc.obj
 0002:0001d380       ??_C@_1CC@OCOLPALL@?$AAs?$AAp?$AAa?$AAn?$AAi?$AAs?$AAh?$AA?9?$AAc?$AAo?$AAl?$AAo?$AAm?$AAb?$AAi?$AAa?$AA?$AA@ 1009d380     LIBCMTD:getqloc.obj
 0002:0001d3a4       ??_C@_1CG@BPOFMKBB@?$AAs?$AAp?$AAa?$AAn?$AAi?$AAs?$AAh?$AA?9?$AAc?$AAo?$AAs?$AAt?$AAa?$AA?5?$AAr?$AAi?$AAc?$AAa?$AA?$AA@ 1009d3a4     LIBCMTD:getqloc.obj
 0002:0001d3cc       ??_C@_1DG@IGOBAPBB@?$AAs?$AAp?$AAa?$AAn?$AAi?$AAs?$AAh?$AA?9?$AAd?$AAo?$AAm?$AAi?$AAn?$AAi?$AAc?$AAa?$AAn?$AA?5?$AAr?$AAe?$AAp?$AAu?$AAb?$AAl?$AAi?$AAc?$AA?$AA@ 1009d3cc     LIBCMTD:getqloc.obj
 0002:0001d404       ??_C@_1CA@JHAPGEGI@?$AAs?$AAp?$AAa?$AAn?$AAi?$AAs?$AAh?$AA?9?$AAe?$AAc?$AAu?$AAa?$AAd?$AAo?$AAr?$AA?$AA@ 1009d404     LIBCMTD:getqloc.obj
 0002:0001d424       ??_C@_1CI@LAPALJPP@?$AAs?$AAp?$AAa?$AAn?$AAi?$AAs?$AAh?$AA?9?$AAe?$AAl?$AA?5?$AAs?$AAa?$AAl?$AAv?$AAa?$AAd?$AAo?$AAr?$AA?$AA@ 1009d424     LIBCMTD:getqloc.obj
 0002:0001d44c       ??_C@_1CE@PDGBOFOM@?$AAs?$AAp?$AAa?$AAn?$AAi?$AAs?$AAh?$AA?9?$AAg?$AAu?$AAa?$AAt?$AAe?$AAm?$AAa?$AAl?$AAa?$AA?$AA@ 1009d44c     LIBCMTD:getqloc.obj
 0002:0001d470       ??_C@_1CC@NBEBAODI@?$AAs?$AAp?$AAa?$AAn?$AAi?$AAs?$AAh?$AA?9?$AAh?$AAo?$AAn?$AAd?$AAu?$AAr?$AAa?$AAs?$AA?$AA@ 1009d470     LIBCMTD:getqloc.obj
 0002:0001d494       ??_C@_1CA@LLKGHBMF@?$AAs?$AAp?$AAa?$AAn?$AAi?$AAs?$AAh?$AA?9?$AAm?$AAe?$AAx?$AAi?$AAc?$AAa?$AAn?$AA?$AA@ 1009d494     LIBCMTD:getqloc.obj
 0002:0001d4b4       ??_C@_1BO@LKNDOIGD@?$AAs?$AAp?$AAa?$AAn?$AAi?$AAs?$AAh?$AA?9?$AAm?$AAo?$AAd?$AAe?$AAr?$AAn?$AA?$AA@ 1009d4b4     LIBCMTD:getqloc.obj
 0002:0001d4d4       ??_C@_1CE@NMDMOEEB@?$AAs?$AAp?$AAa?$AAn?$AAi?$AAs?$AAh?$AA?9?$AAn?$AAi?$AAc?$AAa?$AAr?$AAa?$AAg?$AAu?$AAa?$AA?$AA@ 1009d4d4     LIBCMTD:getqloc.obj
 0002:0001d4f8       ??_C@_1BO@LLCBEJGB@?$AAs?$AAp?$AAa?$AAn?$AAi?$AAs?$AAh?$AA?9?$AAp?$AAa?$AAn?$AAa?$AAm?$AAa?$AA?$AA@ 1009d4f8     LIBCMTD:getqloc.obj
 0002:0001d518       ??_C@_1CC@FKPGGIHO@?$AAs?$AAp?$AAa?$AAn?$AAi?$AAs?$AAh?$AA?9?$AAp?$AAa?$AAr?$AAa?$AAg?$AAu?$AAa?$AAy?$AA?$AA@ 1009d518     LIBCMTD:getqloc.obj
 0002:0001d53c       ??_C@_1BK@CDEIHOOP@?$AAs?$AAp?$AAa?$AAn?$AAi?$AAs?$AAh?$AA?9?$AAp?$AAe?$AAr?$AAu?$AA?$AA@ 1009d53c     LIBCMTD:getqloc.obj
 0002:0001d558       ??_C@_1CI@GAHAKKGP@?$AAs?$AAp?$AAa?$AAn?$AAi?$AAs?$AAh?$AA?9?$AAp?$AAu?$AAe?$AAr?$AAt?$AAo?$AA?5?$AAr?$AAi?$AAc?$AAo?$AA?$AA@ 1009d558     LIBCMTD:getqloc.obj
 0002:0001d580       ??_C@_1CA@NKJBCAGP@?$AAs?$AAp?$AAa?$AAn?$AAi?$AAs?$AAh?$AA?9?$AAu?$AAr?$AAu?$AAg?$AAu?$AAa?$AAy?$AA?$AA@ 1009d580     LIBCMTD:getqloc.obj
 0002:0001d5a0       ??_C@_1CE@ODILCONM@?$AAs?$AAp?$AAa?$AAn?$AAi?$AAs?$AAh?$AA?9?$AAv?$AAe?$AAn?$AAe?$AAz?$AAu?$AAe?$AAl?$AAa?$AA?$AA@ 1009d5a0     LIBCMTD:getqloc.obj
 0002:0001d5c4       ??_C@_1CA@OBNMCGFO@?$AAs?$AAw?$AAe?$AAd?$AAi?$AAs?$AAh?$AA?9?$AAf?$AAi?$AAn?$AAl?$AAa?$AAn?$AAd?$AA?$AA@ 1009d5c4     LIBCMTD:getqloc.obj
 0002:0001d5e4       ??_C@_1M@PIPDDPPI@?$AAs?$AAw?$AAi?$AAs?$AAs?$AA?$AA@ 1009d5e4     LIBCMTD:getqloc.obj
 0002:0001d5f0       ??_C@_15GMFIMNFM@?$AAu?$AAs?$AA?$AA@ 1009d5f0     LIBCMTD:getqloc.obj
 0002:0001d5f8       ??_C@_17HAEBFAGL@?$AAu?$AAs?$AAa?$AA?$AA@ 1009d5f8     LIBCMTD:getqloc.obj
 0002:0001d600       ___rg_country              1009d600     LIBCMTD:getqloc.obj
 0002:0001d714       ??_C@_1BA@DPFJEPHB@?$AAa?$AAm?$AAe?$AAr?$AAi?$AAc?$AAa?$AA?$AA@ 1009d714     LIBCMTD:getqloc.obj
 0002:0001d724       ??_C@_1BA@ELOGGFK@?$AAb?$AAr?$AAi?$AAt?$AAa?$AAi?$AAn?$AA?$AA@ 1009d724     LIBCMTD:getqloc.obj
 0002:0001d734       ??_C@_1M@GHBGIGDA@?$AAc?$AAh?$AAi?$AAn?$AAa?$AA?$AA@ 1009d734     LIBCMTD:getqloc.obj
 0002:0001d740       ??_C@_1M@NCHEJOPO@?$AAc?$AAz?$AAe?$AAc?$AAh?$AA?$AA@ 1009d740     LIBCMTD:getqloc.obj
 0002:0001d74c       ??_C@_1BA@BKPAPBLA@?$AAe?$AAn?$AAg?$AAl?$AAa?$AAn?$AAd?$AA?$AA@ 1009d74c     LIBCMTD:getqloc.obj
 0002:0001d75c       ??_C@_1BM@HKBCKIPC@?$AAg?$AAr?$AAe?$AAa?$AAt?$AA?5?$AAb?$AAr?$AAi?$AAt?$AAa?$AAi?$AAn?$AA?$AA@ 1009d75c     LIBCMTD:getqloc.obj
 0002:0001d778       ??_C@_1BA@PPCHPGJB@?$AAh?$AAo?$AAl?$AAl?$AAa?$AAn?$AAd?$AA?$AA@ 1009d778     LIBCMTD:getqloc.obj
 0002:0001d788       ??_C@_1BE@JBMPEGDG@?$AAh?$AAo?$AAn?$AAg?$AA?9?$AAk?$AAo?$AAn?$AAg?$AA?$AA@ 1009d788     LIBCMTD:getqloc.obj
 0002:0001d79c       ??_C@_1BI@KOELBBPJ@?$AAn?$AAe?$AAw?$AA?9?$AAz?$AAe?$AAa?$AAl?$AAa?$AAn?$AAd?$AA?$AA@ 1009d79c     LIBCMTD:getqloc.obj
 0002:0001d7b4       ??_C@_15HIEBHAIO@?$AAn?$AAz?$AA?$AA@ 1009d7b4     LIBCMTD:getqloc.obj
 0002:0001d7bc       ??_C@_1BC@CHBCPFPI@?$AAp?$AAr?$AA?5?$AAc?$AAh?$AAi?$AAn?$AAa?$AA?$AA@ 1009d7bc     LIBCMTD:getqloc.obj
 0002:0001d7d0       ??_C@_1BC@JAOIIFKD@?$AAp?$AAr?$AA?9?$AAc?$AAh?$AAi?$AAn?$AAa?$AA?$AA@ 1009d7d0     LIBCMTD:getqloc.obj
 0002:0001d7e4       ??_C@_1BI@BEHPPHKC@?$AAp?$AAu?$AAe?$AAr?$AAt?$AAo?$AA?9?$AAr?$AAi?$AAc?$AAo?$AA?$AA@ 1009d7e4     LIBCMTD:getqloc.obj
 0002:0001d7fc       ??_C@_1O@PAEOFKDI@?$AAs?$AAl?$AAo?$AAv?$AAa?$AAk?$AA?$AA@ 1009d7fc     LIBCMTD:getqloc.obj
 0002:0001d80c       ??_C@_1BK@FIHMCKAM@?$AAs?$AAo?$AAu?$AAt?$AAh?$AA?5?$AAa?$AAf?$AAr?$AAi?$AAc?$AAa?$AA?$AA@ 1009d80c     LIBCMTD:getqloc.obj
 0002:0001d828       ??_C@_1BI@NAEOODKB@?$AAs?$AAo?$AAu?$AAt?$AAh?$AA?5?$AAk?$AAo?$AAr?$AAe?$AAa?$AA?$AA@ 1009d828     LIBCMTD:getqloc.obj
 0002:0001d840       ??_C@_1BK@FBDGGIFF@?$AAs?$AAo?$AAu?$AAt?$AAh?$AA?9?$AAa?$AAf?$AAr?$AAi?$AAc?$AAa?$AA?$AA@ 1009d840     LIBCMTD:getqloc.obj
 0002:0001d85c       ??_C@_1BI@GHLEJDPK@?$AAs?$AAo?$AAu?$AAt?$AAh?$AA?9?$AAk?$AAo?$AAr?$AAe?$AAa?$AA?$AA@ 1009d85c     LIBCMTD:getqloc.obj
 0002:0001d874       ??_C@_1CE@PLHLOMJF@?$AAt?$AAr?$AAi?$AAn?$AAi?$AAd?$AAa?$AAd?$AA?5?$AA?$CG?$AA?5?$AAt?$AAo?$AAb?$AAa?$AAg?$AAo?$AA?$AA@ 1009d874     LIBCMTD:getqloc.obj
 0002:0001d898       ??_C@_1BO@MODIMHHI@?$AAu?$AAn?$AAi?$AAt?$AAe?$AAd?$AA?9?$AAk?$AAi?$AAn?$AAg?$AAd?$AAo?$AAm?$AA?$AA@ 1009d898     LIBCMTD:getqloc.obj
 0002:0001d8b8       ??_C@_1BM@FFHJONBJ@?$AAu?$AAn?$AAi?$AAt?$AAe?$AAd?$AA?9?$AAs?$AAt?$AAa?$AAt?$AAe?$AAs?$AA?$AA@ 1009d8b8     LIBCMTD:getqloc.obj
 0002:0001d8d4       ___rg_language_count       1009d8d4     LIBCMTD:getqloc.obj
 0002:0001d8d8       ___rg_country_count        1009d8d8     LIBCMTD:getqloc.obj
 0002:0001d8e0       ??_C@_1GC@FECJGAE@?$AAf?$AA?3?$AA?2?$AAd?$AAd?$AA?2?$AAv?$AAc?$AAt?$AAo?$AAo?$AAl?$AAs?$AA?2?$AAc?$AAr?$AAt?$AA_?$AAb?$AAl?$AAd?$AA?2?$AAs?$AAe?$AAl?$AAf?$AA_?$AAx?$AA8?$AA6?$AA?2?$AAc@ 1009d8e0     LIBCMTD:getqloc.obj
 0002:0001d944       ??_C@_1CO@NJACLALJ@?$AA_?$AA_?$AAg?$AAe?$AAt?$AA_?$AAq?$AAu?$AAa?$AAl?$AAi?$AAf?$AAi?$AAe?$AAd?$AA_?$AAl?$AAo?$AAc?$AAa?$AAl?$AAe?$AA?$AA@ 1009d944     LIBCMTD:getqloc.obj
 0002:0001d978       ??_C@_1BGM@FCCPEFDE@?$AAw?$AAc?$AAs?$AAn?$AAc?$AAp?$AAy?$AA_?$AAs?$AA?$CI?$AAl?$AAp?$AAO?$AAu?$AAt?$AAS?$AAt?$AAr?$AA?9?$AA?$DO?$AAs?$AAz?$AAL?$AAo?$AAc?$AAa?$AAl?$AAe?$AAN?$AAa?$AAm?$AAe@ 1009d978     LIBCMTD:getqloc.obj
 0002:0001dae4       ??_C@_1CM@OGEMFJNJ@?$AAL?$AAa?$AAn?$AAg?$AAC?$AAo?$AAu?$AAn?$AAt?$AAr?$AAy?$AAE?$AAn?$AAu?$AAm?$AAP?$AAr?$AAo?$AAc?$AAE?$AAx?$AA?$AA@ 1009dae4     LIBCMTD:getqloc.obj
 0002:0001db10       ??_C@_1BFO@LLJKJAIC@?$AAw?$AAc?$AAs?$AAn?$AAc?$AAp?$AAy?$AA_?$AAs?$AA?$CI?$AA_?$AAp?$AAs?$AAe?$AAt?$AAl?$AAo?$AAc?$AA_?$AAd?$AAa?$AAt?$AAa?$AA?9?$AA?$DO?$AA_?$AAc?$AAa?$AAc?$AAh?$AAe?$AAL@ 1009db10     LIBCMTD:getqloc.obj
 0002:0001dc70       ??_C@_1CG@PGLLICHO@?$AAL?$AAa?$AAn?$AAg?$AAu?$AAa?$AAg?$AAe?$AAE?$AAn?$AAu?$AAm?$AAP?$AAr?$AAo?$AAc?$AAE?$AAx?$AA?$AA@ 1009dc70     LIBCMTD:getqloc.obj
 0002:0001dc98       ??_C@_1DC@CPKFANGP@?$AAG?$AAe?$AAt?$AAL?$AAo?$AAc?$AAa?$AAl?$AAe?$AAN?$AAa?$AAm?$AAe?$AAF?$AAr?$AAo?$AAm?$AAD?$AAe?$AAf?$AAa?$AAu?$AAl?$AAt?$AA?$AA@ 1009dc98     LIBCMTD:getqloc.obj
 0002:0001dcd0       ??_C@_1BEO@EJBNGKHB@?$AAw?$AAc?$AAs?$AAn?$AAc?$AAp?$AAy?$AA_?$AAs?$AA?$CI?$AA_?$AAp?$AAs?$AAe?$AAt?$AAl?$AAo?$AAc?$AA_?$AAd?$AAa?$AAt?$AAa?$AA?9?$AA?$DO?$AA_?$AAc?$AAa?$AAc?$AAh?$AAe?$AAL@ 1009dcd0     LIBCMTD:getqloc.obj
 0002:0001de20       ??_C@_17DNCLJFIF@?$AAA?$AAC?$AAP?$AA?$AA@ 1009de20     LIBCMTD:getqloc.obj
 0002:0001de28       ??_C@_17CIKBIHLH@?$AAO?$AAC?$AAP?$AA?$AA@ 1009de28     LIBCMTD:getqloc.obj
 0002:0001de30       ___rglangidNotDefault      1009de30     LIBCMTD:getqloc_downlevel.obj
 0002:0001de44       ??_C@_1BA@BALFACEM@?$AAC?$AAO?$AAN?$AAO?$AAU?$AAT?$AA$?$AA?$AA@ 1009de44     LIBCMTD:initcon.obj
 0002:0001de58       ??_C@_1GA@DBKMEDOF@?$AAf?$AA?3?$AA?2?$AAd?$AAd?$AA?2?$AAv?$AAc?$AAt?$AAo?$AAo?$AAl?$AAs?$AA?2?$AAc?$AAr?$AAt?$AA_?$AAb?$AAl?$AAd?$AA?2?$AAs?$AAe?$AAl?$AAf?$AA_?$AAx?$AA8?$AA6?$AA?2?$AAc@ 1009de58     LIBCMTD:chsize.obj
 0002:0001deb8       ??_C@_1BE@MAFDNGED@?$AA_?$AAc?$AAh?$AAs?$AAi?$AAz?$AAe?$AA_?$AAs?$AA?$AA@ 1009deb8     LIBCMTD:chsize.obj
 0002:0001decc       ??_C@_1BI@GALBKMKE@?$AA?$CI?$AAs?$AAi?$AAz?$AAe?$AA?5?$AA?$DO?$AA?$DN?$AA?5?$AA0?$AA?$CJ?$AA?$AA@ 1009decc     LIBCMTD:chsize.obj
 0002:0001dee8       ??_C@_1OA@HGPJIFPM@?$AA?$CI?$AA?$CI?$AAm?$AAo?$AAd?$AAe?$AA?5?$AA?$DN?$AA?$DN?$AA?5?$AA_?$AAO?$AA_?$AAT?$AAE?$AAX?$AAT?$AA?$CJ?$AA?5?$AA?$HM?$AA?$HM?$AA?5?$AA?$CI?$AAm?$AAo?$AAd?$AAe?$AA?5?$AA?$DN?$AA?$DN?$AA?5?$AA_@ 1009dee8     LIBCMTD:setmode.obj
 0002:0001dfc8       ??_C@_1GC@KODPFLLJ@?$AAf?$AA?3?$AA?2?$AAd?$AAd?$AA?2?$AAv?$AAc?$AAt?$AAo?$AAo?$AAl?$AAs?$AA?2?$AAc?$AAr?$AAt?$AA_?$AAb?$AAl?$AAd?$AA?2?$AAs?$AAe?$AAl?$AAf?$AA_?$AAx?$AA8?$AA6?$AA?2?$AAc@ 1009dfc8     LIBCMTD:setmode.obj
 0002:0001e02c       ??_C@_1BC@JBGGJDCM@?$AA_?$AAs?$AAe?$AAt?$AAm?$AAo?$AAd?$AAe?$AA?$AA@ 1009e02c     LIBCMTD:setmode.obj
 0002:0001e040       ??_C@_1IC@NDCJMLB@?$AA?$CI?$AA?$CI?$AAm?$AAo?$AAd?$AAe?$AA?5?$AA?$DN?$AA?$DN?$AA?5?$AA_?$AAO?$AA_?$AAT?$AAE?$AAX?$AAT?$AA?$CJ?$AA?5?$AA?$HM?$AA?$HM?$AA?5?$AA?$CI?$AAm?$AAo?$AAd?$AAe?$AA?5?$AA?$DN?$AA?$DN?$AA?5?$AA_@ 1009e040     LIBCMTD:setmode.obj
 0002:0001e0c4       ??_C@_1BG@IEEHLOCL@?$AA_?$AAs?$AAe?$AAt?$AA_?$AAf?$AAm?$AAo?$AAd?$AAe?$AA?$AA@ 1009e0c4     LIBCMTD:setmode.obj
 0002:0001e0dc       ??_C@_1CA@GPIGPPFN@?$AA?$CI?$AAp?$AAM?$AAo?$AAd?$AAe?$AA?5?$AA?$CB?$AA?$DN?$AA?5?$AAN?$AAU?$AAL?$AAL?$AA?$CJ?$AA?$AA@ 1009e0dc     LIBCMTD:setmode.obj
 0002:0001e0fc       ??_C@_1BG@CKGMPOFH@?$AA_?$AAg?$AAe?$AAt?$AA_?$AAf?$AAm?$AAo?$AAd?$AAe?$AA?$AA@ 1009e0fc     LIBCMTD:setmode.obj
 0002:0001e118       ??_C@_1GA@GIMEIKLC@?$AAf?$AA?3?$AA?2?$AAd?$AAd?$AA?2?$AAv?$AAc?$AAt?$AAo?$AAo?$AAl?$AAs?$AA?2?$AAc?$AAr?$AAt?$AA_?$AAb?$AAl?$AAd?$AA?2?$AAs?$AAe?$AAl?$AAf?$AA_?$AAx?$AA8?$AA6?$AA?2?$AAc@ 1009e118     LIBCMTD:strtoq.obj
 0002:0001e178       ??_C@_1BA@BMMDEPNE@?$AAs?$AAt?$AAr?$AAt?$AAo?$AAx?$AAq?$AA?$AA@ 1009e178     LIBCMTD:strtoq.obj
 0002:0001e188       ??_C@_1GA@CADFOND@?$AAf?$AA?3?$AA?2?$AAd?$AAd?$AA?2?$AAv?$AAc?$AAt?$AAo?$AAo?$AAl?$AAs?$AA?2?$AAc?$AAr?$AAt?$AA_?$AAb?$AAl?$AAd?$AA?2?$AAs?$AAe?$AAl?$AAf?$AA_?$AAx?$AA8?$AA6?$AA?2?$AAc@ 1009e188     LIBCMTD:wcstol.obj
 0002:0001e1e8       ??_C@_1BA@PCFLFGNC@?$AAw?$AAc?$AAs?$AAt?$AAo?$AAx?$AAl?$AA?$AA@ 1009e1e8     LIBCMTD:wcstol.obj
 0002:0001e1f8       ??_C@_1GC@MHLPCCAP@?$AAf?$AA?3?$AA?2?$AAd?$AAd?$AA?2?$AAv?$AAc?$AAt?$AAo?$AAo?$AAl?$AAs?$AA?2?$AAc?$AAr?$AAt?$AA_?$AAb?$AAl?$AAd?$AA?2?$AAs?$AAe?$AAl?$AAf?$AA_?$AAx?$AA8?$AA6?$AA?2?$AAc@ 1009e1f8     LIBCMTD:wcsicmp.obj
 0002:0001e25c       ??_C@_1BG@EELGPCPD@?$AA_?$AAw?$AAc?$AAs?$AAi?$AAc?$AAm?$AAp?$AA_?$AAl?$AA?$AA@ 1009e25c     LIBCMTD:wcsicmp.obj
 0002:0001e274       ??_C@_1BC@NHIBDOMC@?$AA_?$AAw?$AAc?$AAs?$AAi?$AAc?$AAm?$AAp?$AA?$AA@ 1009e274     LIBCMTD:wcsicmp.obj
 0002:0001e288       ??_C@_1BM@CBACDFHA@?$AAf?$AAi?$AAr?$AAs?$AAt?$AA?5?$AA?$CB?$AA?$DN?$AA?5?$AAN?$AAU?$AAL?$AAL?$AA?$AA@ 1009e288     LIBCMTD:wcsnicmp.obj
 0002:0001e2a8       ??_C@_1GE@JMKOMBJH@?$AAf?$AA?3?$AA?2?$AAd?$AAd?$AA?2?$AAv?$AAc?$AAt?$AAo?$AAo?$AAl?$AAs?$AA?2?$AAc?$AAr?$AAt?$AA_?$AAb?$AAl?$AAd?$AA?2?$AAs?$AAe?$AAl?$AAf?$AA_?$AAx?$AA8?$AA6?$AA?2?$AAc@ 1009e2a8     LIBCMTD:wcsnicmp.obj
 0002:0001e30c       ??_C@_1BI@KLMFNDBC@?$AA_?$AAw?$AAc?$AAs?$AAn?$AAi?$AAc?$AAm?$AAp?$AA_?$AAl?$AA?$AA@ 1009e30c     LIBCMTD:wcsnicmp.obj
 0002:0001e324       ??_C@_1BK@LKBOPAFJ@?$AAl?$AAa?$AAs?$AAt?$AA?5?$AA?$CB?$AA?$DN?$AA?5?$AAN?$AAU?$AAL?$AAL?$AA?$AA@ 1009e324     LIBCMTD:wcsnicmp.obj
 0002:0001e340       ??_C@_1BE@JKOKKFEL@?$AA_?$AAw?$AAc?$AAs?$AAn?$AAi?$AAc?$AAm?$AAp?$AA?$AA@ 1009e340     LIBCMTD:wcsnicmp.obj
 0002:0001e358       ??_C@_1GA@OFLNHKCJ@?$AAf?$AA?3?$AA?2?$AAd?$AAd?$AA?2?$AAv?$AAc?$AAt?$AAo?$AAo?$AAl?$AAs?$AA?2?$AAc?$AAr?$AAt?$AA_?$AAb?$AAl?$AAd?$AA?2?$AAs?$AAe?$AAl?$AAf?$AA_?$AAx?$AA8?$AA6?$AA?2?$AAc@ 1009e358     LIBCMTD:wcstoq.obj
 0002:0001e3b8       ??_C@_1BA@FACINJJA@?$AAw?$AAc?$AAs?$AAt?$AAo?$AAx?$AAq?$AA?$AA@ 1009e3b8     LIBCMTD:wcstoq.obj
 0002:0001e3c8       __load_config_used         1009e3c8     LIBCMTD:loadcfg.obj
 0002:0001e498       ??_R4error_category@std@@6B@ 1009e498     BackProp.obj
 0002:0001e4ac       ??_R3error_category@std@@8 1009e4ac     BackProp.obj
 0002:0001e4bc       ??_R2error_category@std@@8 1009e4bc     BackProp.obj
 0002:0001e4c4       ??_R1A@?0A@EA@error_category@std@@8 1009e4c4     BackProp.obj
 0002:0001e4e0       ??_R4_Generic_error_category@std@@6B@ 1009e4e0     BackProp.obj
 0002:0001e4f4       ??_R3_Generic_error_category@std@@8 1009e4f4     BackProp.obj
 0002:0001e504       ??_R2_Generic_error_category@std@@8 1009e504     BackProp.obj
 0002:0001e510       ??_R1A@?0A@EA@_Generic_error_category@std@@8 1009e510     BackProp.obj
 0002:0001e52c       ??_R4_Iostream_error_category@std@@6B@ 1009e52c     BackProp.obj
 0002:0001e540       ??_R3_Iostream_error_category@std@@8 1009e540     BackProp.obj
 0002:0001e550       ??_R2_Iostream_error_category@std@@8 1009e550     BackProp.obj
 0002:0001e560       ??_R1A@?0A@EA@_Iostream_error_category@std@@8 1009e560     BackProp.obj
 0002:0001e57c       ??_R4_System_error_category@std@@6B@ 1009e57c     BackProp.obj
 0002:0001e590       ??_R3_System_error_category@std@@8 1009e590     BackProp.obj
 0002:0001e5a0       ??_R2_System_error_category@std@@8 1009e5a0     BackProp.obj
 0002:0001e5b0       ??_R1A@?0A@EA@_System_error_category@std@@8 1009e5b0     BackProp.obj
 0002:0001e5cc       ??_R4Neuron@@6B@           1009e5cc     NeuralLayer.obj
 0002:0001e5e0       ??_R3Neuron@@8             1009e5e0     NeuralLayer.obj
 0002:0001e5f0       ??_R2Neuron@@8             1009e5f0     NeuralLayer.obj
 0002:0001e5f8       ??_R1A@?0A@EA@Neuron@@8    1009e5f8     NeuralLayer.obj
 0002:0001e614       ??_R4NeuralLayer@@6B@      1009e614     NeuralLayer.obj
 0002:0001e628       ??_R3NeuralLayer@@8        1009e628     NeuralLayer.obj
 0002:0001e638       ??_R2NeuralLayer@@8        1009e638     NeuralLayer.obj
 0002:0001e640       ??_R1A@?0A@EA@NeuralLayer@@8 1009e640     NeuralLayer.obj
 0002:0001e65c       ??_R4NeuralNetwork@@6B@    1009e65c     NeuralNetwork.obj
 0002:0001e670       ??_R3NeuralNetwork@@8      1009e670     NeuralNetwork.obj
 0002:0001e680       ??_R2NeuralNetwork@@8      1009e680     NeuralNetwork.obj
 0002:0001e688       ??_R1A@?0A@EA@NeuralNetwork@@8 1009e688     NeuralNetwork.obj
 0002:0001e6a4       ??_R1A@?0A@EA@exception@std@@8 1009e6a4     libcpmtd:xthrow.obj
 0002:0001e6c0       ??_R3exception@std@@8      1009e6c0     libcpmtd:xthrow.obj
 0002:0001e6d0       ??_R2exception@std@@8      1009e6d0     libcpmtd:xthrow.obj
 0002:0001e6d8       ??_R4bad_alloc@std@@6B@    1009e6d8     libcpmtd:xthrow.obj
 0002:0001e6ec       ??_R3bad_alloc@std@@8      1009e6ec     libcpmtd:xthrow.obj
 0002:0001e6fc       ??_R2bad_alloc@std@@8      1009e6fc     libcpmtd:xthrow.obj
 0002:0001e708       ??_R1A@?0A@EA@bad_alloc@std@@8 1009e708     libcpmtd:xthrow.obj
 0002:0001e724       ??_R4logic_error@std@@6B@  1009e724     libcpmtd:xthrow.obj
 0002:0001e738       ??_R3logic_error@std@@8    1009e738     libcpmtd:xthrow.obj
 0002:0001e748       ??_R2logic_error@std@@8    1009e748     libcpmtd:xthrow.obj
 0002:0001e754       ??_R1A@?0A@EA@logic_error@std@@8 1009e754     libcpmtd:xthrow.obj
 0002:0001e770       ??_R4invalid_argument@std@@6B@ 1009e770     libcpmtd:xthrow.obj
 0002:0001e784       ??_R3invalid_argument@std@@8 1009e784     libcpmtd:xthrow.obj
 0002:0001e794       ??_R2invalid_argument@std@@8 1009e794     libcpmtd:xthrow.obj
 0002:0001e7a4       ??_R1A@?0A@EA@invalid_argument@std@@8 1009e7a4     libcpmtd:xthrow.obj
 0002:0001e7c0       ??_R4length_error@std@@6B@ 1009e7c0     libcpmtd:xthrow.obj
 0002:0001e7d4       ??_R3length_error@std@@8   1009e7d4     libcpmtd:xthrow.obj
 0002:0001e7e4       ??_R2length_error@std@@8   1009e7e4     libcpmtd:xthrow.obj
 0002:0001e7f4       ??_R1A@?0A@EA@length_error@std@@8 1009e7f4     libcpmtd:xthrow.obj
 0002:0001e810       ??_R4out_of_range@std@@6B@ 1009e810     libcpmtd:xthrow.obj
 0002:0001e824       ??_R3out_of_range@std@@8   1009e824     libcpmtd:xthrow.obj
 0002:0001e834       ??_R2out_of_range@std@@8   1009e834     libcpmtd:xthrow.obj
 0002:0001e844       ??_R1A@?0A@EA@out_of_range@std@@8 1009e844     libcpmtd:xthrow.obj
 0002:0001e860       ??_R4runtime_error@std@@6B@ 1009e860     libcpmtd:xthrow.obj
 0002:0001e874       ??_R3runtime_error@std@@8  1009e874     libcpmtd:xthrow.obj
 0002:0001e884       ??_R2runtime_error@std@@8  1009e884     libcpmtd:xthrow.obj
 0002:0001e890       ??_R1A@?0A@EA@runtime_error@std@@8 1009e890     libcpmtd:xthrow.obj
 0002:0001e8ac       ??_R4overflow_error@std@@6B@ 1009e8ac     libcpmtd:xthrow.obj
 0002:0001e8c0       ??_R3overflow_error@std@@8 1009e8c0     libcpmtd:xthrow.obj
 0002:0001e8d0       ??_R2overflow_error@std@@8 1009e8d0     libcpmtd:xthrow.obj
 0002:0001e8e0       ??_R1A@?0A@EA@overflow_error@std@@8 1009e8e0     libcpmtd:xthrow.obj
 0002:0001e8fc       ??_R4bad_function_call@std@@6B@ 1009e8fc     libcpmtd:xthrow.obj
 0002:0001e910       ??_R3bad_function_call@std@@8 1009e910     libcpmtd:xthrow.obj
 0002:0001e920       ??_R2bad_function_call@std@@8 1009e920     libcpmtd:xthrow.obj
 0002:0001e92c       ??_R1A@?0A@EA@bad_function_call@std@@8 1009e92c     libcpmtd:xthrow.obj
 0002:0001e948       ??_R4regex_error@std@@6B@  1009e948     libcpmtd:xthrow.obj
 0002:0001e95c       ??_R3regex_error@std@@8    1009e95c     libcpmtd:xthrow.obj
 0002:0001e96c       ??_R2regex_error@std@@8    1009e96c     libcpmtd:xthrow.obj
 0002:0001e97c       ??_R1A@?0A@EA@regex_error@std@@8 1009e97c     libcpmtd:xthrow.obj
 0002:0001e998       ??_R4type_info@@6B@        1009e998     LIBCMTD:typinfo.obj
 0002:0001e9ac       ??_R3type_info@@8          1009e9ac     LIBCMTD:typinfo.obj
 0002:0001e9bc       ??_R2type_info@@8          1009e9bc     LIBCMTD:typinfo.obj
 0002:0001e9c4       ??_R1A@?0A@EA@type_info@@8 1009e9c4     LIBCMTD:typinfo.obj
 0002:0001e9e0       ??_R4exception@std@@6B@    1009e9e0     LIBCMTD:stdexcpt.obj
 0002:0001e9f4       ??_R4bad_cast@std@@6B@     1009e9f4     LIBCMTD:stdexcpt.obj
 0002:0001ea08       ??_R3bad_cast@std@@8       1009ea08     LIBCMTD:stdexcpt.obj
 0002:0001ea18       ??_R2bad_cast@std@@8       1009ea18     LIBCMTD:stdexcpt.obj
 0002:0001ea24       ??_R1A@?0A@EA@bad_cast@std@@8 1009ea24     LIBCMTD:stdexcpt.obj
 0002:0001ea40       ??_R4bad_typeid@std@@6B@   1009ea40     LIBCMTD:stdexcpt.obj
 0002:0001ea54       ??_R3bad_typeid@std@@8     1009ea54     LIBCMTD:stdexcpt.obj
 0002:0001ea64       ??_R2bad_typeid@std@@8     1009ea64     LIBCMTD:stdexcpt.obj
 0002:0001ea70       ??_R1A@?0A@EA@bad_typeid@std@@8 1009ea70     LIBCMTD:stdexcpt.obj
 0002:0001ea8c       ??_R4__non_rtti_object@std@@6B@ 1009ea8c     LIBCMTD:stdexcpt.obj
 0002:0001eaa0       ??_R3__non_rtti_object@std@@8 1009eaa0     LIBCMTD:stdexcpt.obj
 0002:0001eab0       ??_R2__non_rtti_object@std@@8 1009eab0     LIBCMTD:stdexcpt.obj
 0002:0001eac0       ??_R1A@?0A@EA@__non_rtti_object@std@@8 1009eac0     LIBCMTD:stdexcpt.obj
 0002:0001eadc       ??_R4bad_exception@std@@6B@ 1009eadc     LIBCMTD:frame.obj
 0002:0001eaf0       ??_R3bad_exception@std@@8  1009eaf0     LIBCMTD:frame.obj
 0002:0001eb00       ??_R2bad_exception@std@@8  1009eb00     LIBCMTD:frame.obj
 0002:0001eb0c       ??_R1A@?0A@EA@bad_exception@std@@8 1009eb0c     LIBCMTD:frame.obj
 0002:0001eb28       ??_R4DNameNode@@6B@        1009eb28     LIBCMTD:undname.obj
 0002:0001eb3c       ??_R3DNameNode@@8          1009eb3c     LIBCMTD:undname.obj
 0002:0001eb4c       ??_R2DNameNode@@8          1009eb4c     LIBCMTD:undname.obj
 0002:0001eb54       ??_R1A@?0A@EA@DNameNode@@8 1009eb54     LIBCMTD:undname.obj
 0002:0001eb70       ??_R4charNode@@6B@         1009eb70     LIBCMTD:undname.obj
 0002:0001eb84       ??_R3charNode@@8           1009eb84     LIBCMTD:undname.obj
 0002:0001eb94       ??_R2charNode@@8           1009eb94     LIBCMTD:undname.obj
 0002:0001eba0       ??_R1A@?0A@EA@charNode@@8  1009eba0     LIBCMTD:undname.obj
 0002:0001ebbc       ??_R4pcharNode@@6B@        1009ebbc     LIBCMTD:undname.obj
 0002:0001ebd0       ??_R3pcharNode@@8          1009ebd0     LIBCMTD:undname.obj
 0002:0001ebe0       ??_R2pcharNode@@8          1009ebe0     LIBCMTD:undname.obj
 0002:0001ebec       ??_R1A@?0A@EA@pcharNode@@8 1009ebec     LIBCMTD:undname.obj
 0002:0001ec08       ??_R4pDNameNode@@6B@       1009ec08     LIBCMTD:undname.obj
 0002:0001ec1c       ??_R3pDNameNode@@8         1009ec1c     LIBCMTD:undname.obj
 0002:0001ec2c       ??_R2pDNameNode@@8         1009ec2c     LIBCMTD:undname.obj
 0002:0001ec38       ??_R1A@?0A@EA@pDNameNode@@8 1009ec38     LIBCMTD:undname.obj
 0002:0001ec54       ??_R4DNameStatusNode@@6B@  1009ec54     LIBCMTD:undname.obj
 0002:0001ec68       ??_R3DNameStatusNode@@8    1009ec68     LIBCMTD:undname.obj
 0002:0001ec78       ??_R2DNameStatusNode@@8    1009ec78     LIBCMTD:undname.obj
 0002:0001ec84       ??_R1A@?0A@EA@DNameStatusNode@@8 1009ec84     LIBCMTD:undname.obj
 0002:0001eca0       ??_R4pairNode@@6B@         1009eca0     LIBCMTD:undname.obj
 0002:0001ecb4       ??_R3pairNode@@8           1009ecb4     LIBCMTD:undname.obj
 0002:0001ecc4       ??_R2pairNode@@8           1009ecc4     LIBCMTD:undname.obj
 0002:0001ecd0       ??_R1A@?0A@EA@pairNode@@8  1009ecd0     LIBCMTD:undname.obj
 0002:0001ecf0       ___safe_se_handler_table   1009ecf0     <linker-defined>
 0002:0001edc8       ___rtc_iaa                 1009edc8     LIBCMTD:initsect.obj
 0002:0001edf4       ___rtc_izz                 1009edf4     LIBCMTD:initsect.obj
 0002:0001edf8       ___rtc_taa                 1009edf8     LIBCMTD:initsect.obj
 0002:0001ee24       ___rtc_tzz                 1009ee24     LIBCMTD:initsect.obj
 0002:0001f780       __TI2?AVbad_alloc@std@@    1009f780     libcpmtd:xthrow.obj
 0002:0001f790       __CTA2?AVbad_alloc@std@@   1009f790     libcpmtd:xthrow.obj
 0002:0001f79c       __CT??_R0?AVbad_alloc@std@@@8??0bad_alloc@std@@QAE@ABV01@@Z12 1009f79c     libcpmtd:xthrow.obj
 0002:0001f7b8       __CT??_R0?AVexception@std@@@8??0exception@std@@QAE@ABV01@@Z12 1009f7b8     libcpmtd:xthrow.obj
 0002:0001f7d4       __TI3?AVinvalid_argument@std@@ 1009f7d4     libcpmtd:xthrow.obj
 0002:0001f7e4       __CTA3?AVinvalid_argument@std@@ 1009f7e4     libcpmtd:xthrow.obj
 0002:0001f7f4       __CT??_R0?AVinvalid_argument@std@@@8??0invalid_argument@std@@QAE@ABV01@@Z12 1009f7f4     libcpmtd:xthrow.obj
 0002:0001f810       __CT??_R0?AVlogic_error@std@@@8??0logic_error@std@@QAE@ABV01@@Z12 1009f810     libcpmtd:xthrow.obj
 0002:0001f82c       __TI3?AVlength_error@std@@ 1009f82c     libcpmtd:xthrow.obj
 0002:0001f83c       __CTA3?AVlength_error@std@@ 1009f83c     libcpmtd:xthrow.obj
 0002:0001f84c       __CT??_R0?AVlength_error@std@@@8??0length_error@std@@QAE@ABV01@@Z12 1009f84c     libcpmtd:xthrow.obj
 0002:0001f868       __TI3?AVout_of_range@std@@ 1009f868     libcpmtd:xthrow.obj
 0002:0001f878       __CTA3?AVout_of_range@std@@ 1009f878     libcpmtd:xthrow.obj
 0002:0001f888       __CT??_R0?AVout_of_range@std@@@8??0out_of_range@std@@QAE@ABV01@@Z12 1009f888     libcpmtd:xthrow.obj
 0002:0001f8a4       __TI3?AVoverflow_error@std@@ 1009f8a4     libcpmtd:xthrow.obj
 0002:0001f8b4       __CTA3?AVoverflow_error@std@@ 1009f8b4     libcpmtd:xthrow.obj
 0002:0001f8c4       __CT??_R0?AVoverflow_error@std@@@8??0overflow_error@std@@QAE@ABV01@@Z12 1009f8c4     libcpmtd:xthrow.obj
 0002:0001f8e0       __CT??_R0?AVruntime_error@std@@@8??0runtime_error@std@@QAE@ABV01@@Z12 1009f8e0     libcpmtd:xthrow.obj
 0002:0001f8fc       __TI2?AVruntime_error@std@@ 1009f8fc     libcpmtd:xthrow.obj
 0002:0001f90c       __CTA2?AVruntime_error@std@@ 1009f90c     libcpmtd:xthrow.obj
 0002:0001f918       __TI2?AVbad_function_call@std@@ 1009f918     libcpmtd:xthrow.obj
 0002:0001f928       __CTA2?AVbad_function_call@std@@ 1009f928     libcpmtd:xthrow.obj
 0002:0001f934       __CT??_R0?AVbad_function_call@std@@@8??0bad_function_call@std@@QAE@ABV01@@Z12 1009f934     libcpmtd:xthrow.obj
 0002:0001f950       __TI3?AVregex_error@std@@  1009f950     libcpmtd:xthrow.obj
 0002:0001f960       __CTA3?AVregex_error@std@@ 1009f960     libcpmtd:xthrow.obj
 0002:0001f970       __CT??_R0?AVregex_error@std@@@8??0regex_error@std@@QAE@ABV01@@Z16 1009f970     libcpmtd:xthrow.obj
 0002:0001ffcc       __TI2?AVbad_exception@std@@ 1009ffcc     LIBCMTD:frame.obj
 0002:0001ffdc       __CTA2?AVbad_exception@std@@ 1009ffdc     LIBCMTD:frame.obj
 0002:0001ffe8       __CT??_R0?AVbad_exception@std@@@8??0bad_exception@std@@QAE@ABV01@@Z12 1009ffe8     LIBCMTD:frame.obj
 0002:00020624       __IMPORT_DESCRIPTOR_client 100a0624     client:client.dll
 0002:00020638       __IMPORT_DESCRIPTOR_tgf    100a0638     tgf:tgf.dll
 0002:0002064c       __IMPORT_DESCRIPTOR_robottools 100a064c     robottools:robottools.dll
 0002:00020660       __IMPORT_DESCRIPTOR_KERNEL32 100a0660     kernel32:KERNEL32.dll
 0002:00020674       __NULL_IMPORT_DESCRIPTOR   100a0674     client:client.dll
 0003:00000000       ??_R0?AVerror_category@std@@@8 100a2000     BackProp.obj
 0003:00000024       ??_R0?AV_Generic_error_category@std@@@8 100a2024     BackProp.obj
 0003:00000050       ??_R0?AV_Iostream_error_category@std@@@8 100a2050     BackProp.obj
 0003:0000007c       ??_R0?AV_System_error_category@std@@@8 100a207c     BackProp.obj
 0003:000000a8       ??_R0?AUNeuron@@@8         100a20a8     NeuralLayer.obj
 0003:000000c0       ??_R0?AVNeuralLayer@@@8    100a20c0     NeuralLayer.obj
 0003:000000dc       ??_R0?AVNeuralNetwork@@@8  100a20dc     NeuralNetwork.obj
 0003:00000130       ?Yn@@3PAPBDA               100a2130     pref.obj
 0003:00000138       ?CmdControlRef@@3PAUtControlCmd@@A 100a2138     pref.obj
 0003:000005f8       ?_sgdGravity@@3PANA        100a25f8     sg_vs2008_32:sgd.obj
 0003:00000620       ??_R0?AVbad_alloc@std@@@8  100a2620     libcpmtd:xthrow.obj
 0003:0000063c       ??_R0?AVexception@std@@@8  100a263c     libcpmtd:xthrow.obj
 0003:00000658       ??_R0?AVinvalid_argument@std@@@8 100a2658     libcpmtd:xthrow.obj
 0003:0000067c       ??_R0?AVlogic_error@std@@@8 100a267c     libcpmtd:xthrow.obj
 0003:0000069c       ??_R0?AVlength_error@std@@@8 100a269c     libcpmtd:xthrow.obj
 0003:000006bc       ??_R0?AVout_of_range@std@@@8 100a26bc     libcpmtd:xthrow.obj
 0003:000006dc       ??_R0?AVoverflow_error@std@@@8 100a26dc     libcpmtd:xthrow.obj
 0003:00000700       ??_R0?AVruntime_error@std@@@8 100a2700     libcpmtd:xthrow.obj
 0003:00000720       ??_R0?AVbad_function_call@std@@@8 100a2720     libcpmtd:xthrow.obj
 0003:00000744       ??_R0?AVregex_error@std@@@8 100a2744     libcpmtd:xthrow.obj
 0003:00000770       ??_R0?AVtype_info@@@8      100a2770     LIBCMTD:typinfo.obj
 0003:00000788       ___security_cookie         100a2788     LIBCMTD:gs_cookie.obj
 0003:0000078c       ___security_cookie_complement 100a278c     LIBCMTD:gs_cookie.obj
 0003:00000790       __fltused                  100a2790     LIBCMTD:fpinit.obj
 0003:00000794       __ldused                   100a2794     LIBCMTD:fpinit.obj
 0003:00000800       __half                     100a2800     LIBCMTD:pow.obj
 0003:00000830       __iob                      100a2830     LIBCMTD:_file.obj
 0003:00000bd0       ??_R0?AVbad_cast@std@@@8   100a2bd0     LIBCMTD:stdexcpt.obj
 0003:00000bec       ??_R0?AVbad_typeid@std@@@8 100a2bec     LIBCMTD:stdexcpt.obj
 0003:00000c0c       ??_R0?AV__non_rtti_object@std@@@8 100a2c0c     LIBCMTD:stdexcpt.obj
 0003:00000c34       ___abort_behavior          100a2c34     LIBCMTD:abort.obj
 0003:00000c40       __crtDbgFlag               100a2c40     LIBCMTD:dbgheap.obj
 0003:00000c44       __crtBreakAlloc            100a2c44     LIBCMTD:dbgheap.obj
 0003:00000c48       ___crtDebugFillThreshold   100a2c48     LIBCMTD:dbgheap.obj
 0003:00000dc0       ___nullstring              100a2dc0     LIBCMTD:output.obj
 0003:00000dc4       ___wnullstring             100a2dc4     LIBCMTD:output.obj
 0003:00000dc8       ___badioinfo               100a2dc8     LIBCMTD:ioinit.obj
 0003:00000e08       ___flsindex                100a2e08     LIBCMTD:tidtable.obj
 0003:00000e0c       ___isa_enabled             100a2e0c     LIBCMTD:cpu_disp.obj
 0003:00000e10       ?_RTC_ErrorLevels@@3PAHA   100a2e10     LIBCMTD:error.obj
 0003:00000e30       ??_R0?AVbad_exception@std@@@8 100a2e30     LIBCMTD:frame.obj
 0003:00000e50       __cfltcvt_tab              100a2e50     LIBCMTD:cmiscdat.obj
 0003:00000f68       __d_inf                    100a2f68     LIBCMTD:util.obj
 0003:00000f70       __d_ind                    100a2f70     LIBCMTD:util.obj
 0003:00000f78       __d_max                    100a2f78     LIBCMTD:util.obj
 0003:00000f80       __d_min                    100a2f80     LIBCMTD:util.obj
 0003:00000f88       __d_mzero                  100a2f88     LIBCMTD:util.obj
 0003:00000fb4       __pfnAllocHook             100a2fb4     LIBCMTD:dbghook.obj
 0003:00000fc0       __CrtDbgMode               100a2fc0     LIBCMTD:dbgrptt.obj
 0003:00000fcc       __CrtDbgFile               100a2fcc     LIBCMTD:dbgrptt.obj
 0003:00000fd8       __crtAssertBusy            100a2fd8     LIBCMTD:dbgrptt.obj
 0003:00000fec       ___ptmbcinfo               100a2fec     LIBCMTD:mbctype.obj
 0003:000010e0       __mbctype                  100a30e0     LIBCMTD:mbctype.obj
 0003:000011e8       __mbcasemap                100a31e8     LIBCMTD:mbctype.obj
 0003:000012e8       ___initialmbcinfo          100a32e8     LIBCMTD:mbctype.obj
 0003:0000150c       ___wclocalestr             100a350c     LIBCMTD:nlsdata.obj
 0003:00001510       ___lc_time_c               100a3510     LIBCMTD:nlsdata.obj
 0003:00001674       ___ptlocinfo               100a3674     LIBCMTD:nlsdata.obj
 0003:00001678       ___initiallocinfo          100a3678     LIBCMTD:nlsdata.obj
 0003:00001730       ___initiallocalestructinfo 100a3730     LIBCMTD:nlsdata.obj
 0003:00001738       ___mb_cur_max              100a3738     LIBCMTD:nlsdata.obj
 0003:0000173c       ___globallocalestatus      100a373c     LIBCMTD:glstatus.obj
 0003:00001740       __NLG_Destination          100a3740     LIBCMTD:exsup.obj
 0003:00001750       ??_R0?AVDNameNode@@@8      100a3750     LIBCMTD:undname.obj
 0003:00001768       ??_R0?AVcharNode@@@8       100a3768     LIBCMTD:undname.obj
 0003:00001780       ??_R0?AVpcharNode@@@8      100a3780     LIBCMTD:undname.obj
 0003:00001798       ??_R0?AVpDNameNode@@@8     100a3798     LIBCMTD:undname.obj
 0003:000017b4       ??_R0?AVDNameStatusNode@@@8 100a37b4     LIBCMTD:undname.obj
 0003:000017d4       ??_R0?AVpairNode@@@8       100a37d4     LIBCMTD:undname.obj
 0003:000017f0       __matherr_flag             100a37f0     LIBCMTD:matherr.obj
 0003:000017f8       ___lconv                   100a37f8     LIBCMTD:lconv.obj
 0003:000017fc       ___lconv_static_decimal    100a37fc     LIBCMTD:lconv.obj
 0003:00001800       ___lconv_c                 100a3800     LIBCMTD:lconv.obj
 0003:00001850       ___lconv_static_W_decimal  100a3850     LIBCMTD:lconv.obj
 0003:00001858       __pctype                   100a3858     LIBCMTD:ctype.obj
 0003:0000185c       __pwctype                  100a385c     LIBCMTD:ctype.obj
 0003:00001860       __lookuptrailbytes         100a3860     LIBCMTD:read.obj
 0003:00001990       __confh                    100a3990     LIBCMTD:initcon.obj
 0003:000019a0       __pow10pos                 100a39a0     LIBCMTD:constpow.obj
 0003:00001b00       __pow10neg                 100a3b00     LIBCMTD:constpow.obj
 0003:00001c64       ?_Generic_object@?$_Error_objects@H@std@@2V_Generic_error_category@2@A 100a3c64     BackProp.obj
 0003:00001c68       ?_Iostream_object@?$_Error_objects@H@std@@2V_Iostream_error_category@2@A 100a3c68     BackProp.obj
 0003:00001c6c       ?_System_object@?$_Error_objects@H@std@@2V_System_error_category@2@A 100a3c6c     BackProp.obj
 0003:00001c78       ?TPRES@Pathfinder@@0NB     100a3c78     pathfinder.obj
 0003:00001ca4       ?HCtx@@3PAPAUHumanContext@@A 100a3ca4     ANN_Bot_2.obj
 0003:00001ccc       ?joyPresent@@3HA           100a3ccc     ANN_Bot_2.obj
 0003:00003ce0       ?PrefHdle@@3PAXA           100a5ce0     pref.obj
 0003:0000415c       ?id@?$num_put@DV?$back_insert_iterator@V?$basic_string@DU?$char_traits@D@std@@V?$allocator@D@2@@std@@@std@@@std@@2V0locale@2@A 100a615c     libcpmtd:xthrow.obj
 0003:00004160       ?id@?$num_put@_WV?$back_insert_iterator@V?$basic_string@_WU?$char_traits@_W@std@@V?$allocator@_W@2@@std@@@std@@@std@@2V0locale@2@A 100a6160     libcpmtd:xthrow.obj
 0003:00004164       ?id@?$numpunct@D@std@@2V0locale@2@A 100a6164     libcpmtd:xthrow.obj
 0003:00004168       ?id@?$numpunct@_W@std@@2V0locale@2@A 100a6168     libcpmtd:xthrow.obj
 0003:00004178       ___fastflag                100a6178     LIBCMTD:fpinit.obj
 0003:0000417c       ___pInvalidArgHandler      100a617c     LIBCMTD:invarg.obj
 0003:000044a0       __aenvptr                  100a64a0     LIBCMTD:dllcrt0.obj
 0003:000044a4       __wenvptr                  100a64a4     LIBCMTD:dllcrt0.obj
 0003:000044ac       __umaskval                 100a64ac     LIBCMTD:crt0dat.obj
 0003:000044b0       __exitflag                 100a64b0     LIBCMTD:crt0dat.obj
 0003:000044b4       __C_Termination_Done       100a64b4     LIBCMTD:crt0dat.obj
 0003:000044b8       ___winitenv                100a64b8     LIBCMTD:crt0dat.obj
 0003:000044bc       ___initenv                 100a64bc     LIBCMTD:crt0dat.obj
 0003:000044c0       __C_Exit_Done              100a64c0     LIBCMTD:crt0dat.obj
 0003:000044c8       ___argc                    100a64c8     LIBCMTD:crt0dat.obj
 0003:000044cc       ___argv                    100a64cc     LIBCMTD:crt0dat.obj
 0003:000044d0       ___wargv                   100a64d0     LIBCMTD:crt0dat.obj
 0003:000044d4       __environ                  100a64d4     LIBCMTD:crt0dat.obj
 0003:000044d8       __wenviron                 100a64d8     LIBCMTD:crt0dat.obj
 0003:000044dc       __pgmptr                   100a64dc     LIBCMTD:crt0dat.obj
 0003:000044e0       __wpgmptr                  100a64e0     LIBCMTD:crt0dat.obj
 0003:000044e4       __cflush                   100a64e4     LIBCMTD:_file.obj
 0003:00004650       ___app_type                100a6650     LIBCMTD:crt0msg.obj
 0003:00004c80       ___pPurecall               100a6c80     LIBCMTD:inithelp.obj
 0003:00004c84       ?_pnhHeap@@3P6AHI@ZA       100a6c84     LIBCMTD:handler.obj
 0003:00004c88       ___crtDebugCheckCount      100a6c88     LIBCMTD:dbgheap.obj
 0003:00004c90       ?_pfnDumpClient@@3P6AXPAXI@ZA 100a6c90     LIBCMTD:dbgheap.obj
 0003:00004cac       __stdbuf                   100a6cac     LIBCMTD:_sftbuf.obj
 0003:00004cb8       ___pioinfo                 100a6cb8     LIBCMTD:ioinit.obj
 0003:00004db8       ___isa_available           100a6db8     LIBCMTD:cpu_disp.obj
 0003:00004dbc       ___favor                   100a6dbc     LIBCMTD:cpu_disp.obj
 0003:00004dc0       ?wsprintffp@@3P6AHPADPBDZZA 100a6dc0     LIBCMTD:error.obj
 0003:00004dcc       ?__pInconsistency@@3P6AXXZA 100a6dcc     LIBCMTD:hooks.obj
 0003:00004e04       __newmode                  100a6e04     LIBCMTD:_newmode.obj
 0003:00004e08       __crtheap                  100a6e08     LIBCMTD:heapinit.obj
 0003:00004f1c       ___mblocalename            100a6f1c     LIBCMTD:mbctype.obj
 0003:00004f20       ___mbcodepage              100a6f20     LIBCMTD:mbctype.obj
 0003:00004f24       ___ismbcodepage            100a6f24     LIBCMTD:mbctype.obj
 0003:00004f28       ___mbulinfo                100a6f28     LIBCMTD:mbctype.obj
 0003:00004f38       ___error_mode              100a6f38     LIBCMTD:errmode.obj
 0003:00004f40       __commode                  100a6f40     LIBCMTD:ncommode.obj
 0003:00004f4c       ?pArgList@UnDecorator@@0PAVReplicator@@A 100a6f4c     LIBCMTD:undname.obj
 0003:00004f50       ?pZNameList@UnDecorator@@0PAVReplicator@@A 100a6f50     LIBCMTD:undname.obj
 0003:00004f54       ?pTemplateArgList@UnDecorator@@0PAVReplicator@@A 100a6f54     LIBCMTD:undname.obj
 0003:00004f58       ?gName@UnDecorator@@0PBDB  100a6f58     LIBCMTD:undname.obj
 0003:00004f5c       ?name@UnDecorator@@0PBDB   100a6f5c     LIBCMTD:undname.obj
 0003:00004f60       ?outputString@UnDecorator@@0PADA 100a6f60     LIBCMTD:undname.obj
 0003:00004f64       ?maxStringLength@UnDecorator@@0HA 100a6f64     LIBCMTD:undname.obj
 0003:00004f68       ?disableFlags@UnDecorator@@0KA 100a6f68     LIBCMTD:undname.obj
 0003:00004f6c       ?fExplicitTemplateParams@UnDecorator@@0_NA 100a6f6c     LIBCMTD:undname.obj
 0003:00004f6d       ?fGetTemplateArgumentList@UnDecorator@@0_NA 100a6f6d     LIBCMTD:undname.obj
 0003:00004f70       ?m_pGetParameter@UnDecorator@@0P6APADJ@ZA 100a6f70     LIBCMTD:undname.obj
 0003:00004fd8       ?nodes@?1??make@DNameStatusNode@@SAPAV2@W4DNameStatus@@@Z@4PAV2@A 100a6fd8     LIBCMTD:undname.obj
 0003:00005008       ??_B?1??make@DNameStatusNode@@SAPAV1@W4DNameStatus@@@Z@51 100a7008     LIBCMTD:undname.obj
 0003:0000500c       __outputformat             100a700c     LIBCMTD:outputformat.obj
 0003:00005010       ___lconv_static_null       100a7010     LIBCMTD:lconv.obj
 0003:00005014       ___lconv_static_W_null     100a7014     LIBCMTD:lconv.obj
 0003:00005018       ___locale_changed          100a7018     LIBCMTD:wsetloca.obj
 0003:0000501c       __fmode                    100a701c     LIBCMTD:txtmode.obj
 0003:00005020       ___unguarded_readlc_active 100a7020     <common>
 0003:00005024       ___setlc_active            100a7024     <common>
 0003:00005028       __pReportHookListW         100a7028     <common>
 0003:0000502c       __pReportHookList          100a702c     <common>
 0003:00005030       __pfnReportHook            100a7030     <common>
 0003:00005034       __debugger_hook_dummy      100a7034     <common>
 0003:00005038       __pmatherr                 100a7038     <common>
 0003:0000503c       __nhandle                  100a703c     <common>
 0003:00005040       ___use_sse2_mathfcns       100a7040     <common>
 0003:00005060       _encodedKERNEL32Functions  100a7060     <common>
 0003:000050d4       ___piob                    100a70d4     <common>
 0003:000050d8       __nstream                  100a70d8     <common>
 0003:000050e0       __bufin                    100a70e0     <common>
 0003:000060e0       ___dyn_tls_init_callback   100a80e0     <common>
 0003:000060e4       ___onexitend               100a80e4     <common>
 0003:000060e8       ___onexitbegin             100a80e8     <common>
 0003:000060ec       ___mbctype_initialized     100a80ec     <common>
 0003:000060f0       ___env_initialized         100a80f0     <common>
 0003:000060f4       __acmdln                   100a80f4     <common>

 entry point at        0001:000299d0

 Static symbols

 0000:fff51000       .debug$S                   10000000     client:client.dll
 0002:fff80000       ?_System_object$initializer$@?$_Error_objects@H@std@@2P6AXXZA 10000000     libcpmtd:syserror.obj
 0002:fff80000       ?_Iostream_object$initializer$@?$_Error_objects@H@std@@2P6AXXZA 10000000     libcpmtd:syserror.obj
 0002:fff80000       ?_Generic_object$initializer$@?$_Error_objects@H@std@@2P6AXXZA 10000000     libcpmtd:syserror.obj
 0002:fff80000       __unwindtable$??$construct@PADAAPAD@?$allocator@D@std@@QAEXPAPADAAPAD@Z 10000000     libcpmtd:syserror.obj
 0002:fff80000       __unwindtable$??$construct@U_Container_proxy@std@@U12@@?$allocator@U_Container_proxy@std@@@std@@QAEXPAU_Container_proxy@1@$$QAU21@@Z 10000000     NeuralNetwork.obj
 0002:fff80000       __unwindtable$??$construct@U_Container_proxy@std@@U12@@?$allocator@U_Container_proxy@std@@@std@@QAEXPAU_Container_proxy@1@$$QAU21@@Z 10000000     libcpmtd:syserror.obj
 0002:fff80000       __unwindtable$??$construct@PADAAPAD@?$allocator@D@std@@QAEXPAPADAAPAD@Z 10000000     NeuralNetwork.obj
 0002:fff80000       __catchsym$?_Copy@?$basic_string@DU?$char_traits@D@std@@V?$allocator@D@2@@std@@QAEXII@Z$5 10000000     libcpmtd:syserror.obj
 0001:fffff000       __unwindfunclet$?_Orphan_range@?$vector@MV?$allocator@M@std@@@std@@IBEXPAM0@Z$0 10000000 f   ANN_Bot_2.obj
 0002:fff80000       __unwindtable$??$construct@PADAAPAD@?$allocator@D@std@@QAEXPAPADAAPAD@Z 10000000     ANN_Bot_2.obj
 0001:fffff000       __unwindfunclet$??0?$_Vector_alloc@$0A@U?$_Vec_base_types@MV?$allocator@M@std@@@std@@@std@@QAE@ABV?$allocator@M@1@@Z$0 10000000 f   ANN_Bot_2.obj
 0001:fffff000       __unwindfunclet$??$construct@U_Container_proxy@std@@U12@@?$allocator@U_Container_proxy@std@@@std@@QAEXPAU_Container_proxy@1@$$QAU21@@Z$0 10000000 f   ANN_Bot_2.obj
 0002:fff80000       __unwindtable$??0?$basic_string@DU?$char_traits@D@std@@V?$allocator@D@2@@std@@QAE@PBD@Z 10000000     libcpmtd:syserror.obj
 0002:fff80000       __unwindtable$??0?$_Vector_alloc@$0A@U?$_Vec_base_types@PAUNeuron@@V?$allocator@PAUNeuron@@@std@@@std@@@std@@QAE@ABV?$allocator@PAUNeuron@@@1@@Z 10000000     NeuralNetwork.obj
 0002:fff80000       __unwindtable$??0?$_String_alloc@$0A@U?$_String_base_types@DV?$allocator@D@std@@@std@@@std@@QAE@ABV?$allocator@D@1@@Z 10000000     libcpmtd:syserror.obj
 0002:fff80000       __catchsym$?_Copy@?$basic_string@DU?$char_traits@D@std@@V?$allocator@D@2@@std@@QAEXII@Z$5 10000000     NeuralNetwork.obj
 0001:fffff000       __unwindfunclet$??$construct@PADAAPAD@?$allocator@D@std@@QAEXPAPADAAPAD@Z$0 10000000 f   libcpmtd:syserror.obj
 0001:fffff000       __ehhandler$?_Copy@?$basic_string@DU?$char_traits@D@std@@V?$allocator@D@2@@std@@QAEXII@Z 10000000 f   ANN_Bot_2.obj
 0001:fffff000       __unwindfunclet$??$construct@U_Container_proxy@std@@U12@@?$allocator@U_Container_proxy@std@@@std@@QAEXPAU_Container_proxy@1@$$QAU21@@Z$0 10000000 f   libcpmtd:syserror.obj
 0001:fffff000       __unwindfunclet$??0?$basic_string@DU?$char_traits@D@std@@V?$allocator@D@2@@std@@QAE@PBD@Z$0 10000000 f   ANN_Bot_2.obj
 0002:fff80000       __unwindtable$??$construct@MAAM@?$allocator@M@std@@QAEXPAMAAM@Z 10000000     ANN_Bot_2.obj
 0001:fffff000       __unwindfunclet$??0?$_String_alloc@$0A@U?$_String_base_types@DV?$allocator@D@std@@@std@@@std@@QAE@ABV?$allocator@D@1@@Z$0 10000000 f   NeuralNetwork.obj
 0001:fffff000       __ehhandler$?_Copy@?$basic_string@DU?$char_traits@D@std@@V?$allocator@D@2@@std@@QAEXII@Z 10000000 f   libcpmtd:syserror.obj
 0001:fffff000       __unwindfunclet$??0?$basic_string@DU?$char_traits@D@std@@V?$allocator@D@2@@std@@QAE@PBD@Z$0 10000000 f   libcpmtd:syserror.obj
 0002:fff80000       __unwindtable$??$construct@MM@?$allocator@M@std@@QAEXPAM$$QAM@Z 10000000     ANN_Bot_2.obj
 0001:fffff000       __unwindfunclet$??0?$_String_alloc@$0A@U?$_String_base_types@DV?$allocator@D@std@@@std@@@std@@QAE@ABV?$allocator@D@1@@Z$0 10000000 f   libcpmtd:syserror.obj
 0002:fff80000       __unwindtable$??$construct@U_Container_proxy@std@@U12@@?$allocator@U_Container_proxy@std@@@std@@QAEXPAU_Container_proxy@1@$$QAU21@@Z 10000000     ANN_Bot_2.obj
 0000:fff51000       .debug$S                   10000000     kernel32:KERNEL32.dll
 0000:fff51000       .debug$S                   10000000     kernel32:KERNEL32.dll
 0000:fff51000       .debug$S                   10000000     kernel32:KERNEL32.dll
 0000:fff51000       .debug$S                   10000000     kernel32:KERNEL32.dll
 0000:fff51000       .debug$S                   10000000     kernel32:KERNEL32.dll
 0000:fff51000       .debug$S                   10000000     kernel32:KERNEL32.dll
 0000:fff51000       .debug$S                   10000000     kernel32:KERNEL32.dll
 0000:fff51000       .debug$S                   10000000     kernel32:KERNEL32.dll
 0000:fff51000       .debug$S                   10000000     kernel32:KERNEL32.dll
 0000:fff51000       .debug$S                   10000000     kernel32:KERNEL32.dll
 0000:fff51000       .debug$S                   10000000     kernel32:KERNEL32.dll
 0000:fff51000       .debug$S                   10000000     kernel32:KERNEL32.dll
 0000:fff51000       .debug$S                   10000000     kernel32:KERNEL32.dll
 0000:fff51000       .debug$S                   10000000     kernel32:KERNEL32.dll
 0000:fff51000       .debug$S                   10000000     kernel32:KERNEL32.dll
 0000:fff51000       .debug$S                   10000000     kernel32:KERNEL32.dll
 0000:fff51000       .debug$S                   10000000     kernel32:KERNEL32.dll
 0000:fff51000       .debug$S                   10000000     kernel32:KERNEL32.dll
 0000:fff51000       .debug$S                   10000000     kernel32:KERNEL32.dll
 0000:fff51000       .debug$S                   10000000     kernel32:KERNEL32.dll
 0000:fff51000       .debug$S                   10000000     kernel32:KERNEL32.dll
 0000:fff51000       .debug$S                   10000000     kernel32:KERNEL32.dll
 0000:fff51000       .debug$S                   10000000     kernel32:KERNEL32.dll
 0000:fff51000       .debug$S                   10000000     kernel32:KERNEL32.dll
 0000:fff51000       .debug$S                   10000000     kernel32:KERNEL32.dll
 0000:fff51000       .debug$S                   10000000     kernel32:KERNEL32.dll
 0000:fff51000       .debug$S                   10000000     kernel32:KERNEL32.dll
 0000:fff51000       .debug$S                   10000000     kernel32:KERNEL32.dll
 0000:fff51000       .debug$S                   10000000     kernel32:KERNEL32.dll
 0000:fff51000       .debug$S                   10000000     kernel32:KERNEL32.dll
 0000:fff51000       .debug$S                   10000000     kernel32:KERNEL32.dll
 0000:fff51000       .debug$S                   10000000     kernel32:KERNEL32.dll
 0000:fff51000       .debug$S                   10000000     kernel32:KERNEL32.dll
 0000:fff51000       .debug$S                   10000000     kernel32:KERNEL32.dll
 0000:fff51000       .debug$S                   10000000     kernel32:KERNEL32.dll
 0000:fff51000       .debug$S                   10000000     kernel32:KERNEL32.dll
 0000:fff51000       .debug$S                   10000000     kernel32:KERNEL32.dll
 0000:fff51000       .debug$S                   10000000     kernel32:KERNEL32.dll
 0000:fff51000       .debug$S                   10000000     kernel32:KERNEL32.dll
 0000:fff51000       .debug$S                   10000000     kernel32:KERNEL32.dll
 0000:fff51000       .debug$S                   10000000     kernel32:KERNEL32.dll
 0000:fff51000       .debug$S                   10000000     kernel32:KERNEL32.dll
 0000:fff51000       .debug$S                   10000000     kernel32:KERNEL32.dll
 0000:fff51000       .debug$S                   10000000     kernel32:KERNEL32.dll
 0000:fff51000       .debug$S                   10000000     kernel32:KERNEL32.dll
 0000:fff51000       .debug$S                   10000000     kernel32:KERNEL32.dll
 0000:fff51000       .debug$S                   10000000     kernel32:KERNEL32.dll
 0000:fff51000       .debug$S                   10000000     kernel32:KERNEL32.dll
 0000:fff51000       .debug$S                   10000000     kernel32:KERNEL32.dll
 0000:fff51000       .debug$S                   10000000     kernel32:KERNEL32.dll
 0000:fff51000       .debug$S                   10000000     kernel32:KERNEL32.dll
 0000:fff51000       .debug$S                   10000000     kernel32:KERNEL32.dll
 0000:fff51000       .debug$S                   10000000     kernel32:KERNEL32.dll
 0000:fff51000       .debug$S                   10000000     kernel32:KERNEL32.dll
 0000:fff51000       .debug$S                   10000000     kernel32:KERNEL32.dll
 0000:fff51000       .debug$S                   10000000     kernel32:KERNEL32.dll
 0000:fff51000       .debug$S                   10000000     kernel32:KERNEL32.dll
 0000:fff51000       .debug$S                   10000000     kernel32:KERNEL32.dll
 0000:fff51000       .debug$S                   10000000     kernel32:KERNEL32.dll
 0000:fff51000       .debug$S                   10000000     kernel32:KERNEL32.dll
 0000:fff51000       .debug$S                   10000000     kernel32:KERNEL32.dll
 0000:fff51000       .debug$S                   10000000     kernel32:KERNEL32.dll
 0000:fff51000       .debug$S                   10000000     kernel32:KERNEL32.dll
 0000:fff51000       .debug$S                   10000000     kernel32:KERNEL32.dll
 0000:fff51000       .debug$S                   10000000     kernel32:KERNEL32.dll
 0000:fff51000       .debug$S                   10000000     kernel32:KERNEL32.dll
 0000:fff51000       .debug$S                   10000000     kernel32:KERNEL32.dll
 0000:fff51000       .debug$S                   10000000     kernel32:KERNEL32.dll
 0000:fff51000       .debug$S                   10000000     kernel32:KERNEL32.dll
 0000:fff51000       .debug$S                   10000000     kernel32:KERNEL32.dll
 0000:fff51000       .debug$S                   10000000     kernel32:KERNEL32.dll
 0000:fff51000       .debug$S                   10000000     kernel32:KERNEL32.dll
 0000:fff51000       .debug$S                   10000000     kernel32:KERNEL32.dll
 0000:fff51000       .debug$S                   10000000     kernel32:KERNEL32.dll
 0000:fff51000       .debug$S                   10000000     kernel32:KERNEL32.dll
 0000:fff51000       .debug$S                   10000000     kernel32:KERNEL32.dll
 0000:fff51000       .debug$S                   10000000     kernel32:KERNEL32.dll
 0000:fff51000       .debug$S                   10000000     kernel32:KERNEL32.dll
 0000:fff51000       .debug$S                   10000000     kernel32:KERNEL32.dll
 0000:fff51000       .debug$S                   10000000     kernel32:KERNEL32.dll
 0000:fff51000       .debug$S                   10000000     kernel32:KERNEL32.dll
 0000:fff51000       .debug$S                   10000000     kernel32:KERNEL32.dll
 0000:fff51000       .debug$S                   10000000     kernel32:KERNEL32.dll
 0000:fff51000       .debug$S                   10000000     kernel32:KERNEL32.dll
 0000:fff51000       .debug$S                   10000000     kernel32:KERNEL32.dll
 0000:fff51000       .debug$S                   10000000     kernel32:KERNEL32.dll
 0000:fff51000       .debug$S                   10000000     kernel32:KERNEL32.dll
 0000:fff51000       .debug$S                   10000000     kernel32:KERNEL32.dll
 0000:fff51000       .debug$S                   10000000     kernel32:KERNEL32.dll
 0000:fff51000       .debug$S                   10000000     robottools:robottools.dll
 0000:fff51000       .debug$S                   10000000     robottools:robottools.dll
 0000:fff51000       .debug$S                   10000000     tgf:tgf.dll
 0000:fff51000       .debug$S                   10000000     tgf:tgf.dll
 0000:fff51000       .debug$S                   10000000     tgf:tgf.dll
 0000:fff51000       .debug$S                   10000000     tgf:tgf.dll
 0000:fff51000       .debug$S                   10000000     tgf:tgf.dll
 0000:fff51000       .debug$S                   10000000     tgf:tgf.dll
 0000:fff51000       .debug$S                   10000000     tgf:tgf.dll
 0000:fff51000       .debug$S                   10000000     tgf:tgf.dll
 0000:fff51000       .debug$S                   10000000     tgf:tgf.dll
 0000:fff51000       .debug$S                   10000000     tgf:tgf.dll
 0000:fff51000       .debug$S                   10000000     tgf:tgf.dll
 0000:fff51000       .debug$S                   10000000     client:client.dll
 0000:fff51000       .debug$S                   10000000     client:client.dll
 0000:fff51000       .debug$S                   10000000     client:client.dll
 0000:fff51000       .debug$S                   10000000     client:client.dll
 0000:fff51000       .debug$S                   10000000     client:client.dll
 0000:fff51000       .debug$S                   10000000     client:client.dll
 0000:fff51000       .debug$S                   10000000     client:client.dll
 0000:fff51000       .debug$S                   10000000     client:client.dll
 0000:fff51000       .debug$S                   10000000     client:client.dll
 0000:fff51000       .debug$S                   10000000     client:client.dll
 0000:fff51000       .debug$S                   10000000     client:client.dll
 0000:fff51000       .debug$S                   10000000     client:client.dll
 0000:fff51000       .debug$S                   10000000     client:client.dll
 0001:fffff000       __unwindfunclet$??0?$_String_alloc@$0A@U?$_String_base_types@DV?$allocator@D@std@@@std@@@std@@QAE@ABV?$allocator@D@1@@Z$0 10000000 f   ANN_Bot_2.obj
 0002:fff80000       __unwindtable$?_Orphan_range@?$vector@MV?$allocator@M@std@@@std@@IBEXPAM0@Z 10000000     ANN_Bot_2.obj
 0001:fffff000       __unwindfunclet$??0?$_String_alloc@$0A@U?$_String_base_types@DV?$allocator@D@std@@@std@@@std@@QAE@ABV?$allocator@D@1@@Z$0 10000000 f   libcpmtd:xthrow.obj
 0002:fff80000       __catchsym$?_Reallocate@?$vector@MV?$allocator@M@std@@@std@@IAEXI@Z$2 10000000     ANN_Bot_2.obj
 0001:fffff000       __unwindfunclet$??0?$basic_string@DU?$char_traits@D@std@@V?$allocator@D@2@@std@@QAE@PBD@Z$0 10000000 f   libcpmtd:xthrow.obj
 0001:fffff000       __ehhandler$?_Copy@?$basic_string@DU?$char_traits@D@std@@V?$allocator@D@2@@std@@QAEXII@Z 10000000 f   libcpmtd:xthrow.obj
 0002:fff80000       __unwindtable$??0?$_String_alloc@$0A@U?$_String_base_types@DV?$allocator@D@std@@@std@@@std@@QAE@ABV?$allocator@D@1@@Z 10000000     NeuralNetwork.obj
 0002:fff80000       __unwindtable$??$construct@U_Container_proxy@std@@U12@@?$allocator@U_Container_proxy@std@@@std@@QAEXPAU_Container_proxy@1@$$QAU21@@Z 10000000     NeuralLayer.obj
 0002:fff80000       ?_System_object$initializer$@?$_Error_objects@H@std@@2P6AXXZA 10000000     libcpmtd:xthrow.obj
 0001:fffff000       __unwindfunclet$??$construct@U_Container_proxy@std@@U12@@?$allocator@U_Container_proxy@std@@@std@@QAEXPAU_Container_proxy@1@$$QAU21@@Z$0 10000000 f   libcpmtd:xthrow.obj
 0002:fff80000       ?_Iostream_object$initializer$@?$_Error_objects@H@std@@2P6AXXZA 10000000     libcpmtd:xthrow.obj
 0001:fffff000       __unwindfunclet$??$construct@PADAAPAD@?$allocator@D@std@@QAEXPAPADAAPAD@Z$0 10000000 f   libcpmtd:xthrow.obj
 0002:fff80000       ?_Generic_object$initializer$@?$_Error_objects@H@std@@2P6AXXZA 10000000     libcpmtd:xthrow.obj
 0001:fffff000       __unwindfunclet$??$construct@MM@?$allocator@M@std@@QAEXPAM$$QAM@Z$0 10000000 f   ANN_Bot_2.obj
 0002:fff80000       __unwindtable$??$construct@PADAAPAD@?$allocator@D@std@@QAEXPAPADAAPAD@Z 10000000     libcpmtd:xthrow.obj
 0001:fffff000       __unwindfunclet$??$construct@MAAM@?$allocator@M@std@@QAEXPAMAAM@Z$0 10000000 f   ANN_Bot_2.obj
 0001:fffff000       __unwindfunclet$??$construct@PADAAPAD@?$allocator@D@std@@QAEXPAPADAAPAD@Z$0 10000000 f   NeuralNetwork.obj
 0001:fffff000       __ehhandler$?_Copy@?$basic_string@DU?$char_traits@D@std@@V?$allocator@D@2@@std@@QAEXII@Z 10000000 f   NeuralNetwork.obj
 0001:fffff000       __unwindfunclet$??$construct@PADAAPAD@?$allocator@D@std@@QAEXPAPADAAPAD@Z$0 10000000 f   ANN_Bot_2.obj
 0002:fff80000       __unwindtable$??0?$_String_alloc@$0A@U?$_String_base_types@DV?$allocator@D@std@@@std@@@std@@QAE@ABV?$allocator@D@1@@Z 10000000     libcpmtd:xthrow.obj
 0001:fffff000       __unwindfunclet$??$construct@U_Container_proxy@std@@U12@@?$allocator@U_Container_proxy@std@@@std@@QAEXPAU_Container_proxy@1@$$QAU21@@Z$0 10000000 f   NeuralLayer.obj
 0001:fffff000       __unwindfunclet$??$construct@U_Container_proxy@std@@U12@@?$allocator@U_Container_proxy@std@@@std@@QAEXPAU_Container_proxy@1@$$QAU21@@Z$0 10000000 f   NeuralNetwork.obj
 0002:fff80000       __unwindtable$??$construct@U_Container_proxy@std@@U12@@?$allocator@U_Container_proxy@std@@@std@@QAEXPAU_Container_proxy@1@$$QAU21@@Z 10000000     libcpmtd:xthrow.obj
 0001:fffff000       __unwindfunclet$??0?$_Vector_alloc@$0A@U?$_Vec_base_types@PAUNeuron@@V?$allocator@PAUNeuron@@@std@@@std@@@std@@QAE@ABV?$allocator@PAUNeuron@@@1@@Z$0 10000000 f   NeuralNetwork.obj
 0002:fff80000       __unwindtable$??0?$_String_alloc@$0A@U?$_String_base_types@DV?$allocator@D@std@@@std@@@std@@QAE@ABV?$allocator@D@1@@Z 10000000     ANN_Bot_2.obj
 0002:fff80000       __catchsym$?_Copy@?$basic_string@DU?$char_traits@D@std@@V?$allocator@D@2@@std@@QAEXII@Z$5 10000000     libcpmtd:xthrow.obj
 0002:fff80000       __unwindtable$??0?$basic_string@DU?$char_traits@D@std@@V?$allocator@D@2@@std@@QAE@PBD@Z 10000000     ANN_Bot_2.obj
 0002:fff80000       __unwindtable$??0?$basic_string@DU?$char_traits@D@std@@V?$allocator@D@2@@std@@QAE@PBD@Z 10000000     libcpmtd:xthrow.obj
 0002:fff80000       __unwindtable$??0?$_Vector_alloc@$0A@U?$_Vec_base_types@MV?$allocator@M@std@@@std@@@std@@QAE@ABV?$allocator@M@1@@Z 10000000     ANN_Bot_2.obj
 0002:fff80000       __catchsym$?_Copy@?$basic_string@DU?$char_traits@D@std@@V?$allocator@D@2@@std@@QAEXII@Z$5 10000000     ANN_Bot_2.obj
 0001:fffff000       __ehhandler$?_Reallocate@?$vector@MV?$allocator@M@std@@@std@@IAEXI@Z 10000000 f   ANN_Bot_2.obj
 0001:fffff008       __ehhandler$?_Orphan_range@?$vector@MV?$allocator@M@std@@@std@@IBEXPAM0@Z 10000008 f   ANN_Bot_2.obj
 0002:fff80008       __ehfuncinfo$??$construct@PADAAPAD@?$allocator@D@std@@QAEXPAPADAAPAD@Z 10000008     libcpmtd:syserror.obj
 0002:fff80008       __ehfuncinfo$??$construct@PADAAPAD@?$allocator@D@std@@QAEXPAPADAAPAD@Z 10000008     NeuralNetwork.obj
 0002:fff80008       __ehfuncinfo$??0?$basic_string@DU?$char_traits@D@std@@V?$allocator@D@2@@std@@QAE@PBD@Z 10000008     libcpmtd:xthrow.obj
 0002:fff80008       __ehfuncinfo$??$construct@U_Container_proxy@std@@U12@@?$allocator@U_Container_proxy@std@@@std@@QAEXPAU_Container_proxy@1@$$QAU21@@Z 10000008     libcpmtd:syserror.obj
 0002:fff80008       __ehfuncinfo$??$construct@PADAAPAD@?$allocator@D@std@@QAEXPAPADAAPAD@Z 10000008     ANN_Bot_2.obj
 0001:fffff008       __ehhandler$??0?$_Vector_alloc@$0A@U?$_Vec_base_types@MV?$allocator@M@std@@@std@@@std@@QAE@ABV?$allocator@M@1@@Z 10000008 f   ANN_Bot_2.obj
 0002:fff80008       __ehfuncinfo$??$construct@U_Container_proxy@std@@U12@@?$allocator@U_Container_proxy@std@@@std@@QAEXPAU_Container_proxy@1@$$QAU21@@Z 10000008     NeuralNetwork.obj
 0002:fff80008       __ehfuncinfo$??0?$basic_string@DU?$char_traits@D@std@@V?$allocator@D@2@@std@@QAE@PBD@Z 10000008     libcpmtd:syserror.obj
 0002:fff80008       __ehfuncinfo$??0?$basic_string@DU?$char_traits@D@std@@V?$allocator@D@2@@std@@QAE@PBD@Z 10000008     ANN_Bot_2.obj
 0002:fff80008       __ehfuncinfo$??$construct@U_Container_proxy@std@@U12@@?$allocator@U_Container_proxy@std@@@std@@QAEXPAU_Container_proxy@1@$$QAU21@@Z 10000008     libcpmtd:xthrow.obj
