 stig

 Timestamp is 51a14f29 (Sun May 26 01:54:17 2013)

 Preferred load address is 10000000

 Start         Length     Name                   Class
 0001:00000000 00035300H .text                   CODE
 0001:00035300 000007a6H .text$x                 CODE
 0001:00035ab0 0000007cH .text$yc                CODE
 0001:00035b30 0000005dH .text$yd                CODE
 0002:00000000 000001a0H .idata$5                DATA
 0002:000001a0 00000004H .CRT$XCA                DATA
 0002:000001a4 0000000cH .CRT$XCC                DATA
 0002:000001b0 00000008H .CRT$XCL                DATA
 0002:000001b8 0000000cH .CRT$XCU                DATA
 0002:000001c4 00000004H .CRT$XCZ                DATA
 0002:000001c8 00000004H .CRT$XIA                DATA
 0002:000001cc 00000014H .CRT$XIC                DATA
 0002:000001e0 00000004H .CRT$XIZ                DATA
 0002:000001e4 00000004H .CRT$XPA                DATA
 0002:000001e8 00000008H .CRT$XPX                DATA
 0002:000001f0 00000004H .CRT$XPXA               DATA
 0002:000001f4 00000004H .CRT$XPZ                DATA
 0002:000001f8 00000004H .CRT$XTA                DATA
 0002:000001fc 00000004H .CRT$XTZ                DATA
 0002:00000200 0001bd98H .rdata                  DATA
 0002:0001bf98 00000a40H .rdata$r                DATA
 0002:0001c9e0 000000ecH .rdata$sxdata           DATA
 0002:0001cacc 00000004H .rtc$IAA                DATA
 0002:0001cad0 00000004H .rtc$IZZ                DATA
 0002:0001cad4 00000004H .rtc$TAA                DATA
 0002:0001cad8 00000004H .rtc$TZZ                DATA
 0002:0001cae0 000017ccH .xdata$x                DATA
 0002:0001e2ac 00000050H .idata$2                DATA
 0002:0001e2fc 00000014H .idata$3                DATA
 0002:0001e310 000001a0H .idata$4                DATA
 0002:0001e4b0 0000078eH .idata$6                DATA
 0002:0001ec40 00000040H .edata                  DATA
 0003:00000000 00002090H .data                   DATA
 0003:000020a0 000045c0H .bss                    DATA

  Address         Publics by Value              Rva+Base       Lib:Object

 0000:00000000       __except_list              00000000     <absolute>
 0000:0000003b       ___safe_se_handler_count   0000003b     <absolute>
 0000:00000000       ___ImageBase               10000000     <linker-defined>
 0001:00000000       ??0MyCar@@QAE@PAVTrackDesc@@PAUCarElt@@PAUSituation@@@Z 10001000 f   mycar.obj
 0001:000007a0       ??1MyCar@@QAE@XZ           100017a0 f   mycar.obj
 0001:000007c0       ?info@MyCar@@QAEXXZ        100017c0 f   mycar.obj
 0001:000008f0       ?update@MyCar@@QAEXPAVTrackDesc@@PAUCarElt@@PAUSituation@@@Z 100018f0 f   mycar.obj
 0001:00000be0       ?loadBehaviour@MyCar@@QAEXH@Z 10001be0 f   mycar.obj
 0001:00000c70       ?querySlipSpeed@MyCar@@QAENPAUCarElt@@@Z 10001c70 f   mycar.obj
 0001:00000d30       ?queryAcceleration@MyCar@@QAENPAUCarElt@@N@Z 10001d30 f   mycar.obj
 0001:00000de0       ?updateCa@MyCar@@AAEXXZ    10001de0 f   mycar.obj
 0001:00000f70       ?updateDError@MyCar@@AAEXXZ 10001f70 f   mycar.obj
 0001:000010e0       ?initCarGeometry@MyCar@@AAEXXZ 100020e0 f   mycar.obj
 0001:00001110       ?init@OtherCar@@QAEXPAVTrackDesc@@PAUCarElt@@PAUSituation@@@Z 10002110 f   mycar.obj
 0001:00001230       ?update@OtherCar@@QAEXXZ   10002230 f   mycar.obj
 0001:00001370       ?getCurrentSegment@TrackDesc@@QAEHPAUCarElt@@HH@Z 10002370 f i mycar.obj
 0001:00001440       ??0NeuralNetwork@@QAE@XZ   10002440 f   NeuralNetwork.obj
 0001:00001460       ??0NeuralNetwork@@QAE@HHHH@Z 10002460 f   NeuralNetwork.obj
 0001:00001570       ??0NeuralNetwork@@QAE@V?$basic_string@DU?$char_traits@D@std@@V?$allocator@D@2@@std@@@Z 10002570 f   NeuralNetwork.obj
 0001:00001600       ??1NeuralNetwork@@QAE@XZ   10002600 f   NeuralNetwork.obj
 0001:00001680       ?use@NeuralNetwork@@QAEXAAV?$vector@MV?$allocator@M@std@@@std@@0@Z 10002680 f   NeuralNetwork.obj
 0001:00001710       ?train@NeuralNetwork@@QAEXAAV?$vector@MV?$allocator@M@std@@@std@@0@Z 10002710 f   NeuralNetwork.obj
 0001:00001830       ?reset@NeuralNetwork@@QAEXXZ 10002830 f   NeuralNetwork.obj
 0001:00001880       ?getNetworkWeights@NeuralNetwork@@QBE?AV?$vector@V?$vector@V?$vector@MV?$allocator@M@std@@@std@@V?$allocator@V?$vector@MV?$allocator@M@std@@@std@@@2@@std@@V?$allocator@V?$vector@V?$vector@MV?$allocator@M@std@@@std@@V?$allocator@V?$vector@MV?$allocator@M@std@@@std@@@2@@std@@@2@@std@@XZ 10002880 f   NeuralNetwork.obj
 0001:000019b0       ?exportNetwork@NeuralNetwork@@QAEXV?$basic_string@DU?$char_traits@D@std@@V?$allocator@D@2@@std@@@Z 100029b0 f   NeuralNetwork.obj
 0001:00001d10       ?importNetwork@NeuralNetwork@@QAEXV?$basic_string@DU?$char_traits@D@std@@V?$allocator@D@2@@std@@@Z 10002d10 f   NeuralNetwork.obj
 0001:000021f0       ??$?6U?$char_traits@D@std@@@std@@YAAAV?$basic_ostream@DU?$char_traits@D@std@@@0@AAV10@PBD@Z 100031f0 f i NeuralNetwork.obj
 0001:00002510       ??$_Destroy_range@U?$_Wrap_alloc@V?$allocator@UNeuron@@@std@@@std@@@std@@YAXPAUNeuron@@0AAU?$_Wrap_alloc@V?$allocator@UNeuron@@@std@@@0@U_Nonscalar_ptr_iterator_tag@0@@Z 10003510 f i NeuralNetwork.obj
 0001:00002580       ??$_Destroy_range@U?$_Wrap_alloc@V?$allocator@V?$vector@MV?$allocator@M@std@@@std@@@std@@@std@@@std@@YAXPAV?$vector@MV?$allocator@M@std@@@0@0AAU?$_Wrap_alloc@V?$allocator@V?$vector@MV?$allocator@M@std@@@std@@@std@@@0@U_Nonscalar_ptr_iterator_tag@0@@Z 10003580 f i NeuralNetwork.obj
 0001:000025c0       ??$_Destroy_range@U?$_Wrap_alloc@V?$allocator@V?$vector@V?$vector@MV?$allocator@M@std@@@std@@V?$allocator@V?$vector@MV?$allocator@M@std@@@std@@@2@@std@@@std@@@std@@@std@@YAXPAV?$vector@V?$vector@MV?$allocator@M@std@@@std@@V?$allocator@V?$vector@MV?$allocator@M@std@@@std@@@2@@0@0AAU?$_Wrap_alloc@V?$allocator@V?$vector@V?$vector@MV?$allocator@M@std@@@std@@V?$allocator@V?$vector@MV?$allocator@M@std@@@std@@@2@@std@@@std@@@0@U_Nonscalar_ptr_iterator_tag@0@@Z 100035c0 f i NeuralNetwork.obj
 0001:00002640       ??$_Fputc@D@std@@YA_NDPAU_iobuf@@@Z 10003640 f i NeuralNetwork.obj
 0001:00002660       ??$_Uninit_copy@V?$_Vector_const_iterator@V?$_Vector_val@U?$_Simple_types@M@std@@@std@@@std@@PAMV?$allocator@M@2@@std@@YAPAMV?$_Vector_const_iterator@V?$_Vector_val@U?$_Simple_types@M@std@@@std@@@0@0PAMAAU?$_Wrap_alloc@V?$allocator@M@std@@@0@U_Nonscalar_ptr_iterator_tag@0@@Z 10003660 f i NeuralNetwork.obj
 0001:00002690       ??$_Uninit_copy@V?$_Vector_const_iterator@V?$_Vector_val@U?$_Simple_types@UNeuron@@@std@@@std@@@std@@PAUNeuron@@V?$allocator@UNeuron@@@2@@std@@YAPAUNeuron@@V?$_Vector_const_iterator@V?$_Vector_val@U?$_Simple_types@UNeuron@@@std@@@std@@@0@0PAU1@AAU?$_Wrap_alloc@V?$allocator@UNeuron@@@std@@@0@U_Nonscalar_ptr_iterator_tag@0@@Z 10003690 f i NeuralNetwork.obj
 0001:00002750       ??$_Uninit_copy@V?$_Vector_const_iterator@V?$_Vector_val@U?$_Simple_types@V?$vector@MV?$allocator@M@std@@@std@@@std@@@std@@@std@@PAV?$vector@MV?$allocator@M@std@@@2@V?$allocator@V?$vector@MV?$allocator@M@std@@@std@@@2@@std@@YAPAV?$vector@MV?$allocator@M@std@@@0@V?$_Vector_const_iterator@V?$_Vector_val@U?$_Simple_types@V?$vector@MV?$allocator@M@std@@@std@@@std@@@std@@@0@0PAV10@AAU?$_Wrap_alloc@V?$allocator@V?$vector@MV?$allocator@M@std@@@std@@@std@@@0@U_Nonscalar_ptr_iterator_tag@0@@Z 10003750 f i NeuralNetwork.obj
 0001:000027f0       ??$_Uninit_move@PAV?$vector@V?$vector@MV?$allocator@M@std@@@std@@V?$allocator@V?$vector@MV?$allocator@M@std@@@std@@@2@@std@@PAV12@V?$allocator@V?$vector@V?$vector@MV?$allocator@M@std@@@std@@V?$allocator@V?$vector@MV?$allocator@M@std@@@std@@@2@@std@@@2@V12@@std@@YAPAV?$vector@V?$vector@MV?$allocator@M@std@@@std@@V?$allocator@V?$vector@MV?$allocator@M@std@@@std@@@2@@0@PAV10@00AAU?$_Wrap_alloc@V?$allocator@V?$vector@V?$vector@MV?$allocator@M@std@@@std@@V?$allocator@V?$vector@MV?$allocator@M@std@@@std@@@2@@std@@@std@@@0@0U_Nonscalar_ptr_iterator_tag@0@@Z 100037f0 f i NeuralNetwork.obj
 0001:000027f0       ??$_Uninit_move@PAV?$vector@MV?$allocator@M@std@@@std@@PAV12@V?$allocator@V?$vector@MV?$allocator@M@std@@@std@@@2@V12@@std@@YAPAV?$vector@MV?$allocator@M@std@@@0@PAV10@00AAU?$_Wrap_alloc@V?$allocator@V?$vector@MV?$allocator@M@std@@@std@@@std@@@0@0U_Nonscalar_ptr_iterator_tag@0@@Z 100037f0 f i NeuralNetwork.obj
 0001:00002850       ??$_Uninit_move@PAVNeuronLayer@@PAV1@V?$allocator@VNeuronLayer@@@std@@V1@@std@@YAPAVNeuronLayer@@PAV1@00AAU?$_Wrap_alloc@V?$allocator@VNeuronLayer@@@std@@@0@0U_Nonscalar_ptr_iterator_tag@0@@Z 10003850 f i NeuralNetwork.obj
 0001:000028e0       ??$destroy@UNeuron@@@?$_Wrap_alloc@V?$allocator@UNeuron@@@std@@@std@@QAEXPAUNeuron@@@Z 100038e0 f i NeuralNetwork.obj
 0001:00002940       ??$destroy@V?$vector@MV?$allocator@M@std@@@std@@@?$_Wrap_alloc@V?$allocator@V?$vector@MV?$allocator@M@std@@@std@@@std@@@std@@QAEXPAV?$vector@MV?$allocator@M@std@@@1@@Z 10003940 f i NeuralNetwork.obj
 0001:00002970       ??$use_facet@V?$codecvt@DDH@std@@@std@@YAABV?$codecvt@DDH@0@ABVlocale@0@@Z 10003970 f i NeuralNetwork.obj
 0001:00002a80       ??$use_facet@V?$ctype@D@std@@@std@@YAABV?$ctype@D@0@ABVlocale@0@@Z 10003a80 f i NeuralNetwork.obj
 0001:00002b90       ??$use_facet@V?$num_put@DV?$ostreambuf_iterator@DU?$char_traits@D@std@@@std@@@std@@@std@@YAABV?$num_put@DV?$ostreambuf_iterator@DU?$char_traits@D@std@@@std@@@0@ABVlocale@0@@Z 10003b90 f i NeuralNetwork.obj
 0001:00002ca0       ??$use_facet@V?$numpunct@D@std@@@std@@YAABV?$numpunct@D@0@ABVlocale@0@@Z 10003ca0 f i NeuralNetwork.obj
 0001:00002db0       ??0?$basic_ifstream@DU?$char_traits@D@std@@@std@@QAE@XZ 10003db0 f i NeuralNetwork.obj
 0001:00002ef0       ??0?$basic_ofstream@DU?$char_traits@D@std@@@std@@QAE@XZ 10003ef0 f i NeuralNetwork.obj
 0001:00003020       ??0?$basic_streambuf@DU?$char_traits@D@std@@@std@@IAE@XZ 10004020 f i NeuralNetwork.obj
 0001:000030b0       ??0?$vector@MV?$allocator@M@std@@@std@@QAE@ABV01@@Z 100040b0 f i NeuralNetwork.obj
 0001:00003150       ??0?$vector@UNeuron@@V?$allocator@UNeuron@@@std@@@std@@QAE@ABV01@@Z 10004150 f i NeuralNetwork.obj
 0001:000031f0       ??0?$vector@V?$vector@MV?$allocator@M@std@@@std@@V?$allocator@V?$vector@MV?$allocator@M@std@@@std@@@2@@std@@QAE@ABV01@@Z 100041f0 f i NeuralNetwork.obj
 0001:000032a0       ??0_Locinfo@std@@QAE@PBD@Z 100042a0 f i NeuralNetwork.obj
 0001:00003360       ??0failure@ios_base@std@@QAE@ABV012@@Z 10004360 f i NeuralNetwork.obj
 0001:00003390       ??0failure@ios_base@std@@QAE@PBDABVerror_code@2@@Z 10004390 f i NeuralNetwork.obj
 0001:00003450       ??0runtime_error@std@@QAE@ABV01@@Z 10004450 f i NeuralNetwork.obj
 0001:00003470       ??0sentry@?$basic_ostream@DU?$char_traits@D@std@@@std@@QAE@AAV12@@Z 10004470 f i NeuralNetwork.obj
 0001:000034f0       ??0system_error@std@@QAE@ABV01@@Z 100044f0 f i NeuralNetwork.obj
 0001:00003520       ??1?$_Yarn@_W@std@@QAE@XZ  10004520 f i NeuralNetwork.obj
 0001:00003520       ??1?$_Yarn@D@std@@QAE@XZ   10004520 f i NeuralNetwork.obj
 0001:00003540       ??1?$basic_filebuf@DU?$char_traits@D@std@@@std@@UAE@XZ 10004540 f i NeuralNetwork.obj
 0001:000035b0       ??1?$basic_ios@DU?$char_traits@D@std@@@std@@UAE@XZ 100045b0 f i NeuralNetwork.obj
 0001:000035c0       ??1?$basic_istream@DU?$char_traits@D@std@@@std@@UAE@XZ 100045c0 f i NeuralNetwork.obj
 0001:000035e0       ??1?$basic_ostream@DU?$char_traits@D@std@@@std@@UAE@XZ 100045e0 f i NeuralNetwork.obj
 0001:00003600       ??1?$basic_string@DU?$char_traits@D@std@@V?$allocator@D@2@@std@@QAE@XZ 10004600 f i NeuralNetwork.obj
 0001:00003630       ??1?$vector@V?$vector@V?$vector@MV?$allocator@M@std@@@std@@V?$allocator@V?$vector@MV?$allocator@M@std@@@std@@@2@@std@@V?$allocator@V?$vector@V?$vector@MV?$allocator@M@std@@@std@@V?$allocator@V?$vector@MV?$allocator@M@std@@@std@@@2@@std@@@2@@std@@QAE@XZ 10004630 f i NeuralNetwork.obj
 0001:00003680       ??1?$vector@VNeuronLayer@@V?$allocator@VNeuronLayer@@@std@@@std@@QAE@XZ 10004680 f i NeuralNetwork.obj
 0001:000036d0       ??1Neuron@@QAE@XZ          100046d0 f i NeuralNetwork.obj
 0001:00003720       ??1_Locinfo@std@@QAE@XZ    10004720 f i NeuralNetwork.obj
 0001:000037c0       ??1facet@locale@std@@MAE@XZ 100047c0 f i NeuralNetwork.obj
 0001:000037d0       ??1locale@std@@QAE@XZ      100047d0 f i NeuralNetwork.obj
 0001:000037f0       ??1failure@ios_base@std@@UAE@XZ 100047f0 f i NeuralNetwork.obj
 0001:000037f0       ??1runtime_error@std@@UAE@XZ 100047f0 f i NeuralNetwork.obj
 0001:00003800       ??1sentry@?$basic_istream@DU?$char_traits@D@std@@@std@@QAE@XZ 10004800 f i NeuralNetwork.obj
 0001:00003800       ??1_Sentry_base@?$basic_istream@DU?$char_traits@D@std@@@std@@QAE@XZ 10004800 f i NeuralNetwork.obj
 0001:00003800       ??1_Sentry_base@?$basic_ostream@DU?$char_traits@D@std@@@std@@QAE@XZ 10004800 f i NeuralNetwork.obj
 0001:00003820       ??1sentry@?$basic_ostream@DU?$char_traits@D@std@@@std@@QAE@XZ 10004820 f i NeuralNetwork.obj
 0001:00003850       ??6?$basic_ostream@DU?$char_traits@D@std@@@std@@QAEAAV01@M@Z 10004850 f i NeuralNetwork.obj
 0001:00003a80       ??_D?$basic_ifstream@DU?$char_traits@D@std@@@std@@QAEXXZ 10004a80 f i NeuralNetwork.obj
 0001:00003ae0       ??_D?$basic_ofstream@DU?$char_traits@D@std@@@std@@QAEXXZ 10004ae0 f i NeuralNetwork.obj
 0001:00003b32       ??_E?$basic_ifstream@DU?$char_traits@D@std@@@std@@$4PPPPPPPM@A@AEPAXI@Z 10004b32 f i NeuralNetwork.obj
 0001:00003b3a       ??_E?$basic_istream@DU?$char_traits@D@std@@@std@@$4PPPPPPPM@A@AEPAXI@Z 10004b3a f i NeuralNetwork.obj
 0001:00003b42       ??_E?$basic_ofstream@DU?$char_traits@D@std@@@std@@$4PPPPPPPM@A@AEPAXI@Z 10004b42 f i NeuralNetwork.obj
 0001:00003b4a       ??_E?$basic_ostream@DU?$char_traits@D@std@@@std@@$4PPPPPPPM@A@AEPAXI@Z 10004b4a f i NeuralNetwork.obj
 0001:00003b60       ??_G?$basic_filebuf@DU?$char_traits@D@std@@@std@@UAEPAXI@Z 10004b60 f i NeuralNetwork.obj
 0001:00003b60       ??_E?$basic_filebuf@DU?$char_traits@D@std@@@std@@UAEPAXI@Z 10004b60 f i NeuralNetwork.obj
 0001:00003b90       ??_G?$basic_ifstream@DU?$char_traits@D@std@@@std@@UAEPAXI@Z 10004b90 f i NeuralNetwork.obj
 0001:00003b90       ??_E?$basic_ifstream@DU?$char_traits@D@std@@@std@@UAEPAXI@Z 10004b90 f i NeuralNetwork.obj
 0001:00003c00       ??_E?$basic_istream@DU?$char_traits@D@std@@@std@@UAEPAXI@Z 10004c00 f i NeuralNetwork.obj
 0001:00003c00       ??_G?$basic_istream@DU?$char_traits@D@std@@@std@@UAEPAXI@Z 10004c00 f i NeuralNetwork.obj
 0001:00003c50       ??_G?$basic_ofstream@DU?$char_traits@D@std@@@std@@UAEPAXI@Z 10004c50 f i NeuralNetwork.obj
 0001:00003c50       ??_E?$basic_ofstream@DU?$char_traits@D@std@@@std@@UAEPAXI@Z 10004c50 f i NeuralNetwork.obj
 0001:00003cc0       ??_E?$basic_ostream@DU?$char_traits@D@std@@@std@@UAEPAXI@Z 10004cc0 f i NeuralNetwork.obj
 0001:00003cc0       ??_G?$basic_ostream@DU?$char_traits@D@std@@@std@@UAEPAXI@Z 10004cc0 f i NeuralNetwork.obj
 0001:00003d10       ??_G?$basic_streambuf@DU?$char_traits@D@std@@@std@@UAEPAXI@Z 10004d10 f i NeuralNetwork.obj
 0001:00003d10       ??_E?$basic_streambuf@DU?$char_traits@D@std@@@std@@UAEPAXI@Z 10004d10 f i NeuralNetwork.obj
 0001:00003d60       ??_G?$ctype@D@std@@MAEPAXI@Z 10004d60 f i NeuralNetwork.obj
 0001:00003d60       ??_E?$ctype@D@std@@MAEPAXI@Z 10004d60 f i NeuralNetwork.obj
 0001:00003dc0       ??_G?$num_put@DV?$ostreambuf_iterator@DU?$char_traits@D@std@@@std@@@std@@MAEPAXI@Z 10004dc0 f i NeuralNetwork.obj
 0001:00003dc0       ??_E_Facet_base@std@@UAEPAXI@Z 10004dc0 f i NeuralNetwork.obj
 0001:00003dc0       ??_G_Facet_base@std@@UAEPAXI@Z 10004dc0 f i NeuralNetwork.obj
 0001:00003dc0       ??_E?$codecvt@DDH@std@@MAEPAXI@Z 10004dc0 f i NeuralNetwork.obj
 0001:00003dc0       ??_E?$num_put@DV?$ostreambuf_iterator@DU?$char_traits@D@std@@@std@@@std@@MAEPAXI@Z 10004dc0 f i NeuralNetwork.obj
 0001:00003dc0       ??_G?$codecvt@DDH@std@@MAEPAXI@Z 10004dc0 f i NeuralNetwork.obj
 0001:00003df0       ??_E?$numpunct@D@std@@MAEPAXI@Z 10004df0 f i NeuralNetwork.obj
 0001:00003df0       ??_G?$numpunct@D@std@@MAEPAXI@Z 10004df0 f i NeuralNetwork.obj
 0001:00003e40       ??_E_System_error_category@std@@UAEPAXI@Z 10004e40 f i NeuralNetwork.obj
 0001:00003e40       ??_G_System_error_category@std@@UAEPAXI@Z 10004e40 f i NeuralNetwork.obj
 0001:00003e40       ??_E_Generic_error_category@std@@UAEPAXI@Z 10004e40 f i NeuralNetwork.obj
 0001:00003e40       ??_Gerror_category@std@@UAEPAXI@Z 10004e40 f i NeuralNetwork.obj
 0001:00003e40       ??_Eerror_category@std@@UAEPAXI@Z 10004e40 f i NeuralNetwork.obj
 0001:00003e40       ??_G_Generic_error_category@std@@UAEPAXI@Z 10004e40 f i NeuralNetwork.obj
 0001:00003e40       ??_E_Iostream_error_category@std@@UAEPAXI@Z 10004e40 f i NeuralNetwork.obj
 0001:00003e40       ??_G_Iostream_error_category@std@@UAEPAXI@Z 10004e40 f i NeuralNetwork.obj
 0001:00003e70       ??_Gsystem_error@std@@UAEPAXI@Z 10004e70 f i NeuralNetwork.obj
 0001:00003e70       ??_Esystem_error@std@@UAEPAXI@Z 10004e70 f i NeuralNetwork.obj
 0001:00003e70       ??_Eruntime_error@std@@UAEPAXI@Z 10004e70 f i NeuralNetwork.obj
 0001:00003e70       ??_Gfailure@ios_base@std@@UAEPAXI@Z 10004e70 f i NeuralNetwork.obj
 0001:00003e70       ??_Efailure@ios_base@std@@UAEPAXI@Z 10004e70 f i NeuralNetwork.obj
 0001:00003e70       ??_Gruntime_error@std@@UAEPAXI@Z 10004e70 f i NeuralNetwork.obj
 0001:00003ea0       ??_Gios_base@std@@UAEPAXI@Z 10004ea0 f i NeuralNetwork.obj
 0001:00003ea0       ??_E?$basic_ios@DU?$char_traits@D@std@@@std@@UAEPAXI@Z 10004ea0 f i NeuralNetwork.obj
 0001:00003ea0       ??_G?$basic_ios@DU?$char_traits@D@std@@@std@@UAEPAXI@Z 10004ea0 f i NeuralNetwork.obj
 0001:00003ea0       ??_Eios_base@std@@UAEPAXI@Z 10004ea0 f i NeuralNetwork.obj
 0001:00003ecb       ?_Add_vtordisp2@?$basic_ostream@DU?$char_traits@D@std@@@std@@$4PPPPPPPM@A@AEXXZ 10004ecb f i NeuralNetwork.obj
 0001:00003ecb       ?_Add_vtordisp1@?$basic_istream@DU?$char_traits@D@std@@@std@@$4PPPPPPPM@A@AEXXZ 10004ecb f i NeuralNetwork.obj
 0001:00003ed3       ?_Add_vtordisp2@?$basic_ostream@DU?$char_traits@D@std@@@std@@$4PPPPPPPM@FI@AEXXZ 10004ed3 f i NeuralNetwork.obj
 0001:00003ed3       ?_Add_vtordisp1@?$basic_istream@DU?$char_traits@D@std@@@std@@$4PPPPPPPM@FI@AEXXZ 10004ed3 f i NeuralNetwork.obj
 0001:00003ee0       ?_Unlock@?$basic_streambuf@DU?$char_traits@D@std@@@std@@UAEXXZ 10004ee0 f i NeuralNetwork.obj
 0001:00003ee0       ??3@YAXPAX0@Z              10004ee0 f i NeuralNetwork.obj
 0001:00003ee0       ?_Add_vtordisp1@?$basic_ios@DU?$char_traits@D@std@@@std@@UAEXXZ 10004ee0 f i NeuralNetwork.obj
 0001:00003ee0       ?_Add_vtordisp1@?$basic_istream@DU?$char_traits@D@std@@@std@@UAEXXZ 10004ee0 f i NeuralNetwork.obj
 0001:00003ee0       ?_Add_vtordisp2@?$basic_ios@DU?$char_traits@D@std@@@std@@UAEXXZ 10004ee0 f i NeuralNetwork.obj
 0001:00003ee0       ?_Add_vtordisp2@?$basic_ostream@DU?$char_traits@D@std@@@std@@UAEXXZ 10004ee0 f i NeuralNetwork.obj
 0001:00003ee0       ?_Lock@?$basic_streambuf@DU?$char_traits@D@std@@@std@@UAEXXZ 10004ee0 f i NeuralNetwork.obj
 0001:00003ef0       ?_Buy@?$vector@MV?$allocator@M@std@@@std@@IAE_NI@Z 10004ef0 f i NeuralNetwork.obj
 0001:00003f60       ?_Buy@?$vector@UNeuron@@V?$allocator@UNeuron@@@std@@@std@@IAE_NI@Z 10004f60 f i NeuralNetwork.obj
 0001:00003fd0       ?_Buy@?$vector@V?$vector@MV?$allocator@M@std@@@std@@V?$allocator@V?$vector@MV?$allocator@M@std@@@std@@@2@@std@@IAE_NI@Z 10004fd0 f i NeuralNetwork.obj
 0001:00004040       ?_Chassign@?$basic_string@DU?$char_traits@D@std@@V?$allocator@D@2@@std@@QAEXIID@Z 10005040 f i NeuralNetwork.obj
 0001:00004090       ?_Copy@?$basic_string@DU?$char_traits@D@std@@V?$allocator@D@2@@std@@QAEXII@Z 10005090 f i NeuralNetwork.obj
 0001:000041e0       ?_Decref@facet@locale@std@@UAEPAV_Facet_base@3@XZ 100051e0 f i NeuralNetwork.obj
 0001:00004200       ?_Endwrite@?$basic_filebuf@DU?$char_traits@D@std@@@std@@IAE_NXZ 10005200 f i NeuralNetwork.obj
 0001:00004350       ?_Ffmt@?$num_put@DV?$ostreambuf_iterator@DU?$char_traits@D@std@@@std@@@std@@ABAPADPADDH@Z 10005350 f i NeuralNetwork.obj
 0001:00004410       ?_Fput@?$num_put@DV?$ostreambuf_iterator@DU?$char_traits@D@std@@@std@@@std@@ABA?AV?$ostreambuf_iterator@DU?$char_traits@D@std@@@2@V32@AAVios_base@2@DPBDIIII@Z 10005410 f i NeuralNetwork.obj
 0001:000047e0       ?_Getcat@?$codecvt@DDH@std@@SAIPAPBVfacet@locale@2@PBV42@@Z 100057e0 f i NeuralNetwork.obj
 0001:00004890       ?_Getcat@?$ctype@D@std@@SAIPAPBVfacet@locale@2@PBV42@@Z 10005890 f i NeuralNetwork.obj
 0001:00004960       ?_Getcat@?$num_put@DV?$ostreambuf_iterator@DU?$char_traits@D@std@@@std@@@std@@SAIPAPBVfacet@locale@2@PBV42@@Z 10005960 f i NeuralNetwork.obj
 0001:00004a10       ?_Getcat@?$numpunct@D@std@@SAIPAPBVfacet@locale@2@PBV42@@Z 10005a10 f i NeuralNetwork.obj
 0001:00004ad0       ?_Gnavail@?$basic_streambuf@DU?$char_traits@D@std@@@std@@IBE_JXZ 10005ad0 f i NeuralNetwork.obj
 0001:00004af0       ?_Ifmt@?$num_put@DV?$ostreambuf_iterator@DU?$char_traits@D@std@@@std@@@std@@ABAPADPADPBDH@Z 10005af0 f i NeuralNetwork.obj
 0001:00004b80       ?_Incref@facet@locale@std@@UAEXXZ 10005b80 f i NeuralNetwork.obj
 0001:00004b90       ?_Init@?$basic_filebuf@DU?$char_traits@D@std@@@std@@IAEXPAU_iobuf@@W4_Initfl@12@@Z 10005b90 f i NeuralNetwork.obj
 0001:00004c30       ?_Init@?$basic_streambuf@DU?$char_traits@D@std@@@std@@IAEXXZ 10005c30 f i NeuralNetwork.obj
 0001:00004c90       ?_Init@?$numpunct@D@std@@IAEXABV_Locinfo@2@_N@Z 10005c90 f i NeuralNetwork.obj
 0001:00004df0       ?_Init@ios_base@std@@IAEXXZ 10005df0 f i NeuralNetwork.obj
 0001:00004e70       ?_Ipfx@?$basic_istream@DU?$char_traits@D@std@@@std@@QAE_N_N@Z 10005e70 f i NeuralNetwork.obj
 0001:00005100       ?_Iput@?$num_put@DV?$ostreambuf_iterator@DU?$char_traits@D@std@@@std@@@std@@ABA?AV?$ostreambuf_iterator@DU?$char_traits@D@std@@@2@V32@AAVios_base@2@DPADI@Z 10006100 f i NeuralNetwork.obj
 0001:00005420       ?_Lock@?$basic_filebuf@DU?$char_traits@D@std@@@std@@UAEXXZ 10006420 f i NeuralNetwork.obj
 0001:00005430       ?_Osfx@?$basic_ostream@DU?$char_traits@D@std@@@std@@QAEXXZ 10006430 f i NeuralNetwork.obj
 0001:00005530       ?_Pnavail@?$basic_streambuf@DU?$char_traits@D@std@@@std@@IBE_JXZ 10006530 f i NeuralNetwork.obj
 0001:00005550       ?_Put@?$num_put@DV?$ostreambuf_iterator@DU?$char_traits@D@std@@@std@@@std@@ABA?AV?$ostreambuf_iterator@DU?$char_traits@D@std@@@2@V32@PBDI@Z 10006550 f i NeuralNetwork.obj
 0001:000055c0       ?_Reallocate@?$vector@MV?$allocator@M@std@@@std@@IAEXI@Z 100065c0 f i NeuralNetwork.obj
 0001:00005640       ?_Reallocate@?$vector@V?$vector@MV?$allocator@M@std@@@std@@V?$allocator@V?$vector@MV?$allocator@M@std@@@std@@@2@@std@@IAEXI@Z 10006640 f i NeuralNetwork.obj
 0001:00005730       ?_Reallocate@?$vector@V?$vector@V?$vector@MV?$allocator@M@std@@@std@@V?$allocator@V?$vector@MV?$allocator@M@std@@@std@@@2@@std@@V?$allocator@V?$vector@V?$vector@MV?$allocator@M@std@@@std@@V?$allocator@V?$vector@MV?$allocator@M@std@@@std@@@2@@std@@@2@@std@@IAEXI@Z 10006730 f i NeuralNetwork.obj
 0001:00005820       ?_Reallocate@?$vector@VNeuronLayer@@V?$allocator@VNeuronLayer@@@std@@@std@@IAEXI@Z 10006820 f i NeuralNetwork.obj
 0001:00005930       ?_Rep@?$num_put@DV?$ostreambuf_iterator@DU?$char_traits@D@std@@@std@@@std@@ABA?AV?$ostreambuf_iterator@DU?$char_traits@D@std@@@2@V32@DI@Z 10006930 f i NeuralNetwork.obj
 0001:000059a0       ?_Reserve@?$vector@MV?$allocator@M@std@@@std@@IAEXI@Z 100069a0 f i NeuralNetwork.obj
 0001:00005a20       ?_Reserve@?$vector@V?$vector@MV?$allocator@M@std@@@std@@V?$allocator@V?$vector@MV?$allocator@M@std@@@std@@@2@@std@@IAEXI@Z 10006a20 f i NeuralNetwork.obj
 0001:00005ac0       ?_Reserve@?$vector@V?$vector@V?$vector@MV?$allocator@M@std@@@std@@V?$allocator@V?$vector@MV?$allocator@M@std@@@std@@@2@@std@@V?$allocator@V?$vector@V?$vector@MV?$allocator@M@std@@@std@@V?$allocator@V?$vector@MV?$allocator@M@std@@@std@@@2@@std@@@2@@std@@IAEXI@Z 10006ac0 f i NeuralNetwork.obj
 0001:00005b60       ?_Reserve@?$vector@VNeuronLayer@@V?$allocator@VNeuronLayer@@@std@@@std@@IAEXI@Z 10006b60 f i NeuralNetwork.obj
 0001:00005c00       ?_Reset_back@?$basic_filebuf@DU?$char_traits@D@std@@@std@@AAEXXZ 10006c00 f i NeuralNetwork.obj
 0001:00005c30       ?_Set_back@?$basic_filebuf@DU?$char_traits@D@std@@@std@@AAEXXZ 10006c30 f i NeuralNetwork.obj
 0001:00005c70       ?_Tidy@?$numpunct@D@std@@AAEXXZ 10006c70 f i NeuralNetwork.obj
 0001:00005c90       ??1?$vector@MV?$allocator@M@std@@@std@@QAE@XZ 10006c90 f i NeuralNetwork.obj
 0001:00005c90       ?_Tidy@?$vector@MV?$allocator@M@std@@@std@@IAEXXZ 10006c90 f i NeuralNetwork.obj
 0001:00005cc0       ?_Tidy@?$vector@UNeuron@@V?$allocator@UNeuron@@@std@@@std@@IAEXXZ 10006cc0 f i NeuralNetwork.obj
 0001:00005cc0       ??1?$vector@UNeuron@@V?$allocator@UNeuron@@@std@@@std@@QAE@XZ 10006cc0 f i NeuralNetwork.obj
 0001:00005d10       ?_Tidy@?$vector@V?$vector@MV?$allocator@M@std@@@std@@V?$allocator@V?$vector@MV?$allocator@M@std@@@std@@@2@@std@@IAEXXZ 10006d10 f i NeuralNetwork.obj
 0001:00005d10       ??1?$vector@V?$vector@MV?$allocator@M@std@@@std@@V?$allocator@V?$vector@MV?$allocator@M@std@@@std@@@2@@std@@QAE@XZ 10006d10 f i NeuralNetwork.obj
 0001:00005d60       ?_Unlock@?$basic_filebuf@DU?$char_traits@D@std@@@std@@UAEXXZ 10006d60 f i NeuralNetwork.obj
 0001:00005d70       ?allocate@?$_Wrap_alloc@V?$allocator@D@std@@@std@@QAEPADI@Z 10006d70 f i NeuralNetwork.obj
 0001:00005da0       ?append@?$basic_string@DU?$char_traits@D@std@@V?$allocator@D@2@@std@@QAEAAV12@ID@Z 10006da0 f i NeuralNetwork.obj
 0001:00005e50       ?assign@?$basic_string@DU?$char_traits@D@std@@V?$allocator@D@2@@std@@QAEAAV12@$$QAV12@@Z 10006e50 f i NeuralNetwork.obj
 0001:00005ed0       ?assign@?$basic_string@DU?$char_traits@D@std@@V?$allocator@D@2@@std@@QAEAAV12@ABV12@II@Z 10006ed0 f i NeuralNetwork.obj
 0001:00006000       ?assign@?$basic_string@DU?$char_traits@D@std@@V?$allocator@D@2@@std@@QAEAAV12@ID@Z 10007000 f i NeuralNetwork.obj
 0001:000060d0       ?assign@?$basic_string@DU?$char_traits@D@std@@V?$allocator@D@2@@std@@QAEAAV12@PBDI@Z 100070d0 f i NeuralNetwork.obj
 0001:000061d0       ?clear@ios_base@std@@QAEXH@Z 100071d0 f i NeuralNetwork.obj
 0001:00006260       ?close@?$basic_filebuf@DU?$char_traits@D@std@@@std@@QAEPAV12@XZ 10007260 f i NeuralNetwork.obj
 0001:00006310       ?close@?$basic_ifstream@DU?$char_traits@D@std@@@std@@QAEXXZ 10007310 f i NeuralNetwork.obj
 0001:000063c0       ?close@?$basic_ofstream@DU?$char_traits@D@std@@@std@@QAEXXZ 100073c0 f i NeuralNetwork.obj
 0001:00006470       ?default_error_condition@_System_error_category@std@@UBE?AVerror_condition@2@H@Z 10007470 f i NeuralNetwork.obj
 0001:000064b0       ?default_error_condition@error_category@std@@UBE?AVerror_condition@2@H@Z 100074b0 f i NeuralNetwork.obj
 0001:000064d0       ?do_always_noconv@?$codecvt@DDH@std@@MBE_NXZ 100074d0 f i NeuralNetwork.obj
 0001:000064e0       ?do_decimal_point@?$numpunct@D@std@@MBEDXZ 100074e0 f i NeuralNetwork.obj
 0001:000064f0       ?do_falsename@?$numpunct@D@std@@MBE?AV?$basic_string@DU?$char_traits@D@std@@V?$allocator@D@2@@2@XZ 100074f0 f i NeuralNetwork.obj
 0001:00006550       ?do_grouping@?$numpunct@D@std@@MBE?AV?$basic_string@DU?$char_traits@D@std@@V?$allocator@D@2@@2@XZ 10007550 f i NeuralNetwork.obj
 0001:000065b0       ?do_length@?$codecvt@DDH@std@@MBEHAAHPBD1I@Z 100075b0 f i NeuralNetwork.obj
 0001:000065d0       ?do_max_length@codecvt_base@std@@MBEHXZ 100075d0 f i NeuralNetwork.obj
 0001:000065d0       ?do_encoding@codecvt_base@std@@MBEHXZ 100075d0 f i NeuralNetwork.obj
 0001:000065e0       ?do_narrow@?$ctype@D@std@@MBEDDD@Z 100075e0 f i NeuralNetwork.obj
 0001:000065f0       ?do_narrow@?$ctype@D@std@@MBEPBDPBD0DPAD@Z 100075f0 f i NeuralNetwork.obj
 0001:00006610       ?do_out@?$codecvt@DDH@std@@MBEHAAHPBD1AAPBDPAD3AAPAD@Z 10007610 f i NeuralNetwork.obj
 0001:00006610       ?do_in@?$codecvt@DDH@std@@MBEHAAHPBD1AAPBDPAD3AAPAD@Z 10007610 f i NeuralNetwork.obj
 0001:00006630       ?do_put@?$num_put@DV?$ostreambuf_iterator@DU?$char_traits@D@std@@@std@@@std@@MBE?AV?$ostreambuf_iterator@DU?$char_traits@D@std@@@2@V32@AAVios_base@2@DJ@Z 10007630 f i NeuralNetwork.obj
 0001:00006690       ?do_put@?$num_put@DV?$ostreambuf_iterator@DU?$char_traits@D@std@@@std@@@std@@MBE?AV?$ostreambuf_iterator@DU?$char_traits@D@std@@@2@V32@AAVios_base@2@DK@Z 10007690 f i NeuralNetwork.obj
 0001:000066f0       ?do_put@?$num_put@DV?$ostreambuf_iterator@DU?$char_traits@D@std@@@std@@@std@@MBE?AV?$ostreambuf_iterator@DU?$char_traits@D@std@@@2@V32@AAVios_base@2@DN@Z 100076f0 f i NeuralNetwork.obj
 0001:00006870       ?do_put@?$num_put@DV?$ostreambuf_iterator@DU?$char_traits@D@std@@@std@@@std@@MBE?AV?$ostreambuf_iterator@DU?$char_traits@D@std@@@2@V32@AAVios_base@2@DO@Z 10007870 f i NeuralNetwork.obj
 0001:000069e0       ?do_put@?$num_put@DV?$ostreambuf_iterator@DU?$char_traits@D@std@@@std@@@std@@MBE?AV?$ostreambuf_iterator@DU?$char_traits@D@std@@@2@V32@AAVios_base@2@DPBX@Z 100079e0 f i NeuralNetwork.obj
 0001:00006a30       ?do_put@?$num_put@DV?$ostreambuf_iterator@DU?$char_traits@D@std@@@std@@@std@@MBE?AV?$ostreambuf_iterator@DU?$char_traits@D@std@@@2@V32@AAVios_base@2@D_J@Z 10007a30 f i NeuralNetwork.obj
 0001:00006a90       ?do_put@?$num_put@DV?$ostreambuf_iterator@DU?$char_traits@D@std@@@std@@@std@@MBE?AV?$ostreambuf_iterator@DU?$char_traits@D@std@@@2@V32@AAVios_base@2@D_K@Z 10007a90 f i NeuralNetwork.obj
 0001:00006af0       ?do_put@?$num_put@DV?$ostreambuf_iterator@DU?$char_traits@D@std@@@std@@@std@@MBE?AV?$ostreambuf_iterator@DU?$char_traits@D@std@@@2@V32@AAVios_base@2@D_N@Z 10007af0 f i NeuralNetwork.obj
 0001:00006ca0       ?do_thousands_sep@?$numpunct@D@std@@MBEDXZ 10007ca0 f i NeuralNetwork.obj
 0001:00006cb0       ?do_tolower@?$ctype@D@std@@MBEDD@Z 10007cb0 f i NeuralNetwork.obj
 0001:00006cd0       ?do_tolower@?$ctype@D@std@@MBEPBDPADPBD@Z 10007cd0 f i NeuralNetwork.obj
 0001:00006d00       ?do_toupper@?$ctype@D@std@@MBEDD@Z 10007d00 f i NeuralNetwork.obj
 0001:00006d20       ?do_toupper@?$ctype@D@std@@MBEPBDPADPBD@Z 10007d20 f i NeuralNetwork.obj
 0001:00006d50       ?do_truename@?$numpunct@D@std@@MBE?AV?$basic_string@DU?$char_traits@D@std@@V?$allocator@D@2@@2@XZ 10007d50 f i NeuralNetwork.obj
 0001:00006db0       ?do_unshift@?$codecvt@DDH@std@@MBEHAAHPAD1AAPAD@Z 10007db0 f i NeuralNetwork.obj
 0001:00006dd0       ?do_widen@?$ctype@D@std@@MBEDD@Z 10007dd0 f i NeuralNetwork.obj
 0001:00006de0       ?do_widen@?$ctype@D@std@@MBEPBDPBD0PAD@Z 10007de0 f i NeuralNetwork.obj
 0001:00006e00       ?equivalent@error_category@std@@UBE_NABVerror_code@2@H@Z 10007e00 f i NeuralNetwork.obj
 0001:00006e20       ?equivalent@error_category@std@@UBE_NHABVerror_condition@2@@Z 10007e20 f i NeuralNetwork.obj
 0001:00006e60       ?erase@?$basic_string@DU?$char_traits@D@std@@V?$allocator@D@2@@std@@QAEAAV12@II@Z 10007e60 f i NeuralNetwork.obj
 0001:00006f00       ?falsename@?$numpunct@D@std@@QBE?AV?$basic_string@DU?$char_traits@D@std@@V?$allocator@D@2@@2@XZ 10007f00 f i NeuralNetwork.obj
 0001:00006f20       ?flush@?$basic_ostream@DU?$char_traits@D@std@@@std@@QAEAAV12@XZ 10007f20 f i NeuralNetwork.obj
 0001:00007050       ?getline@?$basic_istream@DU?$char_traits@D@std@@@std@@QAEAAV12@PAD_JD@Z 10008050 f i NeuralNetwork.obj
 0001:000072d0       ?getloc@?$basic_streambuf@DU?$char_traits@D@std@@@std@@QBE?AVlocale@2@XZ 100082d0 f i NeuralNetwork.obj
 0001:00007300       ?getloc@ios_base@std@@QBE?AVlocale@2@XZ 10008300 f i NeuralNetwork.obj
 0001:00007330       ?grouping@?$numpunct@D@std@@QBE?AV?$basic_string@DU?$char_traits@D@std@@V?$allocator@D@2@@2@XZ 10008330 f i NeuralNetwork.obj
 0001:00007350       ?imbue@?$basic_filebuf@DU?$char_traits@D@std@@@std@@MAEXABVlocale@2@@Z 10008350 f i NeuralNetwork.obj
 0001:00007390       ?imbue@?$basic_streambuf@DU?$char_traits@D@std@@@std@@MAEXABVlocale@2@@Z 10008390 f i NeuralNetwork.obj
 0001:000073a0       ?init@?$basic_ios@DU?$char_traits@D@std@@@std@@IAEXPAV?$basic_streambuf@DU?$char_traits@D@std@@@2@_N@Z 100083a0 f i NeuralNetwork.obj
 0001:000074b0       ?insert@?$basic_string@DU?$char_traits@D@std@@V?$allocator@D@2@@std@@QAEAAV12@IID@Z 100084b0 f i NeuralNetwork.obj
 0001:000075c0       ?message@_Generic_error_category@std@@UBE?AV?$basic_string@DU?$char_traits@D@std@@V?$allocator@D@2@@2@H@Z 100085c0 f i NeuralNetwork.obj
 0001:00007630       ?message@_Iostream_error_category@std@@UBE?AV?$basic_string@DU?$char_traits@D@std@@V?$allocator@D@2@@2@H@Z 10008630 f i NeuralNetwork.obj
 0001:00007680       ?message@_System_error_category@std@@UBE?AV?$basic_string@DU?$char_traits@D@std@@V?$allocator@D@2@@2@H@Z 10008680 f i NeuralNetwork.obj
 0001:000076f0       ?name@_Generic_error_category@std@@UBEPBDXZ 100086f0 f i NeuralNetwork.obj
 0001:00007700       ?name@_Iostream_error_category@std@@UBEPBDXZ 10008700 f i NeuralNetwork.obj
 0001:00007710       ?name@_System_error_category@std@@UBEPBDXZ 10008710 f i NeuralNetwork.obj
 0001:00007720       ?open@?$basic_filebuf@DU?$char_traits@D@std@@@std@@QAEPAV12@PBDHH@Z 10008720 f i NeuralNetwork.obj
 0001:000077f0       ?open@?$basic_ifstream@DU?$char_traits@D@std@@@std@@QAEXPBDHH@Z 100087f0 f i NeuralNetwork.obj
 0001:00007910       ?open@?$basic_ofstream@DU?$char_traits@D@std@@@std@@QAEXPBDHH@Z 10008910 f i NeuralNetwork.obj
 0001:00007a30       ?overflow@?$basic_filebuf@DU?$char_traits@D@std@@@std@@MAEHH@Z 10008a30 f i NeuralNetwork.obj
 0001:00007c40       ?pbackfail@?$basic_filebuf@DU?$char_traits@D@std@@@std@@MAEHH@Z 10008c40 f i NeuralNetwork.obj
 0001:00007cd0       ?pbackfail@?$basic_streambuf@DU?$char_traits@D@std@@@std@@MAEHH@Z 10008cd0 f i NeuralNetwork.obj
 0001:00007cd0       ?overflow@?$basic_streambuf@DU?$char_traits@D@std@@@std@@MAEHH@Z 10008cd0 f i NeuralNetwork.obj
 0001:00007ce0       ?push_back@?$vector@MV?$allocator@M@std@@@std@@QAEXABM@Z 10008ce0 f i NeuralNetwork.obj
 0001:00007d50       ?push_back@?$vector@V?$vector@MV?$allocator@M@std@@@std@@V?$allocator@V?$vector@MV?$allocator@M@std@@@std@@@2@@std@@QAEXABV?$vector@MV?$allocator@M@std@@@2@@Z 10008d50 f i NeuralNetwork.obj
 0001:00007e00       ?push_back@?$vector@V?$vector@V?$vector@MV?$allocator@M@std@@@std@@V?$allocator@V?$vector@MV?$allocator@M@std@@@std@@@2@@std@@V?$allocator@V?$vector@V?$vector@MV?$allocator@M@std@@@std@@V?$allocator@V?$vector@MV?$allocator@M@std@@@std@@@2@@std@@@2@@std@@QAEX$$QAV?$vector@V?$vector@MV?$allocator@M@std@@@std@@V?$allocator@V?$vector@MV?$allocator@M@std@@@std@@@2@@2@@Z 10008e00 f i NeuralNetwork.obj
 0001:00007ef0       ?push_back@?$vector@V?$vector@V?$vector@MV?$allocator@M@std@@@std@@V?$allocator@V?$vector@MV?$allocator@M@std@@@std@@@2@@std@@V?$allocator@V?$vector@V?$vector@MV?$allocator@M@std@@@std@@V?$allocator@V?$vector@MV?$allocator@M@std@@@std@@@2@@std@@@2@@std@@QAEXABV?$vector@V?$vector@MV?$allocator@M@std@@@std@@V?$allocator@V?$vector@MV?$allocator@M@std@@@std@@@2@@2@@Z 10008ef0 f i NeuralNetwork.obj
 0001:00007fa0       ?push_back@?$vector@VNeuronLayer@@V?$allocator@VNeuronLayer@@@std@@@std@@QAEX$$QAVNeuronLayer@@@Z 10008fa0 f i NeuralNetwork.obj
 0001:00008050       ?put@?$basic_ostream@DU?$char_traits@D@std@@@std@@QAEAAV12@D@Z 10009050 f i NeuralNetwork.obj
 0001:00008250       ?seekoff@?$basic_filebuf@DU?$char_traits@D@std@@@std@@MAE?AV?$fpos@H@2@_JHH@Z 10009250 f i NeuralNetwork.obj
 0001:00008350       ?seekoff@?$basic_streambuf@DU?$char_traits@D@std@@@std@@MAE?AV?$fpos@H@2@_JHH@Z 10009350 f i NeuralNetwork.obj
 0001:00008380       ?seekpos@?$basic_filebuf@DU?$char_traits@D@std@@@std@@MAE?AV?$fpos@H@2@V32@H@Z 10009380 f i NeuralNetwork.obj
 0001:00008460       ?seekpos@?$basic_streambuf@DU?$char_traits@D@std@@@std@@MAE?AV?$fpos@H@2@V32@H@Z 10009460 f i NeuralNetwork.obj
 0001:00008490       ?setbuf@?$basic_filebuf@DU?$char_traits@D@std@@@std@@MAEPAV?$basic_streambuf@DU?$char_traits@D@std@@@2@PAD_J@Z 10009490 f i NeuralNetwork.obj
 0001:000084e0       ?setbuf@?$basic_streambuf@DU?$char_traits@D@std@@@std@@MAEPAV12@PAD_J@Z 100094e0 f i NeuralNetwork.obj
 0001:000084f0       ?showmanyc@?$basic_streambuf@DU?$char_traits@D@std@@@std@@MAE_JXZ 100094f0 f i NeuralNetwork.obj
 0001:00008500       ?snextc@?$basic_streambuf@DU?$char_traits@D@std@@@std@@QAEHXZ 10009500 f i NeuralNetwork.obj
 0001:00008570       ?sync@?$basic_filebuf@DU?$char_traits@D@std@@@std@@MAEHXZ 10009570 f i NeuralNetwork.obj
 0001:000085a0       ?sync@?$basic_streambuf@DU?$char_traits@D@std@@@std@@MAEHXZ 100095a0 f i NeuralNetwork.obj
 0001:000085b0       ?truename@?$numpunct@D@std@@QBE?AV?$basic_string@DU?$char_traits@D@std@@V?$allocator@D@2@@2@XZ 100095b0 f i NeuralNetwork.obj
 0001:000085d0       ?uflow@?$basic_filebuf@DU?$char_traits@D@std@@@std@@MAEHXZ 100095d0 f i NeuralNetwork.obj
 0001:000087c0       ?uflow@?$basic_streambuf@DU?$char_traits@D@std@@@std@@MAEHXZ 100097c0 f i NeuralNetwork.obj
 0001:000087f0       ?underflow@?$basic_filebuf@DU?$char_traits@D@std@@@std@@MAEHXZ 100097f0 f i NeuralNetwork.obj
 0001:00008830       ?underflow@?$basic_streambuf@DU?$char_traits@D@std@@@std@@MAEHXZ 10009830 f i NeuralNetwork.obj
 0001:00008840       ?xsgetn@?$basic_streambuf@DU?$char_traits@D@std@@@std@@MAE_JPAD_J@Z 10009840 f i NeuralNetwork.obj
 0001:00008930       ?xsputn@?$basic_streambuf@DU?$char_traits@D@std@@@std@@MAE_JPBD_J@Z 10009930 f i NeuralNetwork.obj
 0001:00008a20       ??0NeuronLayer@@QAE@XZ     10009a20 f   NeuronLayer.obj
 0001:00008a40       ??0NeuronLayer@@QAE@HH@Z   10009a40 f   NeuronLayer.obj
 0001:00008b00       ??0NeuronLayer@@QAE@V?$vector@V?$vector@MV?$allocator@M@std@@@std@@V?$allocator@V?$vector@MV?$allocator@M@std@@@std@@@2@@std@@@Z 10009b00 f   NeuronLayer.obj
 0001:00008c50       ??1NeuronLayer@@QAE@XZ     10009c50 f   NeuronLayer.obj
 0001:00008ca0       ?propagate@NeuronLayer@@QAEXAAV1@@Z 10009ca0 f   NeuronLayer.obj
 0001:00008d20       ?backPropagate@NeuronLayer@@QAEXAAV1@@Z 10009d20 f   NeuronLayer.obj
 0001:00008d90       ?setOutput@NeuronLayer@@QAEXV?$vector@MV?$allocator@M@std@@@std@@@Z 10009d90 f   NeuronLayer.obj
 0001:00008de0       ?getOutput@NeuronLayer@@QAEXAAV?$vector@MV?$allocator@M@std@@@std@@@Z 10009de0 f   NeuronLayer.obj
 0001:00008e80       ?size@NeuronLayer@@QAEIXZ  10009e80 f   NeuronLayer.obj
 0001:00008e90       ?calculateError@NeuronLayer@@QAEMAAV?$vector@MV?$allocator@M@std@@@std@@@Z 10009e90 f   NeuronLayer.obj
 0001:00008ef0       ?adjustWeights@NeuronLayer@@QAEXAAV1@MM@Z 10009ef0 f   NeuronLayer.obj
 0001:00009040       ?reset@NeuronLayer@@QAEXXZ 1000a040 f   NeuronLayer.obj
 0001:000090d0       ?getWeights@NeuronLayer@@QBE?AV?$vector@V?$vector@MV?$allocator@M@std@@@std@@V?$allocator@V?$vector@MV?$allocator@M@std@@@std@@@2@@std@@XZ 1000a0d0 f   NeuronLayer.obj
 0001:00009170       ??$_Uninit_move@PAUNeuron@@PAU1@V?$allocator@UNeuron@@@std@@U1@@std@@YAPAUNeuron@@PAU1@00AAU?$_Wrap_alloc@V?$allocator@UNeuron@@@std@@@0@0U_Nonscalar_ptr_iterator_tag@0@@Z 1000a170 f i NeuronLayer.obj
 0001:00009220       ??0Neuron@@QAE@H@Z         1000a220 f i NeuronLayer.obj
 0001:000093e0       ??0Neuron@@QAE@V?$vector@MV?$allocator@M@std@@@std@@@Z 1000a3e0 f i NeuronLayer.obj
 0001:00009570       ?_Reallocate@?$vector@UNeuron@@V?$allocator@UNeuron@@@std@@@std@@IAEXI@Z 1000a570 f i NeuronLayer.obj
 0001:00009650       ?_Reserve@?$vector@UNeuron@@V?$allocator@UNeuron@@@std@@@std@@IAEXI@Z 1000a650 f i NeuronLayer.obj
 0001:000096d0       ?push_back@?$vector@UNeuron@@V?$allocator@UNeuron@@@std@@@std@@QAEX$$QAUNeuron@@@Z 1000a6d0 f i NeuronLayer.obj
 0001:000097b0       ??0Pathfinder@@QAE@PAVTrackDesc@@PAUCarElt@@PAUSituation@@@Z 1000a7b0 f   pathfinder.obj
 0001:000098c0       ??1Pathfinder@@QAE@XZ      1000a8c0 f   pathfinder.obj
 0001:00009910       ?plan@Pathfinder@@QAEXHPAUCarElt@@PAUSituation@@PAVMyCar@@PAVOtherCar@@@Z 1000a910 f   pathfinder.obj
 0001:0000a210       ?plan@Pathfinder@@QAEXPAVMyCar@@@Z 1000b210 f   pathfinder.obj
 0001:0000a6d0       ?initPit@Pathfinder@@QAEXPAUCarElt@@@Z 1000b6d0 f   pathfinder.obj
 0001:0000aaa0       ?plotPitStopPath@Pathfinder@@QAEXPAD@Z 1000baa0 f   pathfinder.obj
 0001:0000ab20       ?plotPath@Pathfinder@@QAEXPAD@Z 1000bb20 f   pathfinder.obj
 0001:0000aba0       ?initPitStopPath@Pathfinder@@AAEXXZ 1000bba0 f   pathfinder.obj
 0001:0000b170       ?collision@Pathfinder@@AAEHHPAUCarElt@@PAUSituation@@PAVMyCar@@PAVOtherCar@@@Z 1000c170 f   pathfinder.obj
 0001:0000b640       ?overtake@Pathfinder@@AAEHHPAUSituation@@PAVMyCar@@PAVOtherCar@@@Z 1000c640 f   pathfinder.obj
 0001:0000c330       ?stepInterpolate@Pathfinder@@AAEXHHH@Z 1000d330 f   pathfinder.obj
 0001:0000c5a0       ?interpolate@Pathfinder@@AAEXH@Z 1000d5a0 f   pathfinder.obj
 0001:0000c600       ?smooth@Pathfinder@@AAEXH@Z 1000d600 f   pathfinder.obj
 0001:0000c9c0       ?correctPath@Pathfinder@@AAEHHPAUCarElt@@PAVMyCar@@@Z 1000d9c0 f   pathfinder.obj
 0001:0000cff0       ?smooth@Pathfinder@@AAEXHHHN@Z 1000dff0 f   pathfinder.obj
 0001:0000d0f0       ?smooth@Pathfinder@@AAEXHNN@Z 1000e0f0 f   pathfinder.obj
 0001:0000d6f0       ?optimize@Pathfinder@@AAEXHHN@Z 1000e6f0 f   pathfinder.obj
 0001:0000d750       ?optimize2@Pathfinder@@AAEXHHN@Z 1000e750 f   pathfinder.obj
 0001:0000d7f0       ?optimize3@Pathfinder@@AAEXHHN@Z 1000e7f0 f   pathfinder.obj
 0001:0000d890       ?letoverlap@Pathfinder@@AAEHHPAUSituation@@PAVMyCar@@PAVOtherCar@@PAUtOverlapTimer@@@Z 1000e890 f   pathfinder.obj
 0001:0000dfa0       ?adjustRadius@Pathfinder@@AAEXHHHNN@Z 1000efa0 f i pathfinder.obj
 0001:0000e3e0       ?updateOCar@Pathfinder@@AAEHHPAUSituation@@PAVMyCar@@PAVOtherCar@@PAUtOCar@@@Z 1000f3e0 f i pathfinder.obj
 0001:0000eb00       ?updateOverlapTimer@Pathfinder@@AAEXHPAUSituation@@PAVMyCar@@PAVOtherCar@@PAUtOCar@@PAUtOverlapTimer@@@Z 1000fb00 f i pathfinder.obj
 0001:0000ec80       ?setSingleSensor@SingleSensor@@QAEXMM@Z 1000fc80 f   sensors.obj
 0001:0000ecc0       ?update@SingleSensor@@QAEXXZ 1000fcc0 f   sensors.obj
 0001:0000edf0       ?sensor_calc_str@SingleSensor@@IAEMPAUtrackSeg@@MMMM@Z 1000fdf0 f   sensors.obj
 0001:0000f430       ?sensor_calc_lft_rgt@SingleSensor@@IAEMPAUtrackSeg@@MMMM@Z 10010430 f   sensors.obj
 0001:0000f700       ?check_max_circle_intersect@SingleSensor@@IAE_NMMMMMMAAM@Z 10010700 f   sensors.obj
 0001:0000f990       ?check_min_circle_intersect@SingleSensor@@IAE_NMMMMMMAAM@Z 10010990 f   sensors.obj
 0001:0000fb00       ?check_up_border_intersect@SingleSensor@@IAE_NMMMMMAAM00@Z 10010b00 f   sensors.obj
 0001:0000fcb0       ?check_down_border_intersect@SingleSensor@@IAE_NMMMMMAAM00@Z 10010cb0 f   sensors.obj
 0001:0000ff80       ??0Sensors@@QAE@XZ         10010f80 f   sensors.obj
 0001:0000ff90       ??0Sensors@@QAE@PAUCarElt@@H@Z 10010f90 f   sensors.obj
 0001:0000ffe0       ??1Sensors@@QAE@XZ         10010fe0 f   sensors.obj
 0001:0000fff0       ?setSensor@Sensors@@QAEXHMM@Z 10010ff0 f   sensors.obj
 0001:00010020       ?getSensorOut@Sensors@@QAEMH@Z 10011020 f   sensors.obj
 0001:00010040       ?sensors_update@Sensors@@QAEXXZ 10011040 f   sensors.obj
 0001:00010070       ?tridiagonal@@YAXHPAUSplineEquationData@@PAN@Z 10011070 f   spline.obj
 0001:00010250       ?tridiagonal2@@YAXHPAUSplineEquationData2@@@Z 10011250 f   spline.obj
 0001:000104b0       ?slopesp@@YAXHQBN0QAN@Z    100114b0 f   spline.obj
 0001:000107e0       ?slopesn@@YAXHQBN0QAN@Z    100117e0 f   spline.obj
 0001:00010920       ?parametricslopesp@@YAXHQBN0QAN11@Z 10011920 f   spline.obj
 0001:000109f0       ?parametricslopesn@@YAXHQBN0QAN11@Z 100119f0 f   spline.obj
 0001:00010ac0       ?spline@@YANHNQBN00@Z      10011ac0 f   spline.obj
 0001:000120d0       ?DllEntryPoint@@YGHPAUHINSTANCE__@@KPAX@Z 100130d0 f   stig.obj
 0001:00012270       _stig                      10013270 f   stig.obj
 0001:00013e70       ?HmReadPrefs@@YAXH@Z       10014e70 f   pref.obj
 0001:000145e0       ??0TrackSegment@@QAE@XZ    100155e0 f   trackdesc.obj
 0001:000145f0       ??1TrackSegment@@QAE@XZ    100155f0 f   trackdesc.obj
 0001:00014600       ?init@TrackSegment@@QAEXHPBUtrackSeg@@PBVv3d@@11@Z 10015600 f   trackdesc.obj
 0001:000148a0       ??0TrackDesc@@QAE@PBUtTrack@@@Z 100158a0 f   trackdesc.obj
 0001:000152a0       ??1TrackDesc@@QAE@XZ       100162a0 f   trackdesc.obj
 0001:000152d0       ?plot@TrackDesc@@QAEXPAD@Z 100162d0 f   trackdesc.obj
 0001:000153a0       ?getCurrentSegment@TrackDesc@@QAEHPAUCarElt@@@Z 100163a0 f   trackdesc.obj
 0001:00015460       ?getNearestId@TrackDesc@@QAEHPAVv3d@@@Z 10016460 f   trackdesc.obj
 0001:0001550c       ?GfScrGetSize@@YAXPAH000@Z 1001650c f   client:client.dll
 0001:00015512       ?GfuiKeyEventRegisterCurrent@@YAXP6AHEHH@Z@Z 10016512 f   client:client.dll
 0001:00015518       ?GfuiSKeyEventRegisterCurrent@@YAXP6AHHHH@Z@Z 10016518 f   client:client.dll
 0001:0001551e       ?GfuiMouseShow@@YAXXZ      1001651e f   client:client.dll
 0001:00015524       ?GfctrlJoyInit@@YAPAUtCtrlJoyInfo@@XZ 10016524 f   client:client.dll
 0001:0001552a       ?GfctrlJoyGetCurrent@@YAHPAUtCtrlJoyInfo@@@Z 1001652a f   client:client.dll
 0001:00015530       ?GfctrlJoyRelease@@YAXPAUtCtrlJoyInfo@@@Z 10016530 f   client:client.dll
 0001:00015536       ?GfctrlMouseInit@@YAPAUtCtrlMouseInfo@@XZ 10016536 f   client:client.dll
 0001:0001553c       ?GfctrlMouseGetCurrent@@YAHPAUtCtrlMouseInfo@@@Z 1001653c f   client:client.dll
 0001:00015542       ?GfctrlMouseRelease@@YAXPAUtCtrlMouseInfo@@@Z 10016542 f   client:client.dll
 0001:00015548       ?GfctrlMouseCenter@@YAXXZ  10016548 f   client:client.dll
 0001:0001554e       ?GfctrlMouseInitCenter@@YAXXZ 1001654e f   client:client.dll
 0001:00015554       ?GfctrlGetRefByName@@YAPAUtCtrlRef@@PBD@Z 10016554 f   client:client.dll
 0001:0001555a       ?GfctrlGetNameByRef@@YAPBDHH@Z 1001655a f   client:client.dll
 0001:00015560       ?GfParmGetStr@@YAPBDPAXPBD11@Z 10016560 f   tgf:tgf.dll
 0001:00015566       ?GfParmGetNum@@YAMPAXPBD11M@Z 10016566 f   tgf:tgf.dll
 0001:0001556c       ?_tgf_win_calloc@@YAPAXII@Z 1001656c f   tgf:tgf.dll
 0001:00015572       ?_tgf_win_free@@YAXPAX@Z   10016572 f   tgf:tgf.dll
 0001:00015578       ?_tgf_win_strdup@@YAPADPBD@Z 10016578 f   tgf:tgf.dll
 0001:0001557e       ?GfParmReadFile@@YAPAXPBDH@Z 1001657e f   tgf:tgf.dll
 0001:00015584       ?GfParmWriteFile@@YAHPBDPAX0@Z 10016584 f   tgf:tgf.dll
 0001:0001558a       ?GfParmSetStr@@YAHPAXPBD11@Z 1001658a f   tgf:tgf.dll
 0001:00015590       ?GfParmSetNum@@YAHPAXPBD11M@Z 10016590 f   tgf:tgf.dll
 0001:00015596       ?GfParmReleaseHandle@@YAXPAX@Z 10016596 f   tgf:tgf.dll
 0001:0001559c       ?GetLocalDir@@YAPADXZ      1001659c f   tgf:tgf.dll
 0001:000155a2       ?RtTrackSideTgAngleL@@YAMPAUtTrkLocPos@@@Z 100165a2 f   robottools:robottools.dll
 0001:000155a8       ?RtGetDistFromStart@@YAMPAUCarElt@@@Z 100165a8 f   robottools:robottools.dll
 0001:000155ae       ??0_Init_locks@std@@QAE@XZ 100165ae f   libcpmt:xlock.obj
 0001:000155dd       ??0_Lockit@std@@QAE@H@Z    100165dd f   libcpmt:xlock.obj
 0001:00015610       ??1_Init_locks@std@@QAE@XZ 10016610 f   libcpmt:xlock.obj
 0001:00015639       ??1_Lockit@std@@QAE@XZ     10016639 f   libcpmt:xlock.obj
 0001:0001565d       ?uncaught_exception@std@@YA_NXZ 1001665d f   libcpmt:uncaught.obj
 0001:00015662       ??_U@YAPAXI@Z              10016662 f   libcpmt:newaop.obj
 0001:0001566b       ??0bad_alloc@std@@QAE@ABV01@@Z 1001666b f i libcpmt:xthrow.obj
 0001:00015686       ??0length_error@std@@QAE@ABV01@@Z 10016686 f i libcpmt:xthrow.obj
 0001:000156a1       ??0logic_error@std@@QAE@ABV01@@Z 100166a1 f i libcpmt:xthrow.obj
 0001:000156bc       ??0out_of_range@std@@QAE@ABV01@@Z 100166bc f i libcpmt:xthrow.obj
 0001:000156d7       ??1bad_alloc@std@@UAE@XZ   100166d7 f i libcpmt:xthrow.obj
 0001:000156e2       ??1out_of_range@std@@UAE@XZ 100166e2 f i libcpmt:xthrow.obj
 0001:000156e2       ??1length_error@std@@UAE@XZ 100166e2 f i libcpmt:xthrow.obj
 0001:000156e7       ??_Gbad_alloc@std@@UAEPAXI@Z 100166e7 f i libcpmt:xthrow.obj
 0001:000156e7       ??_Ebad_alloc@std@@UAEPAXI@Z 100166e7 f i libcpmt:xthrow.obj
 0001:0001570c       ??_Glogic_error@std@@UAEPAXI@Z 1001670c f i libcpmt:xthrow.obj
 0001:0001570c       ??_Elength_error@std@@UAEPAXI@Z 1001670c f i libcpmt:xthrow.obj
 0001:0001570c       ??_Eout_of_range@std@@UAEPAXI@Z 1001670c f i libcpmt:xthrow.obj
 0001:0001570c       ??_Glength_error@std@@UAEPAXI@Z 1001670c f i libcpmt:xthrow.obj
 0001:0001570c       ??_Elogic_error@std@@UAEPAXI@Z 1001670c f i libcpmt:xthrow.obj
 0001:0001570c       ??_Gout_of_range@std@@UAEPAXI@Z 1001670c f i libcpmt:xthrow.obj
 0001:0001572b       ?_Xbad_alloc@std@@YAXXZ    1001672b f   libcpmt:xthrow.obj
 0001:0001575c       ?_Xlength_error@std@@YAXPBD@Z 1001675c f   libcpmt:xthrow.obj
 0001:0001578a       ?_Xout_of_range@std@@YAXPBD@Z 1001678a f   libcpmt:xthrow.obj
 0001:000157b8       __Getctype                 100167b8 f   libcpmt:_tolower.obj
 0001:00015824       __Tolower                  10016824 f   libcpmt:_tolower.obj
 0001:00015921       __Getcvt                   10016921 f   libcpmt:xwctomb.obj
 0001:0001598a       __Toupper                  1001698a f   libcpmt:_toupper.obj
 0001:00015a87       ??0_Locimp@locale@std@@AAE@_N@Z 10016a87 f i libcpmt:locale0.obj
 0001:00015ac4       ??1_Fac_node@std@@QAE@XZ   10016ac4 f i libcpmt:locale0.obj
 0001:00015ad9       ??1_Fac_tidy_reg_t@std@@QAE@XZ 10016ad9 f i libcpmt:locale0.obj
 0001:00015afd       ??1_Locimp@locale@std@@MAE@XZ 10016afd f i libcpmt:locale0.obj
 0001:00015b28       ??4?$_Yarn@D@std@@QAEAAV01@PBD@Z 10016b28 f i libcpmt:locale0.obj
 0001:00015b7c       ??_G_Locimp@locale@std@@MAEPAXI@Z 10016b7c f i libcpmt:locale0.obj
 0001:00015b7c       ??_E_Locimp@locale@std@@MAEPAXI@Z 10016b7c f i libcpmt:locale0.obj
 0001:00015b9b       ?_Facet_Register@std@@YAXPAV_Facet_base@1@@Z 10016b9b f   libcpmt:locale0.obj
 0001:00015bc3       ?_Getgloballocale@locale@std@@CAPAV_Locimp@12@XZ 10016bc3 f   libcpmt:locale0.obj
 0001:00015bc9       ?_Init@locale@std@@CAPAV_Locimp@12@_N@Z 10016bc9 f   libcpmt:locale0.obj
 0001:00015c45       ?_Locimp_dtor@_Locimp@locale@std@@CAXPAV123@@Z 10016c45 f   libcpmt:locale0.obj
 0001:00015c9e       ?_Locinfo_ctor@_Locinfo@std@@SAXPAV12@PBD@Z 10016c9e f   libcpmt:locale0.obj
 0001:00015ce9       ?_Locinfo_dtor@_Locinfo@std@@SAXPAV12@@Z 10016ce9 f   libcpmt:locale0.obj
 0001:00015d03       ?_New_Locimp@_Locimp@locale@std@@CAPAV123@_N@Z 10016d03 f   libcpmt:locale0.obj
 0001:00015d22       ?_Setgloballocale@locale@std@@CAXPAX@Z 10016d22 f   libcpmt:locale0.obj
 0001:00015d4a       __Deletegloballocale       10016d4a f   libcpmt:locale0.obj
 0001:00015d93       ?_Syserror_map@std@@YAPBDH@Z 10016d93 f   libcpmt:syserror.obj
 0001:00015dbd       ?_Winerror_map@std@@YAPBDH@Z 10016dbd f   libcpmt:syserror.obj
 0001:00015de7       ?_Addstd@ios_base@std@@SAXPAV12@@Z 10016de7 f   libcpmt:ios.obj
 0001:00015e39       ?_Callfns@ios_base@std@@AAEXW4event@12@@Z 10016e39 f i libcpmt:ios.obj
 0001:00015e5e       ?_Ios_base_dtor@ios_base@std@@CAXPAV12@@Z 10016e5e f   libcpmt:ios.obj
 0001:00015e9b       ?_Tidy@ios_base@std@@AAEXXZ 10016e9b f i libcpmt:ios.obj
 0001:00015edd       ??$_Xfiopen@D@std@@YAPAU_iobuf@@PBDHH@Z 10016edd f i libcpmt:fiopen.obj
 0001:00015f7f       ?_Fiopen@std@@YAPAU_iobuf@@PBDHH@Z 10016f7f f   libcpmt:fiopen.obj
 0001:00015f88       ?_Xfsopen@std@@YAPAU_iobuf@@PBDHH@Z 10016f88 f   libcpmt:fiopen.obj
 0001:00015fa5       __Mtxdst                   10016fa5 f   libcpmt:xmtx.obj
 0001:00015fb3       __Mtxinit                  10016fb3 f   libcpmt:xmtx.obj
 0001:00015fca       __Mtxlock                  10016fca f   libcpmt:xmtx.obj
 0001:00015fd8       __Mtxunlock                10016fd8 f   libcpmt:xmtx.obj
 0001:00015fe6       ??1_Init_atexit@@QAE@XZ    10016fe6 f i libcpmt:iosptrs.obj
 0001:0001600f       ?_Atexit@@YAXP6AXXZ@Z      1001700f f   libcpmt:iosptrs.obj
 0001:0001603d       ??2@YAPAXI@Z               1001703d f   LIBCMT:new.obj
 0001:0001608c       ??3@YAXPAX@Z               1001708c f   LIBCMT:delete.obj
 0001:00016091       __get_printf_count_output  10017091 f   LIBCMT:printf.obj
 0001:000160a6       _printf                    100170a6 f   LIBCMT:printf.obj
 0001:00016152       _printf_s                  10017152 f   LIBCMT:printf.obj
 0001:00016170       _ceil                      10017170 f   LIBCMT:ceil_pentium4.obj
 0001:000161b0       __ceil_pentium4            100171b0 f   LIBCMT:ceil_pentium4.obj
 0001:0001635b       ?_CallCatchBlock2@@YAPAXPAUEHRegistrationNode@@PBU_s_FuncInfo@@PAXHK@Z 1001735b f   LIBCMT:_trnsctrl_.obj
 0001:000163b9       ?_CallMemberFunction2@@YGXPAX00H@Z 100173b9 f   LIBCMT:_trnsctrl_.obj
 0001:000163b9       ?_CallMemberFunction0@@YGXPAX0@Z 100173b9 f   LIBCMT:_trnsctrl_.obj
 0001:000163b9       ?_CallMemberFunction1@@YGXPAX00@Z 100173b9 f   LIBCMT:_trnsctrl_.obj
 0001:000163c0       ?_CallSETranslator@@YAHPAUEHExceptionRecord@@PAUEHRegistrationNode@@PAX2PBU_s_FuncInfo@@H1@Z 100173c0 f   LIBCMT:_trnsctrl_.obj
 0001:00016495       ?_GetRangeOfTrysToCheck@@YAPBU_s_TryBlockMapEntry@@PBU_s_FuncInfo@@HHPAI1@Z 10017495 f   LIBCMT:_trnsctrl_.obj
 0001:00016514       ?_JumpToContinuation@@YGXPAXPAUEHRegistrationNode@@@Z 10017514 f   LIBCMT:_trnsctrl_.obj
 0001:00016544       ?_UnwindNestedFrames@@YGXPAUEHRegistrationNode@@PAUEHExceptionRecord@@@Z 10017544 f   LIBCMT:_trnsctrl_.obj
 0001:00016597       __CreateFrameInfo          10017597 f   LIBCMT:_trnsctrl_.obj
 0001:000165c1       __FindAndUnlinkFrame       100175c1 f   LIBCMT:_trnsctrl_.obj
 0001:00016611       __IsExceptionObjectToBeDestroyed 10017611 f   LIBCMT:_trnsctrl_.obj
 0001:0001663a       ___CxxFrameHandler3        1001763a f   LIBCMT:_trnsctrl_.obj
 0001:00016670       __libm_sse2_cos_precise    10017670 f   LIBCMT:cos_sse2_precise.obj
 0001:00016830       __libm_sse2_exp_precise    10017830 f   LIBCMT:exp_sse2_precise.obj
 0001:00016b00       __libm_sse2_sin_precise    10017b00 f   LIBCMT:sin_sse2_precise.obj
 0001:00016cd0       __libm_sse2_sqrt_precise   10017cd0 f   LIBCMT:sqrt_sse2_precise.obj
 0001:00016dd0       __fpmath                   10017dd0 f   LIBCMT:fpinit.obj
 0001:00016de7       __cfltcvt_init             10017de7 f   LIBCMT:fpinit.obj
 0001:00016e47       __purecall                 10017e47 f   LIBCMT:purevirt.obj
 0001:00016e71       ___onexitinit              10017e71 f   LIBCMT:onexit.obj
 0001:00016ea0       __onexit                   10017ea0 f   LIBCMT:onexit.obj
 0001:00016f96       _atexit                    10017f96 f   LIBCMT:onexit.obj
 0001:00016fab       _free                      10017fab f   LIBCMT:free.obj
 0001:00016ff0       _memmove                   10017ff0 f   LIBCMT:memmove.obj
 0001:00017634       _memcpy_s                  10018634 f   LIBCMT:memcpy_s.obj
 0001:000176c0       _strcspn                   100186c0 f   LIBCMT:strcspn.obj
 0001:00017706       ??0bad_cast@std@@QAE@ABV01@@Z 10018706 f   LIBCMT:stdexcpt.obj
 0001:00017721       ??0bad_cast@std@@QAE@PBD@Z 10018721 f   LIBCMT:stdexcpt.obj
 0001:0001773d       ??0exception@std@@QAE@ABQBD@Z 1001873d f   LIBCMT:stdexcpt.obj
 0001:00017762       ??0exception@std@@QAE@ABQBDH@Z 10018762 f   LIBCMT:stdexcpt.obj
 0001:0001777d       ??0exception@std@@QAE@ABV01@@Z 1001877d f   LIBCMT:stdexcpt.obj
 0001:000177a0       ??1bad_cast@std@@UAE@XZ    100187a0 f   LIBCMT:stdexcpt.obj
 0001:000177a0       ??1exception@std@@UAE@XZ   100187a0 f   LIBCMT:stdexcpt.obj
 0001:000177ab       ??4exception@std@@QAEAAV01@ABV01@@Z 100187ab f   LIBCMT:stdexcpt.obj
 0001:000177de       ??_Gbad_cast@std@@UAEPAXI@Z 100187de f i LIBCMT:stdexcpt.obj
 0001:000177de       ??_Eexception@std@@UAEPAXI@Z 100187de f i LIBCMT:stdexcpt.obj
 0001:000177de       ??_Ebad_cast@std@@UAEPAXI@Z 100187de f i LIBCMT:stdexcpt.obj
 0001:000177de       ??_Gexception@std@@UAEPAXI@Z 100187de f i LIBCMT:stdexcpt.obj
 0001:00017803       ?_Copy_str@exception@std@@AAEXPBD@Z 10018803 f   LIBCMT:stdexcpt.obj
 0001:00017841       ?_Tidy@exception@std@@AAEXXZ 10018841 f   LIBCMT:stdexcpt.obj
 0001:0001785d       ?what@exception@std@@UBEPBDXZ 1001885d f   LIBCMT:stdexcpt.obj
 0001:0001786a       ??_V@YAXPAX@Z              1001886a f   LIBCMT:delete2.obj
 0001:0001786f       __fclose_nolock            1001886f f   LIBCMT:fclose.obj
 0001:000178db       _fclose                    100188db f   LIBCMT:fclose.obj
 0001:00017952       __fflush_nolock            10018952 f   LIBCMT:fflush.obj
 0001:00017998       __flush                    10018998 f   LIBCMT:fflush.obj
 0001:000179fc       __flushall                 100189fc f   LIBCMT:fflush.obj
 0001:00017a05       _fflush                    10018a05 f   LIBCMT:fflush.obj
 0001:00017b3e       _fgetc                     10018b3e f   LIBCMT:fgetc.obj
 0001:00017c37       _fgetpos                   10018c37 f   LIBCMT:fgetpos.obj
 0001:00017c8c       _fputc                     10018c8c f   LIBCMT:fputc.obj
 0001:00017d8d       _fsetpos                   10018d8d f   LIBCMT:fsetpos.obj
 0001:00017dc6       __fseeki64                 10018dc6 f   LIBCMT:fseeki64.obj
 0001:00017e48       __fseeki64_nolock          10018e48 f   LIBCMT:fseeki64.obj
 0001:00017ef9       __fwrite_nolock            10018ef9 f   LIBCMT:fwrite.obj
 0001:00018050       _fwrite                    10019050 f   LIBCMT:fwrite.obj
 0001:000180ce       _setvbuf                   100190ce f   LIBCMT:setvbuf.obj
 0001:000181d4       _sprintf_s                 100191d4 f   LIBCMT:sprintf.obj
 0001:000181f0       _sscanf                    100191f0 f   LIBCMT:sscanf.obj
 0001:0001827f       __ungetc_nolock            1001927f f   LIBCMT:ungetc.obj
 0001:0001835f       _ungetc                    1001935f f   LIBCMT:ungetc.obj
 0001:000183cb       ___initstdio               100193cb f   LIBCMT:_file.obj
 0001:0001843e       ___endstdio                1001943e f   LIBCMT:_file.obj
 0001:00018465       ___iob_func                10019465 f   LIBCMT:_file.obj
 0001:0001846b       __lock_file                1001946b f   LIBCMT:_file.obj
 0001:000184aa       __lock_file2               100194aa f   LIBCMT:_file.obj
 0001:000184da       __unlock_file              100194da f   LIBCMT:_file.obj
 0001:00018514       __unlock_file2             10019514 f   LIBCMT:_file.obj
 0001:00018541       _localeconv                10019541 f   LIBCMT:lconv.obj
 0001:00018567       __CxxThrowException@8      10019567 f   LIBCMT:throw.obj
 0001:000185d0       _memcpy                    100195d0 f   LIBCMT:memcpy.obj
 0001:00018c20       _memset                    10019c20 f   LIBCMT:memset.obj
 0001:00018cb0       ??1type_info@@UAE@XZ       10019cb0 f   LIBCMT:typinfo.obj
 0001:00018cbe       ??8type_info@@QBE_NABV0@@Z 10019cbe f   LIBCMT:typinfo.obj
 0001:00018cdc       ??_Etype_info@@UAEPAXI@Z   10019cdc f i LIBCMT:typinfo.obj
 0001:00018cdc       ??_Gtype_info@@UAEPAXI@Z   10019cdc f i LIBCMT:typinfo.obj
 0001:00018cfb       _rand                      10019cfb f   LIBCMT:rand.obj
 0001:00018d1e       __fsopen                   10019d1e f   LIBCMT:fopen.obj
 0001:00018de2       _fopen                     10019de2 f   LIBCMT:fopen.obj
 0001:00018df7       _fprintf                   10019df7 f   LIBCMT:fprintf.obj
 0001:00018f10       __alloca_probe             10019f10     LIBCMT:chkstk.obj
 0001:00018f10       __chkstk                   10019f10 f   LIBCMT:chkstk.obj
 0001:00018f40       __libm_sse2_acos_precise   10019f40 f   LIBCMT:acos_sse2_precise.obj
 0001:00019460       __libm_sse2_tan_precise    1001a460 f   LIBCMT:tan_sse2_precise.obj
 0001:000196d0       _malloc                    1001a6d0 f   LIBCMT:malloc.obj
 0001:00019770       _strchr                    1001a770 f   LIBCMT:strchr.obj
 0001:000197de       ___from_strstr_to_strchr   1001a7de     LIBCMT:strchr.obj
 0001:000198a0       _strncpy                   1001a8a0 f   LIBCMT:strncpy.obj
 0001:000199d0       _strrchr                   1001a9d0 f   LIBCMT:strrchr.obj
 0001:00019b07       __snprintf                 1001ab07 f   LIBCMT:snprintf.obj
 0001:00019bb1       __fpclass                  1001abb1 f   LIBCMT:ieeemisc.obj
 0001:00019c4d       __isnan                    1001ac4d f   LIBCMT:ieeemisc.obj
 0001:00019c90       _atan2                     1001ac90 f   LIBCMT:87ctriga.obj
 0001:00019c9a       __CIatan2                  1001ac9a f   LIBCMT:87ctriga.obj
 0001:00019cb0       __ftol2_sse                1001acb0 f   LIBCMT:ftol2.obj
 0001:00019cb9       __ftol2_pentium4           1001acb9 f   LIBCMT:ftol2.obj
 0001:00019ccc       __ftol2_sse_excpt          1001accc f   LIBCMT:ftol2.obj
 0001:00019ce6       __ftol2                    1001ace6 f   LIBCMT:ftol2.obj
 0001:00019d60       __libm_sse2_pow_precise    1001ad60 f   LIBCMT:pow_sse2_precise.obj
 0001:0001a8d0       ??_L@YGXPAXIHP6EX0@Z1@Z    1001b8d0 f   LIBCMT:ehvecctr.obj
 0001:0001a938       ??_M@YGXPAXIHP6EX0@Z@Z     1001b938 f   LIBCMT:ehvecdtr.obj
 0001:0001a9a7       ?__ArrayUnwind@@YGXPAXIHP6EX0@Z@Z 1001b9a7 f   LIBCMT:ehvecdtr.obj
 0001:0001aa10       __libm_sse2_asin_precise   1001ba10 f   LIBCMT:asin_sse2_precise.obj
 0001:0001af60       __libm_sse2_atan_precise   1001bf60 f   LIBCMT:atan_sse2_precise.obj
 0001:0001b270       _floor                     1001c270 f   LIBCMT:floor_pentium4.obj
 0001:0001b2b0       __floor_pentium4           1001c2b0 f   LIBCMT:floor_pentium4.obj
 0001:0001b391       __CRT_INIT@12              1001c391 f   LIBCMT:dllcrt0.obj
 0001:0001b503       __DllMainCRTStartup@12     1001c503 f   LIBCMT:dllcrt0.obj
 0001:0001b634       ___DllXcptFilter           1001c634 f   LIBCMT:dllcrt0.obj
 0001:0001b660       __CIsqrt                   1001c660 f   LIBCMT:sqrt.obj
 0001:0001b674       _sqrt                      1001c674     LIBCMT:sqrt.obj
 0001:0001b720       _asin                      1001c720 f   LIBCMT:asin.obj
 0001:0001b760       __CIasin                   1001c760 f   LIBCMT:asin.obj
 0001:0001b79b       __CIasin_default           1001c79b f   LIBCMT:asin.obj
 0001:0001b7af       __asin_default             1001c7af     LIBCMT:asin.obj
 0001:0001b870       _acos                      1001c870 f   LIBCMT:acos.obj
 0001:0001b8b0       __CIacos                   1001c8b0 f   LIBCMT:acos.obj
 0001:0001b8eb       __CIacos_default           1001c8eb f   LIBCMT:acos.obj
 0001:0001b8ff       __acos_default             1001c8ff     LIBCMT:acos.obj
 0001:0001b9c0       _sin                       1001c9c0 f   LIBCMT:sin.obj
 0001:0001ba00       __CIsin                    1001ca00 f   LIBCMT:sin.obj
 0001:0001ba3b       __CIsin_default            1001ca3b f   LIBCMT:sin.obj
 0001:0001ba4f       __sin_default              1001ca4f     LIBCMT:sin.obj
 0001:0001baf0       _cos                       1001caf0 f   LIBCMT:cos.obj
 0001:0001bb30       __CIcos                    1001cb30 f   LIBCMT:cos.obj
 0001:0001bb6b       __CIcos_default            1001cb6b f   LIBCMT:cos.obj
 0001:0001bb7f       __cos_default              1001cb7f     LIBCMT:cos.obj
 0001:0001bc20       _tan                       1001cc20 f   LIBCMT:tan.obj
 0001:0001bc60       __CItan                    1001cc60 f   LIBCMT:tan.obj
 0001:0001bc9b       __CItan_default            1001cc9b f   LIBCMT:tan.obj
 0001:0001bcaf       __tan_default              1001ccaf     LIBCMT:tan.obj
 0001:0001bd4d       ___copy_path_to_wide_string 1001cd4d f   LIBCMT:crt0dat.obj
 0001:0001bdfd       ___crtCorExitProcess       1001cdfd f   LIBCMT:crt0dat.obj
 0001:0001be2f       ___crtExitProcess          1001ce2f f   LIBCMT:crt0dat.obj
 0001:0001be45       ___freeCrtMemory           1001ce45 f   LIBCMT:crt0dat.obj
 0001:0001bf55       __amsg_exit                1001cf55 f   LIBCMT:crt0dat.obj
 0001:0001bf71       __cexit                    1001cf71 f   LIBCMT:crt0dat.obj
 0001:0001bf80       __cinit                    1001cf80 f   LIBCMT:crt0dat.obj
 0001:0001c011       __exit                     1001d011 f   LIBCMT:crt0dat.obj
 0001:0001c025       __init_pointers            1001d025 f   LIBCMT:crt0dat.obj
 0001:0001c079       __initterm_e               1001d079 f   LIBCMT:crt0dat.obj
 0001:0001c09b       __lockexit                 1001d09b f   LIBCMT:crt0dat.obj
 0001:0001c0a4       __unlockexit               1001d0a4 f   LIBCMT:crt0dat.obj
 0001:0001c1dc       __lock                     1001d1dc f   LIBCMT:mlock.obj
 0001:0001c210       __mtdeletelocks            1001d210 f   LIBCMT:mlock.obj
 0001:0001c264       __mtinitlocknum            1001d264 f   LIBCMT:mlock.obj
 0001:0001c30b       __mtinitlocks              1001d30b f   LIBCMT:mlock.obj
 0001:0001c340       __unlock                   1001d340 f   LIBCMT:mlock.obj
 0001:0001c355       ___DestructExceptionObject 1001d355 f   LIBCMT:frame.obj
 0001:0001c3e0       ??0bad_exception@std@@QAE@ABV01@@Z 1001d3e0 f i LIBCMT:frame.obj
 0001:0001c3fb       ??1bad_exception@std@@UAE@XZ 1001d3fb f i LIBCMT:frame.obj
 0001:0001c406       ??_Ebad_exception@std@@UAEPAXI@Z 1001d406 f i LIBCMT:frame.obj
 0001:0001c406       ??_Gbad_exception@std@@UAEPAXI@Z 1001d406 f i LIBCMT:frame.obj
 0001:0001cc3c       ?__uncaught_exception@@YA_NXZ 1001dc3c f   LIBCMT:frame.obj
 0001:0001cc4d       ___AdjustPointer           1001dc4d f   LIBCMT:frame.obj
 0001:0001cc72       ___BuildCatchObject        1001dc72 f   LIBCMT:frame.obj
 0001:0001cd00       ___BuildCatchObjectHelper  1001dd00 f   LIBCMT:frame.obj
 0001:0001ce85       ___FrameUnwindFilter       1001de85 f   LIBCMT:frame.obj
 0001:0001ced3       ___FrameUnwindToState      1001ded3 f   LIBCMT:frame.obj
 0001:0001cfac       ___InternalCxxFrameHandler 1001dfac f   LIBCMT:frame.obj
 0001:0001d08b       ___TypeMatch               1001e08b f   LIBCMT:frame.obj
 0001:0001d0f0       _strlen                    1001e0f0 f   LIBCMT:strlen.obj
 0001:0001d17b       @__security_check_cookie@4 1001e17b f   LIBCMT:secchk.obj
 0001:0001d18a       __EH_epilog3               1001e18a f   LIBCMT:ehprolg3.obj
 0001:0001d19e       __EH_prolog3               1001e19e f   LIBCMT:ehprolg3.obj
 0001:0001d1d1       __EH_prolog3_catch         1001e1d1 f   LIBCMT:ehprolg3.obj
 0001:0001d207       ___pctype_func             1001e207 f   LIBCMT:ctype.obj
 0001:0001d230       ??0_LocaleUpdate@@QAE@PAUlocaleinfo_struct@@@Z 1001e230 f i LIBCMT:_ctype.obj
 0001:0001d2b8       __isdigit_l                1001e2b8 f i LIBCMT:_ctype.obj
 0001:0001d308       __islower_l                1001e308 f i LIBCMT:_ctype.obj
 0001:0001d358       __isspace_l                1001e358 f i LIBCMT:_ctype.obj
 0001:0001d3a8       __isupper_l                1001e3a8 f i LIBCMT:_ctype.obj
 0001:0001d3f8       __isxdigit_l               1001e3f8 f i LIBCMT:_ctype.obj
 0001:0001d44e       _isdigit                   1001e44e f i LIBCMT:_ctype.obj
 0001:0001d479       _islower                   1001e479 f i LIBCMT:_ctype.obj
 0001:0001d4a4       _isspace                   1001e4a4 f i LIBCMT:_ctype.obj
 0001:0001d4cf       _isupper                   1001e4cf f i LIBCMT:_ctype.obj
 0001:0001d4fa       _isxdigit                  1001e4fa f i LIBCMT:_ctype.obj
 0001:0001d527       __wcsdup                   1001e527 f   LIBCMT:wcsdup.obj
 0001:0001d57a       ____lc_codepage_func       1001e57a f   LIBCMT:initctyp.obj
 0001:0001d5a0       ____lc_locale_name_func    1001e5a0 f   LIBCMT:initctyp.obj
 0001:0001d5c8       ____mb_cur_max_func        1001e5c8 f   LIBCMT:initctyp.obj
 0001:0001d5ee       ___init_ctype              1001e5ee f   LIBCMT:initctyp.obj
 0001:0001db6f       ___crtLCMapStringA         1001eb6f f   LIBCMT:a_map.obj
 0001:0001dbb3       __freea                    1001ebb3 f i LIBCMT:a_map.obj
 0001:0001dbd1       __calloc_crt               1001ebd1 f   LIBCMT:crtheap.obj
 0001:0001dc1b       __malloc_crt               1001ec1b f   LIBCMT:crtheap.obj
 0001:0001dc64       __realloc_crt              1001ec64 f   LIBCMT:crtheap.obj
 0001:0001dcb0       __recalloc_crt             1001ecb0 f   LIBCMT:crtheap.obj
 0001:0001dd00       ___doserrno                1001ed00 f   LIBCMT:dosmap.obj
 0001:0001dd13       __dosmaperr                1001ed13 f   LIBCMT:dosmap.obj
 0001:0001dd34       __errno                    1001ed34 f   LIBCMT:dosmap.obj
 0001:0001dd47       __get_errno_from_oserr     1001ed47 f   LIBCMT:dosmap.obj
 0001:0001ddde       __ismbblead                1001edde f   LIBCMT:ismbbyte.obj
 0001:0001ddf4       _setlocale                 1001edf4 f   LIBCMT:setlocal.obj
 0001:0001dfcc       __fseek_nolock             1001efcc f   LIBCMT:fseek.obj
 0001:0001e05b       _fseek                     1001f05b f   LIBCMT:fseek.obj
 0001:0001e0da       ___crtFlsAlloc             1001f0da f   LIBCMT:winapisupp.obj
 0001:0001e0f8       ___crtFlsFree              1001f0f8 f   LIBCMT:winapisupp.obj
 0001:0001e117       ___crtFlsGetValue          1001f117 f   LIBCMT:winapisupp.obj
 0001:0001e136       ___crtFlsSetValue          1001f136 f   LIBCMT:winapisupp.obj
 0001:0001e158       ___crtInitializeCriticalSectionEx 1001f158 f   LIBCMT:winapisupp.obj
 0001:0001e186       ___crtIsPackagedApp        1001f186 f   LIBCMT:winapisupp.obj
 0001:0001e1c4       ___crtLoadWinApiPointers   1001f1c4 f   LIBCMT:winapisupp.obj
 0001:0001e403       ___crtTerminateProcess     1001f403 f   LIBCMT:winapisupp.obj
 0001:0001e418       ___crtUnhandledException   1001f418 f   LIBCMT:winapisupp.obj
 0001:0001e42e       __set_abort_behavior       1001f42e f   LIBCMT:abort.obj
 0001:0001e44d       _abort                     1001f44d f   LIBCMT:abort.obj
 0001:0001e490       _strcmp                    1001f490 f   LIBCMT:strcmp.obj
 0001:0001e51c       _wcslen                    1001f51c f   LIBCMT:wcslen.obj
 0001:0001e535       __tolower_l                1001f535 f   LIBCMT:tolower.obj
 0001:0001e676       _tolower                   1001f676 f   LIBCMT:tolower.obj
 0001:0001e6b0       _memchr                    1001f6b0 f   LIBCMT:memchr.obj
 0001:0001e760       __allmul                   1001f760 f   LIBCMT:llmul.obj
 0001:0001e7a0       __aulldiv                  1001f7a0 f   LIBCMT:ulldiv.obj
 0001:0001e808       _memcmp                    1001f808 f   LIBCMT:memcmp.obj
 0001:0001ff80       _GetTableIndexFromLcid     10020f80 f   LIBCMT:winapinls.obj
 0001:0001ffb5       _GetTableIndexFromLocaleName 10020fb5 f   LIBCMT:winapinls.obj
 0001:00020003       ___crtDownlevelLCIDToLocaleName 10021003 f   LIBCMT:winapinls.obj
 0001:0002007f       ___crtDownlevelLocaleNameToLCID 1002107f f   LIBCMT:winapinls.obj
 0001:000200bd       ___crtEnumSystemLocalesEx  100210bd f   LIBCMT:winapinls.obj
 0001:000200fa       ___crtGetLocaleInfoEx      100210fa f   LIBCMT:winapinls.obj
 0001:00020129       ___crtGetUserDefaultLocaleName 10021129 f   LIBCMT:winapinls.obj
 0001:00020154       ___crtIsValidLocaleName    10021154 f   LIBCMT:winapinls.obj
 0001:0002017f       ___crtLCMapStringEx        1002117f f   LIBCMT:winapinls.obj
 0001:000201cb       ___wcsnicmp_ascii          100211cb f   LIBCMT:winapinls.obj
 0001:00020239       ___crtLCMapStringW         10021239 f   LIBCMT:w_map.obj
 0001:00020268       __callnewh                 10021268 f   LIBCMT:handler.obj
 0001:0002028e       __initp_heap_handler       1002128e f   LIBCMT:handler.obj
 0001:0002029b       __call_reportfault         1002129b f   LIBCMT:invarg.obj
 0001:000203be       __initp_misc_invarg        100213be f   LIBCMT:invarg.obj
 0001:000203cb       __invalid_parameter        100213cb f   LIBCMT:invarg.obj
 0001:000203f6       __invalid_parameter_noinfo 100213f6 f   LIBCMT:invarg.obj
 0001:00020406       __invoke_watson            10021406 f   LIBCMT:invarg.obj
 0001:00020431       __vprintf_s_l              10021431 f   LIBCMT:vprintf.obj
 0001:0002044c       _vprintf_helper            1002144c f   LIBCMT:vprintf.obj
 0001:000204d5       __ftbuf                    100214d5 f   LIBCMT:_sftbuf.obj
 0001:00020506       __stbuf                    10021506 f   LIBCMT:_sftbuf.obj
 0001:000205ac       __output_l                 100215ac f   LIBCMT:output.obj
 0001:00021140       __SEH_prolog4              10022140 f   LIBCMT:sehprolg4.obj
 0001:00021185       __SEH_epilog4              10022185 f   LIBCMT:sehprolg4.obj
 0001:000211a0       __except_handler4          100221a0 f   LIBCMT:chandler4.obj
 0001:00021335       ___libm_error_support      10022335 f   LIBCMT:libm_error.obj
 0001:0002161d       __sse2_mathfcns_init       1002261d f   LIBCMT:mathfcns.obj
 0001:0002162c       __ceil_default             1002262c f   LIBCMT:ceil.obj
 0001:000216ff       __freefls@4                100226ff f   LIBCMT:tidtable.obj
 0001:00021836       __freeptd                  10022836 f   LIBCMT:tidtable.obj
 0001:0002186c       __getptd                   1002286c f   LIBCMT:tidtable.obj
 0001:00021884       __getptd_noexit            10022884 f   LIBCMT:tidtable.obj
 0001:000218f3       __initptd                  100228f3 f   LIBCMT:tidtable.obj
 0001:000219a6       __mtinit                   100229a6 f   LIBCMT:tidtable.obj
 0001:00021a1c       __mtterm                   10022a1c f   LIBCMT:tidtable.obj
 0001:00021a40       __CallSettingFrame@12      10022a40 f   LIBCMT:lowhelpr.obj
 0001:00021a67       __NLG_Return               10022a67     LIBCMT:lowhelpr.obj
 0001:00021a8c       ?_inconsistency@@YAXXZ     10022a8c f   LIBCMT:hooks.obj
 0001:00021ac4       ?terminate@@YAXXZ          10022ac4 f   LIBCMT:hooks.obj
 0001:00021af8       ?unexpected@@YAXXZ         10022af8 f   LIBCMT:hooks.obj
 0001:00021b0b       __initp_eh_hooks           10022b0b f   LIBCMT:hooks.obj
 0001:00021b20       _exp                       10022b20 f   LIBCMT:87ctran.obj
 0001:00021b5c       __CIexp                    10022b5c f   LIBCMT:87ctran.obj
 0001:00021b97       __exp_default              10022b97 f   LIBCMT:87ctran.obj
 0001:00021ba1       __CIexp_default            10022ba1 f   LIBCMT:87ctran.obj
 0001:00021bab       __cfltcvt                  10022bab f   LIBCMT:cvt.obj
 0001:00021bcc       __cfltcvt_l                10022bcc f   LIBCMT:cvt.obj
 0001:00021c52       __cftoa_l                  10022c52 f   LIBCMT:cvt.obj
 0001:00021fac       __cftoe                    10022fac f   LIBCMT:cvt.obj
 0001:00022119       __cftoe_l                  10023119 f   LIBCMT:cvt.obj
 0001:000222cf       __cftof_l                  100232cf f   LIBCMT:cvt.obj
 0001:0002238e       __cftog_l                  1002338e f   LIBCMT:cvt.obj
 0001:0002248b       __cropzeros                1002348b f   LIBCMT:cvt.obj
 0001:0002249c       __cropzeros_l              1002349c f   LIBCMT:cvt.obj
 0001:0002251a       __fassign                  1002351a f   LIBCMT:cvt.obj
 0001:00022532       __fassign_l                10023532 f   LIBCMT:cvt.obj
 0001:00022572       __forcdecpt                10023572 f   LIBCMT:cvt.obj
 0001:00022583       __forcdecpt_l              10023583 f   LIBCMT:cvt.obj
 0001:000225f5       __positive                 100235f5 f   LIBCMT:cvt.obj
 0001:00022637       __setdefaultprecision      10023637 f   LIBCMT:fp8.obj
 0001:0002265e       __initp_misc_cfltcvt_tab   1002365e f   LIBCMT:cmiscdat.obj
 0001:0002267d       __FF_MSGBANNER             1002367d f   LIBCMT:crt0msg.obj
 0001:000226b6       __GET_RTERRMSG             100236b6 f   LIBCMT:crt0msg.obj
 0001:000226da       __NMSG_WRITE               100236da f   LIBCMT:crt0msg.obj
 0001:00022895       ___getlocaleinfo           10023895 f   LIBCMT:inithelp.obj
 0001:00022a6c       __initp_misc_purevirt      10023a6c f   LIBCMT:inithelp.obj
 0001:00022a79       __msize                    10023a79 f   LIBCMT:msize.obj
 0001:00022aaa       __heap_init                10023aaa f   LIBCMT:heapinit.obj
 0001:00022abf       __heap_term                10023abf f   LIBCMT:heapinit.obj
 0001:00022ac7       ___isa_available_init      10023ac7 f   LIBCMT:cpu_disp.obj
 0001:00022c00       _strcpy_s                  10023c00 f   LIBCMT:strcpy_s.obj
 0001:00022c55       __fileno                   10023c55 f   LIBCMT:fileno.obj
 0001:00022c79       __close                    10023c79 f   LIBCMT:close.obj
 0001:00022d43       __close_nolock             10023d43 f   LIBCMT:close.obj
 0001:00022ddd       __freebuf                  10023ddd f   LIBCMT:_freebuf.obj
 0001:00022e0d       __commit                   10023e0d f   LIBCMT:commit.obj
 0001:00022ef3       __write                    10023ef3 f   LIBCMT:write.obj
 0001:00022fd5       __write_nolock             10023fd5 f   LIBCMT:write.obj
 0001:000237ff       __filbuf                   100247ff f   LIBCMT:_filbuf.obj
 0001:00023920       __ioinit                   10024920 f   LIBCMT:ioinit.obj
 0001:00023bce       __ioterm                   10024bce f   LIBCMT:ioinit.obj
 0001:00023c20       __ftelli64                 10024c20 f   LIBCMT:ftelli64.obj
 0001:00023c94       __ftelli64_nolock          10024c94 f   LIBCMT:ftelli64.obj
 0001:0002403f       __flsbuf                   1002503f f   LIBCMT:_flsbuf.obj
 0001:0002418c       __lseeki64                 1002518c f   LIBCMT:lseeki64.obj
 0001:00024288       __lseeki64_nolock          10025288 f   LIBCMT:lseeki64.obj
 0001:000242f9       __vsnprintf_helper         100252f9 f   LIBCMT:vsnprnc.obj
 0001:000243c1       __vsprintf_s_l             100253c1 f   LIBCMT:vsnprnc.obj
 0001:000244d8       __input_l                  100254d8 f   LIBCMT:input.obj
 0001:000255f4       __getbuf                   100265f4 f   LIBCMT:_getbuf.obj
 0001:0002563a       __fcloseall                1002663a f   LIBCMT:closeall.obj
 0001:000256d7       ___addlocaleref            100266d7 f   LIBCMT:localref.obj
 0001:00025767       ___freetlocinfo            10026767 f   LIBCMT:localref.obj
 0001:000258c1       ___removelocaleref         100268c1 f   LIBCMT:localref.obj
 0001:0002595c       ___updatetlocinfo          1002695c f   LIBCMT:localref.obj
 0001:000259d8       __updatetlocinfoEx_nolock  100269d8 f   LIBCMT:localref.obj
 0001:00025a23       __VEC_memset               10026a23 f   LIBCMT:p4_memset.obj
 0001:00025aeb       ?_Type_info_dtor@type_info@@CAXPAV1@@Z 10026aeb f   LIBCMT:typname.obj
 0001:00025b5c       __getstream                10026b5c f   LIBCMT:stream.obj
 0001:00025c74       __openfile                 10026c74 f   LIBCMT:_open.obj
 0001:00025ef0       __local_unwind4            10026ef0 f   LIBCMT:exsup4.obj
 0001:00025fc6       __seh_longjmp_unwind4@4    10026fc6 f   LIBCMT:exsup4.obj
 0001:00025fe2       @_EH4_CallFilterFunc@8     10026fe2 f   LIBCMT:exsup4.obj
 0001:00025ff9       @_EH4_TransferToHandler@8  10026ff9 f   LIBCMT:exsup4.obj
 0001:00026012       @_EH4_GlobalUnwind2@8      10027012 f   LIBCMT:exsup4.obj
 0001:0002602b       @_EH4_LocalUnwind@16       1002702b f   LIBCMT:exsup4.obj
 0001:00026042       __decomp                   10027042 f   LIBCMT:util.obj
 0001:00026114       __set_exp                  10027114 f   LIBCMT:util.obj
 0001:0002613f       __sptype                   1002713f f   LIBCMT:util.obj
 0001:0002619b       __errcode                  1002719b f   LIBCMT:fpexcept.obj
 0001:000261cd       __except1                  100271cd f   LIBCMT:fpexcept.obj
 0001:00026295       __handle_exc               10027295 f   LIBCMT:fpexcept.obj
 0001:00026471       __handle_qnan1             10027471 f   LIBCMT:fpexcept.obj
 0001:000264c1       __raise_exc                100274c1 f   LIBCMT:fpexcept.obj
 0001:000264e2       __raise_exc_ex             100274e2 f   LIBCMT:fpexcept.obj
 0001:000267c7       __set_errno_from_matherr   100277c7 f   LIBCMT:fpexcept.obj
 0001:000267f4       __umatherr                 100277f4 f   LIBCMT:fpexcept.obj
 0001:00026892       ___set_fpsr_sse2           10027892 f   LIBCMT:fpctrl.obj
 0001:00026908       __clrfp                    10027908 f   LIBCMT:fpctrl.obj
 0001:00026917       __ctrlfp                   10027917 f   LIBCMT:fpctrl.obj
 0001:00026940       __set_statfp               10027940 f   LIBCMT:fpctrl.obj
 0001:00026996       __statfp                   10027996 f   LIBCMT:fpctrl.obj
 0001:000269cc       __fFATN2                   100279cc     LIBCMT:87triga.obj
 0001:00026a1c       __rtpiby2                  10027a1c     LIBCMT:87triga.obj
 0001:00026a60       __cintrindisp2             10027a60 f   LIBCMT:87cdisp.obj
 0001:00026a9e       __cintrindisp1             10027a9e f   LIBCMT:87cdisp.obj
 0001:00026adb       __ctrandisp2               10027adb f   LIBCMT:87cdisp.obj
 0001:00026c6a       __ctrandisp1               10027c6a f   LIBCMT:87cdisp.obj
 0001:00026c9d       __fload                    10027c9d f   LIBCMT:87cdisp.obj
 0001:00026ce0       _pow                       10027ce0 f   LIBCMT:pow.obj
 0001:00026d20       __CIpow                    10027d20 f   LIBCMT:pow.obj
 0001:00026d5b       __CIpow_default            10027d5b f   LIBCMT:pow.obj
 0001:00026d74       __pow_default              10027d74     LIBCMT:pow.obj
 0001:00026f70       _atan                      10027f70 f   LIBCMT:atan.obj
 0001:00026fb0       __CIatan                   10027fb0 f   LIBCMT:atan.obj
 0001:00026feb       __CIatan_default           10027feb f   LIBCMT:atan.obj
 0001:00026fff       __atan_default             10027fff     LIBCMT:atan.obj
 0001:0002708a       __floor_default            1002808a f   LIBCMT:floor.obj
 0001:0002715d       __XcptFilter               1002815d f   LIBCMT:winxfltr.obj
 0001:000272b8       ___CppXcptFilter           100282b8 f   LIBCMT:winxfltr.obj
 0001:000272d6       __setargv                  100282d6 f   LIBCMT:stdargv.obj
 0001:00027503       __setenvp                  10028503 f   LIBCMT:stdenvp.obj
 0001:000275e4       ___security_init_cookie    100285e4 f   LIBCMT:gs_support.obj
 0001:0002767e       _DllMain@12                1002867e f   LIBCMT:dllmain.obj
 0001:00027684       ___crtGetEnvironmentStringsA 10028684 f   LIBCMT:a_env.obj
 0001:0002770f       __RTC_Initialize           1002870f f   LIBCMT:initsect.obj
 0001:0002772f       __RTC_Terminate            1002872f f   LIBCMT:initsect.obj
 0001:00027750       __trandisp1                10028750 f   LIBCMT:87disp.obj
 0001:000277b7       __trandisp2                100287b7 f   LIBCMT:87disp.obj
 0001:00027843       __rttospopde               10028843     LIBCMT:87disp.obj
 0001:00027848       __rttospop                 10028848     LIBCMT:87disp.obj
 0001:0002784a       __rtnospop                 1002884a     LIBCMT:87disp.obj
 0001:0002784c       __rttosnpop                1002884c     LIBCMT:87disp.obj
 0001:0002784d       __rtnospopde               1002884d     LIBCMT:87disp.obj
 0001:00027854       __rtzeropop                10028854     LIBCMT:87disp.obj
 0001:00027856       __rtzeronpop               10028856     LIBCMT:87disp.obj
 0001:0002785b       __rtonepop                 1002885b     LIBCMT:87disp.obj
 0001:0002785d       __rtonenpop                1002885d     LIBCMT:87disp.obj
 0001:00027862       __tosnan1                  10028862     LIBCMT:87disp.obj
 0001:0002788d       __nosnan2                  1002888d     LIBCMT:87disp.obj
 0001:0002788f       __tosnan2                  1002888f     LIBCMT:87disp.obj
 0001:000278b7       __nan2                     100288b7     LIBCMT:87disp.obj
 0001:000278f6       __rtindfpop                100288f6     LIBCMT:87disp.obj
 0001:000278f8       __rtindfnpop               100288f8     LIBCMT:87disp.obj
 0001:00027909       __rttosnpopde              10028909     LIBCMT:87disp.obj
 0001:00027913       __rtchsifneg               10028913     LIBCMT:87disp.obj
 0001:00027920       __startTwoArgErrorHandling 10028920 f   LIBCMT:genexcep.obj
 0001:00027937       __startOneArgErrorHandling 10028937 f   LIBCMT:genexcep.obj
 0001:00027980       __twoToTOS                 10028980 f   LIBCMT:common.obj
 0001:00027995       __load_CW                  10028995 f   LIBCMT:common.obj
 0001:000279ac       __convertTOStoQNaN         100289ac f   LIBCMT:common.obj
 0001:000279c5       __fload_withFB             100289c5 f   LIBCMT:common.obj
 0001:00027a08       __checkTOS_withFB          10028a08 f   LIBCMT:common.obj
 0001:00027a1e       __fast_exit                10028a1e f   LIBCMT:common.obj
 0001:00027a2b       __math_exit                10028a2b f   LIBCMT:common.obj
 0001:00027a55       __check_overflow_exit      10028a55 f   LIBCMT:common.obj
 0001:00027a69       __check_range_exit         10028a69 f   LIBCMT:common.obj
 0001:00027b10       __CIasin_pentium4          10028b10 f   LIBCMT:asin_pentium4.obj
 0001:00027b28       __asin_pentium4            10028b28     LIBCMT:asin_pentium4.obj
 0001:00028090       __CIacos_pentium4          10029090 f   LIBCMT:acos_pentium4.obj
 0001:000280a8       __acos_pentium4            100290a8     LIBCMT:acos_pentium4.obj
 0001:000285f0       __CIsin_pentium4           100295f0 f   LIBCMT:sin_pentium4.obj
 0001:00028608       __sin_pentium4             10029608     LIBCMT:sin_pentium4.obj
 0001:000287c0       __CIcos_pentium4           100297c0 f   LIBCMT:cos_pentium4.obj
 0001:000287d8       __cos_pentium4             100297d8     LIBCMT:cos_pentium4.obj
 0001:00028970       __CItan_pentium4           10029970 f   LIBCMT:tan_pentium4.obj
 0001:00028988       __tan_pentium4             10029988     LIBCMT:tan_pentium4.obj
 0001:00028bd0       __FindPESection            10029bd0 f   LIBCMT:pesect.obj
 0001:00028c20       __IsNonwritableInCurrentImage 10029c20 f   LIBCMT:pesect.obj
 0001:00028ce0       __ValidateImageBase        10029ce0 f   LIBCMT:pesect.obj
 0001:00028d11       __initp_misc_rand_s        10029d11 f   LIBCMT:rand_s.obj
 0001:00028d1e       ___get_sigabrt             10029d1e f   LIBCMT:winsig.obj
 0001:00028d2b       __initp_misc_winsig        10029d2b f   LIBCMT:winsig.obj
 0001:00028d47       _raise                     10029d47 f   LIBCMT:winsig.obj
 0001:00028f38       ___initmbctable            10029f38 f   LIBCMT:mbctype.obj
 0001:000291f3       ___updatetmbcinfo          1002a1f3 f   LIBCMT:mbctype.obj
 0001:00029298       __setmbcp                  1002a298 f   LIBCMT:mbctype.obj
 0001:00029446       __setmbcp_nolock           1002a446 f   LIBCMT:mbctype.obj
 0001:0002963b       ?_ValidateWrite@@YAHPAXI@Z 1002a63b f   LIBCMT:validate.obj
 0001:0002963b       ?_ValidateRead@@YAHPBXI@Z  1002a63b f   LIBCMT:validate.obj
 0001:0002963b       ?_ValidateExecute@@YAHP6GHXZ@Z 1002a63b f   LIBCMT:validate.obj
 0001:0002964a       ___raise_securityfailure   1002a64a f   LIBCMT:gs_report.obj
 0001:00029687       ___report_gsfailure        1002a687 f   LIBCMT:gs_report.obj
 0001:00029780       ___report_rangecheckfailure 1002a780 f   LIBCMT:gs_report.obj
 0001:0002978c       ___report_securityfailure  1002a78c f   LIBCMT:gs_report.obj
 0001:0002985a       __isctype_l                1002a85a f   LIBCMT:isctype.obj
 0001:00029909       __locterm                  1002a909 f   LIBCMT:wsetloca.obj
 0001:0002995b       ___copy_locale_name        1002a95b f   LIBCMT:wsetloca.obj
 0001:000299bf       ___lc_lctowcs              1002a9bf f   LIBCMT:wsetloca.obj
 0001:00029a2d       ___lc_wcstolc              1002aa2d f   LIBCMT:wsetloca.obj
 0001:00029b83       __expandlocale             1002ab83 f   LIBCMT:wsetloca.obj
 0001:00029e78       __wcscats                  1002ae78 f   LIBCMT:wsetloca.obj
 0001:00029eb7       __wsetlocale               1002aeb7 f   LIBCMT:wsetloca.obj
 0001:0002a7c7       _calloc                    1002b7c7 f   LIBCMT:calloc.obj
 0001:0002a805       _wcscpy_s                  1002b805 f   LIBCMT:wcscpy_s.obj
 0001:0002a94d       ___crtGetStringTypeA       1002b94d f   LIBCMT:a_str.obj
 0001:0002a990       __alloca_probe_16          1002b990 f   LIBCMT:alloca16.obj
 0001:0002a9a6       __alloca_probe_8           1002b9a6     LIBCMT:alloca16.obj
 0001:0002a9bc       _realloc                   1002b9bc f   LIBCMT:realloc.obj
 0001:0002aa67       __recalloc                 1002ba67 f   LIBCMT:recalloc.obj
 0001:0002aad0       __calloc_impl              1002bad0 f   LIBCMT:calloc_impl.obj
 0001:0002ab4a       __mbstowcs_l_helper        1002bb4a f   LIBCMT:mbstowcs.obj
 0001:0002aca9       __mbstowcs_s_l             1002bca9 f   LIBCMT:mbstowcs.obj
 0001:0002ad85       _mbstowcs_s                1002bd85 f   LIBCMT:mbstowcs.obj
 0001:0002ada3       __wcstombs_l_helper        1002bda3 f   LIBCMT:wcstombs.obj
 0001:0002b008       __wcstombs_s_l             1002c008 f   LIBCMT:wcstombs.obj
 0001:0002b0d1       __ftell_nolock             1002c0d1 f   LIBCMT:ftell.obj
 0001:0002b42a       __lseek                    1002c42a f   LIBCMT:lseek.obj
 0001:0002b50c       __lseek_nolock             1002c50c f   LIBCMT:lseek.obj
 0001:0002b57e       __wcsicmp                  1002c57e f   LIBCMT:wcsicmp.obj
 0001:0002b611       __wcsicmp_l                1002c611 f   LIBCMT:wcsicmp.obj
 0001:0002b6ea       __isleadbyte_l             1002c6ea f i LIBCMT:_wctype.obj
 0001:0002b720       _isleadbyte                1002c720 f i LIBCMT:_wctype.obj
 0001:0002b731       _wcsnlen                   1002c731 f   LIBCMT:wcslen_s.obj
 0001:0002b750       __crt_debugger_hook        1002c750 f   LIBCMT:dbghook.obj
 0001:0002b758       __output_s_l               1002c758 f   LIBCMT:outputs.obj
 0001:0002c3aa       __isatty                   1002d3aa f   LIBCMT:isatty.obj
 0001:0002c3fe       __wctomb_s_l               1002d3fe f   LIBCMT:wctomb.obj
 0001:0002c520       _wctomb_s                  1002d520 f   LIBCMT:wctomb.obj
 0001:0002c540       __aulldvrm                 1002d540 f   LIBCMT:ulldvrm.obj
 0001:0002c5d5       ___init_collate            1002d5d5 f   LIBCMT:initcoll.obj
 0001:0002c5d5       ___init_dummy              1002d5d5 f   LIBCMT:wsetloca.obj
 0001:0002c5d5       __matherr                  1002d5d5 f   LIBCMT:matherr.obj
 0001:0002c5d8       __frnd                     1002d5d8 f   LIBCMT:frnd.obj
 0001:0002c5f0       __global_unwind2           1002d5f0 f   LIBCMT:exsup.obj
 0001:0002c655       __local_unwind2            1002d655 f   LIBCMT:exsup.obj
 0001:0002c6d9       __abnormal_termination     1002d6d9 f   LIBCMT:exsup.obj
 0001:0002c6fc       __NLG_Notify1              1002d6fc f   LIBCMT:exsup.obj
 0001:0002c705       __NLG_Notify               1002d705 f   LIBCMT:exsup.obj
 0001:0002c71c       __NLG_Dispatch2            1002d71c     LIBCMT:exsup.obj
 0001:0002c71c       __NLG_Dispatch             1002d71c     LIBCMT:exsup.obj
 0001:0002c724       __NLG_Call                 1002d724 f   LIBCMT:exsup.obj
 0001:0002c726       __NLG_Return2              1002d726     LIBCMT:exsup.obj
 0001:0002c730       __CIexp_pentium4           1002d730 f   LIBCMT:exp_pentium4.obj
 0001:0002c748       __exp_pentium4             1002d748     LIBCMT:exp_pentium4.obj
 0001:0002ca01       __fFEXP                    1002da01     LIBCMT:87tran.obj
 0001:0002ca58       __rtinfpopse               1002da58     LIBCMT:87tran.obj
 0001:0002ca5a       __rtinfnpopse              1002da5a     LIBCMT:87tran.obj
 0001:0002ca6a       __fFLN                     1002da6a     LIBCMT:87tran.obj
 0001:0002cb1f       __rtinfpop                 1002db1f     LIBCMT:87tran.obj
 0001:0002cb21       __rtinfnpop                1002db21     LIBCMT:87tran.obj
 0001:0002cb3e       __ffexpm1                  1002db3e     LIBCMT:87tran.obj
 0001:0002cbe7       __fptostr                  1002dbe7 f   LIBCMT:_fptostr.obj
 0001:0002cc97       __atodbl_l                 1002dc97 f   LIBCMT:atodbl.obj
 0001:0002cd23       __atoflt_l                 1002dd23 f   LIBCMT:atodbl.obj
 0001:0002cdaf       ___dtold                   1002ddaf f   LIBCMT:cfout.obj
 0001:0002ce75       __fltout2                  1002de75 f   LIBCMT:cfout.obj
 0001:0002cf10       __alldvrm                  1002df10 f   LIBCMT:lldvrm.obj
 0001:0002cff0       __aullshr                  1002dff0 f   LIBCMT:ullshr.obj
 0001:0002d00f       __controlfp_s              1002e00f f   LIBCMT:contrlfp.obj
 0001:0002d06c       __fptrap                   1002e06c f   LIBCMT:crt0fp.obj
 0001:0002d075       _wcscat_s                  1002e075 f   LIBCMT:wcscat_s.obj
 0001:0002d0e1       _wcsncpy_s                 1002e0e1 f   LIBCMT:wcsncpy_s.obj
 0001:0002d19f       __set_error_mode           1002e19f f   LIBCMT:errmode.obj
 0001:0002d1df       ___crtMessageBoxW          1002e1df f   LIBCMT:crtmboxw.obj
 0001:0002d3c1       _strncpy_s                 1002e3c1 f   LIBCMT:strncpy_s.obj
 0001:0002d53d       ___crtGetLocaleInfoA       1002e53d f   LIBCMT:a_loc.obj
 0001:0002d575       ___lock_fhandle            1002e575 f   LIBCMT:osfinfo.obj
 0001:0002d601       __alloc_osfhnd             1002e601 f   LIBCMT:osfinfo.obj
 0001:0002d7a6       __free_osfhnd              1002e7a6 f   LIBCMT:osfinfo.obj
 0001:0002d82c       __get_osfhandle            1002e82c f   LIBCMT:osfinfo.obj
 0001:0002d893       __set_osfhnd               1002e893 f   LIBCMT:osfinfo.obj
 0001:0002d915       __unlock_fhandle           1002e915 f   LIBCMT:osfinfo.obj
 0001:0002d93b       __mbtowc_l                 1002e93b f   LIBCMT:mbtowc.obj
 0001:0002da2e       _mbtowc                    1002ea2e f   LIBCMT:mbtowc.obj
 0001:0002da46       __putwch_nolock            1002ea46 f   LIBCMT:putwch.obj
 0001:0002da87       __read                     1002ea87 f   LIBCMT:read.obj
 0001:0002db8f       __read_nolock              1002eb8f f   LIBCMT:read.obj
 0001:0002e31e       ___free_lconv_mon          1002f31e f   LIBCMT:initmon.obj
 0001:0002e41a       ___init_monetary           1002f41a f   LIBCMT:initmon.obj
 0001:0002e7bc       ___free_lconv_num          1002f7bc f   LIBCMT:initnum.obj
 0001:0002e823       ___init_numeric            1002f823 f   LIBCMT:initnum.obj
 0001:0002ea2b       ___free_lc_time            1002fa2b f   LIBCMT:inittime.obj
 0001:0002edab       ___init_time               1002fdab f   LIBCMT:inittime.obj
 0001:0002f618       __sopen_helper             10030618 f   LIBCMT:open.obj
 0001:0002f6df       __sopen_nolock             100306df f   LIBCMT:open.obj
 0001:0002f72b       __sopen_s                  1003072b f   LIBCMT:open.obj
 0001:0002f749       __mbsnbcmp                 10030749 f   LIBCMT:mbsnbcmp.obj
 0001:0002f761       __mbsnbcmp_l               10030761 f   LIBCMT:mbsnbcmp.obj
 0001:0002f876       __mbsnbicmp                10030876 f   LIBCMT:mbsnbicm.obj
 0001:0002f88e       __mbsnbicmp_l              1003088e f   LIBCMT:mbsnbicm.obj
 0001:0002fa4a       __87except                 10030a4a f   LIBCMT:87except.obj
 0001:0002fb60       __CIpow_pentium4           10030b60 f   LIBCMT:pow_pentium4.obj
 0001:0002fb79       __pow_pentium4             10030b79     LIBCMT:pow_pentium4.obj
 0001:000306c0       __d_inttype                100316c0 f   LIBCMT:powhlp.obj
 0001:00030726       __powhlp                   10031726 f   LIBCMT:powhlp.obj
 0001:00030860       __CIatan_pentium4          10031860 f   LIBCMT:atan_pentium4.obj
 0001:00030878       __atan_pentium4            10031878     LIBCMT:atan_pentium4.obj
 0001:00030b4c       _wcscmp                    10031b4c f   LIBCMT:wcscmp.obj
 0001:00030b8a       _wcscspn                   10031b8a f   LIBCMT:wcscspn.obj
 0001:00030bd9       _wcsncmp                   10031bd9 f   LIBCMT:wcsncmp.obj
 0001:00030c0f       _wcspbrk                   10031c0f f   LIBCMT:wcspbrk.obj
 0001:00031166       ___get_qualified_locale    10032166 f   LIBCMT:getqloc.obj
 0001:000319b2       ___get_qualified_locale_downlevel 100329b2 f   LIBCMT:getqloc_downlevel.obj
 0001:00031c5d       __wsopen_nolock            10032c5d f   LIBCMT:wopen.obj
 0001:000323ae       __wcsnicmp                 100333ae f   LIBCMT:wcsnicmp.obj
 0001:00032462       __wcsnicmp_l               10033462 f   LIBCMT:wcsnicmp.obj
 0001:00032559       __towlower_l               10033559 f   LIBCMT:towlower.obj
 0001:0003260b       _iswctype                  1003360b f   LIBCMT:iswctype.obj
 0001:0003265d       __ld12tod                  1003365d f   LIBCMT:intrncvt.obj
 0001:00032bcd       __ld12tof                  10033bcd f   LIBCMT:intrncvt.obj
 0001:0003313d       ___strgtold12_l            1003413d f   LIBCMT:strgtold.obj
 0001:000338b9       _$I10_OUTPUT               100348b9 f   LIBCMT:x10fout.obj
 0001:00034326       __control87                10035326 f i LIBCMT:ieee87.obj
 0001:000346bd       ___termconout              100356bd f   LIBCMT:initcon.obj
 0001:000346d4       ___initconout              100356d4 f   LIBCMT:initcon.obj
 0001:00034700       _strncmp                   10035700 f   LIBCMT:strncmp.obj
 0001:00034778       __strnicmp                 10035778 f   LIBCMT:strnicmp.obj
 0001:000347e3       __strnicmp_l               100357e3 f   LIBCMT:strnicmp.obj
 0001:00034892       __itow_s                   10035892 f   LIBCMT:xtows.obj
 0001:000349ae       __wtol                     100359ae f   LIBCMT:wtox.obj
 0001:000349c2       _wcschr                    100359c2 f   LIBCMT:wcschr.obj
 0001:00034a70       __chsize_nolock            10035a70 f   LIBCMT:chsize.obj
 0001:00034c24       __get_fmode                10035c24 f   LIBCMT:setmode.obj
 0001:00034c4e       __setmode_nolock           10035c4e f   LIBCMT:setmode.obj
 0001:00034d1b       ___mtold12                 10035d1b f   LIBCMT:mantold.obj
 0001:00034f00       ___ascii_strnicmp          10035f00 f   LIBCMT:_strnicm.obj
 0001:0003513d       _wcstol                    1003613d f   LIBCMT:wcstol.obj
 0001:00035155       __wchartodigit             10036155 f   LIBCMT:wchtodig.obj
 0001:000352f4       _RtlUnwind@16              100362f4 f   kernel32:KERNEL32.dll
 0001:000352fa       _IsProcessorFeaturePresent@4 100362fa f   kernel32:KERNEL32.dll
 0002:00000000       __imp__SetUnhandledExceptionFilter@4 10037000     kernel32:KERNEL32.dll
 0002:00000004       __imp__SetEndOfFile@4      10037004     kernel32:KERNEL32.dll
 0002:00000008       __imp__CreateFileW@28      10037008     kernel32:KERNEL32.dll
 0002:0000000c       __imp__ReadConsoleW@20     1003700c     kernel32:KERNEL32.dll
 0002:00000010       __imp__WriteConsoleW@20    10037010     kernel32:KERNEL32.dll
 0002:00000014       __imp__SetStdHandle@8      10037014     kernel32:KERNEL32.dll
 0002:00000018       __imp__LoadLibraryW@4      10037018     kernel32:KERNEL32.dll
 0002:0000001c       __imp__OutputDebugStringW@4 1003701c     kernel32:KERNEL32.dll
 0002:00000020       __imp__SetFilePointer@16   10037020     kernel32:KERNEL32.dll
 0002:00000024       __imp__HeapReAlloc@16      10037024     kernel32:KERNEL32.dll
 0002:00000028       __imp__GetOEMCP@0          10037028     kernel32:KERNEL32.dll
 0002:0000002c       __imp__GetACP@0            1003702c     kernel32:KERNEL32.dll
 0002:00000030       __imp__IsValidCodePage@4   10037030     kernel32:KERNEL32.dll
 0002:00000034       __imp__LoadLibraryExW@12   10037034     kernel32:KERNEL32.dll
 0002:00000038       __imp__FreeEnvironmentStringsW@4 10037038     kernel32:KERNEL32.dll
 0002:0000003c       __imp__GetEnvironmentStringsW@0 1003703c     kernel32:KERNEL32.dll
 0002:00000040       __imp__GetSystemTimeAsFileTime@4 10037040     kernel32:KERNEL32.dll
 0002:00000044       __imp__GetCurrentProcessId@0 10037044     kernel32:KERNEL32.dll
 0002:00000048       __imp__QueryPerformanceCounter@4 10037048     kernel32:KERNEL32.dll
 0002:0000004c       __imp__GetModuleFileNameA@12 1003704c     kernel32:KERNEL32.dll
 0002:00000050       __imp__SetFilePointerEx@20 10037050     kernel32:KERNEL32.dll
 0002:00000054       __imp__ReadFile@20         10037054     kernel32:KERNEL32.dll
 0002:00000058       __imp__GetFileType@4       10037058     kernel32:KERNEL32.dll
 0002:0000005c       __imp__GetConsoleMode@8    1003705c     kernel32:KERNEL32.dll
 0002:00000060       __imp__GetConsoleCP@0      10037060     kernel32:KERNEL32.dll
 0002:00000064       __imp__FlushFileBuffers@4  10037064     kernel32:KERNEL32.dll
 0002:00000068       __imp__InterlockedIncrement@4 10037068     kernel32:KERNEL32.dll
 0002:0000006c       __imp__InterlockedDecrement@4 1003706c     kernel32:KERNEL32.dll
 0002:00000070       __imp__WideCharToMultiByte@32 10037070     kernel32:KERNEL32.dll
 0002:00000074       __imp__EnterCriticalSection@4 10037074     kernel32:KERNEL32.dll
 0002:00000078       __imp__LeaveCriticalSection@4 10037078     kernel32:KERNEL32.dll
 0002:0000007c       __imp__DeleteCriticalSection@4 1003707c     kernel32:KERNEL32.dll
 0002:00000080       __imp__Sleep@4             10037080     kernel32:KERNEL32.dll
 0002:00000084       __imp__EncodePointer@4     10037084     kernel32:KERNEL32.dll
 0002:00000088       __imp__DecodePointer@4     10037088     kernel32:KERNEL32.dll
 0002:0000008c       __imp__MultiByteToWideChar@24 1003708c     kernel32:KERNEL32.dll
 0002:00000090       __imp__GetStringTypeW@16   10037090     kernel32:KERNEL32.dll
 0002:00000094       __imp__RtlUnwind@16        10037094     kernel32:KERNEL32.dll
 0002:00000098       __imp__GetLastError@0      10037098     kernel32:KERNEL32.dll
 0002:0000009c       __imp__HeapFree@12         1003709c     kernel32:KERNEL32.dll
 0002:000000a0       __imp__RaiseException@16   100370a0     kernel32:KERNEL32.dll
 0002:000000a4       __imp__HeapAlloc@12        100370a4     kernel32:KERNEL32.dll
 0002:000000a8       __imp__GetCommandLineA@0   100370a8     kernel32:KERNEL32.dll
 0002:000000ac       __imp__GetCurrentThreadId@0 100370ac     kernel32:KERNEL32.dll
 0002:000000b0       __imp__ExitProcess@4       100370b0     kernel32:KERNEL32.dll
 0002:000000b4       __imp__GetModuleHandleExW@12 100370b4     kernel32:KERNEL32.dll
 0002:000000b8       __imp__GetProcAddress@8    100370b8     kernel32:KERNEL32.dll
 0002:000000bc       __imp__AreFileApisANSI@0   100370bc     kernel32:KERNEL32.dll
 0002:000000c0       __imp__InitializeCriticalSectionAndSpinCount@8 100370c0     kernel32:KERNEL32.dll
 0002:000000c4       __imp__GetCPInfo@8         100370c4     kernel32:KERNEL32.dll
 0002:000000c8       __imp__UnhandledExceptionFilter@4 100370c8     kernel32:KERNEL32.dll
 0002:000000cc       __imp__SetLastError@4      100370cc     kernel32:KERNEL32.dll
 0002:000000d0       __imp__GetCurrentProcess@0 100370d0     kernel32:KERNEL32.dll
 0002:000000d4       __imp__TerminateProcess@8  100370d4     kernel32:KERNEL32.dll
 0002:000000d8       __imp__TlsAlloc@0          100370d8     kernel32:KERNEL32.dll
 0002:000000dc       __imp__TlsGetValue@4       100370dc     kernel32:KERNEL32.dll
 0002:000000e0       __imp__TlsSetValue@8       100370e0     kernel32:KERNEL32.dll
 0002:000000e4       __imp__TlsFree@4           100370e4     kernel32:KERNEL32.dll
 0002:000000e8       __imp__GetStartupInfoW@4   100370e8     kernel32:KERNEL32.dll
 0002:000000ec       __imp__GetModuleHandleW@4  100370ec     kernel32:KERNEL32.dll
 0002:000000f0       __imp__IsProcessorFeaturePresent@4 100370f0     kernel32:KERNEL32.dll
 0002:000000f4       __imp__LCMapStringW@24     100370f4     kernel32:KERNEL32.dll
 0002:000000f8       __imp__GetLocaleInfoW@16   100370f8     kernel32:KERNEL32.dll
 0002:000000fc       __imp__IsValidLocale@8     100370fc     kernel32:KERNEL32.dll
 0002:00000100       __imp__GetUserDefaultLCID@0 10037100     kernel32:KERNEL32.dll
 0002:00000104       __imp__EnumSystemLocalesW@8 10037104     kernel32:KERNEL32.dll
 0002:00000108       __imp__IsDebuggerPresent@0 10037108     kernel32:KERNEL32.dll
 0002:0000010c       __imp__GetStdHandle@4      1003710c     kernel32:KERNEL32.dll
 0002:00000110       __imp__WriteFile@20        10037110     kernel32:KERNEL32.dll
 0002:00000114       __imp__GetModuleFileNameW@12 10037114     kernel32:KERNEL32.dll
 0002:00000118       __imp__HeapSize@12         10037118     kernel32:KERNEL32.dll
 0002:0000011c       __imp__GetProcessHeap@0    1003711c     kernel32:KERNEL32.dll
 0002:00000120       __imp__CloseHandle@4       10037120     kernel32:KERNEL32.dll
 0002:00000124       \177KERNEL32_NULL_THUNK_DATA 10037124     kernel32:KERNEL32.dll
 0002:00000128       __imp_?GfuiKeyEventRegisterCurrent@@YAXP6AHEHH@Z@Z 10037128     client:client.dll
 0002:0000012c       __imp_?GfuiSKeyEventRegisterCurrent@@YAXP6AHHHH@Z@Z 1003712c     client:client.dll
 0002:00000130       __imp_?GfuiMouseShow@@YAXXZ 10037130     client:client.dll
 0002:00000134       __imp_?GfctrlJoyInit@@YAPAUtCtrlJoyInfo@@XZ 10037134     client:client.dll
 0002:00000138       __imp_?GfctrlJoyGetCurrent@@YAHPAUtCtrlJoyInfo@@@Z 10037138     client:client.dll
 0002:0000013c       __imp_?GfctrlJoyRelease@@YAXPAUtCtrlJoyInfo@@@Z 1003713c     client:client.dll
 0002:00000140       __imp_?GfctrlMouseInit@@YAPAUtCtrlMouseInfo@@XZ 10037140     client:client.dll
 0002:00000144       __imp_?GfctrlMouseGetCurrent@@YAHPAUtCtrlMouseInfo@@@Z 10037144     client:client.dll
 0002:00000148       __imp_?GfctrlMouseRelease@@YAXPAUtCtrlMouseInfo@@@Z 10037148     client:client.dll
 0002:0000014c       __imp_?GfctrlMouseCenter@@YAXXZ 1003714c     client:client.dll
 0002:00000150       __imp_?GfctrlMouseInitCenter@@YAXXZ 10037150     client:client.dll
 0002:00000154       __imp_?GfctrlGetRefByName@@YAPAUtCtrlRef@@PBD@Z 10037154     client:client.dll
 0002:00000158       __imp_?GfctrlGetNameByRef@@YAPBDHH@Z 10037158     client:client.dll
 0002:0000015c       __imp_?GfScrGetSize@@YAXPAH000@Z 1003715c     client:client.dll
 0002:00000160       \177client_NULL_THUNK_DATA 10037160     client:client.dll
 0002:00000164       __imp_?RtTrackSideTgAngleL@@YAMPAUtTrkLocPos@@@Z 10037164     robottools:robottools.dll
 0002:00000168       __imp_?RtGetDistFromStart@@YAMPAUCarElt@@@Z 10037168     robottools:robottools.dll
 0002:0000016c       \177robottools_NULL_THUNK_DATA 1003716c     robottools:robottools.dll
 0002:00000170       __imp_?_tgf_win_free@@YAXPAX@Z 10037170     tgf:tgf.dll
 0002:00000174       __imp_?_tgf_win_strdup@@YAPADPBD@Z 10037174     tgf:tgf.dll
 0002:00000178       __imp_?GfParmReadFile@@YAPAXPBDH@Z 10037178     tgf:tgf.dll
 0002:0000017c       __imp_?GfParmWriteFile@@YAHPBDPAX0@Z 1003717c     tgf:tgf.dll
 0002:00000180       __imp_?_tgf_win_calloc@@YAPAXII@Z 10037180     tgf:tgf.dll
 0002:00000184       __imp_?GfParmSetNum@@YAHPAXPBD11M@Z 10037184     tgf:tgf.dll
 0002:00000188       __imp_?GfParmReleaseHandle@@YAXPAX@Z 10037188     tgf:tgf.dll
 0002:0000018c       __imp_?GetLocalDir@@YAPADXZ 1003718c     tgf:tgf.dll
 0002:00000190       __imp_?GfParmGetNum@@YAMPAXPBD11M@Z 10037190     tgf:tgf.dll
 0002:00000194       __imp_?GfParmSetStr@@YAHPAXPBD11@Z 10037194     tgf:tgf.dll
 0002:00000198       __imp_?GfParmGetStr@@YAPBDPAXPBD11@Z 10037198     tgf:tgf.dll
 0002:0000019c       \177tgf_NULL_THUNK_DATA    1003719c     tgf:tgf.dll
 0002:000001a0       ___xc_a                    100371a0     LIBCMT:crt0init.obj
 0002:000001c4       ___xc_z                    100371c4     LIBCMT:crt0init.obj
 0002:000001c8       ___xi_a                    100371c8     LIBCMT:crt0init.obj
 0002:000001e0       ___xi_z                    100371e0     LIBCMT:crt0init.obj
 0002:000001e4       ___xp_a                    100371e4     LIBCMT:crt0init.obj
 0002:000001f4       ___xp_z                    100371f4     LIBCMT:crt0init.obj
 0002:000001f8       ___xt_a                    100371f8     LIBCMT:crt0init.obj
 0002:000001fc       ___xt_z                    100371fc     LIBCMT:crt0init.obj
 0002:00000208       ?PATHERR@MyCar@@2NB        10037208     mycar.obj
 0002:00000210       ?CORRLEN@MyCar@@2NB        10037210     mycar.obj
 0002:00000218       ?TURNTOL@MyCar@@2NB        10037218     mycar.obj
 0002:00000220       ?TURNSPEED@MyCar@@2NB      10037220     mycar.obj
 0002:00000228       ?MARGIN@MyCar@@2NB         10037228     mycar.obj
 0002:00000230       ?STABLESPEED@MyCar@@2NB    10037230     mycar.obj
 0002:00000238       ?TIMETOCATCH@MyCar@@2NB    10037238     mycar.obj
 0002:00000240       ?MINOVERTAKERANGE@MyCar@@2NB 10037240     mycar.obj
 0002:00000248       ?OVERTAKERADIUS@MyCar@@2NB 10037248     mycar.obj
 0002:00000250       ?OVERTAKEDIST@MyCar@@2NB   10037250     mycar.obj
 0002:00000258       ?OVERTAKEMINDIST@MyCar@@2NB 10037258     mycar.obj
 0002:00000260       ?OVERTAKEANGLE@MyCar@@2NB  10037260     mycar.obj
 0002:00000268       ?OVERTAKEMARGIN@MyCar@@2NB 10037268     mycar.obj
 0002:00000270       ?MAXALLOWEDPITCH@MyCar@@2NB 10037270     mycar.obj
 0002:00000278       ?FLYSPEED@MyCar@@2NB       10037278     mycar.obj
 0002:00000280       ?OVERLAPSTARTDIST@MyCar@@2NB 10037280     mycar.obj
 0002:00000288       ?OVERLAPPASSDIST@MyCar@@2NB 10037288     mycar.obj
 0002:00000290       ?OVERLAPWAITTIME@MyCar@@2NB 10037290     mycar.obj
 0002:00000298       ?LAPBACKTIMEPENALTY@MyCar@@2NB 10037298     mycar.obj
 0002:000002a0       ?TCL_SLIP@MyCar@@2NB       100372a0     mycar.obj
 0002:000002a8       ?TCL_RANGE@MyCar@@2NB      100372a8     mycar.obj
 0002:000002b0       ?SHIFT@MyCar@@2NB          100372b0     mycar.obj
 0002:000002b8       ?SHIFT_MARGIN@MyCar@@2NB   100372b8     mycar.obj
 0002:000002c0       ?MAX_SPEED@MyCar@@2NB      100372c0     mycar.obj
 0002:000002c8       ?MAX_FUEL_PER_METER@MyCar@@2NB 100372c8     mycar.obj
 0002:000002d0       ?LOOKAHEAD_MAX_ERROR@MyCar@@2NB 100372d0     mycar.obj
 0002:000002d8       ?LOOKAHEAD_FACTOR@MyCar@@2NB 100372d8     mycar.obj
 0002:000002e8       ??_C@_09KBFOLGED@GC?5height?$AA@ 100372e8     mycar.obj
 0002:000002f4       ??_C@_03DAGGNFD@Car?$AA@   100372f4     mycar.obj
 0002:000002f8       ??_C@_05NNOHLBDC@caero?$AA@ 100372f8     mycar.obj
 0002:00000300       ??_C@_0BI@IBKLMFBB@berniw_Recorder?5private?$AA@ 10037300     mycar.obj
 0002:00000318       ??_C@_09IFGOAGEJ@cfriction?$AA@ 10037318     mycar.obj
 0002:00000324       ??_C@_06FOAJGMG@DBG?51?6?$AA@ 10037324     mycar.obj
 0002:0000032c       ??_C@_0N@GEJBANM@initial?5fuel?$AA@ 1003732c     mycar.obj
 0002:0000033c       ??_C@_04IJEANHEE@mass?$AA@ 1003733c     mycar.obj
 0002:00000344       ??_C@_03ECFJFFPO@RWD?$AA@  10037344     mycar.obj
 0002:00000348       ??_C@_04GPMDFGEJ@type?$AA@ 10037348     mycar.obj
 0002:00000350       ??_C@_0L@GPGHGHOJ@Drivetrain?$AA@ 10037350     mycar.obj
 0002:0000035c       ??_C@_03JNCCJFDG@FWD?$AA@  1003735c     mycar.obj
 0002:00000360       ??_C@_03FMBEPNCB@4WD?$AA@  10037360     mycar.obj
 0002:00000364       ??_C@_06HKGCIJP@DBG?52?6?$AA@ 10037364     mycar.obj
 0002:0000036c       ??_C@_02JFIEOGIK@Cx?$AA@   1003736c     mycar.obj
 0002:00000370       ??_C@_0N@GFHNLLOJ@Aerodynamics?$AA@ 10037370     mycar.obj
 0002:00000380       ??_C@_0L@NAALCPPI@front?5area?$AA@ 10037380     mycar.obj
 0002:0000038c       ??_C@_06GGEECKI@DBG?53?6?$AA@ 1003738c     mycar.obj
 0002:00000394       ??_C@_06DCLFECN@DBG?54?6?$AA@ 10037394     mycar.obj
 0002:0000039c       ??_C@_0P@NDDEHBFL@wheelbase?3?5?$CFf?6?$AA@ 1003739c     mycar.obj
 0002:000003ac       ??_C@_0BA@OPGFIKIN@wheeltrack?3?5?$CFf?6?$AA@ 100373ac     mycar.obj
 0002:000003bc       ??_C@_06EADKBJJD@?$CFd?7?$CFf?6?$AA@ 100373bc     mycar.obj
 0002:000003c4       ??_C@_0M@KNLKEDBP@Offset?3?5?$CFd?6?$AA@ 100373c4     mycar.obj
 0002:000003d0       ??_C@_0M@JLLEGKBO@?$CDgears?3?5?$CFd?6?$AA@ 100373d0     mycar.obj
 0002:000003dc       ??_C@_09BIPBPCPJ@gear?3?5?$CFd?6?$AA@ 100373dc     mycar.obj
 0002:000003e8       ??_C@_0BK@LABCNJFC@steerlock?3?5?$CFf?5rad?0?5?$CFf?o?$LP?$LN?6?$AA@ 100373e8     mycar.obj
 0002:00000404       ??_C@_0O@MICHCFEB@cgcorr_b?3?5?$CFf?6?$AA@ 10037404     mycar.obj
 0002:00000414       ??_C@_0P@EMGNAMBK@car?5index?3?5?$CFd?6?$AA@ 10037414     mycar.obj
 0002:00000424       ??_C@_0N@HKGINNIL@race?5nb?3?5?$CFd?6?$AA@ 10037424     mycar.obj
 0002:00000434       ??_C@_0BC@DPFNLKJM@Front?5Right?5Wheel?$AA@ 10037434     mycar.obj
 0002:00000448       ??_C@_0BB@LHAPOPKP@Front?5Left?5Wheel?$AA@ 10037448     mycar.obj
 0002:0000045c       ??_C@_0BB@FDACEIHE@Rear?5Right?5Wheel?$AA@ 1003745c     mycar.obj
 0002:00000470       ??_C@_0BA@OOGIOKPL@Rear?5Left?5Wheel?$AA@ 10037470     mycar.obj
 0002:00000480       ??_C@_04GOEDGNCF@area?$AA@ 10037480     mycar.obj
 0002:00000488       ??_C@_09HDJCNBBO@Rear?5Wing?$AA@ 10037488     mycar.obj
 0002:00000494       ??_C@_05FECBCJJD@angle?$AA@ 10037494     mycar.obj
 0002:0000049c       ??_C@_0M@CCMIOJBA@front?5Clift?$AA@ 1003749c     mycar.obj
 0002:000004a8       ??_C@_0L@PLABABOE@rear?5Clift?$AA@ 100374a8     mycar.obj
 0002:000004b4       ??_C@_0M@IPGIOMHG@ride?5height?$AA@ 100374b4     mycar.obj
 0002:000004c0       __real@00000000            100374c0     mycar.obj
 0002:000004c8       __real@0000000000000000    100374c8     mycar.obj
 0002:000004d0       __real@3f847ae147ae147b    100374d0     mycar.obj
 0002:000004d8       __real@3f947ae147ae147b    100374d8     mycar.obj
 0002:000004e0       __real@3fb999999999999a    100374e0     mycar.obj
 0002:000004e8       __real@3fc999999999999a    100374e8     mycar.obj
 0002:000004f0       __real@3fd0000000000000    100374f0     mycar.obj
 0002:000004f8       __real@3fdd70a3d70a3d71    100374f8     mycar.obj
 0002:00000500       __real@3fe0000000000000    10037500     mycar.obj
 0002:00000508       __real@3fe4000000000000    10037508     mycar.obj
 0002:00000510       __real@3feccccccccccccd    10037510     mycar.obj
 0002:00000518       __real@3fee666666666666    10037518     mycar.obj
 0002:00000520       __real@3fef5c28f5c28f5c    10037520     mycar.obj
 0002:00000528       __real@3ff0000000000000    10037528     mycar.obj
 0002:00000530       __real@3ff199999999999a    10037530     mycar.obj
 0002:00000538       __real@3ff3333333333333    10037538     mycar.obj
 0002:00000540       __real@3ff3ae147ae147ae    10037540     mycar.obj
 0002:00000548       __real@3ff4cccccccccccd    10037548     mycar.obj
 0002:00000550       __real@3ff8000000000000    10037550     mycar.obj
 0002:00000558       __real@3ff999999999999a    10037558     mycar.obj
 0002:00000560       __real@40000000            10037560     mycar.obj
 0002:00000568       __real@4000000000000000    10037568     mycar.obj
 0002:00000570       __real@400921fb54442d18    10037570     mycar.obj
 0002:00000578       __real@4010000000000000    10037578     mycar.obj
 0002:00000580       __real@4014000000000000    10037580     mycar.obj
 0002:00000588       __real@402e000000000000    10037588     mycar.obj
 0002:00000590       __real@4034000000000000    10037590     mycar.obj
 0002:00000598       __real@4039000000000000    10037598     mycar.obj
 0002:000005a0       __real@4046800000000000    100375a0     mycar.obj
 0002:000005a8       __real@43340000            100375a8     mycar.obj
 0002:000005b0       __real@47efffffe0000000    100375b0     mycar.obj
 0002:000005b8       __real@bfd5555555555555    100375b8     mycar.obj
 0002:000005c0       __real@bff0000000000000    100375c0     mycar.obj
 0002:000005c8       __real@c008000000000000    100375c8     mycar.obj
 0002:000005d0       __xmm@7fffffffffffffff7fffffffffffffff 100375d0     mycar.obj
 0002:000005e0       __xmm@80000000800000008000000080000000 100375e0     mycar.obj
 0002:000005f4       ??_7runtime_error@std@@6B@ 100375f4     NeuralNetwork.obj
 0002:000005fc       ??_C@_0BA@ELKIONDK@bad?5locale?5name?$AA@ 100375fc     NeuralNetwork.obj
 0002:0000060c       ??_C@_05LAPONLG@false?$AA@ 1003760c     NeuralNetwork.obj
 0002:00000614       ??_C@_04LOAJBDKD@true?$AA@ 10037614     NeuralNetwork.obj
 0002:00000620       ??_7_Facet_base@std@@6B@   10037620     NeuralNetwork.obj
 0002:0000062c       ??_C@_00CNPNBAHC@?$AA@     1003762c     NeuralNetwork.obj
 0002:00000634       ??_7?$ctype@D@std@@6B@     10037634     NeuralNetwork.obj
 0002:00000664       ??_7error_category@std@@6B@ 10037664     NeuralNetwork.obj
 0002:00000680       ??_7system_error@std@@6B@  10037680     NeuralNetwork.obj
 0002:0000068c       ??_7_Generic_error_category@std@@6B@ 1003768c     NeuralNetwork.obj
 0002:000006a4       ??_C@_07DCLBNMLN@generic?$AA@ 100376a4     NeuralNetwork.obj
 0002:000006ac       ??_C@_0O@BFJCFAAK@unknown?5error?$AA@ 100376ac     NeuralNetwork.obj
 0002:000006c0       ??_7_Iostream_error_category@std@@6B@ 100376c0     NeuralNetwork.obj
 0002:000006d8       ??_C@_08LLGCOLLL@iostream?$AA@ 100376d8     NeuralNetwork.obj
 0002:000006e4       ??_C@_0BG@PADBLCHM@iostream?5stream?5error?$AA@ 100376e4     NeuralNetwork.obj
 0002:00000700       ??_7_System_error_category@std@@6B@ 10037700     NeuralNetwork.obj
 0002:00000718       ??_C@_06FHFOAHML@system?$AA@ 10037718     NeuralNetwork.obj
 0002:00000724       ??_7failure@ios_base@std@@6B@ 10037724     NeuralNetwork.obj
 0002:00000730       ??_7ios_base@std@@6B@      10037730     NeuralNetwork.obj
 0002:00000734       ??_C@_0BF@PHHKMMFD@ios_base?3?3badbit?5set?$AA@ 10037734     NeuralNetwork.obj
 0002:0000074c       ??_C@_0BG@FMKFHCIL@ios_base?3?3failbit?5set?$AA@ 1003774c     NeuralNetwork.obj
 0002:00000764       ??_C@_0BF@OOHOMBOF@ios_base?3?3eofbit?5set?$AA@ 10037764     NeuralNetwork.obj
 0002:00000780       ??_7?$basic_ios@DU?$char_traits@D@std@@@std@@6B@ 10037780     NeuralNetwork.obj
 0002:00000790       ??_7?$basic_ostream@DU?$char_traits@D@std@@@std@@6B@ 10037790     NeuralNetwork.obj
 0002:000007a0       ??_7?$basic_istream@DU?$char_traits@D@std@@@std@@6B@ 100377a0     NeuralNetwork.obj
 0002:000007b4       ??_7?$basic_streambuf@DU?$char_traits@D@std@@@std@@6B@ 100377b4     NeuralNetwork.obj
 0002:000007f4       ??_7?$basic_filebuf@DU?$char_traits@D@std@@@std@@6B@ 100377f4     NeuralNetwork.obj
 0002:00000834       ??_7?$basic_ofstream@DU?$char_traits@D@std@@@std@@6B@ 10037834     NeuralNetwork.obj
 0002:00000840       ??_8?$basic_ofstream@DU?$char_traits@D@std@@@std@@7B@ 10037840     NeuralNetwork.obj
 0002:00000848       ??_C@_0M@GANBMNGF@LAYER_START?$AA@ 10037848     NeuralNetwork.obj
 0002:00000854       ??_C@_0N@JGEHAIEG@NEURON_START?$AA@ 10037854     NeuralNetwork.obj
 0002:00000864       ??_C@_0L@DIJKPEMO@NEURON_END?$AA@ 10037864     NeuralNetwork.obj
 0002:00000870       ??_C@_09LEJOKGPC@LAYER_END?$AA@ 10037870     NeuralNetwork.obj
 0002:00000880       ??_7?$basic_ifstream@DU?$char_traits@D@std@@@std@@6B@ 10037880     NeuralNetwork.obj
 0002:0000088c       ??_8?$basic_ifstream@DU?$char_traits@D@std@@@std@@7B@ 1003788c     NeuralNetwork.obj
 0002:00000894       ??_C@_0P@PENHAKPD@Opening?5file?4?6?$AA@ 10037894     NeuralNetwork.obj
 0002:000008a4       ??_C@_0O@LEIPDLGO@File?5opened?4?6?$AA@ 100378a4     NeuralNetwork.obj
 0002:000008b4       ??_C@_02NJPGOMH@?$CFf?$AA@ 100378b4     NeuralNetwork.obj
 0002:000008bc       ??_7?$num_put@DV?$ostreambuf_iterator@DU?$char_traits@D@std@@@std@@@std@@6B@ 100378bc     NeuralNetwork.obj
 0002:000008ec       ??_7?$codecvt@DDH@std@@6B@ 100378ec     NeuralNetwork.obj
 0002:00000918       ??_7?$numpunct@D@std@@6B@  10037918     NeuralNetwork.obj
 0002:00000938       ??_C@_02EAOCLKAK@ld?$AA@   10037938     NeuralNetwork.obj
 0002:0000093c       ??_C@_02BDDLJJBK@lu?$AA@   1003793c     NeuralNetwork.obj
 0002:00000940       ??_C@_02HIKPPMOK@Ld?$AA@   10037940     NeuralNetwork.obj
 0002:00000944       ??_C@_02CLHGNPPK@Lu?$AA@   10037944     NeuralNetwork.obj
 0002:00000948       ??_C@_02BBAHNLBA@?$CFp?$AA@ 10037948     NeuralNetwork.obj
 0002:0000094c       ??_C@_0BA@JFNIOLAK@string?5too?5long?$AA@ 1003794c     NeuralNetwork.obj
 0002:0000095c       ??_C@_0BI@CFPLBAOH@invalid?5string?5position?$AA@ 1003795c     NeuralNetwork.obj
 0002:00000974       ??_C@_0BD@OLBABOEK@vector?$DMT?$DO?5too?5long?$AA@ 10037974     NeuralNetwork.obj
 0002:00000988       ??_C@_02MDKMJEGG@eE?$AA@   10037988     NeuralNetwork.obj
 0002:0000098c       ??_C@_02OOPEBDOJ@pP?$AA@   1003798c     NeuralNetwork.obj
 0002:00000990       ??_C@_08EPJLHIJG@bad?5cast?$AA@ 10037990     NeuralNetwork.obj
 0002:000009a0       __real@38aa95a5b7f87a0f    100379a0     NeuralNetwork.obj
 0002:000009a8       __real@4202a05f20000000    100379a8     NeuralNetwork.obj
 0002:000009b0       __real@4733426172c74d82    100379b0     NeuralNetwork.obj
 0002:000009c0       __xmm@80000000000000008000000000000000 100379c0     NeuralNetwork.obj
 0002:000009d0       __real@3f000000            100379d0     NeuronLayer.obj
 0002:000009d4       __real@3f800000            100379d4     NeuronLayer.obj
 0002:000009d8       __real@41200000            100379d8     NeuronLayer.obj
 0002:000009dc       __real@42c80000            100379dc     NeuronLayer.obj
 0002:000009e0       __real@c2c80000            100379e0     NeuronLayer.obj
 0002:000009f0       ?COLLDIST@Pathfinder@@0NB  100379f0     pathfinder.obj
 0002:00000a08       ??_C@_0FA@DCJNBECG@error?3?5pit?5struct?5ptr?5?$DN?$DN?5NULL?4?5c@ 10037a08     pathfinder.obj
 0002:00000a58       ??_C@_01NOFIACDB@w?$AA@    10037a58     pathfinder.obj
 0002:00000a5c       ??_C@_06NPCLIJI@?$CFf?7?$CFf?6?$AA@ 10037a5c     pathfinder.obj
 0002:00000a68       __real@3e112e0be826d695    10037a68     pathfinder.obj
 0002:00000a70       __real@3f1a36e2eb1c432d    10037a70     pathfinder.obj
 0002:00000a78       __real@3f91df46a2529d39    10037a78     pathfinder.obj
 0002:00000a80       __real@3ff921fb54442d18    10037a80     pathfinder.obj
 0002:00000a88       __real@4008000000000000    10037a88     pathfinder.obj
 0002:00000a90       __real@401e000000000000    10037a90     pathfinder.obj
 0002:00000a98       __real@40239eb851eb851f    10037a98     pathfinder.obj
 0002:00000aa0       __real@4050aaaaaaaaaaab    10037aa0     pathfinder.obj
 0002:00000aa8       __real@407c200000000000    10037aa8     pathfinder.obj
 0002:00000ab0       __real@407f400000000000    10037ab0     pathfinder.obj
 0002:00000ab8       __real@4089000000000000    10037ab8     pathfinder.obj
 0002:00000ac0       __real@40a00000            10037ac0     pathfinder.obj
 0002:00000ac8       __real@40c3880000000000    10037ac8     pathfinder.obj
 0002:00000ad0       __real@c000000000000000    10037ad0     pathfinder.obj
 0002:00000ae8       __real@401921fb54442d18    10037ae8     sensors.obj
 0002:00000af0       __real@4066800000000000    10037af0     sensors.obj
 0002:00000af8       __real@bff921fb54442d18    10037af8     sensors.obj
 0002:00000b00       __real@c00921fb54442d18    10037b00     sensors.obj
 0002:00000b10       __xmm@40080000000000004008000000000000 10037b10     spline.obj
 0002:00000b30       ??_C@_0BI@GOCNEHAM@?$CFsdrivers?1stig?1stig?4xml?$AA@ 10037b30     stig.obj
 0002:00000b48       ??_C@_0BA@OMGEAALP@Robots?1index?1?$CFd?$AA@ 10037b48     stig.obj
 0002:00000b58       ??_C@_04MEMAJGDJ@name?$AA@ 10037b58     stig.obj
 0002:00000b60       ??_C@_0BM@GOPGHCE@Joystick?5controlable?5driver?$AA@ 10037b60     stig.obj
 0002:00000b7c       ??_C@_0CH@BKPCKAJO@stig?4cpp?0?5initTrack?0?5filename?5to@ 10037b7c     stig.obj
 0002:00000ba4       ??_C@_08OBBPKMPK@car?5name?$AA@ 10037ba4     stig.obj
 0002:00000bb0       ??_C@_0CH@MNEDOGNB@?$CFsdrivers?1stig?1tracks?1?$CFs?1car?9?$CFs?9@ 10037bb0     stig.obj
 0002:00000bd8       ??_C@_0BD@FECFFICF@Player?3?5?$CFs?5Loaded?6?$AA@ 10037bd8     stig.obj
 0002:00000bec       ??_C@_0CE@CKLHHJNH@?$CFsdrivers?1stig?1tracks?1?$CFs?1car?9?$CFs?4@ 10037bec     stig.obj
 0002:00000c10       ??_C@_0BN@MGMMIAMM@?$CFsdrivers?1stig?1car?9?$CFs?9?$CFd?4xml?$AA@ 10037c10     stig.obj
 0002:00000c30       ??_C@_0BK@JMBLEDEM@?$CFsdrivers?1stig?1car?9?$CFs?4xml?$AA@ 10037c30     stig.obj
 0002:00000c4c       ??_C@_0BH@JKHKIMGC@?$CFsdrivers?1stig?1car?4xml?$AA@ 10037c4c     stig.obj
 0002:00000c64       ??_C@_07EKALPHEE@Drivers?$AA@ 10037c64     stig.obj
 0002:00000c6c       ??_C@_0M@PIPCPMLP@Preferences?$AA@ 10037c6c     stig.obj
 0002:00000c78       ??_C@_08OEOPGIOB@?$CFs?1?$CFs?1?$CFd?$AA@ 10037c78     stig.obj
 0002:00000c84       ??_C@_0BF@PCACBANA@programmed?5pit?5stops?$AA@ 10037c84     stig.obj
 0002:00000c9c       ??_C@_0BN@HCBNFBEO@Creating?5the?5neural?5network?6?$AA@ 10037c9c     stig.obj
 0002:00000cbc       ??_C@_0BO@DJHJMKDN@drivers?1stig?1steerWeights?4txt?$AA@ 10037cbc     stig.obj
 0002:00000cdc       ??_C@_0BJ@HIOJMHNO@Neural?5network?5created?4?6?$AA@ 10037cdc     stig.obj
 0002:00000cf8       ??_C@_0BC@FGBKHGGA@Sensors?5created?4?6?$AA@ 10037cf8     stig.obj
 0002:00000d0c       ??_C@_0BF@PCCNFOPI@Car?5object?5created?4?6?$AA@ 10037d0c     stig.obj
 0002:00000d24       ??_C@_06KFALCFDK@ABS?5on?$AA@ 10037d24     stig.obj
 0002:00000d2c       ??_C@_05OHCDHBAC@Human?$AA@ 10037d2c     stig.obj
 0002:00000d34       ??_C@_06FAOBNNLE@ASR?5on?$AA@ 10037d34     stig.obj
 0002:00000d3c       ??_C@_03BLGELAIE@ASR?$AA@  10037d3c     stig.obj
 0002:00000d40       ??_C@_03BPJLEIIC@ABS?$AA@  10037d40     stig.obj
 0002:00000d44       ??_C@_05DNIIFBMG@?$CFs?5?$CFs?$AA@ 10037d44     stig.obj
 0002:00000d4c       ??_C@_0BB@CPOJOICP@Speed?5Limiter?5On?$AA@ 10037d4c     stig.obj
 0002:00000d60       ??_C@_0BC@JGEKEJCI@Speed?5Limiter?5Off?$AA@ 10037d60     stig.obj
 0002:00000d74       ??_C@_0M@KHJGCJKL@Steer?3?5?$CFf?7?6?$AA@ 10037d74     stig.obj
 0002:00000d80       ??_C@_09LGHFGEMK@ANN?5DATA?6?$AA@ 10037d80     stig.obj
 0002:00000d8c       ??_C@_0N@DBEBDCGO@Speed?3?7?7?5?$CFf?6?$AA@ 10037d8c     stig.obj
 0002:00000d9c       ??_C@_0BD@LEMOOPJP@Target?5angle?3?7?5?$CFf?6?$AA@ 10037d9c     stig.obj
 0002:00000db0       ??_C@_0BE@HPFLKDHC@Segment?5angle?3?7?5?$CFf?6?$AA@ 10037db0     stig.obj
 0002:00000dc4       ??_C@_0N@LKIABIIH@DistR?3?7?7?5?$CFf?6?$AA@ 10037dc4     stig.obj
 0002:00000dd4       ??_C@_0O@GLBKDGLI@DistFR?3?7?7?5?$CFf?6?$AA@ 10037dd4     stig.obj
 0002:00000de4       ??_C@_0O@LDCBAE@DistFFR?3?7?5?$CFf?6?$AA@ 10037de4     stig.obj
 0002:00000df4       ??_C@_0N@ELKMALPK@DistF?3?7?7?5?$CFf?6?$AA@ 10037df4     stig.obj
 0002:00000e04       ??_C@_0O@GJICACBN@DistFFL?3?7?5?$CFf?6?$AA@ 10037e04     stig.obj
 0002:00000e14       ??_C@_0O@PBIKPFL@DistFL?3?7?7?5?$CFf?6?$AA@ 10037e14     stig.obj
 0002:00000e24       ??_C@_0N@NOICIBGE@DistL?3?7?7?5?$CFf?6?$AA@ 10037e24     stig.obj
 0002:00000e34       ??_C@_0O@EBOFJEMH@DistC?3?7?7?5?$CFf?6?6?$AA@ 10037e34     stig.obj
 0002:00000e44       __real@3e4ccccd            10037e44     stig.obj
 0002:00000e48       __real@3e800000            10037e48     stig.obj
 0002:00000e4c       __real@3ea9fbe7            10037e4c     stig.obj
 0002:00000e50       __real@3f454c985f06f694    10037e50     stig.obj
 0002:00000e58       __real@3f4a36e2eb1c432d    10037e58     stig.obj
 0002:00000e60       __real@3fc3333333333333    10037e60     stig.obj
 0002:00000e68       __real@3fd6666666666666    10037e68     stig.obj
 0002:00000e70       __real@3fe3333333333333    10037e70     stig.obj
 0002:00000e78       __real@3fe6666666666666    10037e78     stig.obj
 0002:00000e80       __real@3fe999999999999a    10037e80     stig.obj
 0002:00000e88       __real@3feb333333333333    10037e88     stig.obj
 0002:00000e90       __real@4018000000000000    10037e90     stig.obj
 0002:00000e98       __real@40200000            10037e98     stig.obj
 0002:00000ea0       __real@4024000000000000    10037ea0     stig.obj
 0002:00000ea8       __real@42820000            10037ea8     stig.obj
 0002:00000eac       __real@bf800000            10037eac     stig.obj
 0002:00000eb0       ?nbCmdControl@@3HB         10037eb0     pref.obj
 0002:00000eb8       ??_C@_08KFPMDFMN@up?5shift?$AA@ 10037eb8     pref.obj
 0002:00000ec4       ??_C@_0L@KPFECBFH@down?5shift?$AA@ 10037ec4     pref.obj
 0002:00000ed0       ??_C@_07IFFNDJAK@ASR?5cmd?$AA@ 10037ed0     pref.obj
 0002:00000ed8       ??_C@_07IPKIHNNF@ABS?5cmd?$AA@ 10037ed8     pref.obj
 0002:00000ee0       ??_C@_0N@OKNFDBHF@reverse?5gear?$AA@ 10037ee0     pref.obj
 0002:00000ef0       ??_C@_0N@DOOANBAG@neutral?5gear?$AA@ 10037ef0     pref.obj
 0002:00000f00       ??_C@_08GOBOEOLC@1st?5gear?$AA@ 10037f00     pref.obj
 0002:00000f0c       ??_C@_08NHPDMKED@2nd?5gear?$AA@ 10037f0c     pref.obj
 0002:00000f18       ??_C@_08OLJMPKGE@3rd?5gear?$AA@ 10037f18     pref.obj
 0002:00000f24       ??_C@_08IODCPEFO@4th?5gear?$AA@ 10037f24     pref.obj
 0002:00000f30       ??_C@_08JJEJOABN@5th?5gear?$AA@ 10037f30     pref.obj
 0002:00000f3c       ??_C@_08KAMENMNI@6th?5gear?$AA@ 10037f3c     pref.obj
 0002:00000f48       ??_C@_08IEKKGCGJ@throttle?$AA@ 10037f48     pref.obj
 0002:00000f54       ??_C@_0N@HLFACMB@throttle?5min?$AA@ 10037f54     pref.obj
 0002:00000f64       ??_C@_0N@BFDOOGKO@throttle?5max?$AA@ 10037f64     pref.obj
 0002:00000f74       ??_C@_0BF@JKGIOFIM@throttle?5sensitivity?$AA@ 10037f74     pref.obj
 0002:00000f8c       ??_C@_0P@HCODGONJ@throttle?5power?$AA@ 10037f8c     pref.obj
 0002:00000f9c       ??_C@_05FHIBGIOH@brake?$AA@ 10037f9c     pref.obj
 0002:00000fa4       ??_C@_09GOAODIBI@brake?5min?$AA@ 10037fa4     pref.obj
 0002:00000fb0       ??_C@_09HMIFNMHH@brake?5max?$AA@ 10037fb0     pref.obj
 0002:00000fbc       ??_C@_0BC@GLAGIECN@brake?5sensitivity?$AA@ 10037fbc     pref.obj
 0002:00000fd0       ??_C@_0M@OEBFKAIG@brake?5power?$AA@ 10037fd0     pref.obj
 0002:00000fdc       ??_C@_0L@OPKPPHOO@left?5steer?$AA@ 10037fdc     pref.obj
 0002:00000fe8       ??_C@_0P@CLPELKMN@left?5steer?5min?$AA@ 10037fe8     pref.obj
 0002:00000ff8       ??_C@_0P@DJHPFOKC@left?5steer?5max?$AA@ 10037ff8     pref.obj
 0002:00001008       ??_C@_0BC@DHPOBLIC@steer?5sensitivity?$AA@ 10038008     pref.obj
 0002:0000101c       ??_C@_0BB@BLOMDGCK@left?5steer?5power?$AA@ 1003801c     pref.obj
 0002:00001030       ??_C@_0BI@CDPIFMDP@steer?5speed?5sensitivity?$AA@ 10038030     pref.obj
 0002:00001048       ??_C@_0BA@BMINNPMM@steer?5dead?5zone?$AA@ 10038048     pref.obj
 0002:00001058       ??_C@_0M@IKOMDIOL@right?5steer?$AA@ 10038058     pref.obj
 0002:00001064       ??_C@_0BA@GAFFBCJD@right?5steer?5min?$AA@ 10038064     pref.obj
 0002:00001074       ??_C@_0BA@HCNOPGPM@right?5steer?5max?$AA@ 10038074     pref.obj
 0002:00001084       ??_C@_0BC@OHNJCGIL@right?5steer?5power?$AA@ 10038084     pref.obj
 0002:00001098       ??_C@_0L@CABJBMOL@Light1?5cmd?$AA@ 10038098     pref.obj
 0002:000010a4       ??_C@_06JFCBHFHK@clutch?$AA@ 100380a4     pref.obj
 0002:000010ac       ??_C@_0L@OOLHCODH@clutch?5min?$AA@ 100380ac     pref.obj
 0002:000010b8       ??_C@_0L@PMDMMKFI@clutch?5max?$AA@ 100380b8     pref.obj
 0002:000010c4       ??_C@_0BD@MDHNKPAM@clutch?5sensitivity?$AA@ 100380c4     pref.obj
 0002:000010d8       ??_C@_0N@CNNKNAD@clutch?5power?$AA@ 100380d8     pref.obj
 0002:000010e8       ??_C@_0O@PDEJOBGJ@Speed?5Limiter?$AA@ 100380e8     pref.obj
 0002:000010f8       ??_C@_08KLNCIBHI@joystick?$AA@ 100380f8     pref.obj
 0002:00001104       ??_C@_08KNBLADDJ@keyboard?$AA@ 10038104     pref.obj
 0002:00001110       ??_C@_05PDOJLLAB@mouse?$AA@ 10038110     pref.obj
 0002:00001118       ??_C@_03ICICOMAL@yes?$AA@  10038118     pref.obj
 0002:0000111c       ??_C@_02KAJCLHKP@no?$AA@   1003811c     pref.obj
 0002:00001120       ??_C@_0BO@COMBMIHP@drivers?1human?1preferences?4xml?$AA@ 10038120     pref.obj
 0002:00001140       ??_C@_04HDOCAJNK@?$CFs?$CFs?$AA@ 10038140     pref.obj
 0002:00001148       ??_C@_04HAPDLBFF@auto?$AA@ 10038148     pref.obj
 0002:00001150       ??_C@_0N@ENDCBJLO@transmission?$AA@ 10038150     pref.obj
 0002:00001160       ??_C@_07MMBOFDEG@control?$AA@ 10038160     pref.obj
 0002:00001168       ??_C@_0BB@JBDPOCO@?$CFs?5?9?$DO?5NONE?5?$CI?91?$CJ?6?$AA@ 10038168     pref.obj
 0002:0000117c       ??_C@_09OPDGLCFB@?$CFs?5?9?$DO?5?$CFs?6?$AA@ 1003817c     pref.obj
 0002:00001188       ??_C@_0CB@CNBDPHHH@release?5gear?5button?5goes?5neutral@ 10038188     pref.obj
 0002:000011ac       ??_C@_0CB@NKHONLIL@sequential?5shifter?5allow?5neutral@ 100381ac     pref.obj
 0002:000011d0       ??_C@_0N@EHLIHCNP@auto?5reverse?$AA@ 100381d0     pref.obj
 0002:000011e0       __real@4059000000000000    100381e0     pref.obj
 0002:000011f0       ??_C@_0EA@PNLMGMJB@error?3?5TrackDesc?3?3TrackDesc?5curr@ 100381f0     trackdesc.obj
 0002:00001234       ??_C@_05JLFELJNP@FATAL?$AA@ 10038234     ul_vs2008_32:ulError.obj
 0002:0000123c       ??_C@_07KCOHIFOP@WARNING?$AA@ 1003823c     ul_vs2008_32:ulError.obj
 0002:00001244       ??_C@_05KOLFGEDA@DEBUG?$AA@ 10038244     ul_vs2008_32:ulError.obj
 0002:00001254       ??_7bad_alloc@std@@6B@     10038254     libcpmt:xthrow.obj
 0002:0000125c       ??_C@_0P@GHFPNOJB@bad?5allocation?$AA@ 1003825c     libcpmt:xthrow.obj
 0002:00001270       ??_7logic_error@std@@6B@   10038270     libcpmt:xthrow.obj
 0002:0000127c       ??_7length_error@std@@6B@  1003827c     libcpmt:xthrow.obj
 0002:00001288       ??_7out_of_range@std@@6B@  10038288     libcpmt:xthrow.obj
 0002:00001294       ??_7_Locimp@locale@std@@6B@ 10038294     libcpmt:locale0.obj
 0002:000012a0       ??_C@_01NBENCBCI@?$CK?$AA@ 100382a0     libcpmt:locale0.obj
 0002:000012a4       ??_C@_01GFHCPBMG@C?$AA@    100382a4     libcpmt:locale0.obj
 0002:00001778       ??_C@_0BC@CIJDGCDI@permission?5denied?$AA@ 10038778     libcpmt:syserror.obj
 0002:0000178c       ??_C@_0M@MIDIAGJP@file?5exists?$AA@ 1003878c     libcpmt:syserror.obj
 0002:00001798       ??_C@_0P@FDINDDOK@no?5such?5device?$AA@ 10038798     libcpmt:syserror.obj
 0002:000017a8       ??_C@_0BC@EJHOMAAK@filename?5too?5long?$AA@ 100387a8     libcpmt:syserror.obj
 0002:000017bc       ??_C@_0BI@NGCEHDD@device?5or?5resource?5busy?$AA@ 100387bc     libcpmt:syserror.obj
 0002:000017d4       ??_C@_08GLNPIFBN@io?5error?$AA@ 100387d4     libcpmt:syserror.obj
 0002:000017e0       ??_C@_0BE@JIDOCPHM@directory?5not?5empty?$AA@ 100387e0     libcpmt:syserror.obj
 0002:000017f4       ??_C@_0BB@FCMFBGOM@invalid?5argument?$AA@ 100387f4     libcpmt:syserror.obj
 0002:00001808       ??_C@_0BD@IJDJKDEA@no?5space?5on?5device?$AA@ 10038808     libcpmt:syserror.obj
 0002:0000181c       ??_C@_0BK@NDOCBPGE@no?5such?5file?5or?5directory?$AA@ 1003881c     libcpmt:syserror.obj
 0002:00001838       ??_C@_0BH@KEFGLDAF@function?5not?5supported?$AA@ 10038838     libcpmt:syserror.obj
 0002:00001850       ??_C@_0BC@NJECKMKE@no?5lock?5available?$AA@ 10038850     libcpmt:syserror.obj
 0002:00001864       ??_C@_0BC@ENOOLCNF@not?5enough?5memory?$AA@ 10038864     libcpmt:syserror.obj
 0002:00001878       ??_C@_0BP@LKNGHENJ@resource?5unavailable?5try?5again?$AA@ 10038878     libcpmt:syserror.obj
 0002:00001898       ??_C@_0BC@PPHBOELF@cross?5device?5link?$AA@ 10038898     libcpmt:syserror.obj
 0002:000018ac       ??_C@_0BD@MOLBPMEA@operation?5canceled?$AA@ 100388ac     libcpmt:syserror.obj
 0002:000018c0       ??_C@_0BE@GHAFMPAH@too?5many?5files?5open?$AA@ 100388c0     libcpmt:syserror.obj
 0002:000018d4       ??_C@_0BC@FNODOBAE@permission_denied?$AA@ 100388d4     libcpmt:syserror.obj
 0002:000018e8       ??_C@_0P@LNDJPBFK@address_in_use?$AA@ 100388e8     libcpmt:syserror.obj
 0002:000018f8       ??_C@_0BG@IPMGOJF@address_not_available?$AA@ 100388f8     libcpmt:syserror.obj
 0002:00001910       ??_C@_0BN@LCBDHODA@address_family_not_supported?$AA@ 10038910     libcpmt:syserror.obj
 0002:00001930       ??_C@_0BP@FOJJHMCC@connection_already_in_progress?$AA@ 10038930     libcpmt:syserror.obj
 0002:00001950       ??_C@_0BE@DLHHIBGN@bad_file_descriptor?$AA@ 10038950     libcpmt:syserror.obj
 0002:00001964       ??_C@_0BD@OJMJDIGI@connection_aborted?$AA@ 10038964     libcpmt:syserror.obj
 0002:00001978       ??_C@_0BD@NGKCIFEP@connection_refused?$AA@ 10038978     libcpmt:syserror.obj
 0002:0000198c       ??_C@_0BB@JOANDNCK@connection_reset?$AA@ 1003898c     libcpmt:syserror.obj
 0002:000019a0       ??_C@_0BN@JLJNLKLK@destination_address_required?$AA@ 100389a0     libcpmt:syserror.obj
 0002:000019c0       ??_C@_0M@IJGMGFGP@bad_address?$AA@ 100389c0     libcpmt:syserror.obj
 0002:000019cc       ??_C@_0BB@KKNHPPIN@host_unreachable?$AA@ 100389cc     libcpmt:syserror.obj
 0002:000019e0       ??_C@_0BG@DJGBJIIK@operation_in_progress?$AA@ 100389e0     libcpmt:syserror.obj
 0002:000019f8       ??_C@_0M@EGEKIIMP@interrupted?$AA@ 100389f8     libcpmt:syserror.obj
 0002:00001a04       ??_C@_0BB@FFIHMIPJ@invalid_argument?$AA@ 10038a04     libcpmt:syserror.obj
 0002:00001a18       ??_C@_0BC@FIFLCHLO@already_connected?$AA@ 10038a18     libcpmt:syserror.obj
 0002:00001a2c       ??_C@_0BE@GJJJJDDA@too_many_files_open?$AA@ 10038a2c     libcpmt:syserror.obj
 0002:00001a40       ??_C@_0N@HPMLKHPL@message_size?$AA@ 10038a40     libcpmt:syserror.obj
 0002:00001a50       ??_C@_0BC@LEEIKBAL@filename_too_long?$AA@ 10038a50     libcpmt:syserror.obj
 0002:00001a64       ??_C@_0N@FCPALPJK@network_down?$AA@ 10038a64     libcpmt:syserror.obj
 0002:00001a74       ??_C@_0O@EHNDLHIG@network_reset?$AA@ 10038a74     libcpmt:syserror.obj
 0002:00001a84       ??_C@_0BE@JFNJIDNF@network_unreachable?$AA@ 10038a84     libcpmt:syserror.obj
 0002:00001a98       ??_C@_0BA@FDIJKJCL@no_buffer_space?$AA@ 10038a98     libcpmt:syserror.obj
 0002:00001aa8       ??_C@_0BD@JHIHCGKP@no_protocol_option?$AA@ 10038aa8     libcpmt:syserror.obj
 0002:00001abc       ??_C@_0O@GBCLHHD@not_connected?$AA@ 10038abc     libcpmt:syserror.obj
 0002:00001acc       ??_C@_0N@IMHKKLEM@not_a_socket?$AA@ 10038acc     libcpmt:syserror.obj
 0002:00001adc       ??_C@_0BI@ICEIDKLJ@operation_not_supported?$AA@ 10038adc     libcpmt:syserror.obj
 0002:00001af4       ??_C@_0BH@KAPBAIJF@protocol_not_supported?$AA@ 10038af4     libcpmt:syserror.obj
 0002:00001b0c       ??_C@_0BE@GAOJJFPC@wrong_protocol_type?$AA@ 10038b0c     libcpmt:syserror.obj
 0002:00001b20       ??_C@_09NCHNLHPG@timed_out?$AA@ 10038b20     libcpmt:syserror.obj
 0002:00001b2c       ??_C@_0BG@GDGHKFDH@operation_would_block?$AA@ 10038b2c     libcpmt:syserror.obj
 0002:00001b44       ??_C@_0BN@LKKBCCDB@address?5family?5not?5supported?$AA@ 10038b44     libcpmt:syserror.obj
 0002:00001b64       ??_C@_0P@LDMLAFHI@address?5in?5use?$AA@ 10038b64     libcpmt:syserror.obj
 0002:00001b74       ??_C@_0BG@DHPCNBJB@address?5not?5available?$AA@ 10038b74     libcpmt:syserror.obj
 0002:00001b8c       ??_C@_0BC@DFIBIBIL@already?5connected?$AA@ 10038b8c     libcpmt:syserror.obj
 0002:00001ba0       ??_C@_0BH@CAKOHOMI@argument?5list?5too?5long?$AA@ 10038ba0     libcpmt:syserror.obj
 0002:00001bb8       ??_C@_0BH@CGIMPKIM@argument?5out?5of?5domain?$AA@ 10038bb8     libcpmt:syserror.obj
 0002:00001bd0       ??_C@_0M@KGHGGJGL@bad?5address?$AA@ 10038bd0     libcpmt:syserror.obj
 0002:00001bdc       ??_C@_0BE@MPJPGCEO@bad?5file?5descriptor?$AA@ 10038bdc     libcpmt:syserror.obj
 0002:00001bf0       ??_C@_0M@PMMIEFCP@bad?5message?$AA@ 10038bf0     libcpmt:syserror.obj
 0002:00001bfc       ??_C@_0M@KPHOFDBE@broken?5pipe?$AA@ 10038bfc     libcpmt:syserror.obj
 0002:00001c08       ??_C@_0BD@MGNDDEGM@connection?5aborted?$AA@ 10038c08     libcpmt:syserror.obj
 0002:00001c1c       ??_C@_0BP@KAIHPOGN@connection?5already?5in?5progress?$AA@ 10038c1c     libcpmt:syserror.obj
 0002:00001c3c       ??_C@_0BD@PJLIIJEL@connection?5refused?$AA@ 10038c3c     libcpmt:syserror.obj
 0002:00001c50       ??_C@_0BB@IECNJNOI@connection?5reset?$AA@ 10038c50     libcpmt:syserror.obj
 0002:00001c64       ??_C@_0BN@KDMIFEIP@destination?5address?5required?$AA@ 10038c64     libcpmt:syserror.obj
 0002:00001c84       ??_C@_0BI@BNCLIGPB@executable?5format?5error?$AA@ 10038c84     libcpmt:syserror.obj
 0002:00001c9c       ??_C@_0P@DNAJLBJK@file?5too?5large?$AA@ 10038c9c     libcpmt:syserror.obj
 0002:00001cac       ??_C@_0BB@DHFDFGDM@host?5unreachable?$AA@ 10038cac     libcpmt:syserror.obj
 0002:00001cc0       ??_C@_0BD@JPHBMONG@identifier?5removed?$AA@ 10038cc0     libcpmt:syserror.obj
 0002:00001cd4       ??_C@_0BG@CDNPAGJK@illegal?5byte?5sequence?$AA@ 10038cd4     libcpmt:syserror.obj
 0002:00001cec       ??_C@_0CD@BNPLBMNA@inappropriate?5io?5control?5operati@ 10038cec     libcpmt:syserror.obj
 0002:00001d10       ??_C@_0N@OHAFKDEK@invalid?5seek?$AA@ 10038d10     libcpmt:syserror.obj
 0002:00001d20       ??_C@_0P@FLLDBIDK@is?5a?5directory?$AA@ 10038d20     libcpmt:syserror.obj
 0002:00001d30       ??_C@_0N@IFLPBIOP@message?5size?$AA@ 10038d30     libcpmt:syserror.obj
 0002:00001d40       ??_C@_0N@KIIEAAIO@network?5down?$AA@ 10038d40     libcpmt:syserror.obj
 0002:00001d50       ??_C@_0O@FNPDBHEE@network?5reset?$AA@ 10038d50     libcpmt:syserror.obj
 0002:00001d60       ??_C@_0BE@IFNCKGE@network?5unreachable?$AA@ 10038d60     libcpmt:syserror.obj
 0002:00001d74       ??_C@_0BA@PFFCAOFK@no?5buffer?5space?$AA@ 10038d74     libcpmt:syserror.obj
 0002:00001d84       ??_C@_0BB@IEPBLJHK@no?5child?5process?$AA@ 10038d84     libcpmt:syserror.obj
 0002:00001d98       ??_C@_07PLECNNKG@no?5link?$AA@ 10038d98     libcpmt:syserror.obj
 0002:00001da0       ??_C@_0BF@PBGGPKKE@no?5message?5available?$AA@ 10038da0     libcpmt:syserror.obj
 0002:00001db8       ??_C@_0L@EDOLMPAK@no?5message?$AA@ 10038db8     libcpmt:syserror.obj
 0002:00001dc4       ??_C@_0BD@EAMBFIDF@no?5protocol?5option?$AA@ 10038dc4     libcpmt:syserror.obj
 0002:00001dd8       ??_C@_0BE@MKFDAFMP@no?5stream?5resources?$AA@ 10038dd8     libcpmt:syserror.obj
 0002:00001dec       ??_C@_0BK@IMCPHCBI@no?5such?5device?5or?5address?$AA@ 10038dec     libcpmt:syserror.obj
 0002:00001e08       ??_C@_0BA@ENLPPKBN@no?5such?5process?$AA@ 10038e08     libcpmt:syserror.obj
 0002:00001e18       ??_C@_0BA@DOCPFFJG@not?5a?5directory?$AA@ 10038e18     libcpmt:syserror.obj
 0002:00001e28       ??_C@_0N@POEIPGGF@not?5a?5socket?$AA@ 10038e28     libcpmt:syserror.obj
 0002:00001e38       ??_C@_0N@LGAPMMPI@not?5a?5stream?$AA@ 10038e38     libcpmt:syserror.obj
 0002:00001e48       ??_C@_0O@GLMIBBEG@not?5connected?$AA@ 10038e48     libcpmt:syserror.obj
 0002:00001e58       ??_C@_0O@NHEDABJP@not?5supported?$AA@ 10038e58     libcpmt:syserror.obj
 0002:00001e68       ??_C@_0BG@KDKHOPCO@operation?5in?5progress?$AA@ 10038e68     libcpmt:syserror.obj
 0002:00001e80       ??_C@_0BI@OHIEJAAB@operation?5not?5permitted?$AA@ 10038e80     libcpmt:syserror.obj
 0002:00001e98       ??_C@_0BI@LNEGIFLN@operation?5not?5supported?$AA@ 10038e98     libcpmt:syserror.obj
 0002:00001eb0       ??_C@_0BG@OEMDKMEE@operation?5would?5block?$AA@ 10038eb0     libcpmt:syserror.obj
 0002:00001ec8       ??_C@_0L@BLPOFLNJ@owner?5dead?$AA@ 10038ec8     libcpmt:syserror.obj
 0002:00001ed4       ??_C@_0P@FNPOCJBE@protocol?5error?$AA@ 10038ed4     libcpmt:syserror.obj
 0002:00001ee4       ??_C@_0BH@JPPPLHJB@protocol?5not?5supported?$AA@ 10038ee4     libcpmt:syserror.obj
 0002:00001efc       ??_C@_0BG@EICBIHDP@read?5only?5file?5system?$AA@ 10038efc     libcpmt:syserror.obj
 0002:00001f14       ??_C@_0BO@BJBOMOEJ@resource?5deadlock?5would?5occur?$AA@ 10038f14     libcpmt:syserror.obj
 0002:00001f34       ??_C@_0BE@GOIPJJHG@result?5out?5of?5range?$AA@ 10038f34     libcpmt:syserror.obj
 0002:00001f48       ??_C@_0BG@MPLKFPAE@state?5not?5recoverable?$AA@ 10038f48     libcpmt:syserror.obj
 0002:00001f60       ??_C@_0P@DIIFGFCG@stream?5timeout?$AA@ 10038f60     libcpmt:syserror.obj
 0002:00001f70       ??_C@_0P@IPFDMIFL@text?5file?5busy?$AA@ 10038f70     libcpmt:syserror.obj
 0002:00001f80       ??_C@_09KJPPMAOI@timed?5out?$AA@ 10038f80     libcpmt:syserror.obj
 0002:00001f8c       ??_C@_0BO@HACHBEKI@too?5many?5files?5open?5in?5system?$AA@ 10038f8c     libcpmt:syserror.obj
 0002:00001fac       ??_C@_0P@HCOMKFCC@too?5many?5links?$AA@ 10038fac     libcpmt:syserror.obj
 0002:00001fbc       ??_C@_0BO@EFGOJEF@too?5many?5symbolic?5link?5levels?$AA@ 10038fbc     libcpmt:syserror.obj
 0002:00001fdc       ??_C@_0BA@KGKGOOJA@value?5too?5large?$AA@ 10038fdc     libcpmt:syserror.obj
 0002:00001fec       ??_C@_0BE@MIEJDDNH@wrong?5protocol?5type?$AA@ 10038fec     libcpmt:syserror.obj
 0002:00002000       ?_BADOFF@std@@3_JB         10039000     libcpmt:ios.obj
 0002:00002044       ??_C@_01KDCPPGHE@r?$AA@    10039044     libcpmt:fiopen.obj
 0002:00002048       ??_C@_01MCMALHOG@a?$AA@    10039048     libcpmt:fiopen.obj
 0002:0000204c       ??_C@_02JDPG@rb?$AA@       1003904c     libcpmt:fiopen.obj
 0002:00002050       ??_C@_02GMLFBBN@wb?$AA@    10039050     libcpmt:fiopen.obj
 0002:00002054       ??_C@_02BOGAIONP@ab?$AA@   10039054     libcpmt:fiopen.obj
 0002:00002058       ??_C@_02CBLLGHLK@r?$CL?$AA@ 10039058     libcpmt:fiopen.obj
 0002:0000205c       ??_C@_02CHHAKFFB@w?$CL?$AA@ 1003905c     libcpmt:fiopen.obj
 0002:00002060       ??_C@_02DPNLHKJD@a?$CL?$AA@ 10039060     libcpmt:fiopen.obj
 0002:00002064       ??_C@_03HMFOOINA@r?$CLb?$AA@ 10039064     libcpmt:fiopen.obj
 0002:00002068       ??_C@_03ELIABIOC@w?$CLb?$AA@ 10039068     libcpmt:fiopen.obj
 0002:0000206c       ??_C@_03DOPCBAKB@a?$CLb?$AA@ 1003906c     libcpmt:fiopen.obj
 0002:00002070       ?valid@?1???$_Xfiopen@D@std@@YAPAU_iobuf@@PBDHH@Z@4QBHB 10039070     libcpmt:fiopen.obj
 0002:000020ac       ??_C@_11LOCGONAA@?$AA?$AA@ 100390ac     libcpmt:wlocale.obj
 0002:000020b0       ??_C@_01JOAMLHOP@?9?$AA@   100390b0     libcpmt:wlocale.obj
 0002:000038c0       __FPinit                   1003a8c0     LIBCMT:fpinit.obj
 0002:000038c8       ??_7exception@std@@6B@     1003a8c8     LIBCMT:stdexcpt.obj
 0002:000038d0       ??_C@_0BC@EOODALEL@Unknown?5exception?$AA@ 1003a8d0     LIBCMT:stdexcpt.obj
 0002:000038e8       ??_7bad_cast@std@@6B@      1003a8e8     LIBCMT:stdexcpt.obj
 0002:00003914       ??_7type_info@@6B@         1003a914     LIBCMT:typinfo.obj
 0002:0000baa0       __pDefaultRawDllMain       10042aa0     LIBCMT:dllcrt0.obj
 0002:0000baa0       __pRawDllMain              10042aa0     LIBCMT:dllcrt0.obj
 0002:0000baa4       ??_C@_1BI@BGOHAHKC@?$AAm?$AAs?$AAc?$AAo?$AAr?$AAe?$AAe?$AA?4?$AAd?$AAl?$AAl?$AA?$AA@ 10042aa4     LIBCMT:crt0dat.obj
 0002:0000babc       ??_C@_0P@MIGLKIOC@CorExitProcess?$AA@ 10042abc     LIBCMT:crt0dat.obj
 0002:0000bacc       __pDestructExceptionObject 10042acc     LIBCMT:frame.obj
 0002:0000bad4       ??_7bad_exception@std@@6B@ 10042ad4     LIBCMT:frame.obj
 0002:0000badc       ??_C@_0O@DPKOEFFH@bad?5exception?$AA@ 10042adc     LIBCMT:frame.obj
 0002:0000baf0       ___newctype                10042af0     LIBCMT:ctype.obj
 0002:0000bdf0       __wctype                   10042df0     LIBCMT:ctype.obj
 0002:0000bff8       ___newclmap                10042ff8     LIBCMT:ctype.obj
 0002:0000c178       ___newcumap                10043178     LIBCMT:ctype.obj
 0002:0000c2f8       ??_C@_1BK@MGMFAEKH@?$AAk?$AAe?$AAr?$AAn?$AAe?$AAl?$AA3?$AA2?$AA?4?$AAd?$AAl?$AAl?$AA?$AA@ 100432f8     LIBCMT:winapisupp.obj
 0002:0000c314       ??_C@_08KNHFBNJ@FlsAlloc?$AA@ 10043314     LIBCMT:winapisupp.obj
 0002:0000c320       ??_C@_07PEJMOBNF@FlsFree?$AA@ 10043320     LIBCMT:winapisupp.obj
 0002:0000c328       ??_C@_0M@GDNOONDI@FlsGetValue?$AA@ 10043328     LIBCMT:winapisupp.obj
 0002:0000c334       ??_C@_0M@JCPCPOEF@FlsSetValue?$AA@ 10043334     LIBCMT:winapisupp.obj
 0002:0000c340       ??_C@_0BM@HCFOFFN@InitializeCriticalSectionEx?$AA@ 10043340     LIBCMT:winapisupp.obj
 0002:0000c35c       ??_C@_0BD@KIEEOEEH@CreateSemaphoreExW?$AA@ 1004335c     LIBCMT:winapisupp.obj
 0002:0000c370       ??_C@_0BI@BKLFFAPO@SetThreadStackGuarantee?$AA@ 10043370     LIBCMT:winapisupp.obj
 0002:0000c388       ??_C@_0BG@OGFAJCKC@CreateThreadpoolTimer?$AA@ 10043388     LIBCMT:winapisupp.obj
 0002:0000c3a0       ??_C@_0BD@LPLEMMDI@SetThreadpoolTimer?$AA@ 100433a0     LIBCMT:winapisupp.obj
 0002:0000c3b4       ??_C@_0CA@FMNJENH@WaitForThreadpoolTimerCallbacks?$AA@ 100433b4     LIBCMT:winapisupp.obj
 0002:0000c3d4       ??_C@_0BF@DCFCCNOC@CloseThreadpoolTimer?$AA@ 100433d4     LIBCMT:winapisupp.obj
 0002:0000c3ec       ??_C@_0BF@FLABGKKM@CreateThreadpoolWait?$AA@ 100433ec     LIBCMT:winapisupp.obj
 0002:0000c404       ??_C@_0BC@MGCOHNA@SetThreadpoolWait?$AA@ 10043404     LIBCMT:winapisupp.obj
 0002:0000c418       ??_C@_0BE@OCIOMIMP@CloseThreadpoolWait?$AA@ 10043418     LIBCMT:winapisupp.obj
 0002:0000c42c       ??_C@_0BJ@LKGHFHBO@FlushProcessWriteBuffers?$AA@ 1004342c     LIBCMT:winapisupp.obj
 0002:0000c448       ??_C@_0BP@KALKKPMO@FreeLibraryWhenCallbackReturns?$AA@ 10043448     LIBCMT:winapisupp.obj
 0002:0000c468       ??_C@_0BK@DFNBACLA@GetCurrentProcessorNumber?$AA@ 10043468     LIBCMT:winapisupp.obj
 0002:0000c484       ??_C@_0BP@KHGALBC@GetLogicalProcessorInformation?$AA@ 10043484     LIBCMT:winapisupp.obj
 0002:0000c4a4       ??_C@_0BE@FKKLLFLM@CreateSymbolicLinkW?$AA@ 100434a4     LIBCMT:winapisupp.obj
 0002:0000c4b8       ??_C@_0BJ@OHNKDLIJ@SetDefaultDllDirectories?$AA@ 100434b8     LIBCMT:winapisupp.obj
 0002:0000c4d4       ??_C@_0BE@LJANKFHF@EnumSystemLocalesEx?$AA@ 100434d4     LIBCMT:winapisupp.obj
 0002:0000c4e8       ??_C@_0BA@IHGNDAEB@CompareStringEx?$AA@ 100434e8     LIBCMT:winapisupp.obj
 0002:0000c4f8       ??_C@_0BA@EPCJIIPD@GetDateFormatEx?$AA@ 100434f8     LIBCMT:winapisupp.obj
 0002:0000c508       ??_C@_0BA@ONOKGCMP@GetLocaleInfoEx?$AA@ 10043508     LIBCMT:winapisupp.obj
 0002:0000c518       ??_C@_0BA@CIJJKCJJ@GetTimeFormatEx?$AA@ 10043518     LIBCMT:winapisupp.obj
 0002:0000c528       ??_C@_0BJ@PBCCBIPI@GetUserDefaultLocaleName?$AA@ 10043528     LIBCMT:winapisupp.obj
 0002:0000c544       ??_C@_0BC@CELBKLLA@IsValidLocaleName?$AA@ 10043544     LIBCMT:winapisupp.obj
 0002:0000c558       ??_C@_0O@KKBNKAPF@LCMapStringEx?$AA@ 10043558     LIBCMT:winapisupp.obj
 0002:0000c568       ??_C@_0BE@JOGNEJCI@GetCurrentPackageId?$AA@ 10043568     LIBCMT:winapisupp.obj
 0002:0000c580       _LcidToLocaleNameTable     10043580     LIBCMT:winapinls.obj
 0002:0000cca0       _LocaleNameToIndexTable    10043ca0     LIBCMT:winapinls.obj
 0002:0000d3c0       ??_C@_15EMKDOKLE@?$AAa?$AAr?$AA?$AA@ 100443c0     LIBCMT:winapinls.obj
 0002:0000d3c8       ??_C@_15KNPADPLH@?$AAb?$AAg?$AA?$AA@ 100443c8     LIBCMT:winapinls.obj
 0002:0000d3d0       ??_C@_15EDMHLDMO@?$AAc?$AAa?$AA?$AA@ 100443d0     LIBCMT:winapinls.obj
 0002:0000d3d8       ??_C@_1O@BPEAJADD@?$AAz?$AAh?$AA?9?$AAC?$AAH?$AAS?$AA?$AA@ 100443d8     LIBCMT:winapinls.obj
 0002:0000d3e8       ??_C@_15LJNHCMNK@?$AAc?$AAs?$AA?$AA@ 100443e8     LIBCMT:winapinls.obj
 0002:0000d3f0       ??_C@_15FOMCIDHG@?$AAd?$AAa?$AA?$AA@ 100443f0     LIBCMT:winapinls.obj
 0002:0000d3f8       ??_C@_15NBKABECB@?$AAd?$AAe?$AA?$AA@ 100443f8     LIBCMT:winapinls.obj
 0002:0000d400       ??_C@_15GHPEIIAO@?$AAe?$AAl?$AA?$AA@ 10044400     LIBCMT:winapinls.obj
 0002:0000d408       ??_C@_15MNPNEAIF@?$AAe?$AAn?$AA?$AA@ 10044408     LIBCMT:winapinls.obj
 0002:0000d410       ??_C@_15GPIOMPMH@?$AAe?$AAs?$AA?$AA@ 10044410     LIBCMT:winapinls.obj
 0002:0000d418       ??_C@_15NGLOAKJC@?$AAf?$AAi?$AA?$AA@ 10044418     LIBCMT:winapinls.obj
 0002:0000d420       ??_C@_15FBKGNKAM@?$AAf?$AAr?$AA?$AA@ 10044420     LIBCMT:winapinls.obj
 0002:0000d428       ??_C@_15KGGCNEFK@?$AAh?$AAe?$AA?$AA@ 10044428     LIBCMT:winapinls.obj
 0002:0000d430       ??_C@_15PGHLIDMF@?$AAh?$AAu?$AA?$AA@ 10044430     LIBCMT:winapinls.obj
 0002:0000d438       ??_C@_15BIEMAPLM@?$AAi?$AAs?$AA?$AA@ 10044438     LIBCMT:winapinls.obj
 0002:0000d440       ??_C@_15IFJLDHAF@?$AAi?$AAt?$AA?$AA@ 10044440     LIBCMT:winapinls.obj
 0002:0000d448       ??_C@_15GEMIOCAG@?$AAj?$AAa?$AA?$AA@ 10044448     LIBCMT:winapinls.obj
 0002:0000d450       ??_C@_15EPELEGJA@?$AAk?$AAo?$AA?$AA@ 10044450     LIBCMT:winapinls.obj
 0002:0000d458       ??_C@_15NDDHIMN@?$AAn?$AAl?$AA?$AA@ 10044458     LIBCMT:winapinls.obj
 0002:0000d460       ??_C@_15BPIGNHCD@?$AAn?$AAo?$AA?$AA@ 10044460     LIBCMT:winapinls.obj
 0002:0000d468       ??_C@_15DEOPBLCG@?$AAp?$AAl?$AA?$AA@ 10044468     LIBCMT:winapinls.obj
 0002:0000d470       ??_C@_15KBECGEFG@?$AAp?$AAt?$AA?$AA@ 10044470     LIBCMT:winapinls.obj
 0002:0000d478       ??_C@_15GLJCBFMD@?$AAr?$AAo?$AA?$AA@ 10044478     LIBCMT:winapinls.obj
 0002:0000d480       ??_C@_15FEDGKCDI@?$AAr?$AAu?$AA?$AA@ 10044480     LIBCMT:winapinls.obj
 0002:0000d488       ??_C@_15GLKMLLHM@?$AAh?$AAr?$AA?$AA@ 10044488     LIBCMT:winapinls.obj
 0002:0000d490       ??_C@_15CPKMFBDB@?$AAs?$AAk?$AA?$AA@ 10044490     LIBCMT:winapinls.obj
 0002:0000d498       ??_C@_15BAAIOGMK@?$AAs?$AAq?$AA?$AA@ 10044498     LIBCMT:winapinls.obj
 0002:0000d4a0       ??_C@_15INNPNOHD@?$AAs?$AAv?$AA?$AA@ 100444a0     LIBCMT:winapinls.obj
 0002:0000d4a8       ??_C@_15CABMMOGH@?$AAt?$AAh?$AA?$AA@ 100444a8     LIBCMT:winapinls.obj
 0002:0000d4b0       ??_C@_15BPLIHJJM@?$AAt?$AAr?$AA?$AA@ 100444b0     LIBCMT:winapinls.obj
 0002:0000d4b8       ??_C@_15NEOEKKDJ@?$AAu?$AAr?$AA?$AA@ 100444b8     LIBCMT:winapinls.obj
 0002:0000d4c0       ??_C@_15NFICGAJK@?$AAi?$AAd?$AA?$AA@ 100444c0     LIBCMT:winapinls.obj
 0002:0000d4c8       ??_C@_15PJPFLCCM@?$AAu?$AAk?$AA?$AA@ 100444c8     LIBCMT:winapinls.obj
 0002:0000d4d0       ??_C@_15HPJPHDM@?$AAb?$AAe?$AA?$AA@ 100444d0     LIBCMT:winapinls.obj
 0002:0000d4d8       ??_C@_15LCHLGJII@?$AAs?$AAl?$AA?$AA@ 100444d8     LIBCMT:winapinls.obj
 0002:0000d4e0       ??_C@_15PCFJPHHO@?$AAe?$AAt?$AA?$AA@ 100444e0     LIBCMT:winapinls.obj
 0002:0000d4e8       ??_C@_15HPFPGODN@?$AAl?$AAv?$AA?$AA@ 100444e8     LIBCMT:winapinls.obj
 0002:0000d4f0       ??_C@_15NFFGKGLG@?$AAl?$AAt?$AA?$AA@ 100444f0     LIBCMT:winapinls.obj
 0002:0000d4f8       ??_C@_15BDAKCCHN@?$AAf?$AAa?$AA?$AA@ 100444f8     LIBCMT:winapinls.obj
 0002:0000d500       ??_C@_15NFGIAIAJ@?$AAv?$AAi?$AA?$AA@ 10044500     LIBCMT:winapinls.obj
 0002:0000d508       ??_C@_15LMKNDMHN@?$AAh?$AAy?$AA?$AA@ 10044508     LIBCMT:winapinls.obj
 0002:0000d510       ??_C@_15IJBHMCFL@?$AAa?$AAz?$AA?$AA@ 10044510     LIBCMT:winapinls.obj
 0002:0000d518       ??_C@_15EKOFJABL@?$AAe?$AAu?$AA?$AA@ 10044518     LIBCMT:winapinls.obj
 0002:0000d520       ??_C@_15BGHADCNK@?$AAm?$AAk?$AA?$AA@ 10044520     LIBCMT:winapinls.obj
 0002:0000d528       ??_C@_15JDNICKHM@?$AAa?$AAf?$AA?$AA@ 10044528     LIBCMT:winapinls.obj
 0002:0000d530       ??_C@_15KPJEDBKD@?$AAk?$AAa?$AA?$AA@ 10044530     LIBCMT:winapinls.obj
 0002:0000d538       ??_C@_15PDNFFFEO@?$AAf?$AAo?$AA?$AA@ 10044538     LIBCMT:winapinls.obj
 0002:0000d540       ??_C@_15OMLEGLOC@?$AAh?$AAi?$AA?$AA@ 10044540     LIBCMT:winapinls.obj
 0002:0000d548       ??_C@_15IDNNENKK@?$AAm?$AAs?$AA?$AA@ 10044548     LIBCMT:winapinls.obj
 0002:0000d550       ??_C@_15MACJNBMH@?$AAk?$AAk?$AA?$AA@ 10044550     LIBCMT:winapinls.obj
 0002:0000d558       ??_C@_15DKDJEOND@?$AAk?$AAy?$AA?$AA@ 10044558     LIBCMT:winapinls.obj
 0002:0000d560       ??_C@_15DFGDLJBG@?$AAs?$AAw?$AA?$AA@ 10044560     LIBCMT:winapinls.obj
 0002:0000d568       ??_C@_15BBFAICNG@?$AAu?$AAz?$AA?$AA@ 10044568     LIBCMT:winapinls.obj
 0002:0000d570       ??_C@_15DKNDCGEA@?$AAt?$AAt?$AA?$AA@ 10044570     LIBCMT:winapinls.obj
 0002:0000d578       ??_C@_15MGIFMDPL@?$AAp?$AAa?$AA?$AA@ 10044578     LIBCMT:winapinls.obj
 0002:0000d580       ??_C@_15HCNDBBA@?$AAg?$AAu?$AA?$AA@ 10044580     LIBCMT:winapinls.obj
 0002:0000d588       ??_C@_15FNBEIBON@?$AAt?$AAa?$AA?$AA@ 10044588     LIBCMT:winapinls.obj
 0002:0000d590       ??_C@_15NCHGBGLK@?$AAt?$AAe?$AA?$AA@ 10044590     LIBCMT:winapinls.obj
 0002:0000d598       ??_C@_15PHPHCBPF@?$AAk?$AAn?$AA?$AA@ 10044598     LIBCMT:winapinls.obj
 0002:0000d5a0       ??_C@_15DLGBCKMP@?$AAm?$AAr?$AA?$AA@ 100445a0     LIBCMT:winapinls.obj
 0002:0000d5a8       ??_C@_15EABBLBFF@?$AAs?$AAa?$AA?$AA@ 100445a8     LIBCMT:winapinls.obj
 0002:0000d5b0       ??_C@_15CBKOMCOI@?$AAm?$AAn?$AA?$AA@ 100445b0     LIBCMT:winapinls.obj
 0002:0000d5b8       ??_C@_15CKDMCJAF@?$AAg?$AAl?$AA?$AA@ 100445b8     LIBCMT:winapinls.obj
 0002:0000d5c0       ??_C@_17CNJFBPG@?$AAk?$AAo?$AAk?$AA?$AA@ 100445c0     LIBCMT:winapinls.obj
 0002:0000d5c8       ??_C@_17FFBJICPL@?$AAs?$AAy?$AAr?$AA?$AA@ 100445c8     LIBCMT:winapinls.obj
 0002:0000d5d0       ??_C@_17KPNDCPAF@?$AAd?$AAi?$AAv?$AA?$AA@ 100445d0     LIBCMT:winapinls.obj
 0002:0000d5d8       ??_C@_1M@OKAHONE@?$AAa?$AAr?$AA?9?$AAS?$AAA?$AA?$AA@ 100445d8     LIBCMT:winapinls.obj
 0002:0000d5e4       ??_C@_1M@FFFIGIGK@?$AAb?$AAg?$AA?9?$AAB?$AAG?$AA?$AA@ 100445e4     LIBCMT:winapinls.obj
 0002:0000d5f0       ??_C@_1M@BJNKEDC@?$AAc?$AAa?$AA?9?$AAE?$AAS?$AA?$AA@ 100445f0     LIBCMT:winapinls.obj
 0002:0000d5fc       ??_C@_1M@CLNBBOPM@?$AAz?$AAh?$AA?9?$AAT?$AAW?$AA?$AA@ 100445fc     LIBCMT:winapinls.obj
 0002:0000d608       ??_C@_1M@IJJHFJHA@?$AAc?$AAs?$AA?9?$AAC?$AAZ?$AA?$AA@ 10044608     LIBCMT:winapinls.obj
 0002:0000d614       ??_C@_1M@CLPEOBGI@?$AAd?$AAa?$AA?9?$AAD?$AAK?$AA?$AA@ 10044614     LIBCMT:winapinls.obj
 0002:0000d620       ??_C@_1M@MCMADGCB@?$AAd?$AAe?$AA?9?$AAD?$AAE?$AA?$AA@ 10044620     LIBCMT:winapinls.obj
 0002:0000d62c       ??_C@_1M@OOCKEMAM@?$AAe?$AAl?$AA?9?$AAG?$AAR?$AA?$AA@ 1004462c     LIBCMT:winapinls.obj
 0002:0000d638       ??_C@_1M@BMHNFIME@?$AAe?$AAn?$AA?9?$AAU?$AAS?$AA?$AA@ 10044638     LIBCMT:winapinls.obj
 0002:0000d644       ??_C@_1M@DDNJFGID@?$AAf?$AAi?$AA?9?$AAF?$AAI?$AA?$AA@ 10044644     LIBCMT:winapinls.obj
 0002:0000d650       ??_C@_1M@GLIPPMAC@?$AAf?$AAr?$AA?9?$AAF?$AAR?$AA?$AA@ 10044650     LIBCMT:winapinls.obj
 0002:0000d65c       ??_C@_1M@GFMCHPE@?$AAh?$AAe?$AA?9?$AAI?$AAL?$AA?$AA@ 1004465c     LIBCMT:winapinls.obj
 0002:0000d668       ??_C@_1M@MHLPGNKM@?$AAh?$AAu?$AA?9?$AAH?$AAU?$AA?$AA@ 10044668     LIBCMT:winapinls.obj
 0002:0000d674       ??_C@_1M@LPDDNNPN@?$AAi?$AAs?$AA?9?$AAI?$AAS?$AA?$AA@ 10044674     LIBCMT:winapinls.obj
 0002:0000d680       ??_C@_1M@MADIPODN@?$AAi?$AAt?$AA?9?$AAI?$AAT?$AA?$AA@ 10044680     LIBCMT:winapinls.obj
 0002:0000d68c       ??_C@_1M@HPNHIDJI@?$AAj?$AAa?$AA?9?$AAJ?$AAP?$AA?$AA@ 1004468c     LIBCMT:winapinls.obj
 0002:0000d698       ??_C@_1M@JLOOOEGK@?$AAk?$AAo?$AA?9?$AAK?$AAR?$AA?$AA@ 10044698     LIBCMT:winapinls.obj
 0002:0000d6a4       ??_C@_1M@IHBJJGG@?$AAn?$AAl?$AA?9?$AAN?$AAL?$AA?$AA@ 100446a4     LIBCMT:winapinls.obj
 0002:0000d6b0       ??_C@_1M@EANAGDL@?$AAn?$AAb?$AA?9?$AAN?$AAO?$AA?$AA@ 100446b0     LIBCMT:winapinls.obj
 0002:0000d6bc       ??_C@_1M@NEIEMEGP@?$AAp?$AAl?$AA?9?$AAP?$AAL?$AA?$AA@ 100446bc     LIBCMT:winapinls.obj
 0002:0000d6c8       ??_C@_1M@BOCFIGEP@?$AAp?$AAt?$AA?9?$AAB?$AAR?$AA?$AA@ 100446c8     LIBCMT:winapinls.obj
 0002:0000d6d4       ??_C@_1M@IMPFOPBG@?$AAr?$AAo?$AA?9?$AAR?$AAO?$AA?$AA@ 100446d4     LIBCMT:winapinls.obj
 0002:0000d6e0       ??_C@_1M@IDNNEJMM@?$AAr?$AAu?$AA?9?$AAR?$AAU?$AA?$AA@ 100446e0     LIBCMT:winapinls.obj
 0002:0000d6ec       ??_C@_1M@LILEEOGM@?$AAh?$AAr?$AA?9?$AAH?$AAR?$AA?$AA@ 100446ec     LIBCMT:winapinls.obj
 0002:0000d6f8       ??_C@_1M@FKIFEHPB@?$AAs?$AAk?$AA?9?$AAS?$AAK?$AA?$AA@ 100446f8     LIBCMT:winapinls.obj
 0002:0000d704       ??_C@_1M@LJMAMNPJ@?$AAs?$AAq?$AA?9?$AAA?$AAL?$AA?$AA@ 10044704     LIBCMT:winapinls.obj
 0002:0000d710       ??_C@_1M@GIAKDKJK@?$AAs?$AAv?$AA?9?$AAS?$AAE?$AA?$AA@ 10044710     LIBCMT:winapinls.obj
 0002:0000d71c       ??_C@_1M@MKJKIKCL@?$AAt?$AAh?$AA?9?$AAT?$AAH?$AA?$AA@ 1004471c     LIBCMT:winapinls.obj
 0002:0000d728       ??_C@_1M@MFLCCMPB@?$AAt?$AAr?$AA?9?$AAT?$AAR?$AA?$AA@ 10044728     LIBCMT:winapinls.obj
 0002:0000d734       ??_C@_1M@OIJHDKJN@?$AAu?$AAr?$AA?9?$AAP?$AAK?$AA?$AA@ 10044734     LIBCMT:winapinls.obj
 0002:0000d740       ??_C@_1M@LHIPCIEK@?$AAi?$AAd?$AA?9?$AAI?$AAD?$AA?$AA@ 10044740     LIBCMT:winapinls.obj
 0002:0000d74c       ??_C@_1M@MFMOBGI@?$AAu?$AAk?$AA?9?$AAU?$AAA?$AA?$AA@ 1004474c     LIBCMT:winapinls.obj
 0002:0000d758       ??_C@_1M@OBGLJIPL@?$AAb?$AAe?$AA?9?$AAB?$AAY?$AA?$AA@ 10044758     LIBCMT:winapinls.obj
 0002:0000d764       ??_C@_1M@BCFAJEAD@?$AAs?$AAl?$AA?9?$AAS?$AAI?$AA?$AA@ 10044764     LIBCMT:winapinls.obj
 0002:0000d770       ??_C@_1M@FKFFEDDN@?$AAe?$AAt?$AA?9?$AAE?$AAE?$AA?$AA@ 10044770     LIBCMT:winapinls.obj
 0002:0000d77c       ??_C@_1M@KGKKAACI@?$AAl?$AAv?$AA?9?$AAL?$AAV?$AA?$AA@ 1004477c     LIBCMT:winapinls.obj
 0002:0000d788       ??_C@_1M@IFGBIJO@?$AAl?$AAt?$AA?9?$AAL?$AAT?$AA?$AA@ 10044788     LIBCMT:winapinls.obj
 0002:0000d794       ??_C@_1M@FGEAHEDM@?$AAf?$AAa?$AA?9?$AAI?$AAR?$AA?$AA@ 10044794     LIBCMT:winapinls.obj
 0002:0000d7a0       ??_C@_1M@KBMAIBFN@?$AAv?$AAi?$AA?9?$AAV?$AAN?$AA?$AA@ 100447a0     LIBCMT:winapinls.obj
 0002:0000d7ac       ??_C@_1M@GPCBKDJK@?$AAh?$AAy?$AA?9?$AAA?$AAM?$AA?$AA@ 100447ac     LIBCMT:winapinls.obj
 0002:0000d7b8       ??_C@_1BG@BECMDDJB@?$AAa?$AAz?$AA?9?$AAA?$AAZ?$AA?9?$AAL?$AAa?$AAt?$AAn?$AA?$AA@ 100447b8     LIBCMT:winapinls.obj
 0002:0000d7d0       ??_C@_1M@MAOFCAEA@?$AAe?$AAu?$AA?9?$AAE?$AAS?$AA?$AA@ 100447d0     LIBCMT:winapinls.obj
 0002:0000d7dc       ??_C@_1M@IGHABKPI@?$AAm?$AAk?$AA?9?$AAM?$AAK?$AA?$AA@ 100447dc     LIBCMT:winapinls.obj
 0002:0000d7e8       ??_C@_1M@IAIGNEJG@?$AAt?$AAn?$AA?9?$AAZ?$AAA?$AA?$AA@ 100447e8     LIBCMT:winapinls.obj
 0002:0000d7f4       ??_C@_1M@IIJCOJFA@?$AAx?$AAh?$AA?9?$AAZ?$AAA?$AA?$AA@ 100447f4     LIBCMT:winapinls.obj
 0002:0000d800       ??_C@_1M@LGPJHNJH@?$AAz?$AAu?$AA?9?$AAZ?$AAA?$AA?$AA@ 10044800     LIBCMT:winapinls.obj
 0002:0000d80c       ??_C@_1M@HOKAOIO@?$AAa?$AAf?$AA?9?$AAZ?$AAA?$AA?$AA@ 1004480c     LIBCMT:winapinls.obj
 0002:0000d818       ??_C@_1M@DPCLHLIE@?$AAk?$AAa?$AA?9?$AAG?$AAE?$AA?$AA@ 10044818     LIBCMT:winapinls.obj
 0002:0000d824       ??_C@_1M@BLKMHJBI@?$AAf?$AAo?$AA?9?$AAF?$AAO?$AA?$AA@ 10044824     LIBCMT:winapinls.obj
 0002:0000d830       ??_C@_1M@LGGJAPPB@?$AAh?$AAi?$AA?9?$AAI?$AAN?$AA?$AA@ 10044830     LIBCMT:winapinls.obj
 0002:0000d83c       ??_C@_1M@FIKPIHFE@?$AAm?$AAt?$AA?9?$AAM?$AAT?$AA?$AA@ 1004483c     LIBCMT:winapinls.obj
 0002:0000d848       ??_C@_1M@HEGGPBFA@?$AAs?$AAe?$AA?9?$AAN?$AAO?$AA?$AA@ 10044848     LIBCMT:winapinls.obj
 0002:0000d854       ??_C@_1M@EIBJEEPA@?$AAm?$AAs?$AA?9?$AAM?$AAY?$AA?$AA@ 10044854     LIBCMT:winapinls.obj
 0002:0000d860       ??_C@_1M@FHLBGMPP@?$AAk?$AAk?$AA?9?$AAK?$AAZ?$AA?$AA@ 10044860     LIBCMT:winapinls.obj
 0002:0000d86c       ??_C@_1M@NGJJLCGI@?$AAk?$AAy?$AA?9?$AAK?$AAG?$AA?$AA@ 1004486c     LIBCMT:winapinls.obj
 0002:0000d878       ??_C@_1M@GIENNBFC@?$AAs?$AAw?$AA?9?$AAK?$AAE?$AA?$AA@ 10044878     LIBCMT:winapinls.obj
 0002:0000d884       ??_C@_1BG@NDGMJIMJ@?$AAu?$AAz?$AA?9?$AAU?$AAZ?$AA?9?$AAL?$AAa?$AAt?$AAn?$AA?$AA@ 10044884     LIBCMT:winapinls.obj
 0002:0000d89c       ??_C@_1M@IDCCIHBC@?$AAt?$AAt?$AA?9?$AAR?$AAU?$AA?$AA@ 1004489c     LIBCMT:winapinls.obj
 0002:0000d8a8       ??_C@_1M@LOICPMOJ@?$AAb?$AAn?$AA?9?$AAI?$AAN?$AA?$AA@ 100448a8     LIBCMT:winapinls.obj
 0002:0000d8b4       ??_C@_1M@KPKKNEAH@?$AAp?$AAa?$AA?9?$AAI?$AAN?$AA?$AA@ 100448b4     LIBCMT:winapinls.obj
 0002:0000d8c0       ??_C@_1M@PJGPPBOG@?$AAg?$AAu?$AA?9?$AAI?$AAN?$AA?$AA@ 100448c0     LIBCMT:winapinls.obj
 0002:0000d8cc       ??_C@_1M@KMKMOPHI@?$AAt?$AAa?$AA?9?$AAI?$AAN?$AA?$AA@ 100448cc     LIBCMT:winapinls.obj
 0002:0000d8d8       ??_C@_1M@KFEHEPAC@?$AAt?$AAe?$AA?9?$AAI?$AAN?$AA?$AA@ 100448d8     LIBCMT:winapinls.obj
 0002:0000d8e4       ??_C@_1M@CDCLMGHI@?$AAk?$AAn?$AA?9?$AAI?$AAN?$AA?$AA@ 100448e4     LIBCMT:winapinls.obj
 0002:0000d8f0       ??_C@_1M@MIODLDKF@?$AAm?$AAl?$AA?9?$AAI?$AAN?$AA?$AA@ 100448f0     LIBCMT:winapinls.obj
 0002:0000d8fc       ??_C@_1M@PBIEACPO@?$AAm?$AAr?$AA?9?$AAI?$AAN?$AA?$AA@ 100448fc     LIBCMT:winapinls.obj
 0002:0000d908       ??_C@_1M@NIDEAGPH@?$AAs?$AAa?$AA?9?$AAI?$AAN?$AA?$AA@ 10044908     LIBCMT:winapinls.obj
 0002:0000d914       ??_C@_1M@FHIHCBIO@?$AAm?$AAn?$AA?9?$AAM?$AAN?$AA?$AA@ 10044914     LIBCMT:winapinls.obj
 0002:0000d920       ??_C@_1M@JAIJPENP@?$AAc?$AAy?$AA?9?$AAG?$AAB?$AA?$AA@ 10044920     LIBCMT:winapinls.obj
 0002:0000d92c       ??_C@_1M@PHGFBEPN@?$AAg?$AAl?$AA?9?$AAE?$AAS?$AA?$AA@ 1004492c     LIBCMT:winapinls.obj
 0002:0000d938       ??_C@_1O@KPIPDNCP@?$AAk?$AAo?$AAk?$AA?9?$AAI?$AAN?$AA?$AA@ 10044938     LIBCMT:winapinls.obj
 0002:0000d948       ??_C@_1O@KNHJLDJA@?$AAs?$AAy?$AAr?$AA?9?$AAS?$AAY?$AA?$AA@ 10044948     LIBCMT:winapinls.obj
 0002:0000d958       ??_C@_1O@MKEKBLAH@?$AAd?$AAi?$AAv?$AA?9?$AAM?$AAV?$AA?$AA@ 10044958     LIBCMT:winapinls.obj
 0002:0000d968       ??_C@_1O@OHDCKDDF@?$AAq?$AAu?$AAz?$AA?9?$AAB?$AAO?$AA?$AA@ 10044968     LIBCMT:winapinls.obj
 0002:0000d978       ??_C@_1M@LEPJNLFD@?$AAn?$AAs?$AA?9?$AAZ?$AAA?$AA?$AA@ 10044978     LIBCMT:winapinls.obj
 0002:0000d984       ??_C@_1M@OMLEIIJB@?$AAm?$AAi?$AA?9?$AAN?$AAZ?$AA?$AA@ 10044984     LIBCMT:winapinls.obj
 0002:0000d990       ??_C@_1M@PMPEAILG@?$AAa?$AAr?$AA?9?$AAI?$AAQ?$AA?$AA@ 10044990     LIBCMT:winapinls.obj
 0002:0000d99c       ??_C@_1M@BIBDDEMK@?$AAz?$AAh?$AA?9?$AAC?$AAN?$AA?$AA@ 1004499c     LIBCMT:winapinls.obj
 0002:0000d9a8       ??_C@_1M@CNKPNOEE@?$AAd?$AAe?$AA?9?$AAC?$AAH?$AA?$AA@ 100449a8     LIBCMT:winapinls.obj
 0002:0000d9b4       ??_C@_1M@LKMGMLKO@?$AAe?$AAn?$AA?9?$AAG?$AAB?$AA?$AA@ 100449b4     LIBCMT:winapinls.obj
 0002:0000d9c0       ??_C@_1M@PGKJFFGL@?$AAe?$AAs?$AA?9?$AAM?$AAX?$AA?$AA@ 100449c0     LIBCMT:winapinls.obj
 0002:0000d9cc       ??_C@_1M@DNNANBDC@?$AAf?$AAr?$AA?9?$AAB?$AAE?$AA?$AA@ 100449cc     LIBCMT:winapinls.obj
 0002:0000d9d8       ??_C@_1M@HLGMDFHM@?$AAi?$AAt?$AA?9?$AAC?$AAH?$AA?$AA@ 100449d8     LIBCMT:winapinls.obj
 0002:0000d9e4       ??_C@_1M@CLLBGJH@?$AAn?$AAl?$AA?9?$AAB?$AAE?$AA?$AA@ 100449e4     LIBCMT:winapinls.obj
 0002:0000d9f0       ??_C@_1M@BODBOGLF@?$AAn?$AAn?$AA?9?$AAN?$AAO?$AA?$AA@ 100449f0     LIBCMT:winapinls.obj
 0002:0000d9fc       ??_C@_1M@HFFAHKAD@?$AAp?$AAt?$AA?9?$AAP?$AAT?$AA?$AA@ 100449fc     LIBCMT:winapinls.obj
 0002:0000da08       ??_C@_1BG@LNOAKHIE@?$AAs?$AAr?$AA?9?$AAS?$AAP?$AA?9?$AAL?$AAa?$AAt?$AAn?$AA?$AA@ 10044a08     LIBCMT:winapinls.obj
 0002:0000da20       ??_C@_1M@HBMHBGAK@?$AAs?$AAv?$AA?9?$AAF?$AAI?$AA?$AA@ 10044a20     LIBCMT:winapinls.obj
 0002:0000da2c       ??_C@_1BG@DGCJGJBE@?$AAa?$AAz?$AA?9?$AAA?$AAZ?$AA?9?$AAC?$AAy?$AAr?$AAl?$AA?$AA@ 10044a2c     LIBCMT:winapinls.obj
 0002:0000da44       ??_C@_1M@KEJDAAHB@?$AAs?$AAe?$AA?9?$AAS?$AAE?$AA?$AA@ 10044a44     LIBCMT:winapinls.obj
 0002:0000da50       ??_C@_1M@HEIBJJAD@?$AAm?$AAs?$AA?9?$AAB?$AAN?$AA?$AA@ 10044a50     LIBCMT:winapinls.obj
 0002:0000da5c       ??_C@_1BG@PBGJMCEM@?$AAu?$AAz?$AA?9?$AAU?$AAZ?$AA?9?$AAC?$AAy?$AAr?$AAl?$AA?$AA@ 10044a5c     LIBCMT:winapinls.obj
 0002:0000da74       ??_C@_1O@LAOBCMDF@?$AAq?$AAu?$AAz?$AA?9?$AAE?$AAC?$AA?$AA@ 10044a74     LIBCMT:winapinls.obj
 0002:0000da84       ??_C@_1M@POEEMAIO@?$AAa?$AAr?$AA?9?$AAE?$AAG?$AA?$AA@ 10044a84     LIBCMT:winapinls.obj
 0002:0000da90       ??_C@_1M@EFAKDEDL@?$AAz?$AAh?$AA?9?$AAH?$AAK?$AA?$AA@ 10044a90     LIBCMT:winapinls.obj
 0002:0000da9c       ??_C@_1M@HKKIJHGI@?$AAd?$AAe?$AA?9?$AAA?$AAT?$AA?$AA@ 10044a9c     LIBCMT:winapinls.obj
 0002:0000daa8       ??_C@_1M@KBFBEHJF@?$AAe?$AAn?$AA?9?$AAA?$AAU?$AA?$AA@ 10044aa8     LIBCMT:winapinls.obj
 0002:0000dab4       ??_C@_1M@MNPLFAAH@?$AAe?$AAs?$AA?9?$AAE?$AAS?$AA?$AA@ 10044ab4     LIBCMT:winapinls.obj
 0002:0000dac0       ??_C@_1M@HJOOJFMA@?$AAf?$AAr?$AA?9?$AAC?$AAA?$AA?$AA@ 10044ac0     LIBCMT:winapinls.obj
 0002:0000dacc       ??_C@_1BG@JPOFPNAB@?$AAs?$AAr?$AA?9?$AAS?$AAP?$AA?9?$AAC?$AAy?$AAr?$AAl?$AA?$AA@ 10044acc     LIBCMT:winapinls.obj
 0002:0000dae4       ??_C@_1M@LNFOCMOB@?$AAs?$AAe?$AA?9?$AAF?$AAI?$AA?$AA@ 10044ae4     LIBCMT:winapinls.obj
 0002:0000daf0       ??_C@_1O@MGJBOAMB@?$AAq?$AAu?$AAz?$AA?9?$AAP?$AAE?$AA?$AA@ 10044af0     LIBCMT:winapinls.obj
 0002:0000db00       ??_C@_1M@GJINLBOK@?$AAa?$AAr?$AA?9?$AAL?$AAY?$AA?$AA@ 10044b00     LIBCMT:winapinls.obj
 0002:0000db0c       ??_C@_1M@GGMNHJNL@?$AAz?$AAh?$AA?9?$AAS?$AAG?$AA?$AA@ 10044b0c     LIBCMT:winapinls.obj
 0002:0000db18       ??_C@_1M@HOIKODND@?$AAd?$AAe?$AA?9?$AAL?$AAU?$AA?$AA@ 10044b18     LIBCMT:winapinls.obj
 0002:0000db24       ??_C@_1M@DDOCCGFG@?$AAe?$AAn?$AA?9?$AAC?$AAA?$AA?$AA@ 10044b24     LIBCMT:winapinls.obj
 0002:0000db30       ??_C@_1M@BNOEMJLF@?$AAe?$AAs?$AA?9?$AAG?$AAT?$AA?$AA@ 10044b30     LIBCMT:winapinls.obj
 0002:0000db3c       ??_C@_1M@EOGNKEK@?$AAf?$AAr?$AA?9?$AAC?$AAH?$AA?$AA@ 10044b3c     LIBCMT:winapinls.obj
 0002:0000db48       ??_C@_1M@FLIDJFHL@?$AAh?$AAr?$AA?9?$AAB?$AAA?$AA?$AA@ 10044b48     LIBCMT:winapinls.obj
 0002:0000db54       ??_C@_1O@FMCELNAJ@?$AAs?$AAm?$AAj?$AA?9?$AAN?$AAO?$AA?$AA@ 10044b54     LIBCMT:winapinls.obj
 0002:0000db64       ??_C@_1M@JHGLJMGJ@?$AAa?$AAr?$AA?9?$AAD?$AAZ?$AA?$AA@ 10044b64     LIBCMT:winapinls.obj
 0002:0000db70       ??_C@_1M@JKKFDCNP@?$AAz?$AAh?$AA?9?$AAM?$AAO?$AA?$AA@ 10044b70     LIBCMT:winapinls.obj
 0002:0000db7c       ??_C@_1M@GEEFALPE@?$AAd?$AAe?$AA?9?$AAL?$AAI?$AA?$AA@ 10044b7c     LIBCMT:winapinls.obj
 0002:0000db88       ??_C@_1M@IGEOFBG@?$AAe?$AAn?$AA?9?$AAN?$AAZ?$AA?$AA@ 10044b88     LIBCMT:winapinls.obj
 0002:0000db94       ??_C@_1M@KDBONEHP@?$AAe?$AAs?$AA?9?$AAC?$AAR?$AA?$AA@ 10044b94     LIBCMT:winapinls.obj
 0002:0000dba0       ??_C@_1M@FHMDOHNN@?$AAf?$AAr?$AA?9?$AAL?$AAU?$AA?$AA@ 10044ba0     LIBCMT:winapinls.obj
 0002:0000dbac       ??_C@_1BG@NFKKMAFG@?$AAb?$AAs?$AA?9?$AAB?$AAA?$AA?9?$AAL?$AAa?$AAt?$AAn?$AA?$AA@ 10044bac     LIBCMT:winapinls.obj
 0002:0000dbc4       ??_C@_1O@IMNBEMCI@?$AAs?$AAm?$AAj?$AA?9?$AAS?$AAE?$AA?$AA@ 10044bc4     LIBCMT:winapinls.obj
 0002:0000dbd4       ??_C@_1M@DHHMBNDP@?$AAa?$AAr?$AA?9?$AAM?$AAA?$AA?$AA@ 10044bd4     LIBCMT:winapinls.obj
 0002:0000dbe0       ??_C@_1M@BNBLJCGH@?$AAe?$AAn?$AA?9?$AAI?$AAE?$AA?$AA@ 10044be0     LIBCMT:winapinls.obj
 0002:0000dbec       ??_C@_1M@GEPAFMDL@?$AAe?$AAs?$AA?9?$AAP?$AAA?$AA?$AA@ 10044bec     LIBCMT:winapinls.obj
 0002:0000dbf8       ??_C@_1M@OJONDMDL@?$AAf?$AAr?$AA?9?$AAM?$AAC?$AA?$AA@ 10044bf8     LIBCMT:winapinls.obj
 0002:0000dc04       ??_C@_1BG@OBCNFJB@?$AAs?$AAr?$AA?9?$AAB?$AAA?$AA?9?$AAL?$AAa?$AAt?$AAn?$AA?$AA@ 10044c04     LIBCMT:winapinls.obj
 0002:0000dc1c       ??_C@_1O@KEMEEGPO@?$AAs?$AAm?$AAa?$AA?9?$AAN?$AAO?$AA?$AA@ 10044c1c     LIBCMT:winapinls.obj
 0002:0000dc2c       ??_C@_1M@ELMGFODK@?$AAa?$AAr?$AA?9?$AAT?$AAN?$AA?$AA@ 10044c2c     LIBCMT:winapinls.obj
 0002:0000dc38       ??_C@_1M@BHDLHFAF@?$AAe?$AAn?$AA?9?$AAZ?$AAA?$AA?$AA@ 10044c38     LIBCMT:winapinls.obj
 0002:0000dc44       ??_C@_1M@BMGIGLIF@?$AAe?$AAs?$AA?9?$AAD?$AAO?$AA?$AA@ 10044c44     LIBCMT:winapinls.obj
 0002:0000dc50       ??_C@_1BG@CMBHIPBE@?$AAs?$AAr?$AA?9?$AAB?$AAA?$AA?9?$AAC?$AAy?$AAr?$AAl?$AA?$AA@ 10044c50     LIBCMT:winapinls.obj
 0002:0000dc68       ??_C@_1O@HEDBLHNP@?$AAs?$AAm?$AAa?$AA?9?$AAS?$AAE?$AA?$AA@ 10044c68     LIBCMT:winapinls.obj
 0002:0000dc78       ??_C@_1M@DAGCADIM@?$AAa?$AAr?$AA?9?$AAO?$AAM?$AA?$AA@ 10044c78     LIBCMT:winapinls.obj
 0002:0000dc84       ??_C@_1M@FODLMICG@?$AAe?$AAn?$AA?9?$AAJ?$AAM?$AA?$AA@ 10044c84     LIBCMT:winapinls.obj
 0002:0000dc90       ??_C@_1M@DNMLCIHB@?$AAe?$AAs?$AA?9?$AAV?$AAE?$AA?$AA@ 10044c90     LIBCMT:winapinls.obj
 0002:0000dc9c       ??_C@_1O@EOKHMKJK@?$AAs?$AAm?$AAs?$AA?9?$AAF?$AAI?$AA?$AA@ 10044c9c     LIBCMT:winapinls.obj
 0002:0000dcac       ??_C@_1M@CAFJMKOF@?$AAa?$AAr?$AA?9?$AAY?$AAE?$AA?$AA@ 10044cac     LIBCMT:winapinls.obj
 0002:0000dcb8       ??_C@_1M@CBFHIJLI@?$AAe?$AAn?$AA?9?$AAC?$AAB?$AA?$AA@ 10044cb8     LIBCMT:winapinls.obj
 0002:0000dcc4       ??_C@_1M@BGNFLDN@?$AAe?$AAs?$AA?9?$AAC?$AAO?$AA?$AA@ 10044cc4     LIBCMT:winapinls.obj
 0002:0000dcd0       ??_C@_1O@JMPHMAMC@?$AAs?$AAm?$AAn?$AA?9?$AAF?$AAI?$AA?$AA@ 10044cd0     LIBCMT:winapinls.obj
 0002:0000dce0       ??_C@_1M@JLANABKE@?$AAa?$AAr?$AA?9?$AAS?$AAY?$AA?$AA@ 10044ce0     LIBCMT:winapinls.obj
 0002:0000dcec       ??_C@_1M@HPKGCFGN@?$AAe?$AAn?$AA?9?$AAB?$AAZ?$AA?$AA@ 10044cec     LIBCMT:winapinls.obj
 0002:0000dcf8       ??_C@_1M@OLJCMLGM@?$AAe?$AAs?$AA?9?$AAP?$AAE?$AA?$AA@ 10044cf8     LIBCMT:winapinls.obj
 0002:0000dd04       ??_C@_1M@MKKGFKLE@?$AAa?$AAr?$AA?9?$AAJ?$AAO?$AA?$AA@ 10044d04     LIBCMT:winapinls.obj
 0002:0000dd10       ??_C@_1M@EKPGLDNI@?$AAe?$AAn?$AA?9?$AAT?$AAT?$AA?$AA@ 10044d10     LIBCMT:winapinls.obj
 0002:0000dd1c       ??_C@_1M@OONGHFHE@?$AAe?$AAs?$AA?9?$AAA?$AAR?$AA?$AA@ 10044d1c     LIBCMT:winapinls.obj
 0002:0000dd28       ??_C@_1M@OOJFGBHE@?$AAa?$AAr?$AA?9?$AAL?$AAB?$AA?$AA@ 10044d28     LIBCMT:winapinls.obj
 0002:0000dd34       ??_C@_1M@GCEJHNEG@?$AAe?$AAn?$AA?9?$AAZ?$AAW?$AA?$AA@ 10044d34     LIBCMT:winapinls.obj
 0002:0000dd40       ??_C@_1M@JNOCAHJI@?$AAe?$AAs?$AA?9?$AAE?$AAC?$AA?$AA@ 10044d40     LIBCMT:winapinls.obj
 0002:0000dd4c       ??_C@_1M@JEFHPGGB@?$AAa?$AAr?$AA?9?$AAK?$AAW?$AA?$AA@ 10044d4c     LIBCMT:winapinls.obj
 0002:0000dd58       ??_C@_1M@MLKIBJOJ@?$AAe?$AAn?$AA?9?$AAP?$AAH?$AA?$AA@ 10044d58     LIBCMT:winapinls.obj
 0002:0000dd64       ??_C@_1M@BDNIPEND@?$AAe?$AAs?$AA?9?$AAC?$AAL?$AA?$AA@ 10044d64     LIBCMT:winapinls.obj
 0002:0000dd70       ??_C@_1M@MPNMEKBD@?$AAa?$AAr?$AA?9?$AAA?$AAE?$AA?$AA@ 10044d70     LIBCMT:winapinls.obj
 0002:0000dd7c       ??_C@_1M@KBJALCPI@?$AAe?$AAs?$AA?9?$AAU?$AAY?$AA?$AA@ 10044d7c     LIBCMT:winapinls.obj
 0002:0000dd88       ??_C@_1M@LLCCOAGA@?$AAa?$AAr?$AA?9?$AAB?$AAH?$AA?$AA@ 10044d88     LIBCMT:winapinls.obj
 0002:0000dd94       ??_C@_1M@PBFNCDEL@?$AAe?$AAs?$AA?9?$AAP?$AAY?$AA?$AA@ 10044d94     LIBCMT:winapinls.obj
 0002:0000dda0       ??_C@_1M@EDGINPNP@?$AAa?$AAr?$AA?9?$AAQ?$AAA?$AA?$AA@ 10044da0     LIBCMT:winapinls.obj
 0002:0000ddac       ??_C@_1M@MKDBIIJI@?$AAe?$AAs?$AA?9?$AAB?$AAO?$AA?$AA@ 10044dac     LIBCMT:winapinls.obj
 0002:0000ddb8       ??_C@_1M@CPKKEBLD@?$AAe?$AAs?$AA?9?$AAS?$AAV?$AA?$AA@ 10044db8     LIBCMT:winapinls.obj
 0002:0000ddc4       ??_C@_1M@NDBGMMJL@?$AAe?$AAs?$AA?9?$AAH?$AAN?$AA?$AA@ 10044dc4     LIBCMT:winapinls.obj
 0002:0000ddd0       ??_C@_1M@JIJIBHDP@?$AAe?$AAs?$AA?9?$AAN?$AAI?$AA?$AA@ 10044dd0     LIBCMT:winapinls.obj
 0002:0000dddc       ??_C@_1M@CGFMKEEK@?$AAe?$AAs?$AA?9?$AAP?$AAR?$AA?$AA@ 10044ddc     LIBCMT:winapinls.obj
 0002:0000dde8       ??_C@_1O@ICJHKIIK@?$AAz?$AAh?$AA?9?$AAC?$AAH?$AAT?$AA?$AA@ 10044de8     LIBCMT:winapinls.obj
 0002:0000ddf8       ??_C@_15CLNEJCE@?$AAs?$AAr?$AA?$AA@ 10044df8     LIBCMT:winapinls.obj
 0002:0000de00       ??_C@_1M@KAHEKEIG@?$AAa?$AAf?$AA?9?$AAz?$AAa?$AA?$AA@ 10044e00     LIBCMT:winapinls.obj
 0002:0000de0c       ??_C@_1M@GIECOABL@?$AAa?$AAr?$AA?9?$AAa?$AAe?$AA?$AA@ 10044e0c     LIBCMT:winapinls.obj
 0002:0000de18       ??_C@_1M@BMLMEKGI@?$AAa?$AAr?$AA?9?$AAb?$AAh?$AA?$AA@ 10044e18     LIBCMT:winapinls.obj
 0002:0000de24       ??_C@_1M@DAPFDGGB@?$AAa?$AAr?$AA?9?$AAd?$AAz?$AA?$AA@ 10044e24     LIBCMT:winapinls.obj
 0002:0000de30       ??_C@_1M@FJNKGKIG@?$AAa?$AAr?$AA?9?$AAe?$AAg?$AA?$AA@ 10044e30     LIBCMT:winapinls.obj
 0002:0000de3c       ??_C@_1M@FLGKKCLO@?$AAa?$AAr?$AA?9?$AAi?$AAq?$AA?$AA@ 10044e3c     LIBCMT:winapinls.obj
 0002:0000de48       ??_C@_1M@GNDIPALM@?$AAa?$AAr?$AA?9?$AAj?$AAo?$AA?$AA@ 10044e48     LIBCMT:winapinls.obj
 0002:0000de54       ??_C@_1M@DDMJFMGJ@?$AAa?$AAr?$AA?9?$AAk?$AAw?$AA?$AA@ 10044e54     LIBCMT:winapinls.obj
 0002:0000de60       ??_C@_1M@EJALMLHM@?$AAa?$AAr?$AA?9?$AAl?$AAb?$AA?$AA@ 10044e60     LIBCMT:winapinls.obj
 0002:0000de6c       ??_C@_1M@MOBDBLOC@?$AAa?$AAr?$AA?9?$AAl?$AAy?$AA?$AA@ 10044e6c     LIBCMT:winapinls.obj
 0002:0000de78       ??_C@_1M@JAOCLHDH@?$AAa?$AAr?$AA?9?$AAm?$AAa?$AA?$AA@ 10044e78     LIBCMT:winapinls.obj
 0002:0000de84       ??_C@_1M@JHPMKJIE@?$AAa?$AAr?$AA?9?$AAo?$AAm?$AA?$AA@ 10044e84     LIBCMT:winapinls.obj
 0002:0000de90       ??_C@_1M@OEPGHFNH@?$AAa?$AAr?$AA?9?$AAq?$AAa?$AA?$AA@ 10044e90     LIBCMT:winapinls.obj
 0002:0000de9c       ??_C@_1M@KJDONENM@?$AAa?$AAr?$AA?9?$AAs?$AAa?$AA?$AA@ 10044e9c     LIBCMT:winapinls.obj
 0002:0000dea8       ??_C@_1M@DMJDKLKM@?$AAa?$AAr?$AA?9?$AAs?$AAy?$AA?$AA@ 10044ea8     LIBCMT:winapinls.obj
 0002:0000deb4       ??_C@_1M@OMFIPEDC@?$AAa?$AAr?$AA?9?$AAt?$AAn?$AA?$AA@ 10044eb4     LIBCMT:winapinls.obj
 0002:0000dec0       ??_C@_1M@IHMHGAON@?$AAa?$AAr?$AA?9?$AAy?$AAe?$AA?$AA@ 10044ec0     LIBCMT:winapinls.obj
 0002:0000decc       ??_C@_1BG@KDCPGJGB@?$AAa?$AAz?$AA?9?$AAa?$AAz?$AA?9?$AAc?$AAy?$AAr?$AAl?$AA?$AA@ 10044ecc     LIBCMT:winapinls.obj
 0002:0000dee4       ??_C@_1BG@IBCKDDOE@?$AAa?$AAz?$AA?9?$AAa?$AAz?$AA?9?$AAl?$AAa?$AAt?$AAn?$AA?$AA@ 10044ee4     LIBCMT:winapinls.obj
 0002:0000defc       ??_C@_1M@EGPFDCPD@?$AAb?$AAe?$AA?9?$AAb?$AAy?$AA?$AA@ 10044efc     LIBCMT:winapinls.obj
 0002:0000df08       ??_C@_1M@PCMGMCGC@?$AAb?$AAg?$AA?9?$AAb?$AAg?$AA?$AA@ 10044f08     LIBCMT:winapinls.obj
 0002:0000df14       ??_C@_1M@BJBMFGOB@?$AAb?$AAn?$AA?9?$AAi?$AAn?$AA?$AA@ 10044f14     LIBCMT:winapinls.obj
 0002:0000df20       ??_C@_1BG@EAKMMACD@?$AAb?$AAs?$AA?9?$AAb?$AAa?$AA?9?$AAl?$AAa?$AAt?$AAn?$AA?$AA@ 10044f20     LIBCMT:winapinls.obj
 0002:0000df38       ??_C@_1M@KGADAODK@?$AAc?$AAa?$AA?9?$AAe?$AAs?$AA?$AA@ 10044f38     LIBCMT:winapinls.obj
 0002:0000df44       ??_C@_1M@COAJPDHI@?$AAc?$AAs?$AA?9?$AAc?$AAz?$AA?$AA@ 10044f44     LIBCMT:winapinls.obj
 0002:0000df50       ??_C@_1M@DHBHFONH@?$AAc?$AAy?$AA?9?$AAg?$AAb?$AA?$AA@ 10044f50     LIBCMT:winapinls.obj
 0002:0000df5c       ??_C@_1M@IMGKELGA@?$AAd?$AAa?$AA?9?$AAd?$AAk?$AA?$AA@ 10044f5c     LIBCMT:winapinls.obj
 0002:0000df68       ??_C@_1M@NNDGDNGA@?$AAd?$AAe?$AA?9?$AAa?$AAt?$AA?$AA@ 10044f68     LIBCMT:winapinls.obj
 0002:0000df74       ??_C@_1M@IKDBHEEM@?$AAd?$AAe?$AA?9?$AAc?$AAh?$AA?$AA@ 10044f74     LIBCMT:winapinls.obj
 0002:0000df80       ??_C@_1M@GFFOJMCJ@?$AAd?$AAe?$AA?9?$AAd?$AAe?$AA?$AA@ 10044f80     LIBCMT:winapinls.obj
 0002:0000df8c       ??_C@_1M@MDNLKBPM@?$AAd?$AAe?$AA?9?$AAl?$AAi?$AA?$AA@ 10044f8c     LIBCMT:winapinls.obj
 0002:0000df98       ??_C@_1M@NJBEEJNL@?$AAd?$AAe?$AA?9?$AAl?$AAu?$AA?$AA@ 10044f98     LIBCMT:winapinls.obj
 0002:0000dfa4       ??_C@_1O@GNNELBAP@?$AAd?$AAi?$AAv?$AA?9?$AAm?$AAv?$AA?$AA@ 10044fa4     LIBCMT:winapinls.obj
 0002:0000dfb4       ??_C@_1M@EJLEOGAE@?$AAe?$AAl?$AA?9?$AAg?$AAr?$AA?$AA@ 10044fb4     LIBCMT:winapinls.obj
 0002:0000dfc0       ??_C@_1M@GMPONJN@?$AAe?$AAn?$AA?9?$AAa?$AAu?$AA?$AA@ 10044fc0     LIBCMT:winapinls.obj
 0002:0000dfcc       ??_C@_1M@NIDIIPGF@?$AAe?$AAn?$AA?9?$AAb?$AAz?$AA?$AA@ 10044fcc     LIBCMT:winapinls.obj
 0002:0000dfd8       ??_C@_1M@JEHMIMFO@?$AAe?$AAn?$AA?9?$AAc?$AAa?$AA?$AA@ 10044fd8     LIBCMT:winapinls.obj
 0002:0000dfe4       ??_C@_1M@IGMJCDLA@?$AAe?$AAn?$AA?9?$AAc?$AAb?$AA?$AA@ 10044fe4     LIBCMT:winapinls.obj
 0002:0000dff0       ??_C@_1M@BNFIGBKG@?$AAe?$AAn?$AA?9?$AAg?$AAb?$AA?$AA@ 10044ff0     LIBCMT:winapinls.obj
 0002:0000dffc       ??_C@_1M@LKIFDIGP@?$AAe?$AAn?$AA?9?$AAi?$AAe?$AA?$AA@ 10044ffc     LIBCMT:winapinls.obj
 0002:0000e008       ??_C@_1M@PJKFGCCO@?$AAe?$AAn?$AA?9?$AAj?$AAm?$AA?$AA@ 10045008     LIBCMT:winapinls.obj
 0002:0000e014       ??_C@_1M@KPPKEPBO@?$AAe?$AAn?$AA?9?$AAn?$AAz?$AA?$AA@ 10045014     LIBCMT:winapinls.obj
 0002:0000e020       ??_C@_1M@GMDGLDOB@?$AAe?$AAn?$AA?9?$AAp?$AAh?$AA?$AA@ 10045020     LIBCMT:winapinls.obj
 0002:0000e02c       ??_C@_1M@ONGIBJNA@?$AAe?$AAn?$AA?9?$AAt?$AAt?$AA?$AA@ 1004502c     LIBCMT:winapinls.obj
 0002:0000e038       ??_C@_1M@LLODPCMM@?$AAe?$AAn?$AA?9?$AAu?$AAs?$AA?$AA@ 10045038     LIBCMT:winapinls.obj
 0002:0000e044       ??_C@_1M@LAKFNPAN@?$AAe?$AAn?$AA?9?$AAz?$AAa?$AA?$AA@ 10045044     LIBCMT:winapinls.obj
 0002:0000e050       ??_C@_1M@MFNHNHEO@?$AAe?$AAn?$AA?9?$AAz?$AAw?$AA?$AA@ 10045050     LIBCMT:winapinls.obj
 0002:0000e05c       ??_C@_1M@EJEINPHM@?$AAe?$AAs?$AA?9?$AAa?$AAr?$AA?$AA@ 1004505c     LIBCMT:winapinls.obj
 0002:0000e068       ??_C@_1M@GNKPCCJA@?$AAe?$AAs?$AA?9?$AAb?$AAo?$AA?$AA@ 10045068     LIBCMT:winapinls.obj
 0002:0000e074       ??_C@_1M@LEEGFONL@?$AAe?$AAs?$AA?9?$AAc?$AAl?$AA?$AA@ 10045074     LIBCMT:winapinls.obj
 0002:0000e080       ??_C@_1M@KGPDPBDF@?$AAe?$AAs?$AA?9?$AAc?$AAo?$AA?$AA@ 10045080     LIBCMT:winapinls.obj
 0002:0000e08c       ??_C@_1M@EIAHOHH@?$AAe?$AAs?$AA?9?$AAc?$AAr?$AA?$AA@ 1004508c     LIBCMT:winapinls.obj
 0002:0000e098       ??_C@_1M@LLPGMBIN@?$AAe?$AAs?$AA?9?$AAd?$AAo?$AA?$AA@ 10045098     LIBCMT:winapinls.obj
 0002:0000e0a4       ??_C@_1M@DKHMKNJA@?$AAe?$AAs?$AA?9?$AAe?$AAc?$AA?$AA@ 100450a4     LIBCMT:winapinls.obj
 0002:0000e0b0       ??_C@_1M@GKGFPKAP@?$AAe?$AAs?$AA?9?$AAe?$AAs?$AA?$AA@ 100450b0     LIBCMT:winapinls.obj
 0002:0000e0bc       ??_C@_1M@LKHKGDLN@?$AAe?$AAs?$AA?9?$AAg?$AAt?$AA?$AA@ 100450bc     LIBCMT:winapinls.obj
 0002:0000e0c8       ??_C@_1M@HEIIGGJD@?$AAe?$AAs?$AA?9?$AAh?$AAn?$AA?$AA@ 100450c8     LIBCMT:winapinls.obj
 0002:0000e0d4       ??_C@_1M@FBDHPPGD@?$AAe?$AAs?$AA?9?$AAm?$AAx?$AA?$AA@ 100450d4     LIBCMT:winapinls.obj
 0002:0000e0e0       ??_C@_1M@DPAGLNDH@?$AAe?$AAs?$AA?9?$AAn?$AAi?$AA?$AA@ 100450e0     LIBCMT:winapinls.obj
 0002:0000e0ec       ??_C@_1M@MDGOPGDD@?$AAe?$AAs?$AA?9?$AAp?$AAa?$AA?$AA@ 100450ec     LIBCMT:winapinls.obj
 0002:0000e0f8       ??_C@_1M@EMAMGBGE@?$AAe?$AAs?$AA?9?$AAp?$AAe?$AA?$AA@ 100450f8     LIBCMT:winapinls.obj
 0002:0000e104       ??_C@_1M@IBMCAOEC@?$AAe?$AAs?$AA?9?$AAp?$AAr?$AA?$AA@ 10045104     LIBCMT:winapinls.obj
 0002:0000e110       ??_C@_1M@FGMDIJED@?$AAe?$AAs?$AA?9?$AAp?$AAy?$AA?$AA@ 10045110     LIBCMT:winapinls.obj
 0002:0000e11c       ??_C@_1M@IIDEOLLL@?$AAe?$AAs?$AA?9?$AAs?$AAv?$AA?$AA@ 1004511c     LIBCMT:winapinls.obj
 0002:0000e128       ??_C@_1M@GAOBIPA@?$AAe?$AAs?$AA?9?$AAu?$AAy?$AA?$AA@ 10045128     LIBCMT:winapinls.obj
 0002:0000e134       ??_C@_1M@JKFFICHJ@?$AAe?$AAs?$AA?9?$AAv?$AAe?$AA?$AA@ 10045134     LIBCMT:winapinls.obj
 0002:0000e140       ??_C@_1M@PNMLOJDF@?$AAe?$AAt?$AA?9?$AAe?$AAe?$AA?$AA@ 10045140     LIBCMT:winapinls.obj
 0002:0000e14c       ??_C@_1M@GHHLIKEI@?$AAe?$AAu?$AA?9?$AAe?$AAs?$AA?$AA@ 1004514c     LIBCMT:winapinls.obj
 0002:0000e158       ??_C@_1M@PBNONODE@?$AAf?$AAa?$AA?9?$AAi?$AAr?$AA?$AA@ 10045158     LIBCMT:winapinls.obj
 0002:0000e164       ??_C@_1M@JEEHPMIL@?$AAf?$AAi?$AA?9?$AAf?$AAi?$AA?$AA@ 10045164     LIBCMT:winapinls.obj
 0002:0000e170       ??_C@_1M@LMDCNDBA@?$AAf?$AAo?$AA?9?$AAf?$AAo?$AA?$AA@ 10045170     LIBCMT:winapinls.obj
 0002:0000e17c       ??_C@_1M@JKEOHLDK@?$AAf?$AAr?$AA?9?$AAb?$AAe?$AA?$AA@ 1004517c     LIBCMT:winapinls.obj
 0002:0000e188       ??_C@_1M@NOHADPMI@?$AAf?$AAr?$AA?9?$AAc?$AAa?$AA?$AA@ 10045188     LIBCMT:winapinls.obj
 0002:0000e194       ??_C@_1M@KDHIHAEC@?$AAf?$AAr?$AA?9?$AAc?$AAh?$AA?$AA@ 10045194     LIBCMT:winapinls.obj
 0002:0000e1a0       ??_C@_1M@MMBBFGAK@?$AAf?$AAr?$AA?9?$AAf?$AAr?$AA?$AA@ 100451a0     LIBCMT:winapinls.obj
 0002:0000e1ac       ??_C@_1M@PAFNENNF@?$AAf?$AAr?$AA?9?$AAl?$AAu?$AA?$AA@ 100451ac     LIBCMT:winapinls.obj
 0002:0000e1b8       ??_C@_1M@EOHDJGDD@?$AAf?$AAr?$AA?9?$AAm?$AAc?$AA?$AA@ 100451b8     LIBCMT:winapinls.obj
 0002:0000e1c4       ??_C@_1M@FAPLLOPF@?$AAg?$AAl?$AA?9?$AAe?$AAs?$AA?$AA@ 100451c4     LIBCMT:winapinls.obj
 0002:0000e1d0       ??_C@_1M@FOPBFLOO@?$AAg?$AAu?$AA?9?$AAi?$AAn?$AA?$AA@ 100451d0     LIBCMT:winapinls.obj
 0002:0000e1dc       ??_C@_1M@KBMCINPM@?$AAh?$AAe?$AA?9?$AAi?$AAl?$AA?$AA@ 100451dc     LIBCMT:winapinls.obj
 0002:0000e1e8       ??_C@_1M@BBPHKFPJ@?$AAh?$AAi?$AA?9?$AAi?$AAn?$AA?$AA@ 100451e8     LIBCMT:winapinls.obj
 0002:0000e1f4       ??_C@_1M@PMBNDPHD@?$AAh?$AAr?$AA?9?$AAb?$AAa?$AA?$AA@ 100451f4     LIBCMT:winapinls.obj
 0002:0000e200       ??_C@_1M@BPCKOEGE@?$AAh?$AAr?$AA?9?$AAh?$AAr?$AA?$AA@ 10045200     LIBCMT:winapinls.obj
 0002:0000e20c       ??_C@_1M@GACBMHKE@?$AAh?$AAu?$AA?9?$AAh?$AAu?$AA?$AA@ 1004520c     LIBCMT:winapinls.obj
 0002:0000e218       ??_C@_1M@MILPAJJC@?$AAh?$AAy?$AA?9?$AAa?$AAm?$AA?$AA@ 10045218     LIBCMT:winapinls.obj
 0002:0000e224       ??_C@_1M@BABBICEC@?$AAi?$AAd?$AA?9?$AAi?$AAd?$AA?$AA@ 10045224     LIBCMT:winapinls.obj
 0002:0000e230       ??_C@_1M@BIKNHHPF@?$AAi?$AAs?$AA?9?$AAi?$AAs?$AA?$AA@ 10045230     LIBCMT:winapinls.obj
 0002:0000e23c       ??_C@_1M@NMPCJPHE@?$AAi?$AAt?$AA?9?$AAc?$AAh?$AA?$AA@ 1004523c     LIBCMT:winapinls.obj
 0002:0000e248       ??_C@_1M@GHKGFEDF@?$AAi?$AAt?$AA?9?$AAi?$AAt?$AA?$AA@ 10045248     LIBCMT:winapinls.obj
 0002:0000e254       ??_C@_1M@NIEJCJJA@?$AAj?$AAa?$AA?9?$AAj?$AAp?$AA?$AA@ 10045254     LIBCMT:winapinls.obj
 0002:0000e260       ??_C@_1M@JILFNBIM@?$AAk?$AAa?$AA?9?$AAg?$AAe?$AA?$AA@ 10045260     LIBCMT:winapinls.obj
 0002:0000e26c       ??_C@_1M@PACPMGPH@?$AAk?$AAk?$AA?9?$AAk?$AAz?$AA?$AA@ 1004526c     LIBCMT:winapinls.obj
 0002:0000e278       ??_C@_1M@IELFGMHA@?$AAk?$AAn?$AA?9?$AAi?$AAn?$AA?$AA@ 10045278     LIBCMT:winapinls.obj
 0002:0000e284       ??_C@_1O@IBBJHCH@?$AAk?$AAo?$AAk?$AA?9?$AAi?$AAn?$AA?$AA@ 10045284     LIBCMT:winapinls.obj
 0002:0000e294       ??_C@_1M@DMHAEOGC@?$AAk?$AAo?$AA?9?$AAk?$AAr?$AA?$AA@ 10045294     LIBCMT:winapinls.obj
 0002:0000e2a0       ??_C@_1M@HBAHBIGA@?$AAk?$AAy?$AA?9?$AAk?$AAg?$AA?$AA@ 100452a0     LIBCMT:winapinls.obj
 0002:0000e2ac       ??_C@_1M@KPMILCJG@?$AAl?$AAt?$AA?9?$AAl?$AAt?$AA?$AA@ 100452ac     LIBCMT:winapinls.obj
 0002:0000e2b8       ??_C@_1M@BDEKKCA@?$AAl?$AAv?$AA?9?$AAl?$AAv?$AA?$AA@ 100452b8     LIBCMT:winapinls.obj
 0002:0000e2c4       ??_C@_1M@ELCKCCJJ@?$AAm?$AAi?$AA?9?$AAn?$AAz?$AA?$AA@ 100452c4     LIBCMT:winapinls.obj
 0002:0000e2d0       ??_C@_1M@CBOOLAPA@?$AAm?$AAk?$AA?9?$AAm?$AAk?$AA?$AA@ 100452d0     LIBCMT:winapinls.obj
 0002:0000e2dc       ??_C@_1M@GPHNBJKN@?$AAm?$AAl?$AA?9?$AAi?$AAn?$AA?$AA@ 100452dc     LIBCMT:winapinls.obj
 0002:0000e2e8       ??_C@_1M@PABJILIG@?$AAm?$AAn?$AA?9?$AAm?$AAn?$AA?$AA@ 100452e8     LIBCMT:winapinls.obj
 0002:0000e2f4       ??_C@_1M@FGBKKIPG@?$AAm?$AAr?$AA?9?$AAi?$AAn?$AA?$AA@ 100452f4     LIBCMT:winapinls.obj
 0002:0000e300       ??_C@_1M@NDBPDDAL@?$AAm?$AAs?$AA?9?$AAb?$AAn?$AA?$AA@ 10045300     LIBCMT:winapinls.obj
 0002:0000e30c       ??_C@_1M@OPIHOOPI@?$AAm?$AAs?$AA?9?$AAm?$AAy?$AA?$AA@ 1004530c     LIBCMT:winapinls.obj
 0002:0000e318       ??_C@_1M@PPDBCNFM@?$AAm?$AAt?$AA?9?$AAm?$AAt?$AA?$AA@ 10045318     LIBCMT:winapinls.obj
 0002:0000e324       ??_C@_1M@KDJDKMDD@?$AAn?$AAb?$AA?9?$AAn?$AAo?$AA?$AA@ 10045324     LIBCMT:winapinls.obj
 0002:0000e330       ??_C@_1M@KFCFLMJP@?$AAn?$AAl?$AA?9?$AAb?$AAe?$AA?$AA@ 10045330     LIBCMT:winapinls.obj
 0002:0000e33c       ??_C@_1M@KPOPDDGO@?$AAn?$AAl?$AA?9?$AAn?$AAl?$AA?$AA@ 1004533c     LIBCMT:winapinls.obj
 0002:0000e348       ??_C@_1M@LJKPEMLN@?$AAn?$AAn?$AA?9?$AAn?$AAo?$AA?$AA@ 10045348     LIBCMT:winapinls.obj
 0002:0000e354       ??_C@_1M@BDGHHBFL@?$AAn?$AAs?$AA?9?$AAz?$AAa?$AA?$AA@ 10045354     LIBCMT:winapinls.obj
 0002:0000e360       ??_C@_1M@IDEHOAP@?$AAp?$AAa?$AA?9?$AAi?$AAn?$AA?$AA@ 10045360     LIBCMT:winapinls.obj
 0002:0000e36c       ??_C@_1M@HDBKGOGH@?$AAp?$AAl?$AA?9?$AAp?$AAl?$AA?$AA@ 1004536c     LIBCMT:winapinls.obj
 0002:0000e378       ??_C@_1M@LJLLCMEH@?$AAp?$AAt?$AA?9?$AAb?$AAr?$AA?$AA@ 10045378     LIBCMT:winapinls.obj
 0002:0000e384       ??_C@_1M@NCMONAAL@?$AAp?$AAt?$AA?9?$AAp?$AAt?$AA?$AA@ 10045384     LIBCMT:winapinls.obj
 0002:0000e390       ??_C@_1O@EAKMAJDN@?$AAq?$AAu?$AAz?$AA?9?$AAb?$AAo?$AA?$AA@ 10045390     LIBCMT:winapinls.obj
 0002:0000e3a0       ??_C@_1O@BHHPIGDN@?$AAq?$AAu?$AAz?$AA?9?$AAe?$AAc?$AA?$AA@ 100453a0     LIBCMT:winapinls.obj
 0002:0000e3b0       ??_C@_1O@GBAPEKMJ@?$AAq?$AAu?$AAz?$AA?9?$AAp?$AAe?$AA?$AA@ 100453b0     LIBCMT:winapinls.obj
 0002:0000e3c0       ??_C@_1M@CLGLEFBO@?$AAr?$AAo?$AA?9?$AAr?$AAo?$AA?$AA@ 100453c0     LIBCMT:winapinls.obj
 0002:0000e3cc       ??_C@_1M@CEEDODME@?$AAr?$AAu?$AA?9?$AAr?$AAu?$AA?$AA@ 100453cc     LIBCMT:winapinls.obj
 0002:0000e3d8       ??_C@_1M@HPKKKMPP@?$AAs?$AAa?$AA?9?$AAi?$AAn?$AA?$AA@ 100453d8     LIBCMT:winapinls.obj
 0002:0000e3e4       ??_C@_1M@BKMAIGOJ@?$AAs?$AAe?$AA?9?$AAf?$AAi?$AA?$AA@ 100453e4     LIBCMT:winapinls.obj
 0002:0000e3f0       ??_C@_1M@NDPIFLFI@?$AAs?$AAe?$AA?9?$AAn?$AAo?$AA?$AA@ 100453f0     LIBCMT:winapinls.obj
 0002:0000e3fc       ??_C@_1M@DANKKHJ@?$AAs?$AAe?$AA?9?$AAs?$AAe?$AA?$AA@ 100453fc     LIBCMT:winapinls.obj
 0002:0000e408       ??_C@_1M@PNBLONPJ@?$AAs?$AAk?$AA?9?$AAs?$AAk?$AA?$AA@ 10045408     LIBCMT:winapinls.obj
 0002:0000e414       ??_C@_1M@LFMODOAL@?$AAs?$AAl?$AA?9?$AAs?$AAi?$AA?$AA@ 10045414     LIBCMT:winapinls.obj
 0002:0000e420       ??_C@_1O@DFKOMPG@?$AAs?$AAm?$AAa?$AA?9?$AAn?$AAo?$AA?$AA@ 10045420     LIBCMT:winapinls.obj
 0002:0000e430       ??_C@_1O@NDKPBNNH@?$AAs?$AAm?$AAa?$AA?9?$AAs?$AAe?$AA?$AA@ 10045430     LIBCMT:winapinls.obj
 0002:0000e440       ??_C@_1O@PLLKBHAB@?$AAs?$AAm?$AAj?$AA?9?$AAn?$AAo?$AA?$AA@ 10045440     LIBCMT:winapinls.obj
 0002:0000e450       ??_C@_1O@CLEPOGCA@?$AAs?$AAm?$AAj?$AA?9?$AAs?$AAe?$AA?$AA@ 10045450     LIBCMT:winapinls.obj
 0002:0000e460       ??_C@_1O@DLGJGKMK@?$AAs?$AAm?$AAn?$AA?9?$AAf?$AAi?$AA?$AA@ 10045460     LIBCMT:winapinls.obj
 0002:0000e470       ??_C@_1O@OJDJGAJC@?$AAs?$AAm?$AAs?$AA?9?$AAf?$AAi?$AA?$AA@ 10045470     LIBCMT:winapinls.obj
 0002:0000e480       ??_C@_1M@BOFOGHPB@?$AAs?$AAq?$AA?9?$AAa?$AAl?$AA?$AA@ 10045480     LIBCMT:winapinls.obj
 0002:0000e48c       ??_C@_1BG@LJBBIPGB@?$AAs?$AAr?$AA?9?$AAb?$AAa?$AA?9?$AAc?$AAy?$AAr?$AAl?$AA?$AA@ 1004548c     LIBCMT:winapinls.obj
 0002:0000e4a4       ??_C@_1BG@JLBENFOE@?$AAs?$AAr?$AA?9?$AAb?$AAa?$AA?9?$AAl?$AAa?$AAt?$AAn?$AA?$AA@ 100454a4     LIBCMT:winapinls.obj
 0002:0000e4bc       ??_C@_1BG@KODPNHE@?$AAs?$AAr?$AA?9?$AAs?$AAp?$AA?9?$AAc?$AAy?$AAr?$AAl?$AA?$AA@ 100454bc     LIBCMT:winapinls.obj
 0002:0000e4d4       ??_C@_1BG@CIOGKHPB@?$AAs?$AAr?$AA?9?$AAs?$AAp?$AA?9?$AAl?$AAa?$AAt?$AAn?$AA?$AA@ 100454d4     LIBCMT:winapinls.obj
 0002:0000e4ec       ??_C@_1M@NGFJLMAC@?$AAs?$AAv?$AA?9?$AAf?$AAi?$AA?$AA@ 100454ec     LIBCMT:winapinls.obj
 0002:0000e4f8       ??_C@_1M@MPJEJAJC@?$AAs?$AAv?$AA?9?$AAs?$AAe?$AA?$AA@ 100454f8     LIBCMT:winapinls.obj
 0002:0000e504       ??_C@_1M@MPNDHLFK@?$AAs?$AAw?$AA?9?$AAk?$AAe?$AA?$AA@ 10045504     LIBCMT:winapinls.obj
 0002:0000e510       ??_C@_1O@KOHBJJI@?$AAs?$AAy?$AAr?$AA?9?$AAs?$AAy?$AA?$AA@ 10045510     LIBCMT:winapinls.obj
 0002:0000e520       ??_C@_1M@LDCEFHA@?$AAt?$AAa?$AA?9?$AAi?$AAn?$AA?$AA@ 10045520     LIBCMT:winapinls.obj
 0002:0000e52c       ??_C@_1M@CNJOFAK@?$AAt?$AAe?$AA?9?$AAi?$AAn?$AA?$AA@ 1004552c     LIBCMT:winapinls.obj
 0002:0000e538       ??_C@_1M@GNAECACD@?$AAt?$AAh?$AA?9?$AAt?$AAh?$AA?$AA@ 10045538     LIBCMT:winapinls.obj
 0002:0000e544       ??_C@_1M@CHBIHOJO@?$AAt?$AAn?$AA?9?$AAz?$AAa?$AA?$AA@ 10045544     LIBCMT:winapinls.obj
 0002:0000e550       ??_C@_1M@GCCMIGPJ@?$AAt?$AAr?$AA?9?$AAt?$AAr?$AA?$AA@ 10045550     LIBCMT:winapinls.obj
 0002:0000e55c       ??_C@_1M@CELMCNBK@?$AAt?$AAt?$AA?9?$AAr?$AAu?$AA?$AA@ 1004555c     LIBCMT:winapinls.obj
 0002:0000e568       ??_C@_1M@KLMCELGA@?$AAu?$AAk?$AA?9?$AAu?$AAa?$AA?$AA@ 10045568     LIBCMT:winapinls.obj
 0002:0000e574       ??_C@_1M@EPAJJAJF@?$AAu?$AAr?$AA?9?$AAp?$AAk?$AA?$AA@ 10045574     LIBCMT:winapinls.obj
 0002:0000e580       ??_C@_1BG@GEGPMCDJ@?$AAu?$AAz?$AA?9?$AAu?$AAz?$AA?9?$AAc?$AAy?$AAr?$AAl?$AA?$AA@ 10045580     LIBCMT:winapinls.obj
 0002:0000e598       ??_C@_1BG@EGGKJILM@?$AAu?$AAz?$AA?9?$AAu?$AAz?$AA?9?$AAl?$AAa?$AAt?$AAn?$AA?$AA@ 10045598     LIBCMT:winapinls.obj
 0002:0000e5b0       ??_C@_1M@GFOCLFF@?$AAv?$AAi?$AA?9?$AAv?$AAn?$AA?$AA@ 100455b0     LIBCMT:winapinls.obj
 0002:0000e5bc       ??_C@_1M@CPAMEDFI@?$AAx?$AAh?$AA?9?$AAz?$AAa?$AA?$AA@ 100455bc     LIBCMT:winapinls.obj
 0002:0000e5c8       ??_C@_1O@EBKIFIGN@?$AAz?$AAh?$AA?9?$AAc?$AAh?$AAs?$AA?$AA@ 100455c8     LIBCMT:winapinls.obj
 0002:0000e5d8       ??_C@_1O@NMHPGANE@?$AAz?$AAh?$AA?9?$AAc?$AAh?$AAt?$AA?$AA@ 100455d8     LIBCMT:winapinls.obj
 0002:0000e5e8       ??_C@_1M@LPINJOMC@?$AAz?$AAh?$AA?9?$AAc?$AAn?$AA?$AA@ 100455e8     LIBCMT:winapinls.obj
 0002:0000e5f4       ??_C@_1M@OCJEJODD@?$AAz?$AAh?$AA?9?$AAh?$AAk?$AA?$AA@ 100455f4     LIBCMT:winapinls.obj
 0002:0000e600       ??_C@_1M@DNDLJINH@?$AAz?$AAh?$AA?9?$AAm?$AAo?$AA?$AA@ 10045600     LIBCMT:winapinls.obj
 0002:0000e60c       ??_C@_1M@MBFDNDND@?$AAz?$AAh?$AA?9?$AAs?$AAg?$AA?$AA@ 1004560c     LIBCMT:winapinls.obj
 0002:0000e618       ??_C@_1M@IMEPLEPE@?$AAz?$AAh?$AA?9?$AAt?$AAw?$AA?$AA@ 10045618     LIBCMT:winapinls.obj
 0002:0000e624       ??_C@_1M@BBGHNHJP@?$AAz?$AAu?$AA?9?$AAz?$AAa?$AA?$AA@ 10045624     LIBCMT:winapinls.obj
 0002:0000e630       ??_C@_06OJHGLDPL@?$CInull?$CJ?$AA@ 10045630     LIBCMT:output.obj
 0002:0000e638       ??_C@_1O@CEDCILHN@?$AA?$CI?$AAn?$AAu?$AAl?$AAl?$AA?$CJ?$AA?$AA@ 10045638     LIBCMT:output.obj
 0002:0000e648       ___lookuptable             10045648     LIBCMT:output.obj
 0002:0000e710       ??_C@_03MGHMBJCF@log?$AA@  10045710     LIBCMT:libm_error.obj
 0002:0000e714       ??_C@_05HGHHAHAP@log10?$AA@ 10045714     LIBCMT:libm_error.obj
 0002:0000e71c       ??_C@_03KHJOGHMM@exp?$AA@  1004571c     LIBCMT:libm_error.obj
 0002:0000e720       ??_C@_03JGHBODFD@pow?$AA@  10045720     LIBCMT:libm_error.obj
 0002:0000e724       ??_C@_04FIHNOPOL@asin?$AA@ 10045724     LIBCMT:libm_error.obj
 0002:0000e72c       ??_C@_04PDIFKINK@acos?$AA@ 1004572c     LIBCMT:libm_error.obj
 0002:0000e734       ??_C@_05EOHGHCHD@exp10?$AA@ 10045734     LIBCMT:libm_error.obj
 0002:0000e73c       ??_C@_04MLLJIGOK@atan?$AA@ 1004573c     LIBCMT:libm_error.obj
 0002:0000e744       ??_C@_04GFPJNGEK@ceil?$AA@ 10045744     LIBCMT:libm_error.obj
 0002:0000e74c       ??_C@_05PBJFFIGL@floor?$AA@ 1004574c     LIBCMT:libm_error.obj
 0002:0000e754       ??_C@_04EHEDPDJG@modf?$AA@ 10045754     LIBCMT:libm_error.obj
 0002:0000e75c       ??_C@_03BLEJJJBH@sin?$AA@  1004575c     LIBCMT:libm_error.obj
 0002:0000e760       ??_C@_03LALBNOCG@cos?$AA@  10045760     LIBCMT:libm_error.obj
 0002:0000e764       ??_C@_03IIINPABG@tan?$AA@  10045764     LIBCMT:libm_error.obj
 0002:0000e768       ??_C@_04EIAKFFMI@sqrt?$AA@ 10045768     LIBCMT:libm_error.obj
 0002:0000e770       ??_C@_05KLBDPFGC@e?$CL000?$AA@ 10045770     LIBCMT:cvt.obj
 0002:0000e778       ??_C@_1FE@LLNEDJMD@?$AAR?$AA6?$AA0?$AA0?$AA8?$AA?$AN?$AA?6?$AA?9?$AA?5?$AAn?$AAo?$AAt?$AA?5?$AAe?$AAn?$AAo?$AAu?$AAg?$AAh?$AA?5?$AAs?$AAp?$AAa?$AAc?$AAe?$AA?5?$AAf?$AAo?$AAr?$AA?5?$AAa?$AAr@ 10045778     LIBCMT:crt0msg.obj
 0002:0000e7d0       ??_C@_1FI@HONFMGBI@?$AAR?$AA6?$AA0?$AA0?$AA9?$AA?$AN?$AA?6?$AA?9?$AA?5?$AAn?$AAo?$AAt?$AA?5?$AAe?$AAn?$AAo?$AAu?$AAg?$AAh?$AA?5?$AAs?$AAp?$AAa?$AAc?$AAe?$AA?5?$AAf?$AAo?$AAr?$AA?5?$AAe?$AAn@ 100457d0     LIBCMT:crt0msg.obj
 0002:0000e828       ??_C@_1EG@BEHAGFJD@?$AAR?$AA6?$AA0?$AA1?$AA0?$AA?$AN?$AA?6?$AA?9?$AA?5?$AAa?$AAb?$AAo?$AAr?$AAt?$AA?$CI?$AA?$CJ?$AA?5?$AAh?$AAa?$AAs?$AA?5?$AAb?$AAe?$AAe?$AAn?$AA?5?$AAc?$AAa?$AAl?$AAl?$AAe?$AAd@ 10045828     LIBCMT:crt0msg.obj
 0002:0000e870       ??_C@_1FI@LOGNIKDM@?$AAR?$AA6?$AA0?$AA1?$AA6?$AA?$AN?$AA?6?$AA?9?$AA?5?$AAn?$AAo?$AAt?$AA?5?$AAe?$AAn?$AAo?$AAu?$AAg?$AAh?$AA?5?$AAs?$AAp?$AAa?$AAc?$AAe?$AA?5?$AAf?$AAo?$AAr?$AA?5?$AAt?$AAh@ 10045870     LIBCMT:crt0msg.obj
 0002:0000e8c8       ??_C@_1FK@BEOGODMC@?$AAR?$AA6?$AA0?$AA1?$AA7?$AA?$AN?$AA?6?$AA?9?$AA?5?$AAu?$AAn?$AAe?$AAx?$AAp?$AAe?$AAc?$AAt?$AAe?$AAd?$AA?5?$AAm?$AAu?$AAl?$AAt?$AAi?$AAt?$AAh?$AAr?$AAe?$AAa?$AAd?$AA?5@ 100458c8     LIBCMT:crt0msg.obj
 0002:0000e928       ??_C@_1EC@JIBHAOPH@?$AAR?$AA6?$AA0?$AA1?$AA8?$AA?$AN?$AA?6?$AA?9?$AA?5?$AAu?$AAn?$AAe?$AAx?$AAp?$AAe?$AAc?$AAt?$AAe?$AAd?$AA?5?$AAh?$AAe?$AAa?$AAp?$AA?5?$AAe?$AAr?$AAr?$AAo?$AAr?$AA?$AN?$AA?6@ 10045928     LIBCMT:crt0msg.obj
 0002:0000e970       ??_C@_1FC@ECHBIFBC@?$AAR?$AA6?$AA0?$AA1?$AA9?$AA?$AN?$AA?6?$AA?9?$AA?5?$AAu?$AAn?$AAa?$AAb?$AAl?$AAe?$AA?5?$AAt?$AAo?$AA?5?$AAo?$AAp?$AAe?$AAn?$AA?5?$AAc?$AAo?$AAn?$AAs?$AAo?$AAl?$AAe?$AA?5@ 10045970     LIBCMT:crt0msg.obj
 0002:0000e9c8       ??_C@_1GK@FHCKBEFA@?$AAR?$AA6?$AA0?$AA2?$AA4?$AA?$AN?$AA?6?$AA?9?$AA?5?$AAn?$AAo?$AAt?$AA?5?$AAe?$AAn?$AAo?$AAu?$AAg?$AAh?$AA?5?$AAs?$AAp?$AAa?$AAc?$AAe?$AA?5?$AAf?$AAo?$AAr?$AA?5?$AA_?$AAo@ 100459c8     LIBCMT:crt0msg.obj
 0002:0000ea38       ??_C@_1EM@MAADIHMB@?$AAR?$AA6?$AA0?$AA2?$AA5?$AA?$AN?$AA?6?$AA?9?$AA?5?$AAp?$AAu?$AAr?$AAe?$AA?5?$AAv?$AAi?$AAr?$AAt?$AAu?$AAa?$AAl?$AA?5?$AAf?$AAu?$AAn?$AAc?$AAt?$AAi?$AAo?$AAn?$AA?5?$AAc@ 10045a38     LIBCMT:crt0msg.obj
 0002:0000ea88       ??_C@_1GK@MCAAGJMO@?$AAR?$AA6?$AA0?$AA2?$AA6?$AA?$AN?$AA?6?$AA?9?$AA?5?$AAn?$AAo?$AAt?$AA?5?$AAe?$AAn?$AAo?$AAu?$AAg?$AAh?$AA?5?$AAs?$AAp?$AAa?$AAc?$AAe?$AA?5?$AAf?$AAo?$AAr?$AA?5?$AAs?$AAt@ 10045a88     LIBCMT:crt0msg.obj
 0002:0000eaf8       ??_C@_1GK@MFGOKLAG@?$AAR?$AA6?$AA0?$AA2?$AA7?$AA?$AN?$AA?6?$AA?9?$AA?5?$AAn?$AAo?$AAt?$AA?5?$AAe?$AAn?$AAo?$AAu?$AAg?$AAh?$AA?5?$AAs?$AAp?$AAa?$AAc?$AAe?$AA?5?$AAf?$AAo?$AAr?$AA?5?$AAl?$AAo@ 10045af8     LIBCMT:crt0msg.obj
 0002:0000eb68       ??_C@_1EK@HHFLMAOL@?$AAR?$AA6?$AA0?$AA2?$AA8?$AA?$AN?$AA?6?$AA?9?$AA?5?$AAu?$AAn?$AAa?$AAb?$AAl?$AAe?$AA?5?$AAt?$AAo?$AA?5?$AAi?$AAn?$AAi?$AAt?$AAi?$AAa?$AAl?$AAi?$AAz?$AAe?$AA?5?$AAh?$AAe@ 10045b68     LIBCMT:crt0msg.obj
 0002:0000ebb4       ??_C@_1DO@BMFCDCD@?$AAR?$AA6?$AA0?$AA3?$AA0?$AA?$AN?$AA?6?$AA?9?$AA?5?$AAC?$AAR?$AAT?$AA?5?$AAn?$AAo?$AAt?$AA?5?$AAi?$AAn?$AAi?$AAt?$AAi?$AAa?$AAl?$AAi?$AAz?$AAe?$AAd?$AA?$AN?$AA?6?$AA?$AA@ 10045bb4     LIBCMT:crt0msg.obj
 0002:0000ebf8       ??_C@_1MG@ENCOOIDF@?$AAR?$AA6?$AA0?$AA3?$AA1?$AA?$AN?$AA?6?$AA?9?$AA?5?$AAA?$AAt?$AAt?$AAe?$AAm?$AAp?$AAt?$AA?5?$AAt?$AAo?$AA?5?$AAi?$AAn?$AAi?$AAt?$AAi?$AAa?$AAl?$AAi?$AAz?$AAe?$AA?5?$AAt@ 10045bf8     LIBCMT:crt0msg.obj
 0002:0000ecc0       ??_C@_1GG@GOPILAJP@?$AAR?$AA6?$AA0?$AA3?$AA2?$AA?$AN?$AA?6?$AA?9?$AA?5?$AAn?$AAo?$AAt?$AA?5?$AAe?$AAn?$AAo?$AAu?$AAg?$AAh?$AA?5?$AAs?$AAp?$AAa?$AAc?$AAe?$AA?5?$AAf?$AAo?$AAr?$AA?5?$AAl?$AAo@ 10045cc0     LIBCMT:crt0msg.obj
 0002:0000ed28       ??_C@_1BOO@KGEDBGAJ@?$AAR?$AA6?$AA0?$AA3?$AA3?$AA?$AN?$AA?6?$AA?9?$AA?5?$AAA?$AAt?$AAt?$AAe?$AAm?$AAp?$AAt?$AA?5?$AAt?$AAo?$AA?5?$AAu?$AAs?$AAe?$AA?5?$AAM?$AAS?$AAI?$AAL?$AA?5?$AAc?$AAo?$AAd@ 10045d28     LIBCMT:crt0msg.obj
 0002:0000ef18       ??_C@_1GG@MKFPEKFO@?$AAR?$AA6?$AA0?$AA3?$AA4?$AA?$AN?$AA?6?$AA?9?$AA?5?$AAi?$AAn?$AAc?$AAo?$AAn?$AAs?$AAi?$AAs?$AAt?$AAe?$AAn?$AAt?$AA?5?$AAo?$AAn?$AAe?$AAx?$AAi?$AAt?$AA?5?$AAb?$AAe?$AAg@ 10045f18     LIBCMT:crt0msg.obj
 0002:0000ef80       ??_C@_1BO@BFCDCGC@?$AAD?$AAO?$AAM?$AAA?$AAI?$AAN?$AA?5?$AAe?$AAr?$AAr?$AAo?$AAr?$AA?$AN?$AA?6?$AA?$AA@ 10045f80     LIBCMT:crt0msg.obj
 0002:0000efa0       ??_C@_1BK@KMOMNAAI@?$AAS?$AAI?$AAN?$AAG?$AA?5?$AAe?$AAr?$AAr?$AAo?$AAr?$AA?$AN?$AA?6?$AA?$AA@ 10045fa0     LIBCMT:crt0msg.obj
 0002:0000efbc       ??_C@_1BM@JBBEPPHI@?$AAT?$AAL?$AAO?$AAS?$AAS?$AA?5?$AAe?$AAr?$AAr?$AAo?$AAr?$AA?$AN?$AA?6?$AA?$AA@ 10045fbc     LIBCMT:crt0msg.obj
 0002:0000efd8       ??_C@_15JNBOKNOG@?$AA?$AN?$AA?6?$AA?$AA@ 10045fd8     LIBCMT:crt0msg.obj
 0002:0000efe0       ??_C@_1BO@BKOMIGKJ@?$AAr?$AAu?$AAn?$AAt?$AAi?$AAm?$AAe?$AA?5?$AAe?$AAr?$AAr?$AAo?$AAr?$AA?5?$AA?$AA@ 10045fe0     LIBCMT:crt0msg.obj
 0002:0000f0b8       ??_C@_1FK@PGACCAFB@?$AAR?$AA6?$AA0?$AA0?$AA2?$AA?$AN?$AA?6?$AA?9?$AA?5?$AAf?$AAl?$AAo?$AAa?$AAt?$AAi?$AAn?$AAg?$AA?5?$AAp?$AAo?$AAi?$AAn?$AAt?$AA?5?$AAs?$AAu?$AAp?$AAp?$AAo?$AAr?$AAt?$AA?5@ 100460b8     LIBCMT:crt0msg.obj
 0002:0000f114       ??_C@_1DE@JNGNBFGO@?$AAR?$AAu?$AAn?$AAt?$AAi?$AAm?$AAe?$AA?5?$AAE?$AAr?$AAr?$AAo?$AAr?$AA?$CB?$AA?6?$AA?6?$AAP?$AAr?$AAo?$AAg?$AAr?$AAa?$AAm?$AA?3?$AA?5?$AA?$AA@ 10046114     LIBCMT:crt0msg.obj
 0002:0000f148       ??_C@_1CO@EAEJAADC@?$AA?$DM?$AAp?$AAr?$AAo?$AAg?$AAr?$AAa?$AAm?$AA?5?$AAn?$AAa?$AAm?$AAe?$AA?5?$AAu?$AAn?$AAk?$AAn?$AAo?$AAw?$AAn?$AA?$DO?$AA?$AA@ 10046148     LIBCMT:crt0msg.obj
 0002:0000f178       ??_C@_17LGKOMLJ@?$AA?4?$AA?4?$AA?4?$AA?$AA@ 10046178     LIBCMT:crt0msg.obj
 0002:0000f180       ??_C@_15IABLJNFO@?$AA?6?$AA?6?$AA?$AA@ 10046180     LIBCMT:crt0msg.obj
 0002:0000f188       ??_C@_1EK@MBDPDCGA@?$AAM?$AAi?$AAc?$AAr?$AAo?$AAs?$AAo?$AAf?$AAt?$AA?5?$AAV?$AAi?$AAs?$AAu?$AAa?$AAl?$AA?5?$AAC?$AA?$CL?$AA?$CL?$AA?5?$AAR?$AAu?$AAn?$AAt?$AAi?$AAm?$AAe?$AA?5?$AAL?$AAi?$AAb@ 10046188     LIBCMT:crt0msg.obj
 0002:0000f1d4       ??_C@_03KOEHGMDN@Sun?$AA@  100461d4     LIBCMT:nlsdata.obj
 0002:0000f1d8       ??_C@_03PDAGKDH@Mon?$AA@   100461d8     LIBCMT:nlsdata.obj
 0002:0000f1dc       ??_C@_03NAGEINEP@Tue?$AA@  100461dc     LIBCMT:nlsdata.obj
 0002:0000f1e0       ??_C@_03MHOMLAJA@Wed?$AA@  100461e0     LIBCMT:nlsdata.obj
 0002:0000f1e4       ??_C@_03IOFIKPDN@Thu?$AA@  100461e4     LIBCMT:nlsdata.obj
 0002:0000f1e8       ??_C@_03IDIOELNC@Fri?$AA@  100461e8     LIBCMT:nlsdata.obj
 0002:0000f1ec       ??_C@_03FEFJNEK@Sat?$AA@   100461ec     LIBCMT:nlsdata.obj
 0002:0000f1f0       ??_C@_06OOPIFAJ@Sunday?$AA@ 100461f0     LIBCMT:nlsdata.obj
 0002:0000f1f8       ??_C@_06JLEDEDGH@Monday?$AA@ 100461f8     LIBCMT:nlsdata.obj
 0002:0000f200       ??_C@_07BAAGCFCM@Tuesday?$AA@ 10046200     LIBCMT:nlsdata.obj
 0002:0000f208       ??_C@_09DLIGFAKA@Wednesday?$AA@ 10046208     LIBCMT:nlsdata.obj
 0002:0000f214       ??_C@_08HACCIKIA@Thursday?$AA@ 10046214     LIBCMT:nlsdata.obj
 0002:0000f220       ??_C@_06JECMNKMI@Friday?$AA@ 10046220     LIBCMT:nlsdata.obj
 0002:0000f228       ??_C@_08INBOOONO@Saturday?$AA@ 10046228     LIBCMT:nlsdata.obj
 0002:0000f234       ??_C@_03JIHJHPIE@Jan?$AA@  10046234     LIBCMT:nlsdata.obj
 0002:0000f238       ??_C@_03HJBDCHOM@Feb?$AA@  10046238     LIBCMT:nlsdata.obj
 0002:0000f23c       ??_C@_03ODNJBKGA@Mar?$AA@  1004623c     LIBCMT:nlsdata.obj
 0002:0000f240       ??_C@_03LEOLGMJP@Apr?$AA@  10046240     LIBCMT:nlsdata.obj
 0002:0000f244       ??_C@_03CNMDKL@May?$AA@    10046244     LIBCMT:nlsdata.obj
 0002:0000f248       ??_C@_03IDFGHECI@Jun?$AA@  10046248     LIBCMT:nlsdata.obj
 0002:0000f24c       ??_C@_03LBGABGKK@Jul?$AA@  1004624c     LIBCMT:nlsdata.obj
 0002:0000f250       ??_C@_03IFJFEIGA@Aug?$AA@  10046250     LIBCMT:nlsdata.obj
 0002:0000f254       ??_C@_03GGCAPAJC@Sep?$AA@  10046254     LIBCMT:nlsdata.obj
 0002:0000f258       ??_C@_03BMAOKBAD@Oct?$AA@  10046258     LIBCMT:nlsdata.obj
 0002:0000f25c       ??_C@_03JPJOFNIA@Nov?$AA@  1004625c     LIBCMT:nlsdata.obj
 0002:0000f260       ??_C@_03MKABNOCG@Dec?$AA@  10046260     LIBCMT:nlsdata.obj
 0002:0000f264       ??_C@_07CGJPFGJA@January?$AA@ 10046264     LIBCMT:nlsdata.obj
 0002:0000f26c       ??_C@_08GNJGEPFN@February?$AA@ 1004626c     LIBCMT:nlsdata.obj
 0002:0000f278       ??_C@_05HPCKOFNC@March?$AA@ 10046278     LIBCMT:nlsdata.obj
 0002:0000f280       ??_C@_05DMJDNLEJ@April?$AA@ 10046280     LIBCMT:nlsdata.obj
 0002:0000f288       ??_C@_04CNLMGBGM@June?$AA@ 10046288     LIBCMT:nlsdata.obj
 0002:0000f290       ??_C@_04MIEPOIFP@July?$AA@ 10046290     LIBCMT:nlsdata.obj
 0002:0000f298       ??_C@_06LBBHFDDG@August?$AA@ 10046298     LIBCMT:nlsdata.obj
 0002:0000f2a0       ??_C@_09BHHEALKD@September?$AA@ 100462a0     LIBCMT:nlsdata.obj
 0002:0000f2ac       ??_C@_07JJNFCEND@October?$AA@ 100462ac     LIBCMT:nlsdata.obj
 0002:0000f2b4       ??_C@_08HCHEGEOA@November?$AA@ 100462b4     LIBCMT:nlsdata.obj
 0002:0000f2c0       ??_C@_08EDHMEBNP@December?$AA@ 100462c0     LIBCMT:nlsdata.obj
 0002:0000f2cc       ??_C@_02DEDBPAFC@AM?$AA@   100462cc     LIBCMT:nlsdata.obj
 0002:0000f2d0       ??_C@_02CJNFDJBF@PM?$AA@   100462d0     LIBCMT:nlsdata.obj
 0002:0000f2d4       ??_C@_08BPBNCDIB@MM?1dd?1yy?$AA@ 100462d4     LIBCMT:nlsdata.obj
 0002:0000f2e0       ??_C@_0BE@CKGJFCPC@dddd?0?5MMMM?5dd?0?5yyyy?$AA@ 100462e0     LIBCMT:nlsdata.obj
 0002:0000f2f4       ??_C@_08JCCMCCIL@HH?3mm?3ss?$AA@ 100462f4     LIBCMT:nlsdata.obj
 0002:0000f300       ??_C@_17MBGCMIPB@?$AAS?$AAu?$AAn?$AA?$AA@ 10046300     LIBCMT:nlsdata.obj
 0002:0000f308       ??_C@_17KBOMKBF@?$AAM?$AAo?$AAn?$AA?$AA@ 10046308     LIBCMT:nlsdata.obj
 0002:0000f310       ??_C@_17BMKGEGOJ@?$AAT?$AAu?$AAe?$AA?$AA@ 10046310     LIBCMT:nlsdata.obj
 0002:0000f318       ??_C@_17CJEDCEPE@?$AAW?$AAe?$AAd?$AA?$AA@ 10046318     LIBCMT:nlsdata.obj
 0002:0000f320       ??_C@_17PDPHAADD@?$AAT?$AAh?$AAu?$AA?$AA@ 10046320     LIBCMT:nlsdata.obj
 0002:0000f328       ??_C@_17HFOLPPLP@?$AAF?$AAr?$AAi?$AA?$AA@ 10046328     LIBCMT:nlsdata.obj
 0002:0000f330       ??_C@_17GGIBDPIH@?$AAS?$AAa?$AAt?$AA?$AA@ 10046330     LIBCMT:nlsdata.obj
 0002:0000f338       ??_C@_1O@IHNHDHPB@?$AAS?$AAu?$AAn?$AAd?$AAa?$AAy?$AA?$AA@ 10046338     LIBCMT:nlsdata.obj
 0002:0000f348       ??_C@_1O@MMNBFLIA@?$AAM?$AAo?$AAn?$AAd?$AAa?$AAy?$AA?$AA@ 10046348     LIBCMT:nlsdata.obj
 0002:0000f358       ??_C@_1BA@ENFBFFEK@?$AAT?$AAu?$AAe?$AAs?$AAd?$AAa?$AAy?$AA?$AA@ 10046358     LIBCMT:nlsdata.obj
 0002:0000f368       ??_C@_1BE@EBOGMDOH@?$AAW?$AAe?$AAd?$AAn?$AAe?$AAs?$AAd?$AAa?$AAy?$AA?$AA@ 10046368     LIBCMT:nlsdata.obj
 0002:0000f37c       ??_C@_1BC@HHMNLIHE@?$AAT?$AAh?$AAu?$AAr?$AAs?$AAd?$AAa?$AAy?$AA?$AA@ 1004637c     LIBCMT:nlsdata.obj
 0002:0000f390       ??_C@_1O@PDICJHAG@?$AAF?$AAr?$AAi?$AAd?$AAa?$AAy?$AA?$AA@ 10046390     LIBCMT:nlsdata.obj
 0002:0000f3a0       ??_C@_1BC@ENMNNPAJ@?$AAS?$AAa?$AAt?$AAu?$AAr?$AAd?$AAa?$AAy?$AA?$AA@ 100463a0     LIBCMT:nlsdata.obj
 0002:0000f3b4       ??_C@_17DKNBKCHM@?$AAJ?$AAa?$AAn?$AA?$AA@ 100463b4     LIBCMT:nlsdata.obj
 0002:0000f3bc       ??_C@_17LMDJEKJN@?$AAF?$AAe?$AAb?$AA?$AA@ 100463bc     LIBCMT:nlsdata.obj
 0002:0000f3c4       ??_C@_17CKNLEDEC@?$AAM?$AAa?$AAr?$AA?$AA@ 100463c4     LIBCMT:nlsdata.obj
 0002:0000f3cc       ??_C@_17LFPOIHDD@?$AAA?$AAp?$AAr?$AA?$AA@ 100463cc     LIBCMT:nlsdata.obj
 0002:0000f3d4       ??_C@_17PNNKMEED@?$AAM?$AAa?$AAy?$AA?$AA@ 100463d4     LIBCMT:nlsdata.obj
 0002:0000f3dc       ??_C@_17KCJGOCPB@?$AAJ?$AAu?$AAn?$AA?$AA@ 100463dc     LIBCMT:nlsdata.obj
 0002:0000f3e4       ??_C@_17IJPCKHK@?$AAJ?$AAu?$AAl?$AA?$AA@ 100463e4     LIBCMT:nlsdata.obj
 0002:0000f3ec       ??_C@_17ICPELBCN@?$AAA?$AAu?$AAg?$AA?$AA@ 100463ec     LIBCMT:nlsdata.obj
 0002:0000f3f4       ??_C@_17HCHCOKMG@?$AAS?$AAe?$AAp?$AA?$AA@ 100463f4     LIBCMT:nlsdata.obj
 0002:0000f3fc       ??_C@_17FNLKOI@?$AAO?$AAc?$AAt?$AA?$AA@ 100463fc     LIBCMT:nlsdata.obj
 0002:0000f404       ??_C@_17BBDMLCIG@?$AAN?$AAo?$AAv?$AA?$AA@ 10046404     LIBCMT:nlsdata.obj
 0002:0000f40c       ??_C@_17EGKACKIF@?$AAD?$AAe?$AAc?$AA?$AA@ 1004640c     LIBCMT:nlsdata.obj
 0002:0000f414       ??_C@_1BA@EFMEIEBA@?$AAJ?$AAa?$AAn?$AAu?$AAa?$AAr?$AAy?$AA?$AA@ 10046414     LIBCMT:nlsdata.obj
 0002:0000f424       ??_C@_1BC@JGDDFFAM@?$AAF?$AAe?$AAb?$AAr?$AAu?$AAa?$AAr?$AAy?$AA?$AA@ 10046424     LIBCMT:nlsdata.obj
 0002:0000f438       ??_C@_1M@IKEENEDF@?$AAM?$AAa?$AAr?$AAc?$AAh?$AA?$AA@ 10046438     LIBCMT:nlsdata.obj
 0002:0000f444       ??_C@_1M@GJNLMHFD@?$AAA?$AAp?$AAr?$AAi?$AAl?$AA?$AA@ 10046444     LIBCMT:nlsdata.obj
 0002:0000f450       ??_C@_19EPFLPGAP@?$AAJ?$AAu?$AAn?$AAe?$AA?$AA@ 10046450     LIBCMT:nlsdata.obj
 0002:0000f45c       ??_C@_19BIFMLPCD@?$AAJ?$AAu?$AAl?$AAy?$AA?$AA@ 1004645c     LIBCMT:nlsdata.obj
 0002:0000f468       ??_C@_1O@PAHLKOAC@?$AAA?$AAu?$AAg?$AAu?$AAs?$AAt?$AA?$AA@ 10046468     LIBCMT:nlsdata.obj
 0002:0000f478       ??_C@_1BE@DKAAMBJL@?$AAS?$AAe?$AAp?$AAt?$AAe?$AAm?$AAb?$AAe?$AAr?$AA?$AA@ 10046478     LIBCMT:nlsdata.obj
 0002:0000f48c       ??_C@_1BA@EPANDLNG@?$AAO?$AAc?$AAt?$AAo?$AAb?$AAe?$AAr?$AA?$AA@ 1004648c     LIBCMT:nlsdata.obj
 0002:0000f49c       ??_C@_1BC@BGLIFPF@?$AAN?$AAo?$AAv?$AAe?$AAm?$AAb?$AAe?$AAr?$AA?$AA@ 1004649c     LIBCMT:nlsdata.obj
 0002:0000f4b0       ??_C@_1BC@FEMKIFH@?$AAD?$AAe?$AAc?$AAe?$AAm?$AAb?$AAe?$AAr?$AA?$AA@ 100464b0     LIBCMT:nlsdata.obj
 0002:0000f4c4       ??_C@_15ODEHAHHF@?$AAA?$AAM?$AA?$AA@ 100464c4     LIBCMT:nlsdata.obj
 0002:0000f4cc       ??_C@_15CLMNNGEL@?$AAP?$AAM?$AA?$AA@ 100464cc     LIBCMT:nlsdata.obj
 0002:0000f4d4       ??_C@_1BC@IEBCMHCM@?$AAM?$AAM?$AA?1?$AAd?$AAd?$AA?1?$AAy?$AAy?$AA?$AA@ 100464d4     LIBCMT:nlsdata.obj
 0002:0000f4e8       ??_C@_1CI@KNAKOEBC@?$AAd?$AAd?$AAd?$AAd?$AA?0?$AA?5?$AAM?$AAM?$AAM?$AAM?$AA?5?$AAd?$AAd?$AA?0?$AA?5?$AAy?$AAy?$AAy?$AAy?$AA?$AA@ 100464e8     LIBCMT:nlsdata.obj
 0002:0000f510       ??_C@_1BC@GDGBMEMK@?$AAH?$AAH?$AA?3?$AAm?$AAm?$AA?3?$AAs?$AAs?$AA?$AA@ 10046510     LIBCMT:nlsdata.obj
 0002:0000f544       ??_C@_04COOMCNPB@sinh?$AA@ 10046544     LIBCMT:fpexcept.obj
 0002:0000f54c       ??_C@_04HPJJNFIM@cosh?$AA@ 1004654c     LIBCMT:fpexcept.obj
 0002:0000f554       ??_C@_04FJHINJAO@tanh?$AA@ 10046554     LIBCMT:fpexcept.obj
 0002:0000f55c       ??_C@_05KNGEOGJB@atan2?$AA@ 1004655c     LIBCMT:fpexcept.obj
 0002:0000f564       ??_C@_04ODHECPBC@fabs?$AA@ 10046564     LIBCMT:fpexcept.obj
 0002:0000f56c       ??_C@_05CEJMAHNP@ldexp?$AA@ 1004656c     LIBCMT:fpexcept.obj
 0002:0000f574       ??_C@_05KBKMEMPO@_cabs?$AA@ 10046574     LIBCMT:fpexcept.obj
 0002:0000f57c       ??_C@_06MEIMCGCF@_hypot?$AA@ 1004657c     LIBCMT:fpexcept.obj
 0002:0000f584       ??_C@_04KEPJIHGP@fmod?$AA@ 10046584     LIBCMT:fpexcept.obj
 0002:0000f58c       ??_C@_05GKKHEGJL@frexp?$AA@ 1004658c     LIBCMT:fpexcept.obj
 0002:0000f594       ??_C@_03MJLDFKDL@_y0?$AA@  10046594     LIBCMT:fpexcept.obj
 0002:0000f598       ??_C@_03NAKIGLHK@_y1?$AA@  10046598     LIBCMT:fpexcept.obj
 0002:0000f59c       ??_C@_03ONILCKOB@_yn?$AA@  1004659c     LIBCMT:fpexcept.obj
 0002:0000f5a0       ??_C@_05JGDBENOH@_logb?$AA@ 100465a0     LIBCMT:fpexcept.obj
 0002:0000f5a8       ??_C@_0L@KDOEJCKC@_nextafter?$AA@ 100465a8     LIBCMT:fpexcept.obj
 0002:0000f5c0       __OP_ATAN2jmptab           100465c0     LIBCMT:87triga.obj
 0002:0000f640       __atan_table               10046640     LIBCMT:atan_table.obj
 0002:00010e50       __XcptActTab               10047e50     LIBCMT:winxfltr.obj
 0002:00010ee0       __XcptActTabCount          10047ee0     LIBCMT:winxfltr.obj
 0002:00010ee4       __XcptActTabSize           10047ee4     LIBCMT:winxfltr.obj
 0002:00010ee8       __First_FPE_Indx           10047ee8     LIBCMT:winxfltr.obj
 0002:00010eec       __Num_FPE                  10047eec     LIBCMT:winxfltr.obj
 0002:00010ef0       __indefinite               10047ef0     LIBCMT:87disp.obj
 0002:00010efa       __piby2                    10047efa     LIBCMT:87disp.obj
 0002:00010f28       __DEFAULT_CW_in_mem        10047f28     LIBCMT:common.obj
 0002:00010f2a       __pi_by_2_to_61            10047f2a     LIBCMT:common.obj
 0002:00016778       ___lc_category             1004d778     LIBCMT:wsetloca.obj
 0002:000167c0       ??_C@_1O@GIFLHMA@?$AAL?$AAC?$AA_?$AAA?$AAL?$AAL?$AA?$AA@ 1004d7c0     LIBCMT:wsetloca.obj
 0002:000167d0       ??_C@_1BG@PPOMIBNJ@?$AAL?$AAC?$AA_?$AAC?$AAO?$AAL?$AAL?$AAA?$AAT?$AAE?$AA?$AA@ 1004d7d0     LIBCMT:wsetloca.obj
 0002:000167e8       ??_C@_1BC@FFJGAPJM@?$AAL?$AAC?$AA_?$AAC?$AAT?$AAY?$AAP?$AAE?$AA?$AA@ 1004d7e8     LIBCMT:wsetloca.obj
 0002:000167fc       ??_C@_1BI@PCKFNJFB@?$AAL?$AAC?$AA_?$AAM?$AAO?$AAN?$AAE?$AAT?$AAA?$AAR?$AAY?$AA?$AA@ 1004d7fc     LIBCMT:wsetloca.obj
 0002:00016814       ??_C@_1BG@ENIEDKID@?$AAL?$AAC?$AA_?$AAN?$AAU?$AAM?$AAE?$AAR?$AAI?$AAC?$AA?$AA@ 1004d814     LIBCMT:wsetloca.obj
 0002:0001682c       ??_C@_1BA@HAAOMIIG@?$AAL?$AAC?$AA_?$AAT?$AAI?$AAM?$AAE?$AA?$AA@ 1004d82c     LIBCMT:wsetloca.obj
 0002:000168c0       ??_C@_15NBPDDFIP@?$AA?$DN?$AA?$DL?$AA?$AA@ 1004d8c0     LIBCMT:wsetloca.obj
 0002:000168c8       ??_C@_13PJJBFPED@?$AA?$DL?$AA?$AA@ 1004d8c8     LIBCMT:wsetloca.obj
 0002:000168cc       ??_C@_13NMPKAAJP@?$AA?$DN?$AA?$AA@ 1004d8cc     LIBCMT:wsetloca.obj
 0002:000168d0       ??_C@_13FHBKNHDA@?$AAC?$AA?$AA@ 1004d8d0     LIBCMT:wsetloca.obj
 0002:000168d4       ??_C@_17MBJJLFDM@?$AA_?$AA?4?$AA?0?$AA?$AA@ 1004d8d4     LIBCMT:wsetloca.obj
 0002:000168dc       ??_C@_13ENNFDPBH@?$AA_?$AA?$AA@ 1004d8dc     LIBCMT:wsetloca.obj
 0002:000168e0       ??_C@_13JOFGPIOO@?$AA?4?$AA?$AA@ 1004d8e0     LIBCMT:wsetloca.obj
 0002:0001691c       ___dnames                  1004d91c     LIBCMT:timeset.obj
 0002:00016934       ___mnames                  1004d934     LIBCMT:timeset.obj
 0002:00016960       ___lookuptable_s           1004d960     LIBCMT:outputs.obj
 0002:00016ec0       __infinity                 1004dec0     LIBCMT:87tran.obj
 0002:00016eca       __minfinity                1004deca     LIBCMT:87tran.obj
 0002:00016ed4       __logemax                  1004ded4     LIBCMT:87tran.obj
 0002:00016efa       __OP_EXPjmptab             1004defa     LIBCMT:87tran.obj
 0002:00016f1c       ??_C@_1BG@GOEBHBDC@?$AAU?$AAS?$AAE?$AAR?$AA3?$AA2?$AA?4?$AAD?$AAL?$AAL?$AA?$AA@ 1004df1c     LIBCMT:crtmboxw.obj
 0002:00016f34       ??_C@_0M@DLDCCGNP@MessageBoxW?$AA@ 1004df34     LIBCMT:crtmboxw.obj
 0002:00016f40       ??_C@_0BA@HNOPNCHB@GetActiveWindow?$AA@ 1004df40     LIBCMT:crtmboxw.obj
 0002:00016f50       ??_C@_0BD@HHGDFDBJ@GetLastActivePopup?$AA@ 1004df50     LIBCMT:crtmboxw.obj
 0002:00016f64       ??_C@_0BK@DEKFELLI@GetUserObjectInformationW?$AA@ 1004df64     LIBCMT:crtmboxw.obj
 0002:00016f80       ??_C@_0BI@DFKBFLJE@GetProcessWindowStation?$AA@ 1004df80     LIBCMT:crtmboxw.obj
 0002:00017120       ??_C@_08EHJDFFNH@__based?$CI?$AA@ 1004e120     LIBCMT:undname.obj
 0002:0001712c       ??_C@_07KOLFKCDI@__cdecl?$AA@ 1004e12c     LIBCMT:undname.obj
 0002:00017134       ??_C@_08GHMPAG@__pascal?$AA@ 1004e134     LIBCMT:undname.obj
 0002:00017140       ??_C@_09IFJBGAPI@__stdcall?$AA@ 1004e140     LIBCMT:undname.obj
 0002:0001714c       ??_C@_0L@NPHFGOKO@__thiscall?$AA@ 1004e14c     LIBCMT:undname.obj
 0002:00017158       ??_C@_0L@JMKHOMEK@__fastcall?$AA@ 1004e158     LIBCMT:undname.obj
 0002:00017164       ??_C@_09HIJEGCPM@__clrcall?$AA@ 1004e164     LIBCMT:undname.obj
 0002:00017170       ??_C@_06GHPCKEAG@__eabi?$AA@ 1004e170     LIBCMT:undname.obj
 0002:00017178       ??_C@_07JOMMBBKO@__ptr64?$AA@ 1004e178     LIBCMT:undname.obj
 0002:00017180       ??_C@_0L@PILCLIHE@__restrict?$AA@ 1004e180     LIBCMT:undname.obj
 0002:0001718c       ??_C@_0M@GFIIJFMG@__unaligned?$AA@ 1004e18c     LIBCMT:undname.obj
 0002:00017198       ??_C@_09DHDLOLLB@restrict?$CI?$AA@ 1004e198     LIBCMT:undname.obj
 0002:000171a4       ??_C@_04NIHEBCM@?5new?$AA@ 1004e1a4     LIBCMT:undname.obj
 0002:000171ac       ??_C@_07FPCDHGMM@?5delete?$AA@ 1004e1ac     LIBCMT:undname.obj
 0002:000171b4       ??_C@_01NEMOKFLO@?$DN?$AA@ 1004e1b4     LIBCMT:undname.obj
 0002:000171b8       ??_C@_02GPIOPFAK@?$DO?$DO?$AA@ 1004e1b8     LIBCMT:undname.obj
 0002:000171bc       ??_C@_02FODMEDOG@?$DM?$DM?$AA@ 1004e1bc     LIBCMT:undname.obj
 0002:000171c0       ??_C@_01DCLJPIOD@?$CB?$AA@ 1004e1c0     LIBCMT:undname.obj
 0002:000171c4       ??_C@_02EGOFBIJA@?$DN?$DN?$AA@ 1004e1c4     LIBCMT:undname.obj
 0002:000171c8       ??_C@_02FDNJECIE@?$CB?$DN?$AA@ 1004e1c8     LIBCMT:undname.obj
 0002:000171cc       ??_C@_02GPECMEKF@?$FL?$FN?$AA@ 1004e1cc     LIBCMT:undname.obj
 0002:000171d0       ??_C@_08LHJFAFGD@operator?$AA@ 1004e1d0     LIBCMT:undname.obj
 0002:000171dc       ??_C@_02HBOOOICD@?9?$DO?$AA@ 1004e1dc     LIBCMT:undname.obj
 0002:000171e0       ??_C@_02ECNGHCIF@?$CL?$CL?$AA@ 1004e1e0     LIBCMT:undname.obj
 0002:000171e4       ??_C@_02BAABKJLB@?9?9?$AA@ 1004e1e4     LIBCMT:undname.obj
 0002:000171e8       ??_C@_01MIFGBAGJ@?$CL?$AA@ 1004e1e8     LIBCMT:undname.obj
 0002:000171ec       ??_C@_01HNPIGOCE@?$CG?$AA@ 1004e1ec     LIBCMT:undname.obj
 0002:000171f0       ??_C@_03MNHNFDLC@?9?$DO?$CK?$AA@ 1004e1f0     LIBCMT:undname.obj
 0002:000171f4       ??_C@_01KMDKNFGN@?1?$AA@   1004e1f4     LIBCMT:undname.obj
 0002:000171f8       ??_C@_01FGNFDNOH@?$CF?$AA@ 1004e1f8     LIBCMT:undname.obj
 0002:000171fc       ??_C@_01MNNFJEPP@?$DM?$AA@ 1004e1fc     LIBCMT:undname.obj
 0002:00017200       ??_C@_02EHCHHCKH@?$DM?$DN?$AA@ 1004e200     LIBCMT:undname.obj
 0002:00017204       ??_C@_01PPODPGHN@?$DO?$AA@ 1004e204     LIBCMT:undname.obj
 0002:00017208       ??_C@_02EEKDKGMJ@?$DO?$DN?$AA@ 1004e208     LIBCMT:undname.obj
 0002:0001720c       ??_C@_01IHBHIGKO@?0?$AA@   1004e20c     LIBCMT:undname.obj
 0002:00017210       ??_C@_02HCKGKOFO@?$CI?$CJ?$AA@ 1004e210     LIBCMT:undname.obj
 0002:00017214       ??_C@_01PJKLJHI@?$HO?$AA@  1004e214     LIBCMT:undname.obj
 0002:00017218       ??_C@_01JKBOJNNK@?$FO?$AA@ 1004e218     LIBCMT:undname.obj
 0002:0001721c       ??_C@_01DNKMNLPK@?$HM?$AA@ 1004e21c     LIBCMT:undname.obj
 0002:00017220       ??_C@_02PPKAJPJL@?$CG?$CG?$AA@ 1004e220     LIBCMT:undname.obj
 0002:00017224       ??_C@_02NONPIBCD@?$HM?$HM?$AA@ 1004e224     LIBCMT:undname.obj
 0002:00017228       ??_C@_02FPIMKNGF@?$CK?$DN?$AA@ 1004e228     LIBCMT:undname.obj
 0002:0001722c       ??_C@_02FOEOMHFC@?$CL?$DN?$AA@ 1004e22c     LIBCMT:undname.obj
 0002:00017230       ??_C@_02FKMDLLOA@?9?$DN?$AA@ 1004e230     LIBCMT:undname.obj
 0002:00017234       ??_C@_02FJEHGPIO@?1?$DN?$AA@ 1004e234     LIBCMT:undname.obj
 0002:00017238       ??_C@_02FENAOKFI@?$CF?$DN?$AA@ 1004e238     LIBCMT:undname.obj
 0002:0001723c       ??_C@_03IKFCCPFF@?$DO?$DO?$DN?$AA@ 1004e23c     LIBCMT:undname.obj
 0002:00017240       ??_C@_03CDNPDDLA@?$DM?$DM?$DN?$AA@ 1004e240     LIBCMT:undname.obj
 0002:00017244       ??_C@_02FGJGFEAB@?$CG?$DN?$AA@ 1004e244     LIBCMT:undname.obj
 0002:00017248       ??_C@_02DHLNPPGH@?$HM?$DN?$AA@ 1004e248     LIBCMT:undname.obj
 0002:0001724c       ??_C@_02MHEGNOJ@?$FO?$DN?$AA@ 1004e24c     LIBCMT:undname.obj
 0002:00017250       ??_C@_09IFPLHPGF@?$GAvftable?8?$AA@ 1004e250     LIBCMT:undname.obj
 0002:0001725c       ??_C@_09BLBHBJP@?$GAvbtable?8?$AA@ 1004e25c     LIBCMT:undname.obj
 0002:00017268       ??_C@_07FEEIOKP@?$GAvcall?8?$AA@ 1004e268     LIBCMT:undname.obj
 0002:00017270       ??_C@_08LLFFHHDJ@?$GAtypeof?8?$AA@ 1004e270     LIBCMT:undname.obj
 0002:0001727c       ??_C@_0BF@KDPPACIK@?$GAlocal?5static?5guard?8?$AA@ 1004e27c     LIBCMT:undname.obj
 0002:00017294       ??_C@_08OBABFOLI@?$GAstring?8?$AA@ 1004e294     LIBCMT:undname.obj
 0002:000172a0       ??_C@_0BD@JDLKDPAB@?$GAvbase?5destructor?8?$AA@ 1004e2a0     LIBCMT:undname.obj
 0002:000172b4       ??_C@_0BN@DEGPLNFK@?$GAvector?5deleting?5destructor?8?$AA@ 1004e2b4     LIBCMT:undname.obj
 0002:000172d4       ??_C@_0BO@OBMKPJIG@?$GAdefault?5constructor?5closure?8?$AA@ 1004e2d4     LIBCMT:undname.obj
 0002:000172f4       ??_C@_0BN@IMDCHIKM@?$GAscalar?5deleting?5destructor?8?$AA@ 1004e2f4     LIBCMT:undname.obj
 0002:00017314       ??_C@_0BO@PFGOCPJJ@?$GAvector?5constructor?5iterator?8?$AA@ 1004e314     LIBCMT:undname.obj
 0002:00017334       ??_C@_0BN@LFPFMEDL@?$GAvector?5destructor?5iterator?8?$AA@ 1004e334     LIBCMT:undname.obj
 0002:00017354       ??_C@_0CE@IKBNEHA@?$GAvector?5vbase?5constructor?5iterat@ 1004e354     LIBCMT:undname.obj
 0002:00017378       ??_C@_0BL@NILFHHPC@?$GAvirtual?5displacement?5map?8?$AA@ 1004e378     LIBCMT:undname.obj
 0002:00017394       ??_C@_0CB@JONCMFFK@?$GAeh?5vector?5constructor?5iterator?8@ 1004e394     LIBCMT:undname.obj
 0002:000173b8       ??_C@_0CA@GCEOPDGL@?$GAeh?5vector?5destructor?5iterator?8?$AA@ 1004e3b8     LIBCMT:undname.obj
 0002:000173d8       ??_C@_0CH@OOJPLCPH@?$GAeh?5vector?5vbase?5constructor?5ite@ 1004e3d8     LIBCMT:undname.obj
 0002:00017400       ??_C@_0BL@LLKPOHJI@?$GAcopy?5constructor?5closure?8?$AA@ 1004e400     LIBCMT:undname.obj
 0002:0001741c       ??_C@_0BA@KBCDOMBN@?$GAudt?5returning?8?$AA@ 1004e41c     LIBCMT:undname.obj
 0002:0001742c       ??_C@_03KLGMFNMG@?$GAEH?$AA@ 1004e42c     LIBCMT:undname.obj
 0002:00017430       ??_C@_05KHLCHHI@?$GARTTI?$AA@ 1004e430     LIBCMT:undname.obj
 0002:00017438       ??_C@_0BA@KKLDJDLB@?$GAlocal?5vftable?8?$AA@ 1004e438     LIBCMT:undname.obj
 0002:00017448       ??_C@_0CE@IIHCMGGL@?$GAlocal?5vftable?5constructor?5closu@ 1004e448     LIBCMT:undname.obj
 0002:0001746c       ??_C@_06FHBGPFGH@?5new?$FL?$FN?$AA@ 1004e46c     LIBCMT:undname.obj
 0002:00017474       ??_C@_09LBNFPBCA@?5delete?$FL?$FN?$AA@ 1004e474     LIBCMT:undname.obj
 0002:00017480       ??_C@_0P@HJKNJFNN@?$GAomni?5callsig?8?$AA@ 1004e480     LIBCMT:undname.obj
 0002:00017490       ??_C@_0BL@CNOONJFP@?$GAplacement?5delete?5closure?8?$AA@ 1004e490     LIBCMT:undname.obj
 0002:000174ac       ??_C@_0BN@CKNJLHMB@?$GAplacement?5delete?$FL?$FN?5closure?8?$AA@ 1004e4ac     LIBCMT:undname.obj
 0002:000174cc       ??_C@_0CG@CFDHKGGD@?$GAmanaged?5vector?5constructor?5iter@ 1004e4cc     LIBCMT:undname.obj
 0002:000174f4       ??_C@_0CF@IMGKMJNO@?$GAmanaged?5vector?5destructor?5itera@ 1004e4f4     LIBCMT:undname.obj
 0002:0001751c       ??_C@_0CG@HLDDJMAG@?$GAeh?5vector?5copy?5constructor?5iter@ 1004e51c     LIBCMT:undname.obj
 0002:00017544       ??_C@_0CM@FCBBDIGB@?$GAeh?5vector?5vbase?5copy?5constructo@ 1004e544     LIBCMT:undname.obj
 0002:00017570       ??_C@_0BL@CLIPGLGB@?$GAdynamic?5initializer?5for?5?8?$AA@ 1004e570     LIBCMT:undname.obj
 0002:0001758c       ??_C@_0CB@PDBIFEP@?$GAdynamic?5atexit?5destructor?5for?5?8@ 1004e58c     LIBCMT:undname.obj
 0002:000175b0       ??_C@_0CD@CGAJBKEJ@?$GAvector?5copy?5constructor?5iterato@ 1004e5b0     LIBCMT:undname.obj
 0002:000175d4       ??_C@_0CJ@GJELGAMM@?$GAvector?5vbase?5copy?5constructor?5i@ 1004e5d4     LIBCMT:undname.obj
 0002:00017600       ??_C@_0CL@FGIJHLCE@?$GAmanaged?5vector?5copy?5constructor@ 1004e600     LIBCMT:undname.obj
 0002:0001762c       ??_C@_0BM@PMGGMLDN@?$GAlocal?5static?5thread?5guard?8?$AA@ 1004e62c     LIBCMT:undname.obj
 0002:00017648       ??_C@_0BC@DAFEJGAK@?5Type?5Descriptor?8?$AA@ 1004e648     LIBCMT:undname.obj
 0002:0001765c       ??_C@_0BM@LDKODKLH@?5Base?5Class?5Descriptor?5at?5?$CI?$AA@ 1004e65c     LIBCMT:undname.obj
 0002:00017678       ??_C@_0BD@LGICGFMM@?5Base?5Class?5Array?8?$AA@ 1004e678     LIBCMT:undname.obj
 0002:0001768c       ??_C@_0BN@MECKDCOJ@?5Class?5Hierarchy?5Descriptor?8?$AA@ 1004e68c     LIBCMT:undname.obj
 0002:000176ac       ??_C@_0BK@CFCOFLF@?5Complete?5Object?5Locator?8?$AA@ 1004e6ac     LIBCMT:undname.obj
 0002:0001b160       ___rg_language             10052160     LIBCMT:getqloc.obj
 0002:0001b46c       ??_C@_1BC@LLOKLNP@?$AAa?$AAm?$AAe?$AAr?$AAi?$AAc?$AAa?$AAn?$AA?$AA@ 1005246c     LIBCMT:getqloc.obj
 0002:0001b480       ??_C@_1CC@HEIGCDGG@?$AAa?$AAm?$AAe?$AAr?$AAi?$AAc?$AAa?$AAn?$AA?5?$AAe?$AAn?$AAg?$AAl?$AAi?$AAs?$AAh?$AA?$AA@ 10052480     LIBCMT:getqloc.obj
 0002:0001b4a4       ??_C@_1CC@IHCNOMIN@?$AAa?$AAm?$AAe?$AAr?$AAi?$AAc?$AAa?$AAn?$AA?9?$AAe?$AAn?$AAg?$AAl?$AAi?$AAs?$AAh?$AA?$AA@ 100524a4     LIBCMT:getqloc.obj
 0002:0001b4c8       ??_C@_1BG@GKAGPCGG@?$AAa?$AAu?$AAs?$AAt?$AAr?$AAa?$AAl?$AAi?$AAa?$AAn?$AA?$AA@ 100524c8     LIBCMT:getqloc.obj
 0002:0001b4e0       ??_C@_1BA@GMENCENF@?$AAb?$AAe?$AAl?$AAg?$AAi?$AAa?$AAn?$AA?$AA@ 100524e0     LIBCMT:getqloc.obj
 0002:0001b4f0       ??_C@_1BC@PJMIIAAN@?$AAc?$AAa?$AAn?$AAa?$AAd?$AAi?$AAa?$AAn?$AA?$AA@ 100524f0     LIBCMT:getqloc.obj
 0002:0001b504       ??_C@_17NOIMNFBF@?$AAc?$AAh?$AAh?$AA?$AA@ 10052504     LIBCMT:getqloc.obj
 0002:0001b50c       ??_C@_17GGDALCHA@?$AAc?$AAh?$AAi?$AA?$AA@ 1005250c     LIBCMT:getqloc.obj
 0002:0001b514       ??_C@_1BA@NPNJKIBL@?$AAc?$AAh?$AAi?$AAn?$AAe?$AAs?$AAe?$AA?$AA@ 10052514     LIBCMT:getqloc.obj
 0002:0001b524       ??_C@_1CC@DINBAMMJ@?$AAc?$AAh?$AAi?$AAn?$AAe?$AAs?$AAe?$AA?9?$AAh?$AAo?$AAn?$AAg?$AAk?$AAo?$AAn?$AAg?$AA?$AA@ 10052524     LIBCMT:getqloc.obj
 0002:0001b548       ??_C@_1CG@IOBJPACO@?$AAc?$AAh?$AAi?$AAn?$AAe?$AAs?$AAe?$AA?9?$AAs?$AAi?$AAm?$AAp?$AAl?$AAi?$AAf?$AAi?$AAe?$AAd?$AA?$AA@ 10052548     LIBCMT:getqloc.obj
 0002:0001b570       ??_C@_1CE@GAJNDCKG@?$AAc?$AAh?$AAi?$AAn?$AAe?$AAs?$AAe?$AA?9?$AAs?$AAi?$AAn?$AAg?$AAa?$AAp?$AAo?$AAr?$AAe?$AA?$AA@ 10052570     LIBCMT:getqloc.obj
 0002:0001b594       ??_C@_1CI@PAJPIOOD@?$AAc?$AAh?$AAi?$AAn?$AAe?$AAs?$AAe?$AA?9?$AAt?$AAr?$AAa?$AAd?$AAi?$AAt?$AAi?$AAo?$AAn?$AAa?$AAl?$AA?$AA@ 10052594     LIBCMT:getqloc.obj
 0002:0001b5bc       ??_C@_1BM@NILJBMMD@?$AAd?$AAu?$AAt?$AAc?$AAh?$AA?9?$AAb?$AAe?$AAl?$AAg?$AAi?$AAa?$AAn?$AA?$AA@ 100525bc     LIBCMT:getqloc.obj
 0002:0001b5d8       ??_C@_1CC@OOJPJNEJ@?$AAe?$AAn?$AAg?$AAl?$AAi?$AAs?$AAh?$AA?9?$AAa?$AAm?$AAe?$AAr?$AAi?$AAc?$AAa?$AAn?$AA?$AA@ 100525d8     LIBCMT:getqloc.obj
 0002:0001b5fc       ??_C@_1BI@IOLFEEM@?$AAe?$AAn?$AAg?$AAl?$AAi?$AAs?$AAh?$AA?9?$AAa?$AAu?$AAs?$AA?$AA@ 100525fc     LIBCMT:getqloc.obj
 0002:0001b614       ??_C@_1BO@HFFNLENJ@?$AAe?$AAn?$AAg?$AAl?$AAi?$AAs?$AAh?$AA?9?$AAb?$AAe?$AAl?$AAi?$AAz?$AAe?$AA?$AA@ 10052614     LIBCMT:getqloc.obj
 0002:0001b634       ??_C@_1BI@HAPKJMPO@?$AAe?$AAn?$AAg?$AAl?$AAi?$AAs?$AAh?$AA?9?$AAc?$AAa?$AAn?$AA?$AA@ 10052634     LIBCMT:getqloc.obj
 0002:0001b64c       ??_C@_1CE@HLNDMIOJ@?$AAe?$AAn?$AAg?$AAl?$AAi?$AAs?$AAh?$AA?9?$AAc?$AAa?$AAr?$AAi?$AAb?$AAb?$AAe?$AAa?$AAn?$AA?$AA@ 1005264c     LIBCMT:getqloc.obj
 0002:0001b670       ??_C@_1BI@LDHJHHAC@?$AAe?$AAn?$AAg?$AAl?$AAi?$AAs?$AAh?$AA?9?$AAi?$AAr?$AAe?$AA?$AA@ 10052670     LIBCMT:getqloc.obj
 0002:0001b688       ??_C@_1CA@NJMMCFOC@?$AAe?$AAn?$AAg?$AAl?$AAi?$AAs?$AAh?$AA?9?$AAj?$AAa?$AAm?$AAa?$AAi?$AAc?$AAa?$AA?$AA@ 10052688     LIBCMT:getqloc.obj
 0002:0001b6a8       ??_C@_1BG@BHJEBBGG@?$AAe?$AAn?$AAg?$AAl?$AAi?$AAs?$AAh?$AA?9?$AAn?$AAz?$AA?$AA@ 100526a8     LIBCMT:getqloc.obj
 0002:0001b6c0       ??_C@_1CK@FGOEJJCO@?$AAe?$AAn?$AAg?$AAl?$AAi?$AAs?$AAh?$AA?9?$AAs?$AAo?$AAu?$AAt?$AAh?$AA?5?$AAa?$AAf?$AAr?$AAi?$AAc?$AAa?$AA?$AA@ 100526c0     LIBCMT:getqloc.obj
 0002:0001b6ec       ??_C@_1DE@PDBJPCJ@?$AAe?$AAn?$AAg?$AAl?$AAi?$AAs?$AAh?$AA?9?$AAt?$AAr?$AAi?$AAn?$AAi?$AAd?$AAa?$AAd?$AA?5?$AAy?$AA?5?$AAt?$AAo?$AAb?$AAa?$AAg?$AAo?$AA?$AA@ 100526ec     LIBCMT:getqloc.obj
 0002:0001b720       ??_C@_1BG@JGCANDME@?$AAe?$AAn?$AAg?$AAl?$AAi?$AAs?$AAh?$AA?9?$AAu?$AAk?$AA?$AA@ 10052720     LIBCMT:getqloc.obj
 0002:0001b738       ??_C@_1BG@DINKMLE@?$AAe?$AAn?$AAg?$AAl?$AAi?$AAs?$AAh?$AA?9?$AAu?$AAs?$AA?$AA@ 10052738     LIBCMT:getqloc.obj
 0002:0001b750       ??_C@_1BI@NMFDBHJE@?$AAe?$AAn?$AAg?$AAl?$AAi?$AAs?$AAh?$AA?9?$AAu?$AAs?$AAa?$AA?$AA@ 10052750     LIBCMT:getqloc.obj
 0002:0001b768       ??_C@_1BO@OIHKJKII@?$AAf?$AAr?$AAe?$AAn?$AAc?$AAh?$AA?9?$AAb?$AAe?$AAl?$AAg?$AAi?$AAa?$AAn?$AA?$AA@ 10052768     LIBCMT:getqloc.obj
 0002:0001b788       ??_C@_1CA@NKAELJKI@?$AAf?$AAr?$AAe?$AAn?$AAc?$AAh?$AA?9?$AAc?$AAa?$AAn?$AAa?$AAd?$AAi?$AAa?$AAn?$AA?$AA@ 10052788     LIBCMT:getqloc.obj
 0002:0001b7a8       ??_C@_1CE@MGKCNLGN@?$AAf?$AAr?$AAe?$AAn?$AAc?$AAh?$AA?9?$AAl?$AAu?$AAx?$AAe?$AAm?$AAb?$AAo?$AAu?$AAr?$AAg?$AA?$AA@ 100527a8     LIBCMT:getqloc.obj
 0002:0001b7cc       ??_C@_1BK@CEGEAILM@?$AAf?$AAr?$AAe?$AAn?$AAc?$AAh?$AA?9?$AAs?$AAw?$AAi?$AAs?$AAs?$AA?$AA@ 100527cc     LIBCMT:getqloc.obj
 0002:0001b7e8       ??_C@_1CA@PAFKEOCC@?$AAg?$AAe?$AAr?$AAm?$AAa?$AAn?$AA?9?$AAa?$AAu?$AAs?$AAt?$AAr?$AAi?$AAa?$AAn?$AA?$AA@ 100527e8     LIBCMT:getqloc.obj
 0002:0001b808       ??_C@_1CI@HCFHGOFD@?$AAg?$AAe?$AAr?$AAm?$AAa?$AAn?$AA?9?$AAl?$AAi?$AAc?$AAh?$AAt?$AAe?$AAn?$AAs?$AAt?$AAe?$AAi?$AAn?$AA?$AA@ 10052808     LIBCMT:getqloc.obj
 0002:0001b830       ??_C@_1CE@FEDDNPDG@?$AAg?$AAe?$AAr?$AAm?$AAa?$AAn?$AA?9?$AAl?$AAu?$AAx?$AAe?$AAm?$AAb?$AAo?$AAu?$AAr?$AAg?$AA?$AA@ 10052830     LIBCMT:getqloc.obj
 0002:0001b854       ??_C@_1BK@LIMINNMN@?$AAg?$AAe?$AAr?$AAm?$AAa?$AAn?$AA?9?$AAs?$AAw?$AAi?$AAs?$AAs?$AA?$AA@ 10052854     LIBCMT:getqloc.obj
 0002:0001b870       ??_C@_1BM@LGMDBEPD@?$AAi?$AAr?$AAi?$AAs?$AAh?$AA?9?$AAe?$AAn?$AAg?$AAl?$AAi?$AAs?$AAh?$AA?$AA@ 10052870     LIBCMT:getqloc.obj
 0002:0001b88c       ??_C@_1BM@NNCFBAEE@?$AAi?$AAt?$AAa?$AAl?$AAi?$AAa?$AAn?$AA?9?$AAs?$AAw?$AAi?$AAs?$AAs?$AA?$AA@ 1005288c     LIBCMT:getqloc.obj
 0002:0001b8a8       ??_C@_1BE@FEDJNPIB@?$AAn?$AAo?$AAr?$AAw?$AAe?$AAg?$AAi?$AAa?$AAn?$AA?$AA@ 100528a8     LIBCMT:getqloc.obj
 0002:0001b8bc       ??_C@_1CC@CILKDEIE@?$AAn?$AAo?$AAr?$AAw?$AAe?$AAg?$AAi?$AAa?$AAn?$AA?9?$AAb?$AAo?$AAk?$AAm?$AAa?$AAl?$AA?$AA@ 100528bc     LIBCMT:getqloc.obj
 0002:0001b8e0       ??_C@_1CE@DHMMHEPL@?$AAn?$AAo?$AAr?$AAw?$AAe?$AAg?$AAi?$AAa?$AAn?$AA?9?$AAn?$AAy?$AAn?$AAo?$AAr?$AAs?$AAk?$AA?$AA@ 100528e0     LIBCMT:getqloc.obj
 0002:0001b904       ??_C@_1CK@OPNMHECD@?$AAp?$AAo?$AAr?$AAt?$AAu?$AAg?$AAu?$AAe?$AAs?$AAe?$AA?9?$AAb?$AAr?$AAa?$AAz?$AAi?$AAl?$AAi?$AAa?$AAn?$AA?$AA@ 10052904     LIBCMT:getqloc.obj
 0002:0001b930       ??_C@_1CE@KEEHCDB@?$AAs?$AAp?$AAa?$AAn?$AAi?$AAs?$AAh?$AA?9?$AAa?$AAr?$AAg?$AAe?$AAn?$AAt?$AAi?$AAn?$AAa?$AA?$AA@ 10052930     LIBCMT:getqloc.obj
 0002:0001b954       ??_C@_1CA@GIAOLHJD@?$AAs?$AAp?$AAa?$AAn?$AAi?$AAs?$AAh?$AA?9?$AAb?$AAo?$AAl?$AAi?$AAv?$AAi?$AAa?$AA?$AA@ 10052954     LIBCMT:getqloc.obj
 0002:0001b974       ??_C@_1BM@OJNDFNPD@?$AAs?$AAp?$AAa?$AAn?$AAi?$AAs?$AAh?$AA?9?$AAc?$AAh?$AAi?$AAl?$AAe?$AA?$AA@ 10052974     LIBCMT:getqloc.obj
 0002:0001b990       ??_C@_1CC@OCOLPALL@?$AAs?$AAp?$AAa?$AAn?$AAi?$AAs?$AAh?$AA?9?$AAc?$AAo?$AAl?$AAo?$AAm?$AAb?$AAi?$AAa?$AA?$AA@ 10052990     LIBCMT:getqloc.obj
 0002:0001b9b4       ??_C@_1CG@BPOFMKBB@?$AAs?$AAp?$AAa?$AAn?$AAi?$AAs?$AAh?$AA?9?$AAc?$AAo?$AAs?$AAt?$AAa?$AA?5?$AAr?$AAi?$AAc?$AAa?$AA?$AA@ 100529b4     LIBCMT:getqloc.obj
 0002:0001b9dc       ??_C@_1DG@IGOBAPBB@?$AAs?$AAp?$AAa?$AAn?$AAi?$AAs?$AAh?$AA?9?$AAd?$AAo?$AAm?$AAi?$AAn?$AAi?$AAc?$AAa?$AAn?$AA?5?$AAr?$AAe?$AAp?$AAu?$AAb?$AAl?$AAi?$AAc?$AA?$AA@ 100529dc     LIBCMT:getqloc.obj
 0002:0001ba14       ??_C@_1CA@JHAPGEGI@?$AAs?$AAp?$AAa?$AAn?$AAi?$AAs?$AAh?$AA?9?$AAe?$AAc?$AAu?$AAa?$AAd?$AAo?$AAr?$AA?$AA@ 10052a14     LIBCMT:getqloc.obj
 0002:0001ba34       ??_C@_1CI@LAPALJPP@?$AAs?$AAp?$AAa?$AAn?$AAi?$AAs?$AAh?$AA?9?$AAe?$AAl?$AA?5?$AAs?$AAa?$AAl?$AAv?$AAa?$AAd?$AAo?$AAr?$AA?$AA@ 10052a34     LIBCMT:getqloc.obj
 0002:0001ba5c       ??_C@_1CE@PDGBOFOM@?$AAs?$AAp?$AAa?$AAn?$AAi?$AAs?$AAh?$AA?9?$AAg?$AAu?$AAa?$AAt?$AAe?$AAm?$AAa?$AAl?$AAa?$AA?$AA@ 10052a5c     LIBCMT:getqloc.obj
 0002:0001ba80       ??_C@_1CC@NBEBAODI@?$AAs?$AAp?$AAa?$AAn?$AAi?$AAs?$AAh?$AA?9?$AAh?$AAo?$AAn?$AAd?$AAu?$AAr?$AAa?$AAs?$AA?$AA@ 10052a80     LIBCMT:getqloc.obj
 0002:0001baa4       ??_C@_1CA@LLKGHBMF@?$AAs?$AAp?$AAa?$AAn?$AAi?$AAs?$AAh?$AA?9?$AAm?$AAe?$AAx?$AAi?$AAc?$AAa?$AAn?$AA?$AA@ 10052aa4     LIBCMT:getqloc.obj
 0002:0001bac4       ??_C@_1BO@LKNDOIGD@?$AAs?$AAp?$AAa?$AAn?$AAi?$AAs?$AAh?$AA?9?$AAm?$AAo?$AAd?$AAe?$AAr?$AAn?$AA?$AA@ 10052ac4     LIBCMT:getqloc.obj
 0002:0001bae4       ??_C@_1CE@NMDMOEEB@?$AAs?$AAp?$AAa?$AAn?$AAi?$AAs?$AAh?$AA?9?$AAn?$AAi?$AAc?$AAa?$AAr?$AAa?$AAg?$AAu?$AAa?$AA?$AA@ 10052ae4     LIBCMT:getqloc.obj
 0002:0001bb08       ??_C@_1BO@LLCBEJGB@?$AAs?$AAp?$AAa?$AAn?$AAi?$AAs?$AAh?$AA?9?$AAp?$AAa?$AAn?$AAa?$AAm?$AAa?$AA?$AA@ 10052b08     LIBCMT:getqloc.obj
 0002:0001bb28       ??_C@_1CC@FKPGGIHO@?$AAs?$AAp?$AAa?$AAn?$AAi?$AAs?$AAh?$AA?9?$AAp?$AAa?$AAr?$AAa?$AAg?$AAu?$AAa?$AAy?$AA?$AA@ 10052b28     LIBCMT:getqloc.obj
 0002:0001bb4c       ??_C@_1BK@CDEIHOOP@?$AAs?$AAp?$AAa?$AAn?$AAi?$AAs?$AAh?$AA?9?$AAp?$AAe?$AAr?$AAu?$AA?$AA@ 10052b4c     LIBCMT:getqloc.obj
 0002:0001bb68       ??_C@_1CI@GAHAKKGP@?$AAs?$AAp?$AAa?$AAn?$AAi?$AAs?$AAh?$AA?9?$AAp?$AAu?$AAe?$AAr?$AAt?$AAo?$AA?5?$AAr?$AAi?$AAc?$AAo?$AA?$AA@ 10052b68     LIBCMT:getqloc.obj
 0002:0001bb90       ??_C@_1CA@NKJBCAGP@?$AAs?$AAp?$AAa?$AAn?$AAi?$AAs?$AAh?$AA?9?$AAu?$AAr?$AAu?$AAg?$AAu?$AAa?$AAy?$AA?$AA@ 10052b90     LIBCMT:getqloc.obj
 0002:0001bbb0       ??_C@_1CE@ODILCONM@?$AAs?$AAp?$AAa?$AAn?$AAi?$AAs?$AAh?$AA?9?$AAv?$AAe?$AAn?$AAe?$AAz?$AAu?$AAe?$AAl?$AAa?$AA?$AA@ 10052bb0     LIBCMT:getqloc.obj
 0002:0001bbd4       ??_C@_1CA@OBNMCGFO@?$AAs?$AAw?$AAe?$AAd?$AAi?$AAs?$AAh?$AA?9?$AAf?$AAi?$AAn?$AAl?$AAa?$AAn?$AAd?$AA?$AA@ 10052bd4     LIBCMT:getqloc.obj
 0002:0001bbf4       ??_C@_1M@PIPDDPPI@?$AAs?$AAw?$AAi?$AAs?$AAs?$AA?$AA@ 10052bf4     LIBCMT:getqloc.obj
 0002:0001bc00       ??_C@_15GMFIMNFM@?$AAu?$AAs?$AA?$AA@ 10052c00     LIBCMT:getqloc.obj
 0002:0001bc08       ??_C@_17HAEBFAGL@?$AAu?$AAs?$AAa?$AA?$AA@ 10052c08     LIBCMT:getqloc.obj
 0002:0001bc10       ___rg_country              10052c10     LIBCMT:getqloc.obj
 0002:0001bd24       ??_C@_1BA@DPFJEPHB@?$AAa?$AAm?$AAe?$AAr?$AAi?$AAc?$AAa?$AA?$AA@ 10052d24     LIBCMT:getqloc.obj
 0002:0001bd34       ??_C@_1BA@ELOGGFK@?$AAb?$AAr?$AAi?$AAt?$AAa?$AAi?$AAn?$AA?$AA@ 10052d34     LIBCMT:getqloc.obj
 0002:0001bd44       ??_C@_1M@GHBGIGDA@?$AAc?$AAh?$AAi?$AAn?$AAa?$AA?$AA@ 10052d44     LIBCMT:getqloc.obj
 0002:0001bd50       ??_C@_1M@NCHEJOPO@?$AAc?$AAz?$AAe?$AAc?$AAh?$AA?$AA@ 10052d50     LIBCMT:getqloc.obj
 0002:0001bd5c       ??_C@_1BA@BKPAPBLA@?$AAe?$AAn?$AAg?$AAl?$AAa?$AAn?$AAd?$AA?$AA@ 10052d5c     LIBCMT:getqloc.obj
 0002:0001bd6c       ??_C@_1BM@HKBCKIPC@?$AAg?$AAr?$AAe?$AAa?$AAt?$AA?5?$AAb?$AAr?$AAi?$AAt?$AAa?$AAi?$AAn?$AA?$AA@ 10052d6c     LIBCMT:getqloc.obj
 0002:0001bd88       ??_C@_1BA@PPCHPGJB@?$AAh?$AAo?$AAl?$AAl?$AAa?$AAn?$AAd?$AA?$AA@ 10052d88     LIBCMT:getqloc.obj
 0002:0001bd98       ??_C@_1BE@JBMPEGDG@?$AAh?$AAo?$AAn?$AAg?$AA?9?$AAk?$AAo?$AAn?$AAg?$AA?$AA@ 10052d98     LIBCMT:getqloc.obj
 0002:0001bdac       ??_C@_1BI@KOELBBPJ@?$AAn?$AAe?$AAw?$AA?9?$AAz?$AAe?$AAa?$AAl?$AAa?$AAn?$AAd?$AA?$AA@ 10052dac     LIBCMT:getqloc.obj
 0002:0001bdc4       ??_C@_15HIEBHAIO@?$AAn?$AAz?$AA?$AA@ 10052dc4     LIBCMT:getqloc.obj
 0002:0001bdcc       ??_C@_1BC@CHBCPFPI@?$AAp?$AAr?$AA?5?$AAc?$AAh?$AAi?$AAn?$AAa?$AA?$AA@ 10052dcc     LIBCMT:getqloc.obj
 0002:0001bde0       ??_C@_1BC@JAOIIFKD@?$AAp?$AAr?$AA?9?$AAc?$AAh?$AAi?$AAn?$AAa?$AA?$AA@ 10052de0     LIBCMT:getqloc.obj
 0002:0001bdf4       ??_C@_1BI@BEHPPHKC@?$AAp?$AAu?$AAe?$AAr?$AAt?$AAo?$AA?9?$AAr?$AAi?$AAc?$AAo?$AA?$AA@ 10052df4     LIBCMT:getqloc.obj
 0002:0001be0c       ??_C@_1O@PAEOFKDI@?$AAs?$AAl?$AAo?$AAv?$AAa?$AAk?$AA?$AA@ 10052e0c     LIBCMT:getqloc.obj
 0002:0001be1c       ??_C@_1BK@FIHMCKAM@?$AAs?$AAo?$AAu?$AAt?$AAh?$AA?5?$AAa?$AAf?$AAr?$AAi?$AAc?$AAa?$AA?$AA@ 10052e1c     LIBCMT:getqloc.obj
 0002:0001be38       ??_C@_1BI@NAEOODKB@?$AAs?$AAo?$AAu?$AAt?$AAh?$AA?5?$AAk?$AAo?$AAr?$AAe?$AAa?$AA?$AA@ 10052e38     LIBCMT:getqloc.obj
 0002:0001be50       ??_C@_1BK@FBDGGIFF@?$AAs?$AAo?$AAu?$AAt?$AAh?$AA?9?$AAa?$AAf?$AAr?$AAi?$AAc?$AAa?$AA?$AA@ 10052e50     LIBCMT:getqloc.obj
 0002:0001be6c       ??_C@_1BI@GHLEJDPK@?$AAs?$AAo?$AAu?$AAt?$AAh?$AA?9?$AAk?$AAo?$AAr?$AAe?$AAa?$AA?$AA@ 10052e6c     LIBCMT:getqloc.obj
 0002:0001be84       ??_C@_1CE@PLHLOMJF@?$AAt?$AAr?$AAi?$AAn?$AAi?$AAd?$AAa?$AAd?$AA?5?$AA?$CG?$AA?5?$AAt?$AAo?$AAb?$AAa?$AAg?$AAo?$AA?$AA@ 10052e84     LIBCMT:getqloc.obj
 0002:0001bea8       ??_C@_1BO@MODIMHHI@?$AAu?$AAn?$AAi?$AAt?$AAe?$AAd?$AA?9?$AAk?$AAi?$AAn?$AAg?$AAd?$AAo?$AAm?$AA?$AA@ 10052ea8     LIBCMT:getqloc.obj
 0002:0001bec8       ??_C@_1BM@FFHJONBJ@?$AAu?$AAn?$AAi?$AAt?$AAe?$AAd?$AA?9?$AAs?$AAt?$AAa?$AAt?$AAe?$AAs?$AA?$AA@ 10052ec8     LIBCMT:getqloc.obj
 0002:0001bee4       ___rg_language_count       10052ee4     LIBCMT:getqloc.obj
 0002:0001bee8       ___rg_country_count        10052ee8     LIBCMT:getqloc.obj
 0002:0001beec       ??_C@_17DNCLJFIF@?$AAA?$AAC?$AAP?$AA?$AA@ 10052eec     LIBCMT:getqloc.obj
 0002:0001bef4       ??_C@_17CIKBIHLH@?$AAO?$AAC?$AAP?$AA?$AA@ 10052ef4     LIBCMT:getqloc.obj
 0002:0001befc       ___rglangidNotDefault      10052efc     LIBCMT:getqloc_downlevel.obj
 0002:0001bf10       ??_C@_0M@HHGEPIBF@CreateFile2?$AA@ 10052f10     LIBCMT:wopen.obj
 0002:0001bf1c       ??_C@_06PGGFOGJG@1?$CDSNAN?$AA@ 10052f1c     LIBCMT:x10fout.obj
 0002:0001bf24       ??_C@_05PHHOCPM@1?$CDIND?$AA@ 10052f24     LIBCMT:x10fout.obj
 0002:0001bf2c       ??_C@_05DNEBIAHO@1?$CDINF?$AA@ 10052f2c     LIBCMT:x10fout.obj
 0002:0001bf34       ??_C@_06IMKFLFPG@1?$CDQNAN?$AA@ 10052f34     LIBCMT:x10fout.obj
 0002:0001bf3c       ??_C@_1BA@BALFACEM@?$AAC?$AAO?$AAN?$AAO?$AAU?$AAT?$AA$?$AA?$AA@ 10052f3c     LIBCMT:initcon.obj
 0002:0001bf50       __load_config_used         10052f50     LIBCMT:loadcfg.obj
 0002:0001bf98       ??_R1A@?0A@EA@exception@std@@8 10052f98     NeuralNetwork.obj
 0002:0001bfb4       ??_R3exception@std@@8      10052fb4     NeuralNetwork.obj
 0002:0001bfc4       ??_R2exception@std@@8      10052fc4     NeuralNetwork.obj
 0002:0001bfcc       ??_R4ios_base@std@@6B@     10052fcc     NeuralNetwork.obj
 0002:0001bfe0       ??_R3ios_base@std@@8       10052fe0     NeuralNetwork.obj
 0002:0001bff0       ??_R2ios_base@std@@8       10052ff0     NeuralNetwork.obj
 0002:0001bffc       ??_R1A@?0A@EA@ios_base@std@@8 10052ffc     NeuralNetwork.obj
 0002:0001c018       ??_R17?0A@EA@?$_Iosb@H@std@@8 10053018     NeuralNetwork.obj
 0002:0001c034       ??_R3?$_Iosb@H@std@@8      10053034     NeuralNetwork.obj
 0002:0001c044       ??_R2?$_Iosb@H@std@@8      10053044     NeuralNetwork.obj
 0002:0001c04c       ??_R1A@?0A@EA@?$_Iosb@H@std@@8 1005304c     NeuralNetwork.obj
 0002:0001c068       ??_R4?$basic_ios@DU?$char_traits@D@std@@@std@@6B@ 10053068     NeuralNetwork.obj
 0002:0001c07c       ??_R3?$basic_ios@DU?$char_traits@D@std@@@std@@8 1005307c     NeuralNetwork.obj
 0002:0001c08c       ??_R2?$basic_ios@DU?$char_traits@D@std@@@std@@8 1005308c     NeuralNetwork.obj
 0002:0001c09c       ??_R1A@?0A@EA@?$basic_ios@DU?$char_traits@D@std@@@std@@8 1005309c     NeuralNetwork.obj
 0002:0001c0b8       ??_R4?$basic_streambuf@DU?$char_traits@D@std@@@std@@6B@ 100530b8     NeuralNetwork.obj
 0002:0001c0cc       ??_R3?$basic_streambuf@DU?$char_traits@D@std@@@std@@8 100530cc     NeuralNetwork.obj
 0002:0001c0dc       ??_R2?$basic_streambuf@DU?$char_traits@D@std@@@std@@8 100530dc     NeuralNetwork.obj
 0002:0001c0e4       ??_R1A@?0A@EA@?$basic_streambuf@DU?$char_traits@D@std@@@std@@8 100530e4     NeuralNetwork.obj
 0002:0001c100       ??_R4?$basic_istream@DU?$char_traits@D@std@@@std@@6B@ 10053100     NeuralNetwork.obj
 0002:0001c114       ??_R3?$basic_istream@DU?$char_traits@D@std@@@std@@8 10053114     NeuralNetwork.obj
 0002:0001c124       ??_R2?$basic_istream@DU?$char_traits@D@std@@@std@@8 10053124     NeuralNetwork.obj
 0002:0001c138       ??_R1A@?0A@EA@?$basic_istream@DU?$char_traits@D@std@@@std@@8 10053138     NeuralNetwork.obj
 0002:0001c154       ??_R1A@A@3FA@?$basic_ios@DU?$char_traits@D@std@@@std@@8 10053154     NeuralNetwork.obj
 0002:0001c170       ??_R1A@A@3EA@ios_base@std@@8 10053170     NeuralNetwork.obj
 0002:0001c18c       ??_R17A@3EA@?$_Iosb@H@std@@8 1005318c     NeuralNetwork.obj
 0002:0001c1a8       ??_R4?$basic_ostream@DU?$char_traits@D@std@@@std@@6B@ 100531a8     NeuralNetwork.obj
 0002:0001c1bc       ??_R3?$basic_ostream@DU?$char_traits@D@std@@@std@@8 100531bc     NeuralNetwork.obj
 0002:0001c1cc       ??_R2?$basic_ostream@DU?$char_traits@D@std@@@std@@8 100531cc     NeuralNetwork.obj
 0002:0001c1e0       ??_R1A@?0A@EA@?$basic_ostream@DU?$char_traits@D@std@@@std@@8 100531e0     NeuralNetwork.obj
 0002:0001c1fc       ??_R4?$basic_filebuf@DU?$char_traits@D@std@@@std@@6B@ 100531fc     NeuralNetwork.obj
 0002:0001c210       ??_R3?$basic_filebuf@DU?$char_traits@D@std@@@std@@8 10053210     NeuralNetwork.obj
 0002:0001c220       ??_R2?$basic_filebuf@DU?$char_traits@D@std@@@std@@8 10053220     NeuralNetwork.obj
 0002:0001c22c       ??_R1A@?0A@EA@?$basic_filebuf@DU?$char_traits@D@std@@@std@@8 1005322c     NeuralNetwork.obj
 0002:0001c248       ??_R4?$basic_ifstream@DU?$char_traits@D@std@@@std@@6B@ 10053248     NeuralNetwork.obj
 0002:0001c25c       ??_R3?$basic_ifstream@DU?$char_traits@D@std@@@std@@8 1005325c     NeuralNetwork.obj
 0002:0001c26c       ??_R2?$basic_ifstream@DU?$char_traits@D@std@@@std@@8 1005326c     NeuralNetwork.obj
 0002:0001c284       ??_R1A@?0A@EA@?$basic_ifstream@DU?$char_traits@D@std@@@std@@8 10053284     NeuralNetwork.obj
 0002:0001c2a0       ??_R4?$basic_ofstream@DU?$char_traits@D@std@@@std@@6B@ 100532a0     NeuralNetwork.obj
 0002:0001c2b4       ??_R3?$basic_ofstream@DU?$char_traits@D@std@@@std@@8 100532b4     NeuralNetwork.obj
 0002:0001c2c4       ??_R2?$basic_ofstream@DU?$char_traits@D@std@@@std@@8 100532c4     NeuralNetwork.obj
 0002:0001c2dc       ??_R1A@?0A@EA@?$basic_ofstream@DU?$char_traits@D@std@@@std@@8 100532dc     NeuralNetwork.obj
 0002:0001c2f8       ??_R4runtime_error@std@@6B@ 100532f8     NeuralNetwork.obj
 0002:0001c30c       ??_R3runtime_error@std@@8  1005330c     NeuralNetwork.obj
 0002:0001c31c       ??_R2runtime_error@std@@8  1005331c     NeuralNetwork.obj
 0002:0001c328       ??_R1A@?0A@EA@runtime_error@std@@8 10053328     NeuralNetwork.obj
 0002:0001c344       ??_R4_Facet_base@std@@6B@  10053344     NeuralNetwork.obj
 0002:0001c358       ??_R3_Facet_base@std@@8    10053358     NeuralNetwork.obj
 0002:0001c368       ??_R2_Facet_base@std@@8    10053368     NeuralNetwork.obj
 0002:0001c370       ??_R1A@?0A@EA@_Facet_base@std@@8 10053370     NeuralNetwork.obj
 0002:0001c38c       ??_R1A@?0A@EA@facet@locale@std@@8 1005338c     NeuralNetwork.obj
 0002:0001c3a8       ??_R3facet@locale@std@@8   100533a8     NeuralNetwork.obj
 0002:0001c3b8       ??_R2facet@locale@std@@8   100533b8     NeuralNetwork.obj
 0002:0001c3c4       ??_R3codecvt_base@std@@8   100533c4     NeuralNetwork.obj
 0002:0001c3d4       ??_R2codecvt_base@std@@8   100533d4     NeuralNetwork.obj
 0002:0001c3e4       ??_R1A@?0A@EA@codecvt_base@std@@8 100533e4     NeuralNetwork.obj
 0002:0001c400       ??_R3ctype_base@std@@8     10053400     NeuralNetwork.obj
 0002:0001c410       ??_R2ctype_base@std@@8     10053410     NeuralNetwork.obj
 0002:0001c420       ??_R1A@?0A@EA@ctype_base@std@@8 10053420     NeuralNetwork.obj
 0002:0001c43c       ??_R4?$ctype@D@std@@6B@    1005343c     NeuralNetwork.obj
 0002:0001c450       ??_R3?$ctype@D@std@@8      10053450     NeuralNetwork.obj
 0002:0001c460       ??_R2?$ctype@D@std@@8      10053460     NeuralNetwork.obj
 0002:0001c474       ??_R1A@?0A@EA@?$ctype@D@std@@8 10053474     NeuralNetwork.obj
 0002:0001c490       ??_R4error_category@std@@6B@ 10053490     NeuralNetwork.obj
 0002:0001c4a4       ??_R3error_category@std@@8 100534a4     NeuralNetwork.obj
 0002:0001c4b4       ??_R2error_category@std@@8 100534b4     NeuralNetwork.obj
 0002:0001c4bc       ??_R1A@?0A@EA@error_category@std@@8 100534bc     NeuralNetwork.obj
 0002:0001c4d8       ??_R4system_error@std@@6B@ 100534d8     NeuralNetwork.obj
 0002:0001c4ec       ??_R3system_error@std@@8   100534ec     NeuralNetwork.obj
 0002:0001c4fc       ??_R2system_error@std@@8   100534fc     NeuralNetwork.obj
 0002:0001c50c       ??_R1A@?0A@EA@system_error@std@@8 1005350c     NeuralNetwork.obj
 0002:0001c528       ??_R4_Generic_error_category@std@@6B@ 10053528     NeuralNetwork.obj
 0002:0001c53c       ??_R3_Generic_error_category@std@@8 1005353c     NeuralNetwork.obj
 0002:0001c54c       ??_R2_Generic_error_category@std@@8 1005354c     NeuralNetwork.obj
 0002:0001c558       ??_R1A@?0A@EA@_Generic_error_category@std@@8 10053558     NeuralNetwork.obj
 0002:0001c574       ??_R4_Iostream_error_category@std@@6B@ 10053574     NeuralNetwork.obj
 0002:0001c588       ??_R3_Iostream_error_category@std@@8 10053588     NeuralNetwork.obj
 0002:0001c598       ??_R2_Iostream_error_category@std@@8 10053598     NeuralNetwork.obj
 0002:0001c5a8       ??_R1A@?0A@EA@_Iostream_error_category@std@@8 100535a8     NeuralNetwork.obj
 0002:0001c5c4       ??_R4_System_error_category@std@@6B@ 100535c4     NeuralNetwork.obj
 0002:0001c5d8       ??_R3_System_error_category@std@@8 100535d8     NeuralNetwork.obj
 0002:0001c5e8       ??_R2_System_error_category@std@@8 100535e8     NeuralNetwork.obj
 0002:0001c5f8       ??_R1A@?0A@EA@_System_error_category@std@@8 100535f8     NeuralNetwork.obj
 0002:0001c614       ??_R4failure@ios_base@std@@6B@ 10053614     NeuralNetwork.obj
 0002:0001c628       ??_R3failure@ios_base@std@@8 10053628     NeuralNetwork.obj
 0002:0001c638       ??_R2failure@ios_base@std@@8 10053638     NeuralNetwork.obj
 0002:0001c64c       ??_R1A@?0A@EA@failure@ios_base@std@@8 1005364c     NeuralNetwork.obj
 0002:0001c668       ??_R4?$num_put@DV?$ostreambuf_iterator@DU?$char_traits@D@std@@@std@@@std@@6B@ 10053668     NeuralNetwork.obj
 0002:0001c67c       ??_R3?$num_put@DV?$ostreambuf_iterator@DU?$char_traits@D@std@@@std@@@std@@8 1005367c     NeuralNetwork.obj
 0002:0001c68c       ??_R2?$num_put@DV?$ostreambuf_iterator@DU?$char_traits@D@std@@@std@@@std@@8 1005368c     NeuralNetwork.obj
 0002:0001c69c       ??_R1A@?0A@EA@?$num_put@DV?$ostreambuf_iterator@DU?$char_traits@D@std@@@std@@@std@@8 1005369c     NeuralNetwork.obj
 0002:0001c6b8       ??_R4?$codecvt@DDH@std@@6B@ 100536b8     NeuralNetwork.obj
 0002:0001c6cc       ??_R3?$codecvt@DDH@std@@8  100536cc     NeuralNetwork.obj
 0002:0001c6dc       ??_R2?$codecvt@DDH@std@@8  100536dc     NeuralNetwork.obj
 0002:0001c6f0       ??_R1A@?0A@EA@?$codecvt@DDH@std@@8 100536f0     NeuralNetwork.obj
 0002:0001c70c       ??_R4?$numpunct@D@std@@6B@ 1005370c     NeuralNetwork.obj
 0002:0001c720       ??_R3?$numpunct@D@std@@8   10053720     NeuralNetwork.obj
 0002:0001c730       ??_R2?$numpunct@D@std@@8   10053730     NeuralNetwork.obj
 0002:0001c740       ??_R1A@?0A@EA@?$numpunct@D@std@@8 10053740     NeuralNetwork.obj
 0002:0001c75c       ??_R4bad_alloc@std@@6B@    1005375c     libcpmt:xthrow.obj
 0002:0001c770       ??_R3bad_alloc@std@@8      10053770     libcpmt:xthrow.obj
 0002:0001c780       ??_R2bad_alloc@std@@8      10053780     libcpmt:xthrow.obj
 0002:0001c78c       ??_R1A@?0A@EA@bad_alloc@std@@8 1005378c     libcpmt:xthrow.obj
 0002:0001c7a8       ??_R4logic_error@std@@6B@  100537a8     libcpmt:xthrow.obj
 0002:0001c7bc       ??_R3logic_error@std@@8    100537bc     libcpmt:xthrow.obj
 0002:0001c7cc       ??_R2logic_error@std@@8    100537cc     libcpmt:xthrow.obj
 0002:0001c7d8       ??_R1A@?0A@EA@logic_error@std@@8 100537d8     libcpmt:xthrow.obj
 0002:0001c7f4       ??_R4length_error@std@@6B@ 100537f4     libcpmt:xthrow.obj
 0002:0001c808       ??_R3length_error@std@@8   10053808     libcpmt:xthrow.obj
 0002:0001c818       ??_R2length_error@std@@8   10053818     libcpmt:xthrow.obj
 0002:0001c828       ??_R1A@?0A@EA@length_error@std@@8 10053828     libcpmt:xthrow.obj
 0002:0001c844       ??_R4out_of_range@std@@6B@ 10053844     libcpmt:xthrow.obj
 0002:0001c858       ??_R3out_of_range@std@@8   10053858     libcpmt:xthrow.obj
 0002:0001c868       ??_R2out_of_range@std@@8   10053868     libcpmt:xthrow.obj
 0002:0001c878       ??_R1A@?0A@EA@out_of_range@std@@8 10053878     libcpmt:xthrow.obj
 0002:0001c894       ??_R4_Locimp@locale@std@@6B@ 10053894     libcpmt:locale0.obj
 0002:0001c8a8       ??_R3_Locimp@locale@std@@8 100538a8     libcpmt:locale0.obj
 0002:0001c8b8       ??_R2_Locimp@locale@std@@8 100538b8     libcpmt:locale0.obj
 0002:0001c8c8       ??_R1A@?0A@EA@_Locimp@locale@std@@8 100538c8     libcpmt:locale0.obj
 0002:0001c8e4       ??_R4exception@std@@6B@    100538e4     LIBCMT:stdexcpt.obj
 0002:0001c8f8       ??_R4bad_cast@std@@6B@     100538f8     LIBCMT:stdexcpt.obj
 0002:0001c90c       ??_R3bad_cast@std@@8       1005390c     LIBCMT:stdexcpt.obj
 0002:0001c91c       ??_R2bad_cast@std@@8       1005391c     LIBCMT:stdexcpt.obj
 0002:0001c928       ??_R1A@?0A@EA@bad_cast@std@@8 10053928     LIBCMT:stdexcpt.obj
 0002:0001c944       ??_R4type_info@@6B@        10053944     LIBCMT:typinfo.obj
 0002:0001c958       ??_R3type_info@@8          10053958     LIBCMT:typinfo.obj
 0002:0001c968       ??_R2type_info@@8          10053968     LIBCMT:typinfo.obj
 0002:0001c970       ??_R1A@?0A@EA@type_info@@8 10053970     LIBCMT:typinfo.obj
 0002:0001c98c       ??_R4bad_exception@std@@6B@ 1005398c     LIBCMT:frame.obj
 0002:0001c9a0       ??_R3bad_exception@std@@8  100539a0     LIBCMT:frame.obj
 0002:0001c9b0       ??_R2bad_exception@std@@8  100539b0     LIBCMT:frame.obj
 0002:0001c9bc       ??_R1A@?0A@EA@bad_exception@std@@8 100539bc     LIBCMT:frame.obj
 0002:0001c9e0       ___safe_se_handler_table   100539e0     <linker-defined>
 0002:0001cacc       ___rtc_iaa                 10053acc     LIBCMT:initsect.obj
 0002:0001cad0       ___rtc_izz                 10053ad0     LIBCMT:initsect.obj
 0002:0001cad4       ___rtc_taa                 10053ad4     LIBCMT:initsect.obj
 0002:0001cad8       ___rtc_tzz                 10053ad8     LIBCMT:initsect.obj
 0002:0001d660       __TI2?AVruntime_error@std@@ 10054660     NeuralNetwork.obj
 0002:0001d670       __CTA2?AVruntime_error@std@@ 10054670     NeuralNetwork.obj
 0002:0001d67c       __CT??_R0?AVruntime_error@std@@@8??0runtime_error@std@@QAE@ABV01@@Z12 1005467c     NeuralNetwork.obj
 0002:0001d698       __CT??_R0?AVexception@std@@@8??0exception@std@@QAE@ABV01@@Z12 10054698     NeuralNetwork.obj
 0002:0001d6b4       __TI4?AVfailure@ios_base@std@@ 100546b4     NeuralNetwork.obj
 0002:0001d6c4       __CTA4?AVfailure@ios_base@std@@ 100546c4     NeuralNetwork.obj
 0002:0001d6d8       __CT??_R0?AVfailure@ios_base@std@@@8??0failure@ios_base@std@@QAE@ABV012@@Z20 100546d8     NeuralNetwork.obj
 0002:0001d6f4       __CT??_R0?AVsystem_error@std@@@8??0system_error@std@@QAE@ABV01@@Z20 100546f4     NeuralNetwork.obj
 0002:0001d710       __TI2?AVbad_cast@std@@     10054710     NeuralNetwork.obj
 0002:0001d720       __CTA2?AVbad_cast@std@@    10054720     NeuralNetwork.obj
 0002:0001d72c       __CT??_R0?AVbad_cast@std@@@8??0bad_cast@std@@QAE@ABV01@@Z12 1005472c     NeuralNetwork.obj
 0002:0001da20       __TI2?AVbad_alloc@std@@    10054a20     libcpmt:xthrow.obj
 0002:0001da30       __CTA2?AVbad_alloc@std@@   10054a30     libcpmt:xthrow.obj
 0002:0001da3c       __CT??_R0?AVbad_alloc@std@@@8??0bad_alloc@std@@QAE@ABV01@@Z12 10054a3c     libcpmt:xthrow.obj
 0002:0001da58       __CT??_R0?AVlogic_error@std@@@8??0logic_error@std@@QAE@ABV01@@Z12 10054a58     libcpmt:xthrow.obj
 0002:0001da74       __TI3?AVlength_error@std@@ 10054a74     libcpmt:xthrow.obj
 0002:0001da84       __CTA3?AVlength_error@std@@ 10054a84     libcpmt:xthrow.obj
 0002:0001da94       __CT??_R0?AVlength_error@std@@@8??0length_error@std@@QAE@ABV01@@Z12 10054a94     libcpmt:xthrow.obj
 0002:0001dab0       __TI3?AVout_of_range@std@@ 10054ab0     libcpmt:xthrow.obj
 0002:0001dac0       __CTA3?AVout_of_range@std@@ 10054ac0     libcpmt:xthrow.obj
 0002:0001dad0       __CT??_R0?AVout_of_range@std@@@8??0out_of_range@std@@QAE@ABV01@@Z12 10054ad0     libcpmt:xthrow.obj
 0002:0001dea4       __TI2?AVbad_exception@std@@ 10054ea4     LIBCMT:frame.obj
 0002:0001deb4       __CTA2?AVbad_exception@std@@ 10054eb4     LIBCMT:frame.obj
 0002:0001dec0       __CT??_R0?AVbad_exception@std@@@8??0bad_exception@std@@QAE@ABV01@@Z12 10054ec0     LIBCMT:frame.obj
 0002:0001e2ac       __IMPORT_DESCRIPTOR_client 100552ac     client:client.dll
 0002:0001e2c0       __IMPORT_DESCRIPTOR_tgf    100552c0     tgf:tgf.dll
 0002:0001e2d4       __IMPORT_DESCRIPTOR_robottools 100552d4     robottools:robottools.dll
 0002:0001e2e8       __IMPORT_DESCRIPTOR_KERNEL32 100552e8     kernel32:KERNEL32.dll
 0002:0001e2fc       __NULL_IMPORT_DESCRIPTOR   100552fc     client:client.dll
 0003:00000000       ??_R0?AVruntime_error@std@@@8 10056000     NeuralNetwork.obj
 0003:00000020       ??_R0?AVexception@std@@@8  10056020     NeuralNetwork.obj
 0003:0000003c       ?_Generic_object@?$_Error_objects@H@std@@2V_Generic_error_category@2@A 1005603c     NeuralNetwork.obj
 0003:00000040       ?_Iostream_object@?$_Error_objects@H@std@@2V_Iostream_error_category@2@A 10056040     NeuralNetwork.obj
 0003:00000044       ?_System_object@?$_Error_objects@H@std@@2V_System_error_category@2@A 10056044     NeuralNetwork.obj
 0003:00000048       ??_R0?AVfailure@ios_base@std@@@8 10056048     NeuralNetwork.obj
 0003:0000006c       ??_R0?AVsystem_error@std@@@8 1005606c     NeuralNetwork.obj
 0003:0000008c       ??_R0?AVbad_cast@std@@@8   1005608c     NeuralNetwork.obj
 0003:000000a8       ??_R0?AVios_base@std@@@8   100560a8     NeuralNetwork.obj
 0003:000000c4       ??_R0?AV?$_Iosb@H@std@@@8  100560c4     NeuralNetwork.obj
 0003:000000e0       ??_R0?AV?$basic_ios@DU?$char_traits@D@std@@@std@@@8 100560e0     NeuralNetwork.obj
 0003:00000118       ??_R0?AV?$basic_streambuf@DU?$char_traits@D@std@@@std@@@8 10056118     NeuralNetwork.obj
 0003:00000154       ??_R0?AV?$basic_istream@DU?$char_traits@D@std@@@std@@@8 10056154     NeuralNetwork.obj
 0003:00000190       ??_R0?AV?$basic_ostream@DU?$char_traits@D@std@@@std@@@8 10056190     NeuralNetwork.obj
 0003:000001cc       ??_R0?AV?$basic_filebuf@DU?$char_traits@D@std@@@std@@@8 100561cc     NeuralNetwork.obj
 0003:00000208       ??_R0?AV?$basic_ifstream@DU?$char_traits@D@std@@@std@@@8 10056208     NeuralNetwork.obj
 0003:00000244       ??_R0?AV?$basic_ofstream@DU?$char_traits@D@std@@@std@@@8 10056244     NeuralNetwork.obj
 0003:00000280       ??_R0?AV_Facet_base@std@@@8 10056280     NeuralNetwork.obj
 0003:000002a0       ??_R0?AVfacet@locale@std@@@8 100562a0     NeuralNetwork.obj
 0003:000002c0       ??_R0?AVcodecvt_base@std@@@8 100562c0     NeuralNetwork.obj
 0003:000002e0       ??_R0?AUctype_base@std@@@8 100562e0     NeuralNetwork.obj
 0003:00000300       ??_R0?AV?$ctype@D@std@@@8  10056300     NeuralNetwork.obj
 0003:0000031c       ??_R0?AVerror_category@std@@@8 1005631c     NeuralNetwork.obj
 0003:00000340       ??_R0?AV_Generic_error_category@std@@@8 10056340     NeuralNetwork.obj
 0003:0000036c       ??_R0?AV_Iostream_error_category@std@@@8 1005636c     NeuralNetwork.obj
 0003:00000398       ??_R0?AV_System_error_category@std@@@8 10056398     NeuralNetwork.obj
 0003:000003c8       ??_R0?AV?$num_put@DV?$ostreambuf_iterator@DU?$char_traits@D@std@@@std@@@std@@@8 100563c8     NeuralNetwork.obj
 0003:0000041c       ??_R0?AV?$codecvt@DDH@std@@@8 1005641c     NeuralNetwork.obj
 0003:0000043c       ??_R0?AV?$numpunct@D@std@@@8 1005643c     NeuralNetwork.obj
 0003:00000460       ?TPRES@Pathfinder@@0NB     10056460     pathfinder.obj
 0003:00000488       ?Yn@@3PAPBDA               10056488     pref.obj
 0003:00000490       ?CmdControlRef@@3PAUtControlCmd@@A 10056490     pref.obj
 0003:00000968       ?_sgdGravity@@3PANA        10056968     sg_vs2008_32:sgd.obj
 0003:00000990       ??_R0?AVbad_alloc@std@@@8  10056990     libcpmt:xthrow.obj
 0003:000009ac       ??_R0?AVlogic_error@std@@@8 100569ac     libcpmt:xthrow.obj
 0003:000009cc       ??_R0?AVlength_error@std@@@8 100569cc     libcpmt:xthrow.obj
 0003:000009ec       ??_R0?AVout_of_range@std@@@8 100569ec     libcpmt:xthrow.obj
 0003:00000a0c       ??_R0?AV_Locimp@locale@std@@@8 10056a0c     libcpmt:locale0.obj
 0003:00000a2d       ?_Sync@ios_base@std@@0_NA  10056a2d     libcpmt:ios.obj
 0003:00000a38       ?_PJP_CPP_Copyright@@3PADA 10056a38     libcpmt:iosptrs.obj
 0003:00000a98       __FDenorm                  10056a98     libcpmt:xfvalues.obj
 0003:00000aa8       __FInf                     10056aa8     libcpmt:xfvalues.obj
 0003:00000ab8       __FNan                     10056ab8     libcpmt:xfvalues.obj
 0003:00000ac8       __FSnan                    10056ac8     libcpmt:xfvalues.obj
 0003:00000ad8       __FEps                     10056ad8     libcpmt:xfvalues.obj
 0003:00000ae8       __FRteps                   10056ae8     libcpmt:xfvalues.obj
 0003:00000af8       __FXbig                    10056af8     libcpmt:xfvalues.obj
 0003:00000b00       __Denorm                   10056b00     libcpmt:xvalues.obj
 0003:00000b10       __Hugeval                  10056b10     libcpmt:xvalues.obj
 0003:00000b20       __Inf                      10056b20     libcpmt:xvalues.obj
 0003:00000b30       __Nan                      10056b30     libcpmt:xvalues.obj
 0003:00000b40       __Snan                     10056b40     libcpmt:xvalues.obj
 0003:00000b50       __Eps                      10056b50     libcpmt:xvalues.obj
 0003:00000b60       __Rteps                    10056b60     libcpmt:xvalues.obj
 0003:00000b70       __Xbig                     10056b70     libcpmt:xvalues.obj
 0003:00000b78       __LEps                     10056b78     libcpmt:xlvalues.obj
 0003:00000b88       __LRteps                   10056b88     libcpmt:xlvalues.obj
 0003:00000b98       __LXbig                    10056b98     libcpmt:xlvalues.obj
 0003:00000ba0       __LDenorm                  10056ba0     libcpmt:xlvalues.obj
 0003:00000bb0       __LInf                     10056bb0     libcpmt:xlvalues.obj
 0003:00000bc0       __LNan                     10056bc0     libcpmt:xlvalues.obj
 0003:00000bd0       __LSnan                    10056bd0     libcpmt:xlvalues.obj
 0003:00000be0       __fltused                  10056be0     LIBCMT:fpinit.obj
 0003:00000be4       __ldused                   10056be4     LIBCMT:fpinit.obj
 0003:00000bf0       __iob                      10056bf0     LIBCMT:_file.obj
 0003:00000e70       ___lconv                   10056e70     LIBCMT:lconv.obj
 0003:00000e74       ___lconv_static_decimal    10056e74     LIBCMT:lconv.obj
 0003:00000e78       ___lconv_c                 10056e78     LIBCMT:lconv.obj
 0003:00000ec8       ___lconv_static_W_decimal  10056ec8     LIBCMT:lconv.obj
 0003:00000ed0       ??_R0?AVtype_info@@@8      10056ed0     LIBCMT:typinfo.obj
 0003:00001068       ??_R0?AVbad_exception@std@@@8 10057068     LIBCMT:frame.obj
 0003:00001090       __pctype                   10057090     LIBCMT:ctype.obj
 0003:00001094       __pwctype                  10057094     LIBCMT:ctype.obj
 0003:0000120c       ___abort_behavior          1005720c     LIBCMT:abort.obj
 0003:00001210       ___security_cookie         10057210     LIBCMT:gs_cookie.obj
 0003:00001214       ___security_cookie_complement 10057214     LIBCMT:gs_cookie.obj
 0003:00001220       ___nullstring              10057220     LIBCMT:output.obj
 0003:00001224       ___wnullstring             10057224     LIBCMT:output.obj
 0003:00001234       ___flsindex                10057234     LIBCMT:tidtable.obj
 0003:00001240       __cfltcvt_tab              10057240     LIBCMT:cmiscdat.obj
 0003:00001268       ___isa_enabled             10057268     LIBCMT:cpu_disp.obj
 0003:00001270       ___badioinfo               10057270     LIBCMT:ioinit.obj
 0003:000012b0       ___wclocalestr             100572b0     LIBCMT:nlsdata.obj
 0003:000012b8       ___lc_time_c               100572b8     LIBCMT:nlsdata.obj
 0003:0000141c       ___ptlocinfo               1005741c     LIBCMT:nlsdata.obj
 0003:00001420       ___initiallocinfo          10057420     LIBCMT:nlsdata.obj
 0003:000014d8       ___mb_cur_max              100574d8     LIBCMT:nlsdata.obj
 0003:000014dc       ___globallocalestatus      100574dc     LIBCMT:glstatus.obj
 0003:000014e0       __d_inf                    100574e0     LIBCMT:util.obj
 0003:000014e8       __d_ind                    100574e8     LIBCMT:util.obj
 0003:000014f0       __d_max                    100574f0     LIBCMT:util.obj
 0003:000014f8       __d_min                    100574f8     LIBCMT:util.obj
 0003:00001500       __d_mzero                  10057500     LIBCMT:util.obj
 0003:00001610       __half                     10057610     LIBCMT:pow.obj
 0003:00001630       ___ptmbcinfo               10057630     LIBCMT:mbctype.obj
 0003:00001728       __mbctype                  10057728     LIBCMT:mbctype.obj
 0003:00001830       __mbcasemap                10057830     LIBCMT:mbctype.obj
 0003:00001930       ___initialmbcinfo          10057930     LIBCMT:mbctype.obj
 0003:00001b78       __timezone                 10057b78     LIBCMT:timeset.obj
 0003:00001b7c       __daylight                 10057b7c     LIBCMT:timeset.obj
 0003:00001b80       __dstbias                  10057b80     LIBCMT:timeset.obj
 0003:00001c08       __tzname                   10057c08     LIBCMT:timeset.obj
 0003:00001c10       __matherr_flag             10057c10     LIBCMT:matherr.obj
 0003:00001c20       __NLG_Destination          10057c20     LIBCMT:exsup.obj
 0003:00001c30       __lookuptrailbytes         10057c30     LIBCMT:read.obj
 0003:00001d30       __days                     10057d30     LIBCMT:days.obj
 0003:00001d64       __lpdays                   10057d64     LIBCMT:days.obj
 0003:00001dc8       __confh                    10057dc8     LIBCMT:initcon.obj
 0003:00001dd0       __pow10pos                 10057dd0     LIBCMT:constpow.obj
 0003:00001f30       __pow10neg                 10057f30     LIBCMT:constpow.obj
 0003:000020a4       ?id@?$num_put@DV?$ostreambuf_iterator@DU?$char_traits@D@std@@@std@@@std@@2V0locale@2@A 100580a4     NeuralNetwork.obj
 0003:000020a8       ?id@?$codecvt@DDH@std@@2V0locale@2@A 100580a8     NeuralNetwork.obj
 0003:000020ac       ?_Stinit@?1??_Init@?$basic_filebuf@DU?$char_traits@D@std@@@std@@IAEXPAU_iobuf@@W4_Initfl@23@@Z@4HA 100580ac     NeuralNetwork.obj
 0003:000020b0       ?id@?$numpunct@D@std@@2V0locale@2@A 100580b0     NeuralNetwork.obj
 0003:000020b4       ?_Psave@?$_Facetptr@V?$ctype@D@std@@@std@@2PBVfacet@locale@2@B 100580b4     NeuralNetwork.obj
 0003:000020b8       ?_Psave@?$_Facetptr@V?$num_put@DV?$ostreambuf_iterator@DU?$char_traits@D@std@@@std@@@std@@@std@@2PBVfacet@locale@2@B 100580b8     NeuralNetwork.obj
 0003:000020bc       ?_Psave@?$_Facetptr@V?$codecvt@DDH@std@@@std@@2PBVfacet@locale@2@B 100580bc     NeuralNetwork.obj
 0003:000020c0       ?_Psave@?$_Facetptr@V?$numpunct@D@std@@@std@@2PBVfacet@locale@2@B 100580c0     NeuralNetwork.obj
 0003:000020c8       ?HCtx@@3PAPAUHumanContext@@A 100580c8     stig.obj
 0003:000020f0       ?joyPresent@@3HA           100580f0     stig.obj
 0003:00004120       ?PrefHdle@@3PAXA           1005a120     pref.obj
 0003:0000459c       ?id@?$num_put@DV?$back_insert_iterator@V?$basic_string@DU?$char_traits@D@std@@V?$allocator@D@2@@std@@@std@@@std@@2V0locale@2@A 1005a59c     libcpmt:xthrow.obj
 0003:000045a0       ?id@?$num_put@_WV?$back_insert_iterator@V?$basic_string@_WU?$char_traits@_W@std@@V?$allocator@_W@2@@std@@@std@@@std@@2V0locale@2@A 1005a5a0     libcpmt:xthrow.obj
 0003:000045a4       ?id@?$numpunct@_W@std@@2V0locale@2@A 1005a5a4     libcpmt:xthrow.obj
 0003:000045a8       ?_Id_cnt@id@locale@std@@0HA 1005a5a8     libcpmt:locale0.obj
 0003:000045ac       ?_Clocptr@_Locimp@locale@std@@0PAV123@A 1005a5ac     libcpmt:locale0.obj
 0003:000045b8       ?id@?$ctype@D@std@@2V0locale@2@A 1005a5b8     libcpmt:locale0.obj
 0003:000045bc       ?id@?$codecvt@GDH@std@@2V0locale@2@A 1005a5bc     libcpmt:locale0.obj
 0003:000045c4       ?id@?$ctype@_W@std@@2V0locale@2@A 1005a5c4     libcpmt:locale0.obj
 0003:000045c8       ?id@?$codecvt@_WDH@std@@2V0locale@2@A 1005a5c8     libcpmt:locale0.obj
 0003:000045d0       ?id@?$ctype@G@std@@2V0locale@2@A 1005a5d0     libcpmt:locale0.obj
 0003:0000460c       ?_Index@ios_base@std@@0HA  1005a60c     libcpmt:ios.obj
 0003:00004614       ?_Ptr_cin@std@@3PAV?$basic_istream@DU?$char_traits@D@std@@@1@A 1005a614     libcpmt:iosptrs.obj
 0003:00004618       ?_Ptr_cout@std@@3PAV?$basic_ostream@DU?$char_traits@D@std@@@1@A 1005a618     libcpmt:iosptrs.obj
 0003:0000461c       ?_Ptr_cerr@std@@3PAV?$basic_ostream@DU?$char_traits@D@std@@@1@A 1005a61c     libcpmt:iosptrs.obj
 0003:00004620       ?_Ptr_clog@std@@3PAV?$basic_ostream@DU?$char_traits@D@std@@@1@A 1005a620     libcpmt:iosptrs.obj
 0003:00004624       ?_Ptr_wcin@std@@3PAV?$basic_istream@_WU?$char_traits@_W@std@@@1@A 1005a624     libcpmt:iosptrs.obj
 0003:00004628       ?_Ptr_wcout@std@@3PAV?$basic_ostream@_WU?$char_traits@_W@std@@@1@A 1005a628     libcpmt:iosptrs.obj
 0003:0000462c       ?_Ptr_wcerr@std@@3PAV?$basic_ostream@_WU?$char_traits@_W@std@@@1@A 1005a62c     libcpmt:iosptrs.obj
 0003:00004630       ?_Ptr_wclog@std@@3PAV?$basic_ostream@_WU?$char_traits@_W@std@@@1@A 1005a630     libcpmt:iosptrs.obj
 0003:00004664       ?id@?$num_get@DV?$istreambuf_iterator@DU?$char_traits@D@std@@@std@@@std@@2V0locale@2@A 1005a664     libcpmt:locale.obj
 0003:0000466c       ?id@?$time_put@_WV?$ostreambuf_iterator@_WU?$char_traits@_W@std@@@std@@@std@@2V0locale@2@A 1005a66c     libcpmt:wlocale.obj
 0003:00004670       ?id@?$num_get@_WV?$istreambuf_iterator@_WU?$char_traits@_W@std@@@std@@@std@@2V0locale@2@A 1005a670     libcpmt:wlocale.obj
 0003:00004674       ?id@?$num_put@_WV?$ostreambuf_iterator@_WU?$char_traits@_W@std@@@std@@@std@@2V0locale@2@A 1005a674     libcpmt:wlocale.obj
 0003:00004678       ?id@?$collate@_W@std@@2V0locale@2@A 1005a678     libcpmt:wlocale.obj
 0003:0000467c       ?id@?$messages@_W@std@@2V0locale@2@A 1005a67c     libcpmt:wlocale.obj
 0003:00004680       ?id@?$money_get@_WV?$istreambuf_iterator@_WU?$char_traits@_W@std@@@std@@@std@@2V0locale@2@A 1005a680     libcpmt:wlocale.obj
 0003:00004684       ?id@?$money_put@_WV?$ostreambuf_iterator@_WU?$char_traits@_W@std@@@std@@@std@@2V0locale@2@A 1005a684     libcpmt:wlocale.obj
 0003:00004688       ?id@?$moneypunct@_W$0A@@std@@2V0locale@2@A 1005a688     libcpmt:wlocale.obj
 0003:0000468c       ?id@?$moneypunct@_W$00@std@@2V0locale@2@A 1005a68c     libcpmt:wlocale.obj
 0003:00004690       ?id@?$time_get@_WV?$istreambuf_iterator@_WU?$char_traits@_W@std@@@std@@@std@@2V0locale@2@A 1005a690     libcpmt:wlocale.obj
 0003:00004694       ?id@?$num_get@GV?$istreambuf_iterator@GU?$char_traits@G@std@@@std@@@std@@2V0locale@2@A 1005a694     libcpmt:wlocale.obj
 0003:00004698       ?id@?$num_put@GV?$ostreambuf_iterator@GU?$char_traits@G@std@@@std@@@std@@2V0locale@2@A 1005a698     libcpmt:wlocale.obj
 0003:0000469c       ?id@?$numpunct@G@std@@2V0locale@2@A 1005a69c     libcpmt:wlocale.obj
 0003:000046a0       ?id@?$collate@G@std@@2V0locale@2@A 1005a6a0     libcpmt:wlocale.obj
 0003:000046a4       ?id@?$messages@G@std@@2V0locale@2@A 1005a6a4     libcpmt:wlocale.obj
 0003:000046a8       ?id@?$money_get@GV?$istreambuf_iterator@GU?$char_traits@G@std@@@std@@@std@@2V0locale@2@A 1005a6a8     libcpmt:wlocale.obj
 0003:000046ac       ?id@?$money_put@GV?$ostreambuf_iterator@GU?$char_traits@G@std@@@std@@@std@@2V0locale@2@A 1005a6ac     libcpmt:wlocale.obj
 0003:000046b0       ?id@?$moneypunct@G$0A@@std@@2V0locale@2@A 1005a6b0     libcpmt:wlocale.obj
 0003:000046b4       ?id@?$moneypunct@G$00@std@@2V0locale@2@A 1005a6b4     libcpmt:wlocale.obj
 0003:000046b8       ?id@?$time_get@GV?$istreambuf_iterator@GU?$char_traits@G@std@@@std@@@std@@2V0locale@2@A 1005a6b8     libcpmt:wlocale.obj
 0003:000046bc       ?id@?$time_put@GV?$ostreambuf_iterator@GU?$char_traits@G@std@@@std@@@std@@2V0locale@2@A 1005a6bc     libcpmt:wlocale.obj
 0003:000046c4       ?id@?$collate@D@std@@2V0locale@2@A 1005a6c4     libcpmt:xlocale.obj
 0003:000046c8       ?id@?$messages@D@std@@2V0locale@2@A 1005a6c8     libcpmt:xlocale.obj
 0003:000046cc       ?id@?$money_get@DV?$istreambuf_iterator@DU?$char_traits@D@std@@@std@@@std@@2V0locale@2@A 1005a6cc     libcpmt:xlocale.obj
 0003:000046d0       ?id@?$money_put@DV?$ostreambuf_iterator@DU?$char_traits@D@std@@@std@@@std@@2V0locale@2@A 1005a6d0     libcpmt:xlocale.obj
 0003:000046d4       ?id@?$moneypunct@D$0A@@std@@2V0locale@2@A 1005a6d4     libcpmt:xlocale.obj
 0003:000046d8       ?id@?$moneypunct@D$00@std@@2V0locale@2@A 1005a6d8     libcpmt:xlocale.obj
 0003:000046dc       ?id@?$time_get@DV?$istreambuf_iterator@DU?$char_traits@D@std@@@std@@@std@@2V0locale@2@A 1005a6dc     libcpmt:xlocale.obj
 0003:000046e0       ?id@?$time_put@DV?$ostreambuf_iterator@DU?$char_traits@D@std@@@std@@@std@@2V0locale@2@A 1005a6e0     libcpmt:xlocale.obj
 0003:000046e8       __FZero                    1005a6e8     libcpmt:xfvalues.obj
 0003:000046f0       __Zero                     1005a6f0     libcpmt:xvalues.obj
 0003:000046f8       __LZero                    1005a6f8     libcpmt:xlvalues.obj
 0003:00004704       ___fastflag                1005a704     LIBCMT:fpinit.obj
 0003:00004708       __cflush                   1005a708     LIBCMT:_file.obj
 0003:0000470c       ___lconv_static_null       1005a70c     LIBCMT:lconv.obj
 0003:00004710       ___lconv_static_W_null     1005a710     LIBCMT:lconv.obj
 0003:00004718       __aenvptr                  1005a718     LIBCMT:dllcrt0.obj
 0003:0000471c       __wenvptr                  1005a71c     LIBCMT:dllcrt0.obj
 0003:00004720       __umaskval                 1005a720     LIBCMT:crt0dat.obj
 0003:00004724       __exitflag                 1005a724     LIBCMT:crt0dat.obj
 0003:00004728       __C_Termination_Done       1005a728     LIBCMT:crt0dat.obj
 0003:0000472c       ___winitenv                1005a72c     LIBCMT:crt0dat.obj
 0003:00004730       ___initenv                 1005a730     LIBCMT:crt0dat.obj
 0003:00004734       __C_Exit_Done              1005a734     LIBCMT:crt0dat.obj
 0003:00004738       ___argc                    1005a738     LIBCMT:crt0dat.obj
 0003:0000473c       ___argv                    1005a73c     LIBCMT:crt0dat.obj
 0003:00004740       ___wargv                   1005a740     LIBCMT:crt0dat.obj
 0003:00004744       __environ                  1005a744     LIBCMT:crt0dat.obj
 0003:00004748       __wenviron                 1005a748     LIBCMT:crt0dat.obj
 0003:0000474c       __pgmptr                   1005a74c     LIBCMT:crt0dat.obj
 0003:00004750       __wpgmptr                  1005a750     LIBCMT:crt0dat.obj
 0003:000048a8       __maxwait                  1005a8a8     LIBCMT:crtheap.obj
 0003:000048b0       ?_pnhHeap@@3P6AHI@ZA       1005a8b0     LIBCMT:handler.obj
 0003:000048b4       ___pInvalidArgHandler      1005a8b4     LIBCMT:invarg.obj
 0003:000048b8       __stdbuf                   1005a8b8     LIBCMT:_sftbuf.obj
 0003:000048c4       ?__pInconsistency@@3P6AXXZA 1005a8c4     LIBCMT:hooks.obj
 0003:000048c8       ___app_type                1005a8c8     LIBCMT:crt0msg.obj
 0003:00004ef8       ___pPurecall               1005aef8     LIBCMT:inithelp.obj
 0003:00004efc       __crtheap                  1005aefc     LIBCMT:heapinit.obj
 0003:00004f00       ___isa_available           1005af00     LIBCMT:cpu_disp.obj
 0003:00004f04       ___favor                   1005af04     LIBCMT:cpu_disp.obj
 0003:00004f08       ___pioinfo                 1005af08     LIBCMT:ioinit.obj
 0003:00005010       __newmode                  1005b010     LIBCMT:_newmode.obj
 0003:00005138       ___mblocalename            1005b138     LIBCMT:mbctype.obj
 0003:0000513c       ___mbcodepage              1005b13c     LIBCMT:mbctype.obj
 0003:00005140       ___ismbcodepage            1005b140     LIBCMT:mbctype.obj
 0003:00005144       ___mbulinfo                1005b144     LIBCMT:mbctype.obj
 0003:00005478       ___locale_changed          1005b478     LIBCMT:wsetloca.obj
 0003:0000553c       __outputformat             1005b53c     LIBCMT:outputformat.obj
 0003:00005540       ___error_mode              1005b540     LIBCMT:errmode.obj
 0003:00005558       ?pArgList@UnDecorator@@0PAVReplicator@@A 1005b558     LIBCMT:undname.obj
 0003:0000555c       ?pZNameList@UnDecorator@@0PAVReplicator@@A 1005b55c     LIBCMT:undname.obj
 0003:00005560       ?pTemplateArgList@UnDecorator@@0PAVReplicator@@A 1005b560     LIBCMT:undname.obj
 0003:00005564       ?gName@UnDecorator@@0PBDB  1005b564     LIBCMT:undname.obj
 0003:00005568       ?name@UnDecorator@@0PBDB   1005b568     LIBCMT:undname.obj
 0003:0000556c       ?outputString@UnDecorator@@0PADA 1005b56c     LIBCMT:undname.obj
 0003:00005570       ?maxStringLength@UnDecorator@@0HA 1005b570     LIBCMT:undname.obj
 0003:00005574       ?disableFlags@UnDecorator@@0KA 1005b574     LIBCMT:undname.obj
 0003:00005578       ?fExplicitTemplateParams@UnDecorator@@0_NA 1005b578     LIBCMT:undname.obj
 0003:00005579       ?fGetTemplateArgumentList@UnDecorator@@0_NA 1005b579     LIBCMT:undname.obj
 0003:0000557c       ?m_pGetParameter@UnDecorator@@0P6APADJ@ZA 1005b57c     LIBCMT:undname.obj
 0003:00005594       __commode                  1005b594     LIBCMT:ncommode.obj
 0003:00005598       __fmode                    1005b598     LIBCMT:txtmode.obj
 0003:0000559c       __debugger_hook_dummy      1005b59c     <common>
 0003:000055a0       __nhandle                  1005b5a0     <common>
 0003:000055a4       ___use_sse2_mathfcns       1005b5a4     <common>
 0003:000055a8       __pmatherr                 1005b5a8     <common>
 0003:000055c0       _encodedKERNEL32Functions  1005b5c0     <common>
 0003:00005634       ___dyn_tls_init_callback   1005b634     <common>
 0003:00005638       ___onexitend               1005b638     <common>
 0003:0000563c       ___onexitbegin             1005b63c     <common>
 0003:00005640       ___mbctype_initialized     1005b640     <common>
 0003:00005644       ___env_initialized         1005b644     <common>
 0003:00005648       __acmdln                   1005b648     <common>
 0003:0000564c       ___piob                    1005b64c     <common>
 0003:00005650       __nstream                  1005b650     <common>
 0003:00005660       __bufin                    1005b660     <common>

 entry point at        0001:0001b503

 Static symbols

 0001:000023ed       __catch$??$?6U?$char_traits@D@std@@@std@@YAAAV?$basic_ostream@DU?$char_traits@D@std@@@0@AAV10@PBD@Z$0 100033ed f i NeuralNetwork.obj
 0001:0000270c       __catch$??$_Uninit_copy@V?$_Vector_const_iterator@V?$_Vector_val@U?$_Simple_types@UNeuron@@@std@@@std@@@std@@PAUNeuron@@V?$allocator@UNeuron@@@2@@std@@YAPAUNeuron@@V?$_Vector_const_iterator@V?$_Vector_val@U?$_Simple_types@UNeuron@@@std@@@std@@@0@0PAU1@AAU?$_Wrap_alloc@V?$allocator@UNeuron@@@std@@@0@U_Nonscalar_ptr_iterator_tag@0@@Z$0 1000370c f i NeuralNetwork.obj
 0001:000027ae       __catch$??$_Uninit_copy@V?$_Vector_const_iterator@V?$_Vector_val@U?$_Simple_types@V?$vector@MV?$allocator@M@std@@@std@@@std@@@std@@@std@@PAV?$vector@MV?$allocator@M@std@@@2@V?$allocator@V?$vector@MV?$allocator@M@std@@@std@@@2@@std@@YAPAV?$vector@MV?$allocator@M@std@@@0@V?$_Vector_const_iterator@V?$_Vector_val@U?$_Simple_types@V?$vector@MV?$allocator@M@std@@@std@@@std@@@std@@@0@0PAV10@AAU?$_Wrap_alloc@V?$allocator@V?$vector@MV?$allocator@M@std@@@std@@@std@@@0@U_Nonscalar_ptr_iterator_tag@0@@Z$0 100037ae f i NeuralNetwork.obj
 0001:000028aa       __catch$??$_Uninit_move@PAVNeuronLayer@@PAV1@V?$allocator@VNeuronLayer@@@std@@V1@@std@@YAPAVNeuronLayer@@PAV1@00AAU?$_Wrap_alloc@V?$allocator@VNeuronLayer@@@std@@@0@0U_Nonscalar_ptr_iterator_tag@0@@Z$0 100038aa f i NeuralNetwork.obj
 0001:00003134       __catch$??0?$vector@MV?$allocator@M@std@@@std@@QAE@ABV01@@Z$0 10004134 f i NeuralNetwork.obj
 0001:000031d4       __catch$??0?$vector@UNeuron@@V?$allocator@UNeuron@@@std@@@std@@QAE@ABV01@@Z$0 100041d4 f i NeuralNetwork.obj
 0001:00003281       __catch$??0?$vector@V?$vector@MV?$allocator@M@std@@@std@@V?$allocator@V?$vector@MV?$allocator@M@std@@@std@@@2@@std@@QAE@ABV01@@Z$0 10004281 f i NeuralNetwork.obj
 0001:000039b2       __catch$??6?$basic_ostream@DU?$char_traits@D@std@@@std@@QAEAAV01@M@Z$0 100049b2 f i NeuralNetwork.obj
 0001:0000411b       __catch$?_Copy@?$basic_string@DU?$char_traits@D@std@@V?$allocator@D@2@@std@@QAEXII@Z$0 1000511b f i NeuralNetwork.obj
 0001:00004158       __catch$?_Copy@?$basic_string@DU?$char_traits@D@std@@V?$allocator@D@2@@std@@QAEXII@Z$1 10005158 f i NeuralNetwork.obj
 0001:00004dd4       __catch$?_Init@?$numpunct@D@std@@IAEXABV_Locinfo@2@_N@Z$0 10005dd4 f i NeuralNetwork.obj
 0001:00005018       __catch$?_Ipfx@?$basic_istream@DU?$char_traits@D@std@@@std@@QAE_N_N@Z$0 10006018 f i NeuralNetwork.obj
 0001:00005518       __catch$?_Osfx@?$basic_ostream@DU?$char_traits@D@std@@@std@@QAEXXZ$0 10006518 f i NeuralNetwork.obj
 0001:00005714       __catch$?_Reallocate@?$vector@V?$vector@MV?$allocator@M@std@@@std@@V?$allocator@V?$vector@MV?$allocator@M@std@@@std@@@2@@std@@IAEXI@Z$0 10006714 f i NeuralNetwork.obj
 0001:00005804       __catch$?_Reallocate@?$vector@V?$vector@V?$vector@MV?$allocator@M@std@@@std@@V?$allocator@V?$vector@MV?$allocator@M@std@@@std@@@2@@std@@V?$allocator@V?$vector@V?$vector@MV?$allocator@M@std@@@std@@V?$allocator@V?$vector@MV?$allocator@M@std@@@std@@@2@@std@@@2@@std@@IAEXI@Z$0 10006804 f i NeuralNetwork.obj
 0001:0000590f       __catch$?_Reallocate@?$vector@VNeuronLayer@@V?$allocator@VNeuronLayer@@@std@@@std@@IAEXI@Z$0 1000690f f i NeuralNetwork.obj
 0001:0000720c       __catch$?getline@?$basic_istream@DU?$char_traits@D@std@@@std@@QAEAAV12@PAD_JD@Z$0 1000820c f i NeuralNetwork.obj
 0001:00008127       __catch$?put@?$basic_ostream@DU?$char_traits@D@std@@@std@@QAEAAV12@D@Z$0 10009127 f i NeuralNetwork.obj
 0001:000091e8       __catch$??$_Uninit_move@PAUNeuron@@PAU1@V?$allocator@UNeuron@@@std@@U1@@std@@YAPAUNeuron@@PAU1@00AAU?$_Wrap_alloc@V?$allocator@UNeuron@@@std@@@0@0U_Nonscalar_ptr_iterator_tag@0@@Z$0 1000a1e8 f i NeuronLayer.obj
 0001:00009634       __catch$?_Reallocate@?$vector@UNeuron@@V?$allocator@UNeuron@@@std@@@std@@IAEXI@Z$0 1000a634 f i NeuronLayer.obj
 0001:00010b70       ?GfOut@@YAXPBDZZ           10011b70 f   stig.obj
 0001:00010b80       ?initTrack@@YAXHPAUtTrack@@PAXPAPAXPAUSituation@@@Z 10011b80 f   stig.obj
 0001:00010ef0       ?drive@@YAXHPAUCarElt@@PAUSituation@@@Z 10011ef0 f   stig.obj
 0001:00011900       ?newrace@@YAXHPAUCarElt@@PAUSituation@@@Z 10012900 f   stig.obj
 0001:00011f50       ?pitcmd@@YAHHPAUCarElt@@PAUSituation@@@Z 10012f50 f   stig.obj
 0001:000120e0       ?shutdown@@YAXH@Z          100130e0 f   stig.obj
 0001:000121b0       ?InitFuncPt@@YAHHPAX@Z     100131b0 f   stig.obj
 0001:00012360       ?updateKeys@@YAXXZ         10013360 f   stig.obj
 0001:00012440       ?onKeyAction@@YAHEHH@Z     10013440 f   stig.obj
 0001:00012460       ?onSKeyAction@@YAHHHH@Z    10013460 f   stig.obj
 0001:00012480       ?common_drive@@YAXHPAUCarElt@@PAUSituation@@@Z 10013480 f   stig.obj
 0001:00013d40       $LN462                     10014d40     stig.obj
 0001:00013d58       $LN463                     10014d58     stig.obj
 0001:00013d70       $LN464                     10014d70     stig.obj
 0001:00013d88       $LN465                     10014d88     stig.obj
 0001:00013da0       $LN466                     10014da0     stig.obj
 0001:00013dc0       ?getAutoClutch@@YAMHHHPAUCarElt@@@Z 10014dc0 f   stig.obj
 0001:00013e60       ?GfOut@@YAXPBDZZ           10014e60 f   pref.obj
 0001:00015d69       _tidy_global               10016d69 f   libcpmt:locale0.obj
 0001:00016170       $$000000                   10017170     LIBCMT:ceil_pentium4.obj
 0001:0001628d       ?CatchGuardHandler@@YA?AW4_EXCEPTION_DISPOSITION@@PAUEHExceptionRecord@@PAUCatchGuardRN@@PAX2@Z 1001728d f   LIBCMT:_trnsctrl_.obj
 0001:000162be       ?TranslatorGuardHandler@@YA?AW4_EXCEPTION_DISPOSITION@@PAUEHExceptionRecord@@PAUTranslatorGuardRN@@PAX2@Z 100172be f   LIBCMT:_trnsctrl_.obj
 0001:00016670       $$000000                   10017670     LIBCMT:cos_sse2_precise.obj
 0001:00016830       $$000000                   10017830     LIBCMT:exp_sse2_precise.obj
 0001:00016b00       $$000000                   10017b00     LIBCMT:sin_sse2_precise.obj
 0001:00016cd0       $$000000                   10017cd0     LIBCMT:sqrt_sse2_precise.obj
 0001:00016ee0       __onexit_nolock            10017ee0 f   LIBCMT:onexit.obj
 0001:00016ff0       $$000000                   10017ff0     LIBCMT:memmove.obj
 0001:00017240       LeadUpVec                  10018240     LIBCMT:memmove.obj
 0001:000172bc       UnwindUpVec                100182bc     LIBCMT:memmove.obj
 0001:00017328       TrailUpVec                 10018328     LIBCMT:memmove.obj
 0001:000173cc       LeadDownVec                100183cc     LIBCMT:memmove.obj
 0001:00017458       UnwindDownVec              10018458     LIBCMT:memmove.obj
 0001:000174c4       TrailDownVec               100184c4     LIBCMT:memmove.obj
 0001:000176c0       $$000000                   100186c0     LIBCMT:strcspn.obj
 0001:00017a5a       _flsall                    10018a5a f   LIBCMT:fflush.obj
 0001:0001820e       _vscan_fn                  1001920e f   LIBCMT:sscanf.obj
 0001:000185d0       $$000000                   100195d0     LIBCMT:memcpy.obj
 0001:00018820       LeadUpVec                  10019820     LIBCMT:memcpy.obj
 0001:0001889c       UnwindUpVec                1001989c     LIBCMT:memcpy.obj
 0001:00018908       TrailUpVec                 10019908     LIBCMT:memcpy.obj
 0001:000189ac       LeadDownVec                100199ac     LIBCMT:memcpy.obj
 0001:00018a38       UnwindDownVec              10019a38     LIBCMT:memcpy.obj
 0001:00018aa4       TrailDownVec               10019aa4     LIBCMT:memcpy.obj
 0001:00018c20       $$000000                   10019c20     LIBCMT:memset.obj
 0001:00018f10       $$000000                   10019f10     LIBCMT:chkstk.obj
 0001:00018f40       $$000000                   10019f40     LIBCMT:acos_sse2_precise.obj
 0001:00019460       $$000000                   1001a460     LIBCMT:tan_sse2_precise.obj
 0001:00019770       $$000000                   1001a770     LIBCMT:strchr.obj
 0001:000198a0       $$000000                   1001a8a0     LIBCMT:strncpy.obj
 0001:000199d0       $$000000                   1001a9d0     LIBCMT:strrchr.obj
 0001:00019c90       $$000000                   1001ac90     LIBCMT:87ctriga.obj
 0001:00019cb0       $$000000                   1001acb0     LIBCMT:ftol2.obj
 0001:00019d60       $$000000                   1001ad60     LIBCMT:pow_sse2_precise.obj
 0001:0001aa10       $$000000                   1001ba10     LIBCMT:asin_sse2_precise.obj
 0001:0001af60       $$000000                   1001bf60     LIBCMT:atan_sse2_precise.obj
 0001:0001b270       $$000000                   1001c270     LIBCMT:floor_pentium4.obj
 0001:0001b526       ___DllMainCRTStartup       1001c526 f   LIBCMT:dllcrt0.obj
 0001:0001b660       $$000000                   1001c660     LIBCMT:sqrt.obj
 0001:0001b720       $$000000                   1001c720     LIBCMT:asin.obj
 0001:0001b870       $$000000                   1001c870     LIBCMT:acos.obj
 0001:0001b9c0       $$000000                   1001c9c0     LIBCMT:sin.obj
 0001:0001baf0       $$000000                   1001caf0     LIBCMT:cos.obj
 0001:0001bc20       $$000000                   1001cc20     LIBCMT:tan.obj
 0001:0001c05d       __initterm                 1001d05d f   LIBCMT:crt0dat.obj
 0001:0001c0ad       _doexit                    1001d0ad f   LIBCMT:crt0dat.obj
 0001:0001c42b       ?CallCatchBlock@@YAPAXPAUEHExceptionRecord@@PAUEHRegistrationNode@@PAU_CONTEXT@@PBU_s_FuncInfo@@PAXHK@Z 1001d42b f   LIBCMT:frame.obj
 0001:0001c5f9       ?CallUnexpected@@YAXPBU_s_ESTypeList@@@Z 1001d5f9 f   LIBCMT:frame.obj
 0001:0001c621       __catch$?CallUnexpected@@YAXPBU_s_ESTypeList@@@Z$0 1001d621 f   LIBCMT:frame.obj
 0001:0001c639       ?CatchIt@@YAXPAUEHExceptionRecord@@PAUEHRegistrationNode@@PAU_CONTEXT@@PAXPBU_s_FuncInfo@@PBU_s_HandlerType@@PBU_s_CatchableType@@PBU_s_TryBlockMapEntry@@H1E@Z 1001d639 f   LIBCMT:frame.obj
 0001:0001c6b4       ?ExFilterRethrow@@YAHPAU_EXCEPTION_POINTERS@@@Z 1001d6b4 f   LIBCMT:frame.obj
 0001:0001c701       ?FindHandler@@YAXPAUEHExceptionRecord@@PAUEHRegistrationNode@@PAU_CONTEXT@@PAXPBU_s_FuncInfo@@EH1@Z 1001d701 f   LIBCMT:frame.obj
 0001:0001ca9c       ?FindHandlerForForeignException@@YAXPAUEHExceptionRecord@@PAUEHRegistrationNode@@PAU_CONTEXT@@PAXPBU_s_FuncInfo@@HH1@Z 1001da9c f   LIBCMT:frame.obj
 0001:0001cbb6       ?IsInExceptionSpec@@YAEPAUEHExceptionRecord@@PBU_s_ESTypeList@@@Z 1001dbb6 f   LIBCMT:frame.obj
 0001:0001d0f0       $$000000                   1001e0f0     LIBCMT:strlen.obj
 0001:0001d986       ?__crtLCMapStringA_stat@@YAHPAUlocaleinfo_struct@@PB_WKPBDHPADHHH@Z 1001e986 f   LIBCMT:a_map.obj
 0001:0001dd88       ?x_ismbbtype_l@@YAHPAUlocaleinfo_struct@@IHH@Z 1001ed88 f   LIBCMT:ismbbyte.obj
 0001:0001e490       $$000000                   1001f490     LIBCMT:strcmp.obj
 0001:0001e6b0       $$000000                   1001f6b0     LIBCMT:memchr.obj
 0001:0001e760       $$000000                   1001f760     LIBCMT:llmul.obj
 0001:0001e7a0       $$000000                   1001f7a0     LIBCMT:ulldiv.obj
 0001:0001ff00       $LN1280                    10020f00     LIBCMT:memcmp.obj
 0001:000200a9       ___crtEnumLocalesProc@4    100210a9 f   LIBCMT:winapinls.obj
 0001:00021114       $LN272                     10022114     LIBCMT:output.obj
 0001:00021140       $$000000                   10022140     LIBCMT:sehprolg4.obj
 0001:000215e5       $LN79                      100225e5     LIBCMT:libm_error.obj
 0001:00021a40       $$000000                   10022a40     LIBCMT:lowhelpr.obj
 0001:00021b20       $$000000                   10022b20     LIBCMT:87ctran.obj
 0001:00021fca       __cftoe2_l                 10022fca f   LIBCMT:cvt.obj
 0001:000221e5       __cftof2_l                 100231e5 f   LIBCMT:cvt.obj
 0001:0002260f       __shift                    1002360f f   LIBCMT:cvt.obj
 0001:00024436       ___check_float_string      10025436 f   LIBCMT:input.obj
 0001:00024495       __hextodec                 10025495 f   LIBCMT:input.obj
 0001:000244b6       __inc                      100254b6 f   LIBCMT:input.obj
 0001:000255c6       __whiteout                 100265c6 f   LIBCMT:input.obj
 0001:00025ef0       $$000000                   10026ef0     LIBCMT:exsup4.obj
 0001:00025f80       __unwind_handler4          10026f80 f   LIBCMT:exsup4.obj
 0001:000269b0       $$000000                   100279b0     LIBCMT:87triga.obj
 0001:00026a60       $$000000                   10027a60     LIBCMT:87cdisp.obj
 0001:00026ce0       $$000000                   10027ce0     LIBCMT:pow.obj
 0001:00026f70       $$000000                   10027f70     LIBCMT:atan.obj
 0001:00027387       _parse_cmdline             10028387 f   LIBCMT:stdargv.obj
 0001:00027750       $$000000                   10028750     LIBCMT:87disp.obj
 0001:00027920       $$000000                   10028920     LIBCMT:genexcep.obj
 0001:00027980       $$000000                   10028980     LIBCMT:common.obj
 0001:00027b10       $$000000                   10028b10     LIBCMT:asin_pentium4.obj
 0001:00028090       $$000000                   10029090     LIBCMT:acos_pentium4.obj
 0001:000285f0       $$000000                   100295f0     LIBCMT:sin_pentium4.obj
 0001:000287c0       $$000000                   100297c0     LIBCMT:cos_pentium4.obj
 0001:00028970       $$000000                   10029970     LIBCMT:tan_pentium4.obj
 0001:00028efc       _siglookup                 10029efc f   LIBCMT:winsig.obj
 0001:00028f56       ?CPtoLocaleName@@YAPB_WH@Z 10029f56 f   LIBCMT:mbctype.obj
 0001:00028f90       ?getSystemCP@@YAHH@Z       10029f90 f   LIBCMT:mbctype.obj
 0001:00028ffc       ?setSBCS@@YAXPAUthreadmbcinfostruct@@@Z 10029ffc f   LIBCMT:mbctype.obj
 0001:00029065       ?setSBUpLow@@YAXPAUthreadmbcinfostruct@@@Z 1002a065 f   LIBCMT:mbctype.obj
 0001:00029b57       __copytlocinfo_nolock      1002ab57 f   LIBCMT:wsetloca.obj
 0001:0002a034       __wsetlocale_get_all       1002b034 f   LIBCMT:wsetloca.obj
 0001:0002a1a8       __wsetlocale_nolock        1002b1a8 f   LIBCMT:wsetloca.obj
 0001:0002a42f       __wsetlocale_set_cat       1002b42f f   LIBCMT:wsetloca.obj
 0001:0002a861       ?__crtGetStringTypeA_stat@@YAHPAUlocaleinfo_struct@@KPBDHPAGHH@Z 1002b861 f   LIBCMT:a_str.obj
 0001:0002a990       $$000000                   1002b990     LIBCMT:alloca16.obj
 0001:0002c2a0       $LN277                     1002d2a0     LIBCMT:outputs.obj
 0001:0002c2c0       _write_char                1002d2c0 f   LIBCMT:outputs.obj
 0001:0002c2c0       _write_char                1002d2c0 f   LIBCMT:outputs.obj
 0001:0002c306       _write_multi_char          1002d306 f   LIBCMT:outputs.obj
 0001:0002c306       _write_multi_char          1002d306 f   LIBCMT:outputs.obj
 0001:0002c332       _write_string              1002d332 f   LIBCMT:outputs.obj
 0001:0002c332       _write_string              1002d332 f   LIBCMT:outputs.obj
 0001:0002c540       $$000000                   1002d540     LIBCMT:ulldvrm.obj
 0001:0002c5f0       $$000000                   1002d5f0     LIBCMT:exsup.obj
 0001:0002c610       __unwind_handler           1002d610 f   LIBCMT:exsup.obj
 0001:0002c730       $$000000                   1002d730     LIBCMT:exp_pentium4.obj
 0001:0002c9f0       $$000000                   1002d9f0     LIBCMT:87tran.obj
 0001:0002cf10       $$000000                   1002df10     LIBCMT:lldvrm.obj
 0001:0002cff0       $$000000                   1002dff0     LIBCMT:ullshr.obj
 0001:0002d465       ?__crtGetLocaleInfoA_stat@@YAHPAUlocaleinfo_struct@@PB_WKPADH@Z 1002e465 f   LIBCMT:a_loc.obj
 0001:0002ee27       __get_lc_time              1002fe27 f   LIBCMT:inittime.obj
 0001:0002fb60       $$000000                   10030b60     LIBCMT:pow_pentium4.obj
 0001:00030860       $$000000                   10031860     LIBCMT:atan_pentium4.obj
 0001:00030c51       _GetLocaleNameFromDefault  10031c51 f   LIBCMT:getqloc.obj
 0001:00030cc8       _GetLocaleNameFromLangCountry 10031cc8 f   LIBCMT:getqloc.obj
 0001:00030d3c       _GetLocaleNameFromLanguage 10031d3c f   LIBCMT:getqloc.obj
 0001:00030d86       _GetPrimaryLen             10031d86 f   LIBCMT:getqloc.obj
 0001:00030db8       _LangCountryEnumProcEx@12  10031db8 f   LIBCMT:getqloc.obj
 0001:00030fd6       _LanguageEnumProcEx@12     10031fd6 f   LIBCMT:getqloc.obj
 0001:00031087       _ProcessCodePage           10032087 f   LIBCMT:getqloc.obj
 0001:0003111c       _TestDefaultCountry        1003211c f   LIBCMT:getqloc.obj
 0001:00031328       _CountryEnumProc@4         10032328 f   LIBCMT:getqloc_downlevel.obj
 0001:000313d6       _GetLcidFromCountry        100323d6 f   LIBCMT:getqloc_downlevel.obj
 0001:00031416       _GetLcidFromLangCountry    10032416 f   LIBCMT:getqloc_downlevel.obj
 0001:00031493       _GetLcidFromLanguage       10032493 f   LIBCMT:getqloc_downlevel.obj
 0001:000314ec       _GetPrimaryLen             100324ec f   LIBCMT:getqloc_downlevel.obj
 0001:00031516       _LangCountryEnumProc@4     10032516 f   LIBCMT:getqloc_downlevel.obj
 0001:00031709       _LanguageEnumProc@4        10032709 f   LIBCMT:getqloc_downlevel.obj
 0001:000317e2       _LcidFromHexString         100327e2 f   LIBCMT:getqloc_downlevel.obj
 0001:00031831       _ProcessCodePage           10032831 f   LIBCMT:getqloc_downlevel.obj
 0001:000318bc       _TestDefaultCountry        100328bc f   LIBCMT:getqloc_downlevel.obj
 0001:000318de       _TestDefaultLanguage       100328de f   LIBCMT:getqloc_downlevel.obj
 0001:00031946       _TranslateName             10032946 f   LIBCMT:getqloc_downlevel.obj
 0001:00031946       _TranslateName             10032946 f   LIBCMT:getqloc_downlevel.obj
 0001:00031bcc       ___createFile              10032bcc f   LIBCMT:wopen.obj
 0001:00033889       $LN304                     10034889     LIBCMT:strgtold.obj
 0001:0003427d       ___hw_cw_sse2              1003527d f   LIBCMT:ieee87.obj
 0001:00034626       __hw_cw                    10035626 f   LIBCMT:ieee87.obj
 0001:00034700       $$000000                   10035700     LIBCMT:strncmp.obj
 0001:000348bb       _xtow_s@20                 100358bb f   LIBCMT:xtows.obj
 0001:00034f00       $$000000                   10035f00     LIBCMT:_strnicm.obj
 0001:00034f61       ?wcstoxl@@YAKPB_WPAPB_WHH@Z 10035f61 f   LIBCMT:wcstol.obj
 0001:00035300       __unwindfunclet$??0MyCar@@QAE@PAVTrackDesc@@PAUCarElt@@PAUSituation@@@Z$0 10036300 f   mycar.obj
 0001:0003530e       __ehhandler$??0MyCar@@QAE@PAVTrackDesc@@PAUCarElt@@PAUSituation@@@Z 1003630e f   mycar.obj
 0001:00035320       __unwindfunclet$??0NeuralNetwork@@QAE@HHHH@Z$0 10036320 f   NeuralNetwork.obj
 0001:0003532b       __unwindfunclet$??0NeuralNetwork@@QAE@HHHH@Z$1 1003632b f   NeuralNetwork.obj
 0001:00035333       __unwindfunclet$??0NeuralNetwork@@QAE@HHHH@Z$2 10036333 f   NeuralNetwork.obj
 0001:0003533b       __unwindfunclet$??0NeuralNetwork@@QAE@HHHH@Z$3 1003633b f   NeuralNetwork.obj
 0001:00035343       __ehhandler$??0NeuralNetwork@@QAE@HHHH@Z 10036343 f   NeuralNetwork.obj
 0001:0003534d       __unwindfunclet$??0NeuralNetwork@@QAE@V?$basic_string@DU?$char_traits@D@std@@V?$allocator@D@2@@std@@@Z$0 1003634d f   NeuralNetwork.obj
 0001:00035355       __unwindfunclet$??0NeuralNetwork@@QAE@V?$basic_string@DU?$char_traits@D@std@@V?$allocator@D@2@@std@@@Z$1 10036355 f   NeuralNetwork.obj
 0001:00035360       __ehhandler$??0NeuralNetwork@@QAE@V?$basic_string@DU?$char_traits@D@std@@V?$allocator@D@2@@std@@@Z 10036360 f   NeuralNetwork.obj
 0001:0003536a       __unwindfunclet$?getNetworkWeights@NeuralNetwork@@QBE?AV?$vector@V?$vector@V?$vector@MV?$allocator@M@std@@@std@@V?$allocator@V?$vector@MV?$allocator@M@std@@@std@@@2@@std@@V?$allocator@V?$vector@V?$vector@MV?$allocator@M@std@@@std@@V?$allocator@V?$vector@MV?$allocator@M@std@@@std@@@2@@std@@@2@@std@@XZ$0 1003636a f   NeuralNetwork.obj
 0001:00035383       __unwindfunclet$?getNetworkWeights@NeuralNetwork@@QBE?AV?$vector@V?$vector@V?$vector@MV?$allocator@M@std@@@std@@V?$allocator@V?$vector@MV?$allocator@M@std@@@std@@@2@@std@@V?$allocator@V?$vector@V?$vector@MV?$allocator@M@std@@@std@@V?$allocator@V?$vector@MV?$allocator@M@std@@@std@@@2@@std@@@2@@std@@XZ$1 10036383 f   NeuralNetwork.obj
 0001:0003538b       __ehhandler$?getNetworkWeights@NeuralNetwork@@QBE?AV?$vector@V?$vector@V?$vector@MV?$allocator@M@std@@@std@@V?$allocator@V?$vector@MV?$allocator@M@std@@@std@@@2@@std@@V?$allocator@V?$vector@V?$vector@MV?$allocator@M@std@@@std@@V?$allocator@V?$vector@MV?$allocator@M@std@@@std@@@2@@std@@@2@@std@@XZ 1003638b f   NeuralNetwork.obj
 0001:00035395       __unwindfunclet$?exportNetwork@NeuralNetwork@@QAEXV?$basic_string@DU?$char_traits@D@std@@V?$allocator@D@2@@std@@@Z$0 10036395 f   NeuralNetwork.obj
 0001:0003539d       __unwindfunclet$?exportNetwork@NeuralNetwork@@QAEXV?$basic_string@DU?$char_traits@D@std@@V?$allocator@D@2@@std@@@Z$1 1003639d f   NeuralNetwork.obj
 0001:000353a5       __unwindfunclet$?exportNetwork@NeuralNetwork@@QAEXV?$basic_string@DU?$char_traits@D@std@@V?$allocator@D@2@@std@@@Z$2 100363a5 f   NeuralNetwork.obj
 0001:000353b0       __ehhandler$?exportNetwork@NeuralNetwork@@QAEXV?$basic_string@DU?$char_traits@D@std@@V?$allocator@D@2@@std@@@Z 100363b0 f   NeuralNetwork.obj
 0001:000353ba       __unwindfunclet$?importNetwork@NeuralNetwork@@QAEXV?$basic_string@DU?$char_traits@D@std@@V?$allocator@D@2@@std@@@Z$0 100363ba f   NeuralNetwork.obj
 0001:000353c2       __unwindfunclet$?importNetwork@NeuralNetwork@@QAEXV?$basic_string@DU?$char_traits@D@std@@V?$allocator@D@2@@std@@@Z$1 100363c2 f   NeuralNetwork.obj
 0001:000353cd       __unwindfunclet$?importNetwork@NeuralNetwork@@QAEXV?$basic_string@DU?$char_traits@D@std@@V?$allocator@D@2@@std@@@Z$2 100363cd f   NeuralNetwork.obj
 0001:000353d5       __unwindfunclet$?importNetwork@NeuralNetwork@@QAEXV?$basic_string@DU?$char_traits@D@std@@V?$allocator@D@2@@std@@@Z$3 100363d5 f   NeuralNetwork.obj
 0001:000353dd       __unwindfunclet$?importNetwork@NeuralNetwork@@QAEXV?$basic_string@DU?$char_traits@D@std@@V?$allocator@D@2@@std@@@Z$4 100363dd f   NeuralNetwork.obj
 0001:000353e5       __unwindfunclet$?importNetwork@NeuralNetwork@@QAEXV?$basic_string@DU?$char_traits@D@std@@V?$allocator@D@2@@std@@@Z$7 100363e5 f   NeuralNetwork.obj
 0001:000353ed       __unwindfunclet$?importNetwork@NeuralNetwork@@QAEXV?$basic_string@DU?$char_traits@D@std@@V?$allocator@D@2@@std@@@Z$6 100363ed f   NeuralNetwork.obj
 0001:000353f8       __ehhandler$?importNetwork@NeuralNetwork@@QAEXV?$basic_string@DU?$char_traits@D@std@@V?$allocator@D@2@@std@@@Z 100363f8 f   NeuralNetwork.obj
 0001:00035410       __unwindfunclet$??$?6U?$char_traits@D@std@@@std@@YAAAV?$basic_ostream@DU?$char_traits@D@std@@@0@AAV10@PBD@Z$3 10036410 f   NeuralNetwork.obj
 0001:00035418       __unwindfunclet$??$?6U?$char_traits@D@std@@@std@@YAAAV?$basic_ostream@DU?$char_traits@D@std@@@0@AAV10@PBD@Z$2 10036418 f   NeuralNetwork.obj
 0001:00035420       __ehhandler$??$?6U?$char_traits@D@std@@@std@@YAAAV?$basic_ostream@DU?$char_traits@D@std@@@0@AAV10@PBD@Z 10036420 f   NeuralNetwork.obj
 0001:00035430       __unwindfunclet$??$_Uninit_copy@V?$_Vector_const_iterator@V?$_Vector_val@U?$_Simple_types@UNeuron@@@std@@@std@@@std@@PAUNeuron@@V?$allocator@UNeuron@@@2@@std@@YAPAUNeuron@@V?$_Vector_const_iterator@V?$_Vector_val@U?$_Simple_types@UNeuron@@@std@@@std@@@0@0PAU1@AAU?$_Wrap_alloc@V?$allocator@UNeuron@@@std@@@0@U_Nonscalar_ptr_iterator_tag@0@@Z$2 10036430 f   NeuralNetwork.obj
 0001:00035441       __unwindfunclet$??$_Uninit_copy@V?$_Vector_const_iterator@V?$_Vector_val@U?$_Simple_types@UNeuron@@@std@@@std@@@std@@PAUNeuron@@V?$allocator@UNeuron@@@2@@std@@YAPAUNeuron@@V?$_Vector_const_iterator@V?$_Vector_val@U?$_Simple_types@UNeuron@@@std@@@std@@@0@0PAU1@AAU?$_Wrap_alloc@V?$allocator@UNeuron@@@std@@@0@U_Nonscalar_ptr_iterator_tag@0@@Z$3 10036441 f   NeuralNetwork.obj
 0001:0003544c       __ehhandler$??$_Uninit_copy@V?$_Vector_const_iterator@V?$_Vector_val@U?$_Simple_types@UNeuron@@@std@@@std@@@std@@PAUNeuron@@V?$allocator@UNeuron@@@2@@std@@YAPAUNeuron@@V?$_Vector_const_iterator@V?$_Vector_val@U?$_Simple_types@UNeuron@@@std@@@std@@@0@0PAU1@AAU?$_Wrap_alloc@V?$allocator@UNeuron@@@std@@@0@U_Nonscalar_ptr_iterator_tag@0@@Z 1003644c f   NeuralNetwork.obj
 0001:00035460       __unwindfunclet$??$_Uninit_copy@V?$_Vector_const_iterator@V?$_Vector_val@U?$_Simple_types@V?$vector@MV?$allocator@M@std@@@std@@@std@@@std@@@std@@PAV?$vector@MV?$allocator@M@std@@@2@V?$allocator@V?$vector@MV?$allocator@M@std@@@std@@@2@@std@@YAPAV?$vector@MV?$allocator@M@std@@@0@V?$_Vector_const_iterator@V?$_Vector_val@U?$_Simple_types@V?$vector@MV?$allocator@M@std@@@std@@@std@@@std@@@0@0PAV10@AAU?$_Wrap_alloc@V?$allocator@V?$vector@MV?$allocator@M@std@@@std@@@std@@@0@U_Nonscalar_ptr_iterator_tag@0@@Z$2 10036460 f   NeuralNetwork.obj
 0001:00035471       __ehhandler$??$_Uninit_copy@V?$_Vector_const_iterator@V?$_Vector_val@U?$_Simple_types@V?$vector@MV?$allocator@M@std@@@std@@@std@@@std@@@std@@PAV?$vector@MV?$allocator@M@std@@@2@V?$allocator@V?$vector@MV?$allocator@M@std@@@std@@@2@@std@@YAPAV?$vector@MV?$allocator@M@std@@@0@V?$_Vector_const_iterator@V?$_Vector_val@U?$_Simple_types@V?$vector@MV?$allocator@M@std@@@std@@@std@@@std@@@0@0PAV10@AAU?$_Wrap_alloc@V?$allocator@V?$vector@MV?$allocator@M@std@@@std@@@std@@@0@U_Nonscalar_ptr_iterator_tag@0@@Z 10036471 f   NeuralNetwork.obj
 0001:00035480       __unwindfunclet$??$_Uninit_move@PAVNeuronLayer@@PAV1@V?$allocator@VNeuronLayer@@@std@@V1@@std@@YAPAVNeuronLayer@@PAV1@00AAU?$_Wrap_alloc@V?$allocator@VNeuronLayer@@@std@@@0@0U_Nonscalar_ptr_iterator_tag@0@@Z$2 10036480 f   NeuralNetwork.obj
 0001:00035491       __ehhandler$??$_Uninit_move@PAVNeuronLayer@@PAV1@V?$allocator@VNeuronLayer@@@std@@V1@@std@@YAPAVNeuronLayer@@PAV1@00AAU?$_Wrap_alloc@V?$allocator@VNeuronLayer@@@std@@@0@0U_Nonscalar_ptr_iterator_tag@0@@Z 10036491 f   NeuralNetwork.obj
 0001:000354a0       __unwindfunclet$??$use_facet@V?$codecvt@DDH@std@@@std@@YAABV?$codecvt@DDH@0@ABVlocale@0@@Z$0 100364a0 f   NeuralNetwork.obj
 0001:000354a0       __unwindfunclet$??$use_facet@V?$ctype@D@std@@@std@@YAABV?$ctype@D@0@ABVlocale@0@@Z$0 100364a0 f   NeuralNetwork.obj
 0001:000354a0       __unwindfunclet$??$use_facet@V?$numpunct@D@std@@@std@@YAABV?$numpunct@D@0@ABVlocale@0@@Z$0 100364a0 f   NeuralNetwork.obj
 0001:000354a0       __unwindfunclet$??$use_facet@V?$num_put@DV?$ostreambuf_iterator@DU?$char_traits@D@std@@@std@@@std@@@std@@YAABV?$num_put@DV?$ostreambuf_iterator@DU?$char_traits@D@std@@@std@@@0@ABVlocale@0@@Z$0 100364a0 f   NeuralNetwork.obj
 0001:000354a8       __ehhandler$??$use_facet@V?$num_put@DV?$ostreambuf_iterator@DU?$char_traits@D@std@@@std@@@std@@@std@@YAABV?$num_put@DV?$ostreambuf_iterator@DU?$char_traits@D@std@@@std@@@0@ABVlocale@0@@Z 100364a8 f   NeuralNetwork.obj
 0001:000354a8       __ehhandler$??$use_facet@V?$codecvt@DDH@std@@@std@@YAABV?$codecvt@DDH@0@ABVlocale@0@@Z 100364a8 f   NeuralNetwork.obj
 0001:000354a8       __ehhandler$??$use_facet@V?$ctype@D@std@@@std@@YAABV?$ctype@D@0@ABVlocale@0@@Z 100364a8 f   NeuralNetwork.obj
 0001:000354a8       __ehhandler$??$use_facet@V?$numpunct@D@std@@@std@@YAABV?$numpunct@D@0@ABVlocale@0@@Z 100364a8 f   NeuralNetwork.obj
 0001:000354c0       __unwindfunclet$??0?$basic_ifstream@DU?$char_traits@D@std@@@std@@QAE@XZ$0 100364c0 f   NeuralNetwork.obj
 0001:000354dc       __unwindfunclet$??0?$basic_ifstream@DU?$char_traits@D@std@@@std@@QAE@XZ$1 100364dc f   NeuralNetwork.obj
 0001:000354e7       __ehhandler$??0?$basic_ifstream@DU?$char_traits@D@std@@@std@@QAE@XZ 100364e7 f   NeuralNetwork.obj
 0001:00035500       __unwindfunclet$??0?$basic_ofstream@DU?$char_traits@D@std@@@std@@QAE@XZ$0 10036500 f   NeuralNetwork.obj
 0001:0003551c       __unwindfunclet$??0?$basic_ofstream@DU?$char_traits@D@std@@@std@@QAE@XZ$1 1003651c f   NeuralNetwork.obj
 0001:00035527       __ehhandler$??0?$basic_ofstream@DU?$char_traits@D@std@@@std@@QAE@XZ 10036527 f   NeuralNetwork.obj
 0001:00035540       __ehhandler$??0?$vector@MV?$allocator@M@std@@@std@@QAE@ABV01@@Z 10036540 f   NeuralNetwork.obj
 0001:00035550       __ehhandler$??0?$vector@UNeuron@@V?$allocator@UNeuron@@@std@@@std@@QAE@ABV01@@Z 10036550 f   NeuralNetwork.obj
 0001:00035560       __ehhandler$??0?$vector@V?$vector@MV?$allocator@M@std@@@std@@V?$allocator@V?$vector@MV?$allocator@M@std@@@std@@@2@@std@@QAE@ABV01@@Z 10036560 f   NeuralNetwork.obj
 0001:00035570       __unwindfunclet$??0_Locinfo@std@@QAE@PBD@Z$0 10036570 f   NeuralNetwork.obj
 0001:00035578       __unwindfunclet$??0_Locinfo@std@@QAE@PBD@Z$1 10036578 f   NeuralNetwork.obj
 0001:00035583       __unwindfunclet$??0_Locinfo@std@@QAE@PBD@Z$2 10036583 f   NeuralNetwork.obj
 0001:0003558e       __unwindfunclet$??0_Locinfo@std@@QAE@PBD@Z$3 1003658e f   NeuralNetwork.obj
 0001:00035599       __unwindfunclet$??0_Locinfo@std@@QAE@PBD@Z$4 10036599 f   NeuralNetwork.obj
 0001:000355a4       __unwindfunclet$??0_Locinfo@std@@QAE@PBD@Z$5 100365a4 f   NeuralNetwork.obj
 0001:000355af       __unwindfunclet$??0_Locinfo@std@@QAE@PBD@Z$6 100365af f   NeuralNetwork.obj
 0001:000355ba       __ehhandler$??0_Locinfo@std@@QAE@PBD@Z 100365ba f   NeuralNetwork.obj
 0001:000355d0       __unwindfunclet$??0failure@ios_base@std@@QAE@PBDABVerror_code@2@@Z$0 100365d0 f   NeuralNetwork.obj
 0001:000355d8       __ehhandler$??0failure@ios_base@std@@QAE@PBDABVerror_code@2@@Z 100365d8 f   NeuralNetwork.obj
 0001:000355f0       __unwindfunclet$??0sentry@?$basic_ostream@DU?$char_traits@D@std@@@std@@QAE@AAV12@@Z$0 100365f0 f   NeuralNetwork.obj
 0001:000355f8       __ehhandler$??0sentry@?$basic_ostream@DU?$char_traits@D@std@@@std@@QAE@AAV12@@Z 100365f8 f   NeuralNetwork.obj
 0001:00035610       __unwindfunclet$??6?$basic_ostream@DU?$char_traits@D@std@@@std@@QAEAAV01@M@Z$4 10036610 f   NeuralNetwork.obj
 0001:00035618       __unwindfunclet$??6?$basic_ostream@DU?$char_traits@D@std@@@std@@QAEAAV01@M@Z$2 10036618 f   NeuralNetwork.obj
 0001:00035620       __unwindfunclet$??6?$basic_ostream@DU?$char_traits@D@std@@@std@@QAEAAV01@M@Z$3 10036620 f   NeuralNetwork.obj
 0001:00035628       __ehhandler$??6?$basic_ostream@DU?$char_traits@D@std@@@std@@QAEAAV01@M@Z 10036628 f   NeuralNetwork.obj
 0001:00035640       __ehhandler$?_Copy@?$basic_string@DU?$char_traits@D@std@@V?$allocator@D@2@@std@@QAEXII@Z 10036640 f   NeuralNetwork.obj
 0001:00035650       __unwindfunclet$?_Endwrite@?$basic_filebuf@DU?$char_traits@D@std@@@std@@IAE_NXZ$0 10036650 f   NeuralNetwork.obj
 0001:00035658       __ehhandler$?_Endwrite@?$basic_filebuf@DU?$char_traits@D@std@@@std@@IAE_NXZ 10036658 f   NeuralNetwork.obj
 0001:00035670       __unwindfunclet$?_Fput@?$num_put@DV?$ostreambuf_iterator@DU?$char_traits@D@std@@@std@@@std@@ABA?AV?$ostreambuf_iterator@DU?$char_traits@D@std@@@2@V32@AAVios_base@2@DPBDIIII@Z$0 10036670 f   NeuralNetwork.obj
 0001:00035678       __unwindfunclet$?_Fput@?$num_put@DV?$ostreambuf_iterator@DU?$char_traits@D@std@@@std@@@std@@ABA?AV?$ostreambuf_iterator@DU?$char_traits@D@std@@@2@V32@AAVios_base@2@DPBDIIII@Z$1 10036678 f   NeuralNetwork.obj
 0001:00035680       __unwindfunclet$?_Fput@?$num_put@DV?$ostreambuf_iterator@DU?$char_traits@D@std@@@std@@@std@@ABA?AV?$ostreambuf_iterator@DU?$char_traits@D@std@@@2@V32@AAVios_base@2@DPBDIIII@Z$2 10036680 f   NeuralNetwork.obj
 0001:00035688       __unwindfunclet$?_Fput@?$num_put@DV?$ostreambuf_iterator@DU?$char_traits@D@std@@@std@@@std@@ABA?AV?$ostreambuf_iterator@DU?$char_traits@D@std@@@2@V32@AAVios_base@2@DPBDIIII@Z$3 10036688 f   NeuralNetwork.obj
 0001:00035690       __ehhandler$?_Fput@?$num_put@DV?$ostreambuf_iterator@DU?$char_traits@D@std@@@std@@@std@@ABA?AV?$ostreambuf_iterator@DU?$char_traits@D@std@@@2@V32@AAVios_base@2@DPBDIIII@Z 10036690 f   NeuralNetwork.obj
 0001:000356a0       __unwindfunclet$?_Getcat@?$codecvt@DDH@std@@SAIPAPBVfacet@locale@2@PBV42@@Z$0 100366a0 f   NeuralNetwork.obj
 0001:000356a0       __unwindfunclet$?_Getcat@?$ctype@D@std@@SAIPAPBVfacet@locale@2@PBV42@@Z$0 100366a0 f   NeuralNetwork.obj
 0001:000356a0       __unwindfunclet$?_Getcat@?$num_put@DV?$ostreambuf_iterator@DU?$char_traits@D@std@@@std@@@std@@SAIPAPBVfacet@locale@2@PBV42@@Z$0 100366a0 f   NeuralNetwork.obj
 0001:000356ab       __ehhandler$?_Getcat@?$ctype@D@std@@SAIPAPBVfacet@locale@2@PBV42@@Z 100366ab f   NeuralNetwork.obj
 0001:000356ab       __ehhandler$?_Getcat@?$codecvt@DDH@std@@SAIPAPBVfacet@locale@2@PBV42@@Z 100366ab f   NeuralNetwork.obj
 0001:000356ab       __ehhandler$?_Getcat@?$num_put@DV?$ostreambuf_iterator@DU?$char_traits@D@std@@@std@@@std@@SAIPAPBVfacet@locale@2@PBV42@@Z 100366ab f   NeuralNetwork.obj
 0001:000356c0       __unwindfunclet$?_Getcat@?$numpunct@D@std@@SAIPAPBVfacet@locale@2@PBV42@@Z$0 100366c0 f   NeuralNetwork.obj
 0001:000356cb       __unwindfunclet$?_Getcat@?$numpunct@D@std@@SAIPAPBVfacet@locale@2@PBV42@@Z$1 100366cb f   NeuralNetwork.obj
 0001:000356e4       __unwindfunclet$?_Getcat@?$numpunct@D@std@@SAIPAPBVfacet@locale@2@PBV42@@Z$2 100366e4 f   NeuralNetwork.obj
 0001:000356ec       __ehhandler$?_Getcat@?$numpunct@D@std@@SAIPAPBVfacet@locale@2@PBV42@@Z 100366ec f   NeuralNetwork.obj
 0001:00035700       __ehhandler$?_Init@?$numpunct@D@std@@IAEXABV_Locinfo@2@_N@Z 10036700 f   NeuralNetwork.obj
 0001:00035710       __unwindfunclet$?_Ipfx@?$basic_istream@DU?$char_traits@D@std@@@std@@QAE_N_N@Z$2 10036710 f   NeuralNetwork.obj
 0001:00035718       __ehhandler$?_Ipfx@?$basic_istream@DU?$char_traits@D@std@@@std@@QAE_N_N@Z 10036718 f   NeuralNetwork.obj
 0001:00035730       __unwindfunclet$?_Iput@?$num_put@DV?$ostreambuf_iterator@DU?$char_traits@D@std@@@std@@@std@@ABA?AV?$ostreambuf_iterator@DU?$char_traits@D@std@@@2@V32@AAVios_base@2@DPADI@Z$0 10036730 f   NeuralNetwork.obj
 0001:00035738       __unwindfunclet$?_Iput@?$num_put@DV?$ostreambuf_iterator@DU?$char_traits@D@std@@@std@@@std@@ABA?AV?$ostreambuf_iterator@DU?$char_traits@D@std@@@2@V32@AAVios_base@2@DPADI@Z$1 10036738 f   NeuralNetwork.obj
 0001:00035740       __unwindfunclet$?_Iput@?$num_put@DV?$ostreambuf_iterator@DU?$char_traits@D@std@@@std@@@std@@ABA?AV?$ostreambuf_iterator@DU?$char_traits@D@std@@@2@V32@AAVios_base@2@DPADI@Z$2 10036740 f   NeuralNetwork.obj
 0001:00035748       __unwindfunclet$?_Iput@?$num_put@DV?$ostreambuf_iterator@DU?$char_traits@D@std@@@std@@@std@@ABA?AV?$ostreambuf_iterator@DU?$char_traits@D@std@@@2@V32@AAVios_base@2@DPADI@Z$3 10036748 f   NeuralNetwork.obj
 0001:00035750       __ehhandler$?_Iput@?$num_put@DV?$ostreambuf_iterator@DU?$char_traits@D@std@@@std@@@std@@ABA?AV?$ostreambuf_iterator@DU?$char_traits@D@std@@@2@V32@AAVios_base@2@DPADI@Z 10036750 f   NeuralNetwork.obj
 0001:00035760       __ehhandler$?_Osfx@?$basic_ostream@DU?$char_traits@D@std@@@std@@QAEXXZ 10036760 f   NeuralNetwork.obj
 0001:00035770       __ehhandler$?_Reallocate@?$vector@V?$vector@MV?$allocator@M@std@@@std@@V?$allocator@V?$vector@MV?$allocator@M@std@@@std@@@2@@std@@IAEXI@Z 10036770 f   NeuralNetwork.obj
 0001:00035780       __ehhandler$?_Reallocate@?$vector@V?$vector@V?$vector@MV?$allocator@M@std@@@std@@V?$allocator@V?$vector@MV?$allocator@M@std@@@std@@@2@@std@@V?$allocator@V?$vector@V?$vector@MV?$allocator@M@std@@@std@@V?$allocator@V?$vector@MV?$allocator@M@std@@@std@@@2@@std@@@2@@std@@IAEXI@Z 10036780 f   NeuralNetwork.obj
 0001:00035790       __ehhandler$?_Reallocate@?$vector@VNeuronLayer@@V?$allocator@VNeuronLayer@@@std@@@std@@IAEXI@Z 10036790 f   NeuralNetwork.obj
 0001:000357a0       __unwindfunclet$?do_put@?$num_put@DV?$ostreambuf_iterator@DU?$char_traits@D@std@@@std@@@std@@MBE?AV?$ostreambuf_iterator@DU?$char_traits@D@std@@@2@V32@AAVios_base@2@D_N@Z$0 100367a0 f   NeuralNetwork.obj
 0001:000357a8       __unwindfunclet$?do_put@?$num_put@DV?$ostreambuf_iterator@DU?$char_traits@D@std@@@std@@@std@@MBE?AV?$ostreambuf_iterator@DU?$char_traits@D@std@@@2@V32@AAVios_base@2@D_N@Z$1 100367a8 f   NeuralNetwork.obj
 0001:000357b0       __ehhandler$?do_put@?$num_put@DV?$ostreambuf_iterator@DU?$char_traits@D@std@@@std@@@std@@MBE?AV?$ostreambuf_iterator@DU?$char_traits@D@std@@@2@V32@AAVios_base@2@D_N@Z 100367b0 f   NeuralNetwork.obj
 0001:000357c0       __unwindfunclet$?flush@?$basic_ostream@DU?$char_traits@D@std@@@std@@QAEAAV12@XZ$0 100367c0 f   NeuralNetwork.obj
 0001:000357c8       __ehhandler$?flush@?$basic_ostream@DU?$char_traits@D@std@@@std@@QAEAAV12@XZ 100367c8 f   NeuralNetwork.obj
 0001:000357e0       __unwindfunclet$?getline@?$basic_istream@DU?$char_traits@D@std@@@std@@QAEAAV12@PAD_JD@Z$3 100367e0 f   NeuralNetwork.obj
 0001:000357e8       __unwindfunclet$?getline@?$basic_istream@DU?$char_traits@D@std@@@std@@QAEAAV12@PAD_JD@Z$2 100367e8 f   NeuralNetwork.obj
 0001:000357f0       __ehhandler$?getline@?$basic_istream@DU?$char_traits@D@std@@@std@@QAEAAV12@PAD_JD@Z 100367f0 f   NeuralNetwork.obj
 0001:00035800       __unwindfunclet$?init@?$basic_ios@DU?$char_traits@D@std@@@std@@IAEXPAV?$basic_streambuf@DU?$char_traits@D@std@@@2@_N@Z$0 10036800 f   NeuralNetwork.obj
 0001:00035808       __ehhandler$?init@?$basic_ios@DU?$char_traits@D@std@@@std@@IAEXPAV?$basic_streambuf@DU?$char_traits@D@std@@@2@_N@Z 10036808 f   NeuralNetwork.obj
 0001:00035820       __unwindfunclet$?open@?$basic_filebuf@DU?$char_traits@D@std@@@std@@QAEPAV12@PBDHH@Z$0 10036820 f   NeuralNetwork.obj
 0001:00035828       __ehhandler$?open@?$basic_filebuf@DU?$char_traits@D@std@@@std@@QAEPAV12@PBDHH@Z 10036828 f   NeuralNetwork.obj
 0001:00035840       __unwindfunclet$?overflow@?$basic_filebuf@DU?$char_traits@D@std@@@std@@MAEHH@Z$0 10036840 f   NeuralNetwork.obj
 0001:00035840       __unwindfunclet$?uflow@?$basic_filebuf@DU?$char_traits@D@std@@@std@@MAEHXZ$0 10036840 f   NeuralNetwork.obj
 0001:00035848       __ehhandler$?overflow@?$basic_filebuf@DU?$char_traits@D@std@@@std@@MAEHH@Z 10036848 f   NeuralNetwork.obj
 0001:00035848       __ehhandler$?uflow@?$basic_filebuf@DU?$char_traits@D@std@@@std@@MAEHXZ 10036848 f   NeuralNetwork.obj
 0001:00035860       __unwindfunclet$?push_back@?$vector@VNeuronLayer@@V?$allocator@VNeuronLayer@@@std@@@std@@QAEX$$QAVNeuronLayer@@@Z$0 10036860 f   NeuralNetwork.obj
 0001:00035860       __unwindfunclet$?push_back@?$vector@V?$vector@MV?$allocator@M@std@@@std@@V?$allocator@V?$vector@MV?$allocator@M@std@@@std@@@2@@std@@QAEXABV?$vector@MV?$allocator@M@std@@@2@@Z$0 10036860 f   NeuralNetwork.obj
 0001:00035860       __unwindfunclet$?push_back@?$vector@V?$vector@V?$vector@MV?$allocator@M@std@@@std@@V?$allocator@V?$vector@MV?$allocator@M@std@@@std@@@2@@std@@V?$allocator@V?$vector@V?$vector@MV?$allocator@M@std@@@std@@V?$allocator@V?$vector@MV?$allocator@M@std@@@std@@@2@@std@@@2@@std@@QAEXABV?$vector@V?$vector@MV?$allocator@M@std@@@std@@V?$allocator@V?$vector@MV?$allocator@M@std@@@std@@@2@@2@@Z$0 10036860 f   NeuralNetwork.obj
 0001:00035871       __unwindfunclet$?push_back@?$vector@V?$vector@MV?$allocator@M@std@@@std@@V?$allocator@V?$vector@MV?$allocator@M@std@@@std@@@2@@std@@QAEXABV?$vector@MV?$allocator@M@std@@@2@@Z$1 10036871 f   NeuralNetwork.obj
 0001:00035871       __unwindfunclet$?push_back@?$vector@V?$vector@V?$vector@MV?$allocator@M@std@@@std@@V?$allocator@V?$vector@MV?$allocator@M@std@@@std@@@2@@std@@V?$allocator@V?$vector@V?$vector@MV?$allocator@M@std@@@std@@V?$allocator@V?$vector@MV?$allocator@M@std@@@std@@@2@@std@@@2@@std@@QAEXABV?$vector@V?$vector@MV?$allocator@M@std@@@std@@V?$allocator@V?$vector@MV?$allocator@M@std@@@std@@@2@@2@@Z$1 10036871 f   NeuralNetwork.obj
 0001:00035871       __unwindfunclet$?push_back@?$vector@VNeuronLayer@@V?$allocator@VNeuronLayer@@@std@@@std@@QAEX$$QAVNeuronLayer@@@Z$2 10036871 f   NeuralNetwork.obj
 0001:00035882       __ehhandler$?push_back@?$vector@VNeuronLayer@@V?$allocator@VNeuronLayer@@@std@@@std@@QAEX$$QAVNeuronLayer@@@Z 10036882 f   NeuralNetwork.obj
 0001:00035882       __ehhandler$?push_back@?$vector@V?$vector@MV?$allocator@M@std@@@std@@V?$allocator@V?$vector@MV?$allocator@M@std@@@std@@@2@@std@@QAEXABV?$vector@MV?$allocator@M@std@@@2@@Z 10036882 f   NeuralNetwork.obj
 0001:00035882       __ehhandler$?push_back@?$vector@V?$vector@V?$vector@MV?$allocator@M@std@@@std@@V?$allocator@V?$vector@MV?$allocator@M@std@@@std@@@2@@std@@V?$allocator@V?$vector@V?$vector@MV?$allocator@M@std@@@std@@V?$allocator@V?$vector@MV?$allocator@M@std@@@std@@@2@@std@@@2@@std@@QAEXABV?$vector@V?$vector@MV?$allocator@M@std@@@std@@V?$allocator@V?$vector@MV?$allocator@M@std@@@std@@@2@@2@@Z 10036882 f   NeuralNetwork.obj
 0001:00035890       __unwindfunclet$?put@?$basic_ostream@DU?$char_traits@D@std@@@std@@QAEAAV12@D@Z$3 10036890 f   NeuralNetwork.obj
 0001:00035898       __unwindfunclet$?put@?$basic_ostream@DU?$char_traits@D@std@@@std@@QAEAAV12@D@Z$2 10036898 f   NeuralNetwork.obj
 0001:000358a0       __ehhandler$?put@?$basic_ostream@DU?$char_traits@D@std@@@std@@QAEAAV12@D@Z 100368a0 f   NeuralNetwork.obj
 0001:000358b0       __unwindfunclet$??0NeuronLayer@@QAE@HH@Z$0 100368b0 f   NeuronLayer.obj
 0001:000358b8       __unwindfunclet$??0NeuronLayer@@QAE@HH@Z$1 100368b8 f   NeuronLayer.obj
 0001:000358c0       __ehhandler$??0NeuronLayer@@QAE@HH@Z 100368c0 f   NeuronLayer.obj
 0001:000358ca       __unwindfunclet$??0NeuronLayer@@QAE@V?$vector@V?$vector@MV?$allocator@M@std@@@std@@V?$allocator@V?$vector@MV?$allocator@M@std@@@std@@@2@@std@@@Z$0 100368ca f   NeuronLayer.obj
 0001:000358d2       __unwindfunclet$??0NeuronLayer@@QAE@V?$vector@V?$vector@MV?$allocator@M@std@@@std@@V?$allocator@V?$vector@MV?$allocator@M@std@@@std@@@2@@std@@@Z$1 100368d2 f   NeuronLayer.obj
 0001:000358da       __unwindfunclet$??0NeuronLayer@@QAE@V?$vector@V?$vector@MV?$allocator@M@std@@@std@@V?$allocator@V?$vector@MV?$allocator@M@std@@@std@@@2@@std@@@Z$3 100368da f   NeuronLayer.obj
 0001:000358e2       __ehhandler$??0NeuronLayer@@QAE@V?$vector@V?$vector@MV?$allocator@M@std@@@std@@V?$allocator@V?$vector@MV?$allocator@M@std@@@std@@@2@@std@@@Z 100368e2 f   NeuronLayer.obj
 0001:000358ec       __unwindfunclet$?getWeights@NeuronLayer@@QBE?AV?$vector@V?$vector@MV?$allocator@M@std@@@std@@V?$allocator@V?$vector@MV?$allocator@M@std@@@std@@@2@@std@@XZ$0 100368ec f   NeuronLayer.obj
 0001:00035905       __ehhandler$?getWeights@NeuronLayer@@QBE?AV?$vector@V?$vector@MV?$allocator@M@std@@@std@@V?$allocator@V?$vector@MV?$allocator@M@std@@@std@@@2@@std@@XZ 10036905 f   NeuronLayer.obj
 0001:00035910       __unwindfunclet$??$_Uninit_move@PAUNeuron@@PAU1@V?$allocator@UNeuron@@@std@@U1@@std@@YAPAUNeuron@@PAU1@00AAU?$_Wrap_alloc@V?$allocator@UNeuron@@@std@@@0@0U_Nonscalar_ptr_iterator_tag@0@@Z$2 10036910 f   NeuronLayer.obj
 0001:00035921       __unwindfunclet$??$_Uninit_move@PAUNeuron@@PAU1@V?$allocator@UNeuron@@@std@@U1@@std@@YAPAUNeuron@@PAU1@00AAU?$_Wrap_alloc@V?$allocator@UNeuron@@@std@@@0@0U_Nonscalar_ptr_iterator_tag@0@@Z$3 10036921 f   NeuronLayer.obj
 0001:0003592c       __ehhandler$??$_Uninit_move@PAUNeuron@@PAU1@V?$allocator@UNeuron@@@std@@U1@@std@@YAPAUNeuron@@PAU1@00AAU?$_Wrap_alloc@V?$allocator@UNeuron@@@std@@@0@0U_Nonscalar_ptr_iterator_tag@0@@Z 1003692c f   NeuronLayer.obj
 0001:00035940       __unwindfunclet$??0Neuron@@QAE@H@Z$0 10036940 f   NeuronLayer.obj
 0001:0003594b       __unwindfunclet$??0Neuron@@QAE@H@Z$1 1003694b f   NeuronLayer.obj
 0001:00035956       __ehhandler$??0Neuron@@QAE@H@Z 10036956 f   NeuronLayer.obj
 0001:00035960       __unwindfunclet$??0Neuron@@QAE@V?$vector@MV?$allocator@M@std@@@std@@@Z$0 10036960 f   NeuronLayer.obj
 0001:00035968       __unwindfunclet$??0Neuron@@QAE@V?$vector@MV?$allocator@M@std@@@std@@@Z$1 10036968 f   NeuronLayer.obj
 0001:00035973       __unwindfunclet$??0Neuron@@QAE@V?$vector@MV?$allocator@M@std@@@std@@@Z$2 10036973 f   NeuronLayer.obj
 0001:0003597e       __ehhandler$??0Neuron@@QAE@V?$vector@MV?$allocator@M@std@@@std@@@Z 1003697e f   NeuronLayer.obj
 0001:00035990       __ehhandler$?_Reallocate@?$vector@UNeuron@@V?$allocator@UNeuron@@@std@@@std@@IAEXI@Z 10036990 f   NeuronLayer.obj
 0001:000359a0       __unwindfunclet$?push_back@?$vector@UNeuron@@V?$allocator@UNeuron@@@std@@@std@@QAEX$$QAUNeuron@@@Z$0 100369a0 f   NeuronLayer.obj
 0001:000359b1       __unwindfunclet$?push_back@?$vector@UNeuron@@V?$allocator@UNeuron@@@std@@@std@@QAEX$$QAUNeuron@@@Z$1 100369b1 f   NeuronLayer.obj
 0001:000359bc       __unwindfunclet$?push_back@?$vector@UNeuron@@V?$allocator@UNeuron@@@std@@@std@@QAEX$$QAUNeuron@@@Z$3 100369bc f   NeuronLayer.obj
 0001:000359cd       __unwindfunclet$?push_back@?$vector@UNeuron@@V?$allocator@UNeuron@@@std@@@std@@QAEX$$QAUNeuron@@@Z$4 100369cd f   NeuronLayer.obj
 0001:000359d8       __ehhandler$?push_back@?$vector@UNeuron@@V?$allocator@UNeuron@@@std@@@std@@QAEX$$QAUNeuron@@@Z 100369d8 f   NeuronLayer.obj
 0001:000359f0       __unwindfunclet$?initTrack@@YAXHPAUtTrack@@PAXPAPAXPAUSituation@@@Z$0 100369f0 f   stig.obj
 0001:000359fb       __ehhandler$?initTrack@@YAXHPAUtTrack@@PAXPAPAXPAUSituation@@@Z 100369fb f   stig.obj
 0001:00035a05       __unwindfunclet$?drive@@YAXHPAUCarElt@@PAUSituation@@@Z$0 10036a05 f   stig.obj
 0001:00035a0d       __unwindfunclet$?drive@@YAXHPAUCarElt@@PAUSituation@@@Z$1 10036a0d f   stig.obj
 0001:00035a15       __ehhandler$?drive@@YAXHPAUCarElt@@PAUSituation@@@Z 10036a15 f   stig.obj
 0001:00035a1f       __unwindfunclet$?newrace@@YAXHPAUCarElt@@PAUSituation@@@Z$0 10036a1f f   stig.obj
 0001:00035a2a       __unwindfunclet$?newrace@@YAXHPAUCarElt@@PAUSituation@@@Z$2 10036a2a f   stig.obj
 0001:00035a35       __unwindfunclet$?newrace@@YAXHPAUCarElt@@PAUSituation@@@Z$3 10036a35 f   stig.obj
 0001:00035a40       __ehhandler$?newrace@@YAXHPAUCarElt@@PAUSituation@@@Z 10036a40 f   stig.obj
 0001:00035a50       __unwindfunclet$??0TrackDesc@@QAE@PBUtTrack@@@Z$0 10036a50 f   trackdesc.obj
 0001:00035a5e       __ehhandler$??0TrackDesc@@QAE@PBUtTrack@@@Z 10036a5e f   trackdesc.obj
 0001:00035a68       __unwindfunclet$?_Init@locale@std@@CAPAV_Locimp@12@_N@Z$0 10036a68 f   libcpmt:locale0.obj
 0001:00035a68       __unwindfunclet$?_Locimp_dtor@_Locimp@locale@std@@CAXPAV123@@Z$0 10036a68 f   libcpmt:locale0.obj
 0001:00035a70       __ehhandler$?_Init@locale@std@@CAPAV_Locimp@12@_N@Z 10036a70 f   libcpmt:locale0.obj
 0001:00035a70       __ehhandler$?_Locimp_dtor@_Locimp@locale@std@@CAXPAV123@@Z 10036a70 f   libcpmt:locale0.obj
 0001:00035a8b       __ehhandler$?CallUnexpected@@YAXPBU_s_ESTypeList@@@Z 10036a8b f   LIBCMT:frame.obj
 0001:00035ab0       ??__E?_Generic_object@?$_Error_objects@H@std@@2V_Generic_error_category@2@A@@YAXXZ 10036ab0 f   NeuralNetwork.obj
 0001:00035ac0       ??__E?_Iostream_object@?$_Error_objects@H@std@@2V_Iostream_error_category@2@A@@YAXXZ 10036ac0 f   NeuralNetwork.obj
 0001:00035ad0       ??__E?_System_object@?$_Error_objects@H@std@@2V_System_error_category@2@A@@YAXXZ 10036ad0 f   NeuralNetwork.obj
 0001:00035adc       ??__Einitlocks@std@@YAXXZ  10036adc f   libcpmt:xlock.obj
 0001:00035af2       ??__E_Fac_tidy_reg@std@@YAXXZ 10036af2 f   libcpmt:locale0.obj
 0001:00035afe       ??__Eclassic_locale@std@@YAXXZ 10036afe f   libcpmt:locale0.obj
 0001:00035b0a       ??__Einit_atexit@@YAXXZ    10036b0a f   libcpmt:iosptrs.obj
 0001:00035b16       ??__Einitlocks@std@@YAXXZ  10036b16 f   libcpmt:iosptrs.obj
 0001:00035b30       ??__F?_Generic_object@?$_Error_objects@H@std@@2V_Generic_error_category@2@A@@YAXXZ 10036b30 f   NeuralNetwork.obj
 0001:00035b40       ??__F?_Iostream_object@?$_Error_objects@H@std@@2V_Iostream_error_category@2@A@@YAXXZ 10036b40 f   NeuralNetwork.obj
 0001:00035b50       ??__F?_System_object@?$_Error_objects@H@std@@2V_System_error_category@2@A@@YAXXZ 10036b50 f   NeuralNetwork.obj
 0001:00035b5b       ??__Finitlocks@std@@YAXXZ  10036b5b f   libcpmt:xlock.obj
 0001:00035b65       ??__F_Fac_tidy_reg@std@@YAXXZ 10036b65 f   libcpmt:locale0.obj
 0001:00035b6f       ??__Fclassic_locale@std@@YAXXZ 10036b6f f   libcpmt:locale0.obj
 0001:00035b79       ??__Finit_atexit@@YAXXZ    10036b79 f   libcpmt:iosptrs.obj
 0001:00035b83       ??__Finitlocks@std@@YAXXZ  10036b83 f   libcpmt:iosptrs.obj
 0002:000001a4       _initlocks$initializer$    100371a4     libcpmt:xlock.obj
 0002:000001a8       _initlocks$initializer$    100371a8     libcpmt:iosptrs.obj
 0002:000001ac       _init_atexit$initializer$  100371ac     libcpmt:iosptrs.obj
 0002:000001b0       __Fac_tidy_reg$initializer$ 100371b0     libcpmt:locale0.obj
 0002:000001b4       _classic_locale$initializer$ 100371b4     libcpmt:locale0.obj
 0002:000001b8       ?_Generic_object$initializer$@?$_Error_objects@H@std@@2P6AXXZA 100371b8     NeuralNetwork.obj
 0002:000001bc       ?_Iostream_object$initializer$@?$_Error_objects@H@std@@2P6AXXZA 100371bc     NeuralNetwork.obj
 0002:000001c0       ?_System_object$initializer$@?$_Error_objects@H@std@@2P6AXXZA 100371c0     NeuralNetwork.obj
 0002:000001cc       _pinit                     100371cc     LIBCMT:onexit.obj
 0002:000001d0       _pinit                     100371d0     LIBCMT:_file.obj
 0002:000001d4       _pinit                     100371d4     LIBCMT:mathfcns.obj
 0002:000001d8       _pinit                     100371d8     LIBCMT:cpu_disp.obj
 0002:000001dc       _pinit                     100371dc     LIBCMT:mbctype.obj
 0002:000001e8       _pterm                     100371e8     LIBCMT:wsetloca.obj
 0002:000001ec       _pterm                     100371ec     LIBCMT:initcon.obj
 0002:000001f0       _pterm                     100371f0     LIBCMT:_file.obj
 0002:00000200       __ulEndianTest             10037200     mycar.obj
 0002:000002e0       _PI                        100372e0     mycar.obj
 0002:000009e8       __ulEndianTest             100379e8     pathfinder.obj
 0002:000009f8       _g                         100379f8     pathfinder.obj
 0002:00000a00       _PI                        10037a00     pathfinder.obj
 0002:00000ad8       __ulEndianTest             10037ad8     sensors.obj
 0002:00000ae0       _PI                        10037ae0     sensors.obj
 0002:00000b20       __ulEndianTest             10037b20     stig.obj
 0002:00000b28       _PI                        10037b28     stig.obj
 0002:00000eb4       __ulEndianTest             10037eb4     pref.obj
 0002:000011e8       __ulEndianTest             100381e8     trackdesc.obj
 0002:00001230       __ulEndianTest             10038230     sg_vs2008_32:sgd.obj
 0002:0000124c       __ulEndianTest             1003824c     ul_vs2008_32:ulError.obj
 0002:000012a8       __Win_errtab               100382a8     libcpmt:syserror.obj
 0002:00001500       __Sys_errtab               10038500     libcpmt:syserror.obj
 0002:00002008       ?mods@?1??_Xfsopen@std@@YAPAU_iobuf@@PBDHH@Z@4QBQBDB 10039008     libcpmt:fiopen.obj
 0002:000020b4       _digits                    100390b4     libcpmt:xstoul.obj
 0002:000020dc       _ndigs                     100390dc     libcpmt:xstoul.obj
 0002:00002104       _digits                    10039104     libcpmt:xstoull.obj
 0002:0000212c       _ndigs                     1003912c     libcpmt:xstoull.obj
 0002:00002154       ?digits@?1??_Stoxflt@@9@9  10039154     libcpmt:xstoxflt.obj
 0002:0000216c       ?vals@?1??_Stoxflt@@9@9    1003916c     libcpmt:xstoxflt.obj
 0002:00002184       _tenth                     10039184     libcpmt:xfdtento.obj
 0002:00002190       _tenth                     10039190     libcpmt:xdtento.obj
 0002:000021a8       _tenth                     100391a8     libcpmt:xldtento.obj
 0002:000021c0       ?mask@?3??_FDint@@9@9      100391c0     libcpmt:xfdint.obj
 0002:000021e0       ?sub@?3??_FDint@@9@9       100391e0     libcpmt:xfdint.obj
 0002:000021e8       ?mask@?3??_Dint@@9@9       100391e8     libcpmt:xdint.obj
 0002:00002208       ?sub@?3??_Dint@@9@9        10039208     libcpmt:xdint.obj
 0002:00002220       _One                       10039220     LIBCMT:ceil_pentium4.obj
 0002:00002230       _Bns                       10039230     LIBCMT:ceil_pentium4.obj
 0002:00002240       _Zero                      10039240     LIBCMT:ceil_pentium4.obj
 0002:00002250       _S                         10039250     LIBCMT:ceil_pentium4.obj
 0002:00002260       _NegZero                   10039260     LIBCMT:ceil_pentium4.obj
 0002:00002270       Ctable                     10039270     LIBCMT:cos_sse2_precise.obj
 0002:00002a70       SC_1                       10039a70     LIBCMT:cos_sse2_precise.obj
 0002:00002a80       SC_2                       10039a80     LIBCMT:cos_sse2_precise.obj
 0002:00002a90       SC_3                       10039a90     LIBCMT:cos_sse2_precise.obj
 0002:00002aa0       SC_4                       10039aa0     LIBCMT:cos_sse2_precise.obj
 0002:00002ab0       PI32INV                    10039ab0     LIBCMT:cos_sse2_precise.obj
 0002:00002ab8       SHIFTER                    10039ab8     LIBCMT:cos_sse2_precise.obj
 0002:00002ac0       P_2                        10039ac0     LIBCMT:cos_sse2_precise.obj
 0002:00002ad0       P_1                        10039ad0     LIBCMT:cos_sse2_precise.obj
 0002:00002ad8       P_3                        10039ad8     LIBCMT:cos_sse2_precise.obj
 0002:00002ae0       TWO_POW_55                 10039ae0     LIBCMT:cos_sse2_precise.obj
 0002:00002ae8       TWO_POW_M55                10039ae8     LIBCMT:cos_sse2_precise.obj
 0002:00002af0       ALL_ONES                   10039af0     LIBCMT:cos_sse2_precise.obj
 0002:00002af8       NEG_ZERO                   10039af8     LIBCMT:cos_sse2_precise.obj
 0002:00002b00       ONE                        10039b00     LIBCMT:cos_sse2_precise.obj
 0002:00002b10       SIGN_MASK                  10039b10     LIBCMT:cos_sse2_precise.obj
 0002:00002b20       smask                      10039b20     LIBCMT:exp_sse2_precise.obj
 0002:00002b30       emask                      10039b30     LIBCMT:exp_sse2_precise.obj
 0002:00002b40       mmask                      10039b40     LIBCMT:exp_sse2_precise.obj
 0002:00002b50       bias                       10039b50     LIBCMT:exp_sse2_precise.obj
 0002:00002b60       Shifter                    10039b60     LIBCMT:exp_sse2_precise.obj
 0002:00002b70       twom60                     10039b70     LIBCMT:exp_sse2_precise.obj
 0002:00002b80       cv                         10039b80     LIBCMT:exp_sse2_precise.obj
 0002:00002bd0       Tbl_addr                   10039bd0     LIBCMT:exp_sse2_precise.obj
 0002:00002fd0       ONE_val                    10039fd0     LIBCMT:exp_sse2_precise.obj
 0002:00002fd8       EMIN                       10039fd8     LIBCMT:exp_sse2_precise.obj
 0002:00002fe0       MAX_ARG                    10039fe0     LIBCMT:exp_sse2_precise.obj
 0002:00002fe8       MIN_ARG                    10039fe8     LIBCMT:exp_sse2_precise.obj
 0002:00002ff0       INF                        10039ff0     LIBCMT:exp_sse2_precise.obj
 0002:00002ff8       ZERO                       10039ff8     LIBCMT:exp_sse2_precise.obj
 0002:00003000       XMAX                       1003a000     LIBCMT:exp_sse2_precise.obj
 0002:00003008       XMIN                       1003a008     LIBCMT:exp_sse2_precise.obj
 0002:00003010       Sm_Thres                   1003a010     LIBCMT:exp_sse2_precise.obj
 0002:00003018       Del_Thres                  1003a018     LIBCMT:exp_sse2_precise.obj
 0002:00003020       Ctable                     1003a020     LIBCMT:sin_sse2_precise.obj
 0002:00003820       SC_1                       1003a820     LIBCMT:sin_sse2_precise.obj
 0002:00003830       SC_2                       1003a830     LIBCMT:sin_sse2_precise.obj
 0002:00003840       SC_3                       1003a840     LIBCMT:sin_sse2_precise.obj
 0002:00003850       SC_4                       1003a850     LIBCMT:sin_sse2_precise.obj
 0002:00003860       PI32INV                    1003a860     LIBCMT:sin_sse2_precise.obj
 0002:00003868       SHIFTER                    1003a868     LIBCMT:sin_sse2_precise.obj
 0002:00003870       P_2                        1003a870     LIBCMT:sin_sse2_precise.obj
 0002:00003880       P_1                        1003a880     LIBCMT:sin_sse2_precise.obj
 0002:00003888       P_3                        1003a888     LIBCMT:sin_sse2_precise.obj
 0002:00003890       TWO_POW_55                 1003a890     LIBCMT:sin_sse2_precise.obj
 0002:00003898       TWO_POW_M55                1003a898     LIBCMT:sin_sse2_precise.obj
 0002:000038a0       ALL_ONES                   1003a8a0     LIBCMT:sin_sse2_precise.obj
 0002:000038a8       NEG_ZERO                   1003a8a8     LIBCMT:sin_sse2_precise.obj
 0002:000038b0       ONE                        1003a8b0     LIBCMT:sin_sse2_precise.obj
 0002:000038f0       ?ExceptionTemplate@?1??_CxxThrowException@@9@8@4UEHExceptionRecord@@B 1003a8f0     LIBCMT:throw.obj
 0002:00003920       Shifter                    1003a920     LIBCMT:acos_sse2_precise.obj
 0002:00003930       Tbl_addr                   1003a930     LIBCMT:acos_sse2_precise.obj
 0002:00004830       T_table                    1003b830     LIBCMT:acos_sse2_precise.obj
 0002:00005030       PI_BY_2                    1003c030     LIBCMT:acos_sse2_precise.obj
 0002:00005040       NEG_PI                     1003c040     LIBCMT:acos_sse2_precise.obj
 0002:00005050       PI                         1003c050     LIBCMT:acos_sse2_precise.obj
 0002:00005060       SIGNMASK                   1003c060     LIBCMT:acos_sse2_precise.obj
 0002:00005070       HALFMASK                   1003c070     LIBCMT:acos_sse2_precise.obj
 0002:00005080       HALFMASK2                  1003c080     LIBCMT:acos_sse2_precise.obj
 0002:00005090       cv                         1003c090     LIBCMT:acos_sse2_precise.obj
 0002:000050b0       cv2                        1003c0b0     LIBCMT:acos_sse2_precise.obj
 0002:000050f0       ABSVALMASK                 1003c0f0     LIBCMT:acos_sse2_precise.obj
 0002:000050f8       TMASK                      1003c0f8     LIBCMT:acos_sse2_precise.obj
 0002:00005100       ONEMASK                    1003c100     LIBCMT:acos_sse2_precise.obj
 0002:00005108       ONE_BY_2                   1003c108     LIBCMT:acos_sse2_precise.obj
 0002:00005110       EMIN                       1003c110     LIBCMT:acos_sse2_precise.obj
 0002:00005118       MAX_ARG                    1003c118     LIBCMT:acos_sse2_precise.obj
 0002:00005120       MIN_ARG                    1003c120     LIBCMT:acos_sse2_precise.obj
 0002:00005128       INF                        1003c128     LIBCMT:acos_sse2_precise.obj
 0002:00005130       ZERO                       1003c130     LIBCMT:acos_sse2_precise.obj
 0002:00005138       ALPHA                      1003c138     LIBCMT:acos_sse2_precise.obj
 0002:00005140       Ctable                     1003c140     LIBCMT:tan_sse2_precise.obj
 0002:00006740       PI32INV                    1003d740     LIBCMT:tan_sse2_precise.obj
 0002:00006750       SHIFTER                    1003d750     LIBCMT:tan_sse2_precise.obj
 0002:00006760       P_1                        1003d760     LIBCMT:tan_sse2_precise.obj
 0002:00006770       P_2                        1003d770     LIBCMT:tan_sse2_precise.obj
 0002:00006780       P_3                        1003d780     LIBCMT:tan_sse2_precise.obj
 0002:00006790       QQ_2                       1003d790     LIBCMT:tan_sse2_precise.obj
 0002:00006798       ONE                        1003d798     LIBCMT:tan_sse2_precise.obj
 0002:000067a0       MASK_35                    1003d7a0     LIBCMT:tan_sse2_precise.obj
 0002:000067b0       sign_mask                  1003d7b0     LIBCMT:tan_sse2_precise.obj
 0002:000067b8       TWO_POW_55                 1003d7b8     LIBCMT:tan_sse2_precise.obj
 0002:000067c0       TWO_POW_M55                1003d7c0     LIBCMT:tan_sse2_precise.obj
 0002:000067c8       TWO_POW_M53                1003d7c8     LIBCMT:tan_sse2_precise.obj
 0002:000067d0       INF                        1003d7d0     LIBCMT:tan_sse2_precise.obj
 0002:000067e0       rcp_t1                     1003d7e0     LIBCMT:pow_sse2_precise.obj
 0002:00006bf0       log2_t1                    1003dbf0     LIBCMT:pow_sse2_precise.obj
 0002:00007400       rcp_t2                     1003e400     LIBCMT:pow_sse2_precise.obj
 0002:00007810       log2_t2                    1003e810     LIBCMT:pow_sse2_precise.obj
 0002:00008020       rcp_t3                     1003f020     LIBCMT:pow_sse2_precise.obj
 0002:00008830       log2_t3                    1003f830     LIBCMT:pow_sse2_precise.obj
 0002:00009840       clv                        10040840     LIBCMT:pow_sse2_precise.obj
 0002:00009860       exp2_tbl                   10040860     LIBCMT:pow_sse2_precise.obj
 0002:0000a060       Shifter                    10041060     LIBCMT:pow_sse2_precise.obj
 0002:0000a070       SIGMASK                    10041070     LIBCMT:pow_sse2_precise.obj
 0002:0000a080       ONEMASK                    10041080     LIBCMT:pow_sse2_precise.obj
 0002:0000a090       ABSVALMASK                 10041090     LIBCMT:pow_sse2_precise.obj
 0002:0000a0a0       cev                        100410a0     LIBCMT:pow_sse2_precise.obj
 0002:0000a0c8       HALFSIG                    100410c8     LIBCMT:pow_sse2_precise.obj
 0002:0000a0d0       LHN                        100410d0     LIBCMT:pow_sse2_precise.obj
 0002:0000a0d8       sNaN                       100410d8     LIBCMT:pow_sse2_precise.obj
 0002:0000a0e0       INF                        100410e0     LIBCMT:pow_sse2_precise.obj
 0002:0000a0e8       NEG_INF                    100410e8     LIBCMT:pow_sse2_precise.obj
 0002:0000a0f0       NEG_ZERO                   100410f0     LIBCMT:pow_sse2_precise.obj
 0002:0000a0f8       NEG_BIG                    100410f8     LIBCMT:pow_sse2_precise.obj
 0002:0000a100       POS_BIG                    10041100     LIBCMT:pow_sse2_precise.obj
 0002:0000a108       EMIN                       10041108     LIBCMT:pow_sse2_precise.obj
 0002:0000a110       QIND                       10041110     LIBCMT:pow_sse2_precise.obj
 0002:0000a120       Shifter                    10041120     LIBCMT:asin_sse2_precise.obj
 0002:0000a130       Tbl_addr                   10041130     LIBCMT:asin_sse2_precise.obj
 0002:0000b030       T_table                    10042030     LIBCMT:asin_sse2_precise.obj
 0002:0000b830       PI_BY_2                    10042830     LIBCMT:asin_sse2_precise.obj
 0002:0000b840       SIGNMASK                   10042840     LIBCMT:asin_sse2_precise.obj
 0002:0000b850       HALFMASK                   10042850     LIBCMT:asin_sse2_precise.obj
 0002:0000b860       HALFMASK2                  10042860     LIBCMT:asin_sse2_precise.obj
 0002:0000b868       cv                         10042868     LIBCMT:asin_sse2_precise.obj
 0002:0000b880       cv2                        10042880     LIBCMT:asin_sse2_precise.obj
 0002:0000b8c0       ABSVALMASK                 100428c0     LIBCMT:asin_sse2_precise.obj
 0002:0000b8c8       TMASK                      100428c8     LIBCMT:asin_sse2_precise.obj
 0002:0000b8d0       ONEMASK                    100428d0     LIBCMT:asin_sse2_precise.obj
 0002:0000b8d8       EMIN                       100428d8     LIBCMT:asin_sse2_precise.obj
 0002:0000b8e0       MAX_ARG                    100428e0     LIBCMT:asin_sse2_precise.obj
 0002:0000b8e8       MIN_ARG                    100428e8     LIBCMT:asin_sse2_precise.obj
 0002:0000b8f0       INF                        100428f0     LIBCMT:asin_sse2_precise.obj
 0002:0000b8f8       ZERO                       100428f8     LIBCMT:asin_sse2_precise.obj
 0002:0000b900       _mexp                      10042900     LIBCMT:atan_sse2_precise.obj
 0002:0000b910       _mabs                      10042910     LIBCMT:atan_sse2_precise.obj
 0002:0000b920       _pi_2d                     10042920     LIBCMT:atan_sse2_precise.obj
 0002:0000b930       _d1400                     10042930     LIBCMT:atan_sse2_precise.obj
 0002:0000b940       _d1213                     10042940     LIBCMT:atan_sse2_precise.obj
 0002:0000b950       _d1011                     10042950     LIBCMT:atan_sse2_precise.obj
 0002:0000b960       _d89                       10042960     LIBCMT:atan_sse2_precise.obj
 0002:0000b970       _d67                       10042970     LIBCMT:atan_sse2_precise.obj
 0002:0000b980       _d45                       10042980     LIBCMT:atan_sse2_precise.obj
 0002:0000b990       _d23                       10042990     LIBCMT:atan_sse2_precise.obj
 0002:0000b9a0       _d01                       100429a0     LIBCMT:atan_sse2_precise.obj
 0002:0000b9b0       _p60                       100429b0     LIBCMT:atan_sse2_precise.obj
 0002:0000b9c0       _p45                       100429c0     LIBCMT:atan_sse2_precise.obj
 0002:0000b9d0       _p23                       100429d0     LIBCMT:atan_sse2_precise.obj
 0002:0000b9e0       _p01                       100429e0     LIBCMT:atan_sse2_precise.obj
 0002:0000b9f0       _cntshf                    100429f0     LIBCMT:atan_sse2_precise.obj
 0002:0000b9f8       _zero                      100429f8     LIBCMT:atan_sse2_precise.obj
 0002:0000ba00       _onen                      10042a00     LIBCMT:atan_sse2_precise.obj
 0002:0000ba08       _one                       10042a08     LIBCMT:atan_sse2_precise.obj
 0002:0000ba10       _cnst8                     10042a10     LIBCMT:atan_sse2_precise.obj
 0002:0000ba18       _in3                       10042a18     LIBCMT:atan_sse2_precise.obj
 0002:0000ba20       _in2                       10042a20     LIBCMT:atan_sse2_precise.obj
 0002:0000ba28       _in1                       10042a28     LIBCMT:atan_sse2_precise.obj
 0002:0000ba30       _in0                       10042a30     LIBCMT:atan_sse2_precise.obj
 0002:0000ba38       _in                        10042a38     LIBCMT:atan_sse2_precise.obj
 0002:0000ba40       _minval                    10042a40     LIBCMT:atan_sse2_precise.obj
 0002:0000ba48       libm_small                 10042a48     LIBCMT:atan_sse2_precise.obj
 0002:0000ba50       _One                       10042a50     LIBCMT:floor_pentium4.obj
 0002:0000ba60       _Bns                       10042a60     LIBCMT:floor_pentium4.obj
 0002:0000ba70       _NegOne                    10042a70     LIBCMT:floor_pentium4.obj
 0002:0000ba80       _NegZero                   10042a80     LIBCMT:floor_pentium4.obj
 0002:0000ba90       _S                         10042a90     LIBCMT:floor_pentium4.obj
 0002:0000e6a8       _INF                       100456a8     LIBCMT:libm_error.obj
 0002:0000e6b8       _BIG                       100456b8     LIBCMT:libm_error.obj
 0002:0000e6c8       _ZERO                      100456c8     LIBCMT:libm_error.obj
 0002:0000e6d8       _INF_32                    100456d8     LIBCMT:libm_error.obj
 0002:0000e6e0       _NAN_32                    100456e0     LIBCMT:libm_error.obj
 0002:0000e6e8       _ZERO_32                   100456e8     LIBCMT:libm_error.obj
 0002:0000e6f0       _libm_largef               100456f0     LIBCMT:libm_error.obj
 0002:0000e6f8       _libm_smallf               100456f8     LIBCMT:libm_error.obj
 0002:0000e700       _libm_small                10045700     LIBCMT:libm_error.obj
 0002:0000f000       _rterrs                    10046000     LIBCMT:crt0msg.obj
 0002:0000f524       ?ccsField@?P@??_openfile@@9@9 10046524     LIBCMT:_open.obj
 0002:0000f528       ?utf8encoding@?P@??_openfile@@9@9 10046528     LIBCMT:_open.obj
 0002:0000f530       ?utf16encoding@?P@??_openfile@@9@9 10046530     LIBCMT:_open.obj
 0002:0000f53c       ?unicodeencoding@?P@??_openfile@@9@9 1004653c     LIBCMT:_open.obj
 0002:0000f610       DblMax                     10046610     LIBCMT:87cdisp.obj
 0002:0000f618       DblMin                     10046618     LIBCMT:87cdisp.obj
 0002:0000f620       IeeeAdjO                   10046620     LIBCMT:87cdisp.obj
 0002:0000f628       IeeeAdjU                   10046628     LIBCMT:87cdisp.obj
 0002:0000f630       _infinity                  10046630     LIBCMT:87cdisp.obj
 0002:0000f638       _zero                      10046638     LIBCMT:87cdisp.obj
 0002:00010f04       One                        10047f04     LIBCMT:87disp.obj
 0002:00010f0c       XAMtoTagTab                10047f0c     LIBCMT:87disp.obj
 0002:00010f20       One                        10047f20     LIBCMT:common.obj
 0002:00010f34       DblMax                     10047f34     LIBCMT:common.obj
 0002:00010f3c       DblMin                     10047f3c     LIBCMT:common.obj
 0002:00010f44       IeeeAdjO                   10047f44     LIBCMT:common.obj
 0002:00010f4c       IeeeAdjU                   10047f4c     LIBCMT:common.obj
 0002:00010f54       _infinity                  10047f54     LIBCMT:common.obj
 0002:00010f5c       _zero                      10047f5c     LIBCMT:common.obj
 0002:00010f70       Shifter                    10047f70     LIBCMT:asin_pentium4.obj
 0002:00010f80       Tbl_addr                   10047f80     LIBCMT:asin_pentium4.obj
 0002:00011e80       T_table                    10048e80     LIBCMT:asin_pentium4.obj
 0002:00012680       PI_BY_2                    10049680     LIBCMT:asin_pentium4.obj
 0002:00012690       SIGNMASK                   10049690     LIBCMT:asin_pentium4.obj
 0002:000126a0       HALFMASK                   100496a0     LIBCMT:asin_pentium4.obj
 0002:000126b0       HALFMASK2                  100496b0     LIBCMT:asin_pentium4.obj
 0002:000126b8       cv                         100496b8     LIBCMT:asin_pentium4.obj
 0002:000126d0       cv2                        100496d0     LIBCMT:asin_pentium4.obj
 0002:00012710       ABSVALMASK                 10049710     LIBCMT:asin_pentium4.obj
 0002:00012718       TMASK                      10049718     LIBCMT:asin_pentium4.obj
 0002:00012720       ONEMASK                    10049720     LIBCMT:asin_pentium4.obj
 0002:00012728       EMIN                       10049728     LIBCMT:asin_pentium4.obj
 0002:00012730       MAX_ARG                    10049730     LIBCMT:asin_pentium4.obj
 0002:00012738       MIN_ARG                    10049738     LIBCMT:asin_pentium4.obj
 0002:00012740       INF                        10049740     LIBCMT:asin_pentium4.obj
 0002:00012748       ZERO                       10049748     LIBCMT:asin_pentium4.obj
 0002:00012750       Shifter                    10049750     LIBCMT:acos_pentium4.obj
 0002:00012760       Tbl_addr                   10049760     LIBCMT:acos_pentium4.obj
 0002:00013660       T_table                    1004a660     LIBCMT:acos_pentium4.obj
 0002:00013e60       PI_BY_2                    1004ae60     LIBCMT:acos_pentium4.obj
 0002:00013e70       NEG_PI                     1004ae70     LIBCMT:acos_pentium4.obj
 0002:00013e80       PI                         1004ae80     LIBCMT:acos_pentium4.obj
 0002:00013e90       SIGNMASK                   1004ae90     LIBCMT:acos_pentium4.obj
 0002:00013ea0       HALFMASK                   1004aea0     LIBCMT:acos_pentium4.obj
 0002:00013eb0       HALFMASK2                  1004aeb0     LIBCMT:acos_pentium4.obj
 0002:00013ec0       cv                         1004aec0     LIBCMT:acos_pentium4.obj
 0002:00013ee0       cv2                        1004aee0     LIBCMT:acos_pentium4.obj
 0002:00013f20       ABSVALMASK                 1004af20     LIBCMT:acos_pentium4.obj
 0002:00013f28       TMASK                      1004af28     LIBCMT:acos_pentium4.obj
 0002:00013f30       ONEMASK                    1004af30     LIBCMT:acos_pentium4.obj
 0002:00013f38       ONE_BY_2                   1004af38     LIBCMT:acos_pentium4.obj
 0002:00013f40       EMIN                       1004af40     LIBCMT:acos_pentium4.obj
 0002:00013f48       MAX_ARG                    1004af48     LIBCMT:acos_pentium4.obj
 0002:00013f50       MIN_ARG                    1004af50     LIBCMT:acos_pentium4.obj
 0002:00013f58       INF                        1004af58     LIBCMT:acos_pentium4.obj
 0002:00013f60       ZERO                       1004af60     LIBCMT:acos_pentium4.obj
 0002:00013f68       ALPHA                      1004af68     LIBCMT:acos_pentium4.obj
 0002:00013f70       Ctable                     1004af70     LIBCMT:sin_pentium4.obj
 0002:00014770       SC_1                       1004b770     LIBCMT:sin_pentium4.obj
 0002:00014780       SC_2                       1004b780     LIBCMT:sin_pentium4.obj
 0002:00014790       SC_3                       1004b790     LIBCMT:sin_pentium4.obj
 0002:000147a0       SC_4                       1004b7a0     LIBCMT:sin_pentium4.obj
 0002:000147b0       PI32INV                    1004b7b0     LIBCMT:sin_pentium4.obj
 0002:000147b8       SHIFTER                    1004b7b8     LIBCMT:sin_pentium4.obj
 0002:000147c0       P_2                        1004b7c0     LIBCMT:sin_pentium4.obj
 0002:000147d0       P_1                        1004b7d0     LIBCMT:sin_pentium4.obj
 0002:000147d8       P_3                        1004b7d8     LIBCMT:sin_pentium4.obj
 0002:000147e0       TWO_POW_55                 1004b7e0     LIBCMT:sin_pentium4.obj
 0002:000147e8       TWO_POW_M55                1004b7e8     LIBCMT:sin_pentium4.obj
 0002:000147f0       ALL_ONES                   1004b7f0     LIBCMT:sin_pentium4.obj
 0002:000147f8       NEG_ZERO                   1004b7f8     LIBCMT:sin_pentium4.obj
 0002:00014800       ONE                        1004b800     LIBCMT:sin_pentium4.obj
 0002:00014810       Ctable                     1004b810     LIBCMT:cos_pentium4.obj
 0002:00015010       SC_1                       1004c010     LIBCMT:cos_pentium4.obj
 0002:00015020       SC_2                       1004c020     LIBCMT:cos_pentium4.obj
 0002:00015030       SC_3                       1004c030     LIBCMT:cos_pentium4.obj
 0002:00015040       SC_4                       1004c040     LIBCMT:cos_pentium4.obj
 0002:00015050       PI32INV                    1004c050     LIBCMT:cos_pentium4.obj
 0002:00015058       SHIFTER                    1004c058     LIBCMT:cos_pentium4.obj
 0002:00015060       P_2                        1004c060     LIBCMT:cos_pentium4.obj
 0002:00015070       P_1                        1004c070     LIBCMT:cos_pentium4.obj
 0002:00015078       P_3                        1004c078     LIBCMT:cos_pentium4.obj
 0002:00015080       TWO_POW_55                 1004c080     LIBCMT:cos_pentium4.obj
 0002:00015088       TWO_POW_M55                1004c088     LIBCMT:cos_pentium4.obj
 0002:00015090       ALL_ONES                   1004c090     LIBCMT:cos_pentium4.obj
 0002:00015098       NEG_ZERO                   1004c098     LIBCMT:cos_pentium4.obj
 0002:000150a0       ONE                        1004c0a0     LIBCMT:cos_pentium4.obj
 0002:000150b0       SIGN_MASK                  1004c0b0     LIBCMT:cos_pentium4.obj
 0002:000150c0       Ctable                     1004c0c0     LIBCMT:tan_pentium4.obj
 0002:000166c0       PI32INV                    1004d6c0     LIBCMT:tan_pentium4.obj
 0002:000166d0       SHIFTER                    1004d6d0     LIBCMT:tan_pentium4.obj
 0002:000166e0       P_1                        1004d6e0     LIBCMT:tan_pentium4.obj
 0002:000166f0       P_2                        1004d6f0     LIBCMT:tan_pentium4.obj
 0002:00016700       P_3                        1004d700     LIBCMT:tan_pentium4.obj
 0002:00016710       QQ_2                       1004d710     LIBCMT:tan_pentium4.obj
 0002:00016718       ONE                        1004d718     LIBCMT:tan_pentium4.obj
 0002:00016720       MASK_35                    1004d720     LIBCMT:tan_pentium4.obj
 0002:00016730       sign_mask                  1004d730     LIBCMT:tan_pentium4.obj
 0002:00016738       TWO_POW_55                 1004d738     LIBCMT:tan_pentium4.obj
 0002:00016740       TWO_POW_M55                1004d740     LIBCMT:tan_pentium4.obj
 0002:00016748       TWO_POW_M53                1004d748     LIBCMT:tan_pentium4.obj
 0002:00016750       INF                        1004d750     LIBCMT:tan_pentium4.obj
 0002:00016760       __mb_locale_names          1004d760     LIBCMT:mbctype.obj
 0002:00016770       _GS_ExceptionPointers      1004d770     LIBCMT:gs_report.obj
 0002:00016840       __first_127char            1004d840     LIBCMT:wsetloca.obj
 0002:000168e4       ?ccsField@?P@??_wopenfile@@9@9 1004d8e4     LIBCMT:_wopen.obj
 0002:000168ec       ?utf8encoding@?P@??_wopenfile@@9@9 1004d8ec     LIBCMT:_wopen.obj
 0002:000168f8       ?utf16encoding@?P@??_wopenfile@@9@9 1004d8f8     LIBCMT:_wopen.obj
 0002:0001690c       ?unicodeencoding@?P@??_wopenfile@@9@9 1004d90c     LIBCMT:_wopen.obj
 0002:000169c0       smask                      1004d9c0     LIBCMT:exp_pentium4.obj
 0002:000169d0       emask                      1004d9d0     LIBCMT:exp_pentium4.obj
 0002:000169e0       mmask                      1004d9e0     LIBCMT:exp_pentium4.obj
 0002:000169f0       bias                       1004d9f0     LIBCMT:exp_pentium4.obj
 0002:00016a00       Shifter                    1004da00     LIBCMT:exp_pentium4.obj
 0002:00016a10       twom60                     1004da10     LIBCMT:exp_pentium4.obj
 0002:00016a20       cv                         1004da20     LIBCMT:exp_pentium4.obj
 0002:00016a70       Tbl_addr                   1004da70     LIBCMT:exp_pentium4.obj
 0002:00016e70       ONE_val                    1004de70     LIBCMT:exp_pentium4.obj
 0002:00016e78       EMIN                       1004de78     LIBCMT:exp_pentium4.obj
 0002:00016e80       MAX_ARG                    1004de80     LIBCMT:exp_pentium4.obj
 0002:00016e88       MIN_ARG                    1004de88     LIBCMT:exp_pentium4.obj
 0002:00016e90       INF                        1004de90     LIBCMT:exp_pentium4.obj
 0002:00016e98       ZERO                       1004de98     LIBCMT:exp_pentium4.obj
 0002:00016ea0       XMAX                       1004dea0     LIBCMT:exp_pentium4.obj
 0002:00016ea8       XMIN                       1004dea8     LIBCMT:exp_pentium4.obj
 0002:00016eb0       Sm_Thres                   1004deb0     LIBCMT:exp_pentium4.obj
 0002:00016eb8       Del_Thres                  1004deb8     LIBCMT:exp_pentium4.obj
 0002:00016ede       _log2max                   1004dede     LIBCMT:87tran.obj
 0002:00016ee8       _smallarg                  1004dee8     LIBCMT:87tran.obj
 0002:00016ef2       _half                      1004def2     LIBCMT:87tran.obj
 0002:00016f98       _tokenTable                1004df98     LIBCMT:undname.obj
 0002:00016fcc       _rttiTable                 1004dfcc     LIBCMT:undname.obj
 0002:00016fe0       _nameTable                 1004dfe0     LIBCMT:undname.obj
 0002:000176d0       rcp_t1                     1004e6d0     LIBCMT:pow_pentium4.obj
 0002:00017ae0       log2_t1                    1004eae0     LIBCMT:pow_pentium4.obj
 0002:000182f0       rcp_t2                     1004f2f0     LIBCMT:pow_pentium4.obj
 0002:00018700       log2_t2                    1004f700     LIBCMT:pow_pentium4.obj
 0002:00018f10       rcp_t3                     1004ff10     LIBCMT:pow_pentium4.obj
 0002:00019720       log2_t3                    10050720     LIBCMT:pow_pentium4.obj
 0002:0001a730       clv                        10051730     LIBCMT:pow_pentium4.obj
 0002:0001a750       exp2_tbl                   10051750     LIBCMT:pow_pentium4.obj
 0002:0001af50       Shifter                    10051f50     LIBCMT:pow_pentium4.obj
 0002:0001af60       SIGMASK                    10051f60     LIBCMT:pow_pentium4.obj
 0002:0001af70       ONEMASK                    10051f70     LIBCMT:pow_pentium4.obj
 0002:0001af80       ABSVALMASK                 10051f80     LIBCMT:pow_pentium4.obj
 0002:0001af90       cev                        10051f90     LIBCMT:pow_pentium4.obj
 0002:0001afb8       HALFSIG                    10051fb8     LIBCMT:pow_pentium4.obj
 0002:0001afc0       LHN                        10051fc0     LIBCMT:pow_pentium4.obj
 0002:0001afc8       sNaN                       10051fc8     LIBCMT:pow_pentium4.obj
 0002:0001afd0       INF                        10051fd0     LIBCMT:pow_pentium4.obj
 0002:0001afd8       NEG_INF                    10051fd8     LIBCMT:pow_pentium4.obj
 0002:0001afe0       NEG_ZERO                   10051fe0     LIBCMT:pow_pentium4.obj
 0002:0001afe8       NEG_BIG                    10051fe8     LIBCMT:pow_pentium4.obj
 0002:0001aff0       POS_BIG                    10051ff0     LIBCMT:pow_pentium4.obj
 0002:0001aff8       EMIN                       10051ff8     LIBCMT:pow_pentium4.obj
 0002:0001b000       QIND                       10052000     LIBCMT:pow_pentium4.obj
 0002:0001b010       _mexp                      10052010     LIBCMT:atan_pentium4.obj
 0002:0001b020       _mabs                      10052020     LIBCMT:atan_pentium4.obj
 0002:0001b030       _pi_2d                     10052030     LIBCMT:atan_pentium4.obj
 0002:0001b040       _d1400                     10052040     LIBCMT:atan_pentium4.obj
 0002:0001b050       _d1213                     10052050     LIBCMT:atan_pentium4.obj
 0002:0001b060       _d1011                     10052060     LIBCMT:atan_pentium4.obj
 0002:0001b070       _d89                       10052070     LIBCMT:atan_pentium4.obj
 0002:0001b080       _d67                       10052080     LIBCMT:atan_pentium4.obj
 0002:0001b090       _d45                       10052090     LIBCMT:atan_pentium4.obj
 0002:0001b0a0       _d23                       100520a0     LIBCMT:atan_pentium4.obj
 0002:0001b0b0       _d01                       100520b0     LIBCMT:atan_pentium4.obj
 0002:0001b0c0       _p60                       100520c0     LIBCMT:atan_pentium4.obj
 0002:0001b0d0       _p45                       100520d0     LIBCMT:atan_pentium4.obj
 0002:0001b0e0       _p23                       100520e0     LIBCMT:atan_pentium4.obj
 0002:0001b0f0       _p01                       100520f0     LIBCMT:atan_pentium4.obj
 0002:0001b100       _cntshf                    10052100     LIBCMT:atan_pentium4.obj
 0002:0001b108       _zero                      10052108     LIBCMT:atan_pentium4.obj
 0002:0001b110       _onen                      10052110     LIBCMT:atan_pentium4.obj
 0002:0001b118       _one                       10052118     LIBCMT:atan_pentium4.obj
 0002:0001b120       _cnst8                     10052120     LIBCMT:atan_pentium4.obj
 0002:0001b128       _in3                       10052128     LIBCMT:atan_pentium4.obj
 0002:0001b130       _in2                       10052130     LIBCMT:atan_pentium4.obj
 0002:0001b138       _in1                       10052138     LIBCMT:atan_pentium4.obj
 0002:0001b140       _in0                       10052140     LIBCMT:atan_pentium4.obj
 0002:0001b148       _in                        10052148     LIBCMT:atan_pentium4.obj
 0002:0001b150       _minval                    10052150     LIBCMT:atan_pentium4.obj
 0002:0001b158       libm_small                 10052158     LIBCMT:atan_pentium4.obj
 0002:0001cae0       __unwindtable$??0MyCar@@QAE@PAVTrackDesc@@PAUCarElt@@PAUSituation@@@Z 10053ae0     mycar.obj
 0002:0001cae8       __ehfuncinfo$??0MyCar@@QAE@PAVTrackDesc@@PAUCarElt@@PAUSituation@@@Z 10053ae8     mycar.obj
 0002:0001cb0c       __catchsym$?_Copy@?$basic_string@DU?$char_traits@D@std@@V?$allocator@D@2@@std@@QAEXII@Z$5 10053b0c     NeuralNetwork.obj
 0002:0001cb1c       __catchsym$?_Copy@?$basic_string@DU?$char_traits@D@std@@V?$allocator@D@2@@std@@QAEXII@Z$4 10053b1c     NeuralNetwork.obj
 0002:0001cb2c       __unwindtable$?_Copy@?$basic_string@DU?$char_traits@D@std@@V?$allocator@D@2@@std@@QAEXII@Z 10053b2c     NeuralNetwork.obj
 0002:0001cb4c       __ehfuncinfo$?_Copy@?$basic_string@DU?$char_traits@D@std@@V?$allocator@D@2@@std@@QAEXII@Z 10053b4c     NeuralNetwork.obj
 0002:0001cb70       __tryblocktable$?_Copy@?$basic_string@DU?$char_traits@D@std@@V?$allocator@D@2@@std@@QAEXII@Z 10053b70     NeuralNetwork.obj
 0002:0001cb98       __catchsym$??0?$vector@MV?$allocator@M@std@@@std@@QAE@ABV01@@Z$2 10053b98     NeuralNetwork.obj
 0002:0001cba8       __unwindtable$??0?$vector@MV?$allocator@M@std@@@std@@QAE@ABV01@@Z 10053ba8     NeuralNetwork.obj
 0002:0001cbb8       __tryblocktable$??0?$vector@MV?$allocator@M@std@@@std@@QAE@ABV01@@Z 10053bb8     NeuralNetwork.obj
 0002:0001cbcc       __ehfuncinfo$??0?$vector@MV?$allocator@M@std@@@std@@QAE@ABV01@@Z 10053bcc     NeuralNetwork.obj
 0002:0001cbf0       __catchsym$??0?$vector@UNeuron@@V?$allocator@UNeuron@@@std@@@std@@QAE@ABV01@@Z$2 10053bf0     NeuralNetwork.obj
 0002:0001cc00       __unwindtable$??0?$vector@UNeuron@@V?$allocator@UNeuron@@@std@@@std@@QAE@ABV01@@Z 10053c00     NeuralNetwork.obj
 0002:0001cc10       __tryblocktable$??0?$vector@UNeuron@@V?$allocator@UNeuron@@@std@@@std@@QAE@ABV01@@Z 10053c10     NeuralNetwork.obj
 0002:0001cc24       __ehfuncinfo$??0?$vector@UNeuron@@V?$allocator@UNeuron@@@std@@@std@@QAE@ABV01@@Z 10053c24     NeuralNetwork.obj
 0002:0001cc48       __ehfuncinfo$??0_Locinfo@std@@QAE@PBD@Z 10053c48     NeuralNetwork.obj
 0002:0001cc6c       __unwindtable$??0_Locinfo@std@@QAE@PBD@Z 10053c6c     NeuralNetwork.obj
 0002:0001cca4       __unwindtable$??$use_facet@V?$codecvt@DDH@std@@@std@@YAABV?$codecvt@DDH@0@ABVlocale@0@@Z 10053ca4     NeuralNetwork.obj
 0002:0001cca4       __unwindtable$??$use_facet@V?$ctype@D@std@@@std@@YAABV?$ctype@D@0@ABVlocale@0@@Z 10053ca4     NeuralNetwork.obj
 0002:0001cca4       __unwindtable$??$use_facet@V?$numpunct@D@std@@@std@@YAABV?$numpunct@D@0@ABVlocale@0@@Z 10053ca4     NeuralNetwork.obj
 0002:0001cca4       __unwindtable$??$use_facet@V?$num_put@DV?$ostreambuf_iterator@DU?$char_traits@D@std@@@std@@@std@@@std@@YAABV?$num_put@DV?$ostreambuf_iterator@DU?$char_traits@D@std@@@std@@@0@ABVlocale@0@@Z 10053ca4     NeuralNetwork.obj
 0002:0001ccac       __ehfuncinfo$??$use_facet@V?$codecvt@DDH@std@@@std@@YAABV?$codecvt@DDH@0@ABVlocale@0@@Z 10053cac     NeuralNetwork.obj
 0002:0001ccac       __ehfuncinfo$??$use_facet@V?$ctype@D@std@@@std@@YAABV?$ctype@D@0@ABVlocale@0@@Z 10053cac     NeuralNetwork.obj
 0002:0001ccac       __ehfuncinfo$??$use_facet@V?$numpunct@D@std@@@std@@YAABV?$numpunct@D@0@ABVlocale@0@@Z 10053cac     NeuralNetwork.obj
 0002:0001ccac       __ehfuncinfo$??$use_facet@V?$num_put@DV?$ostreambuf_iterator@DU?$char_traits@D@std@@@std@@@std@@@std@@YAABV?$num_put@DV?$ostreambuf_iterator@DU?$char_traits@D@std@@@std@@@0@ABVlocale@0@@Z 10053cac     NeuralNetwork.obj
 0002:0001ccd0       __unwindtable$??0failure@ios_base@std@@QAE@PBDABVerror_code@2@@Z 10053cd0     NeuralNetwork.obj
 0002:0001ccd8       __ehfuncinfo$??0failure@ios_base@std@@QAE@PBDABVerror_code@2@@Z 10053cd8     NeuralNetwork.obj
 0002:0001ccfc       __unwindtable$?init@?$basic_ios@DU?$char_traits@D@std@@@std@@IAEXPAV?$basic_streambuf@DU?$char_traits@D@std@@@2@_N@Z 10053cfc     NeuralNetwork.obj
 0002:0001cd04       __ehfuncinfo$?init@?$basic_ios@DU?$char_traits@D@std@@@std@@IAEXPAV?$basic_streambuf@DU?$char_traits@D@std@@@2@_N@Z 10053d04     NeuralNetwork.obj
 0002:0001cd28       __catchsym$?_Osfx@?$basic_ostream@DU?$char_traits@D@std@@@std@@QAEXXZ$2 10053d28     NeuralNetwork.obj
 0002:0001cd38       __unwindtable$?_Osfx@?$basic_ostream@DU?$char_traits@D@std@@@std@@QAEXXZ 10053d38     NeuralNetwork.obj
 0002:0001cd48       __tryblocktable$?_Osfx@?$basic_ostream@DU?$char_traits@D@std@@@std@@QAEXXZ 10053d48     NeuralNetwork.obj
 0002:0001cd5c       __ehfuncinfo$?_Osfx@?$basic_ostream@DU?$char_traits@D@std@@@std@@QAEXXZ 10053d5c     NeuralNetwork.obj
 0002:0001cd80       __catchsym$??6?$basic_ostream@DU?$char_traits@D@std@@@std@@QAEAAV01@M@Z$5 10053d80     NeuralNetwork.obj
 0002:0001cd90       __tryblocktable$??6?$basic_ostream@DU?$char_traits@D@std@@@std@@QAEAAV01@M@Z 10053d90     NeuralNetwork.obj
 0002:0001cda4       __ehfuncinfo$??6?$basic_ostream@DU?$char_traits@D@std@@@std@@QAEAAV01@M@Z 10053da4     NeuralNetwork.obj
 0002:0001cdc8       __unwindtable$??6?$basic_ostream@DU?$char_traits@D@std@@@std@@QAEAAV01@M@Z 10053dc8     NeuralNetwork.obj
 0002:0001cdf0       __catchsym$?put@?$basic_ostream@DU?$char_traits@D@std@@@std@@QAEAAV12@D@Z$4 10053df0     NeuralNetwork.obj
 0002:0001ce00       __tryblocktable$?put@?$basic_ostream@DU?$char_traits@D@std@@@std@@QAEAAV12@D@Z 10053e00     NeuralNetwork.obj
 0002:0001ce14       __unwindtable$?put@?$basic_ostream@DU?$char_traits@D@std@@@std@@QAEAAV12@D@Z 10053e14     NeuralNetwork.obj
 0002:0001ce34       __ehfuncinfo$?put@?$basic_ostream@DU?$char_traits@D@std@@@std@@QAEAAV12@D@Z 10053e34     NeuralNetwork.obj
 0002:0001ce58       __unwindtable$?flush@?$basic_ostream@DU?$char_traits@D@std@@@std@@QAEAAV12@XZ 10053e58     NeuralNetwork.obj
 0002:0001ce60       __ehfuncinfo$?flush@?$basic_ostream@DU?$char_traits@D@std@@@std@@QAEAAV12@XZ 10053e60     NeuralNetwork.obj
 0002:0001ce84       __catchsym$?_Ipfx@?$basic_istream@DU?$char_traits@D@std@@@std@@QAE_N_N@Z$3 10053e84     NeuralNetwork.obj
 0002:0001ce94       __tryblocktable$?_Ipfx@?$basic_istream@DU?$char_traits@D@std@@@std@@QAE_N_N@Z 10053e94     NeuralNetwork.obj
 0002:0001cea8       __unwindtable$?_Ipfx@?$basic_istream@DU?$char_traits@D@std@@@std@@QAE_N_N@Z 10053ea8     NeuralNetwork.obj
 0002:0001cec0       __ehfuncinfo$?_Ipfx@?$basic_istream@DU?$char_traits@D@std@@@std@@QAE_N_N@Z 10053ec0     NeuralNetwork.obj
 0002:0001cee4       __catchsym$?getline@?$basic_istream@DU?$char_traits@D@std@@@std@@QAEAAV12@PAD_JD@Z$4 10053ee4     NeuralNetwork.obj
 0002:0001cef4       __tryblocktable$?getline@?$basic_istream@DU?$char_traits@D@std@@@std@@QAEAAV12@PAD_JD@Z 10053ef4     NeuralNetwork.obj
 0002:0001cf08       __unwindtable$?getline@?$basic_istream@DU?$char_traits@D@std@@@std@@QAEAAV12@PAD_JD@Z 10053f08     NeuralNetwork.obj
 0002:0001cf28       __ehfuncinfo$?getline@?$basic_istream@DU?$char_traits@D@std@@@std@@QAEAAV12@PAD_JD@Z 10053f28     NeuralNetwork.obj
 0002:0001cf4c       __catchsym$?_Reallocate@?$vector@VNeuronLayer@@V?$allocator@VNeuronLayer@@@std@@@std@@IAEXI@Z$2 10053f4c     NeuralNetwork.obj
 0002:0001cf5c       __unwindtable$?_Reallocate@?$vector@VNeuronLayer@@V?$allocator@VNeuronLayer@@@std@@@std@@IAEXI@Z 10053f5c     NeuralNetwork.obj
 0002:0001cf6c       __tryblocktable$?_Reallocate@?$vector@VNeuronLayer@@V?$allocator@VNeuronLayer@@@std@@@std@@IAEXI@Z 10053f6c     NeuralNetwork.obj
 0002:0001cf80       __ehfuncinfo$?_Reallocate@?$vector@VNeuronLayer@@V?$allocator@VNeuronLayer@@@std@@@std@@IAEXI@Z 10053f80     NeuralNetwork.obj
 0002:0001cfa4       __unwindtable$?getNetworkWeights@NeuralNetwork@@QBE?AV?$vector@V?$vector@V?$vector@MV?$allocator@M@std@@@std@@V?$allocator@V?$vector@MV?$allocator@M@std@@@std@@@2@@std@@V?$allocator@V?$vector@V?$vector@MV?$allocator@M@std@@@std@@V?$allocator@V?$vector@MV?$allocator@M@std@@@std@@@2@@std@@@2@@std@@XZ 10053fa4     NeuralNetwork.obj
 0002:0001cfb4       __unwindtable$??0NeuralNetwork@@QAE@V?$basic_string@DU?$char_traits@D@std@@V?$allocator@D@2@@std@@@Z 10053fb4     NeuralNetwork.obj
 0002:0001cfc4       __unwindtable$?exportNetwork@NeuralNetwork@@QAEXV?$basic_string@DU?$char_traits@D@std@@V?$allocator@D@2@@std@@@Z 10053fc4     NeuralNetwork.obj
 0002:0001cfdc       __unwindtable$??0NeuralNetwork@@QAE@HHHH@Z 10053fdc     NeuralNetwork.obj
 0002:0001cffc       __ehfuncinfo$?importNetwork@NeuralNetwork@@QAEXV?$basic_string@DU?$char_traits@D@std@@V?$allocator@D@2@@std@@@Z 10053ffc     NeuralNetwork.obj
 0002:0001d020       __ehfuncinfo$?exportNetwork@NeuralNetwork@@QAEXV?$basic_string@DU?$char_traits@D@std@@V?$allocator@D@2@@std@@@Z 10054020     NeuralNetwork.obj
 0002:0001d044       __ehfuncinfo$?getNetworkWeights@NeuralNetwork@@QBE?AV?$vector@V?$vector@V?$vector@MV?$allocator@M@std@@@std@@V?$allocator@V?$vector@MV?$allocator@M@std@@@std@@@2@@std@@V?$allocator@V?$vector@V?$vector@MV?$allocator@M@std@@@std@@V?$allocator@V?$vector@MV?$allocator@M@std@@@std@@@2@@std@@@2@@std@@XZ 10054044     NeuralNetwork.obj
 0002:0001d068       __ehfuncinfo$??0NeuralNetwork@@QAE@V?$basic_string@DU?$char_traits@D@std@@V?$allocator@D@2@@std@@@Z 10054068     NeuralNetwork.obj
 0002:0001d08c       __ehfuncinfo$??0NeuralNetwork@@QAE@HHHH@Z 1005408c     NeuralNetwork.obj
 0002:0001d0b0       __unwindtable$?importNetwork@NeuralNetwork@@QAEXV?$basic_string@DU?$char_traits@D@std@@V?$allocator@D@2@@std@@@Z 100540b0     NeuralNetwork.obj
 0002:0001d0e8       __catchsym$?_Reallocate@?$vector@V?$vector@V?$vector@MV?$allocator@M@std@@@std@@V?$allocator@V?$vector@MV?$allocator@M@std@@@std@@@2@@std@@V?$allocator@V?$vector@V?$vector@MV?$allocator@M@std@@@std@@V?$allocator@V?$vector@MV?$allocator@M@std@@@std@@@2@@std@@@2@@std@@IAEXI@Z$2 100540e8     NeuralNetwork.obj
 0002:0001d0f8       __unwindtable$?_Reallocate@?$vector@V?$vector@V?$vector@MV?$allocator@M@std@@@std@@V?$allocator@V?$vector@MV?$allocator@M@std@@@std@@@2@@std@@V?$allocator@V?$vector@V?$vector@MV?$allocator@M@std@@@std@@V?$allocator@V?$vector@MV?$allocator@M@std@@@std@@@2@@std@@@2@@std@@IAEXI@Z 100540f8     NeuralNetwork.obj
 0002:0001d108       __tryblocktable$?_Reallocate@?$vector@V?$vector@V?$vector@MV?$allocator@M@std@@@std@@V?$allocator@V?$vector@MV?$allocator@M@std@@@std@@@2@@std@@V?$allocator@V?$vector@V?$vector@MV?$allocator@M@std@@@std@@V?$allocator@V?$vector@MV?$allocator@M@std@@@std@@@2@@std@@@2@@std@@IAEXI@Z 10054108     NeuralNetwork.obj
 0002:0001d11c       __ehfuncinfo$?_Reallocate@?$vector@V?$vector@V?$vector@MV?$allocator@M@std@@@std@@V?$allocator@V?$vector@MV?$allocator@M@std@@@std@@@2@@std@@V?$allocator@V?$vector@V?$vector@MV?$allocator@M@std@@@std@@V?$allocator@V?$vector@MV?$allocator@M@std@@@std@@@2@@std@@@2@@std@@IAEXI@Z 1005411c     NeuralNetwork.obj
 0002:0001d140       __catchsym$??0?$vector@V?$vector@MV?$allocator@M@std@@@std@@V?$allocator@V?$vector@MV?$allocator@M@std@@@std@@@2@@std@@QAE@ABV01@@Z$2 10054140     NeuralNetwork.obj
 0002:0001d150       __unwindtable$??0?$vector@V?$vector@MV?$allocator@M@std@@@std@@V?$allocator@V?$vector@MV?$allocator@M@std@@@std@@@2@@std@@QAE@ABV01@@Z 10054150     NeuralNetwork.obj
 0002:0001d160       __tryblocktable$??0?$vector@V?$vector@MV?$allocator@M@std@@@std@@V?$allocator@V?$vector@MV?$allocator@M@std@@@std@@@2@@std@@QAE@ABV01@@Z 10054160     NeuralNetwork.obj
 0002:0001d174       __ehfuncinfo$??0?$vector@V?$vector@MV?$allocator@M@std@@@std@@V?$allocator@V?$vector@MV?$allocator@M@std@@@std@@@2@@std@@QAE@ABV01@@Z 10054174     NeuralNetwork.obj
 0002:0001d198       __unwindtable$?push_back@?$vector@V?$vector@V?$vector@MV?$allocator@M@std@@@std@@V?$allocator@V?$vector@MV?$allocator@M@std@@@std@@@2@@std@@V?$allocator@V?$vector@V?$vector@MV?$allocator@M@std@@@std@@V?$allocator@V?$vector@MV?$allocator@M@std@@@std@@@2@@std@@@2@@std@@QAEXABV?$vector@V?$vector@MV?$allocator@M@std@@@std@@V?$allocator@V?$vector@MV?$allocator@M@std@@@std@@@2@@2@@Z 10054198     NeuralNetwork.obj
 0002:0001d198       __unwindtable$?push_back@?$vector@V?$vector@MV?$allocator@M@std@@@std@@V?$allocator@V?$vector@MV?$allocator@M@std@@@std@@@2@@std@@QAEXABV?$vector@MV?$allocator@M@std@@@2@@Z 10054198     NeuralNetwork.obj
 0002:0001d198       __unwindtable$?push_back@?$vector@VNeuronLayer@@V?$allocator@VNeuronLayer@@@std@@@std@@QAEX$$QAVNeuronLayer@@@Z 10054198     NeuralNetwork.obj
 0002:0001d1a8       __ehfuncinfo$?push_back@?$vector@V?$vector@MV?$allocator@M@std@@@std@@V?$allocator@V?$vector@MV?$allocator@M@std@@@std@@@2@@std@@QAEXABV?$vector@MV?$allocator@M@std@@@2@@Z 100541a8     NeuralNetwork.obj
 0002:0001d1a8       __ehfuncinfo$?push_back@?$vector@VNeuronLayer@@V?$allocator@VNeuronLayer@@@std@@@std@@QAEX$$QAVNeuronLayer@@@Z 100541a8     NeuralNetwork.obj
 0002:0001d1a8       __ehfuncinfo$?push_back@?$vector@V?$vector@V?$vector@MV?$allocator@M@std@@@std@@V?$allocator@V?$vector@MV?$allocator@M@std@@@std@@@2@@std@@V?$allocator@V?$vector@V?$vector@MV?$allocator@M@std@@@std@@V?$allocator@V?$vector@MV?$allocator@M@std@@@std@@@2@@std@@@2@@std@@QAEXABV?$vector@V?$vector@MV?$allocator@M@std@@@std@@V?$allocator@V?$vector@MV?$allocator@M@std@@@std@@@2@@2@@Z 100541a8     NeuralNetwork.obj
 0002:0001d1cc       __catchsym$?_Reallocate@?$vector@V?$vector@MV?$allocator@M@std@@@std@@V?$allocator@V?$vector@MV?$allocator@M@std@@@std@@@2@@std@@IAEXI@Z$2 100541cc     NeuralNetwork.obj
 0002:0001d1dc       __unwindtable$?_Reallocate@?$vector@V?$vector@MV?$allocator@M@std@@@std@@V?$allocator@V?$vector@MV?$allocator@M@std@@@std@@@2@@std@@IAEXI@Z 100541dc     NeuralNetwork.obj
 0002:0001d1ec       __tryblocktable$?_Reallocate@?$vector@V?$vector@MV?$allocator@M@std@@@std@@V?$allocator@V?$vector@MV?$allocator@M@std@@@std@@@2@@std@@IAEXI@Z 100541ec     NeuralNetwork.obj
 0002:0001d200       __ehfuncinfo$?_Reallocate@?$vector@V?$vector@MV?$allocator@M@std@@@std@@V?$allocator@V?$vector@MV?$allocator@M@std@@@std@@@2@@std@@IAEXI@Z 10054200     NeuralNetwork.obj
 0002:0001d224       __unwindtable$??0?$basic_ofstream@DU?$char_traits@D@std@@@std@@QAE@XZ 10054224     NeuralNetwork.obj
 0002:0001d23c       __ehfuncinfo$??0?$basic_ofstream@DU?$char_traits@D@std@@@std@@QAE@XZ 1005423c     NeuralNetwork.obj
 0002:0001d260       __unwindtable$?open@?$basic_filebuf@DU?$char_traits@D@std@@@std@@QAEPAV12@PBDHH@Z 10054260     NeuralNetwork.obj
 0002:0001d268       __ehfuncinfo$?open@?$basic_filebuf@DU?$char_traits@D@std@@@std@@QAEPAV12@PBDHH@Z 10054268     NeuralNetwork.obj
 0002:0001d28c       __unwindtable$?uflow@?$basic_filebuf@DU?$char_traits@D@std@@@std@@MAEHXZ 1005428c     NeuralNetwork.obj
 0002:0001d28c       __unwindtable$?overflow@?$basic_filebuf@DU?$char_traits@D@std@@@std@@MAEHH@Z 1005428c     NeuralNetwork.obj
 0002:0001d294       __ehfuncinfo$?overflow@?$basic_filebuf@DU?$char_traits@D@std@@@std@@MAEHH@Z 10054294     NeuralNetwork.obj
 0002:0001d294       __ehfuncinfo$?uflow@?$basic_filebuf@DU?$char_traits@D@std@@@std@@MAEHXZ 10054294     NeuralNetwork.obj
 0002:0001d2b8       __unwindtable$?_Endwrite@?$basic_filebuf@DU?$char_traits@D@std@@@std@@IAE_NXZ 100542b8     NeuralNetwork.obj
 0002:0001d2c0       __ehfuncinfo$?_Endwrite@?$basic_filebuf@DU?$char_traits@D@std@@@std@@IAE_NXZ 100542c0     NeuralNetwork.obj
 0002:0001d2e4       __catchsym$??$?6U?$char_traits@D@std@@@std@@YAAAV?$basic_ostream@DU?$char_traits@D@std@@@0@AAV10@PBD@Z$4 100542e4     NeuralNetwork.obj
 0002:0001d2f4       __tryblocktable$??$?6U?$char_traits@D@std@@@std@@YAAAV?$basic_ostream@DU?$char_traits@D@std@@@0@AAV10@PBD@Z 100542f4     NeuralNetwork.obj
 0002:0001d308       __unwindtable$??$?6U?$char_traits@D@std@@@std@@YAAAV?$basic_ostream@DU?$char_traits@D@std@@@0@AAV10@PBD@Z 10054308     NeuralNetwork.obj
 0002:0001d328       __ehfuncinfo$??$?6U?$char_traits@D@std@@@std@@YAAAV?$basic_ostream@DU?$char_traits@D@std@@@0@AAV10@PBD@Z 10054328     NeuralNetwork.obj
 0002:0001d34c       __unwindtable$??0?$basic_ifstream@DU?$char_traits@D@std@@@std@@QAE@XZ 1005434c     NeuralNetwork.obj
 0002:0001d364       __ehfuncinfo$??0?$basic_ifstream@DU?$char_traits@D@std@@@std@@QAE@XZ 10054364     NeuralNetwork.obj
 0002:0001d388       __unwindtable$??0sentry@?$basic_ostream@DU?$char_traits@D@std@@@std@@QAE@AAV12@@Z 10054388     NeuralNetwork.obj
 0002:0001d390       __ehfuncinfo$??0sentry@?$basic_ostream@DU?$char_traits@D@std@@@std@@QAE@AAV12@@Z 10054390     NeuralNetwork.obj
 0002:0001d3b4       __unwindtable$?_Getcat@?$num_put@DV?$ostreambuf_iterator@DU?$char_traits@D@std@@@std@@@std@@SAIPAPBVfacet@locale@2@PBV42@@Z 100543b4     NeuralNetwork.obj
 0002:0001d3b4       __unwindtable$?_Getcat@?$ctype@D@std@@SAIPAPBVfacet@locale@2@PBV42@@Z 100543b4     NeuralNetwork.obj
 0002:0001d3b4       __unwindtable$?_Getcat@?$codecvt@DDH@std@@SAIPAPBVfacet@locale@2@PBV42@@Z 100543b4     NeuralNetwork.obj
 0002:0001d3bc       __ehfuncinfo$?_Getcat@?$ctype@D@std@@SAIPAPBVfacet@locale@2@PBV42@@Z 100543bc     NeuralNetwork.obj
 0002:0001d3bc       __ehfuncinfo$?_Getcat@?$codecvt@DDH@std@@SAIPAPBVfacet@locale@2@PBV42@@Z 100543bc     NeuralNetwork.obj
 0002:0001d3bc       __ehfuncinfo$?_Getcat@?$num_put@DV?$ostreambuf_iterator@DU?$char_traits@D@std@@@std@@@std@@SAIPAPBVfacet@locale@2@PBV42@@Z 100543bc     NeuralNetwork.obj
 0002:0001d3e0       __unwindtable$?do_put@?$num_put@DV?$ostreambuf_iterator@DU?$char_traits@D@std@@@std@@@std@@MBE?AV?$ostreambuf_iterator@DU?$char_traits@D@std@@@2@V32@AAVios_base@2@D_N@Z 100543e0     NeuralNetwork.obj
 0002:0001d3f0       __ehfuncinfo$?do_put@?$num_put@DV?$ostreambuf_iterator@DU?$char_traits@D@std@@@std@@@std@@MBE?AV?$ostreambuf_iterator@DU?$char_traits@D@std@@@2@V32@AAVios_base@2@D_N@Z 100543f0     NeuralNetwork.obj
 0002:0001d414       __unwindtable$?_Fput@?$num_put@DV?$ostreambuf_iterator@DU?$char_traits@D@std@@@std@@@std@@ABA?AV?$ostreambuf_iterator@DU?$char_traits@D@std@@@2@V32@AAVios_base@2@DPBDIIII@Z 10054414     NeuralNetwork.obj
 0002:0001d434       __ehfuncinfo$?_Fput@?$num_put@DV?$ostreambuf_iterator@DU?$char_traits@D@std@@@std@@@std@@ABA?AV?$ostreambuf_iterator@DU?$char_traits@D@std@@@2@V32@AAVios_base@2@DPBDIIII@Z 10054434     NeuralNetwork.obj
 0002:0001d458       __unwindtable$?_Iput@?$num_put@DV?$ostreambuf_iterator@DU?$char_traits@D@std@@@std@@@std@@ABA?AV?$ostreambuf_iterator@DU?$char_traits@D@std@@@2@V32@AAVios_base@2@DPADI@Z 10054458     NeuralNetwork.obj
 0002:0001d478       __ehfuncinfo$?_Iput@?$num_put@DV?$ostreambuf_iterator@DU?$char_traits@D@std@@@std@@@std@@ABA?AV?$ostreambuf_iterator@DU?$char_traits@D@std@@@2@V32@AAVios_base@2@DPADI@Z 10054478     NeuralNetwork.obj
 0002:0001d49c       __unwindtable$?_Getcat@?$numpunct@D@std@@SAIPAPBVfacet@locale@2@PBV42@@Z 1005449c     NeuralNetwork.obj
 0002:0001d4bc       __ehfuncinfo$?_Getcat@?$numpunct@D@std@@SAIPAPBVfacet@locale@2@PBV42@@Z 100544bc     NeuralNetwork.obj
 0002:0001d4e0       __catchsym$?_Init@?$numpunct@D@std@@IAEXABV_Locinfo@2@_N@Z$2 100544e0     NeuralNetwork.obj
 0002:0001d4f0       __unwindtable$?_Init@?$numpunct@D@std@@IAEXABV_Locinfo@2@_N@Z 100544f0     NeuralNetwork.obj
 0002:0001d500       __tryblocktable$?_Init@?$numpunct@D@std@@IAEXABV_Locinfo@2@_N@Z 10054500     NeuralNetwork.obj
 0002:0001d514       __ehfuncinfo$?_Init@?$numpunct@D@std@@IAEXABV_Locinfo@2@_N@Z 10054514     NeuralNetwork.obj
 0002:0001d538       __catchsym$??$_Uninit_copy@V?$_Vector_const_iterator@V?$_Vector_val@U?$_Simple_types@V?$vector@MV?$allocator@M@std@@@std@@@std@@@std@@@std@@PAV?$vector@MV?$allocator@M@std@@@2@V?$allocator@V?$vector@MV?$allocator@M@std@@@std@@@2@@std@@YAPAV?$vector@MV?$allocator@M@std@@@0@V?$_Vector_const_iterator@V?$_Vector_val@U?$_Simple_types@V?$vector@MV?$allocator@M@std@@@std@@@std@@@std@@@0@0PAV10@AAU?$_Wrap_alloc@V?$allocator@V?$vector@MV?$allocator@M@std@@@std@@@std@@@0@U_Nonscalar_ptr_iterator_tag@0@@Z$3 10054538     NeuralNetwork.obj
 0002:0001d548       __tryblocktable$??$_Uninit_copy@V?$_Vector_const_iterator@V?$_Vector_val@U?$_Simple_types@V?$vector@MV?$allocator@M@std@@@std@@@std@@@std@@@std@@PAV?$vector@MV?$allocator@M@std@@@2@V?$allocator@V?$vector@MV?$allocator@M@std@@@std@@@2@@std@@YAPAV?$vector@MV?$allocator@M@std@@@0@V?$_Vector_const_iterator@V?$_Vector_val@U?$_Simple_types@V?$vector@MV?$allocator@M@std@@@std@@@std@@@std@@@0@0PAV10@AAU?$_Wrap_alloc@V?$allocator@V?$vector@MV?$allocator@M@std@@@std@@@std@@@0@U_Nonscalar_ptr_iterator_tag@0@@Z 10054548     NeuralNetwork.obj
 0002:0001d55c       __unwindtable$??$_Uninit_copy@V?$_Vector_const_iterator@V?$_Vector_val@U?$_Simple_types@V?$vector@MV?$allocator@M@std@@@std@@@std@@@std@@@std@@PAV?$vector@MV?$allocator@M@std@@@2@V?$allocator@V?$vector@MV?$allocator@M@std@@@std@@@2@@std@@YAPAV?$vector@MV?$allocator@M@std@@@0@V?$_Vector_const_iterator@V?$_Vector_val@U?$_Simple_types@V?$vector@MV?$allocator@M@std@@@std@@@std@@@std@@@0@0PAV10@AAU?$_Wrap_alloc@V?$allocator@V?$vector@MV?$allocator@M@std@@@std@@@std@@@0@U_Nonscalar_ptr_iterator_tag@0@@Z 1005455c     NeuralNetwork.obj
 0002:0001d574       __ehfuncinfo$??$_Uninit_copy@V?$_Vector_const_iterator@V?$_Vector_val@U?$_Simple_types@V?$vector@MV?$allocator@M@std@@@std@@@std@@@std@@@std@@PAV?$vector@MV?$allocator@M@std@@@2@V?$allocator@V?$vector@MV?$allocator@M@std@@@std@@@2@@std@@YAPAV?$vector@MV?$allocator@M@std@@@0@V?$_Vector_const_iterator@V?$_Vector_val@U?$_Simple_types@V?$vector@MV?$allocator@M@std@@@std@@@std@@@std@@@0@0PAV10@AAU?$_Wrap_alloc@V?$allocator@V?$vector@MV?$allocator@M@std@@@std@@@std@@@0@U_Nonscalar_ptr_iterator_tag@0@@Z 10054574     NeuralNetwork.obj
 0002:0001d598       __catchsym$??$_Uninit_move@PAVNeuronLayer@@PAV1@V?$allocator@VNeuronLayer@@@std@@V1@@std@@YAPAVNeuronLayer@@PAV1@00AAU?$_Wrap_alloc@V?$allocator@VNeuronLayer@@@std@@@0@0U_Nonscalar_ptr_iterator_tag@0@@Z$4 10054598     NeuralNetwork.obj
 0002:0001d5a8       __tryblocktable$??$_Uninit_move@PAVNeuronLayer@@PAV1@V?$allocator@VNeuronLayer@@@std@@V1@@std@@YAPAVNeuronLayer@@PAV1@00AAU?$_Wrap_alloc@V?$allocator@VNeuronLayer@@@std@@@0@0U_Nonscalar_ptr_iterator_tag@0@@Z 100545a8     NeuralNetwork.obj
 0002:0001d5bc       __unwindtable$??$_Uninit_move@PAVNeuronLayer@@PAV1@V?$allocator@VNeuronLayer@@@std@@V1@@std@@YAPAVNeuronLayer@@PAV1@00AAU?$_Wrap_alloc@V?$allocator@VNeuronLayer@@@std@@@0@0U_Nonscalar_ptr_iterator_tag@0@@Z 100545bc     NeuralNetwork.obj
 0002:0001d5d4       __ehfuncinfo$??$_Uninit_move@PAVNeuronLayer@@PAV1@V?$allocator@VNeuronLayer@@@std@@V1@@std@@YAPAVNeuronLayer@@PAV1@00AAU?$_Wrap_alloc@V?$allocator@VNeuronLayer@@@std@@@0@0U_Nonscalar_ptr_iterator_tag@0@@Z 100545d4     NeuralNetwork.obj
 0002:0001d5f8       __catchsym$??$_Uninit_copy@V?$_Vector_const_iterator@V?$_Vector_val@U?$_Simple_types@UNeuron@@@std@@@std@@@std@@PAUNeuron@@V?$allocator@UNeuron@@@2@@std@@YAPAUNeuron@@V?$_Vector_const_iterator@V?$_Vector_val@U?$_Simple_types@UNeuron@@@std@@@std@@@0@0PAU1@AAU?$_Wrap_alloc@V?$allocator@UNeuron@@@std@@@0@U_Nonscalar_ptr_iterator_tag@0@@Z$5 100545f8     NeuralNetwork.obj
 0002:0001d608       __tryblocktable$??$_Uninit_copy@V?$_Vector_const_iterator@V?$_Vector_val@U?$_Simple_types@UNeuron@@@std@@@std@@@std@@PAUNeuron@@V?$allocator@UNeuron@@@2@@std@@YAPAUNeuron@@V?$_Vector_const_iterator@V?$_Vector_val@U?$_Simple_types@UNeuron@@@std@@@std@@@0@0PAU1@AAU?$_Wrap_alloc@V?$allocator@UNeuron@@@std@@@0@U_Nonscalar_ptr_iterator_tag@0@@Z 10054608     NeuralNetwork.obj
 0002:0001d61c       __unwindtable$??$_Uninit_copy@V?$_Vector_const_iterator@V?$_Vector_val@U?$_Simple_types@UNeuron@@@std@@@std@@@std@@PAUNeuron@@V?$allocator@UNeuron@@@2@@std@@YAPAUNeuron@@V?$_Vector_const_iterator@V?$_Vector_val@U?$_Simple_types@UNeuron@@@std@@@std@@@0@0PAU1@AAU?$_Wrap_alloc@V?$allocator@UNeuron@@@std@@@0@U_Nonscalar_ptr_iterator_tag@0@@Z 1005461c     NeuralNetwork.obj
 0002:0001d63c       __ehfuncinfo$??$_Uninit_copy@V?$_Vector_const_iterator@V?$_Vector_val@U?$_Simple_types@UNeuron@@@std@@@std@@@std@@PAUNeuron@@V?$allocator@UNeuron@@@2@@std@@YAPAUNeuron@@V?$_Vector_const_iterator@V?$_Vector_val@U?$_Simple_types@UNeuron@@@std@@@std@@@0@0PAU1@AAU?$_Wrap_alloc@V?$allocator@UNeuron@@@std@@@0@U_Nonscalar_ptr_iterator_tag@0@@Z 1005463c     NeuralNetwork.obj
 0002:0001d748       __unwindtable$??0Neuron@@QAE@H@Z 10054748     NeuronLayer.obj
 0002:0001d758       __ehfuncinfo$??0Neuron@@QAE@H@Z 10054758     NeuronLayer.obj
 0002:0001d77c       __unwindtable$??0Neuron@@QAE@V?$vector@MV?$allocator@M@std@@@std@@@Z 1005477c     NeuronLayer.obj
 0002:0001d794       __ehfuncinfo$??0Neuron@@QAE@V?$vector@MV?$allocator@M@std@@@std@@@Z 10054794     NeuronLayer.obj
 0002:0001d7b8       __unwindtable$?push_back@?$vector@UNeuron@@V?$allocator@UNeuron@@@std@@@std@@QAEX$$QAUNeuron@@@Z 100547b8     NeuronLayer.obj
 0002:0001d7d8       __ehfuncinfo$?push_back@?$vector@UNeuron@@V?$allocator@UNeuron@@@std@@@std@@QAEX$$QAUNeuron@@@Z 100547d8     NeuronLayer.obj
 0002:0001d7fc       __catchsym$?_Reallocate@?$vector@UNeuron@@V?$allocator@UNeuron@@@std@@@std@@IAEXI@Z$2 100547fc     NeuronLayer.obj
 0002:0001d80c       __unwindtable$?_Reallocate@?$vector@UNeuron@@V?$allocator@UNeuron@@@std@@@std@@IAEXI@Z 1005480c     NeuronLayer.obj
 0002:0001d81c       __tryblocktable$?_Reallocate@?$vector@UNeuron@@V?$allocator@UNeuron@@@std@@@std@@IAEXI@Z 1005481c     NeuronLayer.obj
 0002:0001d830       __ehfuncinfo$?_Reallocate@?$vector@UNeuron@@V?$allocator@UNeuron@@@std@@@std@@IAEXI@Z 10054830     NeuronLayer.obj
 0002:0001d854       __unwindtable$?getWeights@NeuronLayer@@QBE?AV?$vector@V?$vector@MV?$allocator@M@std@@@std@@V?$allocator@V?$vector@MV?$allocator@M@std@@@std@@@2@@std@@XZ 10054854     NeuronLayer.obj
 0002:0001d85c       __unwindtable$??0NeuronLayer@@QAE@HH@Z 1005485c     NeuronLayer.obj
 0002:0001d86c       __unwindtable$??0NeuronLayer@@QAE@V?$vector@V?$vector@MV?$allocator@M@std@@@std@@V?$allocator@V?$vector@MV?$allocator@M@std@@@std@@@2@@std@@@Z 1005486c     NeuronLayer.obj
 0002:0001d884       __ehfuncinfo$?getWeights@NeuronLayer@@QBE?AV?$vector@V?$vector@MV?$allocator@M@std@@@std@@V?$allocator@V?$vector@MV?$allocator@M@std@@@std@@@2@@std@@XZ 10054884     NeuronLayer.obj
 0002:0001d8a8       __ehfuncinfo$??0NeuronLayer@@QAE@V?$vector@V?$vector@MV?$allocator@M@std@@@std@@V?$allocator@V?$vector@MV?$allocator@M@std@@@std@@@2@@std@@@Z 100548a8     NeuronLayer.obj
 0002:0001d8cc       __ehfuncinfo$??0NeuronLayer@@QAE@HH@Z 100548cc     NeuronLayer.obj
 0002:0001d8f0       __catchsym$??$_Uninit_move@PAUNeuron@@PAU1@V?$allocator@UNeuron@@@std@@U1@@std@@YAPAUNeuron@@PAU1@00AAU?$_Wrap_alloc@V?$allocator@UNeuron@@@std@@@0@0U_Nonscalar_ptr_iterator_tag@0@@Z$5 100548f0     NeuronLayer.obj
 0002:0001d900       __tryblocktable$??$_Uninit_move@PAUNeuron@@PAU1@V?$allocator@UNeuron@@@std@@U1@@std@@YAPAUNeuron@@PAU1@00AAU?$_Wrap_alloc@V?$allocator@UNeuron@@@std@@@0@0U_Nonscalar_ptr_iterator_tag@0@@Z 10054900     NeuronLayer.obj
 0002:0001d914       __unwindtable$??$_Uninit_move@PAUNeuron@@PAU1@V?$allocator@UNeuron@@@std@@U1@@std@@YAPAUNeuron@@PAU1@00AAU?$_Wrap_alloc@V?$allocator@UNeuron@@@std@@@0@0U_Nonscalar_ptr_iterator_tag@0@@Z 10054914     NeuronLayer.obj
 0002:0001d934       __ehfuncinfo$??$_Uninit_move@PAUNeuron@@PAU1@V?$allocator@UNeuron@@@std@@U1@@std@@YAPAUNeuron@@PAU1@00AAU?$_Wrap_alloc@V?$allocator@UNeuron@@@std@@@0@0U_Nonscalar_ptr_iterator_tag@0@@Z 10054934     NeuronLayer.obj
 0002:0001d958       __unwindtable$?initTrack@@YAXHPAUtTrack@@PAXPAPAXPAUSituation@@@Z 10054958     stig.obj
 0002:0001d960       __unwindtable$?drive@@YAXHPAUCarElt@@PAUSituation@@@Z 10054960     stig.obj
 0002:0001d970       __unwindtable$?newrace@@YAXHPAUCarElt@@PAUSituation@@@Z 10054970     stig.obj
 0002:0001d988       __ehfuncinfo$?newrace@@YAXHPAUCarElt@@PAUSituation@@@Z 10054988     stig.obj
 0002:0001d9ac       __ehfuncinfo$?drive@@YAXHPAUCarElt@@PAUSituation@@@Z 100549ac     stig.obj
 0002:0001d9d0       __ehfuncinfo$?initTrack@@YAXHPAUtTrack@@PAXPAPAXPAUSituation@@@Z 100549d0     stig.obj
 0002:0001d9f4       __unwindtable$??0TrackDesc@@QAE@PBUtTrack@@@Z 100549f4     trackdesc.obj
 0002:0001d9fc       __ehfuncinfo$??0TrackDesc@@QAE@PBUtTrack@@@Z 100549fc     trackdesc.obj
 0002:0001daec       __unwindtable$?_Locimp_dtor@_Locimp@locale@std@@CAXPAV123@@Z 10054aec     libcpmt:locale0.obj
 0002:0001daec       __unwindtable$?_Init@locale@std@@CAPAV_Locimp@12@_N@Z 10054aec     libcpmt:locale0.obj
 0002:0001daf4       __ehfuncinfo$?_Init@locale@std@@CAPAV_Locimp@12@_N@Z 10054af4     libcpmt:locale0.obj
 0002:0001daf4       __ehfuncinfo$?_Locimp_dtor@_Locimp@locale@std@@CAXPAV123@@Z 10054af4     libcpmt:locale0.obj
 0002:0001db18       __sehtable$_printf         10054b18     LIBCMT:printf.obj
 0002:0001db38       __sehtable$__onexit        10054b38     LIBCMT:onexit.obj
 0002:0001db58       __sehtable$_fclose         10054b58     LIBCMT:fclose.obj
 0002:0001db78       __sehtable$_fflush         10054b78     LIBCMT:fflush.obj
 0002:0001db98       __sehtable$_flsall         10054b98     LIBCMT:fflush.obj
 0002:0001dbc0       __sehtable$_fgetc          10054bc0     LIBCMT:fgetc.obj
 0002:0001dbe0       __sehtable$_fputc          10054be0     LIBCMT:fputc.obj
 0002:0001dc00       __sehtable$__fseeki64      10054c00     LIBCMT:fseeki64.obj
 0002:0001dc20       __sehtable$_fwrite         10054c20     LIBCMT:fwrite.obj
 0002:0001dc40       __sehtable$_setvbuf        10054c40     LIBCMT:setvbuf.obj
 0002:0001dc60       __sehtable$_ungetc         10054c60     LIBCMT:ungetc.obj
 0002:0001dc80       __sehtable$__fsopen        10054c80     LIBCMT:fopen.obj
 0002:0001dca0       __sehtable$_fprintf        10054ca0     LIBCMT:fprintf.obj
 0002:0001dcc0       __sehtable$??_L@YGXPAXIHP6EX0@Z1@Z 10054cc0     LIBCMT:ehvecctr.obj
 0002:0001dce0       __sehtable$??_M@YGXPAXIHP6EX0@Z@Z 10054ce0     LIBCMT:ehvecdtr.obj
 0002:0001dd00       __sehtable$?__ArrayUnwind@@YGXPAXIHP6EX0@Z@Z 10054d00     LIBCMT:ehvecdtr.obj
 0002:0001dd20       __sehtable$__CRT_INIT@12   10054d20     LIBCMT:dllcrt0.obj
 0002:0001dd40       __sehtable$___DllMainCRTStartup 10054d40     LIBCMT:dllcrt0.obj
 0002:0001dd60       __sehtable$_doexit         10054d60     LIBCMT:crt0dat.obj
 0002:0001dd80       __sehtable$__mtinitlocknum 10054d80     LIBCMT:mlock.obj
 0002:0001dda0       __sehtable$___FrameUnwindToState 10054da0     LIBCMT:frame.obj
 0002:0001ddc8       __sehtable$?CallCatchBlock@@YAPAXPAUEHExceptionRecord@@PAUEHRegistrationNode@@PAU_CONTEXT@@PBU_s_FuncInfo@@PAXHK@Z 10054dc8     LIBCMT:frame.obj
 0002:0001ddf0       __sehtable$___BuildCatchObject 10054df0     LIBCMT:frame.obj
 0002:0001de10       __sehtable$___DestructExceptionObject 10054e10     LIBCMT:frame.obj
 0002:0001de2c       __catchsym$?CallUnexpected@@YAXPBU_s_ESTypeList@@@Z$2 10054e2c     LIBCMT:frame.obj
 0002:0001de3c       __unwindtable$?CallUnexpected@@YAXPBU_s_ESTypeList@@@Z 10054e3c     LIBCMT:frame.obj
 0002:0001de4c       __tryblocktable$?CallUnexpected@@YAXPBU_s_ESTypeList@@@Z 10054e4c     LIBCMT:frame.obj
 0002:0001de60       __ehfuncinfo$?CallUnexpected@@YAXPBU_s_ESTypeList@@@Z 10054e60     LIBCMT:frame.obj
 0002:0001de88       __sehtable$___BuildCatchObjectHelper 10054e88     LIBCMT:frame.obj
 0002:0001dee0       __sehtable$_setlocale      10054ee0     LIBCMT:setlocal.obj
 0002:0001df00       __sehtable$_fseek          10054f00     LIBCMT:fseek.obj
 0002:0001df20       __sehtable$_vprintf_helper 10054f20     LIBCMT:vprintf.obj
 0002:0001df40       __sehtable$__freefls@4     10054f40     LIBCMT:tidtable.obj
 0002:0001df68       __sehtable$__initptd       10054f68     LIBCMT:tidtable.obj
 0002:0001df90       __sehtable$?terminate@@YAXXZ 10054f90     LIBCMT:hooks.obj
 0002:0001dfb0       __sehtable$?_inconsistency@@YAXXZ 10054fb0     LIBCMT:hooks.obj
 0002:0001dfd0       __sehtable$__close         10054fd0     LIBCMT:close.obj
 0002:0001dff0       __sehtable$__commit        10054ff0     LIBCMT:commit.obj
 0002:0001e010       __sehtable$__write         10055010     LIBCMT:write.obj
 0002:0001e030       __sehtable$__ioinit        10055030     LIBCMT:ioinit.obj
 0002:0001e050       __sehtable$__ftelli64      10055050     LIBCMT:ftelli64.obj
 0002:0001e070       __sehtable$__lseeki64      10055070     LIBCMT:lseeki64.obj
 0002:0001e090       __sehtable$__fcloseall     10055090     LIBCMT:closeall.obj
 0002:0001e0b0       __sehtable$___updatetlocinfo 100550b0     LIBCMT:localref.obj
 0002:0001e0d0       __sehtable$?_Type_info_dtor@type_info@@CAXPAV1@@Z 100550d0     LIBCMT:typname.obj
 0002:0001e0f0       __sehtable$__getstream     100550f0     LIBCMT:stream.obj
 0002:0001e110       __sehtable$___set_fpsr_sse2 10055110     LIBCMT:fpctrl.obj
 0002:0001e130       __sehtable$__IsNonwritableInCurrentImage 10055130     LIBCMT:pesect.obj
 0002:0001e150       __sehtable$_raise          10055150     LIBCMT:winsig.obj
 0002:0001e170       __sehtable$___updatetmbcinfo 10055170     LIBCMT:mbctype.obj
 0002:0001e190       __sehtable$__setmbcp       10055190     LIBCMT:mbctype.obj
 0002:0001e1b0       __sehtable$__wsetlocale    100551b0     LIBCMT:wsetloca.obj
 0002:0001e1e8       __sehtable$__locterm       100551e8     LIBCMT:wsetloca.obj
 0002:0001e208       __sehtable$__lseek         10055208     LIBCMT:lseek.obj
 0002:0001e228       __sehtable$__alloc_osfhnd  10055228     LIBCMT:osfinfo.obj
 0002:0001e250       __sehtable$___lock_fhandle 10055250     LIBCMT:osfinfo.obj
 0002:0001e270       __sehtable$__read          10055270     LIBCMT:read.obj
 0002:0001e290       __sehtable$__sopen_helper  10055290     LIBCMT:open.obj
 0002:0001e5e0       .idata$6                   100555e0     client:client.dll
 0002:0001e6a8       .idata$6                   100556a8     tgf:tgf.dll
 0002:0001e6dc       .idata$6                   100556dc     robottools:robottools.dll
 0002:0001ec30       .idata$6                   10055c30     kernel32:KERNEL32.dll
 0002:0001ec40       .edata                     10055c40     stig.exp
 0002:0001ec68       rgpv                       10055c68     stig.exp
 0002:0001ec6c       rgszName                   10055c6c     stig.exp
 0002:0001ec70       rgwOrd                     10055c70     stig.exp
 0002:0001ec72       szName                     10055c72     stig.exp
 0002:0001ec7b       $N00001                    10055c7b     stig.exp
 0003:00000468       _color                     10056468     stig.obj
 0003:00000478       _masterPlayer              10056478     stig.obj
 0003:0000047c       _lastKeyUpdate             1005647c     stig.obj
 0003:00000480       ?firstTime@?1??common_drive@@YAXHPAUCarElt@@PAUSituation@@@Z@4HA 10056480     stig.obj
 0003:00000950       _controlList               10056950     pref.obj
 0003:00000980       __ulSeverityText           10056980     ul_vs2008_32:ulError.obj
 0003:0000098c       _init                      1005698c     libcpmt:xlock.obj
 0003:00000a30       _atcount_cdecl             10056a30     libcpmt:iosptrs.obj
 0003:00000ef0       _NAME_                     10056ef0     LIBCMT:sqrt.obj
 0003:00000f00       _NAME_                     10056f00     LIBCMT:asin.obj
 0003:00000f10       _NAME_                     10056f10     LIBCMT:acos.obj
 0003:00000f20       _NAME_                     10056f20     LIBCMT:sin.obj
 0003:00000f30       _NAME_                     10056f30     LIBCMT:cos.obj
 0003:00000f40       _NAME_                     10056f40     LIBCMT:tan.obj
 0003:00000f48       __locktable                10056f48     LIBCMT:mlock.obj
 0003:00001098       _errtable                  10057098     LIBCMT:dosmap.obj
 0003:00001200       _ErrnoNoMem                10057200     LIBCMT:dosmap.obj
 0003:00001204       _DoserrorNoMem             10057204     LIBCMT:dosmap.obj
 0003:00001208       ?isPackaged@?1??__crtIsPackagedApp@@9@9 10057208     LIBCMT:winapisupp.obj
 0003:00001230       _newcw                     10057230     LIBCMT:ceil.obj
 0003:00001508       ?_names@?1??_get_fname@@9@9 10057508     LIBCMT:fpexcept.obj
 0003:000015f0       _over                      100575f0     LIBCMT:fpctrl.obj
 0003:000015fc       _under                     100575fc     LIBCMT:fpctrl.obj
 0003:00001608       ?__DAZ_ENABLED@?1??__set_fpsr_sse2@@9@9 10057608     LIBCMT:fpctrl.obj
 0003:00001618       POW_name                   10057618     LIBCMT:pow.obj
 0003:00001620       _NAME_                     10057620     LIBCMT:atan.obj
 0003:00001628       _newcw                     10057628     LIBCMT:floor.obj
 0003:00001634       ___rgctypeflag             10057634     LIBCMT:mbctype.obj
 0003:00001638       ___rgcode_page_info        10057638     LIBCMT:mbctype.obj
 0003:00001b50       __ctype_loc_style          10057b50     LIBCMT:wsetloca.obj
 0003:00001b60       _dststart                  10057b60     LIBCMT:tzset.obj
 0003:00001b6c       _dstend                    10057b6c     LIBCMT:tzset.obj
 0003:00001b88       _tzstd                     10057b88     LIBCMT:timeset.obj
 0003:00001bc8       _tzdst                     10057bc8     LIBCMT:timeset.obj
 0003:00001d98       _DoubleFormat              10057d98     LIBCMT:intrncvt.obj
 0003:00001db0       _FloatFormat               10057db0     LIBCMT:intrncvt.obj
 0003:000020a0       _allocator_arg             100580a0     NeuralNetwork.obj
 0003:000020a1       _piecewise_construct       100580a1     NeuralNetwork.obj
 0003:000020c4       _allocator_arg             100580c4     NeuronLayer.obj
 0003:000020c5       _piecewise_construct       100580c5     NeuronLayer.obj
 0003:000020f4       _joyInfo                   100580f4     stig.obj
 0003:000020f8       _mouseInfo                 100580f8     stig.obj
 0003:000020fc       _speedLimiter              100580fc     stig.obj
 0003:00002100       _firstTime                 10058100     stig.obj
 0003:00002104       _neuralNetwork             10058104     stig.obj
 0003:00002108       _sensors                   10058108     stig.obj
 0003:0000210c       _myCar                     1005810c     stig.obj
 0003:00002110       _trackDesc                 10058110     stig.obj
 0003:00002114       _allocator_arg             10058114     stig.obj
 0003:00002115       _piecewise_construct       10058115     stig.obj
 0003:00002118       _curTrack                  10058118     stig.obj
 0003:0000211c       _Vtarget                   1005811c     stig.obj
 0003:00002120       _keyInfo                   10058120     stig.obj
 0003:00002d20       _skeyInfo                  10058d20     stig.obj
 0003:00003920       _currentKey                10059920     stig.obj
 0003:00003d20       _currentSKey               10059d20     stig.obj
 0003:00004128       __ulErrorBuffer            1005a128     ul_vs2008_32:ulError.obj
 0003:00004528       __ulErrorCB                1005a528     ul_vs2008_32:ulError.obj
 0003:00004530       _initlocks                 1005a530     libcpmt:xlock.obj
 0003:00004538       _mtx                       1005a538     libcpmt:xlock.obj
 0003:00004598       __Tuple_alloc              1005a598     libcpmt:xthrow.obj
 0003:00004599       _ignore                    1005a599     libcpmt:xthrow.obj
 0003:0000459a       _allocator_arg             1005a59a     libcpmt:xthrow.obj
 0003:0000459b       _piecewise_construct       1005a59b     libcpmt:xthrow.obj
 0003:000045b0       _global_locale             1005a5b0     libcpmt:locale0.obj
 0003:000045b4       __Fac_head                 1005a5b4     libcpmt:locale0.obj
 0003:000045c0       _allocator_arg             1005a5c0     libcpmt:locale0.obj
 0003:000045c1       _piecewise_construct       1005a5c1     libcpmt:locale0.obj
 0003:000045c2       __Fac_tidy_reg             1005a5c2     libcpmt:locale0.obj
 0003:000045cc       _classic_locale            1005a5cc     libcpmt:locale0.obj
 0003:000045d4       ?registered@?1??_Setgloballocale@locale@std@@CAXPAX@Z@4_NA 1005a5d4     libcpmt:locale0.obj
 0003:000045d5       _allocator_arg             1005a5d5     libcpmt:syserror.obj
 0003:000045d6       _piecewise_construct       1005a5d6     libcpmt:syserror.obj
 0003:000045d8       _stdstr                    1005a5d8     libcpmt:ios.obj
 0003:00004600       _stdopens                  1005a600     libcpmt:ios.obj
 0003:00004610       _allocator_arg             1005a610     libcpmt:ios.obj
 0003:00004611       _piecewise_construct       1005a611     libcpmt:ios.obj
 0003:00004612       _allocator_arg             1005a612     libcpmt:fiopen.obj
 0003:00004613       _piecewise_construct       1005a613     libcpmt:fiopen.obj
 0003:00004634       _atfuns_cdecl              1005a634     libcpmt:iosptrs.obj
 0003:0000465c       _initlocks                 1005a65c     libcpmt:iosptrs.obj
 0003:0000465d       _allocator_arg             1005a65d     libcpmt:iosptrs.obj
 0003:0000465e       _piecewise_construct       1005a65e     libcpmt:iosptrs.obj
 0003:0000465f       _init_atexit               1005a65f     libcpmt:iosptrs.obj
 0003:00004660       _allocator_arg             1005a660     libcpmt:locale.obj
 0003:00004661       _piecewise_construct       1005a661     libcpmt:locale.obj
 0003:00004668       _allocator_arg             1005a668     libcpmt:wlocale.obj
 0003:00004669       _piecewise_construct       1005a669     libcpmt:wlocale.obj
 0003:000046c0       _allocator_arg             1005a6c0     libcpmt:xlocale.obj
 0003:000046c1       _piecewise_construct       1005a6c1     libcpmt:xlocale.obj
 0003:000046e4       _allocator_arg             1005a6e4     libcpmt:xdateord.obj
 0003:000046e5       _piecewise_construct       1005a6e5     libcpmt:xdateord.obj
 0003:00004700       ___enable_percent_n        1005a700     LIBCMT:printf.obj
 0003:00004714       ___proc_attached           1005a714     LIBCMT:dllcrt0.obj
 0003:00004758       _lclcritsects              1005a758     LIBCMT:mlock.obj
 0003:000048ac       ___crtCallProc             1005a8ac     LIBCMT:winapinls.obj
 0003:000048c0       __pmatherr_set             1005a8c0     LIBCMT:libm_error.obj
 0003:000048d0       ?outmsg@?8??_NMSG_WRITE@@9@9 1005a8d0     LIBCMT:crt0msg.obj
 0003:00005008       ___type_info_root_node     1005b008     LIBCMT:typname.obj
 0003:00005018       ?_pgmname@?1??_setargv@@9@9 1005b018     LIBCMT:stdargv.obj
 0003:00005120       _g_pfnRtlGenRandom         1005b120     LIBCMT:rand_s.obj
 0003:00005124       _ctrlc_action              1005b124     LIBCMT:winsig.obj
 0003:00005128       _ctrlbreak_action          1005b128     LIBCMT:winsig.obj
 0003:0000512c       _abort_action              1005b12c     LIBCMT:winsig.obj
 0003:00005130       _term_action               1005b130     LIBCMT:winsig.obj
 0003:00005134       _ConsoleCtrlHandler_Installed 1005b134     LIBCMT:winsig.obj
 0003:00005150       _fSystemSet                1005b150     LIBCMT:mbctype.obj
 0003:00005158       _GS_ExceptionRecord        1005b158     LIBCMT:gs_report.obj
 0003:000051a8       _GS_ContextRecord          1005b1a8     LIBCMT:gs_report.obj
 0003:00005474       _DebuggerWasPresent        1005b474     LIBCMT:gs_report.obj
 0003:00005480       _lastTZ                    1005b480     LIBCMT:tzset.obj
 0003:00005484       ?first_time@?1??__tzset@@9@9 1005b484     LIBCMT:tzset.obj
 0003:00005488       _tzapiused                 1005b488     LIBCMT:tzset.obj
 0003:00005490       _tzinfo                    1005b490     LIBCMT:tzset.obj
 0003:00005544       ?pfnMessageBox@?1??__crtMessageBoxW@@9@9 1005b544     LIBCMT:crtmboxw.obj
 0003:00005548       ?pfnGetActiveWindow@?1??__crtMessageBoxW@@9@9 1005b548     LIBCMT:crtmboxw.obj
 0003:0000554c       ?pfnGetLastActivePopup@?1??__crtMessageBoxW@@9@9 1005b54c     LIBCMT:crtmboxw.obj
 0003:00005550       ?pfnGetProcessWindowStation@?1??__crtMessageBoxW@@9@9 1005b550     LIBCMT:crtmboxw.obj
 0003:00005554       ?pfnGetUserObjectInformation@?1??__crtMessageBoxW@@9@9 1005b554     LIBCMT:crtmboxw.obj
 0003:00005580       _heap                      1005b580     LIBCMT:undname.obj
