 ANN_Bot

 Timestamp is 51a15a7b (Sun May 26 02:42:35 2013)

 Preferred load address is 10000000

 Start         Length     Name                   Class
 0001:00000000 000cb98cH .text                   CODE
 0001:000cb990 00005aa3H .text$x                 CODE
 0001:000d1440 000011edH .text$yc                CODE
 0001:000d2630 000002efH .text$yd                CODE
 0002:00000000 000001a8H .idata$5                DATA
 0002:000001a8 00000004H .CRT$XCA                DATA
 0002:000001ac 00000094H .CRT$XCC                DATA
 0002:00000240 0000001cH .CRT$XCL                DATA
 0002:0000025c 000000d4H .CRT$XCU                DATA
 0002:00000330 00000004H .CRT$XCZ                DATA
 0002:00000334 00000004H .CRT$XIA                DATA
 0002:00000338 00000014H .CRT$XIC                DATA
 0002:0000034c 00000004H .CRT$XIZ                DATA
 0002:00000350 00000004H .CRT$XPA                DATA
 0002:00000354 00000008H .CRT$XPX                DATA
 0002:0000035c 00000004H .CRT$XPXA               DATA
 0002:00000360 00000004H .CRT$XPZ                DATA
 0002:00000364 00000004H .CRT$XTA                DATA
 0002:00000368 00000004H .CRT$XTZ                DATA
 0002:00000370 00021088H .rdata                  DATA
 0002:000213f8 00000084H .rdata$debug            DATA
 0002:0002147c 00001de8H .rdata$r                DATA
 0002:00023270 000005c0H .rdata$sxdata           DATA
 0002:00023830 00000004H .rtc$IAA                DATA
 0002:00023834 0000003cH .rtc$IMZ                DATA
 0002:00023870 00000004H .rtc$IZZ                DATA
 0002:00023874 00000004H .rtc$TAA                DATA
 0002:00023878 0000003cH .rtc$TMZ                DATA
 0002:000238b4 00000004H .rtc$TZZ                DATA
 0002:000238b8 00006134H .xdata$x                DATA
 0002:000299ec 0000003cH .idata$2                DATA
 0002:00029a28 00000014H .idata$3                DATA
 0002:00029a3c 000001a8H .idata$4                DATA
 0002:00029be4 00000798H .idata$6                DATA
 0002:0002a380 00000046H .edata                  DATA
 0003:00000000 00002790H .data                   DATA
 0003:000027a0 00002800H .bss                    DATA

  Address         Publics by Value              Rva+Base       Lib:Object

 0000:00000000       __except_list              00000000     <absolute>
 0000:00000170       ___safe_se_handler_count   00000170     <absolute>
 0000:00000000       ___ImageBase               10000000     <linker-defined>
 0001:00000000       ?Round@AnnAIController@@AAEMMH@Z 10001000 f   AnnAIController.obj
 0001:000000b0       ??0AnnAIController@@QAE@W4TRAINING_TYPE@@@Z 100010b0 f   AnnAIController.obj
 0001:00000160       ??1AnnAIController@@UAE@XZ 10001160 f   AnnAIController.obj
 0001:00000220       ?Init@AnnAIController@@QAEXXZ 10001220 f   AnnAIController.obj
 0001:00000520       ?Reset@AnnAIController@@QAEXXZ 10001520 f   AnnAIController.obj
 0001:00000550       ?RunTraining@AnnAIController@@QAEXV?$vector@PAUCar@@V?$allocator@PAUCar@@@std@@@std@@@Z 10001550 f   AnnAIController.obj
 0001:00000c00       ?TrainNetAndSave@AnnAIController@@QAEXXZ 10001c00 f   AnnAIController.obj
 0001:00001e80       ?Run@AnnAIController@@QAEXPAUCar@@@Z 10002e80 f   AnnAIController.obj
 0001:00002340       ?ResetTraining@AnnAIController@@QAEXXZ 10003340 f   AnnAIController.obj
 0001:000026d0       ?PrintData@AnnAIController@@QAEXABV?$basic_string@DU?$char_traits@D@std@@V?$allocator@D@2@@std@@ABM1@Z 100036d0 f   AnnAIController.obj
 0001:00002860       ??$?6DU?$char_traits@D@std@@V?$allocator@D@1@@std@@YAAAV?$basic_ostream@DU?$char_traits@D@std@@@0@AAV10@ABV?$basic_string@DU?$char_traits@D@std@@V?$allocator@D@2@@0@@Z 10003860 f i AnnAIController.obj
 0001:00002b70       ??$?6U?$char_traits@D@std@@@std@@YAAAV?$basic_ostream@DU?$char_traits@D@std@@@0@AAV10@PBD@Z 10003b70 f i AnnAIController.obj
 0001:00002ee0       ??$?8DD@std@@YA_NABV?$allocator@D@0@0@Z 10003ee0 f i AnnAIController.obj
 0001:00002ef0       ??$?8V?$allocator@D@std@@V01@@std@@YA_NABU?$_Wrap_alloc@V?$allocator@D@std@@@0@0@Z 10003ef0 f i AnnAIController.obj
 0001:00002f30       ??$?9DD@std@@YA_NABV?$allocator@D@0@0@Z 10003f30 f i AnnAIController.obj
 0001:00002f80       ??$?9V?$allocator@D@std@@V01@@std@@YA_NABU?$_Wrap_alloc@V?$allocator@D@std@@@0@0@Z 10003f80 f i AnnAIController.obj
 0001:00002fd0       ??$_Allocate@D@std@@YAPADIPAD@Z 10003fd0 f i AnnAIController.obj
 0001:00003020       ??$_Allocate@M@std@@YAPAMIPAM@Z 10004020 f i AnnAIController.obj
 0001:00003080       ??$_Allocate@PAUHistory@@@std@@YAPAPAUHistory@@IPAPAU1@@Z 10004080 f i AnnAIController.obj
 0001:000030e0       ??$_Allocate@U_Container_proxy@std@@@std@@YAPAU_Container_proxy@0@IPAU10@@Z 100040e0 f i AnnAIController.obj
 0001:00003140       ??$_DebugHeapDelete@V_Facet_base@std@@@std@@YAXPAV_Facet_base@0@@Z 10004140 f i AnnAIController.obj
 0001:00003180       ??$_DebugHeapDelete@Vfacet@locale@std@@@std@@YAXPAVfacet@locale@0@@Z 10004180 f i AnnAIController.obj
 0001:000031c0       ??$_DebugHeapDelete@Vlocale@std@@@std@@YAXPAVlocale@0@@Z 100041c0 f i AnnAIController.obj
 0001:000031f0       ??$_DebugHeapDelete@X@std@@YAXPAX@Z 100041f0 f i AnnAIController.obj
 0001:00003210       ??$_Debug_pointer@$$A6AAAV?$basic_ostream@DU?$char_traits@D@std@@@std@@AAV12@@Z@std@@YAXP6AAAV?$basic_ostream@DU?$char_traits@D@std@@@0@AAV10@@ZPB_WI@Z 10004210 f i AnnAIController.obj
 0001:00003240       ??$_Debug_pointer@D@std@@YAXPADPB_WI@Z 10004240 f i AnnAIController.obj
 0001:00003270       ??$_Debug_pointer@D@std@@YAXPBDPB_WI@Z 10004270 f i AnnAIController.obj
 0001:000032a0       ??$_Debug_pointer@M@std@@YAXPAMPB_WI@Z 100042a0 f i AnnAIController.obj
 0001:000032d0       ??$_Debug_pointer@PAUHistory@@@std@@YAXPAPAUHistory@@PB_WI@Z 100042d0 f i AnnAIController.obj
 0001:00003300       ??$_Debug_pointer@V?$ostreambuf_iterator@DU?$char_traits@D@std@@@std@@@std@@YAXAAV?$ostreambuf_iterator@DU?$char_traits@D@std@@@0@PB_WI@Z 10004300 f i AnnAIController.obj
 0001:00003310       ??$_Debug_range2@PAM@std@@YAXPAM0PB_WIUrandom_access_iterator_tag@0@@Z 10004310 f i AnnAIController.obj
 0001:00003370       ??$_Debug_range2@PAPAUHistory@@@std@@YAXPAPAUHistory@@0PB_WIUrandom_access_iterator_tag@0@@Z 10004370 f i AnnAIController.obj
 0001:000033d0       ??$_Debug_range2@PBD@std@@YAXPBD0PB_WIUrandom_access_iterator_tag@0@@Z 100043d0 f i AnnAIController.obj
 0001:00003430       ??$_Debug_range@PAM@std@@YAXPAM0PB_WI@Z 10004430 f i AnnAIController.obj
 0001:00003480       ??$_Debug_range@PAPAUHistory@@@std@@YAXPAPAUHistory@@0PB_WI@Z 10004480 f i AnnAIController.obj
 0001:000034d0       ??$_Debug_range@PBD@std@@YAXPBD0PB_WI@Z 100044d0 f i AnnAIController.obj
 0001:00003520       ??$_Destroy_range@U?$_Wrap_alloc@V?$allocator@M@std@@@std@@@std@@YAXPAM0AAU?$_Wrap_alloc@V?$allocator@M@std@@@0@@Z 10004520 f i AnnAIController.obj
 0001:00003570       ??$_Destroy_range@U?$_Wrap_alloc@V?$allocator@M@std@@@std@@@std@@YAXPAM0AAU?$_Wrap_alloc@V?$allocator@M@std@@@0@U_Scalar_ptr_iterator_tag@0@@Z 10004570 f i AnnAIController.obj
 0001:00003580       ??$_Destroy_range@U?$_Wrap_alloc@V?$allocator@PAUCar@@@std@@@std@@@std@@YAXPAPAUCar@@0AAU?$_Wrap_alloc@V?$allocator@PAUCar@@@std@@@0@@Z 10004580 f i AnnAIController.obj
 0001:000035d0       ??$_Destroy_range@U?$_Wrap_alloc@V?$allocator@PAUCar@@@std@@@std@@@std@@YAXPAPAUCar@@0AAU?$_Wrap_alloc@V?$allocator@PAUCar@@@std@@@0@U_Scalar_ptr_iterator_tag@0@@Z 100045d0 f i AnnAIController.obj
 0001:000035e0       ??$_Destroy_range@U?$_Wrap_alloc@V?$allocator@PAUHistory@@@std@@@std@@@std@@YAXPAPAUHistory@@0AAU?$_Wrap_alloc@V?$allocator@PAUHistory@@@std@@@0@@Z 100045e0 f i AnnAIController.obj
 0001:00003630       ??$_Destroy_range@U?$_Wrap_alloc@V?$allocator@PAUHistory@@@std@@@std@@@std@@YAXPAPAUHistory@@0AAU?$_Wrap_alloc@V?$allocator@PAUHistory@@@std@@@0@U_Scalar_ptr_iterator_tag@0@@Z 10004630 f i AnnAIController.obj
 0001:00003640       ??$_Fgetc@D@std@@YA_NAADPAU_iobuf@@@Z 10004640 f i AnnAIController.obj
 0001:00003680       ??$_Fputc@D@std@@YA_NDPAU_iobuf@@@Z 10004680 f i AnnAIController.obj
 0001:000036d0       ??$_Getvals@D@?$numpunct@D@std@@IAEXDPBUlconv@@U_Cvtvec@@@Z 100046d0 f i AnnAIController.obj
 0001:00003740       ??$_Iter_cat@PAM@std@@YA?AUrandom_access_iterator_tag@0@ABQAM@Z 10004740 f i AnnAIController.obj
 0001:000037a0       ??$_Iter_cat@PAPAUHistory@@@std@@YA?AUrandom_access_iterator_tag@0@ABQAPAUHistory@@@Z 100047a0 f i AnnAIController.obj
 0001:00003800       ??$_Iter_cat@PBD@std@@YA?AUrandom_access_iterator_tag@0@ABQBD@Z 10004800 f i AnnAIController.obj
 0001:00003860       ??$_Maklocchr@D@std@@YADDPADABU_Cvtvec@@@Z 10004860 f i AnnAIController.obj
 0001:00003870       ??$_Maklocstr@D@std@@YAPADPBDPADABU_Cvtvec@@@Z 10004870 f i AnnAIController.obj
 0001:00003910       ??$_Pow_int@M@@YAMMH@Z     10004910 f i AnnAIController.obj
 0001:000039b0       ??$_Ptr_cat@MM@std@@YA?AU_Scalar_ptr_iterator_tag@0@PAM0@Z 100049b0 f i AnnAIController.obj
 0001:00003a00       ??$_Ptr_cat@PAUCar@@PAU1@@std@@YA?AU_Scalar_ptr_iterator_tag@0@PAPAUCar@@0@Z 10004a00 f i AnnAIController.obj
 0001:00003a50       ??$_Ptr_cat@PAUHistory@@PAU1@@std@@YA?AU_Scalar_ptr_iterator_tag@0@PAPAUHistory@@0@Z 10004a50 f i AnnAIController.obj
 0001:00003aa0       ??$_Umove@PAM@?$vector@MV?$allocator@M@std@@@std@@IAEPAMPAM00@Z 10004aa0 f i AnnAIController.obj
 0001:00003b20       ??$_Umove@PAPAUHistory@@@?$vector@PAUHistory@@V?$allocator@PAUHistory@@@std@@@std@@IAEPAPAUHistory@@PAPAU2@00@Z 10004b20 f i AnnAIController.obj
 0001:00003ba0       ??$_Ungetc@D@std@@YA_NABDPAU_iobuf@@@Z 10004ba0 f i AnnAIController.obj
 0001:00003bf0       ??$_Uninit_move@MMM@std@@YAPAMPAM00AAU?$_Wrap_alloc@V?$allocator@M@std@@@0@0U_Scalar_ptr_iterator_tag@0@@Z 10004bf0 f i AnnAIController.obj
 0001:00003c70       ??$_Uninit_move@PAUHistory@@PAU1@PAU1@@std@@YAPAPAUHistory@@PAPAU1@00AAU?$_Wrap_alloc@V?$allocator@PAUHistory@@@std@@@0@0U_Scalar_ptr_iterator_tag@0@@Z 10004c70 f i AnnAIController.obj
 0001:00003cf0       ??$_Uninitialized_move@PAMPAMU?$_Wrap_alloc@V?$allocator@M@std@@@std@@@std@@YAPAMPAM00AAU?$_Wrap_alloc@V?$allocator@M@std@@@0@@Z 10004cf0 f i AnnAIController.obj
 0001:00003d50       ??$_Uninitialized_move@PAPAUHistory@@PAPAU1@U?$_Wrap_alloc@V?$allocator@PAUHistory@@@std@@@std@@@std@@YAPAPAUHistory@@PAPAU1@00AAU?$_Wrap_alloc@V?$allocator@PAUHistory@@@std@@@0@@Z 10004d50 f i AnnAIController.obj
 0001:00003db0       ??$_Val_type@PAM@std@@YAPAMPAM@Z 10004db0 f i AnnAIController.obj
 0001:00003dc0       ??$_Val_type@PAPAUHistory@@@std@@YAPAPAUHistory@@PAPAU1@@Z 10004dc0 f i AnnAIController.obj
 0001:00003dd0       ??$addressof@$$CBM@std@@YAPBMABM@Z 10004dd0 f i AnnAIController.obj
 0001:00003de0       ??$addressof@D@std@@YAPADAAD@Z 10004de0 f i AnnAIController.obj
 0001:00003df0       ??$addressof@QAUHistory@@@std@@YAPBQAUHistory@@ABQAU1@@Z 10004df0 f i AnnAIController.obj
 0001:00003e00       ??$construct@MAAM@?$_Wrap_alloc@V?$allocator@M@std@@@std@@QAEXPAMAAM@Z 10004e00 f i AnnAIController.obj
 0001:00003e40       ??$construct@MAAM@?$allocator@M@std@@QAEXPAMAAM@Z 10004e40 f i AnnAIController.obj
 0001:00003ef0       ??$construct@MAAM@?$allocator_traits@V?$allocator@M@std@@@std@@SAXAAV?$allocator@M@1@PAMAAM@Z 10004ef0 f i AnnAIController.obj
 0001:00003f20       ??$construct@MABM@?$_Wrap_alloc@V?$allocator@M@std@@@std@@QAEXPAMABM@Z 10004f20 f i AnnAIController.obj
 0001:00003f60       ??$construct@MABM@?$allocator_traits@V?$allocator@M@std@@@std@@SAXAAV?$allocator@M@1@PAMABM@Z 10004f60 f i AnnAIController.obj
 0001:00003f90       ??$construct@PADAAPAD@?$_Wrap_alloc@V?$allocator@D@std@@@std@@QAEXPAPADAAPAD@Z 10004f90 f i AnnAIController.obj
 0001:00003fd0       ??$construct@PADAAPAD@?$allocator@D@std@@QAEXPAPADAAPAD@Z 10004fd0 f i AnnAIController.obj
 0001:00004080       ??$construct@PADAAPAD@?$allocator_traits@V?$allocator@D@std@@@std@@SAXAAV?$allocator@D@1@PAPADAAPAD@Z 10005080 f i AnnAIController.obj
 0001:000040b0       ??$construct@PAUHistory@@AAPAU1@@?$_Wrap_alloc@V?$allocator@PAUHistory@@@std@@@std@@QAEXPAPAUHistory@@AAPAU2@@Z 100050b0 f i AnnAIController.obj
 0001:000040f0       ??$construct@PAUHistory@@AAPAU1@@?$allocator@PAUHistory@@@std@@QAEXPAPAUHistory@@AAPAU2@@Z 100050f0 f i AnnAIController.obj
 0001:000041a0       ??$construct@PAUHistory@@AAPAU1@@?$allocator_traits@V?$allocator@PAUHistory@@@std@@@std@@SAXAAV?$allocator@PAUHistory@@@1@PAPAUHistory@@AAPAU3@@Z 100051a0 f i AnnAIController.obj
 0001:000041d0       ??$construct@PAUHistory@@ABQAU1@@?$_Wrap_alloc@V?$allocator@PAUHistory@@@std@@@std@@QAEXPAPAUHistory@@ABQAU2@@Z 100051d0 f i AnnAIController.obj
 0001:00004210       ??$construct@PAUHistory@@ABQAU1@@?$allocator_traits@V?$allocator@PAUHistory@@@std@@@std@@SAXAAV?$allocator@PAUHistory@@@1@PAPAUHistory@@ABQAU3@@Z 10005210 f i AnnAIController.obj
 0001:00004240       ??$construct@U_Container_proxy@std@@U12@@?$allocator@U_Container_proxy@std@@@std@@QAEXPAU_Container_proxy@1@$$QAU21@@Z 10005240 f i AnnAIController.obj
 0001:000042f0       ??$destroy@PAD@?$_Wrap_alloc@V?$allocator@D@std@@@std@@QAEXPAPAD@Z 100052f0 f i AnnAIController.obj
 0001:00004320       ??$destroy@PAD@?$allocator@D@std@@QAEXPAPAD@Z 10005320 f i AnnAIController.obj
 0001:00004340       ??$destroy@PAD@?$allocator_traits@V?$allocator@D@std@@@std@@SAXAAV?$allocator@D@1@PAPAD@Z 10005340 f i AnnAIController.obj
 0001:00004360       ??$destroy@U_Container_proxy@std@@@?$allocator@U_Container_proxy@std@@@std@@QAEXPAU_Container_proxy@1@@Z 10005360 f i AnnAIController.obj
 0001:00004380       ??$forward@AAM@std@@YAAAMAAM@Z 10005380 f i AnnAIController.obj
 0001:00004390       ??$forward@AAPAD@std@@YAAAPADAAPAD@Z 10005390 f i AnnAIController.obj
 0001:000043a0       ??$forward@AAPAUHistory@@@std@@YAAAPAUHistory@@AAPAU1@@Z 100053a0 f i AnnAIController.obj
 0001:000043b0       ??$forward@ABM@std@@YAABMABM@Z 100053b0 f i AnnAIController.obj
 0001:000043c0       ??$forward@ABQAUHistory@@@std@@YAABQAUHistory@@ABQAU1@@Z 100053c0 f i AnnAIController.obj
 0001:000043d0       ??$forward@U_Container_proxy@std@@@std@@YA$$QAU_Container_proxy@0@AAU10@@Z 100053d0 f i AnnAIController.obj
 0001:000043e0       ??$forward@V?$basic_string@DU?$char_traits@D@std@@V?$allocator@D@2@@std@@@std@@YA$$QAV?$basic_string@DU?$char_traits@D@std@@V?$allocator@D@2@@0@AAV10@@Z 100053e0 f i AnnAIController.obj
 0001:000043f0       ??$use_facet@V?$codecvt@DDH@std@@@std@@YAABV?$codecvt@DDH@0@ABVlocale@0@@Z 100053f0 f i AnnAIController.obj
 0001:00004550       ??$use_facet@V?$ctype@D@std@@@std@@YAABV?$ctype@D@0@ABVlocale@0@@Z 10005550 f i AnnAIController.obj
 0001:000046b0       ??$use_facet@V?$num_put@DV?$ostreambuf_iterator@DU?$char_traits@D@std@@@std@@@std@@@std@@YAABV?$num_put@DV?$ostreambuf_iterator@DU?$char_traits@D@std@@@std@@@0@ABVlocale@0@@Z 100056b0 f i AnnAIController.obj
 0001:00004810       ??$use_facet@V?$numpunct@D@std@@@std@@YAABV?$numpunct@D@0@ABVlocale@0@@Z 10005810 f i AnnAIController.obj
 0001:00004970       ??0?$_Iterator012@Urandom_access_iterator_tag@std@@DHPBDABDU_Iterator_base12@2@@std@@QAE@XZ 10005970 f i AnnAIController.obj
 0001:000049a0       ??0?$_Iterator012@Urandom_access_iterator_tag@std@@PAUCar@@HPBQAU3@ABQAU3@U_Iterator_base12@2@@std@@QAE@ABU01@@Z 100059a0 f i AnnAIController.obj
 0001:000049d0       ??0?$_Iterator012@Urandom_access_iterator_tag@std@@PAUCar@@HPBQAU3@ABQAU3@U_Iterator_base12@2@@std@@QAE@XZ 100059d0 f i AnnAIController.obj
 0001:00004a00       ??0?$_Iterator012@Urandom_access_iterator_tag@std@@PAUHistory@@HPBQAU3@ABQAU3@U_Iterator_base12@2@@std@@QAE@ABU01@@Z 10005a00 f i AnnAIController.obj
 0001:00004a30       ??0?$_Iterator012@Urandom_access_iterator_tag@std@@PAUHistory@@HPBQAU3@ABQAU3@U_Iterator_base12@2@@std@@QAE@XZ 10005a30 f i AnnAIController.obj
 0001:00004a60       ??0?$_String_alloc@$0A@U?$_String_base_types@DV?$allocator@D@std@@@std@@@std@@QAE@ABV?$allocator@D@1@@Z 10005a60 f i AnnAIController.obj
 0001:00004ad0       ??0?$_String_const_iterator@V?$_String_val@U?$_Simple_types@D@std@@@std@@@std@@QAE@PBDPBU_Container_base12@1@@Z 10005ad0 f i AnnAIController.obj
 0001:00004b50       ??0?$_String_iterator@V?$_String_val@U?$_Simple_types@D@std@@@std@@@std@@QAE@PADPBU_Container_base12@1@@Z 10005b50 f i AnnAIController.obj
 0001:00004b90       ??0?$_String_val@U?$_Simple_types@D@std@@@std@@QAE@XZ 10005b90 f i AnnAIController.obj
 0001:00004bd0       ??0?$_Vector_alloc@$0A@U?$_Vec_base_types@MV?$allocator@M@std@@@std@@@std@@QAE@ABV?$allocator@M@1@@Z 10005bd0 f i AnnAIController.obj
 0001:00004c40       ??0?$_Vector_alloc@$0A@U?$_Vec_base_types@PAUHistory@@V?$allocator@PAUHistory@@@std@@@std@@@std@@QAE@ABV?$allocator@PAUHistory@@@1@@Z 10005c40 f i AnnAIController.obj
 0001:00004cb0       ??0?$_Vector_const_iterator@V?$_Vector_val@U?$_Simple_types@PAUCar@@@std@@@std@@@std@@QAE@ABV01@@Z 10005cb0 f i AnnAIController.obj
 0001:00004cf0       ??0?$_Vector_const_iterator@V?$_Vector_val@U?$_Simple_types@PAUCar@@@std@@@std@@@std@@QAE@PAPAUCar@@PBU_Container_base12@1@@Z 10005cf0 f i AnnAIController.obj
 0001:00004d70       ??0?$_Vector_const_iterator@V?$_Vector_val@U?$_Simple_types@PAUHistory@@@std@@@std@@@std@@QAE@ABV01@@Z 10005d70 f i AnnAIController.obj
 0001:00004db0       ??0?$_Vector_const_iterator@V?$_Vector_val@U?$_Simple_types@PAUHistory@@@std@@@std@@@std@@QAE@PAPAUHistory@@PBU_Container_base12@1@@Z 10005db0 f i AnnAIController.obj
 0001:00004e30       ??0?$_Vector_val@U?$_Simple_types@M@std@@@std@@QAE@XZ 10005e30 f i AnnAIController.obj
 0001:00004e80       ??0?$_Vector_val@U?$_Simple_types@PAUHistory@@@std@@@std@@QAE@XZ 10005e80 f i AnnAIController.obj
 0001:00004ed0       ??0?$_Wrap_alloc@V?$allocator@D@std@@@std@@QAE@XZ 10005ed0 f i AnnAIController.obj
 0001:00004f00       ??0?$_Wrap_alloc@V?$allocator@M@std@@@std@@QAE@XZ 10005f00 f i AnnAIController.obj
 0001:00004f30       ??0?$_Wrap_alloc@V?$allocator@PAUCar@@@std@@@std@@QAE@XZ 10005f30 f i AnnAIController.obj
 0001:00004f60       ??0?$_Wrap_alloc@V?$allocator@PAUHistory@@@std@@@std@@QAE@XZ 10005f60 f i AnnAIController.obj
 0001:00004f90       ??0?$_Yarn@D@std@@QAE@XZ   10005f90 f i AnnAIController.obj
 0001:00004fc0       ??0?$_Yarn@_W@std@@QAE@XZ  10005fc0 f i AnnAIController.obj
 0001:00004ff0       ??0?$allocator@D@std@@QAE@ABV01@@Z 10005ff0 f i AnnAIController.obj
 0001:00005010       ??0?$allocator@D@std@@QAE@XZ 10006010 f i AnnAIController.obj
 0001:00005030       ??0?$allocator@M@std@@QAE@XZ 10006030 f i AnnAIController.obj
 0001:00005050       ??0?$allocator@PAUCar@@@std@@QAE@XZ 10006050 f i AnnAIController.obj
 0001:00005070       ??0?$allocator@PAUHistory@@@std@@QAE@XZ 10006070 f i AnnAIController.obj
 0001:00005090       ??0?$allocator@U_Container_proxy@std@@@std@@QAE@XZ 10006090 f i AnnAIController.obj
 0001:000050b0       ??0?$basic_filebuf@DU?$char_traits@D@std@@@std@@QAE@PAU_iobuf@@@Z 100060b0 f i AnnAIController.obj
 0001:00005130       ??0?$basic_fstream@DU?$char_traits@D@std@@@std@@QAE@XZ 10006130 f i AnnAIController.obj
 0001:00005220       ??0?$basic_ios@DU?$char_traits@D@std@@@std@@IAE@XZ 10006220 f i AnnAIController.obj
 0001:00005250       ??0?$basic_iostream@DU?$char_traits@D@std@@@std@@QAE@PAV?$basic_streambuf@DU?$char_traits@D@std@@@1@@Z 10006250 f i AnnAIController.obj
 0001:00005340       ??0?$basic_istream@DU?$char_traits@D@std@@@std@@QAE@PAV?$basic_streambuf@DU?$char_traits@D@std@@@1@_N@Z 10006340 f i AnnAIController.obj
 0001:00005430       ??0?$basic_ofstream@DU?$char_traits@D@std@@@std@@QAE@XZ 10006430 f i AnnAIController.obj
 0001:00005510       ??0?$basic_ostream@DU?$char_traits@D@std@@@std@@QAE@PAV?$basic_streambuf@DU?$char_traits@D@std@@@1@_N@Z 10006510 f i AnnAIController.obj
 0001:000055f0       ??0?$basic_ostream@DU?$char_traits@D@std@@@std@@QAE@W4_Uninitialized@1@_N@Z 100065f0 f i AnnAIController.obj
 0001:000056e0       ??0?$basic_streambuf@DU?$char_traits@D@std@@@std@@IAE@XZ 100066e0 f i AnnAIController.obj
 0001:00005760       ??0?$basic_string@DU?$char_traits@D@std@@V?$allocator@D@2@@std@@QAE@ID@Z 10006760 f i AnnAIController.obj
 0001:000057f0       ??0?$basic_string@DU?$char_traits@D@std@@V?$allocator@D@2@@std@@QAE@PBD@Z 100067f0 f i AnnAIController.obj
 0001:00005880       ??0?$basic_string@DU?$char_traits@D@std@@V?$allocator@D@2@@std@@QAE@XZ 10006880 f i AnnAIController.obj
 0001:00005900       ??0?$codecvt@DDH@std@@QAE@ABV_Locinfo@1@I@Z 10006900 f i AnnAIController.obj
 0001:00005980       ??0?$ctype@D@std@@QAE@ABV_Locinfo@1@I@Z 10006980 f i AnnAIController.obj
 0001:00005a00       ??0?$fpos@H@std@@QAE@H_J@Z 10006a00 f i AnnAIController.obj
 0001:00005a40       ??0?$fpos@H@std@@QAE@_J@Z  10006a40 f i AnnAIController.obj
 0001:00005a80       ??0?$num_put@DV?$ostreambuf_iterator@DU?$char_traits@D@std@@@std@@@std@@QAE@ABV_Locinfo@1@I@Z 10006a80 f i AnnAIController.obj
 0001:00005b00       ??0?$numpunct@D@std@@QAE@ABV_Locinfo@1@I_N@Z 10006b00 f i AnnAIController.obj
 0001:00005b80       ??0?$ostreambuf_iterator@DU?$char_traits@D@std@@@std@@QAE@PAV?$basic_streambuf@DU?$char_traits@D@std@@@1@@Z 10006b80 f i AnnAIController.obj
 0001:00005bb0       ??0?$vector@MV?$allocator@M@std@@@std@@QAE@XZ 10006bb0 f i AnnAIController.obj
 0001:00005bf0       ??0?$vector@PAUHistory@@V?$allocator@PAUHistory@@@std@@@std@@QAE@XZ 10006bf0 f i AnnAIController.obj
 0001:00005c30       ??0_Container_base12@std@@QAE@XZ 10006c30 f i AnnAIController.obj
 0001:00005c50       ??0_Container_proxy@std@@QAE@XZ 10006c50 f i AnnAIController.obj
 0001:00005c80       ??0_Facet_base@std@@QAE@XZ 10006c80 f i AnnAIController.obj
 0001:00005ca0       ??0_Generic_error_category@std@@QAE@XZ 10006ca0 f i AnnAIController.obj
 0001:00005cd0       ??0_Iostream_error_category@std@@QAE@XZ 10006cd0 f i AnnAIController.obj
 0001:00005d00       ??0_Iterator_base12@std@@QAE@ABU01@@Z 10006d00 f i AnnAIController.obj
 0001:00005d40       ??0_Iterator_base12@std@@QAE@XZ 10006d40 f i AnnAIController.obj
 0001:00005d70       ??0_Locinfo@std@@QAE@PBD@Z 10006d70 f i AnnAIController.obj
 0001:00005e70       ??0_Sentry_base@?$basic_ostream@DU?$char_traits@D@std@@@std@@QAE@AAV12@@Z 10006e70 f i AnnAIController.obj
 0001:00005f00       ??0_System_error_category@std@@QAE@XZ 10006f00 f i AnnAIController.obj
 0001:00005f30       ??0codecvt_base@std@@QAE@I@Z 10006f30 f i AnnAIController.obj
 0001:00005f70       ??0ctype_base@std@@QAE@I@Z 10006f70 f i AnnAIController.obj
 0001:00005fb0       ??0error_category@std@@QAE@XZ 10006fb0 f i AnnAIController.obj
 0001:00005fd0       ??0error_code@std@@QAE@HABVerror_category@1@@Z 10006fd0 f i AnnAIController.obj
 0001:00006000       ??0error_condition@std@@QAE@HABVerror_category@1@@Z 10007000 f i AnnAIController.obj
 0001:00006030       ??0facet@locale@std@@IAE@I@Z 10007030 f i AnnAIController.obj
 0001:000060b0       ??0failure@ios_base@std@@QAE@ABV012@@Z 100070b0 f i AnnAIController.obj
 0001:000060f0       ??0failure@ios_base@std@@QAE@PBDABVerror_code@2@@Z 100070f0 f i AnnAIController.obj
 0001:000061b0       ??0id@locale@std@@QAE@I@Z  100071b0 f i AnnAIController.obj
 0001:000061d0       ??0ios_base@std@@IAE@XZ    100071d0 f i AnnAIController.obj
 0001:000061f0       ??0locale@std@@QAE@ABV01@@Z 100071f0 f i AnnAIController.obj
 0001:00006240       ??0locale@std@@QAE@XZ      10007240 f i AnnAIController.obj
 0001:00006270       ??0runtime_error@std@@QAE@ABV01@@Z 10007270 f i AnnAIController.obj
 0001:000062b0       ??0runtime_error@std@@QAE@ABV?$basic_string@DU?$char_traits@D@std@@V?$allocator@D@2@@1@@Z 100072b0 f i AnnAIController.obj
 0001:00006300       ??0runtime_error@std@@QAE@PBD@Z 10007300 f i AnnAIController.obj
 0001:00006340       ??0sentry@?$basic_ostream@DU?$char_traits@D@std@@@std@@QAE@AAV12@@Z 10007340 f i AnnAIController.obj
 0001:00006410       ??0system_error@std@@QAE@ABV01@@Z 10007410 f i AnnAIController.obj
 0001:00006460       ??0system_error@std@@QAE@Verror_code@1@ABV?$basic_string@DU?$char_traits@D@std@@V?$allocator@D@2@@1@@Z 10007460 f i AnnAIController.obj
 0001:000064f0       ??1?$_Iterator012@Urandom_access_iterator_tag@std@@DHPBDABDU_Iterator_base12@2@@std@@QAE@XZ 100074f0 f i AnnAIController.obj
 0001:00006520       ??1?$_Iterator012@Urandom_access_iterator_tag@std@@PAUCar@@HPBQAU3@ABQAU3@U_Iterator_base12@2@@std@@QAE@XZ 10007520 f i AnnAIController.obj
 0001:00006550       ??1?$_Iterator012@Urandom_access_iterator_tag@std@@PAUHistory@@HPBQAU3@ABQAU3@U_Iterator_base12@2@@std@@QAE@XZ 10007550 f i AnnAIController.obj
 0001:00006580       ??1?$_String_alloc@$0A@U?$_String_base_types@DV?$allocator@D@std@@@std@@@std@@QAE@XZ 10007580 f i AnnAIController.obj
 0001:000065b0       ??1?$_String_const_iterator@V?$_String_val@U?$_Simple_types@D@std@@@std@@@std@@QAE@XZ 100075b0 f i AnnAIController.obj
 0001:000065e0       ??1?$_String_iterator@V?$_String_val@U?$_Simple_types@D@std@@@std@@@std@@QAE@XZ 100075e0 f i AnnAIController.obj
 0001:00006610       ??1?$_String_val@U?$_Simple_types@D@std@@@std@@QAE@XZ 10007610 f i AnnAIController.obj
 0001:00006640       ??1?$_Vector_alloc@$0A@U?$_Vec_base_types@MV?$allocator@M@std@@@std@@@std@@QAE@XZ 10007640 f i AnnAIController.obj
 0001:00006670       ??1?$_Vector_alloc@$0A@U?$_Vec_base_types@PAUCar@@V?$allocator@PAUCar@@@std@@@std@@@std@@QAE@XZ 10007670 f i AnnAIController.obj
 0001:000066a0       ??1?$_Vector_alloc@$0A@U?$_Vec_base_types@PAUHistory@@V?$allocator@PAUHistory@@@std@@@std@@@std@@QAE@XZ 100076a0 f i AnnAIController.obj
 0001:000066d0       ??1?$_Vector_const_iterator@V?$_Vector_val@U?$_Simple_types@PAUCar@@@std@@@std@@@std@@QAE@XZ 100076d0 f i AnnAIController.obj
 0001:00006700       ??1?$_Vector_const_iterator@V?$_Vector_val@U?$_Simple_types@PAUHistory@@@std@@@std@@@std@@QAE@XZ 10007700 f i AnnAIController.obj
 0001:00006730       ??1?$_Vector_val@U?$_Simple_types@M@std@@@std@@QAE@XZ 10007730 f i AnnAIController.obj
 0001:00006760       ??1?$_Vector_val@U?$_Simple_types@PAUCar@@@std@@@std@@QAE@XZ 10007760 f i AnnAIController.obj
 0001:00006790       ??1?$_Vector_val@U?$_Simple_types@PAUHistory@@@std@@@std@@QAE@XZ 10007790 f i AnnAIController.obj
 0001:000067c0       ??1?$_Yarn@D@std@@QAE@XZ   100077c0 f i AnnAIController.obj
 0001:000067f0       ??1?$_Yarn@_W@std@@QAE@XZ  100077f0 f i AnnAIController.obj
 0001:00006820       ??1?$basic_filebuf@DU?$char_traits@D@std@@@std@@UAE@XZ 10007820 f i AnnAIController.obj
 0001:00006880       ??1?$basic_fstream@DU?$char_traits@D@std@@@std@@UAE@XZ 10007880 f i AnnAIController.obj
 0001:000068f0       ??1?$basic_ios@DU?$char_traits@D@std@@@std@@UAE@XZ 100078f0 f i AnnAIController.obj
 0001:00006920       ??1?$basic_iostream@DU?$char_traits@D@std@@@std@@UAE@XZ 10007920 f i AnnAIController.obj
 0001:00006990       ??1?$basic_istream@DU?$char_traits@D@std@@@std@@UAE@XZ 10007990 f i AnnAIController.obj
 0001:000069e0       ??1?$basic_ofstream@DU?$char_traits@D@std@@@std@@UAE@XZ 100079e0 f i AnnAIController.obj
 0001:00006a50       ??1?$basic_ostream@DU?$char_traits@D@std@@@std@@UAE@XZ 10007a50 f i AnnAIController.obj
 0001:00006aa0       ??1?$basic_streambuf@DU?$char_traits@D@std@@@std@@UAE@XZ 10007aa0 f i AnnAIController.obj
 0001:00006ae0       ??1?$basic_string@DU?$char_traits@D@std@@V?$allocator@D@2@@std@@QAE@XZ 10007ae0 f i AnnAIController.obj
 0001:00006b10       ??1?$codecvt@DDH@std@@MAE@XZ 10007b10 f i AnnAIController.obj
 0001:00006b40       ??1?$ctype@D@std@@MAE@XZ   10007b40 f i AnnAIController.obj
 0001:00006b80       ??1?$num_put@DV?$ostreambuf_iterator@DU?$char_traits@D@std@@@std@@@std@@MAE@XZ 10007b80 f i AnnAIController.obj
 0001:00006bb0       ??1?$numpunct@D@std@@MAE@XZ 10007bb0 f i AnnAIController.obj
 0001:00006bf0       ??1?$vector@MV?$allocator@M@std@@@std@@QAE@XZ 10007bf0 f i AnnAIController.obj
 0001:00006c20       ??1?$vector@PAUCar@@V?$allocator@PAUCar@@@std@@@std@@QAE@XZ 10007c20 f i AnnAIController.obj
 0001:00006c50       ??1?$vector@PAUHistory@@V?$allocator@PAUHistory@@@std@@@std@@QAE@XZ 10007c50 f i AnnAIController.obj
 0001:00006c80       ??1_Container_base12@std@@QAE@XZ 10007c80 f i AnnAIController.obj
 0001:00006cb0       ??1_Facet_base@std@@UAE@XZ 10007cb0 f i AnnAIController.obj
 0001:00006cd0       ??1_Generic_error_category@std@@UAE@XZ 10007cd0 f i AnnAIController.obj
 0001:00006d00       ??1_Iostream_error_category@std@@UAE@XZ 10007d00 f i AnnAIController.obj
 0001:00006d30       ??1_Iterator_base12@std@@QAE@XZ 10007d30 f i AnnAIController.obj
 0001:00006da0       ??1_Locinfo@std@@QAE@XZ    10007da0 f i AnnAIController.obj
 0001:00006e20       ??1_Sentry_base@?$basic_ostream@DU?$char_traits@D@std@@@std@@QAE@XZ 10007e20 f i AnnAIController.obj
 0001:00006ea0       ??1_System_error_category@std@@UAE@XZ 10007ea0 f i AnnAIController.obj
 0001:00006ed0       ??1codecvt_base@std@@UAE@XZ 10007ed0 f i AnnAIController.obj
 0001:00006f00       ??1ctype_base@std@@UAE@XZ  10007f00 f i AnnAIController.obj
 0001:00006f30       ??1error_category@std@@UAE@XZ 10007f30 f i AnnAIController.obj
 0001:00006f50       ??1facet@locale@std@@MAE@XZ 10007f50 f i AnnAIController.obj
 0001:00006f80       ??1failure@ios_base@std@@UAE@XZ 10007f80 f i AnnAIController.obj
 0001:00006fb0       ??1ios_base@std@@UAE@XZ    10007fb0 f i AnnAIController.obj
 0001:00006ff0       ??1locale@std@@QAE@XZ      10007ff0 f i AnnAIController.obj
 0001:00007040       ??1runtime_error@std@@UAE@XZ 10008040 f i AnnAIController.obj
 0001:00007070       ??1sentry@?$basic_ostream@DU?$char_traits@D@std@@@std@@QAE@XZ 10008070 f i AnnAIController.obj
 0001:000070b0       ??1system_error@std@@UAE@XZ 100080b0 f i AnnAIController.obj
 0001:000070e0       ??2@YAPAXIPAX@Z            100080e0 f i AnnAIController.obj
 0001:000070f0       ??2facet@locale@std@@SAPAXIABU_DebugHeapTag_t@2@PADH@Z 100080f0 f i AnnAIController.obj
 0001:00007120       ??3@YAXPAX0@Z              10008120 f i AnnAIController.obj
 0001:00007130       ??3facet@locale@std@@SAXPAX@Z 10008130 f i AnnAIController.obj
 0001:00007150       ??3facet@locale@std@@SAXPAXABU_DebugHeapTag_t@2@PADH@Z 10008150 f i AnnAIController.obj
 0001:00007170       ??4?$basic_string@DU?$char_traits@D@std@@V?$allocator@D@2@@std@@QAEAAV01@ABV01@@Z 10008170 f i AnnAIController.obj
 0001:00007200       ??4?$basic_string@DU?$char_traits@D@std@@V?$allocator@D@2@@std@@QAEAAV01@PBD@Z 10008200 f i AnnAIController.obj
 0001:00007230       ??4?$ostreambuf_iterator@DU?$char_traits@D@std@@@std@@QAEAAV01@D@Z 10008230 f i AnnAIController.obj
 0001:000072b0       ??4_Iterator_base12@std@@QAEAAU01@ABU01@@Z 100082b0 f i AnnAIController.obj
 0001:00007390       ??6?$basic_ostream@DU?$char_traits@D@std@@@std@@QAEAAV01@H@Z 10008390 f i AnnAIController.obj
 0001:000075b0       ??6?$basic_ostream@DU?$char_traits@D@std@@@std@@QAEAAV01@M@Z 100085b0 f i AnnAIController.obj
 0001:000077a0       ??6?$basic_ostream@DU?$char_traits@D@std@@@std@@QAEAAV01@P6AAAV01@AAV01@@Z@Z 100087a0 f i AnnAIController.obj
 0001:000077f0       ??8?$_Vector_const_iterator@V?$_Vector_val@U?$_Simple_types@PAUCar@@@std@@@std@@@std@@QBE_NABV01@@Z 100087f0 f i AnnAIController.obj
 0001:00007850       ??8?$_Vector_const_iterator@V?$_Vector_val@U?$_Simple_types@PAUHistory@@@std@@@std@@@std@@QBE_NABV01@@Z 10008850 f i AnnAIController.obj
 0001:000078b0       ??8error_category@std@@QBE_NABV01@@Z 100088b0 f i AnnAIController.obj
 0001:000078f0       ??8error_condition@std@@QBE_NABV01@@Z 100088f0 f i AnnAIController.obj
 0001:00007970       ??9?$_Vector_const_iterator@V?$_Vector_val@U?$_Simple_types@PAUCar@@@std@@@std@@@std@@QBE_NABV01@@Z 10008970 f i AnnAIController.obj
 0001:000079c0       ??9?$_Vector_const_iterator@V?$_Vector_val@U?$_Simple_types@PAUHistory@@@std@@@std@@@std@@QBE_NABV01@@Z 100089c0 f i AnnAIController.obj
 0001:00007a10       ??A?$basic_string@DU?$char_traits@D@std@@V?$allocator@D@2@@std@@QAEAADI@Z 10008a10 f i AnnAIController.obj
 0001:00007a60       ??A?$basic_string@DU?$char_traits@D@std@@V?$allocator@D@2@@std@@QBEABDI@Z 10008a60 f i AnnAIController.obj
 0001:00007ab0       ??A?$vector@MV?$allocator@M@std@@@std@@QAEAAMI@Z 10008ab0 f i AnnAIController.obj
 0001:00007b50       ??B?$fpos@H@std@@QBE_JXZ   10008b50 f i AnnAIController.obj
 0001:00007b80       ??Bid@locale@std@@QAEIXZ   10008b80 f i AnnAIController.obj
 0001:00007c20       ??Bsentry@?$basic_ostream@DU?$char_traits@D@std@@@std@@QBEPQ?$_Bool_struct@V?$basic_ostream@DU?$char_traits@D@std@@@std@@@2@HXZ 10008c20 f i AnnAIController.obj
 0001:00007c60       ??D?$_String_const_iterator@V?$_String_val@U?$_Simple_types@D@std@@@std@@@std@@QBEABDXZ 10008c60 f i AnnAIController.obj
 0001:00007d40       ??D?$_String_iterator@V?$_String_val@U?$_Simple_types@D@std@@@std@@@std@@QBEAADXZ 10008d40 f i AnnAIController.obj
 0001:00007d70       ??D?$_Vector_const_iterator@V?$_Vector_val@U?$_Simple_types@PAUCar@@@std@@@std@@@std@@QBEABQAUCar@@XZ 10008d70 f i AnnAIController.obj
 0001:00007e30       ??D?$_Vector_const_iterator@V?$_Vector_val@U?$_Simple_types@PAUHistory@@@std@@@std@@@std@@QBEABQAUHistory@@XZ 10008e30 f i AnnAIController.obj
 0001:00007ef0       ??D?$ostreambuf_iterator@DU?$char_traits@D@std@@@std@@QAEAAV01@XZ 10008ef0 f i AnnAIController.obj
 0001:00007f10       ??E?$_Vector_const_iterator@V?$_Vector_val@U?$_Simple_types@PAUCar@@@std@@@std@@@std@@QAE?AV01@H@Z 10008f10 f i AnnAIController.obj
 0001:00007ff0       ??E?$_Vector_const_iterator@V?$_Vector_val@U?$_Simple_types@PAUCar@@@std@@@std@@@std@@QAEAAV01@XZ 10008ff0 f i AnnAIController.obj
 0001:000080b0       ??E?$_Vector_const_iterator@V?$_Vector_val@U?$_Simple_types@PAUHistory@@@std@@@std@@@std@@QAE?AV01@H@Z 100090b0 f i AnnAIController.obj
 0001:00008190       ??E?$_Vector_const_iterator@V?$_Vector_val@U?$_Simple_types@PAUHistory@@@std@@@std@@@std@@QAEAAV01@XZ 10009190 f i AnnAIController.obj
 0001:00008250       ??E?$ostreambuf_iterator@DU?$char_traits@D@std@@@std@@QAEAAV01@XZ 10009250 f i AnnAIController.obj
 0001:00008270       ??_D?$basic_fstream@DU?$char_traits@D@std@@@std@@QAEXXZ 10009270 f i AnnAIController.obj
 0001:000082b0       ??_D?$basic_iostream@DU?$char_traits@D@std@@@std@@QAEXXZ 100092b0 f i AnnAIController.obj
 0001:000082f0       ??_D?$basic_istream@DU?$char_traits@D@std@@@std@@QAEXXZ 100092f0 f i AnnAIController.obj
 0001:00008330       ??_D?$basic_ofstream@DU?$char_traits@D@std@@@std@@QAEXXZ 10009330 f i AnnAIController.obj
 0001:00008370       ??_D?$basic_ostream@DU?$char_traits@D@std@@@std@@QAEXXZ 10009370 f i AnnAIController.obj
 0001:000083a2       ??_E?$basic_fstream@DU?$char_traits@D@std@@@std@@$4PPPPPPPM@A@AEPAXI@Z 100093a2 f i AnnAIController.obj
 0001:000083aa       ??_E?$basic_iostream@DU?$char_traits@D@std@@@std@@$4PPPPPPPM@A@AEPAXI@Z 100093aa f i AnnAIController.obj
 0001:000083b2       ??_E?$basic_istream@DU?$char_traits@D@std@@@std@@$4PPPPPPPM@A@AEPAXI@Z 100093b2 f i AnnAIController.obj
 0001:000083ba       ??_E?$basic_ofstream@DU?$char_traits@D@std@@@std@@$4PPPPPPPM@A@AEPAXI@Z 100093ba f i AnnAIController.obj
 0001:000083c2       ??_E?$basic_ostream@DU?$char_traits@D@std@@@std@@$4PPPPPPPM@A@AEPAXI@Z 100093c2 f i AnnAIController.obj
 0001:000083d0       ??_G?$basic_filebuf@DU?$char_traits@D@std@@@std@@UAEPAXI@Z 100093d0 f i AnnAIController.obj
 0001:000083d0       ??_E?$basic_filebuf@DU?$char_traits@D@std@@@std@@UAEPAXI@Z 100093d0 f i AnnAIController.obj
 0001:00008410       ??_E?$basic_fstream@DU?$char_traits@D@std@@@std@@UAEPAXI@Z 10009410 f i AnnAIController.obj
 0001:00008410       ??_G?$basic_fstream@DU?$char_traits@D@std@@@std@@UAEPAXI@Z 10009410 f i AnnAIController.obj
 0001:00008460       ??_G?$basic_ios@DU?$char_traits@D@std@@@std@@UAEPAXI@Z 10009460 f i AnnAIController.obj
 0001:00008460       ??_E?$basic_ios@DU?$char_traits@D@std@@@std@@UAEPAXI@Z 10009460 f i AnnAIController.obj
 0001:000084a0       ??_E?$basic_iostream@DU?$char_traits@D@std@@@std@@UAEPAXI@Z 100094a0 f i AnnAIController.obj
 0001:000084a0       ??_G?$basic_iostream@DU?$char_traits@D@std@@@std@@UAEPAXI@Z 100094a0 f i AnnAIController.obj
 0001:000084f0       ??_G?$basic_istream@DU?$char_traits@D@std@@@std@@UAEPAXI@Z 100094f0 f i AnnAIController.obj
 0001:000084f0       ??_E?$basic_istream@DU?$char_traits@D@std@@@std@@UAEPAXI@Z 100094f0 f i AnnAIController.obj
 0001:00008540       ??_G?$basic_ofstream@DU?$char_traits@D@std@@@std@@UAEPAXI@Z 10009540 f i AnnAIController.obj
 0001:00008540       ??_E?$basic_ofstream@DU?$char_traits@D@std@@@std@@UAEPAXI@Z 10009540 f i AnnAIController.obj
 0001:00008590       ??_E?$basic_ostream@DU?$char_traits@D@std@@@std@@UAEPAXI@Z 10009590 f i AnnAIController.obj
 0001:00008590       ??_G?$basic_ostream@DU?$char_traits@D@std@@@std@@UAEPAXI@Z 10009590 f i AnnAIController.obj
 0001:000085e0       ??_G?$basic_streambuf@DU?$char_traits@D@std@@@std@@UAEPAXI@Z 100095e0 f i AnnAIController.obj
 0001:000085e0       ??_E?$basic_streambuf@DU?$char_traits@D@std@@@std@@UAEPAXI@Z 100095e0 f i AnnAIController.obj
 0001:00008620       ??_E?$codecvt@DDH@std@@MAEPAXI@Z 10009620 f i AnnAIController.obj
 0001:00008620       ??_G?$codecvt@DDH@std@@MAEPAXI@Z 10009620 f i AnnAIController.obj
 0001:00008660       ??_E?$ctype@D@std@@MAEPAXI@Z 10009660 f i AnnAIController.obj
 0001:00008660       ??_G?$ctype@D@std@@MAEPAXI@Z 10009660 f i AnnAIController.obj
 0001:000086a0       ??_E?$num_put@DV?$ostreambuf_iterator@DU?$char_traits@D@std@@@std@@@std@@MAEPAXI@Z 100096a0 f i AnnAIController.obj
 0001:000086a0       ??_G?$num_put@DV?$ostreambuf_iterator@DU?$char_traits@D@std@@@std@@@std@@MAEPAXI@Z 100096a0 f i AnnAIController.obj
 0001:000086e0       ??_E?$numpunct@D@std@@MAEPAXI@Z 100096e0 f i AnnAIController.obj
 0001:000086e0       ??_G?$numpunct@D@std@@MAEPAXI@Z 100096e0 f i AnnAIController.obj
 0001:00008720       ??_EAnnAIController@@UAEPAXI@Z 10009720 f i AnnAIController.obj
 0001:00008720       ??_GAnnAIController@@UAEPAXI@Z 10009720 f i AnnAIController.obj
 0001:00008760       ??_G_Facet_base@std@@UAEPAXI@Z 10009760 f i AnnAIController.obj
 0001:00008760       ??_E_Facet_base@std@@UAEPAXI@Z 10009760 f i AnnAIController.obj
 0001:000087a0       ??_G_Generic_error_category@std@@UAEPAXI@Z 100097a0 f i AnnAIController.obj
 0001:000087a0       ??_E_Generic_error_category@std@@UAEPAXI@Z 100097a0 f i AnnAIController.obj
 0001:000087e0       ??_G_Iostream_error_category@std@@UAEPAXI@Z 100097e0 f i AnnAIController.obj
 0001:000087e0       ??_E_Iostream_error_category@std@@UAEPAXI@Z 100097e0 f i AnnAIController.obj
 0001:00008820       ??_E_System_error_category@std@@UAEPAXI@Z 10009820 f i AnnAIController.obj
 0001:00008820       ??_G_System_error_category@std@@UAEPAXI@Z 10009820 f i AnnAIController.obj
 0001:00008860       ??_Ecodecvt_base@std@@UAEPAXI@Z 10009860 f i AnnAIController.obj
 0001:00008860       ??_Gcodecvt_base@std@@UAEPAXI@Z 10009860 f i AnnAIController.obj
 0001:000088a0       ??_Ectype_base@std@@UAEPAXI@Z 100098a0 f i AnnAIController.obj
 0001:000088a0       ??_Gctype_base@std@@UAEPAXI@Z 100098a0 f i AnnAIController.obj
 0001:000088e0       ??_Gerror_category@std@@UAEPAXI@Z 100098e0 f i AnnAIController.obj
 0001:000088e0       ??_Eerror_category@std@@UAEPAXI@Z 100098e0 f i AnnAIController.obj
 0001:00008920       ??_Efacet@locale@std@@MAEPAXI@Z 10009920 f i AnnAIController.obj
 0001:00008920       ??_Gfacet@locale@std@@MAEPAXI@Z 10009920 f i AnnAIController.obj
 0001:00008960       ??_Efailure@ios_base@std@@UAEPAXI@Z 10009960 f i AnnAIController.obj
 0001:00008960       ??_Gfailure@ios_base@std@@UAEPAXI@Z 10009960 f i AnnAIController.obj
 0001:000089a0       ??_Eios_base@std@@UAEPAXI@Z 100099a0 f i AnnAIController.obj
 0001:000089a0       ??_Gios_base@std@@UAEPAXI@Z 100099a0 f i AnnAIController.obj
 0001:000089e0       ??_Glocale@std@@QAEPAXI@Z  100099e0 f i AnnAIController.obj
 0001:00008a20       ??_Eruntime_error@std@@UAEPAXI@Z 10009a20 f i AnnAIController.obj
 0001:00008a20       ??_Gruntime_error@std@@UAEPAXI@Z 10009a20 f i AnnAIController.obj
 0001:00008a60       ??_Esystem_error@std@@UAEPAXI@Z 10009a60 f i AnnAIController.obj
 0001:00008a60       ??_Gsystem_error@std@@UAEPAXI@Z 10009a60 f i AnnAIController.obj
 0001:00008aa0       ?GetLearningRate@NeuralNetwork@@QAEMXZ 10009aa0 f i AnnAIController.obj
 0001:00008ac0       ?SetLearningRate@NeuralNetwork@@QAEXM@Z 10009ac0 f i AnnAIController.obj
 0001:00008af0       ?SetMomentum@NeuralNetwork@@QAEXM@Z 10009af0 f i AnnAIController.obj
 0001:00008b20       ?_Add_vtordisp1@?$basic_ios@DU?$char_traits@D@std@@@std@@UAEXXZ 10009b20 f i AnnAIController.obj
 0001:00008b32       ?_Add_vtordisp1@?$basic_istream@DU?$char_traits@D@std@@@std@@$4PPPPPPPM@7AEXXZ 10009b32 f i AnnAIController.obj
 0001:00008b3d       ?_Add_vtordisp1@?$basic_istream@DU?$char_traits@D@std@@@std@@$4PPPPPPPM@A@AEXXZ 10009b3d f i AnnAIController.obj
 0001:00008b45       ?_Add_vtordisp1@?$basic_istream@DU?$char_traits@D@std@@@std@@$4PPPPPPPM@GA@AEXXZ 10009b45 f i AnnAIController.obj
 0001:00008b50       ?_Add_vtordisp1@?$basic_istream@DU?$char_traits@D@std@@@std@@UAEXXZ 10009b50 f i AnnAIController.obj
 0001:00008b70       ?_Add_vtordisp2@?$basic_ios@DU?$char_traits@D@std@@@std@@UAEXXZ 10009b70 f i AnnAIController.obj
 0001:00008b82       ?_Add_vtordisp2@?$basic_ostream@DU?$char_traits@D@std@@@std@@$4PPPPPPPM@7AEXXZ 10009b82 f i AnnAIController.obj
 0001:00008b8d       ?_Add_vtordisp2@?$basic_ostream@DU?$char_traits@D@std@@@std@@$4PPPPPPPM@A@AEXXZ 10009b8d f i AnnAIController.obj
 0001:00008b95       ?_Add_vtordisp2@?$basic_ostream@DU?$char_traits@D@std@@@std@@$4PPPPPPPM@FI@AEXXZ 10009b95 f i AnnAIController.obj
 0001:00008ba0       ?_Add_vtordisp2@?$basic_ostream@DU?$char_traits@D@std@@@std@@$4PPPPPPPM@GA@AEXXZ 10009ba0 f i AnnAIController.obj
 0001:00008bb0       ?_Add_vtordisp2@?$basic_ostream@DU?$char_traits@D@std@@@std@@UAEXXZ 10009bb0 f i AnnAIController.obj
 0001:00008bd0       ?_Adopt@_Iterator_base12@std@@QAEXPBU_Container_base12@2@@Z 10009bd0 f i AnnAIController.obj
 0001:00008d00       ?_Alloc_proxy@?$_String_alloc@$0A@U?$_String_base_types@DV?$allocator@D@std@@@std@@@std@@QAEXXZ 10009d00 f i AnnAIController.obj
 0001:00008da0       ?_Alloc_proxy@?$_Vector_alloc@$0A@U?$_Vec_base_types@MV?$allocator@M@std@@@std@@@std@@QAEXXZ 10009da0 f i AnnAIController.obj
 0001:00008e40       ?_Alloc_proxy@?$_Vector_alloc@$0A@U?$_Vec_base_types@PAUHistory@@V?$allocator@PAUHistory@@@std@@@std@@@std@@QAEXXZ 10009e40 f i AnnAIController.obj
 0001:00008ee0       ?_Assign_rv@?$basic_string@DU?$char_traits@D@std@@V?$allocator@D@2@@std@@QAEX$$QAV12@@Z 10009ee0 f i AnnAIController.obj
 0001:00008f90       ?_Change_alloc@?$_String_alloc@$0A@U?$_String_base_types@DV?$allocator@D@std@@@std@@@std@@QAEXABU?$_Wrap_alloc@V?$allocator@D@std@@@2@@Z 10009f90 f i AnnAIController.obj
 0001:00008fb0       ?_Chassign@?$basic_string@DU?$char_traits@D@std@@V?$allocator@D@2@@std@@QAEXIID@Z 10009fb0 f i AnnAIController.obj
 0001:00009010       ?_Clrcont@_Iterator_base12@std@@QAEXXZ 1000a010 f i AnnAIController.obj
 0001:00009030       ?_Compat@?$_Vector_const_iterator@V?$_Vector_val@U?$_Simple_types@PAUCar@@@std@@@std@@@std@@QBEXABV12@@Z 1000a030 f i AnnAIController.obj
 0001:000090e0       ?_Compat@?$_Vector_const_iterator@V?$_Vector_val@U?$_Simple_types@PAUHistory@@@std@@@std@@@std@@QBEXABV12@@Z 1000a0e0 f i AnnAIController.obj
 0001:00009190       ?_Copy@?$basic_string@DU?$char_traits@D@std@@V?$allocator@D@2@@std@@QAEXII@Z 1000a190 f i AnnAIController.obj
 0001:00009390       ?_Decref@facet@locale@std@@UAEPAV_Facet_base@3@XZ 1000a390 f i AnnAIController.obj
 0001:000093c0       ?_Destroy@?$vector@MV?$allocator@M@std@@@std@@IAEXPAM0@Z 1000a3c0 f i AnnAIController.obj
 0001:00009440       ?_Destroy@?$vector@PAUCar@@V?$allocator@PAUCar@@@std@@@std@@IAEXPAPAUCar@@0@Z 1000a440 f i AnnAIController.obj
 0001:000094c0       ?_Destroy@?$vector@PAUHistory@@V?$allocator@PAUHistory@@@std@@@std@@IAEXPAPAUHistory@@0@Z 1000a4c0 f i AnnAIController.obj
 0001:00009540       ?_Endwrite@?$basic_filebuf@DU?$char_traits@D@std@@@std@@IAE_NXZ 1000a540 f i AnnAIController.obj
 0001:000098e0       ?_Eos@?$basic_string@DU?$char_traits@D@std@@V?$allocator@D@2@@std@@QAEXI@Z 1000a8e0 f i AnnAIController.obj
 0001:00009930       ?_Ffmt@?$num_put@DV?$ostreambuf_iterator@DU?$char_traits@D@std@@@std@@@std@@ABAPADPADDH@Z 1000a930 f i AnnAIController.obj
 0001:00009a80       ?_Fput@?$num_put@DV?$ostreambuf_iterator@DU?$char_traits@D@std@@@std@@@std@@ABA?AV?$ostreambuf_iterator@DU?$char_traits@D@std@@@2@V32@AAVios_base@2@DPBDIIII@Z 1000aa80 f i AnnAIController.obj
 0001:0000a0e0       ?_Free_proxy@?$_String_alloc@$0A@U?$_String_base_types@DV?$allocator@D@std@@@std@@@std@@QAEXXZ 1000b0e0 f i AnnAIController.obj
 0001:0000a170       ?_Free_proxy@?$_Vector_alloc@$0A@U?$_Vec_base_types@MV?$allocator@M@std@@@std@@@std@@QAEXXZ 1000b170 f i AnnAIController.obj
 0001:0000a200       ?_Free_proxy@?$_Vector_alloc@$0A@U?$_Vec_base_types@PAUCar@@V?$allocator@PAUCar@@@std@@@std@@@std@@QAEXXZ 1000b200 f i AnnAIController.obj
 0001:0000a290       ?_Free_proxy@?$_Vector_alloc@$0A@U?$_Vec_base_types@PAUHistory@@V?$allocator@PAUHistory@@@std@@@std@@@std@@QAEXXZ 1000b290 f i AnnAIController.obj
 0001:0000a320       ?_Getal@?$_String_alloc@$0A@U?$_String_base_types@DV?$allocator@D@std@@@std@@@std@@QBE?AU?$_Wrap_alloc@V?$allocator@D@std@@@2@XZ 1000b320 f i AnnAIController.obj
 0001:0000a350       ?_Getal@?$_Vector_alloc@$0A@U?$_Vec_base_types@MV?$allocator@M@std@@@std@@@std@@QBE?AU?$_Wrap_alloc@V?$allocator@M@std@@@2@XZ 1000b350 f i AnnAIController.obj
 0001:0000a380       ?_Getal@?$_Vector_alloc@$0A@U?$_Vec_base_types@PAUCar@@V?$allocator@PAUCar@@@std@@@std@@@std@@QBE?AU?$_Wrap_alloc@V?$allocator@PAUCar@@@std@@@2@XZ 1000b380 f i AnnAIController.obj
 0001:0000a3b0       ?_Getal@?$_Vector_alloc@$0A@U?$_Vec_base_types@PAUHistory@@V?$allocator@PAUHistory@@@std@@@std@@@std@@QBE?AU?$_Wrap_alloc@V?$allocator@PAUHistory@@@std@@@2@XZ 1000b3b0 f i AnnAIController.obj
 0001:0000a3e0       ?_Getcat@?$codecvt@DDH@std@@SAIPAPBVfacet@locale@2@PBV42@@Z 1000b3e0 f i AnnAIController.obj
 0001:0000a500       ?_Getcat@?$ctype@D@std@@SAIPAPBVfacet@locale@2@PBV42@@Z 1000b500 f i AnnAIController.obj
 0001:0000a620       ?_Getcat@?$num_put@DV?$ostreambuf_iterator@DU?$char_traits@D@std@@@std@@@std@@SAIPAPBVfacet@locale@2@PBV42@@Z 1000b620 f i AnnAIController.obj
 0001:0000a740       ?_Getcat@?$numpunct@D@std@@SAIPAPBVfacet@locale@2@PBV42@@Z 1000b740 f i AnnAIController.obj
 0001:0000a860       ?_Getcont@_Iterator_base12@std@@QBEPBU_Container_base12@2@XZ 1000b860 f i AnnAIController.obj
 0001:0000a8a0       ?_Getctype@_Locinfo@std@@QBE?AU_Ctypevec@@XZ 1000b8a0 f i AnnAIController.obj
 0001:0000a920       ?_Getcvt@_Locinfo@std@@QBE?AU_Cvtvec@@XZ 1000b920 f i AnnAIController.obj
 0001:0000a990       ?_Getfacet@locale@std@@QBEPBVfacet@12@I@Z 1000b990 f i AnnAIController.obj
 0001:0000aa40       ?_Getfalse@_Locinfo@std@@QBEPBDXZ 1000ba40 f i AnnAIController.obj
 0001:0000aa60       ?_Getlconv@_Locinfo@std@@QBEPBUlconv@@XZ 1000ba60 f i AnnAIController.obj
 0001:0000aa90       ?_Getpfirst@_Container_base12@std@@QBEPAPAU_Iterator_base12@2@XZ 1000ba90 f i AnnAIController.obj
 0001:0000aad0       ?_Getpnext@_Iterator_base12@std@@QAEPAPAU12@XZ 1000bad0 f i AnnAIController.obj
 0001:0000aaf0       ?_Gettrue@_Locinfo@std@@QBEPBDXZ 1000baf0 f i AnnAIController.obj
 0001:0000ab10       ?_Gnavail@?$basic_streambuf@DU?$char_traits@D@std@@@std@@IBE_JXZ 1000bb10 f i AnnAIController.obj
 0001:0000ab50       ?_Gndec@?$basic_streambuf@DU?$char_traits@D@std@@@std@@IAEPADXZ 1000bb50 f i AnnAIController.obj
 0001:0000aba0       ?_Gninc@?$basic_streambuf@DU?$char_traits@D@std@@@std@@IAEPADXZ 1000bba0 f i AnnAIController.obj
 0001:0000abf0       ?_Grow@?$basic_string@DU?$char_traits@D@std@@V?$allocator@D@2@@std@@QAE_NI_N@Z 1000bbf0 f i AnnAIController.obj
 0001:0000acc0       ?_Grow_to@?$vector@MV?$allocator@M@std@@@std@@IBEII@Z 1000bcc0 f i AnnAIController.obj
 0001:0000ad40       ?_Grow_to@?$vector@PAUHistory@@V?$allocator@PAUHistory@@@std@@@std@@IBEII@Z 1000bd40 f i AnnAIController.obj
 0001:0000adc0       ?_Ifmt@?$num_put@DV?$ostreambuf_iterator@DU?$char_traits@D@std@@@std@@@std@@ABAPADPADPBDH@Z 1000bdc0 f i AnnAIController.obj
 0001:0000aef0       ?_Incref@facet@locale@std@@UAEXXZ 1000bef0 f i AnnAIController.obj
 0001:0000af20       ?_Init@?$basic_filebuf@DU?$char_traits@D@std@@@std@@IAEXPAU_iobuf@@W4_Initfl@12@@Z 1000bf20 f i AnnAIController.obj
 0001:0000aff0       ?_Init@?$basic_streambuf@DU?$char_traits@D@std@@@std@@IAEXPAPAD0PAH001@Z 1000bff0 f i AnnAIController.obj
 0001:0000b040       ?_Init@?$basic_streambuf@DU?$char_traits@D@std@@@std@@IAEXXZ 1000c040 f i AnnAIController.obj
 0001:0000b0c0       ?_Init@?$codecvt@DDH@std@@IAEXABV_Locinfo@2@@Z 1000c0c0 f i AnnAIController.obj
 0001:0000b0e0       ?_Init@?$ctype@D@std@@IAEXABV_Locinfo@2@@Z 1000c0e0 f i AnnAIController.obj
 0001:0000b140       ?_Init@?$num_put@DV?$ostreambuf_iterator@DU?$char_traits@D@std@@@std@@@std@@IAEXABV_Locinfo@2@@Z 1000c140 f i AnnAIController.obj
 0001:0000b160       ?_Init@?$numpunct@D@std@@IAEXABV_Locinfo@2@_N@Z 1000c160 f i AnnAIController.obj
 0001:0000b380       ?_Init@ios_base@std@@IAEXXZ 1000c380 f i AnnAIController.obj
 0001:0000b460       ?_Init_atomic_counter@std@@YAXAAKK@Z 1000c460 f i AnnAIController.obj
 0001:0000b470       ?_Initcvt@?$basic_filebuf@DU?$char_traits@D@std@@@std@@IAEXPBV?$codecvt@DDH@2@@Z 1000c470 f i AnnAIController.obj
 0001:0000b4c0       ?_Inside@?$basic_string@DU?$char_traits@D@std@@V?$allocator@D@2@@std@@QAE_NPBD@Z 1000c4c0 f i AnnAIController.obj
 0001:0000b510       ?_Inside@?$vector@MV?$allocator@M@std@@@std@@IBE_NPBM@Z 1000c510 f i AnnAIController.obj
 0001:0000b560       ?_Inside@?$vector@PAUHistory@@V?$allocator@PAUHistory@@@std@@@std@@IBE_NPBQAUHistory@@@Z 1000c560 f i AnnAIController.obj
 0001:0000b5b0       ?_Iput@?$num_put@DV?$ostreambuf_iterator@DU?$char_traits@D@std@@@std@@@std@@ABA?AV?$ostreambuf_iterator@DU?$char_traits@D@std@@@2@V32@AAVios_base@2@DPADI@Z 1000c5b0 f i AnnAIController.obj
 0001:0000ba90       ?_Lock@?$basic_filebuf@DU?$char_traits@D@std@@@std@@UAEXXZ 1000ca90 f i AnnAIController.obj
 0001:0000bad0       ?_Lock@?$basic_streambuf@DU?$char_traits@D@std@@@std@@UAEXXZ 1000cad0 f i AnnAIController.obj
 0001:0000baf0       ?_Makestr@system_error@std@@AAEXXZ 1000caf0 f i AnnAIController.obj
 0001:0000bb10       ?_Myptr@?$_String_val@U?$_Simple_types@D@std@@@std@@QAEPADXZ 1000cb10 f i AnnAIController.obj
 0001:0000bb60       ?_Myptr@?$_String_val@U?$_Simple_types@D@std@@@std@@QBEPBDXZ 1000cb60 f i AnnAIController.obj
 0001:0000bbb0       ?_Orphan_all@_Container_base12@std@@QAEXXZ 1000cbb0 f i AnnAIController.obj
 0001:0000bc60       ?_Orphan_me@_Iterator_base12@std@@QAEXXZ 1000cc60 f i AnnAIController.obj
 0001:0000bcf0       ?_Orphan_range@?$vector@MV?$allocator@M@std@@@std@@IBEXPAM0@Z 1000ccf0 f i AnnAIController.obj
 0001:0000be00       ?_Orphan_range@?$vector@PAUHistory@@V?$allocator@PAUHistory@@@std@@@std@@IBEXPAPAUHistory@@0@Z 1000ce00 f i AnnAIController.obj
 0001:0000bf10       ?_Osfx@?$basic_ostream@DU?$char_traits@D@std@@@std@@QAEXXZ 1000cf10 f i AnnAIController.obj
 0001:0000c000       ?_Pnavail@?$basic_streambuf@DU?$char_traits@D@std@@@std@@IBE_JXZ 1000d000 f i AnnAIController.obj
 0001:0000c040       ?_Pninc@?$basic_streambuf@DU?$char_traits@D@std@@@std@@IAEPADXZ 1000d040 f i AnnAIController.obj
 0001:0000c090       ?_Put@?$num_put@DV?$ostreambuf_iterator@DU?$char_traits@D@std@@@std@@@std@@ABA?AV?$ostreambuf_iterator@DU?$char_traits@D@std@@@2@V32@PBDI@Z 1000d090 f i AnnAIController.obj
 0001:0000c0f0       ?_Reallocate@?$vector@MV?$allocator@M@std@@@std@@IAEXI@Z 1000d0f0 f i AnnAIController.obj
 0001:0000c250       ?_Reallocate@?$vector@PAUHistory@@V?$allocator@PAUHistory@@@std@@@std@@IAEXI@Z 1000d250 f i AnnAIController.obj
 0001:0000c3b0       ?_Rep@?$num_put@DV?$ostreambuf_iterator@DU?$char_traits@D@std@@@std@@@std@@ABA?AV?$ostreambuf_iterator@DU?$char_traits@D@std@@@2@V32@DI@Z 1000d3b0 f i AnnAIController.obj
 0001:0000c400       ?_Reserve@?$vector@MV?$allocator@M@std@@@std@@IAEXI@Z 1000d400 f i AnnAIController.obj
 0001:0000c470       ?_Reserve@?$vector@PAUHistory@@V?$allocator@PAUHistory@@@std@@@std@@IAEXI@Z 1000d470 f i AnnAIController.obj
 0001:0000c4e0       ?_Reset_back@?$basic_filebuf@DU?$char_traits@D@std@@@std@@AAEXXZ 1000d4e0 f i AnnAIController.obj
 0001:0000c530       ?_Set_back@?$basic_filebuf@DU?$char_traits@D@std@@@std@@AAEXXZ 1000d530 f i AnnAIController.obj
 0001:0000c5a0       ?_Tidy@?$_Yarn@D@std@@AAEXXZ 1000d5a0 f i AnnAIController.obj
 0001:0000c5e0       ?_Tidy@?$_Yarn@_W@std@@AAEXXZ 1000d5e0 f i AnnAIController.obj
 0001:0000c620       ?_Tidy@?$basic_string@DU?$char_traits@D@std@@V?$allocator@D@2@@std@@QAEX_NI@Z 1000d620 f i AnnAIController.obj
 0001:0000c6f0       ?_Tidy@?$ctype@D@std@@IAEXXZ 1000d6f0 f i AnnAIController.obj
 0001:0000c760       ?_Tidy@?$numpunct@D@std@@AAEXXZ 1000d760 f i AnnAIController.obj
 0001:0000c7b0       ?_Tidy@?$vector@MV?$allocator@M@std@@@std@@IAEXXZ 1000d7b0 f i AnnAIController.obj
 0001:0000c850       ?_Tidy@?$vector@PAUCar@@V?$allocator@PAUCar@@@std@@@std@@IAEXXZ 1000d850 f i AnnAIController.obj
 0001:0000c8f0       ?_Tidy@?$vector@PAUHistory@@V?$allocator@PAUHistory@@@std@@@std@@IAEXXZ 1000d8f0 f i AnnAIController.obj
 0001:0000c990       ?_Unlock@?$basic_filebuf@DU?$char_traits@D@std@@@std@@UAEXXZ 1000d990 f i AnnAIController.obj
 0001:0000c9d0       ?_Unlock@?$basic_streambuf@DU?$char_traits@D@std@@@std@@UAEXXZ 1000d9d0 f i AnnAIController.obj
 0001:0000c9f0       ?_Unused_capacity@?$vector@MV?$allocator@M@std@@@std@@QBEIXZ 1000d9f0 f i AnnAIController.obj
 0001:0000ca20       ?_Unused_capacity@?$vector@PAUHistory@@V?$allocator@PAUHistory@@@std@@@std@@QBEIXZ 1000da20 f i AnnAIController.obj
 0001:0000ca50       ?_Xlen@?$basic_string@DU?$char_traits@D@std@@V?$allocator@D@2@@std@@QBEXXZ 1000da50 f i AnnAIController.obj
 0001:0000ca80       ?_Xlen@?$vector@MV?$allocator@M@std@@@std@@IBEXXZ 1000da80 f i AnnAIController.obj
 0001:0000cab0       ?_Xlen@?$vector@PAUHistory@@V?$allocator@PAUHistory@@@std@@@std@@IBEXXZ 1000dab0 f i AnnAIController.obj
 0001:0000cae0       ?_Xran@?$basic_string@DU?$char_traits@D@std@@V?$allocator@D@2@@std@@QBEXXZ 1000dae0 f i AnnAIController.obj
 0001:0000cb10       ?abs@@YAMM@Z               1000db10 f i AnnAIController.obj
 0001:0000cb30       ?allocate@?$_Wrap_alloc@V?$allocator@D@std@@@std@@QAEPADI@Z 1000db30 f i AnnAIController.obj
 0001:0000cb60       ?allocate@?$_Wrap_alloc@V?$allocator@M@std@@@std@@QAEPAMI@Z 1000db60 f i AnnAIController.obj
 0001:0000cb90       ?allocate@?$_Wrap_alloc@V?$allocator@PAUHistory@@@std@@@std@@QAEPAPAUHistory@@I@Z 1000db90 f i AnnAIController.obj
 0001:0000cbc0       ?allocate@?$allocator@D@std@@QAEPADI@Z 1000dbc0 f i AnnAIController.obj
 0001:0000cbf0       ?allocate@?$allocator@M@std@@QAEPAMI@Z 1000dbf0 f i AnnAIController.obj
 0001:0000cc20       ?allocate@?$allocator@PAUHistory@@@std@@QAEPAPAUHistory@@I@Z 1000dc20 f i AnnAIController.obj
 0001:0000cc50       ?allocate@?$allocator@U_Container_proxy@std@@@std@@QAEPAU_Container_proxy@2@I@Z 1000dc50 f i AnnAIController.obj
 0001:0000cc80       ?always_noconv@codecvt_base@std@@QBE_NXZ 1000dc80 f i AnnAIController.obj
 0001:0000ccc0       ?append@?$basic_string@DU?$char_traits@D@std@@V?$allocator@D@2@@std@@QAEAAV12@ID@Z 1000dcc0 f i AnnAIController.obj
 0001:0000cd50       ?assign@?$basic_string@DU?$char_traits@D@std@@V?$allocator@D@2@@std@@QAEAAV12@$$QAV12@@Z 1000dd50 f i AnnAIController.obj
 0001:0000cdf0       ?assign@?$basic_string@DU?$char_traits@D@std@@V?$allocator@D@2@@std@@QAEAAV12@ABV12@@Z 1000ddf0 f i AnnAIController.obj
 0001:0000ce30       ?assign@?$basic_string@DU?$char_traits@D@std@@V?$allocator@D@2@@std@@QAEAAV12@ABV12@II@Z 1000de30 f i AnnAIController.obj
 0001:0000cf00       ?assign@?$basic_string@DU?$char_traits@D@std@@V?$allocator@D@2@@std@@QAEAAV12@ID@Z 1000df00 f i AnnAIController.obj
 0001:0000cf70       ?assign@?$basic_string@DU?$char_traits@D@std@@V?$allocator@D@2@@std@@QAEAAV12@PBD@Z 1000df70 f i AnnAIController.obj
 0001:0000cfc0       ?assign@?$basic_string@DU?$char_traits@D@std@@V?$allocator@D@2@@std@@QAEAAV12@PBDI@Z 1000dfc0 f i AnnAIController.obj
 0001:0000d070       ?assign@?$char_traits@D@std@@SAPADPADID@Z 1000e070 f i AnnAIController.obj
 0001:0000d0a0       ?assign@?$char_traits@D@std@@SAXAADABD@Z 1000e0a0 f i AnnAIController.obj
 0001:0000d0b0       ?begin@?$basic_string@DU?$char_traits@D@std@@V?$allocator@D@2@@std@@QAE?AV?$_String_iterator@V?$_String_val@U?$_Simple_types@D@std@@@std@@@2@XZ 1000e0b0 f i AnnAIController.obj
 0001:0000d0f0       ?begin@?$vector@PAUCar@@V?$allocator@PAUCar@@@std@@@std@@QBE?AV?$_Vector_const_iterator@V?$_Vector_val@U?$_Simple_types@PAUCar@@@std@@@std@@@2@XZ 1000e0f0 f i AnnAIController.obj
 0001:0000d130       ?begin@?$vector@PAUHistory@@V?$allocator@PAUHistory@@@std@@@std@@QBE?AV?$_Vector_const_iterator@V?$_Vector_val@U?$_Simple_types@PAUHistory@@@std@@@std@@@2@XZ 1000e130 f i AnnAIController.obj
 0001:0000d170       ?c_str@?$_Yarn@D@std@@QBEPBDXZ 1000e170 f i AnnAIController.obj
 0001:0000d1b0       ?c_str@?$basic_string@DU?$char_traits@D@std@@V?$allocator@D@2@@std@@QBEPBDXZ 1000e1b0 f i AnnAIController.obj
 0001:0000d1e0       ?c_str@locale@std@@QBEPBDXZ 1000e1e0 f i AnnAIController.obj
 0001:0000d230       ?capacity@?$vector@MV?$allocator@M@std@@@std@@QBEIXZ 1000e230 f i AnnAIController.obj
 0001:0000d260       ?capacity@?$vector@PAUHistory@@V?$allocator@PAUHistory@@@std@@@std@@QBEIXZ 1000e260 f i AnnAIController.obj
 0001:0000d290       ?category@error_code@std@@QBEABVerror_category@2@XZ 1000e290 f i AnnAIController.obj
 0001:0000d2b0       ?category@error_condition@std@@QBEABVerror_category@2@XZ 1000e2b0 f i AnnAIController.obj
 0001:0000d2d0       ?cbegin@?$vector@PAUCar@@V?$allocator@PAUCar@@@std@@@std@@QBE?AV?$_Vector_const_iterator@V?$_Vector_val@U?$_Simple_types@PAUCar@@@std@@@std@@@2@XZ 1000e2d0 f i AnnAIController.obj
 0001:0000d300       ?cbegin@?$vector@PAUHistory@@V?$allocator@PAUHistory@@@std@@@std@@QBE?AV?$_Vector_const_iterator@V?$_Vector_val@U?$_Simple_types@PAUHistory@@@std@@@std@@@2@XZ 1000e300 f i AnnAIController.obj
 0001:0000d330       ?cend@?$vector@PAUCar@@V?$allocator@PAUCar@@@std@@@std@@QBE?AV?$_Vector_const_iterator@V?$_Vector_val@U?$_Simple_types@PAUCar@@@std@@@std@@@2@XZ 1000e330 f i AnnAIController.obj
 0001:0000d360       ?cend@?$vector@PAUHistory@@V?$allocator@PAUHistory@@@std@@@std@@QBE?AV?$_Vector_const_iterator@V?$_Vector_val@U?$_Simple_types@PAUHistory@@@std@@@std@@@2@XZ 1000e360 f i AnnAIController.obj
 0001:0000d390       ?clear@?$basic_ios@DU?$char_traits@D@std@@@std@@QAEXH_N@Z 1000e390 f i AnnAIController.obj
 0001:0000d3f0       ?clear@?$vector@MV?$allocator@M@std@@@std@@QAEXXZ 1000e3f0 f i AnnAIController.obj
 0001:0000d440       ?clear@?$vector@PAUHistory@@V?$allocator@PAUHistory@@@std@@@std@@QAEXXZ 1000e440 f i AnnAIController.obj
 0001:0000d490       ?clear@ios_base@std@@QAEXH@Z 1000e490 f i AnnAIController.obj
 0001:0000d4c0       ?clear@ios_base@std@@QAEXH_N@Z 1000e4c0 f i AnnAIController.obj
 0001:0000d5d0       ?close@?$basic_filebuf@DU?$char_traits@D@std@@@std@@QAEPAV12@XZ 1000e5d0 f i AnnAIController.obj
 0001:0000d650       ?close@?$basic_fstream@DU?$char_traits@D@std@@@std@@QAEXXZ 1000e650 f i AnnAIController.obj
 0001:0000d6a0       ?close@?$basic_ofstream@DU?$char_traits@D@std@@@std@@QAEXXZ 1000e6a0 f i AnnAIController.obj
 0001:0000d6f0       ?construct@?$allocator@M@std@@QAEXPAMABM@Z 1000e6f0 f i AnnAIController.obj
 0001:0000d750       ?construct@?$allocator@PAUHistory@@@std@@QAEXPAPAUHistory@@ABQAU3@@Z 1000e750 f i AnnAIController.obj
 0001:0000d7b0       ?copy@?$char_traits@D@std@@SAPADPADPBDI@Z 1000e7b0 f i AnnAIController.obj
 0001:0000d800       ?deallocate@?$_Wrap_alloc@V?$allocator@D@std@@@std@@QAEXPADI@Z 1000e800 f i AnnAIController.obj
 0001:0000d830       ?deallocate@?$_Wrap_alloc@V?$allocator@M@std@@@std@@QAEXPAMI@Z 1000e830 f i AnnAIController.obj
 0001:0000d860       ?deallocate@?$_Wrap_alloc@V?$allocator@PAUCar@@@std@@@std@@QAEXPAPAUCar@@I@Z 1000e860 f i AnnAIController.obj
 0001:0000d890       ?deallocate@?$_Wrap_alloc@V?$allocator@PAUHistory@@@std@@@std@@QAEXPAPAUHistory@@I@Z 1000e890 f i AnnAIController.obj
 0001:0000d8c0       ?deallocate@?$allocator@D@std@@QAEXPADI@Z 1000e8c0 f i AnnAIController.obj
 0001:0000d8f0       ?deallocate@?$allocator@M@std@@QAEXPAMI@Z 1000e8f0 f i AnnAIController.obj
 0001:0000d920       ?deallocate@?$allocator@PAUCar@@@std@@QAEXPAPAUCar@@I@Z 1000e920 f i AnnAIController.obj
 0001:0000d950       ?deallocate@?$allocator@PAUHistory@@@std@@QAEXPAPAUHistory@@I@Z 1000e950 f i AnnAIController.obj
 0001:0000d980       ?deallocate@?$allocator@U_Container_proxy@std@@@std@@QAEXPAU_Container_proxy@2@I@Z 1000e980 f i AnnAIController.obj
 0001:0000d9b0       ?decimal_point@?$numpunct@D@std@@QBEDXZ 1000e9b0 f i AnnAIController.obj
 0001:0000d9f0       ?default_error_condition@_System_error_category@std@@UBE?AVerror_condition@2@H@Z 1000e9f0 f i AnnAIController.obj
 0001:0000da50       ?default_error_condition@error_category@std@@UBE?AVerror_condition@2@H@Z 1000ea50 f i AnnAIController.obj
 0001:0000da90       ?do_always_noconv@?$codecvt@DDH@std@@MBE_NXZ 1000ea90 f i AnnAIController.obj
 0001:0000dab0       ?do_always_noconv@codecvt_base@std@@MBE_NXZ 1000eab0 f i AnnAIController.obj
 0001:0000dad0       ?do_decimal_point@?$numpunct@D@std@@MBEDXZ 1000ead0 f i AnnAIController.obj
 0001:0000daf0       ?do_encoding@codecvt_base@std@@MBEHXZ 1000eaf0 f i AnnAIController.obj
 0001:0000db10       ?do_falsename@?$numpunct@D@std@@MBE?AV?$basic_string@DU?$char_traits@D@std@@V?$allocator@D@2@@2@XZ 1000eb10 f i AnnAIController.obj
 0001:0000db60       ?do_grouping@?$numpunct@D@std@@MBE?AV?$basic_string@DU?$char_traits@D@std@@V?$allocator@D@2@@2@XZ 1000eb60 f i AnnAIController.obj
 0001:0000dbb0       ?do_in@?$codecvt@DDH@std@@MBEHAAHPBD1AAPBDPAD3AAPAD@Z 1000ebb0 f i AnnAIController.obj
 0001:0000dc30       ?do_length@?$codecvt@DDH@std@@MBEHAAHPBD1I@Z 1000ec30 f i AnnAIController.obj
 0001:0000dc70       ?do_max_length@codecvt_base@std@@MBEHXZ 1000ec70 f i AnnAIController.obj
 0001:0000dc90       ?do_narrow@?$ctype@D@std@@MBEDDD@Z 1000ec90 f i AnnAIController.obj
 0001:0000dcb0       ?do_narrow@?$ctype@D@std@@MBEPBDPBD0DPAD@Z 1000ecb0 f i AnnAIController.obj
 0001:0000dd20       ?do_out@?$codecvt@DDH@std@@MBEHAAHPBD1AAPBDPAD3AAPAD@Z 1000ed20 f i AnnAIController.obj
 0001:0000dda0       ?do_put@?$num_put@DV?$ostreambuf_iterator@DU?$char_traits@D@std@@@std@@@std@@MBE?AV?$ostreambuf_iterator@DU?$char_traits@D@std@@@2@V32@AAVios_base@2@DJ@Z 1000eda0 f i AnnAIController.obj
 0001:0000de80       ?do_put@?$num_put@DV?$ostreambuf_iterator@DU?$char_traits@D@std@@@std@@@std@@MBE?AV?$ostreambuf_iterator@DU?$char_traits@D@std@@@2@V32@AAVios_base@2@DK@Z 1000ee80 f i AnnAIController.obj
 0001:0000df60       ?do_put@?$num_put@DV?$ostreambuf_iterator@DU?$char_traits@D@std@@@std@@@std@@MBE?AV?$ostreambuf_iterator@DU?$char_traits@D@std@@@2@V32@AAVios_base@2@DN@Z 1000ef60 f i AnnAIController.obj
 0001:0000e2b0       ?do_put@?$num_put@DV?$ostreambuf_iterator@DU?$char_traits@D@std@@@std@@@std@@MBE?AV?$ostreambuf_iterator@DU?$char_traits@D@std@@@2@V32@AAVios_base@2@DO@Z 1000f2b0 f i AnnAIController.obj
 0001:0000e5f0       ?do_put@?$num_put@DV?$ostreambuf_iterator@DU?$char_traits@D@std@@@std@@@std@@MBE?AV?$ostreambuf_iterator@DU?$char_traits@D@std@@@2@V32@AAVios_base@2@DPBX@Z 1000f5f0 f i AnnAIController.obj
 0001:0000e6a0       ?do_put@?$num_put@DV?$ostreambuf_iterator@DU?$char_traits@D@std@@@std@@@std@@MBE?AV?$ostreambuf_iterator@DU?$char_traits@D@std@@@2@V32@AAVios_base@2@D_J@Z 1000f6a0 f i AnnAIController.obj
 0001:0000e780       ?do_put@?$num_put@DV?$ostreambuf_iterator@DU?$char_traits@D@std@@@std@@@std@@MBE?AV?$ostreambuf_iterator@DU?$char_traits@D@std@@@2@V32@AAVios_base@2@D_K@Z 1000f780 f i AnnAIController.obj
 0001:0000e860       ?do_put@?$num_put@DV?$ostreambuf_iterator@DU?$char_traits@D@std@@@std@@@std@@MBE?AV?$ostreambuf_iterator@DU?$char_traits@D@std@@@2@V32@AAVios_base@2@D_N@Z 1000f860 f i AnnAIController.obj
 0001:0000eb40       ?do_thousands_sep@?$numpunct@D@std@@MBEDXZ 1000fb40 f i AnnAIController.obj
 0001:0000eb60       ?do_tolower@?$ctype@D@std@@MBEDD@Z 1000fb60 f i AnnAIController.obj
 0001:0000eba0       ?do_tolower@?$ctype@D@std@@MBEPBDPADPBD@Z 1000fba0 f i AnnAIController.obj
 0001:0000ec10       ?do_toupper@?$ctype@D@std@@MBEDD@Z 1000fc10 f i AnnAIController.obj
 0001:0000ec50       ?do_toupper@?$ctype@D@std@@MBEPBDPADPBD@Z 1000fc50 f i AnnAIController.obj
 0001:0000ecc0       ?do_truename@?$numpunct@D@std@@MBE?AV?$basic_string@DU?$char_traits@D@std@@V?$allocator@D@2@@2@XZ 1000fcc0 f i AnnAIController.obj
 0001:0000ed10       ?do_unshift@?$codecvt@DDH@std@@MBEHAAHPAD1AAPAD@Z 1000fd10 f i AnnAIController.obj
 0001:0000ed30       ?do_widen@?$ctype@D@std@@MBEDD@Z 1000fd30 f i AnnAIController.obj
 0001:0000ed50       ?do_widen@?$ctype@D@std@@MBEPBDPBD0PAD@Z 1000fd50 f i AnnAIController.obj
 0001:0000edc0       ?eback@?$basic_streambuf@DU?$char_traits@D@std@@@std@@IBEPADXZ 1000fdc0 f i AnnAIController.obj
 0001:0000ede0       ?egptr@?$basic_streambuf@DU?$char_traits@D@std@@@std@@IBEPADXZ 1000fde0 f i AnnAIController.obj
 0001:0000ee10       ?end@?$vector@PAUCar@@V?$allocator@PAUCar@@@std@@@std@@QBE?AV?$_Vector_const_iterator@V?$_Vector_val@U?$_Simple_types@PAUCar@@@std@@@std@@@2@XZ 1000fe10 f i AnnAIController.obj
 0001:0000ee50       ?end@?$vector@PAUHistory@@V?$allocator@PAUHistory@@@std@@@std@@QBE?AV?$_Vector_const_iterator@V?$_Vector_val@U?$_Simple_types@PAUHistory@@@std@@@std@@@2@XZ 1000fe50 f i AnnAIController.obj
 0001:0000ee90       ?endl@std@@YAAAV?$basic_ostream@DU?$char_traits@D@std@@@1@AAV21@@Z 1000fe90 f i AnnAIController.obj
 0001:0000eec0       ?eof@?$char_traits@D@std@@SAHXZ 1000fec0 f i AnnAIController.obj
 0001:0000eed0       ?epptr@?$basic_streambuf@DU?$char_traits@D@std@@@std@@IBEPADXZ 1000fed0 f i AnnAIController.obj
 0001:0000ef00       ?eq_int_type@?$char_traits@D@std@@SA_NABH0@Z 1000ff00 f i AnnAIController.obj
 0001:0000ef30       ?equivalent@error_category@std@@UBE_NABVerror_code@2@H@Z 1000ff30 f i AnnAIController.obj
 0001:0000ef90       ?equivalent@error_category@std@@UBE_NHABVerror_condition@2@@Z 1000ff90 f i AnnAIController.obj
 0001:0000eff0       ?erase@?$basic_string@DU?$char_traits@D@std@@V?$allocator@D@2@@std@@QAEAAV12@I@Z 1000fff0 f i AnnAIController.obj
 0001:0000f030       ?erase@?$basic_string@DU?$char_traits@D@std@@V?$allocator@D@2@@std@@QAEAAV12@II@Z 10010030 f i AnnAIController.obj
 0001:0000f0e0       ?failed@?$ostreambuf_iterator@DU?$char_traits@D@std@@@std@@QBE_NXZ 100100e0 f i AnnAIController.obj
 0001:0000f100       ?falsename@?$numpunct@D@std@@QBE?AV?$basic_string@DU?$char_traits@D@std@@V?$allocator@D@2@@2@XZ 10010100 f i AnnAIController.obj
 0001:0000f160       ?fill@?$basic_ios@DU?$char_traits@D@std@@@std@@QBEDXZ 10010160 f i AnnAIController.obj
 0001:0000f180       ?flags@ios_base@std@@QBEHXZ 10010180 f i AnnAIController.obj
 0001:0000f1a0       ?flush@?$basic_ostream@DU?$char_traits@D@std@@@std@@QAEAAV12@XZ 100101a0 f i AnnAIController.obj
 0001:0000f2a0       ?gbump@?$basic_streambuf@DU?$char_traits@D@std@@@std@@IAEXH@Z 100102a0 f i AnnAIController.obj
 0001:0000f2e0       ?generic_category@std@@YAABVerror_category@1@XZ 100102e0 f i AnnAIController.obj
 0001:0000f2f0       ?get_allocator@?$basic_string@DU?$char_traits@D@std@@V?$allocator@D@2@@std@@QBE?AV?$allocator@D@2@XZ 100102f0 f i AnnAIController.obj
 0001:0000f330       ?getloc@?$basic_streambuf@DU?$char_traits@D@std@@@std@@QBE?AVlocale@2@XZ 10010330 f i AnnAIController.obj
 0001:0000f380       ?getloc@ios_base@std@@QBE?AVlocale@2@XZ 10010380 f i AnnAIController.obj
 0001:0000f3d0       ?good@ios_base@std@@QBE_NXZ 100103d0 f i AnnAIController.obj
 0001:0000f420       ?gptr@?$basic_streambuf@DU?$char_traits@D@std@@@std@@IBEPADXZ 10010420 f i AnnAIController.obj
 0001:0000f440       ?grouping@?$numpunct@D@std@@QBE?AV?$basic_string@DU?$char_traits@D@std@@V?$allocator@D@2@@2@XZ 10010440 f i AnnAIController.obj
 0001:0000f4a0       ?imbue@?$basic_filebuf@DU?$char_traits@D@std@@@std@@MAEXABVlocale@2@@Z 100104a0 f i AnnAIController.obj
 0001:0000f4e0       ?imbue@?$basic_streambuf@DU?$char_traits@D@std@@@std@@MAEXABVlocale@2@@Z 100104e0 f i AnnAIController.obj
 0001:0000f500       ?in@?$codecvt@DDH@std@@QBEHAAHPBD1AAPBDPAD3AAPAD@Z 10010500 f i AnnAIController.obj
 0001:0000f560       ?init@?$basic_ios@DU?$char_traits@D@std@@@std@@IAEXPAV?$basic_streambuf@DU?$char_traits@D@std@@@2@_N@Z 10010560 f i AnnAIController.obj
 0001:0000f5e0       ?insert@?$basic_string@DU?$char_traits@D@std@@V?$allocator@D@2@@std@@QAEAAV12@IID@Z 100105e0 f i AnnAIController.obj
 0001:0000f6b0       ?iostream_category@std@@YAABVerror_category@1@XZ 100106b0 f i AnnAIController.obj
 0001:0000f6c0       ?length@?$char_traits@D@std@@SAIPBD@Z 100106c0 f i AnnAIController.obj
 0001:0000f700       ?make_error_code@std@@YA?AVerror_code@1@W4io_errc@31@@Z 10010700 f i AnnAIController.obj
 0001:0000f730       ?max_size@?$_Wrap_alloc@V?$allocator@D@std@@@std@@QBEIXZ 10010730 f i AnnAIController.obj
 0001:0000f760       ?max_size@?$_Wrap_alloc@V?$allocator@M@std@@@std@@QBEIXZ 10010760 f i AnnAIController.obj
 0001:0000f790       ?max_size@?$_Wrap_alloc@V?$allocator@PAUHistory@@@std@@@std@@QBEIXZ 10010790 f i AnnAIController.obj
 0001:0000f7c0       ?max_size@?$allocator@D@std@@QBEIXZ 100107c0 f i AnnAIController.obj
 0001:0000f7e0       ?max_size@?$allocator@M@std@@QBEIXZ 100107e0 f i AnnAIController.obj
 0001:0000f800       ?max_size@?$allocator@PAUHistory@@@std@@QBEIXZ 10010800 f i AnnAIController.obj
 0001:0000f820       ?max_size@?$allocator_traits@V?$allocator@D@std@@@std@@SAIABV?$allocator@D@2@@Z 10010820 f i AnnAIController.obj
 0001:0000f840       ?max_size@?$allocator_traits@V?$allocator@M@std@@@std@@SAIABV?$allocator@M@2@@Z 10010840 f i AnnAIController.obj
 0001:0000f860       ?max_size@?$allocator_traits@V?$allocator@PAUHistory@@@std@@@std@@SAIABV?$allocator@PAUHistory@@@2@@Z 10010860 f i AnnAIController.obj
 0001:0000f880       ?max_size@?$basic_string@DU?$char_traits@D@std@@V?$allocator@D@2@@std@@QBEIXZ 10010880 f i AnnAIController.obj
 0001:0000f8e0       ?max_size@?$vector@MV?$allocator@M@std@@@std@@QBEIXZ 100108e0 f i AnnAIController.obj
 0001:0000f920       ?max_size@?$vector@PAUHistory@@V?$allocator@PAUHistory@@@std@@@std@@QBEIXZ 10010920 f i AnnAIController.obj
 0001:0000f960       ?message@_Generic_error_category@std@@UBE?AV?$basic_string@DU?$char_traits@D@std@@V?$allocator@D@2@@2@H@Z 10010960 f i AnnAIController.obj
 0001:0000f9d0       ?message@_Iostream_error_category@std@@UBE?AV?$basic_string@DU?$char_traits@D@std@@V?$allocator@D@2@@2@H@Z 100109d0 f i AnnAIController.obj
 0001:0000fa40       ?message@_System_error_category@std@@UBE?AV?$basic_string@DU?$char_traits@D@std@@V?$allocator@D@2@@2@H@Z 10010a40 f i AnnAIController.obj
 0001:0000fab0       ?modf@@YAMMPAM@Z           10010ab0 f i AnnAIController.obj
 0001:0000fae0       ?move@?$char_traits@D@std@@SAPADPADPBDI@Z 10010ae0 f i AnnAIController.obj
 0001:0000fb30       ?name@_Generic_error_category@std@@UBEPBDXZ 10010b30 f i AnnAIController.obj
 0001:0000fb50       ?name@_Iostream_error_category@std@@UBEPBDXZ 10010b50 f i AnnAIController.obj
 0001:0000fb70       ?name@_System_error_category@std@@UBEPBDXZ 10010b70 f i AnnAIController.obj
 0001:0000fb90       ?not_eof@?$char_traits@D@std@@SAHABH@Z 10010b90 f i AnnAIController.obj
 0001:0000fbf0       ?open@?$basic_filebuf@DU?$char_traits@D@std@@@std@@QAEPAV12@PBDHH@Z 10010bf0 f i AnnAIController.obj
 0001:0000fcd0       ?open@?$basic_fstream@DU?$char_traits@D@std@@@std@@QAEXPBDHH@Z 10010cd0 f i AnnAIController.obj
 0001:0000fd40       ?open@?$basic_ofstream@DU?$char_traits@D@std@@@std@@QAEXPBDHH@Z 10010d40 f i AnnAIController.obj
 0001:0000fdb0       ?out@?$codecvt@DDH@std@@QBEHAAHPBD1AAPBDPAD3AAPAD@Z 10010db0 f i AnnAIController.obj
 0001:0000fe10       ?overflow@?$basic_filebuf@DU?$char_traits@D@std@@@std@@MAEHH@Z 10010e10 f i AnnAIController.obj
 0001:00010300       ?overflow@?$basic_streambuf@DU?$char_traits@D@std@@@std@@MAEHH@Z 10011300 f i AnnAIController.obj
 0001:00010330       ?pbackfail@?$basic_filebuf@DU?$char_traits@D@std@@@std@@MAEHH@Z 10011330 f i AnnAIController.obj
 0001:000104a0       ?pbackfail@?$basic_streambuf@DU?$char_traits@D@std@@@std@@MAEHH@Z 100114a0 f i AnnAIController.obj
 0001:000104d0       ?pbump@?$basic_streambuf@DU?$char_traits@D@std@@@std@@IAEXH@Z 100114d0 f i AnnAIController.obj
 0001:00010510       ?pow@@YAMMH@Z              10011510 f i AnnAIController.obj
 0001:00010540       ?pptr@?$basic_streambuf@DU?$char_traits@D@std@@@std@@IBEPADXZ 10011540 f i AnnAIController.obj
 0001:00010560       ?precision@ios_base@std@@QBE_JXZ 10011560 f i AnnAIController.obj
 0001:00010580       ?pubsync@?$basic_streambuf@DU?$char_traits@D@std@@@std@@QAEHXZ 10011580 f i AnnAIController.obj
 0001:000105c0       ?push_back@?$vector@MV?$allocator@M@std@@@std@@QAEXABM@Z 100115c0 f i AnnAIController.obj
 0001:000106f0       ?push_back@?$vector@PAUHistory@@V?$allocator@PAUHistory@@@std@@@std@@QAEXABQAUHistory@@@Z 100116f0 f i AnnAIController.obj
 0001:00010820       ?put@?$basic_ostream@DU?$char_traits@D@std@@@std@@QAEAAV12@D@Z 10011820 f i AnnAIController.obj
 0001:00010990       ?put@?$num_put@DV?$ostreambuf_iterator@DU?$char_traits@D@std@@@std@@@std@@QBE?AV?$ostreambuf_iterator@DU?$char_traits@D@std@@@2@V32@AAVios_base@2@DJ@Z 10011990 f i AnnAIController.obj
 0001:000109f0       ?put@?$num_put@DV?$ostreambuf_iterator@DU?$char_traits@D@std@@@std@@@std@@QBE?AV?$ostreambuf_iterator@DU?$char_traits@D@std@@@2@V32@AAVios_base@2@DN@Z 100119f0 f i AnnAIController.obj
 0001:00010a50       ?rdbuf@?$basic_ios@DU?$char_traits@D@std@@@std@@QBEPAV?$basic_streambuf@DU?$char_traits@D@std@@@2@XZ 10011a50 f i AnnAIController.obj
 0001:00010a70       ?rdstate@ios_base@std@@QBEHXZ 10011a70 f i AnnAIController.obj
 0001:00010a90       ?seekoff@?$basic_filebuf@DU?$char_traits@D@std@@@std@@MAE?AV?$fpos@H@2@_JHH@Z 10011a90 f i AnnAIController.obj
 0001:00010bc0       ?seekoff@?$basic_streambuf@DU?$char_traits@D@std@@@std@@MAE?AV?$fpos@H@2@_JHH@Z 10011bc0 f i AnnAIController.obj
 0001:00010c00       ?seekpos@?$basic_filebuf@DU?$char_traits@D@std@@@std@@MAE?AV?$fpos@H@2@V32@H@Z 10011c00 f i AnnAIController.obj
 0001:00010d40       ?seekpos@?$basic_streambuf@DU?$char_traits@D@std@@@std@@MAE?AV?$fpos@H@2@V32@H@Z 10011d40 f i AnnAIController.obj
 0001:00010d80       ?seekpos@?$fpos@H@std@@QBE_JXZ 10011d80 f i AnnAIController.obj
 0001:00010da0       ?setbuf@?$basic_filebuf@DU?$char_traits@D@std@@@std@@MAEPAV?$basic_streambuf@DU?$char_traits@D@std@@@2@PAD_J@Z 10011da0 f i AnnAIController.obj
 0001:00010e30       ?setbuf@?$basic_streambuf@DU?$char_traits@D@std@@@std@@MAEPAV12@PAD_J@Z 10011e30 f i AnnAIController.obj
 0001:00010e50       ?setg@?$basic_streambuf@DU?$char_traits@D@std@@@std@@IAEXPAD00@Z 10011e50 f i AnnAIController.obj
 0001:00010e90       ?setp@?$basic_streambuf@DU?$char_traits@D@std@@@std@@IAEXPAD0@Z 10011e90 f i AnnAIController.obj
 0001:00010ed0       ?setstate@?$basic_ios@DU?$char_traits@D@std@@@std@@QAEXH_N@Z 10011ed0 f i AnnAIController.obj
 0001:00010f10       ?showmanyc@?$basic_streambuf@DU?$char_traits@D@std@@@std@@MAE_JXZ 10011f10 f i AnnAIController.obj
 0001:00010f30       ?size@?$basic_string@DU?$char_traits@D@std@@V?$allocator@D@2@@std@@QBEIXZ 10011f30 f i AnnAIController.obj
 0001:00010f50       ?size@?$vector@MV?$allocator@M@std@@@std@@QBEIXZ 10011f50 f i AnnAIController.obj
 0001:00010f80       ?size@?$vector@PAUHistory@@V?$allocator@PAUHistory@@@std@@@std@@QBEIXZ 10011f80 f i AnnAIController.obj
 0001:00010fb0       ?sputc@?$basic_streambuf@DU?$char_traits@D@std@@@std@@QAEHD@Z 10011fb0 f i AnnAIController.obj
 0001:00011050       ?sputn@?$basic_streambuf@DU?$char_traits@D@std@@@std@@QAE_JPBD_J@Z 10012050 f i AnnAIController.obj
 0001:000110a0       ?state@?$fpos@H@std@@QBEHXZ 100120a0 f i AnnAIController.obj
 0001:000110c0       ?sync@?$basic_filebuf@DU?$char_traits@D@std@@@std@@MAEHXZ 100120c0 f i AnnAIController.obj
 0001:00011160       ?sync@?$basic_streambuf@DU?$char_traits@D@std@@@std@@MAEHXZ 10012160 f i AnnAIController.obj
 0001:00011180       ?system_category@std@@YAABVerror_category@1@XZ 10012180 f i AnnAIController.obj
 0001:00011190       ?thousands_sep@?$numpunct@D@std@@QBEDXZ 10012190 f i AnnAIController.obj
 0001:000111d0       ?tie@?$basic_ios@DU?$char_traits@D@std@@@std@@QBEPAV?$basic_ostream@DU?$char_traits@D@std@@@2@XZ 100121d0 f i AnnAIController.obj
 0001:000111f0       ?to_char_type@?$char_traits@D@std@@SADABH@Z 100121f0 f i AnnAIController.obj
 0001:00011200       ?to_int_type@?$char_traits@D@std@@SAHABD@Z 10012200 f i AnnAIController.obj
 0001:00011210       ?truename@?$numpunct@D@std@@QBE?AV?$basic_string@DU?$char_traits@D@std@@V?$allocator@D@2@@2@XZ 10012210 f i AnnAIController.obj
 0001:00011270       ?uflow@?$basic_filebuf@DU?$char_traits@D@std@@@std@@MAEHXZ 10012270 f i AnnAIController.obj
 0001:00011700       ?uflow@?$basic_streambuf@DU?$char_traits@D@std@@@std@@MAEHXZ 10012700 f i AnnAIController.obj
 0001:00011790       ?underflow@?$basic_filebuf@DU?$char_traits@D@std@@@std@@MAEHXZ 10012790 f i AnnAIController.obj
 0001:00011880       ?underflow@?$basic_streambuf@DU?$char_traits@D@std@@@std@@MAEHXZ 10012880 f i AnnAIController.obj
 0001:000118b0       ?unshift@?$codecvt@DDH@std@@QBEHAAHPAD1AAPAD@Z 100128b0 f i AnnAIController.obj
 0001:00011900       ?value@error_code@std@@QBEHXZ 10012900 f i AnnAIController.obj
 0001:00011920       ?value@error_condition@std@@QBEHXZ 10012920 f i AnnAIController.obj
 0001:00011940       ?widen@?$basic_ios@DU?$char_traits@D@std@@@std@@QBEDD@Z 10012940 f i AnnAIController.obj
 0001:000119e0       ?widen@?$ctype@D@std@@QBEDD@Z 100129e0 f i AnnAIController.obj
 0001:00011a20       ?widen@?$ctype@D@std@@QBEPBDPBD0PAD@Z 10012a20 f i AnnAIController.obj
 0001:00011a70       ?width@ios_base@std@@QAE_J_J@Z 10012a70 f i AnnAIController.obj
 0001:00011ac0       ?width@ios_base@std@@QBE_JXZ 10012ac0 f i AnnAIController.obj
 0001:00011ae0       ?xsgetn@?$basic_streambuf@DU?$char_traits@D@std@@@std@@MAE_JPAD_J@Z 10012ae0 f i AnnAIController.obj
 0001:00011c80       ?xsputn@?$basic_streambuf@DU?$char_traits@D@std@@@std@@MAE_JPBD_J@Z 10012c80 f i AnnAIController.obj
 0001:00011df0       _fabsf                     10012df0 f i AnnAIController.obj
 0001:00011e50       _floorf                    10012e50 f i AnnAIController.obj
 0001:00011eb0       _modff                     10012eb0 f i AnnAIController.obj
 0001:00012150       _ANN_Bot                   10013150 f   ANN_Bot.obj
 0001:00012210       ??_GDriver@@QAEPAXI@Z      10013210 f i ANN_Bot.obj
 0001:00012250       ?sgdMakeCoordMat4@@YAXQAY03NPBUsgdCoord@@@Z 10013250 f i ANN_Bot.obj
 0001:00012280       ?sgdMakeCoordMat4@@YAXQAY03NQBN1@Z 10013280 f i ANN_Bot.obj
 0001:00012330       ?update@SingleCardata@@QAEXXZ 10013330 f   cardata.obj
 0001:000124c0       ?getSpeed@SingleCardata@@KAMPAUCarElt@@M@Z 100134c0 f   cardata.obj
 0001:000125a0       ??0Cardata@@QAE@PAUSituation@@@Z 100135a0 f   cardata.obj
 0001:00012650       ??1Cardata@@QAE@XZ         10013650 f   cardata.obj
 0001:00012690       ?update@Cardata@@QAEXXZ    10013690 f   cardata.obj
 0001:000126f0       ?findCar@Cardata@@QAEPAVSingleCardata@@PAUCarElt@@@Z 100136f0 f   cardata.obj
 0001:00012760       ??0?$v2t@M@@QAE@XZ         10013760 f i cardata.obj
 0001:00012780       ??D?$v2t@M@@QBEMABV0@@Z    10013780 f i cardata.obj
 0001:000127d0       ?cos@@YAMM@Z               100137d0 f i cardata.obj
 0001:000127f0       ?init@SingleCardata@@QAEXPAUCarElt@@@Z 100137f0 f i cardata.obj
 0001:00012810       ?sin@@YAMM@Z               10013810 f i cardata.obj
 0001:00012830       ?thisCar@SingleCardata@@QAE_NPAUCarElt@@@Z 10013830 f i cardata.obj
 0001:00012870       _cosf                      10013870 f i cardata.obj
 0001:000128d0       _sinf                      100138d0 f i cardata.obj
 0001:00012930       ??0Driver@@QAE@H@Z         10013930 f   driver.obj
 0001:00012970       ??1Driver@@QAE@XZ          10013970 f   driver.obj
 0001:00012bf0       ?initTrack@Driver@@QAEXPAUtTrack@@PAXPAPAXPAUSituation@@@Z 10013bf0 f   driver.obj
 0001:00012ed0       ?newRace@Driver@@QAEXPAUCarElt@@PAUSituation@@@Z 10013ed0 f   driver.obj
 0001:00013510       ?drive@Driver@@QAEXPAUSituation@@@Z 10014510 f   driver.obj
 0001:00013ad0       ?pitCommand@Driver@@QAEHPAUSituation@@@Z 10014ad0 f   driver.obj
 0001:00013b70       ?endRace@Driver@@QAEXPAUSituation@@@Z 10014b70 f   driver.obj
 0001:00013b90       ?isStuck@Driver@@AAE_NXZ   10014b90 f   driver.obj
 0001:00013ca0       ?update@Driver@@AAEXPAUSituation@@@Z 10014ca0 f   driver.obj
 0001:00013cf0       ?getAllowedSpeed@Driver@@AAEMPAUtrackSeg@@@Z 10014cf0 f   driver.obj
 0001:00013ee0       ?getAccel@Driver@@AAEMXZ   10014ee0 f   driver.obj
 0001:00013fd0       ?getDistToSegEnd@Driver@@AAEMXZ 10014fd0 f   driver.obj
 0001:00014070       ?getBrake@Driver@@AAEMXZ   10015070 f   driver.obj
 0001:00014230       ?getGear@Driver@@AAEHXZ    10015230 f   driver.obj
 0001:000143b0       ?getSteer@Driver@@AAEMXZ   100153b0 f   driver.obj
 0001:00014500       ?getClutch@Driver@@AAEMXZ  10015500 f   driver.obj
 0001:000147d0       ?getTargetPoint@Driver@@AAE?AV?$v2t@M@@XZ 100157d0 f   driver.obj
 0001:00014cb0       ?getOffset@Driver@@AAEMXZ  10015cb0 f   driver.obj
 0001:00015490       ?brakedist@Driver@@AAEMMM@Z 10016490 f   driver.obj
 0001:00015570       ?filterOverlap@Driver@@AAEMM@Z 10016570 f   driver.obj
 0001:00015610       ?filterBColl@Driver@@AAEMM@Z 10016610 f   driver.obj
 0001:00015700       ?filterABS@Driver@@AAEMM@Z 10016700 f   driver.obj
 0001:00015830       ?filterBPit@Driver@@AAEMM@Z 10016830 f   driver.obj
 0001:00015b70       ?filterBrakeSpeed@Driver@@AAEMM@Z 10016b70 f   driver.obj
 0001:00015c10       ?filterTCL@Driver@@AAEMM@Z 10016c10 f   driver.obj
 0001:00015cd0       ?filterTrk@Driver@@AAEMM@Z 10016cd0 f   driver.obj
 0001:00015e70       ?filterSColl@Driver@@AAEMM@Z 10016e70 f   driver.obj
 0001:00016380       ?filterTCL_RWD@Driver@@AAEMXZ 10017380 f   driver.obj
 0001:00016400       ?filterTCL_FWD@Driver@@AAEMXZ 10017400 f   driver.obj
 0001:00016480       ?filterTCL_4WD@Driver@@AAEMXZ 10017480 f   driver.obj
 0001:00016540       ?initTCLfilter@Driver@@AAEXXZ 10017540 f   driver.obj
 0001:000165f0       ?initCa@Driver@@AAEXXZ     100175f0 f   driver.obj
 0001:00016870       ?initCw@Driver@@AAEXXZ     10017870 f   driver.obj
 0001:00016920       ?initTireMu@Driver@@AAEXXZ 10017920 f   driver.obj
 0001:00016a60       ?computeRadius@Driver@@AAEXPAM@Z 10017a60 f   driver.obj
 0001:00016bc0       ?isAlone@Driver@@AAEHXZ    10017bc0 f   driver.obj
 0001:00016c30       ??$?DM@@YA?AV?$v2t@M@@MABV0@@Z 10017c30 f i driver.obj
 0001:00016c70       ??0?$v2t@M@@QAE@MM@Z       10017c70 f i driver.obj
 0001:00016ca0       ??0Car@@QAE@XZ             10017ca0 f i driver.obj
 0001:00016db0       ??0SimpleStrategy2@@QAE@XZ 10017db0 f i driver.obj
 0001:00016de0       ??4?$v2t@M@@QAEAAV0@ABV0@@Z 10017de0 f i driver.obj
 0001:00016e10       ??D?$v2t@M@@QBE?AV0@M@Z    10017e10 f i driver.obj
 0001:00016e60       ??G?$v2t@M@@QBE?AV0@ABV0@@Z 10017e60 f i driver.obj
 0001:00016ec0       ??H?$v2t@M@@QBE?AV0@ABV0@@Z 10017ec0 f i driver.obj
 0001:00016f20       ??_GCardata@@QAEPAXI@Z     10017f20 f i driver.obj
 0001:00016f60       ??_GMyCar@@QAEPAXI@Z       10017f60 f i driver.obj
 0001:00016fa0       ??_GOpponents@@QAEPAXI@Z   10017fa0 f i driver.obj
 0001:00016fe0       ??_GPit@@QAEPAXI@Z         10017fe0 f i driver.obj
 0001:00017020       ??_GSegLearn@@QAEPAXI@Z    10018020 f i driver.obj
 0001:00017060       ??_GSimpleStrategy2@@UAEPAXI@Z 10018060 f i driver.obj
 0001:00017060       ??_ESimpleStrategy2@@UAEPAXI@Z 10018060 f i driver.obj
 0001:000170a0       ?atan2@@YAMMM@Z            100180a0 f i driver.obj
 0001:000170d0       ?exp@@YAMM@Z               100180d0 f i driver.obj
 0001:000170f0       ?fabs@@YAMM@Z              100180f0 f i driver.obj
 0001:00017110       ?getCarAngle@SingleCardata@@QAEMXZ 10018110 f i driver.obj
 0001:00017130       ?getCarPtr@Opponent@@QAEPAUCarElt@@XZ 10018130 f i driver.obj
 0001:00017150       ?getCatchDist@Opponent@@QAEMXZ 10018150 f i driver.obj
 0001:00017170       ?getDamage@Opponent@@QAEHXZ 10018170 f i driver.obj
 0001:00017190       ?getDistance@Opponent@@QAEMXZ 10018190 f i driver.obj
 0001:000171b0       ?getInPit@Pit@@QAE_NXZ     100181b0 f i driver.obj
 0001:000171d0       ?getKgamma@TrackSegment@@QAEMXZ 100181d0 f i driver.obj
 0001:000171f0       ?getLoc@PathSeg@@QAEPAVv3d@@XZ 100181f0 f i driver.obj
 0001:00017210       ?getNOpponents@Opponents@@QAEHXZ 10018210 f i driver.obj
 0001:00017230       ?getNPitEnd@Pit@@QAEMXZ    10018230 f i driver.obj
 0001:00017260       ?getNPitLoc@Pit@@QAEMXZ    10018260 f i driver.obj
 0001:00017290       ?getNPitStart@Pit@@QAEMXZ  10018290 f i driver.obj
 0001:000172c0       ?getOpponentPtr@Opponents@@QAEPAVOpponent@@XZ 100182c0 f i driver.obj
 0001:000172e0       ?getPitstop@Pit@@QAE_NXZ   100182e0 f i driver.obj
 0001:00017300       ?getRadius@SegLearn@@QAEMPAUtrackSeg@@@Z 10018300 f i driver.obj
 0001:00017330       ?getSegmentPtr@TrackDesc@@QAEPAVTrackSegment@@H@Z 10018330 f i driver.obj
 0001:00017360       ?getSideDist@Opponent@@QAEMXZ 10018360 f i driver.obj
 0001:00017380       ?getSpeed@Opponent@@QAEMXZ 10018380 f i driver.obj
 0001:000173b0       ?getSpeedInTrackDirection@SingleCardata@@QAEMXZ 100183b0 f i driver.obj
 0001:000173d0       ?getSpeedlimit@Pit@@QAEMXZ 100183d0 f i driver.obj
 0001:000173f0       ?getSpeedlimitSqr@Pit@@QAEMXZ 100183f0 f i driver.obj
 0001:00017410       ?getState@Opponent@@QAEHXZ 10018410 f i driver.obj
 0001:00017430       ?getWidth@Opponent@@QAEMXZ 10018430 f i driver.obj
 0001:00017460       ?getWidthOnTrack@SingleCardata@@QAEMXZ 10018460 f i driver.obj
 0001:00017480       ?isTeamMate@Opponent@@QAE_NXZ 10018480 f i driver.obj
 0001:000174a0       ?len@?$v2t@M@@QBEMXZ       100184a0 f i driver.obj
 0001:000174f0       ?log@@YAMM@Z               100184f0 f i driver.obj
 0001:00017510       ?normalize@?$v2t@M@@QAEXXZ 10018510 f i driver.obj
 0001:00017570       ?rotate@?$v2t@M@@QBE?AV1@ABV1@M@Z 10018570 f i driver.obj
 0001:00017670       ?sqrt@@YAMM@Z              10018670 f i driver.obj
 0001:00017690       ?strrchr@@YAPADPADH@Z      10018690 f i driver.obj
 0001:000176b0       _atan2f                    100186b0 f i driver.obj
 0001:00017710       _expf                      10018710 f i driver.obj
 0001:00017770       _logf                      10018770 f i driver.obj
 0001:000177d0       _sqrtf                     100187d0 f i driver.obj
 0001:00017830       ??0SegLearn@@QAE@PAUtTrack@@PAUSituation@@H@Z 10018830 f   learn.obj
 0001:000179d0       ??1SegLearn@@QAE@XZ        100189d0 f   learn.obj
 0001:00017a30       ?update@SegLearn@@QAEXPAUSituation@@PAUtTrack@@PAUCarElt@@HMMPAM@Z 10018a30 f   learn.obj
 0001:00017d60       ?writeKarma@SegLearn@@AAEXXZ 10018d60 f   learn.obj
 0001:00017fb0       ?getKarmaFilename@SegLearn@@AAEPAU_iobuf@@PAUtTrack@@PAUSituation@@H@Z 10018fb0 f   learn.obj
 0001:00018220       ?tryKarmaFilename@SegLearn@@AAEPAU_iobuf@@PADHPBDH1_N@Z 10019220 f   learn.obj
 0001:000182e0       ?readKarma@SegLearn@@AAE_NPAUtTrack@@PAUSituation@@PAMPAHH@Z 100192e0 f   learn.obj
 0001:000184d0       ?strchr@@YAPADPADH@Z       100194d0 f i learn.obj
 0001:000184f0       ??0MyCar@@QAE@PAVTrackDesc@@PAUCarElt@@PAUSituation@@@Z 100194f0 f   mycar.obj
 0001:00018dd0       ??1MyCar@@QAE@XZ           10019dd0 f   mycar.obj
 0001:00018e70       ?info@MyCar@@QAEXXZ        10019e70 f   mycar.obj
 0001:00019020       ?update@MyCar@@QAEXPAVTrackDesc@@PAUCarElt@@PAUSituation@@@Z 1001a020 f   mycar.obj
 0001:00019380       ?loadBehaviour@MyCar@@QAEXH@Z 1001a380 f   mycar.obj
 0001:000194d0       ?querySlipSpeed@MyCar@@QAENPAUCarElt@@@Z 1001a4d0 f   mycar.obj
 0001:00019680       ?queryAcceleration@MyCar@@QAENPAUCarElt@@N@Z 1001a680 f   mycar.obj
 0001:000197e0       ?updateCa@MyCar@@AAEXXZ    1001a7e0 f   mycar.obj
 0001:00019a80       ?updateDError@MyCar@@AAEXXZ 1001aa80 f   mycar.obj
 0001:00019b40       ?initCarGeometry@MyCar@@AAEXXZ 1001ab40 f   mycar.obj
 0001:00019b90       ?init@OtherCar@@QAEXPAVTrackDesc@@PAUCarElt@@PAUSituation@@@Z 1001ab90 f   mycar.obj
 0001:00019c10       ?update@OtherCar@@QAEXXZ   1001ac10 f   mycar.obj
 0001:00019d10       ??0AbstractCar@@QAE@XZ     1001ad10 f i mycar.obj
 0001:00019d50       ??0v3d@@QAE@NNN@Z          1001ad50 f i mycar.obj
 0001:00019d90       ??0v3d@@QAE@XZ             1001ad90 f i mycar.obj
 0001:00019db0       ??1AbstractCar@@QAE@XZ     1001adb0 f i mycar.obj
 0001:00019dd0       ??Dv3d@@QAENABV0@@Z        1001add0 f i mycar.obj
 0001:00019e40       ??Gv3d@@QAE?AV0@ABV0@@Z    1001ae40 f i mycar.obj
 0001:00019eb0       ??_GPathfinder@@QAEPAXI@Z  1001aeb0 f i mycar.obj
 0001:00019ef0       ?crossProduct@v3d@@QAEXPBV1@PAV1@@Z 1001aef0 f i mycar.obj
 0001:00019f90       ?distToMiddleSqr3D@TrackSegment@@QAENNNN@Z 1001af90 f i mycar.obj
 0001:0001a050       ?distToPath@Pathfinder@@QAENHPAVv3d@@@Z 1001b050 f i mycar.obj
 0001:0001a190       ?getCarPtr@AbstractCar@@QAEPAUCarElt@@XZ 1001b190 f i mycar.obj
 0001:0001a1b0       ?getCurrentSegment@Pathfinder@@QAEHPAUCarElt@@@Z 1001b1b0 f i mycar.obj
 0001:0001a200       ?getCurrentSegment@Pathfinder@@QAEHPAUCarElt@@H@Z 1001b200 f i mycar.obj
 0001:0001a250       ?getCurrentSegment@TrackDesc@@QAEHPAUCarElt@@HH@Z 1001b250 f i mycar.obj
 0001:0001a370       ?getDir@PathSeg@@QAEPAVv3d@@XZ 1001b370 f i mycar.obj
 0001:0001a390       ?getLength@PathSeg@@QAEMXZ 1001b390 f i mycar.obj
 0001:0001a3b0       ?getPathSeg@Pathfinder@@QAEPAVPathSeg@@H@Z 1001b3b0 f i mycar.obj
 0001:0001a3e0       ?getToRight@TrackSegment@@QAEPAVv3d@@XZ 1001b3e0 f i mycar.obj
 0001:0001a400       ?getnPathSeg@Pathfinder@@QAEHXZ 1001b400 f i mycar.obj
 0001:0001a420       ?getnTrackSegments@TrackDesc@@QAEHXZ 1001b420 f i mycar.obj
 0001:0001a440       ?initCGh@AbstractCar@@IAEXXZ 1001b440 f i mycar.obj
 0001:0001a490       ?len@v3d@@QAENXZ           1001b490 f i mycar.obj
 0001:0001a500       ?setCarPtr@AbstractCar@@IAEXPAUCarElt@@@Z 1001b500 f i mycar.obj
 0001:0001a520       ?sqr@TrackSegment@@QAENN@Z 1001b520 f i mycar.obj
 0001:0001a560       ?updateDir@AbstractCar@@IAEXXZ 1001b560 f i mycar.obj
 0001:0001a5d0       ?updatePos@AbstractCar@@IAEXXZ 1001b5d0 f i mycar.obj
 0001:0001a630       ?updateSpeed@AbstractCar@@IAEXXZ 1001b630 f i mycar.obj
 0001:0001a670       ?updateSpeedSqr@AbstractCar@@IAEXXZ 1001b670 f i mycar.obj
 0001:0001a6f0       ??0NeuralLayer@@QAE@HHH@Z  1001b6f0 f   NeuralLayer.obj
 0001:0001a8d0       ??1NeuralLayer@@UAE@XZ     1001b8d0 f   NeuralLayer.obj
 0001:0001a900       ?Propagate@NeuralLayer@@QAEXABHAAV1@@Z 1001b900 f   NeuralLayer.obj
 0001:0001aae0       ?BackPropagate@NeuralLayer@@QAEXABHAAV1@@Z 1001bae0 f   NeuralLayer.obj
 0001:0001ad10       ?AdjustWeights@NeuralLayer@@QAEXAAV1@ABM1@Z 1001bd10 f   NeuralLayer.obj
 0001:0001ae80       ?SetInput@NeuralLayer@@QAEXAAV?$vector@MV?$allocator@M@std@@@std@@@Z 1001be80 f   NeuralLayer.obj
 0001:0001af00       ?GetOutput@NeuralLayer@@QAEXAAV?$vector@MV?$allocator@M@std@@@std@@@Z 1001bf00 f   NeuralLayer.obj
 0001:0001af80       ?CalculateError@NeuralLayer@@QAEMHAAV?$vector@MV?$allocator@M@std@@@std@@@Z 1001bf80 f   NeuralLayer.obj
 0001:0001b180       ?ActLogistic@NeuralLayer@@QAEMABM@Z 1001c180 f   NeuralLayer.obj
 0001:0001b200       ?ActStep@NeuralLayer@@QAEMM@Z 1001c200 f   NeuralLayer.obj
 0001:0001b250       ?ActTanh@NeuralLayer@@QAEMM@Z 1001c250 f   NeuralLayer.obj
 0001:0001b290       ?ActBipolarSigmoid@NeuralLayer@@QAEMABM@Z 1001c290 f   NeuralLayer.obj
 0001:0001b310       ?DerLogistic@NeuralLayer@@QAEMABM@Z 1001c310 f   NeuralLayer.obj
 0001:0001b360       ?DerTanh@NeuralLayer@@QAEMM@Z 1001c360 f   NeuralLayer.obj
 0001:0001b3a0       ?DerBipolarSigmoid@NeuralLayer@@QAEMABM@Z 1001c3a0 f   NeuralLayer.obj
 0001:0001b400       ?Clear@NeuralLayer@@QAEXXZ 1001c400 f   NeuralLayer.obj
 0001:0001b4d0       ??$_Allocate@PAUNeuron@@@std@@YAPAPAUNeuron@@IPAPAU1@@Z 1001c4d0 f i NeuralLayer.obj
 0001:0001b530       ??$_Debug_pointer@PAUNeuron@@@std@@YAXPAPAUNeuron@@PB_WI@Z 1001c530 f i NeuralLayer.obj
 0001:0001b560       ??$_Debug_range2@PAPAUNeuron@@@std@@YAXPAPAUNeuron@@0PB_WIUrandom_access_iterator_tag@0@@Z 1001c560 f i NeuralLayer.obj
 0001:0001b5c0       ??$_Debug_range@PAPAUNeuron@@@std@@YAXPAPAUNeuron@@0PB_WI@Z 1001c5c0 f i NeuralLayer.obj
 0001:0001b610       ??$_Destroy_range@U?$_Wrap_alloc@V?$allocator@PAUNeuron@@@std@@@std@@@std@@YAXPAPAUNeuron@@0AAU?$_Wrap_alloc@V?$allocator@PAUNeuron@@@std@@@0@@Z 1001c610 f i NeuralLayer.obj
 0001:0001b660       ??$_Destroy_range@U?$_Wrap_alloc@V?$allocator@PAUNeuron@@@std@@@std@@@std@@YAXPAPAUNeuron@@0AAU?$_Wrap_alloc@V?$allocator@PAUNeuron@@@std@@@0@U_Scalar_ptr_iterator_tag@0@@Z 1001c660 f i NeuralLayer.obj
 0001:0001b670       ??$_Iter_cat@PAPAUNeuron@@@std@@YA?AUrandom_access_iterator_tag@0@ABQAPAUNeuron@@@Z 1001c670 f i NeuralLayer.obj
 0001:0001b6d0       ??$_Ptr_cat@PAUNeuron@@PAU1@@std@@YA?AU_Scalar_ptr_iterator_tag@0@PAPAUNeuron@@0@Z 1001c6d0 f i NeuralLayer.obj
 0001:0001b720       ??$_Umove@PAPAUNeuron@@@?$vector@PAUNeuron@@V?$allocator@PAUNeuron@@@std@@@std@@IAEPAPAUNeuron@@PAPAU2@00@Z 1001c720 f i NeuralLayer.obj
 0001:0001b7a0       ??$_Uninit_move@PAUNeuron@@PAU1@PAU1@@std@@YAPAPAUNeuron@@PAPAU1@00AAU?$_Wrap_alloc@V?$allocator@PAUNeuron@@@std@@@0@0U_Scalar_ptr_iterator_tag@0@@Z 1001c7a0 f i NeuralLayer.obj
 0001:0001b820       ??$_Uninitialized_move@PAPAUNeuron@@PAPAU1@U?$_Wrap_alloc@V?$allocator@PAUNeuron@@@std@@@std@@@std@@YAPAPAUNeuron@@PAPAU1@00AAU?$_Wrap_alloc@V?$allocator@PAUNeuron@@@std@@@0@@Z 1001c820 f i NeuralLayer.obj
 0001:0001b880       ??$_Val_type@PAPAUNeuron@@@std@@YAPAPAUNeuron@@PAPAU1@@Z 1001c880 f i NeuralLayer.obj
 0001:0001b890       ??$addressof@M@std@@YAPAMAAM@Z 1001c890 f i NeuralLayer.obj
 0001:0001b8a0       ??$addressof@QAUNeuron@@@std@@YAPBQAUNeuron@@ABQAU1@@Z 1001c8a0 f i NeuralLayer.obj
 0001:0001b8b0       ??$construct@MM@?$_Wrap_alloc@V?$allocator@M@std@@@std@@QAEXPAM$$QAM@Z 1001c8b0 f i NeuralLayer.obj
 0001:0001b8f0       ??$construct@MM@?$allocator@M@std@@QAEXPAM$$QAM@Z 1001c8f0 f i NeuralLayer.obj
 0001:0001b9a0       ??$construct@MM@?$allocator_traits@V?$allocator@M@std@@@std@@SAXAAV?$allocator@M@1@PAM$$QAM@Z 1001c9a0 f i NeuralLayer.obj
 0001:0001b9d0       ??$construct@PAUNeuron@@AAPAU1@@?$_Wrap_alloc@V?$allocator@PAUNeuron@@@std@@@std@@QAEXPAPAUNeuron@@AAPAU2@@Z 1001c9d0 f i NeuralLayer.obj
 0001:0001ba10       ??$construct@PAUNeuron@@AAPAU1@@?$allocator@PAUNeuron@@@std@@QAEXPAPAUNeuron@@AAPAU2@@Z 1001ca10 f i NeuralLayer.obj
 0001:0001bac0       ??$construct@PAUNeuron@@AAPAU1@@?$allocator_traits@V?$allocator@PAUNeuron@@@std@@@std@@SAXAAV?$allocator@PAUNeuron@@@1@PAPAUNeuron@@AAPAU3@@Z 1001cac0 f i NeuralLayer.obj
 0001:0001baf0       ??$construct@PAUNeuron@@ABQAU1@@?$_Wrap_alloc@V?$allocator@PAUNeuron@@@std@@@std@@QAEXPAPAUNeuron@@ABQAU2@@Z 1001caf0 f i NeuralLayer.obj
 0001:0001bb30       ??$construct@PAUNeuron@@ABQAU1@@?$allocator_traits@V?$allocator@PAUNeuron@@@std@@@std@@SAXAAV?$allocator@PAUNeuron@@@1@PAPAUNeuron@@ABQAU3@@Z 1001cb30 f i NeuralLayer.obj
 0001:0001bb60       ??$forward@AAPAUNeuron@@@std@@YAAAPAUNeuron@@AAPAU1@@Z 1001cb60 f i NeuralLayer.obj
 0001:0001bb70       ??$forward@ABQAUNeuron@@@std@@YAABQAUNeuron@@ABQAU1@@Z 1001cb70 f i NeuralLayer.obj
 0001:0001bb80       ??$forward@M@std@@YA$$QAMAAM@Z 1001cb80 f i NeuralLayer.obj
 0001:0001bb90       ??0?$_Vector_alloc@$0A@U?$_Vec_base_types@PAUNeuron@@V?$allocator@PAUNeuron@@@std@@@std@@@std@@QAE@ABV?$allocator@PAUNeuron@@@1@@Z 1001cb90 f i NeuralLayer.obj
 0001:0001bc00       ??0?$_Vector_val@U?$_Simple_types@PAUNeuron@@@std@@@std@@QAE@XZ 1001cc00 f i NeuralLayer.obj
 0001:0001bc50       ??0?$_Wrap_alloc@V?$allocator@PAUNeuron@@@std@@@std@@QAE@XZ 1001cc50 f i NeuralLayer.obj
 0001:0001bc80       ??0?$allocator@PAUNeuron@@@std@@QAE@XZ 1001cc80 f i NeuralLayer.obj
 0001:0001bca0       ??0?$vector@PAUNeuron@@V?$allocator@PAUNeuron@@@std@@@std@@QAE@XZ 1001cca0 f i NeuralLayer.obj
 0001:0001bce0       ??0Neuron@@QAE@XZ          1001cce0 f i NeuralLayer.obj
 0001:0001bd60       ??1?$_Vector_alloc@$0A@U?$_Vec_base_types@PAUNeuron@@V?$allocator@PAUNeuron@@@std@@@std@@@std@@QAE@XZ 1001cd60 f i NeuralLayer.obj
 0001:0001bd90       ??1?$_Vector_val@U?$_Simple_types@PAUNeuron@@@std@@@std@@QAE@XZ 1001cd90 f i NeuralLayer.obj
 0001:0001bdc0       ??1?$vector@PAUNeuron@@V?$allocator@PAUNeuron@@@std@@@std@@QAE@XZ 1001cdc0 f i NeuralLayer.obj
 0001:0001bdf0       ??1Neuron@@UAE@XZ          1001cdf0 f i NeuralLayer.obj
 0001:0001be30       ??A?$vector@PAUNeuron@@V?$allocator@PAUNeuron@@@std@@@std@@QAEAAPAUNeuron@@I@Z 1001ce30 f i NeuralLayer.obj
 0001:0001bed0       ??_ENeuralLayer@@UAEPAXI@Z 1001ced0 f i NeuralLayer.obj
 0001:0001bed0       ??_GNeuralLayer@@UAEPAXI@Z 1001ced0 f i NeuralLayer.obj
 0001:0001bf10       ??_GNeuron@@UAEPAXI@Z      1001cf10 f i NeuralLayer.obj
 0001:0001bf10       ??_ENeuron@@UAEPAXI@Z      1001cf10 f i NeuralLayer.obj
 0001:0001bf50       ?_Alloc_proxy@?$_Vector_alloc@$0A@U?$_Vec_base_types@PAUNeuron@@V?$allocator@PAUNeuron@@@std@@@std@@@std@@QAEXXZ 1001cf50 f i NeuralLayer.obj
 0001:0001bff0       ?_Destroy@?$vector@PAUNeuron@@V?$allocator@PAUNeuron@@@std@@@std@@IAEXPAPAUNeuron@@0@Z 1001cff0 f i NeuralLayer.obj
 0001:0001c070       ?_Free_proxy@?$_Vector_alloc@$0A@U?$_Vec_base_types@PAUNeuron@@V?$allocator@PAUNeuron@@@std@@@std@@@std@@QAEXXZ 1001d070 f i NeuralLayer.obj
 0001:0001c100       ?_Getal@?$_Vector_alloc@$0A@U?$_Vec_base_types@PAUNeuron@@V?$allocator@PAUNeuron@@@std@@@std@@@std@@QBE?AU?$_Wrap_alloc@V?$allocator@PAUNeuron@@@std@@@2@XZ 1001d100 f i NeuralLayer.obj
 0001:0001c130       ?_Grow_to@?$vector@PAUNeuron@@V?$allocator@PAUNeuron@@@std@@@std@@IBEII@Z 1001d130 f i NeuralLayer.obj
 0001:0001c1b0       ?_Inside@?$vector@PAUNeuron@@V?$allocator@PAUNeuron@@@std@@@std@@IBE_NPBQAUNeuron@@@Z 1001d1b0 f i NeuralLayer.obj
 0001:0001c200       ?_Orphan_range@?$vector@PAUNeuron@@V?$allocator@PAUNeuron@@@std@@@std@@IBEXPAPAUNeuron@@0@Z 1001d200 f i NeuralLayer.obj
 0001:0001c310       ?_Reallocate@?$vector@PAUNeuron@@V?$allocator@PAUNeuron@@@std@@@std@@IAEXI@Z 1001d310 f i NeuralLayer.obj
 0001:0001c470       ?_Reserve@?$vector@PAUNeuron@@V?$allocator@PAUNeuron@@@std@@@std@@IAEXI@Z 1001d470 f i NeuralLayer.obj
 0001:0001c4e0       ?_Tidy@?$vector@PAUNeuron@@V?$allocator@PAUNeuron@@@std@@@std@@IAEXXZ 1001d4e0 f i NeuralLayer.obj
 0001:0001c580       ?_Unused_capacity@?$vector@PAUNeuron@@V?$allocator@PAUNeuron@@@std@@@std@@QBEIXZ 1001d580 f i NeuralLayer.obj
 0001:0001c5b0       ?_Xlen@?$vector@PAUNeuron@@V?$allocator@PAUNeuron@@@std@@@std@@IBEXXZ 1001d5b0 f i NeuralLayer.obj
 0001:0001c5e0       ?allocate@?$_Wrap_alloc@V?$allocator@PAUNeuron@@@std@@@std@@QAEPAPAUNeuron@@I@Z 1001d5e0 f i NeuralLayer.obj
 0001:0001c610       ?allocate@?$allocator@PAUNeuron@@@std@@QAEPAPAUNeuron@@I@Z 1001d610 f i NeuralLayer.obj
 0001:0001c640       ?capacity@?$vector@PAUNeuron@@V?$allocator@PAUNeuron@@@std@@@std@@QBEIXZ 1001d640 f i NeuralLayer.obj
 0001:0001c670       ?clear@?$vector@PAUNeuron@@V?$allocator@PAUNeuron@@@std@@@std@@QAEXXZ 1001d670 f i NeuralLayer.obj
 0001:0001c6c0       ?construct@?$allocator@PAUNeuron@@@std@@QAEXPAPAUNeuron@@ABQAU3@@Z 1001d6c0 f i NeuralLayer.obj
 0001:0001c720       ?deallocate@?$_Wrap_alloc@V?$allocator@PAUNeuron@@@std@@@std@@QAEXPAPAUNeuron@@I@Z 1001d720 f i NeuralLayer.obj
 0001:0001c750       ?deallocate@?$allocator@PAUNeuron@@@std@@QAEXPAPAUNeuron@@I@Z 1001d750 f i NeuralLayer.obj
 0001:0001c780       ?max_size@?$_Wrap_alloc@V?$allocator@PAUNeuron@@@std@@@std@@QBEIXZ 1001d780 f i NeuralLayer.obj
 0001:0001c7b0       ?max_size@?$allocator@PAUNeuron@@@std@@QBEIXZ 1001d7b0 f i NeuralLayer.obj
 0001:0001c7d0       ?max_size@?$allocator_traits@V?$allocator@PAUNeuron@@@std@@@std@@SAIABV?$allocator@PAUNeuron@@@2@@Z 1001d7d0 f i NeuralLayer.obj
 0001:0001c7f0       ?max_size@?$vector@PAUNeuron@@V?$allocator@PAUNeuron@@@std@@@std@@QBEIXZ 1001d7f0 f i NeuralLayer.obj
 0001:0001c830       ?push_back@?$vector@MV?$allocator@M@std@@@std@@QAEX$$QAM@Z 1001d830 f i NeuralLayer.obj
 0001:0001c970       ?push_back@?$vector@PAUNeuron@@V?$allocator@PAUNeuron@@@std@@@std@@QAEXABQAUNeuron@@@Z 1001d970 f i NeuralLayer.obj
 0001:0001caa0       ?size@?$vector@PAUNeuron@@V?$allocator@PAUNeuron@@@std@@@std@@QBEIXZ 1001daa0 f i NeuralLayer.obj
 0001:0001cad0       ?tanh@@YAMM@Z              1001dad0 f i NeuralLayer.obj
 0001:0001caf0       _tanhf                     1001daf0 f i NeuralLayer.obj
 0001:0001cb50       ?AddLayer@NeuralNetwork@@AAEXHHH@Z 1001db50 f   NeuralNetwork.obj
 0001:0001cc10       ??0NeuralNetwork@@QAE@HHHHABV?$basic_string@DU?$char_traits@D@std@@V?$allocator@D@2@@std@@@Z 1001dc10 f   NeuralNetwork.obj
 0001:0001ccd0       ??1NeuralNetwork@@UAE@XZ   1001dcd0 f   NeuralNetwork.obj
 0001:0001cda0       ?Init@NeuralNetwork@@QAEXXZ 1001dda0 f   NeuralNetwork.obj
 0001:0001cf00       ?Train@NeuralNetwork@@QAEXAAV?$vector@MV?$allocator@M@std@@@std@@0@Z 1001df00 f   NeuralNetwork.obj
 0001:0001cf50       ?Use@NeuralNetwork@@QAEXAAV?$vector@MV?$allocator@M@std@@@std@@0@Z 1001df50 f   NeuralNetwork.obj
 0001:0001cfa0       ?Propagate@NeuralNetwork@@QAEXXZ 1001dfa0 f   NeuralNetwork.obj
 0001:0001d080       ?BackPropagate@NeuralNetwork@@QAEXXZ 1001e080 f   NeuralNetwork.obj
 0001:0001d160       ?WriteWeights@NeuralNetwork@@QAEXXZ 1001e160 f   NeuralNetwork.obj
 0001:0001d2f0       ?ReadWeights@NeuralNetwork@@QAEXXZ 1001e2f0 f   NeuralNetwork.obj
 0001:0001d470       ?SetInputs@NeuralNetwork@@QAEXAAV?$vector@MV?$allocator@M@std@@@std@@@Z 1001e470 f   NeuralNetwork.obj
 0001:0001d4a0       ?FindError@NeuralNetwork@@QAEXAAV?$vector@MV?$allocator@M@std@@@std@@@Z 1001e4a0 f   NeuralNetwork.obj
 0001:0001d4e0       ??$_Allocate@VNeuralLayer@@@std@@YAPAVNeuralLayer@@IPAV1@@Z 1001e4e0 f i NeuralNetwork.obj
 0001:0001d540       ??$_Debug_pointer@V?$_Vector_const_iterator@V?$_Vector_val@U?$_Simple_types@PAUNeuron@@@std@@@std@@@std@@@std@@YAXAAV?$_Vector_const_iterator@V?$_Vector_val@U?$_Simple_types@PAUNeuron@@@std@@@std@@@0@PB_WI@Z 1001e540 f i NeuralNetwork.obj
 0001:0001d550       ??$_Debug_pointer@VNeuralLayer@@@std@@YAXPAVNeuralLayer@@PB_WI@Z 1001e550 f i NeuralNetwork.obj
 0001:0001d580       ??$_Debug_range2@PAVNeuralLayer@@@std@@YAXPAVNeuralLayer@@0PB_WIUrandom_access_iterator_tag@0@@Z 1001e580 f i NeuralNetwork.obj
 0001:0001d5e0       ??$_Debug_range2@V?$_Vector_const_iterator@V?$_Vector_val@U?$_Simple_types@PAUNeuron@@@std@@@std@@@std@@@std@@YAXV?$_Vector_const_iterator@V?$_Vector_val@U?$_Simple_types@PAUNeuron@@@std@@@std@@@0@0PB_WIUrandom_access_iterator_tag@0@@Z 1001e5e0 f i NeuralNetwork.obj
 0001:0001d6a0       ??$_Debug_range@PAVNeuralLayer@@@std@@YAXPAVNeuralLayer@@0PB_WI@Z 1001e6a0 f i NeuralNetwork.obj
 0001:0001d6f0       ??$_Debug_range@V?$_Vector_const_iterator@V?$_Vector_val@U?$_Simple_types@PAUNeuron@@@std@@@std@@@std@@@std@@YAXV?$_Vector_const_iterator@V?$_Vector_val@U?$_Simple_types@PAUNeuron@@@std@@@std@@@0@0PB_WI@Z 1001e6f0 f i NeuralNetwork.obj
 0001:0001d7d0       ??$_Destroy_range@U?$_Wrap_alloc@V?$allocator@VNeuralLayer@@@std@@@std@@@std@@YAXPAVNeuralLayer@@0AAU?$_Wrap_alloc@V?$allocator@VNeuralLayer@@@std@@@0@@Z 1001e7d0 f i NeuralNetwork.obj
 0001:0001d820       ??$_Destroy_range@U?$_Wrap_alloc@V?$allocator@VNeuralLayer@@@std@@@std@@@std@@YAXPAVNeuralLayer@@0AAU?$_Wrap_alloc@V?$allocator@VNeuralLayer@@@std@@@0@U_Nonscalar_ptr_iterator_tag@0@@Z 1001e820 f i NeuralNetwork.obj
 0001:0001d850       ??$_Iter_cat@PAVNeuralLayer@@@std@@YA?AUrandom_access_iterator_tag@0@ABQAVNeuralLayer@@@Z 1001e850 f i NeuralNetwork.obj
 0001:0001d8b0       ??$_Iter_cat@V?$_Vector_const_iterator@V?$_Vector_val@U?$_Simple_types@PAUNeuron@@@std@@@std@@@std@@@std@@YA?AUrandom_access_iterator_tag@0@ABV?$_Vector_const_iterator@V?$_Vector_val@U?$_Simple_types@PAUNeuron@@@std@@@std@@@0@@Z 1001e8b0 f i NeuralNetwork.obj
 0001:0001d910       ??$_Ptr_cat@V?$_Vector_const_iterator@V?$_Vector_val@U?$_Simple_types@PAUNeuron@@@std@@@std@@@std@@PAPAUNeuron@@@std@@YA?AU_Nonscalar_ptr_iterator_tag@0@AAV?$_Vector_const_iterator@V?$_Vector_val@U?$_Simple_types@PAUNeuron@@@std@@@std@@@0@AAPAPAUNeuron@@@Z 1001e910 f i NeuralNetwork.obj
 0001:0001d960       ??$_Ptr_cat@VNeuralLayer@@V1@@std@@YA?AU_Nonscalar_ptr_iterator_tag@0@PAVNeuralLayer@@0@Z 1001e960 f i NeuralNetwork.obj
 0001:0001d9b0       ??$_Ucopy@V?$_Vector_const_iterator@V?$_Vector_val@U?$_Simple_types@PAUNeuron@@@std@@@std@@@std@@@?$vector@PAUNeuron@@V?$allocator@PAUNeuron@@@std@@@std@@IAEPAPAUNeuron@@V?$_Vector_const_iterator@V?$_Vector_val@U?$_Simple_types@PAUNeuron@@@std@@@std@@@1@0PAPAU2@@Z 1001e9b0 f i NeuralNetwork.obj
 0001:0001dac0       ??$_Umove@PAVNeuralLayer@@@?$vector@VNeuralLayer@@V?$allocator@VNeuralLayer@@@std@@@std@@IAEPAVNeuralLayer@@PAV2@00@Z 1001eac0 f i NeuralNetwork.obj
 0001:0001db40       ??$_Uninit_copy@V?$_Vector_const_iterator@V?$_Vector_val@U?$_Simple_types@PAUNeuron@@@std@@@std@@@std@@PAPAUNeuron@@V?$allocator@PAUNeuron@@@2@@std@@YAPAPAUNeuron@@V?$_Vector_const_iterator@V?$_Vector_val@U?$_Simple_types@PAUNeuron@@@std@@@std@@@0@0PAPAU1@AAU?$_Wrap_alloc@V?$allocator@PAUNeuron@@@std@@@0@U_Nonscalar_ptr_iterator_tag@0@@Z 1001eb40 f i NeuralNetwork.obj
 0001:0001dcd0       ??$_Uninit_move@PAVNeuralLayer@@PAV1@V?$allocator@VNeuralLayer@@@std@@V1@@std@@YAPAVNeuralLayer@@PAV1@00AAU?$_Wrap_alloc@V?$allocator@VNeuralLayer@@@std@@@0@0U_Nonscalar_ptr_iterator_tag@0@@Z 1001ecd0 f i NeuralNetwork.obj
 0001:0001ddd0       ??$_Uninitialized_copy@V?$_Vector_const_iterator@V?$_Vector_val@U?$_Simple_types@PAUNeuron@@@std@@@std@@@std@@PAPAUNeuron@@U?$_Wrap_alloc@V?$allocator@PAUNeuron@@@std@@@2@@std@@YAPAPAUNeuron@@V?$_Vector_const_iterator@V?$_Vector_val@U?$_Simple_types@PAUNeuron@@@std@@@std@@@0@0PAPAU1@AAU?$_Wrap_alloc@V?$allocator@PAUNeuron@@@std@@@0@@Z 1001edd0 f i NeuralNetwork.obj
 0001:0001dec0       ??$_Uninitialized_move@PAVNeuralLayer@@PAV1@U?$_Wrap_alloc@V?$allocator@VNeuralLayer@@@std@@@std@@@std@@YAPAVNeuralLayer@@PAV1@00AAU?$_Wrap_alloc@V?$allocator@VNeuralLayer@@@std@@@0@@Z 1001eec0 f i NeuralNetwork.obj
 0001:0001df20       ??$_Val_type@PAVNeuralLayer@@@std@@YAPAVNeuralLayer@@PAV1@@Z 1001ef20 f i NeuralNetwork.obj
 0001:0001df30       ??$addressof@$$CBVNeuralLayer@@@std@@YAPBVNeuralLayer@@ABV1@@Z 1001ef30 f i NeuralNetwork.obj
 0001:0001df40       ??$construct@VNeuralLayer@@AAV1@@?$_Wrap_alloc@V?$allocator@VNeuralLayer@@@std@@@std@@QAEXPAVNeuralLayer@@AAV2@@Z 1001ef40 f i NeuralNetwork.obj
 0001:0001df80       ??$construct@VNeuralLayer@@AAV1@@?$allocator@VNeuralLayer@@@std@@QAEXPAVNeuralLayer@@AAV2@@Z 1001ef80 f i NeuralNetwork.obj
 0001:0001e020       ??$construct@VNeuralLayer@@AAV1@@?$allocator_traits@V?$allocator@VNeuralLayer@@@std@@@std@@SAXAAV?$allocator@VNeuralLayer@@@1@PAVNeuralLayer@@AAV3@@Z 1001f020 f i NeuralNetwork.obj
 0001:0001e050       ??$construct@VNeuralLayer@@ABV1@@?$_Wrap_alloc@V?$allocator@VNeuralLayer@@@std@@@std@@QAEXPAVNeuralLayer@@ABV2@@Z 1001f050 f i NeuralNetwork.obj
 0001:0001e090       ??$construct@VNeuralLayer@@ABV1@@?$allocator_traits@V?$allocator@VNeuralLayer@@@std@@@std@@SAXAAV?$allocator@VNeuralLayer@@@1@PAVNeuralLayer@@ABV3@@Z 1001f090 f i NeuralNetwork.obj
 0001:0001e0c0       ??$construct@VNeuralLayer@@V1@@?$_Wrap_alloc@V?$allocator@VNeuralLayer@@@std@@@std@@QAEXPAVNeuralLayer@@$$QAV2@@Z 1001f0c0 f i NeuralNetwork.obj
 0001:0001e100       ??$construct@VNeuralLayer@@V1@@?$allocator@VNeuralLayer@@@std@@QAEXPAVNeuralLayer@@$$QAV2@@Z 1001f100 f i NeuralNetwork.obj
 0001:0001e1a0       ??$construct@VNeuralLayer@@V1@@?$allocator_traits@V?$allocator@VNeuralLayer@@@std@@@std@@SAXAAV?$allocator@VNeuralLayer@@@1@PAVNeuralLayer@@$$QAV3@@Z 1001f1a0 f i NeuralNetwork.obj
 0001:0001e1d0       ??$destroy@PAUNeuron@@@?$_Wrap_alloc@V?$allocator@PAUNeuron@@@std@@@std@@QAEXPAPAUNeuron@@@Z 1001f1d0 f i NeuralNetwork.obj
 0001:0001e200       ??$destroy@PAUNeuron@@@?$allocator@PAUNeuron@@@std@@QAEXPAPAUNeuron@@@Z 1001f200 f i NeuralNetwork.obj
 0001:0001e220       ??$destroy@PAUNeuron@@@?$allocator_traits@V?$allocator@PAUNeuron@@@std@@@std@@SAXAAV?$allocator@PAUNeuron@@@1@PAPAUNeuron@@@Z 1001f220 f i NeuralNetwork.obj
 0001:0001e240       ??$destroy@VNeuralLayer@@@?$_Wrap_alloc@V?$allocator@VNeuralLayer@@@std@@@std@@QAEXPAVNeuralLayer@@@Z 1001f240 f i NeuralNetwork.obj
 0001:0001e270       ??$destroy@VNeuralLayer@@@?$allocator@VNeuralLayer@@@std@@QAEXPAVNeuralLayer@@@Z 1001f270 f i NeuralNetwork.obj
 0001:0001e2b0       ??$destroy@VNeuralLayer@@@?$allocator_traits@V?$allocator@VNeuralLayer@@@std@@@std@@SAXAAV?$allocator@VNeuralLayer@@@1@PAVNeuralLayer@@@Z 1001f2b0 f i NeuralNetwork.obj
 0001:0001e2d0       ??$forward@AAVNeuralLayer@@@std@@YAAAVNeuralLayer@@AAV1@@Z 1001f2d0 f i NeuralNetwork.obj
 0001:0001e2e0       ??$forward@ABVNeuralLayer@@@std@@YAABVNeuralLayer@@ABV1@@Z 1001f2e0 f i NeuralNetwork.obj
 0001:0001e2f0       ??$forward@VNeuralLayer@@@std@@YA$$QAVNeuralLayer@@AAV1@@Z 1001f2f0 f i NeuralNetwork.obj
 0001:0001e300       ??0?$_Iterator012@Urandom_access_iterator_tag@std@@PAUNeuron@@HPBQAU3@ABQAU3@U_Iterator_base12@2@@std@@QAE@ABU01@@Z 1001f300 f i NeuralNetwork.obj
 0001:0001e330       ??0?$_Iterator012@Urandom_access_iterator_tag@std@@PAUNeuron@@HPBQAU3@ABQAU3@U_Iterator_base12@2@@std@@QAE@XZ 1001f330 f i NeuralNetwork.obj
 0001:0001e360       ??0?$_Vector_alloc@$0A@U?$_Vec_base_types@VNeuralLayer@@V?$allocator@VNeuralLayer@@@std@@@std@@@std@@QAE@ABV?$allocator@VNeuralLayer@@@1@@Z 1001f360 f i NeuralNetwork.obj
 0001:0001e3d0       ??0?$_Vector_const_iterator@V?$_Vector_val@U?$_Simple_types@PAUNeuron@@@std@@@std@@@std@@QAE@ABV01@@Z 1001f3d0 f i NeuralNetwork.obj
 0001:0001e410       ??0?$_Vector_const_iterator@V?$_Vector_val@U?$_Simple_types@PAUNeuron@@@std@@@std@@@std@@QAE@PAPAUNeuron@@PBU_Container_base12@1@@Z 1001f410 f i NeuralNetwork.obj
 0001:0001e490       ??0?$_Vector_val@U?$_Simple_types@VNeuralLayer@@@std@@@std@@QAE@XZ 1001f490 f i NeuralNetwork.obj
 0001:0001e4e0       ??0?$_Wrap_alloc@V?$allocator@PAUNeuron@@@std@@@std@@QAE@ABV?$allocator@PAUNeuron@@@1@@Z 1001f4e0 f i NeuralNetwork.obj
 0001:0001e510       ??0?$_Wrap_alloc@V?$allocator@VNeuralLayer@@@std@@@std@@QAE@XZ 1001f510 f i NeuralNetwork.obj
 0001:0001e540       ??0?$allocator@PAUNeuron@@@std@@QAE@ABV01@@Z 1001f540 f i NeuralNetwork.obj
 0001:0001e560       ??0?$allocator@VNeuralLayer@@@std@@QAE@XZ 1001f560 f i NeuralNetwork.obj
 0001:0001e580       ??0?$vector@PAUNeuron@@V?$allocator@PAUNeuron@@@std@@@std@@QAE@ABV01@@Z 1001f580 f i NeuralNetwork.obj
 0001:0001e6a0       ??0?$vector@VNeuralLayer@@V?$allocator@VNeuralLayer@@@std@@@std@@QAE@XZ 1001f6a0 f i NeuralNetwork.obj
 0001:0001e6e0       ??0NeuralLayer@@QAE@ABV0@@Z 1001f6e0 f i NeuralNetwork.obj
 0001:0001e740       ??1?$_Iterator012@Urandom_access_iterator_tag@std@@PAUNeuron@@HPBQAU3@ABQAU3@U_Iterator_base12@2@@std@@QAE@XZ 1001f740 f i NeuralNetwork.obj
 0001:0001e770       ??1?$_Vector_alloc@$0A@U?$_Vec_base_types@VNeuralLayer@@V?$allocator@VNeuralLayer@@@std@@@std@@@std@@QAE@XZ 1001f770 f i NeuralNetwork.obj
 0001:0001e7a0       ??1?$_Vector_const_iterator@V?$_Vector_val@U?$_Simple_types@PAUNeuron@@@std@@@std@@@std@@QAE@XZ 1001f7a0 f i NeuralNetwork.obj
 0001:0001e7d0       ??1?$_Vector_val@U?$_Simple_types@VNeuralLayer@@@std@@@std@@QAE@XZ 1001f7d0 f i NeuralNetwork.obj
 0001:0001e800       ??1?$vector@VNeuralLayer@@V?$allocator@VNeuralLayer@@@std@@@std@@QAE@XZ 1001f800 f i NeuralNetwork.obj
 0001:0001e830       ??8?$_Vector_const_iterator@V?$_Vector_val@U?$_Simple_types@PAUNeuron@@@std@@@std@@@std@@QBE_NABV01@@Z 1001f830 f i NeuralNetwork.obj
 0001:0001e890       ??9?$_Vector_const_iterator@V?$_Vector_val@U?$_Simple_types@PAUNeuron@@@std@@@std@@@std@@QBE_NABV01@@Z 1001f890 f i NeuralNetwork.obj
 0001:0001e8e0       ??A?$vector@VNeuralLayer@@V?$allocator@VNeuralLayer@@@std@@@std@@QAEAAVNeuralLayer@@I@Z 1001f8e0 f i NeuralNetwork.obj
 0001:0001e980       ??D?$_Vector_const_iterator@V?$_Vector_val@U?$_Simple_types@PAUNeuron@@@std@@@std@@@std@@QBEABQAUNeuron@@XZ 1001f980 f i NeuralNetwork.obj
 0001:0001ea40       ??E?$_Vector_const_iterator@V?$_Vector_val@U?$_Simple_types@PAUNeuron@@@std@@@std@@@std@@QAEAAV01@XZ 1001fa40 f i NeuralNetwork.obj
 0001:0001eb00       ??M?$_Vector_const_iterator@V?$_Vector_val@U?$_Simple_types@PAUNeuron@@@std@@@std@@@std@@QBE_NABV01@@Z 1001fb00 f i NeuralNetwork.obj
 0001:0001eb60       ??_ENeuralNetwork@@UAEPAXI@Z 1001fb60 f i NeuralNetwork.obj
 0001:0001eb60       ??_GNeuralNetwork@@UAEPAXI@Z 1001fb60 f i NeuralNetwork.obj
 0001:0001eba0       ?_Alloc_proxy@?$_Vector_alloc@$0A@U?$_Vec_base_types@VNeuralLayer@@V?$allocator@VNeuralLayer@@@std@@@std@@@std@@QAEXXZ 1001fba0 f i NeuralNetwork.obj
 0001:0001ec40       ?_Buy@?$vector@PAUNeuron@@V?$allocator@PAUNeuron@@@std@@@std@@IAE_NI@Z 1001fc40 f i NeuralNetwork.obj
 0001:0001ecf0       ?_Compat@?$_Vector_const_iterator@V?$_Vector_val@U?$_Simple_types@PAUNeuron@@@std@@@std@@@std@@QBEXABV12@@Z 1001fcf0 f i NeuralNetwork.obj
 0001:0001eda0       ?_Destroy@?$vector@VNeuralLayer@@V?$allocator@VNeuralLayer@@@std@@@std@@IAEXPAVNeuralLayer@@0@Z 1001fda0 f i NeuralNetwork.obj
 0001:0001ee20       ?_Free_proxy@?$_Vector_alloc@$0A@U?$_Vec_base_types@VNeuralLayer@@V?$allocator@VNeuralLayer@@@std@@@std@@@std@@QAEXXZ 1001fe20 f i NeuralNetwork.obj
 0001:0001eeb0       ?_Getal@?$_Vector_alloc@$0A@U?$_Vec_base_types@VNeuralLayer@@V?$allocator@VNeuralLayer@@@std@@@std@@@std@@QBE?AU?$_Wrap_alloc@V?$allocator@VNeuralLayer@@@std@@@2@XZ 1001feb0 f i NeuralNetwork.obj
 0001:0001eee0       ?_Grow_to@?$vector@VNeuralLayer@@V?$allocator@VNeuralLayer@@@std@@@std@@IBEII@Z 1001fee0 f i NeuralNetwork.obj
 0001:0001ef60       ?_Inside@?$vector@VNeuralLayer@@V?$allocator@VNeuralLayer@@@std@@@std@@IBE_NPBVNeuralLayer@@@Z 1001ff60 f i NeuralNetwork.obj
 0001:0001efb0       ?_Orphan_range@?$vector@VNeuralLayer@@V?$allocator@VNeuralLayer@@@std@@@std@@IBEXPAVNeuralLayer@@0@Z 1001ffb0 f i NeuralNetwork.obj
 0001:0001f0c0       ?_Reallocate@?$vector@VNeuralLayer@@V?$allocator@VNeuralLayer@@@std@@@std@@IAEXI@Z 100200c0 f i NeuralNetwork.obj
 0001:0001f220       ?_Reserve@?$vector@VNeuralLayer@@V?$allocator@VNeuralLayer@@@std@@@std@@IAEXI@Z 10020220 f i NeuralNetwork.obj
 0001:0001f290       ?_Tidy@?$vector@VNeuralLayer@@V?$allocator@VNeuralLayer@@@std@@@std@@IAEXXZ 10020290 f i NeuralNetwork.obj
 0001:0001f330       ?_Unused_capacity@?$vector@VNeuralLayer@@V?$allocator@VNeuralLayer@@@std@@@std@@QBEIXZ 10020330 f i NeuralNetwork.obj
 0001:0001f360       ?_Xlen@?$vector@VNeuralLayer@@V?$allocator@VNeuralLayer@@@std@@@std@@IBEXXZ 10020360 f i NeuralNetwork.obj
 0001:0001f390       ?allocate@?$_Wrap_alloc@V?$allocator@VNeuralLayer@@@std@@@std@@QAEPAVNeuralLayer@@I@Z 10020390 f i NeuralNetwork.obj
 0001:0001f3c0       ?allocate@?$allocator@VNeuralLayer@@@std@@QAEPAVNeuralLayer@@I@Z 100203c0 f i NeuralNetwork.obj
 0001:0001f3f0       ?begin@?$vector@PAUNeuron@@V?$allocator@PAUNeuron@@@std@@@std@@QBE?AV?$_Vector_const_iterator@V?$_Vector_val@U?$_Simple_types@PAUNeuron@@@std@@@std@@@2@XZ 100203f0 f i NeuralNetwork.obj
 0001:0001f430       ?capacity@?$vector@VNeuralLayer@@V?$allocator@VNeuralLayer@@@std@@@std@@QBEIXZ 10020430 f i NeuralNetwork.obj
 0001:0001f460       ?clear@?$vector@VNeuralLayer@@V?$allocator@VNeuralLayer@@@std@@@std@@QAEXXZ 10020460 f i NeuralNetwork.obj
 0001:0001f4b0       ?construct@?$allocator@VNeuralLayer@@@std@@QAEXPAVNeuralLayer@@ABV3@@Z 100204b0 f i NeuralNetwork.obj
 0001:0001f550       ?deallocate@?$_Wrap_alloc@V?$allocator@VNeuralLayer@@@std@@@std@@QAEXPAVNeuralLayer@@I@Z 10020550 f i NeuralNetwork.obj
 0001:0001f580       ?deallocate@?$allocator@VNeuralLayer@@@std@@QAEXPAVNeuralLayer@@I@Z 10020580 f i NeuralNetwork.obj
 0001:0001f5b0       ?end@?$vector@PAUNeuron@@V?$allocator@PAUNeuron@@@std@@@std@@QBE?AV?$_Vector_const_iterator@V?$_Vector_val@U?$_Simple_types@PAUNeuron@@@std@@@std@@@2@XZ 100205b0 f i NeuralNetwork.obj
 0001:0001f5f0       ?max_size@?$_Wrap_alloc@V?$allocator@VNeuralLayer@@@std@@@std@@QBEIXZ 100205f0 f i NeuralNetwork.obj
 0001:0001f620       ?max_size@?$allocator@VNeuralLayer@@@std@@QBEIXZ 10020620 f i NeuralNetwork.obj
 0001:0001f640       ?max_size@?$allocator_traits@V?$allocator@VNeuralLayer@@@std@@@std@@SAIABV?$allocator@VNeuralLayer@@@2@@Z 10020640 f i NeuralNetwork.obj
 0001:0001f660       ?max_size@?$vector@VNeuralLayer@@V?$allocator@VNeuralLayer@@@std@@@std@@QBEIXZ 10020660 f i NeuralNetwork.obj
 0001:0001f6a0       ?push_back@?$vector@VNeuralLayer@@V?$allocator@VNeuralLayer@@@std@@@std@@QAEXABVNeuralLayer@@@Z 100206a0 f i NeuralNetwork.obj
 0001:0001f7d0       ?select_on_container_copy_construction@?$_Wrap_alloc@V?$allocator@PAUNeuron@@@std@@@std@@QBE?AU12@XZ 100207d0 f i NeuralNetwork.obj
 0001:0001f820       ?select_on_container_copy_construction@?$allocator@PAUNeuron@@@std@@QBE?AV12@XZ 10020820 f i NeuralNetwork.obj
 0001:0001f850       ?select_on_container_copy_construction@?$allocator_traits@V?$allocator@PAUNeuron@@@std@@@std@@SA?AV?$allocator@PAUNeuron@@@2@ABV32@@Z 10020850 f i NeuralNetwork.obj
 0001:0001f870       ?size@?$vector@VNeuralLayer@@V?$allocator@VNeuralLayer@@@std@@@std@@QBEIXZ 10020870 f i NeuralNetwork.obj
 0001:0001f8a0       ??0Opponent@@QAE@XZ        100208a0 f   opponent.obj
 0001:0001f8c0       ?update@Opponent@@QAEXPAUSituation@@PAVDriver@@@Z 100208c0 f   opponent.obj
 0001:00020000       ?getDistToSegStart@Opponent@@AAEMXZ 10021000 f   opponent.obj
 0001:00020070       ?updateOverlapTimer@Opponent@@AAEXPAUSituation@@PAUCarElt@@@Z 10021070 f   opponent.obj
 0001:000201b0       ??0Opponents@@QAE@PAUSituation@@PAVDriver@@PAVCardata@@@Z 100211b0 f   opponent.obj
 0001:00020330       ??1Opponents@@QAE@XZ       10021330 f   opponent.obj
 0001:00020370       ?update@Opponents@@QAEXPAUSituation@@PAVDriver@@@Z 10021370 f   opponent.obj
 0001:000203d0       ?setTeamMate@Opponents@@QAEXPBD@Z 100213d0 f   opponent.obj
 0001:00020450       ??0?$straight2t@M@@QAE@MMMM@Z 10021450 f i opponent.obj
 0001:000204d0       ??_H@YGXPAXIHP6EPAX0@Z@Z   100214d0 f i opponent.obj
 0001:00020510       ?dist@?$straight2t@M@@QBEMABV?$v2t@M@@@Z 10021510 f i opponent.obj
 0001:000205c0       ?getCarPtr@Driver@@QAEPAUCarElt@@XZ 100215c0 f i opponent.obj
 0001:000205e0       ?getSpeed@Driver@@QAEMXZ   100215e0 f i opponent.obj
 0001:00020610       ?getTrackPtr@Driver@@QAEPAUtTrack@@XZ 10021610 f i opponent.obj
 0001:00020630       ?markAsTeamMate@Opponent@@QAEXXZ 10021630 f i opponent.obj
 0001:00020650       ?setCarDataPtr@Opponent@@QAEXPAVSingleCardata@@@Z 10021650 f i opponent.obj
 0001:00020670       ?setCarPtr@Opponent@@QAEXPAUCarElt@@@Z 10021670 f i opponent.obj
 0001:00020690       ?setTrackPtr@Opponent@@SAXPAUtTrack@@@Z 10021690 f i opponent.obj
 0001:000206a0       ??0Pathfinder@@QAE@PAVTrackDesc@@PAUCarElt@@PAUSituation@@@Z 100216a0 f   pathfinder.obj
 0001:00020a50       ??1Pathfinder@@QAE@XZ      10021a50 f   pathfinder.obj
 0001:00020af0       ?plan@Pathfinder@@QAEXHPAUCarElt@@PAUSituation@@PAVMyCar@@PAVOtherCar@@@Z 10021af0 f   pathfinder.obj
 0001:00021640       ?plan@Pathfinder@@QAEXPAVMyCar@@@Z 10022640 f   pathfinder.obj
 0001:00021b70       ?initPit@Pathfinder@@QAEXPAUCarElt@@@Z 10022b70 f   pathfinder.obj
 0001:00022030       ?plotPitStopPath@Pathfinder@@QAEXPAD@Z 10023030 f   pathfinder.obj
 0001:00022100       ?plotPath@Pathfinder@@QAEXPAD@Z 10023100 f   pathfinder.obj
 0001:000221d0       ?initPitStopPath@Pathfinder@@AAEXXZ 100231d0 f   pathfinder.obj
 0001:000228d0       ?collision@Pathfinder@@AAEHHPAUCarElt@@PAUSituation@@PAVMyCar@@PAVOtherCar@@@Z 100238d0 f   pathfinder.obj
 0001:00022e10       ?overtake@Pathfinder@@AAEHHPAUSituation@@PAVMyCar@@PAVOtherCar@@@Z 10023e10 f   pathfinder.obj
 0001:00023fb0       ?stepInterpolate@Pathfinder@@AAEXHHH@Z 10024fb0 f   pathfinder.obj
 0001:00024220       ?interpolate@Pathfinder@@AAEXH@Z 10025220 f   pathfinder.obj
 0001:000242b0       ?smooth@Pathfinder@@AAEXH@Z 100252b0 f   pathfinder.obj
 0001:000245d0       ?correctPath@Pathfinder@@AAEHHPAUCarElt@@PAVMyCar@@@Z 100255d0 f   pathfinder.obj
 0001:00024f70       ?smooth@Pathfinder@@AAEXHHHN@Z 10025f70 f   pathfinder.obj
 0001:00025110       ?smooth@Pathfinder@@AAEXHNN@Z 10026110 f   pathfinder.obj
 0001:00025840       ?optimize@Pathfinder@@AAEXHHN@Z 10026840 f   pathfinder.obj
 0001:000258f0       ?optimize2@Pathfinder@@AAEXHHN@Z 100268f0 f   pathfinder.obj
 0001:000259d0       ?optimize3@Pathfinder@@AAEXHHN@Z 100269d0 f   pathfinder.obj
 0001:00025ab0       ?letoverlap@Pathfinder@@AAEHHPAUSituation@@PAVMyCar@@PAVOtherCar@@PAUtOverlapTimer@@@Z 10026ab0 f   pathfinder.obj
 0001:000262e0       ??0PathSeg@@QAE@XZ         100272e0 f i pathfinder.obj
 0001:00026320       ??0v3d@@QAE@ABV0@@Z        10027320 f i pathfinder.obj
 0001:00026370       ??4v3d@@QAEAAV0@ABV0@@Z    10027370 f i pathfinder.obj
 0001:000263c0       ??D@YA?AVv3d@@NABV0@@Z     100273c0 f i pathfinder.obj
 0001:00026420       ??Dv3d@@QAE?AV0@N@Z        10027420 f i pathfinder.obj
 0001:00026490       ??Hv3d@@QAE?AV0@ABV0@@Z    10027490 f i pathfinder.obj
 0001:00026500       ?adjustRadius@Pathfinder@@AAEXHHHNN@Z 10027500 f i pathfinder.obj
 0001:00026b40       ?countSegments@Pathfinder@@AAEHHH@Z 10027b40 f i pathfinder.obj
 0001:00026b80       ?curvature@Pathfinder@@AAENNNNNNN@Z 10027b80 f i pathfinder.obj
 0001:00026cc0       ?diffSegId@TrackDesc@@QAEHHH@Z 10027cc0 f i pathfinder.obj
 0001:00026d40       ?dirVector2D@TrackDesc@@SAXPAVv3d@@00@Z 10027d40 f i pathfinder.obj
 0001:00026d90       ?dirVector@v3d@@QAEXPBV1@PAV1@@Z 10027d90 f i pathfinder.obj
 0001:00026df0       ?dist@Pathfinder@@QAENPAVv3d@@0@Z 10027df0 f i pathfinder.obj
 0001:00026ec0       ?distGFromPoint@TrackDesc@@QAENPAVv3d@@00@Z 10027ec0 f i pathfinder.obj
 0001:00026f90       ?distToMiddle@TrackDesc@@QAENHPAVv3d@@@Z 10027f90 f i pathfinder.obj
 0001:00027000       ?getCurrentPos@AbstractCar@@QAEPAVv3d@@XZ 10028000 f i pathfinder.obj
 0001:00027020       ?getCurrentSegId@AbstractCar@@QAEHXZ 10028020 f i pathfinder.obj
 0001:00027040       ?getDeltaPitch@MyCar@@QAENXZ 10028040 f i pathfinder.obj
 0001:00027060       ?getDir@AbstractCar@@QAEPAVv3d@@XZ 10028060 f i pathfinder.obj
 0001:00027080       ?getKalpha@TrackSegment@@QAEMXZ 10028080 f i pathfinder.obj
 0001:000270a0       ?getKbeta@TrackSegment@@QAEMXZ 100280a0 f i pathfinder.obj
 0001:000270c0       ?getKfriction@TrackSegment@@QAEMXZ 100280c0 f i pathfinder.obj
 0001:000270e0       ?getLeftBorder@TrackSegment@@QAEPAVv3d@@XZ 100280e0 f i pathfinder.obj
 0001:00027100       ?getMiddle@TrackSegment@@QAEPAVv3d@@XZ 10028100 f i pathfinder.obj
 0001:00027120       ?getOptLoc@PathSeg@@QAEPAVv3d@@XZ 10028120 f i pathfinder.obj
 0001:00027140       ?getPitEntryStartId@TrackDesc@@QAEHXZ 10028140 f i pathfinder.obj
 0001:00027160       ?getPitExitEndId@TrackDesc@@QAEHXZ 10028160 f i pathfinder.obj
 0001:00027180       ?getPitLoc@PathSeg@@QAEPAVv3d@@XZ 10028180 f i pathfinder.obj
 0001:000271a0       ?getPitSpeedSqrLimit@Pathfinder@@QAENXZ 100281a0 f i pathfinder.obj
 0001:000271c0       ?getRadius@TrackSegment@@QAEMXZ 100281c0 f i pathfinder.obj
 0001:000271e0       ?getRightBorder@TrackSegment@@QAEPAVv3d@@XZ 100281e0 f i pathfinder.obj
 0001:00027200       ?getSpeed@AbstractCar@@QAENXZ 10028200 f i pathfinder.obj
 0001:00027220       ?getSpeedSqr@AbstractCar@@QAENXZ 10028220 f i pathfinder.obj
 0001:00027240       ?getSpeedsqr@PathSeg@@QAEMXZ 10028240 f i pathfinder.obj
 0001:00027260       ?getTorcsTrack@TrackDesc@@QAEPAUtTrack@@XZ 10028260 f i pathfinder.obj
 0001:00027280       ?getWidth@TrackSegment@@QAEMXZ 10028280 f i pathfinder.obj
 0001:000272a0       ?isBetween@TrackDesc@@QAE_NHHH@Z 100282a0 f i pathfinder.obj
 0001:00027310       ?isPitAvailable@Pathfinder@@QAE_NXZ 10028310 f i pathfinder.obj
 0001:00027330       ?normalize@v3d@@QAEXXZ     10028330 f i pathfinder.obj
 0001:000273b0       ?pathSlope@Pathfinder@@AAENH@Z 100283b0 f i pathfinder.obj
 0001:000274f0       ?radius@@YANNNNNNN@Z       100284f0 f i pathfinder.obj
 0001:00027640       ?segmentsToPit@Pathfinder@@QAEHH@Z 10028640 f i pathfinder.obj
 0001:000276a0       ?set@PathSeg@@QAEXMMPAVv3d@@@Z 100286a0 f i pathfinder.obj
 0001:000276f0       ?setLoc@PathSeg@@QAEXPAVv3d@@@Z 100286f0 f i pathfinder.obj
 0001:00027720       ?setOptLoc@PathSeg@@QAEXPAVv3d@@@Z 10028720 f i pathfinder.obj
 0001:00027750       ?setPitLoc@PathSeg@@QAEXPAVv3d@@@Z 10028750 f i pathfinder.obj
 0001:00027770       ?setRadius@PathSeg@@QAEXM@Z 10028770 f i pathfinder.obj
 0001:000277a0       ?setSpeedsqr@PathSeg@@QAEXM@Z 100287a0 f i pathfinder.obj
 0001:000277c0       ?setWeight@PathSeg@@QAEXM@Z 100287c0 f i pathfinder.obj
 0001:000277f0       ?sign@@YANN@Z              100287f0 f i pathfinder.obj
 0001:00027840       ?sqr@Pathfinder@@QAENN@Z   10028840 f i pathfinder.obj
 0001:00027880       ?updateOCar@Pathfinder@@AAEHHPAUSituation@@PAVMyCar@@PAVOtherCar@@PAUtOCar@@@Z 10028880 f i pathfinder.obj
 0001:00027f10       ?updateOverlapTimer@Pathfinder@@AAEXHPAUSituation@@PAVMyCar@@PAVOtherCar@@PAUtOCar@@PAUtOverlapTimer@@@Z 10028f10 f i pathfinder.obj
 0001:00028160       ??0Pit@@QAE@PAUSituation@@PAVDriver@@@Z 10029160 f   pit.obj
 0001:00028650       ??1Pit@@QAE@XZ             10029650 f   pit.obj
 0001:000286a0       ?setPitstop@Pit@@QAEX_N@Z  100296a0 f   pit.obj
 0001:00028730       ?getPitOffset@Pit@@QAEMMM@Z 10029730 f   pit.obj
 0001:000287c0       ?isBetween@Pit@@QAE_NM@Z   100297c0 f   pit.obj
 0001:00028840       ?isTimeout@Pit@@QAE_NM@Z   10029840 f   pit.obj
 0001:00028900       ?toSplineCoord@Pit@@QAEMM@Z 10029900 f   pit.obj
 0001:00028950       ?getSpeedLimitBrake@Pit@@QAEMM@Z 10029950 f   pit.obj
 0001:000289a0       ?update@Pit@@QAEXXZ        100299a0 f   pit.obj
 0001:00028a30       ?setInPit@Pit@@QAEX_N@Z    10029a30 f i pit.obj
 0001:00028a50       ?setSingleSensor@SingleSensor@@QAEXMM@Z 10029a50 f   sensors.obj
 0001:00028aa0       ?update@SingleSensor@@QAEXXZ 10029aa0 f   sensors.obj
 0001:00028cd0       ?sensor_calc_str@SingleSensor@@IAEMPAUtrackSeg@@MMMM@Z 10029cd0 f   sensors.obj
 0001:00029990       ?sensor_calc_lft_rgt@SingleSensor@@IAEMPAUtrackSeg@@MMMM@Z 1002a990 f   sensors.obj
 0001:00029e40       ?check_max_circle_intersect@SingleSensor@@IAE_NMMMMMMAAM@Z 1002ae40 f   sensors.obj
 0001:0002a360       ?check_min_circle_intersect@SingleSensor@@IAE_NMMMMMMAAM@Z 1002b360 f   sensors.obj
 0001:0002a620       ?check_up_border_intersect@SingleSensor@@IAE_NMMMMMAAM00@Z 1002b620 f   sensors.obj
 0001:0002a890       ?check_down_border_intersect@SingleSensor@@IAE_NMMMMMAAM00@Z 1002b890 f   sensors.obj
 0001:0002ad50       ??0Sensors@@QAE@XZ         1002bd50 f   sensors.obj
 0001:0002ad70       ??0Sensors@@QAE@PAUCarElt@@H@Z 1002bd70 f   sensors.obj
 0001:0002ae10       ??1Sensors@@QAE@XZ         1002be10 f   sensors.obj
 0001:0002ae50       ?setSensor@Sensors@@QAEXHMM@Z 1002be50 f   sensors.obj
 0001:0002aea0       ?getSensorOut@Sensors@@QAEMH@Z 1002bea0 f   sensors.obj
 0001:0002aed0       ?sensors_update@Sensors@@QAEXXZ 1002bed0 f   sensors.obj
 0001:0002af30       ?acos@@YAMM@Z              1002bf30 f i sensors.obj
 0001:0002af50       ?getSingleSensorOut@SingleSensor@@QAEMXZ 1002bf50 f i sensors.obj
 0001:0002af70       ?init@SingleSensor@@QAEXPAUCarElt@@@Z 1002bf70 f i sensors.obj
 0001:0002af90       ?tan@@YAMM@Z               1002bf90 f i sensors.obj
 0001:0002afb0       _acosf                     1002bfb0 f i sensors.obj
 0001:0002b010       _tanf                      1002c010 f i sensors.obj
 0001:0002b070       ??0Spline@@QAE@HPAVSplinePoint@@@Z 1002c070 f   spline.obj
 0001:0002b0a0       ?evaluate@Spline@@QAEMM@Z  1002c0a0 f   spline.obj
 0001:0002b230       ?tridiagonal@@YAXHPAUSplineEquationData@@PAN@Z 1002c230 f   spline.obj
 0001:0002b590       ?tridiagonal2@@YAXHPAUSplineEquationData2@@@Z 1002c590 f   spline.obj
 0001:0002bac0       ?slopesp@@YAXHQBN0QAN@Z    1002cac0 f   spline.obj
 0001:0002bf10       ?slopesn@@YAXHQBN0QAN@Z    1002cf10 f   spline.obj
 0001:0002c1d0       ?parametricslopesp@@YAXHQBN0QAN11@Z 1002d1d0 f   spline.obj
 0001:0002c300       ?parametricslopesn@@YAXHQBN0QAN11@Z 1002d300 f   spline.obj
 0001:0002c430       ?spline@@YANHNQBN00@Z      1002d430 f   spline.obj
 0001:0002c580       ??0SimpleStrategy@@QAE@XZ  1002d580 f   strategy.obj
 0001:0002c5f0       ??1SimpleStrategy@@UAE@XZ  1002d5f0 f   strategy.obj
 0001:0002c620       ?setFuelAtRaceStart@SimpleStrategy@@UAEXPAUtTrack@@PAPAXPAUSituation@@H@Z 1002d620 f   strategy.obj
 0001:0002c730       ?update@SimpleStrategy@@UAEXPAUCarElt@@PAUSituation@@@Z 1002d730 f   strategy.obj
 0001:0002c860       ?needPitstop@SimpleStrategy@@UAE_NPAUCarElt@@PAUSituation@@@Z 1002d860 f   strategy.obj
 0001:0002c960       ?pitRefuel@SimpleStrategy@@UAEMPAUCarElt@@PAUSituation@@@Z 1002d960 f   strategy.obj
 0001:0002cb10       ?pitRepair@SimpleStrategy@@UAEHPAUCarElt@@PAUSituation@@@Z 1002db10 f   strategy.obj
 0001:0002cb30       ?isPitFree@SimpleStrategy@@UAE_NPAUCarElt@@@Z 1002db30 f   strategy.obj
 0001:0002cb70       ??1SimpleStrategy2@@UAE@XZ 1002db70 f   strategy.obj
 0001:0002cba0       ?setFuelAtRaceStart@SimpleStrategy2@@UAEXPAUtTrack@@PAPAXPAUSituation@@H@Z 1002dba0 f   strategy.obj
 0001:0002ce50       ?pitRefuel@SimpleStrategy2@@UAEMPAUCarElt@@PAUSituation@@@Z 1002de50 f   strategy.obj
 0001:0002d080       ?update@SimpleStrategy2@@UAEXPAUCarElt@@PAUSituation@@@Z 1002e080 f   strategy.obj
 0001:0002d190       ?updateFuelStrategy@SimpleStrategy2@@MAEXPAUCarElt@@PAUSituation@@@Z 1002e190 f   strategy.obj
 0001:0002d350       ??0AbstractStrategy@@QAE@XZ 1002e350 f i strategy.obj
 0001:0002d370       ??1AbstractStrategy@@UAE@XZ 1002e370 f i strategy.obj
 0001:0002d390       ??_EAbstractStrategy@@UAEPAXI@Z 1002e390 f i strategy.obj
 0001:0002d390       ??_GAbstractStrategy@@UAEPAXI@Z 1002e390 f i strategy.obj
 0001:0002d3d0       ??_ESimpleStrategy@@UAEPAXI@Z 1002e3d0 f i strategy.obj
 0001:0002d3d0       ??_GSimpleStrategy@@UAEPAXI@Z 1002e3d0 f i strategy.obj
 0001:0002d410       ?ceil@@YAMM@Z              1002e410 f i strategy.obj
 0001:0002d430       _ceilf                     1002e430 f i strategy.obj
 0001:0002d490       ??0TrackSegment@@QAE@XZ    1002e490 f   trackdesc.obj
 0001:0002d4e0       ??1TrackSegment@@QAE@XZ    1002e4e0 f   trackdesc.obj
 0001:0002d500       ?init@TrackSegment@@QAEXHPBUtrackSeg@@PBVv3d@@11@Z 1002e500 f   trackdesc.obj
 0001:0002d7a0       ??0TrackDesc@@QAE@PBUtTrack@@@Z 1002e7a0 f   trackdesc.obj
 0001:0002e610       ??1TrackDesc@@QAE@XZ       1002f610 f   trackdesc.obj
 0001:0002e670       ?plot@TrackDesc@@QAEXPAD@Z 1002f670 f   trackdesc.obj
 0001:0002e7b0       ?getCurrentSegment@TrackDesc@@QAEHPAUCarElt@@@Z 1002f7b0 f   trackdesc.obj
 0001:0002e890       ?getNearestId@TrackDesc@@QAEHPAVv3d@@@Z 1002f890 f   trackdesc.obj
 0001:0002e940       ??Kv3d@@QAE?AV0@N@Z        1002f940 f i trackdesc.obj
 0001:0002e9b0       ??_ETrackSegment@@QAEPAXI@Z 1002f9b0 f i trackdesc.obj
 0001:0002ea30       ?distToLeft3D@TrackSegment@@QAENPAVv3d@@@Z 1002fa30 f i trackdesc.obj
 0001:0002eb00       ?distToMiddle2D@TrackSegment@@QAENNN@Z 1002fb00 f i trackdesc.obj
 0001:0002eba0       ?distToMiddle3D@TrackSegment@@QAENNNN@Z 1002fba0 f i trackdesc.obj
 0001:0002ec60       ?distToMiddle3D@TrackSegment@@QAENPAVv3d@@@Z 1002fc60 f i trackdesc.obj
 0001:0002ed30       ?getRaceType@TrackSegment@@QAEIXZ 1002fd30 f i trackdesc.obj
 0001:0002ed50       ?setKbeta@TrackSegment@@QAEXN@Z 1002fd50 f i trackdesc.obj
 0001:0002ed80       ?setKgamma@TrackSegment@@QAEXN@Z 1002fd80 f i trackdesc.obj
 0001:0002edb0       ?setLength@TrackSegment@@QAEXN@Z 1002fdb0 f i trackdesc.obj
 0001:0002edd4       ?_tgf_win_strdup@@YAPADPBD@Z 1002fdd4 f   tgf:tgf.dll
 0001:0002edda       ?GfParmReadFile@@YAPAXPBDH@Z 1002fdda f   tgf:tgf.dll
 0001:0002ede0       ?GfParmGetStr@@YAPBDPAXPBD11@Z 1002fde0 f   tgf:tgf.dll
 0001:0002ede6       ?GfParmGetNum@@YAMPAXPBD11M@Z 1002fde6 f   tgf:tgf.dll
 0001:0002edec       ?GetLocalDir@@YAPADXZ      1002fdec f   tgf:tgf.dll
 0001:0002edf2       ?GetDataDir@@YAPADXZ       1002fdf2 f   tgf:tgf.dll
 0001:0002edf8       ?GfCreateDir@@YAHPAD@Z     1002fdf8 f   tgf:tgf.dll
 0001:0002edfe       ?GfParmSetNum@@YAHPAXPBD11M@Z 1002fdfe f   tgf:tgf.dll
 0001:0002ee04       ?RtTrackSideTgAngleL@@YAMPAUtTrkLocPos@@@Z 1002fe04 f   robottools:robottools.dll
 0001:0002ee0a       ?RtDistToPit@@YAHPAUCarElt@@PAUtTrack@@PAM2@Z 1002fe0a f   robottools:robottools.dll
 0001:0002ee10       ?sgdSqrt@@YANN@Z           1002fe10 f i sg_vs2008_32:sgd.obj
 0001:0002ee20       ?sgdSquare@@YANN@Z         1002fe20 f i sg_vs2008_32:sgd.obj
 0001:0002ee30       ?sgdAbs@@YANN@Z            1002fe30 f i sg_vs2008_32:sgd.obj
 0001:0002ee50       ?sgdASin@@YANN@Z           1002fe50 f i sg_vs2008_32:sgd.obj
 0001:0002ee60       ?sgdACos@@YANN@Z           1002fe60 f i sg_vs2008_32:sgd.obj
 0001:0002ee70       ?sgdATan2@@YANNN@Z         1002fe70 f i sg_vs2008_32:sgd.obj
 0001:0002ee90       ?sgdSin@@YANN@Z            1002fe90 f i sg_vs2008_32:sgd.obj
 0001:0002eea0       ?sgdCos@@YANN@Z            1002fea0 f i sg_vs2008_32:sgd.obj
 0001:0002eeb0       ?sgdZeroVec3@@YAXQAN@Z     1002feb0 f i sg_vs2008_32:sgd.obj
 0001:0002eec0       ?sgdSetVec3@@YAXQANNNN@Z   1002fec0 f i sg_vs2008_32:sgd.obj
 0001:0002eee0       ?sgdSetVec4@@YAXQANNNNN@Z  1002fee0 f i sg_vs2008_32:sgd.obj
 0001:0002ef00       ?sgdCopyVec3@@YAXQANQBN@Z  1002ff00 f i sg_vs2008_32:sgd.obj
 0001:0002ef20       ?sgdCopyVec4@@YAXQANQBN@Z  1002ff20 f i sg_vs2008_32:sgd.obj
 0001:0002ef40       ?sgdAddVec3@@YAXQANQBN1@Z  1002ff40 f i sg_vs2008_32:sgd.obj
 0001:0002ef70       ?sgdSubVec2@@YAXQANQBN1@Z  1002ff70 f i sg_vs2008_32:sgd.obj
 0001:0002ef90       ?sgdSubVec3@@YAXQANQBN1@Z  1002ff90 f i sg_vs2008_32:sgd.obj
 0001:0002efc0       ?sgdNegateVec3@@YAXQAN@Z   1002ffc0 f i sg_vs2008_32:sgd.obj
 0001:0002efe0       ?sgdScaleVec2@@YAXQANN@Z   1002ffe0 f i sg_vs2008_32:sgd.obj
 0001:0002f000       ?sgdScaleVec3@@YAXQANN@Z   10030000 f i sg_vs2008_32:sgd.obj
 0001:0002f020       ?sgdScaleVec3@@YAXQANQBNN@Z 10030020 f i sg_vs2008_32:sgd.obj
 0001:0002f050       ?sgdScaleVec4@@YAXQANQBNN@Z 10030050 f i sg_vs2008_32:sgd.obj
 0001:0002f080       ?sgdAddScaledVec3@@YAXQANQBN1N@Z 10030080 f i sg_vs2008_32:sgd.obj
 0001:0002f0b0       ?sgdScalarProductVec2@@YANQBN0@Z 100300b0 f i sg_vs2008_32:sgd.obj
 0001:0002f0d0       ?sgdScalarProductVec3@@YANQBN0@Z 100300d0 f i sg_vs2008_32:sgd.obj
 0001:0002f0f0       ?sgdScalarProductVec4@@YANQBN0@Z 100300f0 f i sg_vs2008_32:sgd.obj
 0001:0002f120       ?sgdDistanceSquaredVec3@@YANQBN0@Z 10030120 f i sg_vs2008_32:sgd.obj
 0001:0002f150       ?sgdDistanceVec3@@YANQBN0@Z 10030150 f i sg_vs2008_32:sgd.obj
 0001:0002f180       ?sgdLengthVec2@@YANQBN@Z   10030180 f i sg_vs2008_32:sgd.obj
 0001:0002f1a0       ?sgdLengthVec3@@YANQBN@Z   100301a0 f i sg_vs2008_32:sgd.obj
 0001:0002f1d0       ?sgdNormaliseVec2@@YAXQAN@Z 100301d0 f i sg_vs2008_32:sgd.obj
 0001:0002f200       ?sgdNormaliseVec3@@YAXQAN@Z 10030200 f i sg_vs2008_32:sgd.obj
 0001:0002f240       ?sgdNormaliseVec3@@YAXQANQBN@Z 10030240 f i sg_vs2008_32:sgd.obj
 0001:0002f280       ?sgdCopyMat4@@YAXQAY03NQAY03$$CBN@Z 10030280 f i sg_vs2008_32:sgd.obj
 0001:0002f2f0       ?sgdScaleMat4@@YAXQAY03NQAY03$$CBNN@Z 100302f0 f i sg_vs2008_32:sgd.obj
 0001:0002f380       ?sgdMakeIdentMat4@@YAXQAY03N@Z 10030380 f i sg_vs2008_32:sgd.obj
 0001:0002f3c0       ?sgdLineSegment3ToLine3@@YAXPAUsgdLine3@@UsgdLineSegment3@@@Z 100303c0 f i sg_vs2008_32:sgd.obj
 0001:0002f430       ?sgdAngleBetweenNormalizedVec3@@YANQAN0@Z 10030430 f i sg_vs2008_32:sgd.obj
 0001:0002f4a0       ?getCenter@sgdSphere@@QBEPBNXZ 100304a0 f i sg_vs2008_32:sgd.obj
 0001:0002f4b0       ?getRadius@sgdSphere@@QBENXZ 100304b0 f i sg_vs2008_32:sgd.obj
 0001:0002f4c0       ?isEmpty@sgdSphere@@QBEHXZ 100304c0 f i sg_vs2008_32:sgd.obj
 0001:0002f4e0       ?getMin@sgdBox@@QBEPBNXZ   100304e0 f i sg_vs2008_32:sgd.obj
 0001:0002f4f0       ?getMax@sgdBox@@QBEPBNXZ   100304f0 f i sg_vs2008_32:sgd.obj
 0001:0002f500       ?isEmpty@sgdBox@@QBEHXZ    10030500 f i sg_vs2008_32:sgd.obj
 0001:0002f530       ?sgdVectorProductVec3@@YAXQANQBN1@Z 10030530 f   sg_vs2008_32:sgd.obj
 0001:0002f570       ?_sgdClampToUnity@@YANN@Z  10030570 f i sg_vs2008_32:sgd.obj
 0001:0002f5a0       ?sgdCompare3DSqdDist@@YAHQBN0N@Z 100305a0 f   sg_vs2008_32:sgd.obj
 0001:0002f600       ?sgdMakeRotMat4@@YAXQAY03NNQBN@Z 10030600 f   sg_vs2008_32:sgd.obj
 0001:0002f730       ?sgdMakePickMatrix@@YAXQAY03NNNNNQAN@Z 10030730 f   sg_vs2008_32:sgd.obj
 0001:0002f7b0       ?sgdMakeLookAtMat4@@YAXQAY03NQBN11@Z 100307b0 f   sg_vs2008_32:sgd.obj
 0001:0002f930       ?sgdAngleBetweenVec3@@YANQAN0@Z 10030930 f   sg_vs2008_32:sgd.obj
 0001:0002f9d0       ?sgdAngleBetweenNormalizedVec3@@YANQAN00@Z 100309d0 f   sg_vs2008_32:sgd.obj
 0001:0002fb60       ?sgdAngleBetweenVec3@@YANQAN00@Z 10030b60 f   sg_vs2008_32:sgd.obj
 0001:0002fc00       ?extend@sgdBox@@QAEXQBN@Z  10030c00 f   sg_vs2008_32:sgd.obj
 0001:0002fcd0       ?extend@sgdBox@@QAEXPBV1@@Z 10030cd0 f   sg_vs2008_32:sgd.obj
 0001:0002fd60       ?extend@sgdBox@@QAEXPBVsgdSphere@@@Z 10030d60 f   sg_vs2008_32:sgd.obj
 0001:0002fdd0       ?intersects@sgdBox@@QBEHQBN@Z 10030dd0 f   sg_vs2008_32:sgd.obj
 0001:0002ff10       ?extend@sgdSphere@@QAEXQBN@Z 10030f10 f   sg_vs2008_32:sgd.obj
 0001:0002ffc0       ?extend@sgdSphere@@QAEXPBVsgdBox@@@Z 10030fc0 f   sg_vs2008_32:sgd.obj
 0001:00030150       ?extend@sgdSphere@@QAEXPBV1@@Z 10031150 f   sg_vs2008_32:sgd.obj
 0001:00030220       ?intersects@sgdSphere@@QBEHPBVsgdBox@@@Z 10031220 f   sg_vs2008_32:sgd.obj
 0001:000302d0       ?update@sgdFrustum@@AAEXXZ 100312d0 f   sg_vs2008_32:sgd.obj
 0001:000306d0       ?contains@sgdFrustum@@QBEHPBVsgdSphere@@@Z 100316d0 f   sg_vs2008_32:sgd.obj
 0001:00030840       ?sgdDistSquaredToLineVec3@@YANUsgdLine3@@QBN@Z 10031840 f   sg_vs2008_32:sgd.obj
 0001:00030880       ?sgdDistSquaredToLineSegmentVec3@@YANUsgdLineSegment3@@QBN@Z 10031880 f   sg_vs2008_32:sgd.obj
 0001:00030990       ?sgdMakeCoordMat4@@YAXQAY03NNNNNNN@Z 10031990 f   sg_vs2008_32:sgd.obj
 0001:00030b50       ?sgdMakeTransMat4@@YAXQAY03NQBN@Z 10031b50 f   sg_vs2008_32:sgd.obj
 0001:00030ba0       ?sgdMakeTransMat4@@YAXQAY03NNNN@Z 10031ba0 f   sg_vs2008_32:sgd.obj
 0001:00030bf0       ?sgdSetCoord@@YAXPAUsgdCoord@@QAY03$$CBN@Z 10031bf0 f   sg_vs2008_32:sgd.obj
 0001:00030ef0       ?sgdMakeNormal@@YAXQANQBN1@Z 10031ef0 f   sg_vs2008_32:sgd.obj
 0001:00030f40       ?sgdMakeNormal@@YAXQANQBN11@Z 10031f40 f   sg_vs2008_32:sgd.obj
 0001:00030fe0       ?sgdMultMat4@@YAXQAY03NQAY03$$CBN1@Z 10031fe0 f   sg_vs2008_32:sgd.obj
 0001:00031090       ?sgdTransposeNegateMat4@@YAXQAY03NQAY03$$CBN@Z 10032090 f   sg_vs2008_32:sgd.obj
 0001:00031130       ?sgdTransposeNegateMat4@@YAXQAY03N@Z 10032130 f   sg_vs2008_32:sgd.obj
 0001:00031160       ?sgdInvertMat4@@YAXQAY03NQAY03$$CBN@Z 10032160 f   sg_vs2008_32:sgd.obj
 0001:00031380       ?sgdXformVec3@@YAXQANQBNQAY03$$CBN@Z 10032380 f   sg_vs2008_32:sgd.obj
 0001:000313e0       ?sgdXformPnt3@@YAXQANQBNQAY03$$CBN@Z 100323e0 f   sg_vs2008_32:sgd.obj
 0001:00031440       ?sgdXformPnt4@@YAXQANQBNQAY03$$CBN@Z 10032440 f   sg_vs2008_32:sgd.obj
 0001:000314d0       ?sgdFullXformPnt3@@YAXQANQBNQAY03$$CBN@Z 100324d0 f   sg_vs2008_32:sgd.obj
 0001:00031530       ?sgdHPRfromVec3@@YAXQAN0@Z 10032530 f   sg_vs2008_32:sgd.obj
 0001:000315d0       ?sgdQuatToAngleAxis@@YAXPANQANQBN@Z 100325d0 f   sg_vs2008_32:sgd.obj
 0001:00031650       ?sgdAngleAxisToQuat@@YAXQANNQBN@Z 10032650 f   sg_vs2008_32:sgd.obj
 0001:000316f0       ?sgdMatrixToQuat@@YAXQANQAY03$$CBN@Z 100326f0 f   sg_vs2008_32:sgd.obj
 0001:00031850       ?sgdMultQuat@@YAXQANQBN1@Z 10032850 f   sg_vs2008_32:sgd.obj
 0001:00031920       ?sgdMultQuat2@@YAXQANQBN1@Z 10032920 f   sg_vs2008_32:sgd.obj
 0001:000319f0       ?sgdEulerToQuat@@YAXQANQBN@Z 100329f0 f   sg_vs2008_32:sgd.obj
 0001:00031ae0       ?sgdQuatToEuler@@YAXQANQBN@Z 10032ae0 f   sg_vs2008_32:sgd.obj
 0001:00031c40       ?sgdQuatToMatrix@@YAXQAY03NQBN@Z 10032c40 f   sg_vs2008_32:sgd.obj
 0001:00031d10       ?sgdMakeRotMat42@@YAXQAY03NQAN@Z 10032d10 f   sg_vs2008_32:sgd.obj
 0001:00031de0       ?sgdSlerpQuat2@@YAXQANQBN1N@Z 10032de0 f   sg_vs2008_32:sgd.obj
 0001:00031f00       ?sgdSlerpQuat@@YAXQANQBN1N@Z 10032f00 f   sg_vs2008_32:sgd.obj
 0001:00031ff0       ?sgdRotateVecQuat@@YAXQAN0@Z 10032ff0 f   sg_vs2008_32:sgd.obj
 0001:000320e0       ?sgdRotateCoordQuat@@YAXQAN0@Z 100330e0 f   sg_vs2008_32:sgd.obj
 0001:000321d0       ?sgdDistSquaredToLineLineSegment@@YANUsgdLineSegment3@@UsgdLine3@@@Z 100331d0 f   sg_vs2008_32:sgd.obj
 0001:000323e0       ?sgdReflectInPlaneVec3@@YAXQANQBN1@Z 100333e0 f   sg_vs2008_32:sgd.obj
 0001:00032430       ?sgdClassifyMat4@@YAHQAY03$$CBN@Z 10033430 f   sg_vs2008_32:sgd.obj
 0001:000326f0       ?sgdTriangleSolver_SAStoArea@@YANNNN@Z 100336f0 f   sg_vs2008_32:sgd.obj
 0001:00032710       ?sgdTriangleSolver_SSStoArea@@YANNNN@Z 10033710 f   sg_vs2008_32:sgd.obj
 0001:00032760       ?sgdTriangleSolver_SSStoAAA@@YAXNNNPAN00@Z 10033760 f   sg_vs2008_32:sgd.obj
 0001:00032900       ?sgdTriangleSolver_SAStoASA@@YAXNNNPAN00@Z 10033900 f   sg_vs2008_32:sgd.obj
 0001:00032980       ?sgdTriangleSolver_ASAtoSAS@@YAXNNNPAN00@Z 10033980 f   sg_vs2008_32:sgd.obj
 0001:00032a30       ?sgdTriangleSolver_ASStoSAA@@YAXNNNHPAN00@Z 10033a30 f   sg_vs2008_32:sgd.obj
 0001:00032ac0       ?sgdTriangleSolver_SAAtoASS@@YAXNNNPAN00@Z 10033ac0 f   sg_vs2008_32:sgd.obj
 0001:00032b10       ?sgdTriArea@@YANQAN00@Z    10033b10 f   sg_vs2008_32:sgd.obj
 0001:00032bf0       ?getOutcode@sgdFrustum@@ABEHQBN@Z 10033bf0 f   sg_vs2008_32:sgd.obj
 0001:00032cd0       ?contains@sgdFrustum@@QBEHQBN@Z 10033cd0 f   sg_vs2008_32:sgd.obj
 0001:00032cf0       ?contains@sgdFrustum@@QBEHPBVsgdBox@@@Z 10033cf0 f   sg_vs2008_32:sgd.obj
 0001:00032e10       ?sgdPreMultMat4@@YAXQAY03NQAY03$$CBN@Z 10033e10 f   sg_vs2008_32:sgd.obj
 0001:00032e50       ?sgdPostMultMat4@@YAXQAY03NQAY03$$CBN@Z 10033e50 f   sg_vs2008_32:sgd.obj
 0001:00032e90       ?sgdQuatToAngleAxis@@YAXPAN000QBN@Z 10033e90 f   sg_vs2008_32:sgd.obj
 0001:00032ed0       ?sgdAngleAxisToQuat@@YAXQANNNNN@Z 10033ed0 f   sg_vs2008_32:sgd.obj
 0001:00032f10       ?sgdTriangleSolver_ASAtoArea@@YANNNN@Z 10033f10 f   sg_vs2008_32:sgd.obj
 0001:00032f80       ?sgdTriangleSolver_ASStoArea@@YANNNNH@Z 10033f80 f   sg_vs2008_32:sgd.obj
 0001:00032fe0       ?sgdTriangleSolver_SAAtoArea@@YANNNN@Z 10033fe0 f   sg_vs2008_32:sgd.obj
 0001:00033040       ?ulSetError@@YAXW4ulSeverity@@PBDZZ 10034040 f   ul_vs2008_32:ulError.obj
 0001:000330b0       ?ulGetError@@YAPADXZ       100340b0 f   ul_vs2008_32:ulError.obj
 0001:000330c0       ?ulClearError@@YAXXZ       100340c0 f   ul_vs2008_32:ulError.obj
 0001:000330d0       ?ulGetErrorCallback@@YAP6AXW4ulSeverity@@PAD@ZXZ 100340d0 f   ul_vs2008_32:ulError.obj
 0001:000330e0       ?ulSetErrorCallback@@YAXP6AXW4ulSeverity@@PAD@Z@Z 100340e0 f   ul_vs2008_32:ulError.obj
 0001:000330ea       _QueryPerformanceCounter@4 100340ea f   kernel32:KERNEL32.dll
 0001:000330f0       _QueryPerformanceFrequency@4 100340f0 f   kernel32:KERNEL32.dll
 0001:00033100       ??0_Init_locks@std@@QAE@XZ 10034100 f   libcpmtd:xlock.obj
 0001:00033150       ??0_Lockit@std@@QAE@H@Z    10034150 f   libcpmtd:xlock.obj
 0001:000331a0       ??0_Lockit@std@@QAE@XZ     100341a0 f   libcpmtd:xlock.obj
 0001:000331f0       ??1_Init_locks@std@@QAE@XZ 100341f0 f   libcpmtd:xlock.obj
 0001:00033240       ??1_Lockit@std@@QAE@XZ     10034240 f   libcpmtd:xlock.obj
 0001:00033280       ?_Init_locks_ctor@_Init_locks@std@@CAXPAV12@@Z 10034280 f   libcpmtd:xlock.obj
 0001:000332d0       ?_Init_locks_dtor@_Init_locks@std@@CAXPAV12@@Z 100342d0 f   libcpmtd:xlock.obj
 0001:00033320       ?_Lockit_ctor@_Lockit@std@@CAXPAV12@@Z 10034320 f   libcpmtd:xlock.obj
 0001:00033340       ?_Lockit_ctor@_Lockit@std@@CAXPAV12@H@Z 10034340 f   libcpmtd:xlock.obj
 0001:00033380       ?_Lockit_ctor@_Lockit@std@@SAXH@Z 10034380 f   libcpmtd:xlock.obj
 0001:000333b0       ?_Lockit_dtor@_Lockit@std@@CAXPAV12@@Z 100343b0 f   libcpmtd:xlock.obj
 0001:000333d0       ?_Lockit_dtor@_Lockit@std@@SAXH@Z 100343d0 f   libcpmtd:xlock.obj
 0001:00033400       ?uncaught_exception@std@@YA_NXZ 10034400 f   libcpmtd:uncaught.obj
 0001:00033410       ?_Debug_message@std@@YAXPBG0I@Z 10034410 f   libcpmtd:stdthrow.obj
 0001:00033430       ?_Debug_message@std@@YAXPB_W0I@Z 10034430 f   libcpmtd:stdthrow.obj
 0001:00033460       ??0_Ignore@std@@QAE@XZ     10034460 f i libcpmtd:xthrow.obj
 0001:00033470       ??0bad_alloc@std@@QAE@ABV01@@Z 10034470 f i libcpmtd:xthrow.obj
 0001:000334a0       ??0bad_alloc@std@@QAE@XZ   100344a0 f i libcpmtd:xthrow.obj
 0001:000334d0       ??0bad_function_call@std@@QAE@ABV01@@Z 100344d0 f i libcpmtd:xthrow.obj
 0001:00033500       ??0bad_function_call@std@@QAE@PBD@Z 10034500 f i libcpmtd:xthrow.obj
 0001:00033530       ??0invalid_argument@std@@QAE@ABV01@@Z 10034530 f i libcpmtd:xthrow.obj
 0001:00033560       ??0invalid_argument@std@@QAE@PBD@Z 10034560 f i libcpmtd:xthrow.obj
 0001:00033590       ??0length_error@std@@QAE@ABV01@@Z 10034590 f i libcpmtd:xthrow.obj
 0001:000335c0       ??0length_error@std@@QAE@PBD@Z 100345c0 f i libcpmtd:xthrow.obj
 0001:000335f0       ??0logic_error@std@@QAE@ABV01@@Z 100345f0 f i libcpmtd:xthrow.obj
 0001:00033620       ??0logic_error@std@@QAE@PBD@Z 10034620 f i libcpmtd:xthrow.obj
 0001:00033650       ??0out_of_range@std@@QAE@ABV01@@Z 10034650 f i libcpmtd:xthrow.obj
 0001:00033680       ??0out_of_range@std@@QAE@PBD@Z 10034680 f i libcpmtd:xthrow.obj
 0001:000336b0       ??0overflow_error@std@@QAE@ABV01@@Z 100346b0 f i libcpmtd:xthrow.obj
 0001:000336e0       ??0overflow_error@std@@QAE@PBD@Z 100346e0 f i libcpmtd:xthrow.obj
 0001:00033710       ??0regex_error@std@@QAE@ABV01@@Z 10034710 f i libcpmtd:xthrow.obj
 0001:00033750       ??0regex_error@std@@QAE@W4error_type@regex_constants@1@@Z 10034750 f i libcpmtd:xthrow.obj
 0001:00033790       ??1bad_alloc@std@@UAE@XZ   10034790 f i libcpmtd:xthrow.obj
 0001:000337b0       ??1bad_function_call@std@@UAE@XZ 100347b0 f i libcpmtd:xthrow.obj
 0001:000337d0       ??1invalid_argument@std@@UAE@XZ 100347d0 f i libcpmtd:xthrow.obj
 0001:000337f0       ??1length_error@std@@UAE@XZ 100347f0 f i libcpmtd:xthrow.obj
 0001:00033810       ??1logic_error@std@@UAE@XZ 10034810 f i libcpmtd:xthrow.obj
 0001:00033830       ??1out_of_range@std@@UAE@XZ 10034830 f i libcpmtd:xthrow.obj
 0001:00033850       ??1overflow_error@std@@UAE@XZ 10034850 f i libcpmtd:xthrow.obj
 0001:00033870       ??1regex_error@std@@UAE@XZ 10034870 f i libcpmtd:xthrow.obj
 0001:00033890       ??_Gbad_alloc@std@@UAEPAXI@Z 10034890 f i libcpmtd:xthrow.obj
 0001:00033890       ??_Ebad_alloc@std@@UAEPAXI@Z 10034890 f i libcpmtd:xthrow.obj
 0001:000338c0       ??_Gbad_function_call@std@@UAEPAXI@Z 100348c0 f i libcpmtd:xthrow.obj
 0001:000338c0       ??_Ebad_function_call@std@@UAEPAXI@Z 100348c0 f i libcpmtd:xthrow.obj
 0001:000338f0       ??_Einvalid_argument@std@@UAEPAXI@Z 100348f0 f i libcpmtd:xthrow.obj
 0001:000338f0       ??_Ginvalid_argument@std@@UAEPAXI@Z 100348f0 f i libcpmtd:xthrow.obj
 0001:00033920       ??_Elength_error@std@@UAEPAXI@Z 10034920 f i libcpmtd:xthrow.obj
 0001:00033920       ??_Glength_error@std@@UAEPAXI@Z 10034920 f i libcpmtd:xthrow.obj
 0001:00033950       ??_Glogic_error@std@@UAEPAXI@Z 10034950 f i libcpmtd:xthrow.obj
 0001:00033950       ??_Elogic_error@std@@UAEPAXI@Z 10034950 f i libcpmtd:xthrow.obj
 0001:00033980       ??_Gout_of_range@std@@UAEPAXI@Z 10034980 f i libcpmtd:xthrow.obj
 0001:00033980       ??_Eout_of_range@std@@UAEPAXI@Z 10034980 f i libcpmtd:xthrow.obj
 0001:000339b0       ??_Eoverflow_error@std@@UAEPAXI@Z 100349b0 f i libcpmtd:xthrow.obj
 0001:000339b0       ??_Goverflow_error@std@@UAEPAXI@Z 100349b0 f i libcpmtd:xthrow.obj
 0001:000339e0       ??_Gregex_error@std@@UAEPAXI@Z 100349e0 f i libcpmtd:xthrow.obj
 0001:000339e0       ??_Eregex_error@std@@UAEPAXI@Z 100349e0 f i libcpmtd:xthrow.obj
 0001:00033a10       ?_Stringify@regex_error@std@@CAPBDW4error_type@regex_constants@2@@Z 10034a10 f i libcpmtd:xthrow.obj
 0001:00033ae0       ?_Xbad_alloc@std@@YAXXZ    10034ae0 f   libcpmtd:xthrow.obj
 0001:00033b00       ?_Xbad_function_call@std@@YAXXZ 10034b00 f   libcpmtd:xthrow.obj
 0001:00033b30       ?_Xinvalid_argument@std@@YAXPBD@Z 10034b30 f   libcpmtd:xthrow.obj
 0001:00033b60       ?_Xlength_error@std@@YAXPBD@Z 10034b60 f   libcpmtd:xthrow.obj
 0001:00033b90       ?_Xout_of_range@std@@YAXPBD@Z 10034b90 f   libcpmtd:xthrow.obj
 0001:00033bc0       ?_Xoverflow_error@std@@YAXPBD@Z 10034bc0 f   libcpmtd:xthrow.obj
 0001:00033bf0       ?_Xregex_error@std@@YAXW4error_type@regex_constants@1@@Z 10034bf0 f   libcpmtd:xthrow.obj
 0001:00033c20       ?_Xruntime_error@std@@YAXPBD@Z 10034c20 f   libcpmtd:xthrow.obj
 0001:00033c50       ?what@bad_function_call@std@@UBEPBDXZ 10034c50 f i libcpmtd:xthrow.obj
 0001:00033c60       __Getctype                 10034c60 f   libcpmtd:_tolower.obj
 0001:00033d10       __Tolower                  10034d10 f   libcpmtd:_tolower.obj
 0001:00033f00       __Getcvt                   10034f00 f   libcpmtd:xwctomb.obj
 0001:00033ff0       __Wcrtomb                  10034ff0 f   libcpmtd:xwctomb.obj
 0001:000340c0       ___Wcrtomb_lk              100350c0 f   libcpmtd:xwctomb.obj
 0001:000340e0       __Toupper                  100350e0 f   libcpmtd:_toupper.obj
 0001:000342d0       ??$_DebugHeapDelete@U_Fac_node@std@@@std@@YAXPAU_Fac_node@0@@Z 100352d0 f i libcpmtd:locale0.obj
 0001:00034300       ??0?$_Yarn@D@std@@QAE@PBD@Z 10035300 f i libcpmtd:locale0.obj
 0001:00034330       ??0_Fac_node@std@@QAE@PAU01@PAV_Facet_base@1@@Z 10035330 f i libcpmtd:locale0.obj
 0001:00034360       ??0_Locimp@locale@std@@AAE@ABV012@@Z 10035360 f i libcpmtd:locale0.obj
 0001:00034420       ??0_Locimp@locale@std@@AAE@_N@Z 10035420 f i libcpmtd:locale0.obj
 0001:000344c0       ??0locale@std@@AAE@PAV_Locimp@01@@Z 100354c0 f i libcpmtd:locale0.obj
 0001:000344e0       ??0locale@std@@QAE@W4_Uninitialized@1@@Z 100354e0 f i libcpmtd:locale0.obj
 0001:000344f0       ??1_Fac_node@std@@QAE@XZ   100354f0 f i libcpmtd:locale0.obj
 0001:00034520       ??1_Fac_tidy_reg_t@std@@QAE@XZ 10035520 f i libcpmtd:locale0.obj
 0001:00034560       ??1_Locimp@locale@std@@MAE@XZ 10035560 f i libcpmtd:locale0.obj
 0001:000345a0       ??4?$_Yarn@D@std@@QAEAAV01@PBD@Z 100355a0 f i libcpmtd:locale0.obj
 0001:00034640       ??_G_Fac_node@std@@QAEPAXI@Z 10035640 f i libcpmtd:locale0.obj
 0001:00034670       ??_G_Locimp@locale@std@@MAEPAXI@Z 10035670 f i libcpmtd:locale0.obj
 0001:00034670       ??_E_Locimp@locale@std@@MAEPAXI@Z 10035670 f i libcpmtd:locale0.obj
 0001:000346a0       ?_C_str@?$_Yarn@D@std@@QBEPBDXZ 100356a0 f i libcpmtd:locale0.obj
 0001:000346d0       ?_Empty@?$_Yarn@D@std@@QBE_NXZ 100356d0 f i libcpmtd:locale0.obj
 0001:00034700       ?_Facet_Register@std@@YAXPAV_Facet_base@1@@Z 10035700 f   libcpmtd:locale0.obj
 0001:000347a0       ?_Getgloballocale@locale@std@@CAPAV_Locimp@12@XZ 100357a0 f   libcpmtd:locale0.obj
 0001:000347b0       ?_Init@locale@std@@CAPAV_Locimp@12@_N@Z 100357b0 f   libcpmtd:locale0.obj
 0001:000348d0       ?_Locimp_dtor@_Locimp@locale@std@@CAXPAV123@@Z 100358d0 f   libcpmtd:locale0.obj
 0001:00034990       ?_Locinfo_ctor@_Locinfo@std@@SAXPAV12@PBD@Z 10035990 f   libcpmtd:locale0.obj
 0001:00034a10       ?_Locinfo_dtor@_Locinfo@std@@SAXPAV12@@Z 10035a10 f   libcpmtd:locale0.obj
 0001:00034a40       ?_New_Locimp@_Locimp@locale@std@@CAPAV123@ABV123@@Z 10035a40 f   libcpmtd:locale0.obj
 0001:00034ad0       ?_New_Locimp@_Locimp@locale@std@@CAPAV123@_N@Z 10035ad0 f   libcpmtd:locale0.obj
 0001:00034b60       ?_Setgloballocale@locale@std@@CAXPAX@Z 10035b60 f   libcpmtd:locale0.obj
 0001:00034b90       ?classic@locale@std@@SAABV12@XZ 10035b90 f   libcpmtd:locale0.obj
 0001:00034bb0       ?empty@locale@std@@SA?AV12@XZ 10035bb0 f   libcpmtd:locale0.obj
 0001:00034bf0       __Deletegloballocale       10035bf0 f   libcpmtd:locale0.obj
 0001:00034c60       ??2@YAPAXIABU_DebugHeapTag_t@std@@PADH@Z 10035c60 f   libcpmtd:xdebug.obj
 0001:00034ca0       ??3@YAXPAXABU_DebugHeapTag_t@std@@PADH@Z 10035ca0 f   libcpmtd:xdebug.obj
 0001:00034cc0       ??_U@YAPAXIABU_DebugHeapTag_t@std@@PADH@Z 10035cc0 f   libcpmtd:xdebug.obj
 0001:00034ce0       ??_V@YAXPAXABU_DebugHeapTag_t@std@@PADH@Z 10035ce0 f   libcpmtd:xdebug.obj
 0001:00034d00       ?_DebugHeapTag_func@std@@YAABU_DebugHeapTag_t@1@XZ 10035d00 f   libcpmtd:xdebug.obj
 0001:00034d10       ?_Syserror_map@std@@YAPBDH@Z 10035d10 f   libcpmtd:syserror.obj
 0001:00034d60       ?_Winerror_map@std@@YAPBDH@Z 10035d60 f   libcpmtd:syserror.obj
 0001:00034db0       ??$_DebugHeapDelete@U_Fnarray@ios_base@std@@@std@@YAXPAU_Fnarray@ios_base@0@@Z 10035db0 f i libcpmtd:ios.obj
 0001:00034dd0       ??$_DebugHeapDelete@U_Iosarray@ios_base@std@@@std@@YAXPAU_Iosarray@ios_base@0@@Z 10035dd0 f i libcpmtd:ios.obj
 0001:00034df0       ?_Addstd@ios_base@std@@SAXPAV12@@Z 10035df0 f   libcpmtd:ios.obj
 0001:00034e90       ?_Callfns@ios_base@std@@AAEXW4event@12@@Z 10035e90 f i libcpmtd:ios.obj
 0001:00034ee0       ?_Ios_base_dtor@ios_base@std@@CAXPAV12@@Z 10035ee0 f   libcpmtd:ios.obj
 0001:00034f40       ?_Tidy@ios_base@std@@AAEXXZ 10035f40 f i libcpmtd:ios.obj
 0001:00034fd0       ??$_Xfiopen@D@std@@YAPAU_iobuf@@PBDHH@Z 10035fd0 f i libcpmtd:fiopen.obj
 0001:00035110       ??$_Xfiopen@_W@std@@YAPAU_iobuf@@PB_WHH@Z 10036110 f i libcpmtd:fiopen.obj
 0001:00035250       ?_Fiopen@std@@YAPAU_iobuf@@PBDHH@Z 10036250 f   libcpmtd:fiopen.obj
 0001:00035270       ?_Fiopen@std@@YAPAU_iobuf@@PBGHH@Z 10036270 f   libcpmtd:fiopen.obj
 0001:00035290       ?_Fiopen@std@@YAPAU_iobuf@@PB_WHH@Z 10036290 f   libcpmtd:fiopen.obj
 0001:000352b0       ?_Xfsopen@std@@YAPAU_iobuf@@PBDHH@Z 100362b0 f   libcpmtd:fiopen.obj
 0001:000352d0       ?_Xfsopen@std@@YAPAU_iobuf@@PB_WHH@Z 100362d0 f   libcpmtd:fiopen.obj
 0001:000352f0       ??0_Init_cout@std@@QAE@XZ  100362f0 f i libcpmtd:cout.obj
 0001:00035380       ?tie@?$basic_ios@DU?$char_traits@D@std@@@std@@QAEPAV?$basic_ostream@DU?$char_traits@D@std@@@2@PAV32@@Z 10036380 f i libcpmtd:cout.obj
 0001:000353b0       ??_U@YAPAXI@Z              100363b0 f   libcpmtd:newaop.obj
 0001:000353d0       __Mtxdst                   100363d0 f   libcpmtd:xmtx.obj
 0001:000353e0       __Mtxinit                  100363e0 f   libcpmtd:xmtx.obj
 0001:00035400       __Mtxlock                  10036400 f   libcpmtd:xmtx.obj
 0001:00035410       __Mtxunlock                10036410 f   libcpmtd:xmtx.obj
 0001:00035420       __Once                     10036420 f   libcpmtd:xmtx.obj
 0001:00035480       ??1_Init_atexit@@QAE@XZ    10036480 f i libcpmtd:iosptrs.obj
 0001:000354d0       ?_Atexit@@YAXP6AXXZ@Z      100364d0 f   libcpmtd:iosptrs.obj
 0001:00035510       ??$?8DU?$char_traits@D@std@@@std@@YA_NABV?$istreambuf_iterator@DU?$char_traits@D@std@@@0@0@Z 10036510 f i libcpmtd:locale.obj
 0001:00035530       ??$?9DU?$char_traits@D@std@@@std@@YA_NABV?$istreambuf_iterator@DU?$char_traits@D@std@@@0@0@Z 10036530 f i libcpmtd:locale.obj
 0001:00035570       ??$_Debug_range2@V?$istreambuf_iterator@DU?$char_traits@D@std@@@std@@@std@@YAXV?$istreambuf_iterator@DU?$char_traits@D@std@@@0@0PB_WIUinput_iterator_tag@0@@Z 10036570 f i libcpmtd:locale.obj
 0001:000355a0       ??$_Debug_range@V?$istreambuf_iterator@DU?$char_traits@D@std@@@std@@@std@@YAXV?$istreambuf_iterator@DU?$char_traits@D@std@@@0@0PB_WI@Z 100365a0 f i libcpmtd:locale.obj
 0001:000355e0       ??$_Find_elem@D@std@@YAIPADD@Z 100365e0 f i libcpmtd:locale.obj
 0001:00035620       ??$_Getloctxt@DV?$istreambuf_iterator@DU?$char_traits@D@std@@@std@@@std@@YAHAAV?$istreambuf_iterator@DU?$char_traits@D@std@@@0@0IPBD@Z 10036620 f i libcpmtd:locale.obj
 0001:00035870       ??$_Iter_cat@V?$istreambuf_iterator@DU?$char_traits@D@std@@@std@@@std@@YA?AUinput_iterator_tag@0@ABV?$istreambuf_iterator@DU?$char_traits@D@std@@@0@@Z 10036870 f i libcpmtd:locale.obj
 0001:00035880       ??$use_facet@V?$num_get@DV?$istreambuf_iterator@DU?$char_traits@D@std@@@std@@@std@@@std@@YAABV?$num_get@DV?$istreambuf_iterator@DU?$char_traits@D@std@@@std@@@0@ABVlocale@0@@Z 10036880 f i libcpmtd:locale.obj
 0001:00035980       ??0?$num_get@DV?$istreambuf_iterator@DU?$char_traits@D@std@@@std@@@std@@QAE@ABV_Locinfo@1@I@Z 10036980 f i libcpmtd:locale.obj
 0001:000359f0       ??1?$num_get@DV?$istreambuf_iterator@DU?$char_traits@D@std@@@std@@@std@@MAE@XZ 100369f0 f i libcpmtd:locale.obj
 0001:00035a10       ??D?$istreambuf_iterator@DU?$char_traits@D@std@@@std@@QBEABDXZ 10036a10 f i libcpmtd:locale.obj
 0001:00035a60       ??E?$istreambuf_iterator@DU?$char_traits@D@std@@@std@@QAEAAV01@XZ 10036a60 f i libcpmtd:locale.obj
 0001:00035aa0       ??Y?$basic_string@DU?$char_traits@D@std@@V?$allocator@D@2@@std@@QAEAAV01@ABV01@@Z 10036aa0 f i libcpmtd:locale.obj
 0001:00035ac0       ??Y?$basic_string@DU?$char_traits@D@std@@V?$allocator@D@2@@std@@QAEAAV01@D@Z 10036ac0 f i libcpmtd:locale.obj
 0001:00035ae0       ??_G?$num_get@DV?$istreambuf_iterator@DU?$char_traits@D@std@@@std@@@std@@MAEPAXI@Z 10036ae0 f i libcpmtd:locale.obj
 0001:00035ae0       ??_E?$num_get@DV?$istreambuf_iterator@DU?$char_traits@D@std@@@std@@@std@@MAEPAXI@Z 10036ae0 f i libcpmtd:locale.obj
 0001:00035b10       ?_Addfac@_Locimp@locale@std@@AAEXPAVfacet@23@I@Z 10036b10 f i libcpmtd:locale.obj
 0001:00035b40       ?_Getcat@?$num_get@DV?$istreambuf_iterator@DU?$char_traits@D@std@@@std@@@std@@SAIPAPBVfacet@locale@2@PBV42@@Z 10036b40 f i libcpmtd:locale.obj
 0001:00035c40       ?_Getffld@?$num_get@DV?$istreambuf_iterator@DU?$char_traits@D@std@@@std@@@std@@ABAHPADAAV?$istreambuf_iterator@DU?$char_traits@D@std@@@2@1AAVios_base@2@PAH@Z 10036c40 f i libcpmtd:locale.obj
 0001:00036450       ?_Getffldx@?$num_get@DV?$istreambuf_iterator@DU?$char_traits@D@std@@@std@@@std@@ABAHPADAAV?$istreambuf_iterator@DU?$char_traits@D@std@@@2@1AAVios_base@2@PAH@Z 10037450 f i libcpmtd:locale.obj
 0001:00036d40       ?_Getifld@?$num_get@DV?$istreambuf_iterator@DU?$char_traits@D@std@@@std@@@std@@ABAHPADAAV?$istreambuf_iterator@DU?$char_traits@D@std@@@2@1HABVlocale@2@@Z 10037d40 f i libcpmtd:locale.obj
 0001:00037280       ?_Getname@_Locinfo@std@@QBEPBDXZ 10038280 f i libcpmtd:locale.obj
 0001:000372a0       ?_Inc@?$istreambuf_iterator@DU?$char_traits@D@std@@@std@@AAEXXZ 100382a0 f i libcpmtd:locale.obj
 0001:00037300       ?_Init@?$num_get@DV?$istreambuf_iterator@DU?$char_traits@D@std@@@std@@@std@@IAEXABV_Locinfo@2@@Z 10038300 f i libcpmtd:locale.obj
 0001:00037310       ?_Locimp_Addfac@_Locimp@locale@std@@CAXPAV123@PAVfacet@23@I@Z 10038310 f   libcpmtd:locale.obj
 0001:00037450       ?_Locimp_ctor@_Locimp@locale@std@@CAXPAV123@ABV123@@Z 10038450 f   libcpmtd:locale.obj
 0001:00037580       ?_Locinfo_Addcats@_Locinfo@std@@SAAAV12@PAV12@HPBD@Z 10038580 f   libcpmtd:locale.obj
 0001:00037690       ?_Locinfo_ctor@_Locinfo@std@@SAXPAV12@HPBD@Z 10038690 f   libcpmtd:locale.obj
 0001:000376f0       ?_Makeloc@_Locimp@locale@std@@CAPAV123@ABV_Locinfo@3@HPAV123@PBV23@@Z 100386f0 f   libcpmtd:locale.obj
 0001:00037b20       ?_Peek@?$istreambuf_iterator@DU?$char_traits@D@std@@@std@@ABEDXZ 10038b20 f i libcpmtd:locale.obj
 0001:00037b90       ?append@?$basic_string@DU?$char_traits@D@std@@V?$allocator@D@2@@std@@QAEAAV12@ABV12@@Z 10038b90 f i libcpmtd:locale.obj
 0001:00037bc0       ?append@?$basic_string@DU?$char_traits@D@std@@V?$allocator@D@2@@std@@QAEAAV12@ABV12@II@Z 10038bc0 f i libcpmtd:locale.obj
 0001:00037c80       ?do_get@?$num_get@DV?$istreambuf_iterator@DU?$char_traits@D@std@@@std@@@std@@MBE?AV?$istreambuf_iterator@DU?$char_traits@D@std@@@2@V32@0AAVios_base@2@AAHAAG@Z 10038c80 f i libcpmtd:locale.obj
 0001:00037e10       ?do_get@?$num_get@DV?$istreambuf_iterator@DU?$char_traits@D@std@@@std@@@std@@MBE?AV?$istreambuf_iterator@DU?$char_traits@D@std@@@2@V32@0AAVios_base@2@AAHAAI@Z 10038e10 f i libcpmtd:locale.obj
 0001:00037fa0       ?do_get@?$num_get@DV?$istreambuf_iterator@DU?$char_traits@D@std@@@std@@@std@@MBE?AV?$istreambuf_iterator@DU?$char_traits@D@std@@@2@V32@0AAVios_base@2@AAHAAJ@Z 10038fa0 f i libcpmtd:locale.obj
 0001:000380e0       ?do_get@?$num_get@DV?$istreambuf_iterator@DU?$char_traits@D@std@@@std@@@std@@MBE?AV?$istreambuf_iterator@DU?$char_traits@D@std@@@2@V32@0AAVios_base@2@AAHAAK@Z 100390e0 f i libcpmtd:locale.obj
 0001:00038220       ?do_get@?$num_get@DV?$istreambuf_iterator@DU?$char_traits@D@std@@@std@@@std@@MBE?AV?$istreambuf_iterator@DU?$char_traits@D@std@@@2@V32@0AAVios_base@2@AAHAAM@Z 10039220 f i libcpmtd:locale.obj
 0001:00038330       ?do_get@?$num_get@DV?$istreambuf_iterator@DU?$char_traits@D@std@@@std@@@std@@MBE?AV?$istreambuf_iterator@DU?$char_traits@D@std@@@2@V32@0AAVios_base@2@AAHAAN@Z 10039330 f i libcpmtd:locale.obj
 0001:00038440       ?do_get@?$num_get@DV?$istreambuf_iterator@DU?$char_traits@D@std@@@std@@@std@@MBE?AV?$istreambuf_iterator@DU?$char_traits@D@std@@@2@V32@0AAVios_base@2@AAHAAO@Z 10039440 f i libcpmtd:locale.obj
 0001:00038550       ?do_get@?$num_get@DV?$istreambuf_iterator@DU?$char_traits@D@std@@@std@@@std@@MBE?AV?$istreambuf_iterator@DU?$char_traits@D@std@@@2@V32@0AAVios_base@2@AAHAAPAX@Z 10039550 f i libcpmtd:locale.obj
 0001:000386c0       ?do_get@?$num_get@DV?$istreambuf_iterator@DU?$char_traits@D@std@@@std@@@std@@MBE?AV?$istreambuf_iterator@DU?$char_traits@D@std@@@2@V32@0AAVios_base@2@AAHAA_J@Z 100396c0 f i libcpmtd:locale.obj
 0001:00038800       ?do_get@?$num_get@DV?$istreambuf_iterator@DU?$char_traits@D@std@@@std@@@std@@MBE?AV?$istreambuf_iterator@DU?$char_traits@D@std@@@2@V32@0AAVios_base@2@AAHAA_K@Z 10039800 f i libcpmtd:locale.obj
 0001:00038940       ?do_get@?$num_get@DV?$istreambuf_iterator@DU?$char_traits@D@std@@@std@@@std@@MBE?AV?$istreambuf_iterator@DU?$char_traits@D@std@@@2@V32@0AAVios_base@2@AAHAA_N@Z 10039940 f i libcpmtd:locale.obj
 0001:00038c30       ?equal@?$istreambuf_iterator@DU?$char_traits@D@std@@@std@@QBE_NABV12@@Z 10039c30 f i libcpmtd:locale.obj
 0001:00038ca0       ?global@locale@std@@SA?AV12@ABV12@@Z 10039ca0 f   libcpmtd:locale.obj
 0001:00038e00       ?sbumpc@?$basic_streambuf@DU?$char_traits@D@std@@@std@@QAEHXZ 10039e00 f i libcpmtd:locale.obj
 0001:00038e60       ?sgetc@?$basic_streambuf@DU?$char_traits@D@std@@@std@@QAEHXZ 10039e60 f i libcpmtd:locale.obj
 0001:00038ec0       _ldexpf                    10039ec0 f i libcpmtd:locale.obj
 0001:00038ef0       _ldexpl                    10039ef0 f i libcpmtd:locale.obj
 0001:00038f10       ??$?8GG@std@@YA_NABV?$allocator@G@0@0@Z 10039f10 f i libcpmtd:wlocale.obj
 0001:00038f20       ??$?8GU?$char_traits@G@std@@@std@@YA_NABV?$istreambuf_iterator@GU?$char_traits@G@std@@@0@0@Z 10039f20 f i libcpmtd:wlocale.obj
 0001:00038f40       ??$?8V?$allocator@G@std@@V01@@std@@YA_NABU?$_Wrap_alloc@V?$allocator@G@std@@@0@0@Z 10039f40 f i libcpmtd:wlocale.obj
 0001:00038f70       ??$?8V?$allocator@_W@std@@V01@@std@@YA_NABU?$_Wrap_alloc@V?$allocator@_W@std@@@0@0@Z 10039f70 f i libcpmtd:wlocale.obj
 0001:00038fa0       ??$?8_WU?$char_traits@_W@std@@@std@@YA_NABV?$istreambuf_iterator@_WU?$char_traits@_W@std@@@0@0@Z 10039fa0 f i libcpmtd:wlocale.obj
 0001:00038fc0       ??$?8_W_W@std@@YA_NABV?$allocator@_W@0@0@Z 10039fc0 f i libcpmtd:wlocale.obj
 0001:00038fd0       ??$?9GG@std@@YA_NABV?$allocator@G@0@0@Z 10039fd0 f i libcpmtd:wlocale.obj
 0001:00039010       ??$?9GU?$char_traits@G@std@@@std@@YA_NABV?$istreambuf_iterator@GU?$char_traits@G@std@@@0@0@Z 1003a010 f i libcpmtd:wlocale.obj
 0001:00039050       ??$?9V?$allocator@G@std@@V01@@std@@YA_NABU?$_Wrap_alloc@V?$allocator@G@std@@@0@0@Z 1003a050 f i libcpmtd:wlocale.obj
 0001:00039090       ??$?9V?$allocator@_W@std@@V01@@std@@YA_NABU?$_Wrap_alloc@V?$allocator@_W@std@@@0@0@Z 1003a090 f i libcpmtd:wlocale.obj
 0001:000390d0       ??$?9_WU?$char_traits@_W@std@@@std@@YA_NABV?$istreambuf_iterator@_WU?$char_traits@_W@std@@@0@0@Z 1003a0d0 f i libcpmtd:wlocale.obj
 0001:00039110       ??$?9_W_W@std@@YA_NABV?$allocator@_W@0@0@Z 1003a110 f i libcpmtd:wlocale.obj
 0001:00039150       ??$_Allocate@G@std@@YAPAGIPAG@Z 1003a150 f i libcpmtd:wlocale.obj
 0001:00039190       ??$_Allocate@_W@std@@YAPA_WIPA_W@Z 1003a190 f i libcpmtd:wlocale.obj
 0001:000391d0       ??$_Copy_impl@PA_WV?$ostreambuf_iterator@GU?$char_traits@G@std@@@std@@@std@@YA?AV?$ostreambuf_iterator@GU?$char_traits@G@std@@@0@PA_W0V10@@Z 1003a1d0 f i libcpmtd:wlocale.obj
 0001:00039210       ??$_Copy_impl@PA_WV?$ostreambuf_iterator@GU?$char_traits@G@std@@@std@@@std@@YA?AV?$ostreambuf_iterator@GU?$char_traits@G@std@@@0@PA_W0V10@U?$integral_constant@_N$00@0@@Z 1003a210 f i libcpmtd:wlocale.obj
 0001:00039260       ??$_Copy_impl@PA_WV?$ostreambuf_iterator@GU?$char_traits@G@std@@@std@@@std@@YA?AV?$ostreambuf_iterator@GU?$char_traits@G@std@@@0@PA_W0V10@U_Nonscalar_ptr_iterator_tag@0@@Z 1003a260 f i libcpmtd:wlocale.obj
 0001:000392b0       ??$_Copy_impl@PA_WV?$ostreambuf_iterator@GU?$char_traits@G@std@@@std@@@std@@YA?AV?$ostreambuf_iterator@GU?$char_traits@G@std@@@0@PA_W0V10@Uinput_iterator_tag@0@Uoutput_iterator_tag@0@@Z 1003a2b0 f i libcpmtd:wlocale.obj
 0001:000392e0       ??$_Copy_impl@PA_WV?$ostreambuf_iterator@_WU?$char_traits@_W@std@@@std@@@std@@YA?AV?$ostreambuf_iterator@_WU?$char_traits@_W@std@@@0@PA_W0V10@@Z 1003a2e0 f i libcpmtd:wlocale.obj
 0001:00039320       ??$_Copy_impl@PA_WV?$ostreambuf_iterator@_WU?$char_traits@_W@std@@@std@@@std@@YA?AV?$ostreambuf_iterator@_WU?$char_traits@_W@std@@@0@PA_W0V10@U?$integral_constant@_N$00@0@@Z 1003a320 f i libcpmtd:wlocale.obj
 0001:00039370       ??$_Copy_impl@PA_WV?$ostreambuf_iterator@_WU?$char_traits@_W@std@@@std@@@std@@YA?AV?$ostreambuf_iterator@_WU?$char_traits@_W@std@@@0@PA_W0V10@U_Nonscalar_ptr_iterator_tag@0@@Z 1003a370 f i libcpmtd:wlocale.obj
 0001:000393c0       ??$_Copy_impl@PA_WV?$ostreambuf_iterator@_WU?$char_traits@_W@std@@@std@@@std@@YA?AV?$ostreambuf_iterator@_WU?$char_traits@_W@std@@@0@PA_W0V10@Uinput_iterator_tag@0@Uoutput_iterator_tag@0@@Z 1003a3c0 f i libcpmtd:wlocale.obj
 0001:000393f0       ??$_Debug_pointer@F@std@@YAXPAFPB_WI@Z 1003a3f0 f i libcpmtd:wlocale.obj
 0001:00039410       ??$_Debug_pointer@G@std@@YAXPAGPB_WI@Z 1003a410 f i libcpmtd:wlocale.obj
 0001:00039430       ??$_Debug_pointer@G@std@@YAXPBGPB_WI@Z 1003a430 f i libcpmtd:wlocale.obj
 0001:00039450       ??$_Debug_pointer@Utm@@@std@@YAXPAUtm@@PB_WI@Z 1003a450 f i libcpmtd:wlocale.obj
 0001:00039470       ??$_Debug_pointer@Utm@@@std@@YAXPBUtm@@PB_WI@Z 1003a470 f i libcpmtd:wlocale.obj
 0001:00039490       ??$_Debug_pointer@V?$ostreambuf_iterator@GU?$char_traits@G@std@@@std@@@std@@YAXAAV?$ostreambuf_iterator@GU?$char_traits@G@std@@@0@PB_WI@Z 1003a490 f i libcpmtd:wlocale.obj
 0001:000394a0       ??$_Debug_pointer@V?$ostreambuf_iterator@_WU?$char_traits@_W@std@@@std@@@std@@YAXAAV?$ostreambuf_iterator@_WU?$char_traits@_W@std@@@0@PB_WI@Z 1003a4a0 f i libcpmtd:wlocale.obj
 0001:000394b0       ??$_Debug_pointer@_W@std@@YAXPA_WPB_WI@Z 1003a4b0 f i libcpmtd:wlocale.obj
 0001:000394d0       ??$_Debug_pointer@_W@std@@YAXPB_W0I@Z 1003a4d0 f i libcpmtd:wlocale.obj
 0001:000394f0       ??$_Debug_range2@PAD@std@@YAXPAD0PB_WIUrandom_access_iterator_tag@0@@Z 1003a4f0 f i libcpmtd:wlocale.obj
 0001:00039550       ??$_Debug_range2@PAG@std@@YAXPAG0PB_WIUrandom_access_iterator_tag@0@@Z 1003a550 f i libcpmtd:wlocale.obj
 0001:000395b0       ??$_Debug_range2@PA_W@std@@YAXPA_W0PB_WIUrandom_access_iterator_tag@0@@Z 1003a5b0 f i libcpmtd:wlocale.obj
 0001:00039610       ??$_Debug_range2@PBG@std@@YAXPBG0PB_WIUrandom_access_iterator_tag@0@@Z 1003a610 f i libcpmtd:wlocale.obj
 0001:00039670       ??$_Debug_range2@PB_W@std@@YAXPB_W00IUrandom_access_iterator_tag@0@@Z 1003a670 f i libcpmtd:wlocale.obj
 0001:000396d0       ??$_Debug_range2@V?$istreambuf_iterator@GU?$char_traits@G@std@@@std@@@std@@YAXV?$istreambuf_iterator@GU?$char_traits@G@std@@@0@0PB_WIUinput_iterator_tag@0@@Z 1003a6d0 f i libcpmtd:wlocale.obj
 0001:00039700       ??$_Debug_range2@V?$istreambuf_iterator@_WU?$char_traits@_W@std@@@std@@@std@@YAXV?$istreambuf_iterator@_WU?$char_traits@_W@std@@@0@0PB_WIUinput_iterator_tag@0@@Z 1003a700 f i libcpmtd:wlocale.obj
 0001:00039730       ??$_Debug_range@PAD@std@@YAXPAD0PB_WI@Z 1003a730 f i libcpmtd:wlocale.obj
 0001:00039770       ??$_Debug_range@PAG@std@@YAXPAG0PB_WI@Z 1003a770 f i libcpmtd:wlocale.obj
 0001:000397b0       ??$_Debug_range@PA_W@std@@YAXPA_W0PB_WI@Z 1003a7b0 f i libcpmtd:wlocale.obj
 0001:000397f0       ??$_Debug_range@PBG@std@@YAXPBG0PB_WI@Z 1003a7f0 f i libcpmtd:wlocale.obj
 0001:00039830       ??$_Debug_range@PB_W@std@@YAXPB_W00I@Z 1003a830 f i libcpmtd:wlocale.obj
 0001:00039870       ??$_Debug_range@V?$istreambuf_iterator@GU?$char_traits@G@std@@@std@@@std@@YAXV?$istreambuf_iterator@GU?$char_traits@G@std@@@0@0PB_WI@Z 1003a870 f i libcpmtd:wlocale.obj
 0001:000398b0       ??$_Debug_range@V?$istreambuf_iterator@_WU?$char_traits@_W@std@@@std@@@std@@YAXV?$istreambuf_iterator@_WU?$char_traits@_W@std@@@0@0PB_WI@Z 1003a8b0 f i libcpmtd:wlocale.obj
 0001:000398f0       ??$_Find_elem@G@std@@YAIPAGG@Z 1003a8f0 f i libcpmtd:wlocale.obj
 0001:00039930       ??$_Find_elem@_W@std@@YAIPA_W_W@Z 1003a930 f i libcpmtd:wlocale.obj
 0001:00039970       ??$_Getloctxt@DV?$istreambuf_iterator@GU?$char_traits@G@std@@@std@@@std@@YAHAAV?$istreambuf_iterator@GU?$char_traits@G@std@@@0@0IPBD@Z 1003a970 f i libcpmtd:wlocale.obj
 0001:00039bc0       ??$_Getloctxt@DV?$istreambuf_iterator@_WU?$char_traits@_W@std@@@std@@@std@@YAHAAV?$istreambuf_iterator@_WU?$char_traits@_W@std@@@0@0IPBD@Z 1003abc0 f i libcpmtd:wlocale.obj
 0001:00039e10       ??$_Getloctxt@GV?$istreambuf_iterator@GU?$char_traits@G@std@@@std@@@std@@YAHAAV?$istreambuf_iterator@GU?$char_traits@G@std@@@0@0IPBG@Z 1003ae10 f i libcpmtd:wlocale.obj
 0001:0003a070       ??$_Getloctxt@_WV?$istreambuf_iterator@_WU?$char_traits@_W@std@@@std@@@std@@YAHAAV?$istreambuf_iterator@_WU?$char_traits@_W@std@@@0@0IPB_W@Z 1003b070 f i libcpmtd:wlocale.obj
 0001:0003a2d0       ??$_Getvals@G@?$_Mpunct@G@std@@IAEXGPBUlconv@@@Z 1003b2d0 f i libcpmtd:wlocale.obj
 0001:0003a3f0       ??$_Getvals@G@?$numpunct@G@std@@IAEXGPBUlconv@@U_Cvtvec@@@Z 1003b3f0 f i libcpmtd:wlocale.obj
 0001:0003a450       ??$_Getvals@G@?$time_get@GV?$istreambuf_iterator@GU?$char_traits@G@std@@@std@@@std@@IAEXGABV_Locinfo@1@@Z 1003b450 f i libcpmtd:wlocale.obj
 0001:0003a4f0       ??$_Getvals@_W@?$_Mpunct@_W@std@@IAEX_WPBUlconv@@@Z 1003b4f0 f i libcpmtd:wlocale.obj
 0001:0003a5d0       ??$_Getvals@_W@?$numpunct@_W@std@@IAEX_WPBUlconv@@U_Cvtvec@@@Z 1003b5d0 f i libcpmtd:wlocale.obj
 0001:0003a610       ??$_Getvals@_W@?$time_get@_WV?$istreambuf_iterator@_WU?$char_traits@_W@std@@@std@@@std@@IAEX_WABV_Locinfo@1@@Z 1003b610 f i libcpmtd:wlocale.obj
 0001:0003a6a0       ??$_Is_checked@V?$ostreambuf_iterator@GU?$char_traits@G@std@@@std@@@std@@YA?AU?$integral_constant@_N$00@0@V?$ostreambuf_iterator@GU?$char_traits@G@std@@@0@@Z 1003b6a0 f i libcpmtd:wlocale.obj
 0001:0003a6b0       ??$_Is_checked@V?$ostreambuf_iterator@_WU?$char_traits@_W@std@@@std@@@std@@YA?AU?$integral_constant@_N$00@0@V?$ostreambuf_iterator@_WU?$char_traits@_W@std@@@0@@Z 1003b6b0 f i libcpmtd:wlocale.obj
 0001:0003a6c0       ??$_Iter_cat@PAD@std@@YA?AUrandom_access_iterator_tag@0@ABQAD@Z 1003b6c0 f i libcpmtd:wlocale.obj
 0001:0003a6e0       ??$_Iter_cat@PAG@std@@YA?AUrandom_access_iterator_tag@0@ABQAG@Z 1003b6e0 f i libcpmtd:wlocale.obj
 0001:0003a700       ??$_Iter_cat@PA_W@std@@YA?AUrandom_access_iterator_tag@0@ABQA_W@Z 1003b700 f i libcpmtd:wlocale.obj
 0001:0003a720       ??$_Iter_cat@PBG@std@@YA?AUrandom_access_iterator_tag@0@ABQBG@Z 1003b720 f i libcpmtd:wlocale.obj
 0001:0003a740       ??$_Iter_cat@PB_W@std@@YA?AUrandom_access_iterator_tag@0@ABQB_W@Z 1003b740 f i libcpmtd:wlocale.obj
 0001:0003a760       ??$_Iter_cat@V?$istreambuf_iterator@GU?$char_traits@G@std@@@std@@@std@@YA?AUinput_iterator_tag@0@ABV?$istreambuf_iterator@GU?$char_traits@G@std@@@0@@Z 1003b760 f i libcpmtd:wlocale.obj
 0001:0003a770       ??$_Iter_cat@V?$istreambuf_iterator@_WU?$char_traits@_W@std@@@std@@@std@@YA?AUinput_iterator_tag@0@ABV?$istreambuf_iterator@_WU?$char_traits@_W@std@@@0@@Z 1003b770 f i libcpmtd:wlocale.obj
 0001:0003a780       ??$_Iter_cat@V?$ostreambuf_iterator@GU?$char_traits@G@std@@@std@@@std@@YA?AUoutput_iterator_tag@0@ABV?$ostreambuf_iterator@GU?$char_traits@G@std@@@0@@Z 1003b780 f i libcpmtd:wlocale.obj
 0001:0003a790       ??$_Iter_cat@V?$ostreambuf_iterator@_WU?$char_traits@_W@std@@@std@@@std@@YA?AUoutput_iterator_tag@0@ABV?$ostreambuf_iterator@_WU?$char_traits@_W@std@@@0@@Z 1003b790 f i libcpmtd:wlocale.obj
 0001:0003a7a0       ??$_LStrcoll@G@std@@YAHPBG000PBU_Collvec@@@Z 1003b7a0 f i libcpmtd:wlocale.obj
 0001:0003a830       ??$_LStrcoll@_W@std@@YAHPB_W000PBU_Collvec@@@Z 1003b830 f i libcpmtd:wlocale.obj
 0001:0003a860       ??$_LStrxfrm@G@std@@YAIPAG0PBG1PBU_Collvec@@@Z 1003b860 f i libcpmtd:wlocale.obj
 0001:0003a8b0       ??$_LStrxfrm@_W@std@@YAIPA_W0PB_W1PBU_Collvec@@@Z 1003b8b0 f i libcpmtd:wlocale.obj
 0001:0003a8e0       ??$_Maklocchr@G@std@@YAGDPAGABU_Cvtvec@@@Z 1003b8e0 f i libcpmtd:wlocale.obj
 0001:0003a920       ??$_Maklocchr@_W@std@@YA_WDPA_WABU_Cvtvec@@@Z 1003b920 f i libcpmtd:wlocale.obj
 0001:0003a960       ??$_Maklocstr@G@std@@YAPAGPBDPAGABU_Cvtvec@@@Z 1003b960 f i libcpmtd:wlocale.obj
 0001:0003aa90       ??$_Maklocstr@_W@std@@YAPA_WPBDPA_WABU_Cvtvec@@@Z 1003ba90 f i libcpmtd:wlocale.obj
 0001:0003abc0       ??$_Ptr_cat@PA_WV?$ostreambuf_iterator@GU?$char_traits@G@std@@@std@@@std@@YA?AU_Nonscalar_ptr_iterator_tag@0@AAPA_WAAV?$ostreambuf_iterator@GU?$char_traits@G@std@@@0@@Z 1003bbc0 f i libcpmtd:wlocale.obj
 0001:0003abd0       ??$_Ptr_cat@PA_WV?$ostreambuf_iterator@_WU?$char_traits@_W@std@@@std@@@std@@YA?AU_Nonscalar_ptr_iterator_tag@0@AAPA_WAAV?$ostreambuf_iterator@_WU?$char_traits@_W@std@@@0@@Z 1003bbd0 f i libcpmtd:wlocale.obj
 0001:0003abe0       ??$_Unchecked@PA_W@std@@YAPA_WPA_W@Z 1003bbe0 f i libcpmtd:wlocale.obj
 0001:0003abf0       ??$addressof@G@std@@YAPAGAAG@Z 1003bbf0 f i libcpmtd:wlocale.obj
 0001:0003ac00       ??$addressof@_W@std@@YAPA_WAA_W@Z 1003bc00 f i libcpmtd:wlocale.obj
 0001:0003ac10       ??$assign@V?$_String_iterator@V?$_String_val@U?$_Simple_types@G@std@@@std@@@std@@@?$basic_string@GU?$char_traits@G@std@@V?$allocator@G@2@@std@@QAEAAV01@V?$_String_iterator@V?$_String_val@U?$_Simple_types@G@std@@@std@@@1@0@Z 1003bc10 f i libcpmtd:wlocale.obj
 0001:0003ad40       ??$assign@V?$_String_iterator@V?$_String_val@U?$_Simple_types@_W@std@@@std@@@std@@@?$basic_string@_WU?$char_traits@_W@std@@V?$allocator@_W@2@@std@@QAEAAV01@V?$_String_iterator@V?$_String_val@U?$_Simple_types@_W@std@@@std@@@1@0@Z 1003bd40 f i libcpmtd:wlocale.obj
 0001:0003ae70       ??$construct@PAGAAPAG@?$_Wrap_alloc@V?$allocator@G@std@@@std@@QAEXPAPAGAAPAG@Z 1003be70 f i libcpmtd:wlocale.obj
 0001:0003aea0       ??$construct@PAGAAPAG@?$allocator@G@std@@QAEXPAPAGAAPAG@Z 1003bea0 f i libcpmtd:wlocale.obj
 0001:0003af30       ??$construct@PAGAAPAG@?$allocator_traits@V?$allocator@G@std@@@std@@SAXAAV?$allocator@G@1@PAPAGAAPAG@Z 1003bf30 f i libcpmtd:wlocale.obj
 0001:0003af50       ??$construct@PA_WAAPA_W@?$_Wrap_alloc@V?$allocator@_W@std@@@std@@QAEXPAPA_WAAPA_W@Z 1003bf50 f i libcpmtd:wlocale.obj
 0001:0003af80       ??$construct@PA_WAAPA_W@?$allocator@_W@std@@QAEXPAPA_WAAPA_W@Z 1003bf80 f i libcpmtd:wlocale.obj
 0001:0003b010       ??$construct@PA_WAAPA_W@?$allocator_traits@V?$allocator@_W@std@@@std@@SAXAAV?$allocator@_W@1@PAPA_WAAPA_W@Z 1003c010 f i libcpmtd:wlocale.obj
 0001:0003b030       ??$copy@PA_WV?$ostreambuf_iterator@GU?$char_traits@G@std@@@std@@@std@@YA?AV?$ostreambuf_iterator@GU?$char_traits@G@std@@@0@PA_W0V10@@Z 1003c030 f i libcpmtd:wlocale.obj
 0001:0003b0d0       ??$copy@PA_WV?$ostreambuf_iterator@_WU?$char_traits@_W@std@@@std@@@std@@YA?AV?$ostreambuf_iterator@_WU?$char_traits@_W@std@@@0@PA_W0V10@@Z 1003c0d0 f i libcpmtd:wlocale.obj
 0001:0003b170       ??$destroy@PAG@?$_Wrap_alloc@V?$allocator@G@std@@@std@@QAEXPAPAG@Z 1003c170 f i libcpmtd:wlocale.obj
 0001:0003b190       ??$destroy@PAG@?$allocator@G@std@@QAEXPAPAG@Z 1003c190 f i libcpmtd:wlocale.obj
 0001:0003b1a0       ??$destroy@PAG@?$allocator_traits@V?$allocator@G@std@@@std@@SAXAAV?$allocator@G@1@PAPAG@Z 1003c1a0 f i libcpmtd:wlocale.obj
 0001:0003b1c0       ??$destroy@PA_W@?$_Wrap_alloc@V?$allocator@_W@std@@@std@@QAEXPAPA_W@Z 1003c1c0 f i libcpmtd:wlocale.obj
 0001:0003b1e0       ??$destroy@PA_W@?$allocator@_W@std@@QAEXPAPA_W@Z 1003c1e0 f i libcpmtd:wlocale.obj
 0001:0003b1f0       ??$destroy@PA_W@?$allocator_traits@V?$allocator@_W@std@@@std@@SAXAAV?$allocator@_W@1@PAPA_W@Z 1003c1f0 f i libcpmtd:wlocale.obj
 0001:0003b210       ??$forward@AAPAG@std@@YAAAPAGAAPAG@Z 1003c210 f i libcpmtd:wlocale.obj
 0001:0003b220       ??$forward@AAPA_W@std@@YAAAPA_WAAPA_W@Z 1003c220 f i libcpmtd:wlocale.obj
 0001:0003b230       ??$forward@V?$basic_string@GU?$char_traits@G@std@@V?$allocator@G@2@@std@@@std@@YA$$QAV?$basic_string@GU?$char_traits@G@std@@V?$allocator@G@2@@0@AAV10@@Z 1003c230 f i libcpmtd:wlocale.obj
 0001:0003b240       ??$forward@V?$basic_string@_WU?$char_traits@_W@std@@V?$allocator@_W@2@@std@@@std@@YA$$QAV?$basic_string@_WU?$char_traits@_W@std@@V?$allocator@_W@2@@0@AAV10@@Z 1003c240 f i libcpmtd:wlocale.obj
 0001:0003b250       ??$use_facet@V?$codecvt@GDH@std@@@std@@YAABV?$codecvt@GDH@0@ABVlocale@0@@Z 1003c250 f i libcpmtd:wlocale.obj
 0001:0003b350       ??$use_facet@V?$codecvt@_WDH@std@@@std@@YAABV?$codecvt@_WDH@0@ABVlocale@0@@Z 1003c350 f i libcpmtd:wlocale.obj
 0001:0003b450       ??$use_facet@V?$collate@G@std@@@std@@YAABV?$collate@G@0@ABVlocale@0@@Z 1003c450 f i libcpmtd:wlocale.obj
 0001:0003b550       ??$use_facet@V?$collate@_W@std@@@std@@YAABV?$collate@_W@0@ABVlocale@0@@Z 1003c550 f i libcpmtd:wlocale.obj
 0001:0003b650       ??$use_facet@V?$ctype@G@std@@@std@@YAABV?$ctype@G@0@ABVlocale@0@@Z 1003c650 f i libcpmtd:wlocale.obj
 0001:0003b750       ??$use_facet@V?$ctype@_W@std@@@std@@YAABV?$ctype@_W@0@ABVlocale@0@@Z 1003c750 f i libcpmtd:wlocale.obj
 0001:0003b850       ??$use_facet@V?$messages@G@std@@@std@@YAABV?$messages@G@0@ABVlocale@0@@Z 1003c850 f i libcpmtd:wlocale.obj
 0001:0003b950       ??$use_facet@V?$messages@_W@std@@@std@@YAABV?$messages@_W@0@ABVlocale@0@@Z 1003c950 f i libcpmtd:wlocale.obj
 0001:0003ba50       ??$use_facet@V?$money_get@GV?$istreambuf_iterator@GU?$char_traits@G@std@@@std@@@std@@@std@@YAABV?$money_get@GV?$istreambuf_iterator@GU?$char_traits@G@std@@@std@@@0@ABVlocale@0@@Z 1003ca50 f i libcpmtd:wlocale.obj
 0001:0003bb50       ??$use_facet@V?$money_get@_WV?$istreambuf_iterator@_WU?$char_traits@_W@std@@@std@@@std@@@std@@YAABV?$money_get@_WV?$istreambuf_iterator@_WU?$char_traits@_W@std@@@std@@@0@ABVlocale@0@@Z 1003cb50 f i libcpmtd:wlocale.obj
 0001:0003bc50       ??$use_facet@V?$money_put@GV?$ostreambuf_iterator@GU?$char_traits@G@std@@@std@@@std@@@std@@YAABV?$money_put@GV?$ostreambuf_iterator@GU?$char_traits@G@std@@@std@@@0@ABVlocale@0@@Z 1003cc50 f i libcpmtd:wlocale.obj
 0001:0003bd50       ??$use_facet@V?$money_put@_WV?$ostreambuf_iterator@_WU?$char_traits@_W@std@@@std@@@std@@@std@@YAABV?$money_put@_WV?$ostreambuf_iterator@_WU?$char_traits@_W@std@@@std@@@0@ABVlocale@0@@Z 1003cd50 f i libcpmtd:wlocale.obj
 0001:0003be50       ??$use_facet@V?$moneypunct@G$00@std@@@std@@YAABV?$moneypunct@G$00@0@ABVlocale@0@@Z 1003ce50 f i libcpmtd:wlocale.obj
 0001:0003bf50       ??$use_facet@V?$moneypunct@G$0A@@std@@@std@@YAABV?$moneypunct@G$0A@@0@ABVlocale@0@@Z 1003cf50 f i libcpmtd:wlocale.obj
 0001:0003c050       ??$use_facet@V?$moneypunct@_W$00@std@@@std@@YAABV?$moneypunct@_W$00@0@ABVlocale@0@@Z 1003d050 f i libcpmtd:wlocale.obj
 0001:0003c150       ??$use_facet@V?$moneypunct@_W$0A@@std@@@std@@YAABV?$moneypunct@_W$0A@@0@ABVlocale@0@@Z 1003d150 f i libcpmtd:wlocale.obj
 0001:0003c250       ??$use_facet@V?$num_get@GV?$istreambuf_iterator@GU?$char_traits@G@std@@@std@@@std@@@std@@YAABV?$num_get@GV?$istreambuf_iterator@GU?$char_traits@G@std@@@std@@@0@ABVlocale@0@@Z 1003d250 f i libcpmtd:wlocale.obj
 0001:0003c350       ??$use_facet@V?$num_get@_WV?$istreambuf_iterator@_WU?$char_traits@_W@std@@@std@@@std@@@std@@YAABV?$num_get@_WV?$istreambuf_iterator@_WU?$char_traits@_W@std@@@std@@@0@ABVlocale@0@@Z 1003d350 f i libcpmtd:wlocale.obj
 0001:0003c450       ??$use_facet@V?$num_put@GV?$ostreambuf_iterator@GU?$char_traits@G@std@@@std@@@std@@@std@@YAABV?$num_put@GV?$ostreambuf_iterator@GU?$char_traits@G@std@@@std@@@0@ABVlocale@0@@Z 1003d450 f i libcpmtd:wlocale.obj
 0001:0003c550       ??$use_facet@V?$num_put@_WV?$ostreambuf_iterator@_WU?$char_traits@_W@std@@@std@@@std@@@std@@YAABV?$num_put@_WV?$ostreambuf_iterator@_WU?$char_traits@_W@std@@@std@@@0@ABVlocale@0@@Z 1003d550 f i libcpmtd:wlocale.obj
 0001:0003c650       ??$use_facet@V?$numpunct@G@std@@@std@@YAABV?$numpunct@G@0@ABVlocale@0@@Z 1003d650 f i libcpmtd:wlocale.obj
 0001:0003c750       ??$use_facet@V?$numpunct@_W@std@@@std@@YAABV?$numpunct@_W@0@ABVlocale@0@@Z 1003d750 f i libcpmtd:wlocale.obj
 0001:0003c850       ??$use_facet@V?$time_get@GV?$istreambuf_iterator@GU?$char_traits@G@std@@@std@@@std@@@std@@YAABV?$time_get@GV?$istreambuf_iterator@GU?$char_traits@G@std@@@std@@@0@ABVlocale@0@@Z 1003d850 f i libcpmtd:wlocale.obj
 0001:0003c950       ??$use_facet@V?$time_get@_WV?$istreambuf_iterator@_WU?$char_traits@_W@std@@@std@@@std@@@std@@YAABV?$time_get@_WV?$istreambuf_iterator@_WU?$char_traits@_W@std@@@std@@@0@ABVlocale@0@@Z 1003d950 f i libcpmtd:wlocale.obj
 0001:0003ca50       ??$use_facet@V?$time_put@GV?$ostreambuf_iterator@GU?$char_traits@G@std@@@std@@@std@@@std@@YAABV?$time_put@GV?$ostreambuf_iterator@GU?$char_traits@G@std@@@std@@@0@ABVlocale@0@@Z 1003da50 f i libcpmtd:wlocale.obj
 0001:0003cb50       ??$use_facet@V?$time_put@_WV?$ostreambuf_iterator@_WU?$char_traits@_W@std@@@std@@@std@@@std@@YAABV?$time_put@_WV?$ostreambuf_iterator@_WU?$char_traits@_W@std@@@std@@@0@ABVlocale@0@@Z 1003db50 f i libcpmtd:wlocale.obj
 0001:0003cc50       ??0?$_Iterator012@Urandom_access_iterator_tag@std@@GHPBGABGU_Iterator_base12@2@@std@@QAE@ABU01@@Z 1003dc50 f i libcpmtd:wlocale.obj
 0001:0003cc70       ??0?$_Iterator012@Urandom_access_iterator_tag@std@@GHPBGABGU_Iterator_base12@2@@std@@QAE@XZ 1003dc70 f i libcpmtd:wlocale.obj
 0001:0003cc90       ??0?$_Iterator012@Urandom_access_iterator_tag@std@@_WHPB_WAB_WU_Iterator_base12@2@@std@@QAE@ABU01@@Z 1003dc90 f i libcpmtd:wlocale.obj
 0001:0003ccb0       ??0?$_Iterator012@Urandom_access_iterator_tag@std@@_WHPB_WAB_WU_Iterator_base12@2@@std@@QAE@XZ 1003dcb0 f i libcpmtd:wlocale.obj
 0001:0003ccd0       ??0?$_Mpunct@G@std@@QAE@ABV_Locinfo@1@I_N1@Z 1003dcd0 f i libcpmtd:wlocale.obj
 0001:0003cd50       ??0?$_Mpunct@_W@std@@QAE@ABV_Locinfo@1@I_N1@Z 1003dd50 f i libcpmtd:wlocale.obj
 0001:0003cdd0       ??0?$_String_alloc@$0A@U?$_String_base_types@GV?$allocator@G@std@@@std@@@std@@QAE@ABV?$allocator@G@1@@Z 1003ddd0 f i libcpmtd:wlocale.obj
 0001:0003ce30       ??0?$_String_alloc@$0A@U?$_String_base_types@_WV?$allocator@_W@std@@@std@@@std@@QAE@ABV?$allocator@_W@1@@Z 1003de30 f i libcpmtd:wlocale.obj
 0001:0003ce90       ??0?$_String_const_iterator@V?$_String_val@U?$_Simple_types@G@std@@@std@@@std@@QAE@ABV01@@Z 1003de90 f i libcpmtd:wlocale.obj
 0001:0003cec0       ??0?$_String_const_iterator@V?$_String_val@U?$_Simple_types@G@std@@@std@@@std@@QAE@PBGPBU_Container_base12@1@@Z 1003dec0 f i libcpmtd:wlocale.obj
 0001:0003cf30       ??0?$_String_const_iterator@V?$_String_val@U?$_Simple_types@G@std@@@std@@@std@@QAE@XZ 1003df30 f i libcpmtd:wlocale.obj
 0001:0003cf50       ??0?$_String_const_iterator@V?$_String_val@U?$_Simple_types@_W@std@@@std@@@std@@QAE@ABV01@@Z 1003df50 f i libcpmtd:wlocale.obj
 0001:0003cf80       ??0?$_String_const_iterator@V?$_String_val@U?$_Simple_types@_W@std@@@std@@@std@@QAE@PB_WPBU_Container_base12@1@@Z 1003df80 f i libcpmtd:wlocale.obj
 0001:0003cff0       ??0?$_String_const_iterator@V?$_String_val@U?$_Simple_types@_W@std@@@std@@@std@@QAE@XZ 1003dff0 f i libcpmtd:wlocale.obj
 0001:0003d010       ??0?$_String_iterator@V?$_String_val@U?$_Simple_types@G@std@@@std@@@std@@QAE@ABV01@@Z 1003e010 f i libcpmtd:wlocale.obj
 0001:0003d030       ??0?$_String_iterator@V?$_String_val@U?$_Simple_types@G@std@@@std@@@std@@QAE@PAGPBU_Container_base12@1@@Z 1003e030 f i libcpmtd:wlocale.obj
 0001:0003d050       ??0?$_String_iterator@V?$_String_val@U?$_Simple_types@_W@std@@@std@@@std@@QAE@ABV01@@Z 1003e050 f i libcpmtd:wlocale.obj
 0001:0003d070       ??0?$_String_iterator@V?$_String_val@U?$_Simple_types@_W@std@@@std@@@std@@QAE@PA_WPBU_Container_base12@1@@Z 1003e070 f i libcpmtd:wlocale.obj
 0001:0003d090       ??0?$_String_val@U?$_Simple_types@G@std@@@std@@QAE@XZ 1003e090 f i libcpmtd:wlocale.obj
 0001:0003d0c0       ??0?$_String_val@U?$_Simple_types@_W@std@@@std@@QAE@XZ 1003e0c0 f i libcpmtd:wlocale.obj
 0001:0003d0f0       ??0?$_Wrap_alloc@V?$allocator@G@std@@@std@@QAE@ABV?$allocator@G@1@@Z 1003e0f0 f i libcpmtd:wlocale.obj
 0001:0003d110       ??0?$_Wrap_alloc@V?$allocator@G@std@@@std@@QAE@XZ 1003e110 f i libcpmtd:wlocale.obj
 0001:0003d130       ??0?$_Wrap_alloc@V?$allocator@_W@std@@@std@@QAE@ABV?$allocator@_W@1@@Z 1003e130 f i libcpmtd:wlocale.obj
 0001:0003d150       ??0?$_Wrap_alloc@V?$allocator@_W@std@@@std@@QAE@XZ 1003e150 f i libcpmtd:wlocale.obj
 0001:0003d170       ??0?$allocator@G@std@@QAE@ABV01@@Z 1003e170 f i libcpmtd:wlocale.obj
 0001:0003d180       ??0?$allocator@G@std@@QAE@XZ 1003e180 f i libcpmtd:wlocale.obj
 0001:0003d190       ??0?$allocator@_W@std@@QAE@ABV01@@Z 1003e190 f i libcpmtd:wlocale.obj
 0001:0003d1a0       ??0?$allocator@_W@std@@QAE@XZ 1003e1a0 f i libcpmtd:wlocale.obj
 0001:0003d1b0       ??0?$basic_string@DU?$char_traits@D@std@@V?$allocator@D@2@@std@@QAE@$$QAV01@@Z 1003e1b0 f i libcpmtd:wlocale.obj
 0001:0003d200       ??0?$basic_string@GU?$char_traits@G@std@@V?$allocator@G@2@@std@@QAE@$$QAV01@@Z 1003e200 f i libcpmtd:wlocale.obj
 0001:0003d250       ??0?$basic_string@GU?$char_traits@G@std@@V?$allocator@G@2@@std@@QAE@ABV01@@Z 1003e250 f i libcpmtd:wlocale.obj
 0001:0003d2e0       ??0?$basic_string@GU?$char_traits@G@std@@V?$allocator@G@2@@std@@QAE@IG@Z 1003e2e0 f i libcpmtd:wlocale.obj
 0001:0003d360       ??0?$basic_string@GU?$char_traits@G@std@@V?$allocator@G@2@@std@@QAE@PBG@Z 1003e360 f i libcpmtd:wlocale.obj
 0001:0003d3e0       ??0?$basic_string@GU?$char_traits@G@std@@V?$allocator@G@2@@std@@QAE@PBGI@Z 1003e3e0 f i libcpmtd:wlocale.obj
 0001:0003d460       ??0?$basic_string@GU?$char_traits@G@std@@V?$allocator@G@2@@std@@QAE@XZ 1003e460 f i libcpmtd:wlocale.obj
 0001:0003d4d0       ??0?$basic_string@_WU?$char_traits@_W@std@@V?$allocator@_W@2@@std@@QAE@$$QAV01@@Z 1003e4d0 f i libcpmtd:wlocale.obj
 0001:0003d520       ??0?$basic_string@_WU?$char_traits@_W@std@@V?$allocator@_W@2@@std@@QAE@ABV01@@Z 1003e520 f i libcpmtd:wlocale.obj
 0001:0003d5b0       ??0?$basic_string@_WU?$char_traits@_W@std@@V?$allocator@_W@2@@std@@QAE@I_W@Z 1003e5b0 f i libcpmtd:wlocale.obj
 0001:0003d630       ??0?$basic_string@_WU?$char_traits@_W@std@@V?$allocator@_W@2@@std@@QAE@PB_W@Z 1003e630 f i libcpmtd:wlocale.obj
 0001:0003d6b0       ??0?$basic_string@_WU?$char_traits@_W@std@@V?$allocator@_W@2@@std@@QAE@PB_WI@Z 1003e6b0 f i libcpmtd:wlocale.obj
 0001:0003d730       ??0?$basic_string@_WU?$char_traits@_W@std@@V?$allocator@_W@2@@std@@QAE@XZ 1003e730 f i libcpmtd:wlocale.obj
 0001:0003d7a0       ??0?$codecvt@GDH@std@@QAE@ABV_Locinfo@1@I@Z 1003e7a0 f i libcpmtd:wlocale.obj
 0001:0003d810       ??0?$codecvt@_WDH@std@@QAE@ABV_Locinfo@1@I@Z 1003e810 f i libcpmtd:wlocale.obj
 0001:0003d880       ??0?$collate@G@std@@QAE@ABV_Locinfo@1@I@Z 1003e880 f i libcpmtd:wlocale.obj
 0001:0003d8f0       ??0?$collate@_W@std@@QAE@ABV_Locinfo@1@I@Z 1003e8f0 f i libcpmtd:wlocale.obj
 0001:0003d960       ??0?$ctype@G@std@@QAE@ABV_Locinfo@1@I@Z 1003e960 f i libcpmtd:wlocale.obj
 0001:0003d9d0       ??0?$ctype@_W@std@@QAE@ABV_Locinfo@1@I@Z 1003e9d0 f i libcpmtd:wlocale.obj
 0001:0003da40       ??0?$messages@G@std@@QAE@ABV_Locinfo@1@I@Z 1003ea40 f i libcpmtd:wlocale.obj
 0001:0003dab0       ??0?$messages@_W@std@@QAE@ABV_Locinfo@1@I@Z 1003eab0 f i libcpmtd:wlocale.obj
 0001:0003db20       ??0?$money_get@GV?$istreambuf_iterator@GU?$char_traits@G@std@@@std@@@std@@QAE@ABV_Locinfo@1@I@Z 1003eb20 f i libcpmtd:wlocale.obj
 0001:0003db90       ??0?$money_get@_WV?$istreambuf_iterator@_WU?$char_traits@_W@std@@@std@@@std@@QAE@ABV_Locinfo@1@I@Z 1003eb90 f i libcpmtd:wlocale.obj
 0001:0003dc00       ??0?$money_put@GV?$ostreambuf_iterator@GU?$char_traits@G@std@@@std@@@std@@QAE@ABV_Locinfo@1@I@Z 1003ec00 f i libcpmtd:wlocale.obj
 0001:0003dc70       ??0?$money_put@_WV?$ostreambuf_iterator@_WU?$char_traits@_W@std@@@std@@@std@@QAE@ABV_Locinfo@1@I@Z 1003ec70 f i libcpmtd:wlocale.obj
 0001:0003dce0       ??0?$moneypunct@G$00@std@@QAE@ABV_Locinfo@1@I_N@Z 1003ece0 f i libcpmtd:wlocale.obj
 0001:0003dd10       ??0?$moneypunct@G$0A@@std@@QAE@ABV_Locinfo@1@I_N@Z 1003ed10 f i libcpmtd:wlocale.obj
 0001:0003dd40       ??0?$moneypunct@_W$00@std@@QAE@ABV_Locinfo@1@I_N@Z 1003ed40 f i libcpmtd:wlocale.obj
 0001:0003dd70       ??0?$moneypunct@_W$0A@@std@@QAE@ABV_Locinfo@1@I_N@Z 1003ed70 f i libcpmtd:wlocale.obj
 0001:0003dda0       ??0?$num_get@GV?$istreambuf_iterator@GU?$char_traits@G@std@@@std@@@std@@QAE@ABV_Locinfo@1@I@Z 1003eda0 f i libcpmtd:wlocale.obj
 0001:0003de10       ??0?$num_get@_WV?$istreambuf_iterator@_WU?$char_traits@_W@std@@@std@@@std@@QAE@ABV_Locinfo@1@I@Z 1003ee10 f i libcpmtd:wlocale.obj
 0001:0003de80       ??0?$num_put@GV?$ostreambuf_iterator@GU?$char_traits@G@std@@@std@@@std@@QAE@ABV_Locinfo@1@I@Z 1003ee80 f i libcpmtd:wlocale.obj
 0001:0003def0       ??0?$num_put@_WV?$ostreambuf_iterator@_WU?$char_traits@_W@std@@@std@@@std@@QAE@ABV_Locinfo@1@I@Z 1003eef0 f i libcpmtd:wlocale.obj
 0001:0003df60       ??0?$numpunct@G@std@@QAE@ABV_Locinfo@1@I_N@Z 1003ef60 f i libcpmtd:wlocale.obj
 0001:0003dfd0       ??0?$numpunct@_W@std@@QAE@ABV_Locinfo@1@I_N@Z 1003efd0 f i libcpmtd:wlocale.obj
 0001:0003e040       ??0?$time_get@GV?$istreambuf_iterator@GU?$char_traits@G@std@@@std@@@std@@QAE@ABV_Locinfo@1@I@Z 1003f040 f i libcpmtd:wlocale.obj
 0001:0003e0b0       ??0?$time_get@_WV?$istreambuf_iterator@_WU?$char_traits@_W@std@@@std@@@std@@QAE@ABV_Locinfo@1@I@Z 1003f0b0 f i libcpmtd:wlocale.obj
 0001:0003e120       ??0?$time_put@GV?$ostreambuf_iterator@GU?$char_traits@G@std@@@std@@@std@@QAE@ABV_Locinfo@1@I@Z 1003f120 f i libcpmtd:wlocale.obj
 0001:0003e1a0       ??0?$time_put@_WV?$ostreambuf_iterator@_WU?$char_traits@_W@std@@@std@@@std@@QAE@ABV_Locinfo@1@I@Z 1003f1a0 f i libcpmtd:wlocale.obj
 0001:0003e220       ??0_Timevec@std@@QAE@PAX@Z 1003f220 f i libcpmtd:wlocale.obj
 0001:0003e240       ??0messages_base@std@@QAE@I@Z 1003f240 f i libcpmtd:wlocale.obj
 0001:0003e270       ??0money_base@std@@QAE@I@Z 1003f270 f i libcpmtd:wlocale.obj
 0001:0003e2a0       ??0time_base@std@@QAE@I@Z  1003f2a0 f i libcpmtd:wlocale.obj
 0001:0003e2d0       ??1?$_Iterator012@Urandom_access_iterator_tag@std@@GHPBGABGU_Iterator_base12@2@@std@@QAE@XZ 1003f2d0 f i libcpmtd:wlocale.obj
 0001:0003e2f0       ??1?$_Iterator012@Urandom_access_iterator_tag@std@@_WHPB_WAB_WU_Iterator_base12@2@@std@@QAE@XZ 1003f2f0 f i libcpmtd:wlocale.obj
 0001:0003e310       ??1?$_Mpunct@G@std@@MAE@XZ 1003f310 f i libcpmtd:wlocale.obj
 0001:0003e340       ??1?$_Mpunct@_W@std@@MAE@XZ 1003f340 f i libcpmtd:wlocale.obj
 0001:0003e370       ??1?$_String_alloc@$0A@U?$_String_base_types@GV?$allocator@G@std@@@std@@@std@@QAE@XZ 1003f370 f i libcpmtd:wlocale.obj
 0001:0003e390       ??1?$_String_alloc@$0A@U?$_String_base_types@_WV?$allocator@_W@std@@@std@@@std@@QAE@XZ 1003f390 f i libcpmtd:wlocale.obj
 0001:0003e3b0       ??1?$_String_const_iterator@V?$_String_val@U?$_Simple_types@G@std@@@std@@@std@@QAE@XZ 1003f3b0 f i libcpmtd:wlocale.obj
 0001:0003e3d0       ??1?$_String_const_iterator@V?$_String_val@U?$_Simple_types@_W@std@@@std@@@std@@QAE@XZ 1003f3d0 f i libcpmtd:wlocale.obj
 0001:0003e3f0       ??1?$_String_iterator@V?$_String_val@U?$_Simple_types@G@std@@@std@@@std@@QAE@XZ 1003f3f0 f i libcpmtd:wlocale.obj
 0001:0003e410       ??1?$_String_iterator@V?$_String_val@U?$_Simple_types@_W@std@@@std@@@std@@QAE@XZ 1003f410 f i libcpmtd:wlocale.obj
 0001:0003e430       ??1?$_String_val@U?$_Simple_types@G@std@@@std@@QAE@XZ 1003f430 f i libcpmtd:wlocale.obj
 0001:0003e450       ??1?$_String_val@U?$_Simple_types@_W@std@@@std@@QAE@XZ 1003f450 f i libcpmtd:wlocale.obj
 0001:0003e470       ??1?$basic_string@GU?$char_traits@G@std@@V?$allocator@G@2@@std@@QAE@XZ 1003f470 f i libcpmtd:wlocale.obj
 0001:0003e490       ??1?$basic_string@_WU?$char_traits@_W@std@@V?$allocator@_W@2@@std@@QAE@XZ 1003f490 f i libcpmtd:wlocale.obj
 0001:0003e4b0       ??1?$codecvt@GDH@std@@MAE@XZ 1003f4b0 f i libcpmtd:wlocale.obj
 0001:0003e4d0       ??1?$codecvt@_WDH@std@@MAE@XZ 1003f4d0 f i libcpmtd:wlocale.obj
 0001:0003e4f0       ??1?$collate@G@std@@MAE@XZ 1003f4f0 f i libcpmtd:wlocale.obj
 0001:0003e520       ??1?$collate@_W@std@@MAE@XZ 1003f520 f i libcpmtd:wlocale.obj
 0001:0003e550       ??1?$ctype@G@std@@MAE@XZ   1003f550 f i libcpmtd:wlocale.obj
 0001:0003e5a0       ??1?$ctype@_W@std@@MAE@XZ  1003f5a0 f i libcpmtd:wlocale.obj
 0001:0003e5f0       ??1?$messages@G@std@@MAE@XZ 1003f5f0 f i libcpmtd:wlocale.obj
 0001:0003e610       ??1?$messages@_W@std@@MAE@XZ 1003f610 f i libcpmtd:wlocale.obj
 0001:0003e630       ??1?$money_get@GV?$istreambuf_iterator@GU?$char_traits@G@std@@@std@@@std@@MAE@XZ 1003f630 f i libcpmtd:wlocale.obj
 0001:0003e650       ??1?$money_get@_WV?$istreambuf_iterator@_WU?$char_traits@_W@std@@@std@@@std@@MAE@XZ 1003f650 f i libcpmtd:wlocale.obj
 0001:0003e670       ??1?$money_put@GV?$ostreambuf_iterator@GU?$char_traits@G@std@@@std@@@std@@MAE@XZ 1003f670 f i libcpmtd:wlocale.obj
 0001:0003e690       ??1?$money_put@_WV?$ostreambuf_iterator@_WU?$char_traits@_W@std@@@std@@@std@@MAE@XZ 1003f690 f i libcpmtd:wlocale.obj
 0001:0003e6b0       ??1?$moneypunct@G$00@std@@MAE@XZ 1003f6b0 f i libcpmtd:wlocale.obj
 0001:0003e6d0       ??1?$moneypunct@G$0A@@std@@MAE@XZ 1003f6d0 f i libcpmtd:wlocale.obj
 0001:0003e6f0       ??1?$moneypunct@_W$00@std@@MAE@XZ 1003f6f0 f i libcpmtd:wlocale.obj
 0001:0003e710       ??1?$moneypunct@_W$0A@@std@@MAE@XZ 1003f710 f i libcpmtd:wlocale.obj
 0001:0003e730       ??1?$num_get@GV?$istreambuf_iterator@GU?$char_traits@G@std@@@std@@@std@@MAE@XZ 1003f730 f i libcpmtd:wlocale.obj
 0001:0003e750       ??1?$num_get@_WV?$istreambuf_iterator@_WU?$char_traits@_W@std@@@std@@@std@@MAE@XZ 1003f750 f i libcpmtd:wlocale.obj
 0001:0003e770       ??1?$num_put@GV?$ostreambuf_iterator@GU?$char_traits@G@std@@@std@@@std@@MAE@XZ 1003f770 f i libcpmtd:wlocale.obj
 0001:0003e790       ??1?$num_put@_WV?$ostreambuf_iterator@_WU?$char_traits@_W@std@@@std@@@std@@MAE@XZ 1003f790 f i libcpmtd:wlocale.obj
 0001:0003e7b0       ??1?$numpunct@G@std@@MAE@XZ 1003f7b0 f i libcpmtd:wlocale.obj
 0001:0003e7e0       ??1?$numpunct@_W@std@@MAE@XZ 1003f7e0 f i libcpmtd:wlocale.obj
 0001:0003e810       ??1?$time_get@GV?$istreambuf_iterator@GU?$char_traits@G@std@@@std@@@std@@MAE@XZ 1003f810 f i libcpmtd:wlocale.obj
 0001:0003e840       ??1?$time_get@_WV?$istreambuf_iterator@_WU?$char_traits@_W@std@@@std@@@std@@MAE@XZ 1003f840 f i libcpmtd:wlocale.obj
 0001:0003e870       ??1?$time_put@GV?$ostreambuf_iterator@GU?$char_traits@G@std@@@std@@@std@@MAE@XZ 1003f870 f i libcpmtd:wlocale.obj
 0001:0003e8a0       ??1?$time_put@_WV?$ostreambuf_iterator@_WU?$char_traits@_W@std@@@std@@@std@@MAE@XZ 1003f8a0 f i libcpmtd:wlocale.obj
 0001:0003e8d0       ??1_Timevec@std@@QAE@XZ    1003f8d0 f i libcpmtd:wlocale.obj
 0001:0003e8f0       ??1messages_base@std@@UAE@XZ 1003f8f0 f i libcpmtd:wlocale.obj
 0001:0003e910       ??1money_base@std@@UAE@XZ  1003f910 f i libcpmtd:wlocale.obj
 0001:0003e930       ??1time_base@std@@UAE@XZ   1003f930 f i libcpmtd:wlocale.obj
 0001:0003e950       ??4?$_Iterator012@Urandom_access_iterator_tag@std@@GHPBGABGU_Iterator_base12@2@@std@@QAEAAU01@ABU01@@Z 1003f950 f i libcpmtd:wlocale.obj
 0001:0003e970       ??4?$_Iterator012@Urandom_access_iterator_tag@std@@_WHPB_WAB_WU_Iterator_base12@2@@std@@QAEAAU01@ABU01@@Z 1003f970 f i libcpmtd:wlocale.obj
 0001:0003e990       ??4?$_String_const_iterator@V?$_String_val@U?$_Simple_types@G@std@@@std@@@std@@QAEAAV01@ABV01@@Z 1003f990 f i libcpmtd:wlocale.obj
 0001:0003e9c0       ??4?$_String_const_iterator@V?$_String_val@U?$_Simple_types@_W@std@@@std@@@std@@QAEAAV01@ABV01@@Z 1003f9c0 f i libcpmtd:wlocale.obj
 0001:0003e9f0       ??4?$_Yarn@_W@std@@QAEAAV01@PB_W@Z 1003f9f0 f i libcpmtd:wlocale.obj
 0001:0003ea90       ??4?$basic_string@GU?$char_traits@G@std@@V?$allocator@G@2@@std@@QAEAAV01@$$QAV01@@Z 1003fa90 f i libcpmtd:wlocale.obj
 0001:0003eb70       ??4?$basic_string@GU?$char_traits@G@std@@V?$allocator@G@2@@std@@QAEAAV01@ABV01@@Z 1003fb70 f i libcpmtd:wlocale.obj
 0001:0003ebf0       ??4?$basic_string@_WU?$char_traits@_W@std@@V?$allocator@_W@2@@std@@QAEAAV01@$$QAV01@@Z 1003fbf0 f i libcpmtd:wlocale.obj
 0001:0003ecd0       ??4?$basic_string@_WU?$char_traits@_W@std@@V?$allocator@_W@2@@std@@QAEAAV01@ABV01@@Z 1003fcd0 f i libcpmtd:wlocale.obj
 0001:0003ed50       ??4?$ostreambuf_iterator@GU?$char_traits@G@std@@@std@@QAEAAV01@G@Z 1003fd50 f i libcpmtd:wlocale.obj
 0001:0003edb0       ??4?$ostreambuf_iterator@_WU?$char_traits@_W@std@@@std@@QAEAAV01@_W@Z 1003fdb0 f i libcpmtd:wlocale.obj
 0001:0003ee10       ??4_Timevec@std@@QAEAAV01@ABV01@@Z 1003fe10 f i libcpmtd:wlocale.obj
 0001:0003ee40       ??8?$_String_const_iterator@V?$_String_val@U?$_Simple_types@G@std@@@std@@@std@@QBE_NABV01@@Z 1003fe40 f i libcpmtd:wlocale.obj
 0001:0003ee80       ??8?$_String_const_iterator@V?$_String_val@U?$_Simple_types@_W@std@@@std@@@std@@QBE_NABV01@@Z 1003fe80 f i libcpmtd:wlocale.obj
 0001:0003eec0       ??9?$_String_const_iterator@V?$_String_val@U?$_Simple_types@G@std@@@std@@@std@@QBE_NABV01@@Z 1003fec0 f i libcpmtd:wlocale.obj
 0001:0003ef00       ??9?$_String_const_iterator@V?$_String_val@U?$_Simple_types@_W@std@@@std@@@std@@QBE_NABV01@@Z 1003ff00 f i libcpmtd:wlocale.obj
 0001:0003ef40       ??A?$basic_string@GU?$char_traits@G@std@@V?$allocator@G@2@@std@@QAEAAGI@Z 1003ff40 f i libcpmtd:wlocale.obj
 0001:0003ef80       ??A?$basic_string@GU?$char_traits@G@std@@V?$allocator@G@2@@std@@QBEABGI@Z 1003ff80 f i libcpmtd:wlocale.obj
 0001:0003efc0       ??A?$basic_string@_WU?$char_traits@_W@std@@V?$allocator@_W@2@@std@@QAEAA_WI@Z 1003ffc0 f i libcpmtd:wlocale.obj
 0001:0003f000       ??A?$basic_string@_WU?$char_traits@_W@std@@V?$allocator@_W@2@@std@@QBEAB_WI@Z 10040000 f i libcpmtd:wlocale.obj
 0001:0003f040       ??D?$_String_const_iterator@V?$_String_val@U?$_Simple_types@G@std@@@std@@@std@@QBEABGXZ 10040040 f i libcpmtd:wlocale.obj
 0001:0003f110       ??D?$_String_const_iterator@V?$_String_val@U?$_Simple_types@_W@std@@@std@@@std@@QBEAB_WXZ 10040110 f i libcpmtd:wlocale.obj
 0001:0003f1e0       ??D?$_String_iterator@V?$_String_val@U?$_Simple_types@G@std@@@std@@@std@@QBEAAGXZ 100401e0 f i libcpmtd:wlocale.obj
 0001:0003f200       ??D?$_String_iterator@V?$_String_val@U?$_Simple_types@_W@std@@@std@@@std@@QBEAA_WXZ 10040200 f i libcpmtd:wlocale.obj
 0001:0003f220       ??D?$istreambuf_iterator@GU?$char_traits@G@std@@@std@@QBEABGXZ 10040220 f i libcpmtd:wlocale.obj
 0001:0003f270       ??D?$istreambuf_iterator@_WU?$char_traits@_W@std@@@std@@QBEAB_WXZ 10040270 f i libcpmtd:wlocale.obj
 0001:0003f2c0       ??D?$ostreambuf_iterator@GU?$char_traits@G@std@@@std@@QAEAAV01@XZ 100402c0 f i libcpmtd:wlocale.obj
 0001:0003f2d0       ??D?$ostreambuf_iterator@_WU?$char_traits@_W@std@@@std@@QAEAAV01@XZ 100402d0 f i libcpmtd:wlocale.obj
 0001:0003f2e0       ??E?$_String_const_iterator@V?$_String_val@U?$_Simple_types@G@std@@@std@@@std@@QAEAAV01@XZ 100402e0 f i libcpmtd:wlocale.obj
 0001:0003f3a0       ??E?$_String_const_iterator@V?$_String_val@U?$_Simple_types@_W@std@@@std@@@std@@QAEAAV01@XZ 100403a0 f i libcpmtd:wlocale.obj
 0001:0003f460       ??E?$istreambuf_iterator@GU?$char_traits@G@std@@@std@@QAEAAV01@XZ 10040460 f i libcpmtd:wlocale.obj
 0001:0003f4a0       ??E?$istreambuf_iterator@_WU?$char_traits@_W@std@@@std@@QAEAAV01@XZ 100404a0 f i libcpmtd:wlocale.obj
 0001:0003f4e0       ??E?$ostreambuf_iterator@GU?$char_traits@G@std@@@std@@QAEAAV01@H@Z 100404e0 f i libcpmtd:wlocale.obj
 0001:0003f4f0       ??E?$ostreambuf_iterator@GU?$char_traits@G@std@@@std@@QAEAAV01@XZ 100404f0 f i libcpmtd:wlocale.obj
 0001:0003f500       ??E?$ostreambuf_iterator@_WU?$char_traits@_W@std@@@std@@QAEAAV01@H@Z 10040500 f i libcpmtd:wlocale.obj
 0001:0003f510       ??E?$ostreambuf_iterator@_WU?$char_traits@_W@std@@@std@@QAEAAV01@XZ 10040510 f i libcpmtd:wlocale.obj
 0001:0003f520       ??G?$_String_const_iterator@V?$_String_val@U?$_Simple_types@G@std@@@std@@@std@@QBEHABV01@@Z 10040520 f i libcpmtd:wlocale.obj
 0001:0003f550       ??G?$_String_const_iterator@V?$_String_val@U?$_Simple_types@_W@std@@@std@@@std@@QBEHABV01@@Z 10040550 f i libcpmtd:wlocale.obj
 0001:0003f580       ??G?$_String_iterator@V?$_String_val@U?$_Simple_types@G@std@@@std@@@std@@QBE?AV01@H@Z 10040580 f i libcpmtd:wlocale.obj
 0001:0003f610       ??G?$_String_iterator@V?$_String_val@U?$_Simple_types@G@std@@@std@@@std@@QBEHABV?$_String_const_iterator@V?$_String_val@U?$_Simple_types@G@std@@@std@@@1@@Z 10040610 f i libcpmtd:wlocale.obj
 0001:0003f690       ??G?$_String_iterator@V?$_String_val@U?$_Simple_types@_W@std@@@std@@@std@@QBE?AV01@H@Z 10040690 f i libcpmtd:wlocale.obj
 0001:0003f720       ??G?$_String_iterator@V?$_String_val@U?$_Simple_types@_W@std@@@std@@@std@@QBEHABV?$_String_const_iterator@V?$_String_val@U?$_Simple_types@_W@std@@@std@@@1@@Z 10040720 f i libcpmtd:wlocale.obj
 0001:0003f7a0       ??H?$_String_iterator@V?$_String_val@U?$_Simple_types@G@std@@@std@@@std@@QBE?AV01@H@Z 100407a0 f i libcpmtd:wlocale.obj
 0001:0003f830       ??H?$_String_iterator@V?$_String_val@U?$_Simple_types@_W@std@@@std@@@std@@QBE?AV01@H@Z 10040830 f i libcpmtd:wlocale.obj
 0001:0003f8c0       ??Y?$_String_const_iterator@V?$_String_val@U?$_Simple_types@G@std@@@std@@@std@@QAEAAV01@H@Z 100408c0 f i libcpmtd:wlocale.obj
 0001:0003f9b0       ??Y?$_String_const_iterator@V?$_String_val@U?$_Simple_types@_W@std@@@std@@@std@@QAEAAV01@H@Z 100409b0 f i libcpmtd:wlocale.obj
 0001:0003faa0       ??Y?$_String_iterator@V?$_String_val@U?$_Simple_types@G@std@@@std@@@std@@QAEAAV01@H@Z 10040aa0 f i libcpmtd:wlocale.obj
 0001:0003fac0       ??Y?$_String_iterator@V?$_String_val@U?$_Simple_types@_W@std@@@std@@@std@@QAEAAV01@H@Z 10040ac0 f i libcpmtd:wlocale.obj
 0001:0003fae0       ??Y?$basic_string@GU?$char_traits@G@std@@V?$allocator@G@2@@std@@QAEAAV01@ABV01@@Z 10040ae0 f i libcpmtd:wlocale.obj
 0001:0003fb00       ??Y?$basic_string@GU?$char_traits@G@std@@V?$allocator@G@2@@std@@QAEAAV01@G@Z 10040b00 f i libcpmtd:wlocale.obj
 0001:0003fb20       ??Y?$basic_string@_WU?$char_traits@_W@std@@V?$allocator@_W@2@@std@@QAEAAV01@ABV01@@Z 10040b20 f i libcpmtd:wlocale.obj
 0001:0003fb40       ??Y?$basic_string@_WU?$char_traits@_W@std@@V?$allocator@_W@2@@std@@QAEAAV01@_W@Z 10040b40 f i libcpmtd:wlocale.obj
 0001:0003fb60       ??Z?$_String_iterator@V?$_String_val@U?$_Simple_types@G@std@@@std@@@std@@QAEAAV01@H@Z 10040b60 f i libcpmtd:wlocale.obj
 0001:0003fb80       ??Z?$_String_iterator@V?$_String_val@U?$_Simple_types@_W@std@@@std@@@std@@QAEAAV01@H@Z 10040b80 f i libcpmtd:wlocale.obj
 0001:0003fba0       ??_G?$_Mpunct@G@std@@MAEPAXI@Z 10040ba0 f i libcpmtd:wlocale.obj
 0001:0003fba0       ??_E?$_Mpunct@G@std@@MAEPAXI@Z 10040ba0 f i libcpmtd:wlocale.obj
 0001:0003fbd0       ??_E?$_Mpunct@_W@std@@MAEPAXI@Z 10040bd0 f i libcpmtd:wlocale.obj
 0001:0003fbd0       ??_G?$_Mpunct@_W@std@@MAEPAXI@Z 10040bd0 f i libcpmtd:wlocale.obj
 0001:0003fc00       ??_G?$codecvt@GDH@std@@MAEPAXI@Z 10040c00 f i libcpmtd:wlocale.obj
 0001:0003fc00       ??_E?$codecvt@GDH@std@@MAEPAXI@Z 10040c00 f i libcpmtd:wlocale.obj
 0001:0003fc30       ??_G?$codecvt@_WDH@std@@MAEPAXI@Z 10040c30 f i libcpmtd:wlocale.obj
 0001:0003fc30       ??_E?$codecvt@_WDH@std@@MAEPAXI@Z 10040c30 f i libcpmtd:wlocale.obj
 0001:0003fc60       ??_E?$collate@G@std@@MAEPAXI@Z 10040c60 f i libcpmtd:wlocale.obj
 0001:0003fc60       ??_G?$collate@G@std@@MAEPAXI@Z 10040c60 f i libcpmtd:wlocale.obj
 0001:0003fc90       ??_G?$collate@_W@std@@MAEPAXI@Z 10040c90 f i libcpmtd:wlocale.obj
 0001:0003fc90       ??_E?$collate@_W@std@@MAEPAXI@Z 10040c90 f i libcpmtd:wlocale.obj
 0001:0003fcc0       ??_E?$ctype@G@std@@MAEPAXI@Z 10040cc0 f i libcpmtd:wlocale.obj
 0001:0003fcc0       ??_G?$ctype@G@std@@MAEPAXI@Z 10040cc0 f i libcpmtd:wlocale.obj
 0001:0003fcf0       ??_E?$ctype@_W@std@@MAEPAXI@Z 10040cf0 f i libcpmtd:wlocale.obj
 0001:0003fcf0       ??_G?$ctype@_W@std@@MAEPAXI@Z 10040cf0 f i libcpmtd:wlocale.obj
 0001:0003fd20       ??_E?$messages@G@std@@MAEPAXI@Z 10040d20 f i libcpmtd:wlocale.obj
 0001:0003fd20       ??_G?$messages@G@std@@MAEPAXI@Z 10040d20 f i libcpmtd:wlocale.obj
 0001:0003fd50       ??_E?$messages@_W@std@@MAEPAXI@Z 10040d50 f i libcpmtd:wlocale.obj
 0001:0003fd50       ??_G?$messages@_W@std@@MAEPAXI@Z 10040d50 f i libcpmtd:wlocale.obj
 0001:0003fd80       ??_E?$money_get@GV?$istreambuf_iterator@GU?$char_traits@G@std@@@std@@@std@@MAEPAXI@Z 10040d80 f i libcpmtd:wlocale.obj
 0001:0003fd80       ??_G?$money_get@GV?$istreambuf_iterator@GU?$char_traits@G@std@@@std@@@std@@MAEPAXI@Z 10040d80 f i libcpmtd:wlocale.obj
 0001:0003fdb0       ??_E?$money_get@_WV?$istreambuf_iterator@_WU?$char_traits@_W@std@@@std@@@std@@MAEPAXI@Z 10040db0 f i libcpmtd:wlocale.obj
 0001:0003fdb0       ??_G?$money_get@_WV?$istreambuf_iterator@_WU?$char_traits@_W@std@@@std@@@std@@MAEPAXI@Z 10040db0 f i libcpmtd:wlocale.obj
 0001:0003fde0       ??_E?$money_put@GV?$ostreambuf_iterator@GU?$char_traits@G@std@@@std@@@std@@MAEPAXI@Z 10040de0 f i libcpmtd:wlocale.obj
 0001:0003fde0       ??_G?$money_put@GV?$ostreambuf_iterator@GU?$char_traits@G@std@@@std@@@std@@MAEPAXI@Z 10040de0 f i libcpmtd:wlocale.obj
 0001:0003fe10       ??_G?$money_put@_WV?$ostreambuf_iterator@_WU?$char_traits@_W@std@@@std@@@std@@MAEPAXI@Z 10040e10 f i libcpmtd:wlocale.obj
 0001:0003fe10       ??_E?$money_put@_WV?$ostreambuf_iterator@_WU?$char_traits@_W@std@@@std@@@std@@MAEPAXI@Z 10040e10 f i libcpmtd:wlocale.obj
 0001:0003fe40       ??_G?$moneypunct@G$00@std@@MAEPAXI@Z 10040e40 f i libcpmtd:wlocale.obj
 0001:0003fe40       ??_E?$moneypunct@G$00@std@@MAEPAXI@Z 10040e40 f i libcpmtd:wlocale.obj
 0001:0003fe70       ??_G?$moneypunct@G$0A@@std@@MAEPAXI@Z 10040e70 f i libcpmtd:wlocale.obj
 0001:0003fe70       ??_E?$moneypunct@G$0A@@std@@MAEPAXI@Z 10040e70 f i libcpmtd:wlocale.obj
 0001:0003fea0       ??_G?$moneypunct@_W$00@std@@MAEPAXI@Z 10040ea0 f i libcpmtd:wlocale.obj
 0001:0003fea0       ??_E?$moneypunct@_W$00@std@@MAEPAXI@Z 10040ea0 f i libcpmtd:wlocale.obj
 0001:0003fed0       ??_E?$moneypunct@_W$0A@@std@@MAEPAXI@Z 10040ed0 f i libcpmtd:wlocale.obj
 0001:0003fed0       ??_G?$moneypunct@_W$0A@@std@@MAEPAXI@Z 10040ed0 f i libcpmtd:wlocale.obj
 0001:0003ff00       ??_E?$num_get@GV?$istreambuf_iterator@GU?$char_traits@G@std@@@std@@@std@@MAEPAXI@Z 10040f00 f i libcpmtd:wlocale.obj
 0001:0003ff00       ??_G?$num_get@GV?$istreambuf_iterator@GU?$char_traits@G@std@@@std@@@std@@MAEPAXI@Z 10040f00 f i libcpmtd:wlocale.obj
 0001:0003ff30       ??_E?$num_get@_WV?$istreambuf_iterator@_WU?$char_traits@_W@std@@@std@@@std@@MAEPAXI@Z 10040f30 f i libcpmtd:wlocale.obj
 0001:0003ff30       ??_G?$num_get@_WV?$istreambuf_iterator@_WU?$char_traits@_W@std@@@std@@@std@@MAEPAXI@Z 10040f30 f i libcpmtd:wlocale.obj
 0001:0003ff60       ??_E?$num_put@GV?$ostreambuf_iterator@GU?$char_traits@G@std@@@std@@@std@@MAEPAXI@Z 10040f60 f i libcpmtd:wlocale.obj
 0001:0003ff60       ??_G?$num_put@GV?$ostreambuf_iterator@GU?$char_traits@G@std@@@std@@@std@@MAEPAXI@Z 10040f60 f i libcpmtd:wlocale.obj
 0001:0003ff90       ??_G?$num_put@_WV?$ostreambuf_iterator@_WU?$char_traits@_W@std@@@std@@@std@@MAEPAXI@Z 10040f90 f i libcpmtd:wlocale.obj
 0001:0003ff90       ??_E?$num_put@_WV?$ostreambuf_iterator@_WU?$char_traits@_W@std@@@std@@@std@@MAEPAXI@Z 10040f90 f i libcpmtd:wlocale.obj
 0001:0003ffc0       ??_G?$numpunct@G@std@@MAEPAXI@Z 10040fc0 f i libcpmtd:wlocale.obj
 0001:0003ffc0       ??_E?$numpunct@G@std@@MAEPAXI@Z 10040fc0 f i libcpmtd:wlocale.obj
 0001:0003fff0       ??_G?$numpunct@_W@std@@MAEPAXI@Z 10040ff0 f i libcpmtd:wlocale.obj
 0001:0003fff0       ??_E?$numpunct@_W@std@@MAEPAXI@Z 10040ff0 f i libcpmtd:wlocale.obj
 0001:00040020       ??_G?$time_get@GV?$istreambuf_iterator@GU?$char_traits@G@std@@@std@@@std@@MAEPAXI@Z 10041020 f i libcpmtd:wlocale.obj
 0001:00040020       ??_E?$time_get@GV?$istreambuf_iterator@GU?$char_traits@G@std@@@std@@@std@@MAEPAXI@Z 10041020 f i libcpmtd:wlocale.obj
 0001:00040050       ??_G?$time_get@_WV?$istreambuf_iterator@_WU?$char_traits@_W@std@@@std@@@std@@MAEPAXI@Z 10041050 f i libcpmtd:wlocale.obj
 0001:00040050       ??_E?$time_get@_WV?$istreambuf_iterator@_WU?$char_traits@_W@std@@@std@@@std@@MAEPAXI@Z 10041050 f i libcpmtd:wlocale.obj
 0001:00040080       ??_G?$time_put@GV?$ostreambuf_iterator@GU?$char_traits@G@std@@@std@@@std@@MAEPAXI@Z 10041080 f i libcpmtd:wlocale.obj
 0001:00040080       ??_E?$time_put@GV?$ostreambuf_iterator@GU?$char_traits@G@std@@@std@@@std@@MAEPAXI@Z 10041080 f i libcpmtd:wlocale.obj
 0001:000400b0       ??_G?$time_put@_WV?$ostreambuf_iterator@_WU?$char_traits@_W@std@@@std@@@std@@MAEPAXI@Z 100410b0 f i libcpmtd:wlocale.obj
 0001:000400b0       ??_E?$time_put@_WV?$ostreambuf_iterator@_WU?$char_traits@_W@std@@@std@@@std@@MAEPAXI@Z 100410b0 f i libcpmtd:wlocale.obj
 0001:000400e0       ??_Gmessages_base@std@@UAEPAXI@Z 100410e0 f i libcpmtd:wlocale.obj
 0001:000400e0       ??_Emessages_base@std@@UAEPAXI@Z 100410e0 f i libcpmtd:wlocale.obj
 0001:00040110       ??_Gmoney_base@std@@UAEPAXI@Z 10041110 f i libcpmtd:wlocale.obj
 0001:00040110       ??_Emoney_base@std@@UAEPAXI@Z 10041110 f i libcpmtd:wlocale.obj
 0001:00040140       ??_Gtime_base@std@@UAEPAXI@Z 10041140 f i libcpmtd:wlocale.obj
 0001:00040140       ??_Etime_base@std@@UAEPAXI@Z 10041140 f i libcpmtd:wlocale.obj
 0001:00040170       ?_Alloc_proxy@?$_String_alloc@$0A@U?$_String_base_types@GV?$allocator@G@std@@@std@@@std@@QAEXXZ 10041170 f i libcpmtd:wlocale.obj
 0001:000401c0       ?_Alloc_proxy@?$_String_alloc@$0A@U?$_String_base_types@_WV?$allocator@_W@std@@@std@@@std@@QAEXXZ 100411c0 f i libcpmtd:wlocale.obj
 0001:00040210       ?_Assign_rv@?$basic_string@GU?$char_traits@G@std@@V?$allocator@G@2@@std@@QAEX$$QAV12@@Z 10041210 f i libcpmtd:wlocale.obj
 0001:000402a0       ?_Assign_rv@?$basic_string@_WU?$char_traits@_W@std@@V?$allocator@_W@2@@std@@QAEX$$QAV12@@Z 100412a0 f i libcpmtd:wlocale.obj
 0001:00040330       ?_C_str@?$_Yarn@_W@std@@QBEPB_WXZ 10041330 f i libcpmtd:wlocale.obj
 0001:00040360       ?_Change_alloc@?$_String_alloc@$0A@U?$_String_base_types@GV?$allocator@G@std@@@std@@@std@@QAEXABU?$_Wrap_alloc@V?$allocator@G@std@@@2@@Z 10041360 f i libcpmtd:wlocale.obj
 0001:00040370       ?_Change_alloc@?$_String_alloc@$0A@U?$_String_base_types@_WV?$allocator@_W@std@@@std@@@std@@QAEXABU?$_Wrap_alloc@V?$allocator@_W@std@@@2@@Z 10041370 f i libcpmtd:wlocale.obj
 0001:00040380       ?_Chassign@?$basic_string@GU?$char_traits@G@std@@V?$allocator@G@2@@std@@QAEXIIG@Z 10041380 f i libcpmtd:wlocale.obj
 0001:000403d0       ?_Chassign@?$basic_string@_WU?$char_traits@_W@std@@V?$allocator@_W@2@@std@@QAEXII_W@Z 100413d0 f i libcpmtd:wlocale.obj
 0001:00040420       ?_Compat@?$_String_const_iterator@V?$_String_val@U?$_Simple_types@G@std@@@std@@@std@@QBEXABV12@@Z 10041420 f i libcpmtd:wlocale.obj
 0001:000404c0       ?_Compat@?$_String_const_iterator@V?$_String_val@U?$_Simple_types@_W@std@@@std@@@std@@QBEXABV12@@Z 100414c0 f i libcpmtd:wlocale.obj
 0001:00040560       ?_Copy@?$basic_string@GU?$char_traits@G@std@@V?$allocator@G@2@@std@@QAEXII@Z 10041560 f i libcpmtd:wlocale.obj
 0001:00040720       ?_Copy@?$basic_string@_WU?$char_traits@_W@std@@V?$allocator@_W@2@@std@@QAEXII@Z 10041720 f i libcpmtd:wlocale.obj
 0001:000408e0       ?_Donarrow@?$ctype@G@std@@IBEDGD@Z 100418e0 f i libcpmtd:wlocale.obj
 0001:00040950       ?_Donarrow@?$ctype@_W@std@@IBED_WD@Z 10041950 f i libcpmtd:wlocale.obj
 0001:000409c0       ?_Dowiden@?$ctype@G@std@@IBEGD@Z 100419c0 f i libcpmtd:wlocale.obj
 0001:00040a10       ?_Dowiden@?$ctype@_W@std@@IBE_WD@Z 10041a10 f i libcpmtd:wlocale.obj
 0001:00040a60       ?_Empty@?$_Yarn@_W@std@@QBE_NXZ 10041a60 f i libcpmtd:wlocale.obj
 0001:00040a90       ?_Eos@?$basic_string@GU?$char_traits@G@std@@V?$allocator@G@2@@std@@QAEXI@Z 10041a90 f i libcpmtd:wlocale.obj
 0001:00040ad0       ?_Eos@?$basic_string@_WU?$char_traits@_W@std@@V?$allocator@_W@2@@std@@QAEXI@Z 10041ad0 f i libcpmtd:wlocale.obj
 0001:00040b10       ?_Ffmt@?$num_put@GV?$ostreambuf_iterator@GU?$char_traits@G@std@@@std@@@std@@ABAPADPADDH@Z 10041b10 f i libcpmtd:wlocale.obj
 0001:00040c50       ?_Ffmt@?$num_put@_WV?$ostreambuf_iterator@_WU?$char_traits@_W@std@@@std@@@std@@ABAPADPADDH@Z 10041c50 f i libcpmtd:wlocale.obj
 0001:00040d90       ?_Fput@?$num_put@GV?$ostreambuf_iterator@GU?$char_traits@G@std@@@std@@@std@@ABA?AV?$ostreambuf_iterator@GU?$char_traits@G@std@@@2@V32@AAVios_base@2@GPBDIIII@Z 10041d90 f i libcpmtd:wlocale.obj
 0001:00041310       ?_Fput@?$num_put@_WV?$ostreambuf_iterator@_WU?$char_traits@_W@std@@@std@@@std@@ABA?AV?$ostreambuf_iterator@_WU?$char_traits@_W@std@@@2@V32@AAVios_base@2@_WPBDIIII@Z 10042310 f i libcpmtd:wlocale.obj
 0001:00041890       ?_Free_proxy@?$_String_alloc@$0A@U?$_String_base_types@GV?$allocator@G@std@@@std@@@std@@QAEXXZ 10042890 f i libcpmtd:wlocale.obj
 0001:000418e0       ?_Free_proxy@?$_String_alloc@$0A@U?$_String_base_types@_WV?$allocator@_W@std@@@std@@@std@@QAEXXZ 100428e0 f i libcpmtd:wlocale.obj
 0001:00041930       ?_Getal@?$_String_alloc@$0A@U?$_String_base_types@GV?$allocator@G@std@@@std@@@std@@QBE?AU?$_Wrap_alloc@V?$allocator@G@std@@@2@XZ 10042930 f i libcpmtd:wlocale.obj
 0001:00041950       ?_Getal@?$_String_alloc@$0A@U?$_String_base_types@_WV?$allocator@_W@std@@@std@@@std@@QBE?AU?$_Wrap_alloc@V?$allocator@_W@std@@@2@XZ 10042950 f i libcpmtd:wlocale.obj
 0001:00041970       ?_Getcat@?$codecvt@GDH@std@@SAIPAPBVfacet@locale@2@PBV42@@Z 10042970 f i libcpmtd:wlocale.obj
 0001:00041a70       ?_Getcat@?$codecvt@_WDH@std@@SAIPAPBVfacet@locale@2@PBV42@@Z 10042a70 f i libcpmtd:wlocale.obj
 0001:00041b70       ?_Getcat@?$collate@G@std@@SAIPAPBVfacet@locale@2@PBV42@@Z 10042b70 f i libcpmtd:wlocale.obj
 0001:00041cc0       ?_Getcat@?$collate@_W@std@@SAIPAPBVfacet@locale@2@PBV42@@Z 10042cc0 f i libcpmtd:wlocale.obj
 0001:00041e10       ?_Getcat@?$ctype@G@std@@SAIPAPBVfacet@locale@2@PBV42@@Z 10042e10 f i libcpmtd:wlocale.obj
 0001:00041f10       ?_Getcat@?$ctype@_W@std@@SAIPAPBVfacet@locale@2@PBV42@@Z 10042f10 f i libcpmtd:wlocale.obj
 0001:00042010       ?_Getcat@?$messages@G@std@@SAIPAPBVfacet@locale@2@PBV42@@Z 10043010 f i libcpmtd:wlocale.obj
 0001:00042110       ?_Getcat@?$messages@_W@std@@SAIPAPBVfacet@locale@2@PBV42@@Z 10043110 f i libcpmtd:wlocale.obj
 0001:00042210       ?_Getcat@?$money_get@GV?$istreambuf_iterator@GU?$char_traits@G@std@@@std@@@std@@SAIPAPBVfacet@locale@2@PBV42@@Z 10043210 f i libcpmtd:wlocale.obj
 0001:00042310       ?_Getcat@?$money_get@_WV?$istreambuf_iterator@_WU?$char_traits@_W@std@@@std@@@std@@SAIPAPBVfacet@locale@2@PBV42@@Z 10043310 f i libcpmtd:wlocale.obj
 0001:00042410       ?_Getcat@?$money_put@GV?$ostreambuf_iterator@GU?$char_traits@G@std@@@std@@@std@@SAIPAPBVfacet@locale@2@PBV42@@Z 10043410 f i libcpmtd:wlocale.obj
 0001:00042510       ?_Getcat@?$money_put@_WV?$ostreambuf_iterator@_WU?$char_traits@_W@std@@@std@@@std@@SAIPAPBVfacet@locale@2@PBV42@@Z 10043510 f i libcpmtd:wlocale.obj
 0001:00042610       ?_Getcat@?$moneypunct@G$00@std@@SAIPAPBVfacet@locale@2@PBV42@@Z 10043610 f i libcpmtd:wlocale.obj
 0001:00042710       ?_Getcat@?$moneypunct@G$0A@@std@@SAIPAPBVfacet@locale@2@PBV42@@Z 10043710 f i libcpmtd:wlocale.obj
 0001:00042810       ?_Getcat@?$moneypunct@_W$00@std@@SAIPAPBVfacet@locale@2@PBV42@@Z 10043810 f i libcpmtd:wlocale.obj
 0001:00042910       ?_Getcat@?$moneypunct@_W$0A@@std@@SAIPAPBVfacet@locale@2@PBV42@@Z 10043910 f i libcpmtd:wlocale.obj
 0001:00042a10       ?_Getcat@?$num_get@GV?$istreambuf_iterator@GU?$char_traits@G@std@@@std@@@std@@SAIPAPBVfacet@locale@2@PBV42@@Z 10043a10 f i libcpmtd:wlocale.obj
 0001:00042b10       ?_Getcat@?$num_get@_WV?$istreambuf_iterator@_WU?$char_traits@_W@std@@@std@@@std@@SAIPAPBVfacet@locale@2@PBV42@@Z 10043b10 f i libcpmtd:wlocale.obj
 0001:00042c10       ?_Getcat@?$num_put@GV?$ostreambuf_iterator@GU?$char_traits@G@std@@@std@@@std@@SAIPAPBVfacet@locale@2@PBV42@@Z 10043c10 f i libcpmtd:wlocale.obj
 0001:00042d10       ?_Getcat@?$num_put@_WV?$ostreambuf_iterator@_WU?$char_traits@_W@std@@@std@@@std@@SAIPAPBVfacet@locale@2@PBV42@@Z 10043d10 f i libcpmtd:wlocale.obj
 0001:00042e10       ?_Getcat@?$numpunct@G@std@@SAIPAPBVfacet@locale@2@PBV42@@Z 10043e10 f i libcpmtd:wlocale.obj
 0001:00042f10       ?_Getcat@?$numpunct@_W@std@@SAIPAPBVfacet@locale@2@PBV42@@Z 10043f10 f i libcpmtd:wlocale.obj
 0001:00043010       ?_Getcat@?$time_get@GV?$istreambuf_iterator@GU?$char_traits@G@std@@@std@@@std@@SAIPAPBVfacet@locale@2@PBV42@@Z 10044010 f i libcpmtd:wlocale.obj
 0001:00043110       ?_Getcat@?$time_get@_WV?$istreambuf_iterator@_WU?$char_traits@_W@std@@@std@@@std@@SAIPAPBVfacet@locale@2@PBV42@@Z 10044110 f i libcpmtd:wlocale.obj
 0001:00043210       ?_Getcat@?$time_put@GV?$ostreambuf_iterator@GU?$char_traits@G@std@@@std@@@std@@SAIPAPBVfacet@locale@2@PBV42@@Z 10044210 f i libcpmtd:wlocale.obj
 0001:00043310       ?_Getcat@?$time_put@_WV?$ostreambuf_iterator@_WU?$char_traits@_W@std@@@std@@@std@@SAIPAPBVfacet@locale@2@PBV42@@Z 10044310 f i libcpmtd:wlocale.obj
 0001:00043410       ?_Getcoll@_Locinfo@std@@QBE?AU_Collvec@@XZ 10044410 f i libcpmtd:wlocale.obj
 0001:00043440       ?_Getdateorder@_Locinfo@std@@QBEHXZ 10044440 f i libcpmtd:wlocale.obj
 0001:00043450       ?_Getdays@_Locinfo@std@@QBEPBDXZ 10044450 f i libcpmtd:wlocale.obj
 0001:000434c0       ?_Getffld@?$num_get@GV?$istreambuf_iterator@GU?$char_traits@G@std@@@std@@@std@@ABAHPADAAV?$istreambuf_iterator@GU?$char_traits@G@std@@@2@1AAVios_base@2@PAH@Z 100444c0 f i libcpmtd:wlocale.obj
 0001:00043d20       ?_Getffld@?$num_get@_WV?$istreambuf_iterator@_WU?$char_traits@_W@std@@@std@@@std@@ABAHPADAAV?$istreambuf_iterator@_WU?$char_traits@_W@std@@@2@1AAVios_base@2@PAH@Z 10044d20 f i libcpmtd:wlocale.obj
 0001:00044580       ?_Getffldx@?$num_get@GV?$istreambuf_iterator@GU?$char_traits@G@std@@@std@@@std@@ABAHPADAAV?$istreambuf_iterator@GU?$char_traits@G@std@@@2@1AAVios_base@2@PAH@Z 10045580 f i libcpmtd:wlocale.obj
 0001:00044ff0       ?_Getffldx@?$num_get@_WV?$istreambuf_iterator@_WU?$char_traits@_W@std@@@std@@@std@@ABAHPADAAV?$istreambuf_iterator@_WU?$char_traits@_W@std@@@2@1AAVios_base@2@PAH@Z 10045ff0 f i libcpmtd:wlocale.obj
 0001:00045a60       ?_Getfmt@?$time_get@GV?$istreambuf_iterator@GU?$char_traits@G@std@@@std@@@std@@IBE?AV?$istreambuf_iterator@GU?$char_traits@G@std@@@2@V32@0AAVios_base@2@AAHPAUtm@@PBD@Z 10046a60 f i libcpmtd:wlocale.obj
 0001:00045c10       ?_Getfmt@?$time_get@_WV?$istreambuf_iterator@_WU?$char_traits@_W@std@@@std@@@std@@IBE?AV?$istreambuf_iterator@_WU?$char_traits@_W@std@@@2@V32@0AAVios_base@2@AAHPAUtm@@PBD@Z 10046c10 f i libcpmtd:wlocale.obj
 0001:00045dc0       ?_Getifld@?$num_get@GV?$istreambuf_iterator@GU?$char_traits@G@std@@@std@@@std@@ABAHPADAAV?$istreambuf_iterator@GU?$char_traits@G@std@@@2@1HABVlocale@2@@Z 10046dc0 f i libcpmtd:wlocale.obj
 0001:000463e0       ?_Getifld@?$num_get@_WV?$istreambuf_iterator@_WU?$char_traits@_W@std@@@std@@@std@@ABAHPADAAV?$istreambuf_iterator@_WU?$char_traits@_W@std@@@2@1HABVlocale@2@@Z 100473e0 f i libcpmtd:wlocale.obj
 0001:00046a00       ?_Getint@?$time_get@GV?$istreambuf_iterator@GU?$char_traits@G@std@@@std@@@std@@ABAHAAV?$istreambuf_iterator@GU?$char_traits@G@std@@@2@0HHAAHABV?$ctype@G@2@@Z 10047a00 f i libcpmtd:wlocale.obj
 0001:00046c10       ?_Getint@?$time_get@_WV?$istreambuf_iterator@_WU?$char_traits@_W@std@@@std@@@std@@ABAHAAV?$istreambuf_iterator@_WU?$char_traits@_W@std@@@2@0HHAAHABV?$ctype@_W@2@@Z 10047c10 f i libcpmtd:wlocale.obj
 0001:00046e20       ?_Getmfld@?$money_get@GV?$istreambuf_iterator@GU?$char_traits@G@std@@@std@@@std@@ABE?AV?$basic_string@DU?$char_traits@D@std@@V?$allocator@D@2@@2@AAV?$istreambuf_iterator@GU?$char_traits@G@std@@@2@0_NAAVios_base@2@PAG@Z 10047e20 f i libcpmtd:wlocale.obj
 0001:00047e20       ?_Getmfld@?$money_get@_WV?$istreambuf_iterator@_WU?$char_traits@_W@std@@@std@@@std@@ABE?AV?$basic_string@DU?$char_traits@D@std@@V?$allocator@D@2@@2@AAV?$istreambuf_iterator@_WU?$char_traits@_W@std@@@2@0_NAAVios_base@2@PA_W@Z 10048e20 f i libcpmtd:wlocale.obj
 0001:00048e20       ?_Getmonths@_Locinfo@std@@QBEPBDXZ 10049e20 f i libcpmtd:wlocale.obj
 0001:00048e90       ?_Getptr@_Timevec@std@@QBEPAXXZ 10049e90 f i libcpmtd:wlocale.obj
 0001:00048ea0       ?_Gnavail@?$basic_streambuf@GU?$char_traits@G@std@@@std@@IBE_JXZ 10049ea0 f i libcpmtd:wlocale.obj
 0001:00048ed0       ?_Gnavail@?$basic_streambuf@_WU?$char_traits@_W@std@@@std@@IBE_JXZ 10049ed0 f i libcpmtd:wlocale.obj
 0001:00048f00       ?_Gninc@?$basic_streambuf@GU?$char_traits@G@std@@@std@@IAEPAGXZ 10049f00 f i libcpmtd:wlocale.obj
 0001:00048f50       ?_Gninc@?$basic_streambuf@_WU?$char_traits@_W@std@@@std@@IAEPA_WXZ 10049f50 f i libcpmtd:wlocale.obj
 0001:00048fa0       ?_Grow@?$basic_string@GU?$char_traits@G@std@@V?$allocator@G@2@@std@@QAE_NI_N@Z 10049fa0 f i libcpmtd:wlocale.obj
 0001:00049050       ?_Grow@?$basic_string@_WU?$char_traits@_W@std@@V?$allocator@_W@2@@std@@QAE_NI_N@Z 1004a050 f i libcpmtd:wlocale.obj
 0001:00049100       ?_Hash_seq@std@@YAIPBEI@Z  1004a100 f i libcpmtd:wlocale.obj
 0001:00049160       ?_Ifmt@?$num_put@GV?$ostreambuf_iterator@GU?$char_traits@G@std@@@std@@@std@@ABAPADPADPBDH@Z 1004a160 f i libcpmtd:wlocale.obj
 0001:00049280       ?_Ifmt@?$num_put@_WV?$ostreambuf_iterator@_WU?$char_traits@_W@std@@@std@@@std@@ABAPADPADPBDH@Z 1004a280 f i libcpmtd:wlocale.obj
 0001:000493a0       ?_Inc@?$istreambuf_iterator@GU?$char_traits@G@std@@@std@@AAEXXZ 1004a3a0 f i libcpmtd:wlocale.obj
 0001:00049400       ?_Inc@?$istreambuf_iterator@_WU?$char_traits@_W@std@@@std@@AAEXXZ 1004a400 f i libcpmtd:wlocale.obj
 0001:00049460       ?_Init@?$_Mpunct@G@std@@IAEXABV_Locinfo@2@_N@Z 1004a460 f i libcpmtd:wlocale.obj
 0001:00049630       ?_Init@?$_Mpunct@_W@std@@IAEXABV_Locinfo@2@_N@Z 1004a630 f i libcpmtd:wlocale.obj
 0001:00049800       ?_Init@?$codecvt@GDH@std@@IAEXABV_Locinfo@2@@Z 1004a800 f i libcpmtd:wlocale.obj
 0001:00049850       ?_Init@?$codecvt@_WDH@std@@IAEXABV_Locinfo@2@@Z 1004a850 f i libcpmtd:wlocale.obj
 0001:000498a0       ?_Init@?$collate@G@std@@IAEXABV_Locinfo@2@@Z 1004a8a0 f i libcpmtd:wlocale.obj
 0001:000498d0       ?_Init@?$collate@_W@std@@IAEXABV_Locinfo@2@@Z 1004a8d0 f i libcpmtd:wlocale.obj
 0001:00049900       ?_Init@?$ctype@G@std@@IAEXABV_Locinfo@2@@Z 1004a900 f i libcpmtd:wlocale.obj
 0001:00049970       ?_Init@?$ctype@_W@std@@IAEXABV_Locinfo@2@@Z 1004a970 f i libcpmtd:wlocale.obj
 0001:000499e0       ?_Init@?$messages@G@std@@IAEXABV_Locinfo@2@@Z 1004a9e0 f i libcpmtd:wlocale.obj
 0001:000499f0       ?_Init@?$messages@_W@std@@IAEXABV_Locinfo@2@@Z 1004a9f0 f i libcpmtd:wlocale.obj
 0001:00049a00       ?_Init@?$money_get@GV?$istreambuf_iterator@GU?$char_traits@G@std@@@std@@@std@@IAEXABV_Locinfo@2@@Z 1004aa00 f i libcpmtd:wlocale.obj
 0001:00049a10       ?_Init@?$money_get@_WV?$istreambuf_iterator@_WU?$char_traits@_W@std@@@std@@@std@@IAEXABV_Locinfo@2@@Z 1004aa10 f i libcpmtd:wlocale.obj
 0001:00049a20       ?_Init@?$money_put@GV?$ostreambuf_iterator@GU?$char_traits@G@std@@@std@@@std@@IAEXABV_Locinfo@2@@Z 1004aa20 f i libcpmtd:wlocale.obj
 0001:00049a30       ?_Init@?$money_put@_WV?$ostreambuf_iterator@_WU?$char_traits@_W@std@@@std@@@std@@IAEXABV_Locinfo@2@@Z 1004aa30 f i libcpmtd:wlocale.obj
 0001:00049a40       ?_Init@?$num_get@GV?$istreambuf_iterator@GU?$char_traits@G@std@@@std@@@std@@IAEXABV_Locinfo@2@@Z 1004aa40 f i libcpmtd:wlocale.obj
 0001:00049a50       ?_Init@?$num_get@_WV?$istreambuf_iterator@_WU?$char_traits@_W@std@@@std@@@std@@IAEXABV_Locinfo@2@@Z 1004aa50 f i libcpmtd:wlocale.obj
 0001:00049a60       ?_Init@?$num_put@GV?$ostreambuf_iterator@GU?$char_traits@G@std@@@std@@@std@@IAEXABV_Locinfo@2@@Z 1004aa60 f i libcpmtd:wlocale.obj
 0001:00049a70       ?_Init@?$num_put@_WV?$ostreambuf_iterator@_WU?$char_traits@_W@std@@@std@@@std@@IAEXABV_Locinfo@2@@Z 1004aa70 f i libcpmtd:wlocale.obj
 0001:00049a80       ?_Init@?$numpunct@G@std@@IAEXABV_Locinfo@2@_N@Z 1004aa80 f i libcpmtd:wlocale.obj
 0001:00049c40       ?_Init@?$numpunct@_W@std@@IAEXABV_Locinfo@2@_N@Z 1004ac40 f i libcpmtd:wlocale.obj
 0001:00049e00       ?_Init@?$time_get@GV?$istreambuf_iterator@GU?$char_traits@G@std@@@std@@@std@@IAEXABV_Locinfo@2@@Z 1004ae00 f i libcpmtd:wlocale.obj
 0001:00049ec0       ?_Init@?$time_get@_WV?$istreambuf_iterator@_WU?$char_traits@_W@std@@@std@@@std@@IAEXABV_Locinfo@2@@Z 1004aec0 f i libcpmtd:wlocale.obj
 0001:00049f80       ?_Init@?$time_put@GV?$ostreambuf_iterator@GU?$char_traits@G@std@@@std@@@std@@IAEXABV_Locinfo@2@@Z 1004af80 f i libcpmtd:wlocale.obj
 0001:0004a000       ?_Init@?$time_put@_WV?$ostreambuf_iterator@_WU?$char_traits@_W@std@@@std@@@std@@IAEXABV_Locinfo@2@@Z 1004b000 f i libcpmtd:wlocale.obj
 0001:0004a080       ?_Inside@?$basic_string@GU?$char_traits@G@std@@V?$allocator@G@2@@std@@QAE_NPBG@Z 1004b080 f i libcpmtd:wlocale.obj
 0001:0004a0c0       ?_Inside@?$basic_string@_WU?$char_traits@_W@std@@V?$allocator@_W@2@@std@@QAE_NPB_W@Z 1004b0c0 f i libcpmtd:wlocale.obj
 0001:0004a100       ?_Iput@?$num_put@GV?$ostreambuf_iterator@GU?$char_traits@G@std@@@std@@@std@@ABA?AV?$ostreambuf_iterator@GU?$char_traits@G@std@@@2@V32@AAVios_base@2@GPADI@Z 1004b100 f i libcpmtd:wlocale.obj
 0001:0004a550       ?_Iput@?$num_put@_WV?$ostreambuf_iterator@_WU?$char_traits@_W@std@@@std@@@std@@ABA?AV?$ostreambuf_iterator@_WU?$char_traits@_W@std@@@2@V32@AAVios_base@2@_WPADI@Z 1004b550 f i libcpmtd:wlocale.obj
 0001:0004a9a0       ?_Makeushloc@_Locimp@locale@std@@CAXABV_Locinfo@3@HPAV123@PBV23@@Z 1004b9a0 f   libcpmtd:wlocale.obj
 0001:0004b390       ?_Makewloc@_Locimp@locale@std@@CAXABV_Locinfo@3@HPAV123@PBV23@@Z 1004c390 f   libcpmtd:wlocale.obj
 0001:0004bd80       ?_Maklocwcs@std@@YAPA_WPB_W@Z 1004cd80 f i libcpmtd:wlocale.obj
 0001:0004bdf0       ?_Makpat@?$_Mpunct@G@std@@AAEXAAUpattern@money_base@2@III@Z 1004cdf0 f i libcpmtd:wlocale.obj
 0001:0004be60       ?_Makpat@?$_Mpunct@_W@std@@AAEXAAUpattern@money_base@2@III@Z 1004ce60 f i libcpmtd:wlocale.obj
 0001:0004bed0       ?_Myptr@?$_String_val@U?$_Simple_types@G@std@@@std@@QAEPAGXZ 1004ced0 f i libcpmtd:wlocale.obj
 0001:0004bf10       ?_Myptr@?$_String_val@U?$_Simple_types@G@std@@@std@@QBEPBGXZ 1004cf10 f i libcpmtd:wlocale.obj
 0001:0004bf50       ?_Myptr@?$_String_val@U?$_Simple_types@_W@std@@@std@@QAEPA_WXZ 1004cf50 f i libcpmtd:wlocale.obj
 0001:0004bf90       ?_Myptr@?$_String_val@U?$_Simple_types@_W@std@@@std@@QBEPB_WXZ 1004cf90 f i libcpmtd:wlocale.obj
 0001:0004bfd0       ?_Pdif@?$basic_string@GU?$char_traits@G@std@@V?$allocator@G@2@@std@@SAIV?$_String_const_iterator@V?$_String_val@U?$_Simple_types@G@std@@@std@@@2@0@Z 1004cfd0 f i libcpmtd:wlocale.obj
 0001:0004c050       ?_Pdif@?$basic_string@_WU?$char_traits@_W@std@@V?$allocator@_W@2@@std@@SAIV?$_String_const_iterator@V?$_String_val@U?$_Simple_types@_W@std@@@std@@@2@0@Z 1004d050 f i libcpmtd:wlocale.obj
 0001:0004c0d0       ?_Peek@?$istreambuf_iterator@GU?$char_traits@G@std@@@std@@ABEGXZ 1004d0d0 f i libcpmtd:wlocale.obj
 0001:0004c140       ?_Peek@?$istreambuf_iterator@_WU?$char_traits@_W@std@@@std@@ABE_WXZ 1004d140 f i libcpmtd:wlocale.obj
 0001:0004c1b0       ?_Pnavail@?$basic_streambuf@GU?$char_traits@G@std@@@std@@IBE_JXZ 1004d1b0 f i libcpmtd:wlocale.obj
 0001:0004c1e0       ?_Pnavail@?$basic_streambuf@_WU?$char_traits@_W@std@@@std@@IBE_JXZ 1004d1e0 f i libcpmtd:wlocale.obj
 0001:0004c210       ?_Pninc@?$basic_streambuf@GU?$char_traits@G@std@@@std@@IAEPAGXZ 1004d210 f i libcpmtd:wlocale.obj
 0001:0004c260       ?_Pninc@?$basic_streambuf@_WU?$char_traits@_W@std@@@std@@IAEPA_WXZ 1004d260 f i libcpmtd:wlocale.obj
 0001:0004c2b0       ?_Put@?$money_put@GV?$ostreambuf_iterator@GU?$char_traits@G@std@@@std@@@std@@CA?AV?$ostreambuf_iterator@GU?$char_traits@G@std@@@2@V32@V?$_String_const_iterator@V?$_String_val@U?$_Simple_types@G@std@@@std@@@2@I@Z 1004d2b0 f i libcpmtd:wlocale.obj
 0001:0004c350       ?_Put@?$money_put@_WV?$ostreambuf_iterator@_WU?$char_traits@_W@std@@@std@@@std@@CA?AV?$ostreambuf_iterator@_WU?$char_traits@_W@std@@@2@V32@V?$_String_const_iterator@V?$_String_val@U?$_Simple_types@_W@std@@@std@@@2@I@Z 1004d350 f i libcpmtd:wlocale.obj
 0001:0004c3f0       ?_Put@?$num_put@GV?$ostreambuf_iterator@GU?$char_traits@G@std@@@std@@@std@@ABA?AV?$ostreambuf_iterator@GU?$char_traits@G@std@@@2@V32@PBGI@Z 1004d3f0 f i libcpmtd:wlocale.obj
 0001:0004c440       ?_Put@?$num_put@_WV?$ostreambuf_iterator@_WU?$char_traits@_W@std@@@std@@@std@@ABA?AV?$ostreambuf_iterator@_WU?$char_traits@_W@std@@@2@V32@PB_WI@Z 1004d440 f i libcpmtd:wlocale.obj
 0001:0004c490       ?_Putmfld@?$money_put@GV?$ostreambuf_iterator@GU?$char_traits@G@std@@@std@@@std@@ABE?AV?$ostreambuf_iterator@GU?$char_traits@G@std@@@2@V32@_NAAVios_base@2@G1V?$basic_string@GU?$char_traits@G@std@@V?$allocator@G@2@@2@G@Z 1004d490 f i libcpmtd:wlocale.obj
 0001:0004d160       ?_Putmfld@?$money_put@_WV?$ostreambuf_iterator@_WU?$char_traits@_W@std@@@std@@@std@@ABE?AV?$ostreambuf_iterator@_WU?$char_traits@_W@std@@@2@V32@_NAAVios_base@2@_W1V?$basic_string@_WU?$char_traits@_W@std@@V?$allocator@_W@2@@2@3@Z 1004e160 f i libcpmtd:wlocale.obj
 0001:0004de30       ?_Rep@?$money_put@GV?$ostreambuf_iterator@GU?$char_traits@G@std@@@std@@@std@@CA?AV?$ostreambuf_iterator@GU?$char_traits@G@std@@@2@V32@GI@Z 1004ee30 f i libcpmtd:wlocale.obj
 0001:0004de80       ?_Rep@?$money_put@_WV?$ostreambuf_iterator@_WU?$char_traits@_W@std@@@std@@@std@@CA?AV?$ostreambuf_iterator@_WU?$char_traits@_W@std@@@2@V32@_WI@Z 1004ee80 f i libcpmtd:wlocale.obj
 0001:0004ded0       ?_Rep@?$num_put@GV?$ostreambuf_iterator@GU?$char_traits@G@std@@@std@@@std@@ABA?AV?$ostreambuf_iterator@GU?$char_traits@G@std@@@2@V32@GI@Z 1004eed0 f i libcpmtd:wlocale.obj
 0001:0004df20       ?_Rep@?$num_put@_WV?$ostreambuf_iterator@_WU?$char_traits@_W@std@@@std@@@std@@ABA?AV?$ostreambuf_iterator@_WU?$char_traits@_W@std@@@2@V32@_WI@Z 1004ef20 f i libcpmtd:wlocale.obj
 0001:0004df70       ?_Tidy@?$_Mpunct@G@std@@AAEXXZ 1004ef70 f i libcpmtd:wlocale.obj
 0001:0004dfc0       ?_Tidy@?$_Mpunct@_W@std@@AAEXXZ 1004efc0 f i libcpmtd:wlocale.obj
 0001:0004e010       ?_Tidy@?$basic_string@GU?$char_traits@G@std@@V?$allocator@G@2@@std@@QAEX_NI@Z 1004f010 f i libcpmtd:wlocale.obj
 0001:0004e0c0       ?_Tidy@?$basic_string@_WU?$char_traits@_W@std@@V?$allocator@_W@2@@std@@QAEX_NI@Z 1004f0c0 f i libcpmtd:wlocale.obj
 0001:0004e170       ?_Tidy@?$numpunct@G@std@@AAEXXZ 1004f170 f i libcpmtd:wlocale.obj
 0001:0004e1b0       ?_Tidy@?$numpunct@_W@std@@AAEXXZ 1004f1b0 f i libcpmtd:wlocale.obj
 0001:0004e1f0       ?_Tidy@?$time_get@GV?$istreambuf_iterator@GU?$char_traits@G@std@@@std@@@std@@AAEXXZ 1004f1f0 f i libcpmtd:wlocale.obj
 0001:0004e230       ?_Tidy@?$time_get@_WV?$istreambuf_iterator@_WU?$char_traits@_W@std@@@std@@@std@@AAEXXZ 1004f230 f i libcpmtd:wlocale.obj
 0001:0004e270       ?_W_Getdays@_Locinfo@std@@QBEPBGXZ 1004f270 f i libcpmtd:wlocale.obj
 0001:0004e2e0       ?_W_Getmonths@_Locinfo@std@@QBEPBGXZ 1004f2e0 f i libcpmtd:wlocale.obj
 0001:0004e350       ?_W_Gettnames@_Locinfo@std@@QBE?AV_Timevec@2@XZ 1004f350 f i libcpmtd:wlocale.obj
 0001:0004e380       ?_Xlen@?$basic_string@GU?$char_traits@G@std@@V?$allocator@G@2@@std@@QBEXXZ 1004f380 f i libcpmtd:wlocale.obj
 0001:0004e3a0       ?_Xlen@?$basic_string@_WU?$char_traits@_W@std@@V?$allocator@_W@2@@std@@QBEXXZ 1004f3a0 f i libcpmtd:wlocale.obj
 0001:0004e3c0       ?_Xran@?$basic_string@GU?$char_traits@G@std@@V?$allocator@G@2@@std@@QBEXXZ 1004f3c0 f i libcpmtd:wlocale.obj
 0001:0004e3e0       ?_Xran@?$basic_string@_WU?$char_traits@_W@std@@V?$allocator@_W@2@@std@@QBEXXZ 1004f3e0 f i libcpmtd:wlocale.obj
 0001:0004e400       ?allocate@?$_Wrap_alloc@V?$allocator@G@std@@@std@@QAEPAGI@Z 1004f400 f i libcpmtd:wlocale.obj
 0001:0004e420       ?allocate@?$_Wrap_alloc@V?$allocator@_W@std@@@std@@QAEPA_WI@Z 1004f420 f i libcpmtd:wlocale.obj
 0001:0004e440       ?allocate@?$allocator@G@std@@QAEPAGI@Z 1004f440 f i libcpmtd:wlocale.obj
 0001:0004e460       ?allocate@?$allocator@_W@std@@QAEPA_WI@Z 1004f460 f i libcpmtd:wlocale.obj
 0001:0004e480       ?append@?$basic_string@GU?$char_traits@G@std@@V?$allocator@G@2@@std@@QAEAAV12@ABV12@@Z 1004f480 f i libcpmtd:wlocale.obj
 0001:0004e4b0       ?append@?$basic_string@GU?$char_traits@G@std@@V?$allocator@G@2@@std@@QAEAAV12@ABV12@II@Z 1004f4b0 f i libcpmtd:wlocale.obj
 0001:0004e570       ?append@?$basic_string@GU?$char_traits@G@std@@V?$allocator@G@2@@std@@QAEAAV12@IG@Z 1004f570 f i libcpmtd:wlocale.obj
 0001:0004e5f0       ?append@?$basic_string@_WU?$char_traits@_W@std@@V?$allocator@_W@2@@std@@QAEAAV12@ABV12@@Z 1004f5f0 f i libcpmtd:wlocale.obj
 0001:0004e620       ?append@?$basic_string@_WU?$char_traits@_W@std@@V?$allocator@_W@2@@std@@QAEAAV12@ABV12@II@Z 1004f620 f i libcpmtd:wlocale.obj
 0001:0004e6e0       ?append@?$basic_string@_WU?$char_traits@_W@std@@V?$allocator@_W@2@@std@@QAEAAV12@I_W@Z 1004f6e0 f i libcpmtd:wlocale.obj
 0001:0004e760       ?assign@?$basic_string@GU?$char_traits@G@std@@V?$allocator@G@2@@std@@QAEAAV12@$$QAV12@@Z 1004f760 f i libcpmtd:wlocale.obj
 0001:0004e7e0       ?assign@?$basic_string@GU?$char_traits@G@std@@V?$allocator@G@2@@std@@QAEAAV12@ABV12@@Z 1004f7e0 f i libcpmtd:wlocale.obj
 0001:0004e810       ?assign@?$basic_string@GU?$char_traits@G@std@@V?$allocator@G@2@@std@@QAEAAV12@ABV12@II@Z 1004f810 f i libcpmtd:wlocale.obj
 0001:0004e8c0       ?assign@?$basic_string@GU?$char_traits@G@std@@V?$allocator@G@2@@std@@QAEAAV12@IG@Z 1004f8c0 f i libcpmtd:wlocale.obj
 0001:0004e920       ?assign@?$basic_string@GU?$char_traits@G@std@@V?$allocator@G@2@@std@@QAEAAV12@PBG@Z 1004f920 f i libcpmtd:wlocale.obj
 0001:0004e960       ?assign@?$basic_string@GU?$char_traits@G@std@@V?$allocator@G@2@@std@@QAEAAV12@PBGI@Z 1004f960 f i libcpmtd:wlocale.obj
 0001:0004ea00       ?assign@?$basic_string@_WU?$char_traits@_W@std@@V?$allocator@_W@2@@std@@QAEAAV12@$$QAV12@@Z 1004fa00 f i libcpmtd:wlocale.obj
 0001:0004ea80       ?assign@?$basic_string@_WU?$char_traits@_W@std@@V?$allocator@_W@2@@std@@QAEAAV12@ABV12@@Z 1004fa80 f i libcpmtd:wlocale.obj
 0001:0004eab0       ?assign@?$basic_string@_WU?$char_traits@_W@std@@V?$allocator@_W@2@@std@@QAEAAV12@ABV12@II@Z 1004fab0 f i libcpmtd:wlocale.obj
 0001:0004eb60       ?assign@?$basic_string@_WU?$char_traits@_W@std@@V?$allocator@_W@2@@std@@QAEAAV12@I_W@Z 1004fb60 f i libcpmtd:wlocale.obj
 0001:0004ebc0       ?assign@?$basic_string@_WU?$char_traits@_W@std@@V?$allocator@_W@2@@std@@QAEAAV12@PB_W@Z 1004fbc0 f i libcpmtd:wlocale.obj
 0001:0004ec00       ?assign@?$basic_string@_WU?$char_traits@_W@std@@V?$allocator@_W@2@@std@@QAEAAV12@PB_WI@Z 1004fc00 f i libcpmtd:wlocale.obj
 0001:0004eca0       ?assign@?$char_traits@G@std@@SAPAGPAGIG@Z 1004fca0 f i libcpmtd:wlocale.obj
 0001:0004ecc0       ?assign@?$char_traits@G@std@@SAXAAGABG@Z 1004fcc0 f i libcpmtd:wlocale.obj
 0001:0004ece0       ?assign@?$char_traits@_W@std@@SAPA_WPA_WI_W@Z 1004fce0 f i libcpmtd:wlocale.obj
 0001:0004ed00       ?assign@?$char_traits@_W@std@@SAXAA_WAB_W@Z 1004fd00 f i libcpmtd:wlocale.obj
 0001:0004ed20       ?begin@?$basic_string@GU?$char_traits@G@std@@V?$allocator@G@2@@std@@QAE?AV?$_String_iterator@V?$_String_val@U?$_Simple_types@G@std@@@std@@@2@XZ 1004fd20 f i libcpmtd:wlocale.obj
 0001:0004ed50       ?begin@?$basic_string@_WU?$char_traits@_W@std@@V?$allocator@_W@2@@std@@QAE?AV?$_String_iterator@V?$_String_val@U?$_Simple_types@_W@std@@@std@@@2@XZ 1004fd50 f i libcpmtd:wlocale.obj
 0001:0004ed80       ?c_str@?$basic_string@GU?$char_traits@G@std@@V?$allocator@G@2@@std@@QBEPBGXZ 1004fd80 f i libcpmtd:wlocale.obj
 0001:0004eda0       ?c_str@?$basic_string@_WU?$char_traits@_W@std@@V?$allocator@_W@2@@std@@QBEPB_WXZ 1004fda0 f i libcpmtd:wlocale.obj
 0001:0004edc0       ?copy@?$char_traits@G@std@@SAPAGPAGPBGI@Z 1004fdc0 f i libcpmtd:wlocale.obj
 0001:0004edf0       ?copy@?$char_traits@_W@std@@SAPA_WPA_WPB_WI@Z 1004fdf0 f i libcpmtd:wlocale.obj
 0001:0004ee20       ?curr_symbol@?$_Mpunct@G@std@@QBE?AV?$basic_string@GU?$char_traits@G@std@@V?$allocator@G@2@@2@XZ 1004fe20 f i libcpmtd:wlocale.obj
 0001:0004ee60       ?curr_symbol@?$_Mpunct@_W@std@@QBE?AV?$basic_string@_WU?$char_traits@_W@std@@V?$allocator@_W@2@@2@XZ 1004fe60 f i libcpmtd:wlocale.obj
 0001:0004eea0       ?date_order@?$time_get@GV?$istreambuf_iterator@GU?$char_traits@G@std@@@std@@@std@@QBE?AW4dateorder@time_base@2@XZ 1004fea0 f i libcpmtd:wlocale.obj
 0001:0004eec0       ?date_order@?$time_get@_WV?$istreambuf_iterator@_WU?$char_traits@_W@std@@@std@@@std@@QBE?AW4dateorder@time_base@2@XZ 1004fec0 f i libcpmtd:wlocale.obj
 0001:0004eee0       ?deallocate@?$_Wrap_alloc@V?$allocator@G@std@@@std@@QAEXPAGI@Z 1004fee0 f i libcpmtd:wlocale.obj
 0001:0004ef00       ?deallocate@?$_Wrap_alloc@V?$allocator@_W@std@@@std@@QAEXPA_WI@Z 1004ff00 f i libcpmtd:wlocale.obj
 0001:0004ef20       ?deallocate@?$allocator@G@std@@QAEXPAGI@Z 1004ff20 f i libcpmtd:wlocale.obj
 0001:0004ef40       ?deallocate@?$allocator@_W@std@@QAEXPA_WI@Z 1004ff40 f i libcpmtd:wlocale.obj
 0001:0004ef60       ?decimal_point@?$_Mpunct@G@std@@QBEGXZ 1004ff60 f i libcpmtd:wlocale.obj
 0001:0004ef80       ?decimal_point@?$_Mpunct@_W@std@@QBE_WXZ 1004ff80 f i libcpmtd:wlocale.obj
 0001:0004efa0       ?decimal_point@?$numpunct@G@std@@QBEGXZ 1004ffa0 f i libcpmtd:wlocale.obj
 0001:0004efc0       ?decimal_point@?$numpunct@_W@std@@QBE_WXZ 1004ffc0 f i libcpmtd:wlocale.obj
 0001:0004efe0       ?do_always_noconv@?$codecvt@GDH@std@@MBE_NXZ 1004ffe0 f i libcpmtd:wlocale.obj
 0001:0004eff0       ?do_always_noconv@?$codecvt@_WDH@std@@MBE_NXZ 1004fff0 f i libcpmtd:wlocale.obj
 0001:0004f000       ?do_close@?$messages@G@std@@MBEXH@Z 10050000 f i libcpmtd:wlocale.obj
 0001:0004f010       ?do_close@?$messages@_W@std@@MBEXH@Z 10050010 f i libcpmtd:wlocale.obj
 0001:0004f020       ?do_compare@?$collate@G@std@@MBEHPBG000@Z 10050020 f i libcpmtd:wlocale.obj
 0001:0004f0b0       ?do_compare@?$collate@_W@std@@MBEHPB_W000@Z 100500b0 f i libcpmtd:wlocale.obj
 0001:0004f140       ?do_curr_symbol@?$_Mpunct@G@std@@MBE?AV?$basic_string@GU?$char_traits@G@std@@V?$allocator@G@2@@2@XZ 10050140 f i libcpmtd:wlocale.obj
 0001:0004f180       ?do_curr_symbol@?$_Mpunct@_W@std@@MBE?AV?$basic_string@_WU?$char_traits@_W@std@@V?$allocator@_W@2@@2@XZ 10050180 f i libcpmtd:wlocale.obj
 0001:0004f1c0       ?do_date_order@?$time_get@GV?$istreambuf_iterator@GU?$char_traits@G@std@@@std@@@std@@MBE?AW4dateorder@time_base@2@XZ 100501c0 f i libcpmtd:wlocale.obj
 0001:0004f1e0       ?do_date_order@?$time_get@_WV?$istreambuf_iterator@_WU?$char_traits@_W@std@@@std@@@std@@MBE?AW4dateorder@time_base@2@XZ 100501e0 f i libcpmtd:wlocale.obj
 0001:0004f200       ?do_decimal_point@?$_Mpunct@G@std@@MBEGXZ 10050200 f i libcpmtd:wlocale.obj
 0001:0004f220       ?do_decimal_point@?$_Mpunct@_W@std@@MBE_WXZ 10050220 f i libcpmtd:wlocale.obj
 0001:0004f240       ?do_decimal_point@?$numpunct@G@std@@MBEGXZ 10050240 f i libcpmtd:wlocale.obj
 0001:0004f260       ?do_decimal_point@?$numpunct@_W@std@@MBE_WXZ 10050260 f i libcpmtd:wlocale.obj
 0001:0004f280       ?do_encoding@?$codecvt@GDH@std@@MBEHXZ 10050280 f i libcpmtd:wlocale.obj
 0001:0004f290       ?do_encoding@?$codecvt@_WDH@std@@MBEHXZ 10050290 f i libcpmtd:wlocale.obj
 0001:0004f2a0       ?do_falsename@?$numpunct@G@std@@MBE?AV?$basic_string@GU?$char_traits@G@std@@V?$allocator@G@2@@2@XZ 100502a0 f i libcpmtd:wlocale.obj
 0001:0004f2e0       ?do_falsename@?$numpunct@_W@std@@MBE?AV?$basic_string@_WU?$char_traits@_W@std@@V?$allocator@_W@2@@2@XZ 100502e0 f i libcpmtd:wlocale.obj
 0001:0004f320       ?do_frac_digits@?$_Mpunct@G@std@@MBEHXZ 10050320 f i libcpmtd:wlocale.obj
 0001:0004f340       ?do_frac_digits@?$_Mpunct@_W@std@@MBEHXZ 10050340 f i libcpmtd:wlocale.obj
 0001:0004f360       ?do_get@?$messages@G@std@@MBE?AV?$basic_string@GU?$char_traits@G@std@@V?$allocator@G@2@@2@HHHABV32@@Z 10050360 f i libcpmtd:wlocale.obj
 0001:0004f390       ?do_get@?$messages@_W@std@@MBE?AV?$basic_string@_WU?$char_traits@_W@std@@V?$allocator@_W@2@@2@HHHABV32@@Z 10050390 f i libcpmtd:wlocale.obj
 0001:0004f3c0       ?do_get@?$money_get@GV?$istreambuf_iterator@GU?$char_traits@G@std@@@std@@@std@@MBE?AV?$istreambuf_iterator@GU?$char_traits@G@std@@@2@V32@0_NAAVios_base@2@AAHAAO@Z 100503c0 f i libcpmtd:wlocale.obj
 0001:0004f4e0       ?do_get@?$money_get@GV?$istreambuf_iterator@GU?$char_traits@G@std@@@std@@@std@@MBE?AV?$istreambuf_iterator@GU?$char_traits@G@std@@@2@V32@0_NAAVios_base@2@AAHAAV?$basic_string@GU?$char_traits@G@std@@V?$allocator@G@2@@2@@Z 100504e0 f i libcpmtd:wlocale.obj
 0001:0004f650       ?do_get@?$money_get@_WV?$istreambuf_iterator@_WU?$char_traits@_W@std@@@std@@@std@@MBE?AV?$istreambuf_iterator@_WU?$char_traits@_W@std@@@2@V32@0_NAAVios_base@2@AAHAAO@Z 10050650 f i libcpmtd:wlocale.obj
 0001:0004f770       ?do_get@?$money_get@_WV?$istreambuf_iterator@_WU?$char_traits@_W@std@@@std@@@std@@MBE?AV?$istreambuf_iterator@_WU?$char_traits@_W@std@@@2@V32@0_NAAVios_base@2@AAHAAV?$basic_string@_WU?$char_traits@_W@std@@V?$allocator@_W@2@@2@@Z 10050770 f i libcpmtd:wlocale.obj
 0001:0004f8e0       ?do_get@?$num_get@GV?$istreambuf_iterator@GU?$char_traits@G@std@@@std@@@std@@MBE?AV?$istreambuf_iterator@GU?$char_traits@G@std@@@2@V32@0AAVios_base@2@AAHAAG@Z 100508e0 f i libcpmtd:wlocale.obj
 0001:0004fa70       ?do_get@?$num_get@GV?$istreambuf_iterator@GU?$char_traits@G@std@@@std@@@std@@MBE?AV?$istreambuf_iterator@GU?$char_traits@G@std@@@2@V32@0AAVios_base@2@AAHAAI@Z 10050a70 f i libcpmtd:wlocale.obj
 0001:0004fc00       ?do_get@?$num_get@GV?$istreambuf_iterator@GU?$char_traits@G@std@@@std@@@std@@MBE?AV?$istreambuf_iterator@GU?$char_traits@G@std@@@2@V32@0AAVios_base@2@AAHAAJ@Z 10050c00 f i libcpmtd:wlocale.obj
 0001:0004fd40       ?do_get@?$num_get@GV?$istreambuf_iterator@GU?$char_traits@G@std@@@std@@@std@@MBE?AV?$istreambuf_iterator@GU?$char_traits@G@std@@@2@V32@0AAVios_base@2@AAHAAK@Z 10050d40 f i libcpmtd:wlocale.obj
 0001:0004fe80       ?do_get@?$num_get@GV?$istreambuf_iterator@GU?$char_traits@G@std@@@std@@@std@@MBE?AV?$istreambuf_iterator@GU?$char_traits@G@std@@@2@V32@0AAVios_base@2@AAHAAM@Z 10050e80 f i libcpmtd:wlocale.obj
 0001:0004ff90       ?do_get@?$num_get@GV?$istreambuf_iterator@GU?$char_traits@G@std@@@std@@@std@@MBE?AV?$istreambuf_iterator@GU?$char_traits@G@std@@@2@V32@0AAVios_base@2@AAHAAN@Z 10050f90 f i libcpmtd:wlocale.obj
 0001:000500a0       ?do_get@?$num_get@GV?$istreambuf_iterator@GU?$char_traits@G@std@@@std@@@std@@MBE?AV?$istreambuf_iterator@GU?$char_traits@G@std@@@2@V32@0AAVios_base@2@AAHAAO@Z 100510a0 f i libcpmtd:wlocale.obj
 0001:000501b0       ?do_get@?$num_get@GV?$istreambuf_iterator@GU?$char_traits@G@std@@@std@@@std@@MBE?AV?$istreambuf_iterator@GU?$char_traits@G@std@@@2@V32@0AAVios_base@2@AAHAAPAX@Z 100511b0 f i libcpmtd:wlocale.obj
 0001:00050320       ?do_get@?$num_get@GV?$istreambuf_iterator@GU?$char_traits@G@std@@@std@@@std@@MBE?AV?$istreambuf_iterator@GU?$char_traits@G@std@@@2@V32@0AAVios_base@2@AAHAA_J@Z 10051320 f i libcpmtd:wlocale.obj
 0001:00050460       ?do_get@?$num_get@GV?$istreambuf_iterator@GU?$char_traits@G@std@@@std@@@std@@MBE?AV?$istreambuf_iterator@GU?$char_traits@G@std@@@2@V32@0AAVios_base@2@AAHAA_K@Z 10051460 f i libcpmtd:wlocale.obj
 0001:000505a0       ?do_get@?$num_get@GV?$istreambuf_iterator@GU?$char_traits@G@std@@@std@@@std@@MBE?AV?$istreambuf_iterator@GU?$char_traits@G@std@@@2@V32@0AAVios_base@2@AAHAA_N@Z 100515a0 f i libcpmtd:wlocale.obj
 0001:00050890       ?do_get@?$num_get@_WV?$istreambuf_iterator@_WU?$char_traits@_W@std@@@std@@@std@@MBE?AV?$istreambuf_iterator@_WU?$char_traits@_W@std@@@2@V32@0AAVios_base@2@AAHAAG@Z 10051890 f i libcpmtd:wlocale.obj
 0001:00050a20       ?do_get@?$num_get@_WV?$istreambuf_iterator@_WU?$char_traits@_W@std@@@std@@@std@@MBE?AV?$istreambuf_iterator@_WU?$char_traits@_W@std@@@2@V32@0AAVios_base@2@AAHAAI@Z 10051a20 f i libcpmtd:wlocale.obj
 0001:00050bb0       ?do_get@?$num_get@_WV?$istreambuf_iterator@_WU?$char_traits@_W@std@@@std@@@std@@MBE?AV?$istreambuf_iterator@_WU?$char_traits@_W@std@@@2@V32@0AAVios_base@2@AAHAAJ@Z 10051bb0 f i libcpmtd:wlocale.obj
 0001:00050cf0       ?do_get@?$num_get@_WV?$istreambuf_iterator@_WU?$char_traits@_W@std@@@std@@@std@@MBE?AV?$istreambuf_iterator@_WU?$char_traits@_W@std@@@2@V32@0AAVios_base@2@AAHAAK@Z 10051cf0 f i libcpmtd:wlocale.obj
 0001:00050e30       ?do_get@?$num_get@_WV?$istreambuf_iterator@_WU?$char_traits@_W@std@@@std@@@std@@MBE?AV?$istreambuf_iterator@_WU?$char_traits@_W@std@@@2@V32@0AAVios_base@2@AAHAAM@Z 10051e30 f i libcpmtd:wlocale.obj
 0001:00050f40       ?do_get@?$num_get@_WV?$istreambuf_iterator@_WU?$char_traits@_W@std@@@std@@@std@@MBE?AV?$istreambuf_iterator@_WU?$char_traits@_W@std@@@2@V32@0AAVios_base@2@AAHAAN@Z 10051f40 f i libcpmtd:wlocale.obj
 0001:00051050       ?do_get@?$num_get@_WV?$istreambuf_iterator@_WU?$char_traits@_W@std@@@std@@@std@@MBE?AV?$istreambuf_iterator@_WU?$char_traits@_W@std@@@2@V32@0AAVios_base@2@AAHAAO@Z 10052050 f i libcpmtd:wlocale.obj
 0001:00051160       ?do_get@?$num_get@_WV?$istreambuf_iterator@_WU?$char_traits@_W@std@@@std@@@std@@MBE?AV?$istreambuf_iterator@_WU?$char_traits@_W@std@@@2@V32@0AAVios_base@2@AAHAAPAX@Z 10052160 f i libcpmtd:wlocale.obj
 0001:000512d0       ?do_get@?$num_get@_WV?$istreambuf_iterator@_WU?$char_traits@_W@std@@@std@@@std@@MBE?AV?$istreambuf_iterator@_WU?$char_traits@_W@std@@@2@V32@0AAVios_base@2@AAHAA_J@Z 100522d0 f i libcpmtd:wlocale.obj
 0001:00051410       ?do_get@?$num_get@_WV?$istreambuf_iterator@_WU?$char_traits@_W@std@@@std@@@std@@MBE?AV?$istreambuf_iterator@_WU?$char_traits@_W@std@@@2@V32@0AAVios_base@2@AAHAA_K@Z 10052410 f i libcpmtd:wlocale.obj
 0001:00051550       ?do_get@?$num_get@_WV?$istreambuf_iterator@_WU?$char_traits@_W@std@@@std@@@std@@MBE?AV?$istreambuf_iterator@_WU?$char_traits@_W@std@@@2@V32@0AAVios_base@2@AAHAA_N@Z 10052550 f i libcpmtd:wlocale.obj
 0001:00051840       ?do_get@?$time_get@GV?$istreambuf_iterator@GU?$char_traits@G@std@@@std@@@std@@MBE?AV?$istreambuf_iterator@GU?$char_traits@G@std@@@2@V32@0AAVios_base@2@AAHPAUtm@@DD@Z 10052840 f i libcpmtd:wlocale.obj
 0001:00051f10       ?do_get@?$time_get@_WV?$istreambuf_iterator@_WU?$char_traits@_W@std@@@std@@@std@@MBE?AV?$istreambuf_iterator@_WU?$char_traits@_W@std@@@2@V32@0AAVios_base@2@AAHPAUtm@@DD@Z 10052f10 f i libcpmtd:wlocale.obj
 0001:000525e0       ?do_get_date@?$time_get@GV?$istreambuf_iterator@GU?$char_traits@G@std@@@std@@@std@@MBE?AV?$istreambuf_iterator@GU?$char_traits@G@std@@@2@V32@0AAVios_base@2@AAHPAUtm@@@Z 100535e0 f i libcpmtd:wlocale.obj
 0001:00052c00       ?do_get_date@?$time_get@_WV?$istreambuf_iterator@_WU?$char_traits@_W@std@@@std@@@std@@MBE?AV?$istreambuf_iterator@_WU?$char_traits@_W@std@@@2@V32@0AAVios_base@2@AAHPAUtm@@@Z 10053c00 f i libcpmtd:wlocale.obj
 0001:00053220       ?do_get_monthname@?$time_get@GV?$istreambuf_iterator@GU?$char_traits@G@std@@@std@@@std@@MBE?AV?$istreambuf_iterator@GU?$char_traits@G@std@@@2@V32@0AAVios_base@2@AAHPAUtm@@@Z 10054220 f i libcpmtd:wlocale.obj
 0001:000532c0       ?do_get_monthname@?$time_get@_WV?$istreambuf_iterator@_WU?$char_traits@_W@std@@@std@@@std@@MBE?AV?$istreambuf_iterator@_WU?$char_traits@_W@std@@@2@V32@0AAVios_base@2@AAHPAUtm@@@Z 100542c0 f i libcpmtd:wlocale.obj
 0001:00053360       ?do_get_time@?$time_get@GV?$istreambuf_iterator@GU?$char_traits@G@std@@@std@@@std@@MBE?AV?$istreambuf_iterator@GU?$char_traits@G@std@@@2@V32@0AAVios_base@2@AAHPAUtm@@@Z 10054360 f i libcpmtd:wlocale.obj
 0001:00053520       ?do_get_time@?$time_get@_WV?$istreambuf_iterator@_WU?$char_traits@_W@std@@@std@@@std@@MBE?AV?$istreambuf_iterator@_WU?$char_traits@_W@std@@@2@V32@0AAVios_base@2@AAHPAUtm@@@Z 10054520 f i libcpmtd:wlocale.obj
 0001:000536e0       ?do_get_weekday@?$time_get@GV?$istreambuf_iterator@GU?$char_traits@G@std@@@std@@@std@@MBE?AV?$istreambuf_iterator@GU?$char_traits@G@std@@@2@V32@0AAVios_base@2@AAHPAUtm@@@Z 100546e0 f i libcpmtd:wlocale.obj
 0001:00053780       ?do_get_weekday@?$time_get@_WV?$istreambuf_iterator@_WU?$char_traits@_W@std@@@std@@@std@@MBE?AV?$istreambuf_iterator@_WU?$char_traits@_W@std@@@2@V32@0AAVios_base@2@AAHPAUtm@@@Z 10054780 f i libcpmtd:wlocale.obj
 0001:00053820       ?do_get_year@?$time_get@GV?$istreambuf_iterator@GU?$char_traits@G@std@@@std@@@std@@MBE?AV?$istreambuf_iterator@GU?$char_traits@G@std@@@2@V32@0AAVios_base@2@AAHPAUtm@@@Z 10054820 f i libcpmtd:wlocale.obj
 0001:00053950       ?do_get_year@?$time_get@_WV?$istreambuf_iterator@_WU?$char_traits@_W@std@@@std@@@std@@MBE?AV?$istreambuf_iterator@_WU?$char_traits@_W@std@@@2@V32@0AAVios_base@2@AAHPAUtm@@@Z 10054950 f i libcpmtd:wlocale.obj
 0001:00053a80       ?do_grouping@?$_Mpunct@G@std@@MBE?AV?$basic_string@DU?$char_traits@D@std@@V?$allocator@D@2@@2@XZ 10054a80 f i libcpmtd:wlocale.obj
 0001:00053ac0       ?do_grouping@?$_Mpunct@_W@std@@MBE?AV?$basic_string@DU?$char_traits@D@std@@V?$allocator@D@2@@2@XZ 10054ac0 f i libcpmtd:wlocale.obj
 0001:00053b00       ?do_grouping@?$numpunct@G@std@@MBE?AV?$basic_string@DU?$char_traits@D@std@@V?$allocator@D@2@@2@XZ 10054b00 f i libcpmtd:wlocale.obj
 0001:00053b40       ?do_grouping@?$numpunct@_W@std@@MBE?AV?$basic_string@DU?$char_traits@D@std@@V?$allocator@D@2@@2@XZ 10054b40 f i libcpmtd:wlocale.obj
 0001:00053b80       ?do_hash@?$collate@G@std@@MBEJPBG0@Z 10054b80 f i libcpmtd:wlocale.obj
 0001:00053bc0       ?do_hash@?$collate@_W@std@@MBEJPB_W0@Z 10054bc0 f i libcpmtd:wlocale.obj
 0001:00053c00       ?do_in@?$codecvt@GDH@std@@MBEHAAHPBD1AAPBDPAG3AAPAG@Z 10054c00 f i libcpmtd:wlocale.obj
 0001:00053d40       ?do_in@?$codecvt@_WDH@std@@MBEHAAHPBD1AAPBDPA_W3AAPA_W@Z 10054d40 f i libcpmtd:wlocale.obj
 0001:00053e80       ?do_is@?$ctype@G@std@@MBEPBGPBG0PAF@Z 10054e80 f i libcpmtd:wlocale.obj
 0001:00053ee0       ?do_is@?$ctype@G@std@@MBE_NFG@Z 10054ee0 f i libcpmtd:wlocale.obj
 0001:00053f30       ?do_is@?$ctype@_W@std@@MBEPB_WPB_W0PAF@Z 10054f30 f i libcpmtd:wlocale.obj
 0001:00053f90       ?do_is@?$ctype@_W@std@@MBE_NF_W@Z 10054f90 f i libcpmtd:wlocale.obj
 0001:00053fe0       ?do_length@?$codecvt@GDH@std@@MBEHAAHPBD1I@Z 10054fe0 f i libcpmtd:wlocale.obj
 0001:000540c0       ?do_length@?$codecvt@_WDH@std@@MBEHAAHPBD1I@Z 100550c0 f i libcpmtd:wlocale.obj
 0001:000541a0       ?do_max_length@?$codecvt@GDH@std@@MBEHXZ 100551a0 f i libcpmtd:wlocale.obj
 0001:000541b0       ?do_max_length@?$codecvt@_WDH@std@@MBEHXZ 100551b0 f i libcpmtd:wlocale.obj
 0001:000541c0       ?do_narrow@?$ctype@G@std@@MBEDGD@Z 100551c0 f i libcpmtd:wlocale.obj
 0001:000541e0       ?do_narrow@?$ctype@G@std@@MBEPBGPBG0DPAD@Z 100551e0 f i libcpmtd:wlocale.obj
 0001:00054260       ?do_narrow@?$ctype@_W@std@@MBED_WD@Z 10055260 f i libcpmtd:wlocale.obj
 0001:00054280       ?do_narrow@?$ctype@_W@std@@MBEPB_WPB_W0DPAD@Z 10055280 f i libcpmtd:wlocale.obj
 0001:00054300       ?do_neg_format@?$_Mpunct@G@std@@MBE?AUpattern@money_base@2@XZ 10055300 f i libcpmtd:wlocale.obj
 0001:00054320       ?do_neg_format@?$_Mpunct@_W@std@@MBE?AUpattern@money_base@2@XZ 10055320 f i libcpmtd:wlocale.obj
 0001:00054340       ?do_negative_sign@?$_Mpunct@G@std@@MBE?AV?$basic_string@GU?$char_traits@G@std@@V?$allocator@G@2@@2@XZ 10055340 f i libcpmtd:wlocale.obj
 0001:00054380       ?do_negative_sign@?$_Mpunct@_W@std@@MBE?AV?$basic_string@_WU?$char_traits@_W@std@@V?$allocator@_W@2@@2@XZ 10055380 f i libcpmtd:wlocale.obj
 0001:000543c0       ?do_open@?$messages@G@std@@MBEHABV?$basic_string@DU?$char_traits@D@std@@V?$allocator@D@2@@2@ABVlocale@2@@Z 100553c0 f i libcpmtd:wlocale.obj
 0001:000543d0       ?do_open@?$messages@_W@std@@MBEHABV?$basic_string@DU?$char_traits@D@std@@V?$allocator@D@2@@2@ABVlocale@2@@Z 100553d0 f i libcpmtd:wlocale.obj
 0001:000543e0       ?do_out@?$codecvt@GDH@std@@MBEHAAHPBG1AAPBGPAD3AAPAD@Z 100553e0 f i libcpmtd:wlocale.obj
 0001:00054590       ?do_out@?$codecvt@_WDH@std@@MBEHAAHPB_W1AAPB_WPAD3AAPAD@Z 10055590 f i libcpmtd:wlocale.obj
 0001:00054740       ?do_pos_format@?$_Mpunct@G@std@@MBE?AUpattern@money_base@2@XZ 10055740 f i libcpmtd:wlocale.obj
 0001:00054760       ?do_pos_format@?$_Mpunct@_W@std@@MBE?AUpattern@money_base@2@XZ 10055760 f i libcpmtd:wlocale.obj
 0001:00054780       ?do_positive_sign@?$_Mpunct@G@std@@MBE?AV?$basic_string@GU?$char_traits@G@std@@V?$allocator@G@2@@2@XZ 10055780 f i libcpmtd:wlocale.obj
 0001:000547c0       ?do_positive_sign@?$_Mpunct@_W@std@@MBE?AV?$basic_string@_WU?$char_traits@_W@std@@V?$allocator@_W@2@@2@XZ 100557c0 f i libcpmtd:wlocale.obj
 0001:00054800       ?do_put@?$money_put@GV?$ostreambuf_iterator@GU?$char_traits@G@std@@@std@@@std@@MBE?AV?$ostreambuf_iterator@GU?$char_traits@G@std@@@2@V32@_NAAVios_base@2@GABV?$basic_string@GU?$char_traits@G@std@@V?$allocator@G@2@@2@@Z 10055800 f i libcpmtd:wlocale.obj
 0001:000549e0       ?do_put@?$money_put@GV?$ostreambuf_iterator@GU?$char_traits@G@std@@@std@@@std@@MBE?AV?$ostreambuf_iterator@GU?$char_traits@G@std@@@2@V32@_NAAVios_base@2@GO@Z 100559e0 f i libcpmtd:wlocale.obj
 0001:00054ba0       ?do_put@?$money_put@_WV?$ostreambuf_iterator@_WU?$char_traits@_W@std@@@std@@@std@@MBE?AV?$ostreambuf_iterator@_WU?$char_traits@_W@std@@@2@V32@_NAAVios_base@2@_WABV?$basic_string@_WU?$char_traits@_W@std@@V?$allocator@_W@2@@2@@Z 10055ba0 f i libcpmtd:wlocale.obj
 0001:00054d80       ?do_put@?$money_put@_WV?$ostreambuf_iterator@_WU?$char_traits@_W@std@@@std@@@std@@MBE?AV?$ostreambuf_iterator@_WU?$char_traits@_W@std@@@2@V32@_NAAVios_base@2@_WO@Z 10055d80 f i libcpmtd:wlocale.obj
 0001:00054f40       ?do_put@?$num_put@GV?$ostreambuf_iterator@GU?$char_traits@G@std@@@std@@@std@@MBE?AV?$ostreambuf_iterator@GU?$char_traits@G@std@@@2@V32@AAVios_base@2@GJ@Z 10055f40 f i libcpmtd:wlocale.obj
 0001:00054fc0       ?do_put@?$num_put@GV?$ostreambuf_iterator@GU?$char_traits@G@std@@@std@@@std@@MBE?AV?$ostreambuf_iterator@GU?$char_traits@G@std@@@2@V32@AAVios_base@2@GK@Z 10055fc0 f i libcpmtd:wlocale.obj
 0001:00055040       ?do_put@?$num_put@GV?$ostreambuf_iterator@GU?$char_traits@G@std@@@std@@@std@@MBE?AV?$ostreambuf_iterator@GU?$char_traits@G@std@@@2@V32@AAVios_base@2@GN@Z 10056040 f i libcpmtd:wlocale.obj
 0001:000552f0       ?do_put@?$num_put@GV?$ostreambuf_iterator@GU?$char_traits@G@std@@@std@@@std@@MBE?AV?$ostreambuf_iterator@GU?$char_traits@G@std@@@2@V32@AAVios_base@2@GO@Z 100562f0 f i libcpmtd:wlocale.obj
 0001:00055590       ?do_put@?$num_put@GV?$ostreambuf_iterator@GU?$char_traits@G@std@@@std@@@std@@MBE?AV?$ostreambuf_iterator@GU?$char_traits@G@std@@@2@V32@AAVios_base@2@GPBX@Z 10056590 f i libcpmtd:wlocale.obj
 0001:00055600       ?do_put@?$num_put@GV?$ostreambuf_iterator@GU?$char_traits@G@std@@@std@@@std@@MBE?AV?$ostreambuf_iterator@GU?$char_traits@G@std@@@2@V32@AAVios_base@2@G_J@Z 10056600 f i libcpmtd:wlocale.obj
 0001:00055690       ?do_put@?$num_put@GV?$ostreambuf_iterator@GU?$char_traits@G@std@@@std@@@std@@MBE?AV?$ostreambuf_iterator@GU?$char_traits@G@std@@@2@V32@AAVios_base@2@G_K@Z 10056690 f i libcpmtd:wlocale.obj
 0001:00055720       ?do_put@?$num_put@GV?$ostreambuf_iterator@GU?$char_traits@G@std@@@std@@@std@@MBE?AV?$ostreambuf_iterator@GU?$char_traits@G@std@@@2@V32@AAVios_base@2@G_N@Z 10056720 f i libcpmtd:wlocale.obj
 0001:00055990       ?do_put@?$num_put@_WV?$ostreambuf_iterator@_WU?$char_traits@_W@std@@@std@@@std@@MBE?AV?$ostreambuf_iterator@_WU?$char_traits@_W@std@@@2@V32@AAVios_base@2@_WJ@Z 10056990 f i libcpmtd:wlocale.obj
 0001:00055a10       ?do_put@?$num_put@_WV?$ostreambuf_iterator@_WU?$char_traits@_W@std@@@std@@@std@@MBE?AV?$ostreambuf_iterator@_WU?$char_traits@_W@std@@@2@V32@AAVios_base@2@_WK@Z 10056a10 f i libcpmtd:wlocale.obj
 0001:00055a90       ?do_put@?$num_put@_WV?$ostreambuf_iterator@_WU?$char_traits@_W@std@@@std@@@std@@MBE?AV?$ostreambuf_iterator@_WU?$char_traits@_W@std@@@2@V32@AAVios_base@2@_WN@Z 10056a90 f i libcpmtd:wlocale.obj
 0001:00055d40       ?do_put@?$num_put@_WV?$ostreambuf_iterator@_WU?$char_traits@_W@std@@@std@@@std@@MBE?AV?$ostreambuf_iterator@_WU?$char_traits@_W@std@@@2@V32@AAVios_base@2@_WO@Z 10056d40 f i libcpmtd:wlocale.obj
 0001:00055fe0       ?do_put@?$num_put@_WV?$ostreambuf_iterator@_WU?$char_traits@_W@std@@@std@@@std@@MBE?AV?$ostreambuf_iterator@_WU?$char_traits@_W@std@@@2@V32@AAVios_base@2@_WPBX@Z 10056fe0 f i libcpmtd:wlocale.obj
 0001:00056050       ?do_put@?$num_put@_WV?$ostreambuf_iterator@_WU?$char_traits@_W@std@@@std@@@std@@MBE?AV?$ostreambuf_iterator@_WU?$char_traits@_W@std@@@2@V32@AAVios_base@2@_W_J@Z 10057050 f i libcpmtd:wlocale.obj
 0001:000560e0       ?do_put@?$num_put@_WV?$ostreambuf_iterator@_WU?$char_traits@_W@std@@@std@@@std@@MBE?AV?$ostreambuf_iterator@_WU?$char_traits@_W@std@@@2@V32@AAVios_base@2@_W_K@Z 100570e0 f i libcpmtd:wlocale.obj
 0001:00056170       ?do_put@?$num_put@_WV?$ostreambuf_iterator@_WU?$char_traits@_W@std@@@std@@@std@@MBE?AV?$ostreambuf_iterator@_WU?$char_traits@_W@std@@@2@V32@AAVios_base@2@_W_N@Z 10057170 f i libcpmtd:wlocale.obj
 0001:000563e0       ?do_put@?$time_put@GV?$ostreambuf_iterator@GU?$char_traits@G@std@@@std@@@std@@MBE?AV?$ostreambuf_iterator@GU?$char_traits@G@std@@@2@V32@AAVios_base@2@GPBUtm@@DD@Z 100573e0 f i libcpmtd:wlocale.obj
 0001:000565b0       ?do_put@?$time_put@_WV?$ostreambuf_iterator@_WU?$char_traits@_W@std@@@std@@@std@@MBE?AV?$ostreambuf_iterator@_WU?$char_traits@_W@std@@@2@V32@AAVios_base@2@_WPBUtm@@DD@Z 100575b0 f i libcpmtd:wlocale.obj
 0001:00056780       ?do_scan_is@?$ctype@G@std@@MBEPBGFPBG0@Z 10057780 f i libcpmtd:wlocale.obj
 0001:000567e0       ?do_scan_is@?$ctype@_W@std@@MBEPB_WFPB_W0@Z 100577e0 f i libcpmtd:wlocale.obj
 0001:00056840       ?do_scan_not@?$ctype@G@std@@MBEPBGFPBG0@Z 10057840 f i libcpmtd:wlocale.obj
 0001:000568a0       ?do_scan_not@?$ctype@_W@std@@MBEPB_WFPB_W0@Z 100578a0 f i libcpmtd:wlocale.obj
 0001:00056900       ?do_thousands_sep@?$_Mpunct@G@std@@MBEGXZ 10057900 f i libcpmtd:wlocale.obj
 0001:00056920       ?do_thousands_sep@?$_Mpunct@_W@std@@MBE_WXZ 10057920 f i libcpmtd:wlocale.obj
 0001:00056940       ?do_thousands_sep@?$numpunct@G@std@@MBEGXZ 10057940 f i libcpmtd:wlocale.obj
 0001:00056960       ?do_thousands_sep@?$numpunct@_W@std@@MBE_WXZ 10057960 f i libcpmtd:wlocale.obj
 0001:00056980       ?do_tolower@?$ctype@G@std@@MBEGG@Z 10057980 f i libcpmtd:wlocale.obj
 0001:000569b0       ?do_tolower@?$ctype@G@std@@MBEPBGPAGPBG@Z 100579b0 f i libcpmtd:wlocale.obj
 0001:00056a10       ?do_tolower@?$ctype@_W@std@@MBEPB_WPA_WPB_W@Z 10057a10 f i libcpmtd:wlocale.obj
 0001:00056a70       ?do_tolower@?$ctype@_W@std@@MBE_W_W@Z 10057a70 f i libcpmtd:wlocale.obj
 0001:00056aa0       ?do_toupper@?$ctype@G@std@@MBEGG@Z 10057aa0 f i libcpmtd:wlocale.obj
 0001:00056ad0       ?do_toupper@?$ctype@G@std@@MBEPBGPAGPBG@Z 10057ad0 f i libcpmtd:wlocale.obj
 0001:00056b30       ?do_toupper@?$ctype@_W@std@@MBEPB_WPA_WPB_W@Z 10057b30 f i libcpmtd:wlocale.obj
 0001:00056b90       ?do_toupper@?$ctype@_W@std@@MBE_W_W@Z 10057b90 f i libcpmtd:wlocale.obj
 0001:00056bc0       ?do_transform@?$collate@G@std@@MBE?AV?$basic_string@GU?$char_traits@G@std@@V?$allocator@G@2@@2@PBG0@Z 10057bc0 f i libcpmtd:wlocale.obj
 0001:00056d40       ?do_transform@?$collate@_W@std@@MBE?AV?$basic_string@_WU?$char_traits@_W@std@@V?$allocator@_W@2@@2@PB_W0@Z 10057d40 f i libcpmtd:wlocale.obj
 0001:00056ec0       ?do_truename@?$numpunct@G@std@@MBE?AV?$basic_string@GU?$char_traits@G@std@@V?$allocator@G@2@@2@XZ 10057ec0 f i libcpmtd:wlocale.obj
 0001:00056f00       ?do_truename@?$numpunct@_W@std@@MBE?AV?$basic_string@_WU?$char_traits@_W@std@@V?$allocator@_W@2@@2@XZ 10057f00 f i libcpmtd:wlocale.obj
 0001:00056f40       ?do_unshift@?$codecvt@GDH@std@@MBEHAAHPAD1AAPAD@Z 10057f40 f i libcpmtd:wlocale.obj
 0001:00057020       ?do_unshift@?$codecvt@_WDH@std@@MBEHAAHPAD1AAPAD@Z 10058020 f i libcpmtd:wlocale.obj
 0001:00057100       ?do_widen@?$ctype@G@std@@MBEGD@Z 10058100 f i libcpmtd:wlocale.obj
 0001:00057120       ?do_widen@?$ctype@G@std@@MBEPBDPBD0PAG@Z 10058120 f i libcpmtd:wlocale.obj
 0001:000571a0       ?do_widen@?$ctype@_W@std@@MBEPBDPBD0PA_W@Z 100581a0 f i libcpmtd:wlocale.obj
 0001:00057220       ?do_widen@?$ctype@_W@std@@MBE_WD@Z 10058220 f i libcpmtd:wlocale.obj
 0001:00057240       ?empty@?$basic_string@GU?$char_traits@G@std@@V?$allocator@G@2@@std@@QBE_NXZ 10058240 f i libcpmtd:wlocale.obj
 0001:00057270       ?empty@?$basic_string@_WU?$char_traits@_W@std@@V?$allocator@_W@2@@std@@QBE_NXZ 10058270 f i libcpmtd:wlocale.obj
 0001:000572a0       ?end@?$basic_string@GU?$char_traits@G@std@@V?$allocator@G@2@@std@@QAE?AV?$_String_iterator@V?$_String_val@U?$_Simple_types@G@std@@@std@@@2@XZ 100582a0 f i libcpmtd:wlocale.obj
 0001:000572d0       ?end@?$basic_string@_WU?$char_traits@_W@std@@V?$allocator@_W@2@@std@@QAE?AV?$_String_iterator@V?$_String_val@U?$_Simple_types@_W@std@@@std@@@2@XZ 100582d0 f i libcpmtd:wlocale.obj
 0001:00057300       ?eof@?$char_traits@G@std@@SAGXZ 10058300 f i libcpmtd:wlocale.obj
 0001:00057310       ?eof@?$char_traits@_W@std@@SAGXZ 10058310 f i libcpmtd:wlocale.obj
 0001:00057320       ?eq_int_type@?$char_traits@G@std@@SA_NABG0@Z 10058320 f i libcpmtd:wlocale.obj
 0001:00057350       ?eq_int_type@?$char_traits@_W@std@@SA_NABG0@Z 10058350 f i libcpmtd:wlocale.obj
 0001:00057380       ?equal@?$istreambuf_iterator@GU?$char_traits@G@std@@@std@@QBE_NABV12@@Z 10058380 f i libcpmtd:wlocale.obj
 0001:000573f0       ?equal@?$istreambuf_iterator@_WU?$char_traits@_W@std@@@std@@QBE_NABV12@@Z 100583f0 f i libcpmtd:wlocale.obj
 0001:00057460       ?erase@?$basic_string@GU?$char_traits@G@std@@V?$allocator@G@2@@std@@QAEAAV12@I@Z 10058460 f i libcpmtd:wlocale.obj
 0001:00057490       ?erase@?$basic_string@GU?$char_traits@G@std@@V?$allocator@G@2@@std@@QAEAAV12@II@Z 10058490 f i libcpmtd:wlocale.obj
 0001:00057520       ?erase@?$basic_string@_WU?$char_traits@_W@std@@V?$allocator@_W@2@@std@@QAEAAV12@I@Z 10058520 f i libcpmtd:wlocale.obj
 0001:00057550       ?erase@?$basic_string@_WU?$char_traits@_W@std@@V?$allocator@_W@2@@std@@QAEAAV12@II@Z 10058550 f i libcpmtd:wlocale.obj
 0001:000575e0       ?falsename@?$numpunct@G@std@@QBE?AV?$basic_string@GU?$char_traits@G@std@@V?$allocator@G@2@@2@XZ 100585e0 f i libcpmtd:wlocale.obj
 0001:00057620       ?falsename@?$numpunct@_W@std@@QBE?AV?$basic_string@_WU?$char_traits@_W@std@@V?$allocator@_W@2@@2@XZ 10058620 f i libcpmtd:wlocale.obj
 0001:00057660       ?frac_digits@?$_Mpunct@G@std@@QBEHXZ 10058660 f i libcpmtd:wlocale.obj
 0001:00057680       ?frac_digits@?$_Mpunct@_W@std@@QBEHXZ 10058680 f i libcpmtd:wlocale.obj
 0001:000576a0       ?get_allocator@?$basic_string@GU?$char_traits@G@std@@V?$allocator@G@2@@std@@QBE?AV?$allocator@G@2@XZ 100586a0 f i libcpmtd:wlocale.obj
 0001:000576d0       ?get_allocator@?$basic_string@_WU?$char_traits@_W@std@@V?$allocator@_W@2@@std@@QBE?AV?$allocator@_W@2@XZ 100586d0 f i libcpmtd:wlocale.obj
 0001:00057700       ?get_monthname@?$time_get@GV?$istreambuf_iterator@GU?$char_traits@G@std@@@std@@@std@@QBE?AV?$istreambuf_iterator@GU?$char_traits@G@std@@@2@V32@0AAVios_base@2@AAHPAUtm@@@Z 10058700 f i libcpmtd:wlocale.obj
 0001:00057740       ?get_monthname@?$time_get@_WV?$istreambuf_iterator@_WU?$char_traits@_W@std@@@std@@@std@@QBE?AV?$istreambuf_iterator@_WU?$char_traits@_W@std@@@2@V32@0AAVios_base@2@AAHPAUtm@@@Z 10058740 f i libcpmtd:wlocale.obj
 0001:00057780       ?get_weekday@?$time_get@GV?$istreambuf_iterator@GU?$char_traits@G@std@@@std@@@std@@QBE?AV?$istreambuf_iterator@GU?$char_traits@G@std@@@2@V32@0AAVios_base@2@AAHPAUtm@@@Z 10058780 f i libcpmtd:wlocale.obj
 0001:000577c0       ?get_weekday@?$time_get@_WV?$istreambuf_iterator@_WU?$char_traits@_W@std@@@std@@@std@@QBE?AV?$istreambuf_iterator@_WU?$char_traits@_W@std@@@2@V32@0AAVios_base@2@AAHPAUtm@@@Z 100587c0 f i libcpmtd:wlocale.obj
 0001:00057800       ?get_year@?$time_get@GV?$istreambuf_iterator@GU?$char_traits@G@std@@@std@@@std@@QBE?AV?$istreambuf_iterator@GU?$char_traits@G@std@@@2@V32@0AAVios_base@2@AAHPAUtm@@@Z 10058800 f i libcpmtd:wlocale.obj
 0001:00057840       ?get_year@?$time_get@_WV?$istreambuf_iterator@_WU?$char_traits@_W@std@@@std@@@std@@QBE?AV?$istreambuf_iterator@_WU?$char_traits@_W@std@@@2@V32@0AAVios_base@2@AAHPAUtm@@@Z 10058840 f i libcpmtd:wlocale.obj
 0001:00057880       ?gptr@?$basic_streambuf@GU?$char_traits@G@std@@@std@@IBEPAGXZ 10058880 f i libcpmtd:wlocale.obj
 0001:000578a0       ?gptr@?$basic_streambuf@_WU?$char_traits@_W@std@@@std@@IBEPA_WXZ 100588a0 f i libcpmtd:wlocale.obj
 0001:000578c0       ?grouping@?$_Mpunct@G@std@@QBE?AV?$basic_string@DU?$char_traits@D@std@@V?$allocator@D@2@@2@XZ 100588c0 f i libcpmtd:wlocale.obj
 0001:00057900       ?grouping@?$_Mpunct@_W@std@@QBE?AV?$basic_string@DU?$char_traits@D@std@@V?$allocator@D@2@@2@XZ 10058900 f i libcpmtd:wlocale.obj
 0001:00057940       ?grouping@?$numpunct@G@std@@QBE?AV?$basic_string@DU?$char_traits@D@std@@V?$allocator@D@2@@2@XZ 10058940 f i libcpmtd:wlocale.obj
 0001:00057980       ?grouping@?$numpunct@_W@std@@QBE?AV?$basic_string@DU?$char_traits@D@std@@V?$allocator@D@2@@2@XZ 10058980 f i libcpmtd:wlocale.obj
 0001:000579c0       ?insert@?$basic_string@GU?$char_traits@G@std@@V?$allocator@G@2@@std@@QAEAAV12@IIG@Z 100589c0 f i libcpmtd:wlocale.obj
 0001:00057a80       ?insert@?$basic_string@_WU?$char_traits@_W@std@@V?$allocator@_W@2@@std@@QAEAAV12@II_W@Z 10058a80 f i libcpmtd:wlocale.obj
 0001:00057b40       ?is@?$ctype@G@std@@QBE_NFG@Z 10058b40 f i libcpmtd:wlocale.obj
 0001:00057b70       ?is@?$ctype@_W@std@@QBE_NF_W@Z 10058b70 f i libcpmtd:wlocale.obj
 0001:00057ba0       ?length@?$char_traits@G@std@@SAIPBG@Z 10058ba0 f i libcpmtd:wlocale.obj
 0001:00057bd0       ?length@?$char_traits@_W@std@@SAIPB_W@Z 10058bd0 f i libcpmtd:wlocale.obj
 0001:00057c00       ?max_size@?$_Wrap_alloc@V?$allocator@G@std@@@std@@QBEIXZ 10058c00 f i libcpmtd:wlocale.obj
 0001:00057c20       ?max_size@?$_Wrap_alloc@V?$allocator@_W@std@@@std@@QBEIXZ 10058c20 f i libcpmtd:wlocale.obj
 0001:00057c40       ?max_size@?$allocator@G@std@@QBEIXZ 10058c40 f i libcpmtd:wlocale.obj
 0001:00057c50       ?max_size@?$allocator@_W@std@@QBEIXZ 10058c50 f i libcpmtd:wlocale.obj
 0001:00057c60       ?max_size@?$allocator_traits@V?$allocator@G@std@@@std@@SAIABV?$allocator@G@2@@Z 10058c60 f i libcpmtd:wlocale.obj
 0001:00057c70       ?max_size@?$allocator_traits@V?$allocator@_W@std@@@std@@SAIABV?$allocator@_W@2@@Z 10058c70 f i libcpmtd:wlocale.obj
 0001:00057c80       ?max_size@?$basic_string@GU?$char_traits@G@std@@V?$allocator@G@2@@std@@QBEIXZ 10058c80 f i libcpmtd:wlocale.obj
 0001:00057cc0       ?max_size@?$basic_string@_WU?$char_traits@_W@std@@V?$allocator@_W@2@@std@@QBEIXZ 10058cc0 f i libcpmtd:wlocale.obj
 0001:00057d00       ?move@?$char_traits@G@std@@SAPAGPAGPBGI@Z 10058d00 f i libcpmtd:wlocale.obj
 0001:00057d30       ?move@?$char_traits@_W@std@@SAPA_WPA_WPB_WI@Z 10058d30 f i libcpmtd:wlocale.obj
 0001:00057d60       ?name@locale@std@@QBE?AV?$basic_string@DU?$char_traits@D@std@@V?$allocator@D@2@@2@XZ 10058d60 f i libcpmtd:wlocale.obj
 0001:00057e60       ?narrow@?$ctype@G@std@@QBEDGD@Z 10058e60 f i libcpmtd:wlocale.obj
 0001:00057e90       ?narrow@?$ctype@_W@std@@QBED_WD@Z 10058e90 f i libcpmtd:wlocale.obj
 0001:00057ec0       ?neg_format@?$_Mpunct@G@std@@QBE?AUpattern@money_base@2@XZ 10058ec0 f i libcpmtd:wlocale.obj
 0001:00057ef0       ?neg_format@?$_Mpunct@_W@std@@QBE?AUpattern@money_base@2@XZ 10058ef0 f i libcpmtd:wlocale.obj
 0001:00057f20       ?negative_sign@?$_Mpunct@G@std@@QBE?AV?$basic_string@GU?$char_traits@G@std@@V?$allocator@G@2@@2@XZ 10058f20 f i libcpmtd:wlocale.obj
 0001:00057f60       ?negative_sign@?$_Mpunct@_W@std@@QBE?AV?$basic_string@_WU?$char_traits@_W@std@@V?$allocator@_W@2@@2@XZ 10058f60 f i libcpmtd:wlocale.obj
 0001:00057fa0       ?pos_format@?$_Mpunct@G@std@@QBE?AUpattern@money_base@2@XZ 10058fa0 f i libcpmtd:wlocale.obj
 0001:00057fd0       ?pos_format@?$_Mpunct@_W@std@@QBE?AUpattern@money_base@2@XZ 10058fd0 f i libcpmtd:wlocale.obj
 0001:00058000       ?positive_sign@?$_Mpunct@G@std@@QBE?AV?$basic_string@GU?$char_traits@G@std@@V?$allocator@G@2@@2@XZ 10059000 f i libcpmtd:wlocale.obj
 0001:00058040       ?positive_sign@?$_Mpunct@_W@std@@QBE?AV?$basic_string@_WU?$char_traits@_W@std@@V?$allocator@_W@2@@2@XZ 10059040 f i libcpmtd:wlocale.obj
 0001:00058080       ?replace@?$basic_string@GU?$char_traits@G@std@@V?$allocator@G@2@@std@@QAEAAV12@IIABV12@II@Z 10059080 f i libcpmtd:wlocale.obj
 0001:000583a0       ?replace@?$basic_string@GU?$char_traits@G@std@@V?$allocator@G@2@@std@@QAEAAV12@IIPBGI@Z 100593a0 f i libcpmtd:wlocale.obj
 0001:00058540       ?replace@?$basic_string@GU?$char_traits@G@std@@V?$allocator@G@2@@std@@QAEAAV12@V?$_String_const_iterator@V?$_String_val@U?$_Simple_types@G@std@@@std@@@2@0V?$_String_iterator@V?$_String_val@U?$_Simple_types@G@std@@@std@@@2@1@Z 10059540 f i libcpmtd:wlocale.obj
 0001:00058770       ?replace@?$basic_string@_WU?$char_traits@_W@std@@V?$allocator@_W@2@@std@@QAEAAV12@IIABV12@II@Z 10059770 f i libcpmtd:wlocale.obj
 0001:00058a90       ?replace@?$basic_string@_WU?$char_traits@_W@std@@V?$allocator@_W@2@@std@@QAEAAV12@IIPB_WI@Z 10059a90 f i libcpmtd:wlocale.obj
 0001:00058c30       ?replace@?$basic_string@_WU?$char_traits@_W@std@@V?$allocator@_W@2@@std@@QAEAAV12@V?$_String_const_iterator@V?$_String_val@U?$_Simple_types@_W@std@@@std@@@2@0V?$_String_iterator@V?$_String_val@U?$_Simple_types@_W@std@@@std@@@2@1@Z 10059c30 f i libcpmtd:wlocale.obj
 0001:00058e60       ?resize@?$basic_string@GU?$char_traits@G@std@@V?$allocator@G@2@@std@@QAEXI@Z 10059e60 f i libcpmtd:wlocale.obj
 0001:00058e80       ?resize@?$basic_string@GU?$char_traits@G@std@@V?$allocator@G@2@@std@@QAEXIG@Z 10059e80 f i libcpmtd:wlocale.obj
 0001:00058ec0       ?resize@?$basic_string@_WU?$char_traits@_W@std@@V?$allocator@_W@2@@std@@QAEXI@Z 10059ec0 f i libcpmtd:wlocale.obj
 0001:00058ee0       ?resize@?$basic_string@_WU?$char_traits@_W@std@@V?$allocator@_W@2@@std@@QAEXI_W@Z 10059ee0 f i libcpmtd:wlocale.obj
 0001:00058f20       ?sbumpc@?$basic_streambuf@GU?$char_traits@G@std@@@std@@QAEGXZ 10059f20 f i libcpmtd:wlocale.obj
 0001:00058f80       ?sbumpc@?$basic_streambuf@_WU?$char_traits@_W@std@@@std@@QAEGXZ 10059f80 f i libcpmtd:wlocale.obj
 0001:00058fe0       ?select_on_container_copy_construction@?$_Wrap_alloc@V?$allocator@G@std@@@std@@QBE?AU12@XZ 10059fe0 f i libcpmtd:wlocale.obj
 0001:00059010       ?select_on_container_copy_construction@?$_Wrap_alloc@V?$allocator@_W@std@@@std@@QBE?AU12@XZ 1005a010 f i libcpmtd:wlocale.obj
 0001:00059040       ?select_on_container_copy_construction@?$allocator@G@std@@QBE?AV12@XZ 1005a040 f i libcpmtd:wlocale.obj
 0001:00059060       ?select_on_container_copy_construction@?$allocator@_W@std@@QBE?AV12@XZ 1005a060 f i libcpmtd:wlocale.obj
 0001:00059080       ?select_on_container_copy_construction@?$allocator_traits@V?$allocator@G@std@@@std@@SA?AV?$allocator@G@2@ABV32@@Z 1005a080 f i libcpmtd:wlocale.obj
 0001:000590a0       ?select_on_container_copy_construction@?$allocator_traits@V?$allocator@_W@std@@@std@@SA?AV?$allocator@_W@2@ABV32@@Z 1005a0a0 f i libcpmtd:wlocale.obj
 0001:000590c0       ?sgetc@?$basic_streambuf@GU?$char_traits@G@std@@@std@@QAEGXZ 1005a0c0 f i libcpmtd:wlocale.obj
 0001:00059120       ?sgetc@?$basic_streambuf@_WU?$char_traits@_W@std@@@std@@QAEGXZ 1005a120 f i libcpmtd:wlocale.obj
 0001:00059180       ?size@?$basic_string@GU?$char_traits@G@std@@V?$allocator@G@2@@std@@QBEIXZ 1005a180 f i libcpmtd:wlocale.obj
 0001:000591a0       ?size@?$basic_string@_WU?$char_traits@_W@std@@V?$allocator@_W@2@@std@@QBEIXZ 1005a1a0 f i libcpmtd:wlocale.obj
 0001:000591c0       ?sputc@?$basic_streambuf@GU?$char_traits@G@std@@@std@@QAEGG@Z 1005a1c0 f i libcpmtd:wlocale.obj
 0001:00059240       ?sputc@?$basic_streambuf@_WU?$char_traits@_W@std@@@std@@QAEG_W@Z 1005a240 f i libcpmtd:wlocale.obj
 0001:000592c0       ?thousands_sep@?$_Mpunct@G@std@@QBEGXZ 1005a2c0 f i libcpmtd:wlocale.obj
 0001:000592e0       ?thousands_sep@?$_Mpunct@_W@std@@QBE_WXZ 1005a2e0 f i libcpmtd:wlocale.obj
 0001:00059300       ?thousands_sep@?$numpunct@G@std@@QBEGXZ 1005a300 f i libcpmtd:wlocale.obj
 0001:00059320       ?thousands_sep@?$numpunct@_W@std@@QBE_WXZ 1005a320 f i libcpmtd:wlocale.obj
 0001:00059340       ?to_char_type@?$char_traits@G@std@@SAGABG@Z 1005a340 f i libcpmtd:wlocale.obj
 0001:00059350       ?to_char_type@?$char_traits@_W@std@@SA_WABG@Z 1005a350 f i libcpmtd:wlocale.obj
 0001:00059360       ?to_int_type@?$char_traits@G@std@@SAGABG@Z 1005a360 f i libcpmtd:wlocale.obj
 0001:00059370       ?to_int_type@?$char_traits@_W@std@@SAGAB_W@Z 1005a370 f i libcpmtd:wlocale.obj
 0001:00059380       ?truename@?$numpunct@G@std@@QBE?AV?$basic_string@GU?$char_traits@G@std@@V?$allocator@G@2@@2@XZ 1005a380 f i libcpmtd:wlocale.obj
 0001:000593c0       ?truename@?$numpunct@_W@std@@QBE?AV?$basic_string@_WU?$char_traits@_W@std@@V?$allocator@_W@2@@2@XZ 1005a3c0 f i libcpmtd:wlocale.obj
 0001:00059400       ?widen@?$ctype@G@std@@QBEGD@Z 1005a400 f i libcpmtd:wlocale.obj
 0001:00059420       ?widen@?$ctype@G@std@@QBEPBDPBD0PAG@Z 1005a420 f i libcpmtd:wlocale.obj
 0001:00059450       ?widen@?$ctype@_W@std@@QBEPBDPBD0PA_W@Z 1005a450 f i libcpmtd:wlocale.obj
 0001:00059480       ?widen@?$ctype@_W@std@@QBE_WD@Z 1005a480 f i libcpmtd:wlocale.obj
 0001:000594a0       _wmemcpy                   1005a4a0 f i libcpmtd:wlocale.obj
 0001:000594c0       _wmemmove                  1005a4c0 f i libcpmtd:wlocale.obj
 0001:000594e0       _wmemset                   1005a4e0 f i libcpmtd:wlocale.obj
 0001:00059520       ??$_Getvals@D@?$_Mpunct@D@std@@IAEXDPBUlconv@@@Z 1005a520 f i libcpmtd:xlocale.obj
 0001:00059630       ??$_Getvals@D@?$time_get@DV?$istreambuf_iterator@DU?$char_traits@D@std@@@std@@@std@@IAEXDABV_Locinfo@1@@Z 1005a630 f i libcpmtd:xlocale.obj
 0001:000596d0       ??$_LStrcoll@D@std@@YAHPBD000PBU_Collvec@@@Z 1005a6d0 f i libcpmtd:xlocale.obj
 0001:00059700       ??$_LStrxfrm@D@std@@YAIPAD0PBD1PBU_Collvec@@@Z 1005a700 f i libcpmtd:xlocale.obj
 0001:00059730       ??$assign@V?$_String_iterator@V?$_String_val@U?$_Simple_types@D@std@@@std@@@std@@@?$basic_string@DU?$char_traits@D@std@@V?$allocator@D@2@@std@@QAEAAV01@V?$_String_iterator@V?$_String_val@U?$_Simple_types@D@std@@@std@@@1@0@Z 1005a730 f i libcpmtd:xlocale.obj
 0001:00059860       ??$use_facet@V?$collate@D@std@@@std@@YAABV?$collate@D@0@ABVlocale@0@@Z 1005a860 f i libcpmtd:xlocale.obj
 0001:00059960       ??$use_facet@V?$messages@D@std@@@std@@YAABV?$messages@D@0@ABVlocale@0@@Z 1005a960 f i libcpmtd:xlocale.obj
 0001:00059a60       ??$use_facet@V?$money_get@DV?$istreambuf_iterator@DU?$char_traits@D@std@@@std@@@std@@@std@@YAABV?$money_get@DV?$istreambuf_iterator@DU?$char_traits@D@std@@@std@@@0@ABVlocale@0@@Z 1005aa60 f i libcpmtd:xlocale.obj
 0001:00059b60       ??$use_facet@V?$money_put@DV?$ostreambuf_iterator@DU?$char_traits@D@std@@@std@@@std@@@std@@YAABV?$money_put@DV?$ostreambuf_iterator@DU?$char_traits@D@std@@@std@@@0@ABVlocale@0@@Z 1005ab60 f i libcpmtd:xlocale.obj
 0001:00059c60       ??$use_facet@V?$moneypunct@D$00@std@@@std@@YAABV?$moneypunct@D$00@0@ABVlocale@0@@Z 1005ac60 f i libcpmtd:xlocale.obj
 0001:00059d60       ??$use_facet@V?$moneypunct@D$0A@@std@@@std@@YAABV?$moneypunct@D$0A@@0@ABVlocale@0@@Z 1005ad60 f i libcpmtd:xlocale.obj
 0001:00059e60       ??$use_facet@V?$time_get@DV?$istreambuf_iterator@DU?$char_traits@D@std@@@std@@@std@@@std@@YAABV?$time_get@DV?$istreambuf_iterator@DU?$char_traits@D@std@@@std@@@0@ABVlocale@0@@Z 1005ae60 f i libcpmtd:xlocale.obj
 0001:00059f60       ??$use_facet@V?$time_put@DV?$ostreambuf_iterator@DU?$char_traits@D@std@@@std@@@std@@@std@@YAABV?$time_put@DV?$ostreambuf_iterator@DU?$char_traits@D@std@@@std@@@0@ABVlocale@0@@Z 1005af60 f i libcpmtd:xlocale.obj
 0001:0005a060       ??0?$_Iterator012@Urandom_access_iterator_tag@std@@DHPBDABDU_Iterator_base12@2@@std@@QAE@ABU01@@Z 1005b060 f i libcpmtd:xlocale.obj
 0001:0005a080       ??0?$_Mpunct@D@std@@QAE@ABV_Locinfo@1@I_N1@Z 1005b080 f i libcpmtd:xlocale.obj
 0001:0005a100       ??0?$_String_const_iterator@V?$_String_val@U?$_Simple_types@D@std@@@std@@@std@@QAE@ABV01@@Z 1005b100 f i libcpmtd:xlocale.obj
 0001:0005a130       ??0?$_String_const_iterator@V?$_String_val@U?$_Simple_types@D@std@@@std@@@std@@QAE@XZ 1005b130 f i libcpmtd:xlocale.obj
 0001:0005a150       ??0?$_String_iterator@V?$_String_val@U?$_Simple_types@D@std@@@std@@@std@@QAE@ABV01@@Z 1005b150 f i libcpmtd:xlocale.obj
 0001:0005a170       ??0?$_Wrap_alloc@V?$allocator@D@std@@@std@@QAE@ABV?$allocator@D@1@@Z 1005b170 f i libcpmtd:xlocale.obj
 0001:0005a190       ??0?$basic_string@DU?$char_traits@D@std@@V?$allocator@D@2@@std@@QAE@ABV01@@Z 1005b190 f i libcpmtd:xlocale.obj
 0001:0005a220       ??0?$basic_string@DU?$char_traits@D@std@@V?$allocator@D@2@@std@@QAE@PBDI@Z 1005b220 f i libcpmtd:xlocale.obj
 0001:0005a2a0       ??0?$collate@D@std@@QAE@ABV_Locinfo@1@I@Z 1005b2a0 f i libcpmtd:xlocale.obj
 0001:0005a310       ??0?$messages@D@std@@QAE@ABV_Locinfo@1@I@Z 1005b310 f i libcpmtd:xlocale.obj
 0001:0005a380       ??0?$money_get@DV?$istreambuf_iterator@DU?$char_traits@D@std@@@std@@@std@@QAE@ABV_Locinfo@1@I@Z 1005b380 f i libcpmtd:xlocale.obj
 0001:0005a3f0       ??0?$money_put@DV?$ostreambuf_iterator@DU?$char_traits@D@std@@@std@@@std@@QAE@ABV_Locinfo@1@I@Z 1005b3f0 f i libcpmtd:xlocale.obj
 0001:0005a460       ??0?$moneypunct@D$00@std@@QAE@ABV_Locinfo@1@I_N@Z 1005b460 f i libcpmtd:xlocale.obj
 0001:0005a490       ??0?$moneypunct@D$0A@@std@@QAE@ABV_Locinfo@1@I_N@Z 1005b490 f i libcpmtd:xlocale.obj
 0001:0005a4c0       ??0?$time_get@DV?$istreambuf_iterator@DU?$char_traits@D@std@@@std@@@std@@QAE@ABV_Locinfo@1@I@Z 1005b4c0 f i libcpmtd:xlocale.obj
 0001:0005a530       ??0?$time_put@DV?$ostreambuf_iterator@DU?$char_traits@D@std@@@std@@@std@@QAE@ABV_Locinfo@1@I@Z 1005b530 f i libcpmtd:xlocale.obj
 0001:0005a5b0       ??1?$_Mpunct@D@std@@MAE@XZ 1005b5b0 f i libcpmtd:xlocale.obj
 0001:0005a5e0       ??1?$collate@D@std@@MAE@XZ 1005b5e0 f i libcpmtd:xlocale.obj
 0001:0005a610       ??1?$messages@D@std@@MAE@XZ 1005b610 f i libcpmtd:xlocale.obj
 0001:0005a630       ??1?$money_get@DV?$istreambuf_iterator@DU?$char_traits@D@std@@@std@@@std@@MAE@XZ 1005b630 f i libcpmtd:xlocale.obj
 0001:0005a650       ??1?$money_put@DV?$ostreambuf_iterator@DU?$char_traits@D@std@@@std@@@std@@MAE@XZ 1005b650 f i libcpmtd:xlocale.obj
 0001:0005a670       ??1?$moneypunct@D$00@std@@MAE@XZ 1005b670 f i libcpmtd:xlocale.obj
 0001:0005a690       ??1?$moneypunct@D$0A@@std@@MAE@XZ 1005b690 f i libcpmtd:xlocale.obj
 0001:0005a6b0       ??1?$time_get@DV?$istreambuf_iterator@DU?$char_traits@D@std@@@std@@@std@@MAE@XZ 1005b6b0 f i libcpmtd:xlocale.obj
 0001:0005a6e0       ??1?$time_put@DV?$ostreambuf_iterator@DU?$char_traits@D@std@@@std@@@std@@MAE@XZ 1005b6e0 f i libcpmtd:xlocale.obj
 0001:0005a710       ??4?$_Iterator012@Urandom_access_iterator_tag@std@@DHPBDABDU_Iterator_base12@2@@std@@QAEAAU01@ABU01@@Z 1005b710 f i libcpmtd:xlocale.obj
 0001:0005a730       ??4?$_String_const_iterator@V?$_String_val@U?$_Simple_types@D@std@@@std@@@std@@QAEAAV01@ABV01@@Z 1005b730 f i libcpmtd:xlocale.obj
 0001:0005a760       ??4?$basic_string@DU?$char_traits@D@std@@V?$allocator@D@2@@std@@QAEAAV01@$$QAV01@@Z 1005b760 f i libcpmtd:xlocale.obj
 0001:0005a840       ??8?$_String_const_iterator@V?$_String_val@U?$_Simple_types@D@std@@@std@@@std@@QBE_NABV01@@Z 1005b840 f i libcpmtd:xlocale.obj
 0001:0005a880       ??9?$_String_const_iterator@V?$_String_val@U?$_Simple_types@D@std@@@std@@@std@@QBE_NABV01@@Z 1005b880 f i libcpmtd:xlocale.obj
 0001:0005a8c0       ??E?$_String_const_iterator@V?$_String_val@U?$_Simple_types@D@std@@@std@@@std@@QAEAAV01@XZ 1005b8c0 f i libcpmtd:xlocale.obj
 0001:0005a980       ??E?$ostreambuf_iterator@DU?$char_traits@D@std@@@std@@QAEAAV01@H@Z 1005b980 f i libcpmtd:xlocale.obj
 0001:0005a990       ??G?$_String_const_iterator@V?$_String_val@U?$_Simple_types@D@std@@@std@@@std@@QBEHABV01@@Z 1005b990 f i libcpmtd:xlocale.obj
 0001:0005a9c0       ??G?$_String_iterator@V?$_String_val@U?$_Simple_types@D@std@@@std@@@std@@QBE?AV01@H@Z 1005b9c0 f i libcpmtd:xlocale.obj
 0001:0005aa50       ??G?$_String_iterator@V?$_String_val@U?$_Simple_types@D@std@@@std@@@std@@QBEHABV?$_String_const_iterator@V?$_String_val@U?$_Simple_types@D@std@@@std@@@1@@Z 1005ba50 f i libcpmtd:xlocale.obj
 0001:0005aad0       ??H?$_String_iterator@V?$_String_val@U?$_Simple_types@D@std@@@std@@@std@@QBE?AV01@H@Z 1005bad0 f i libcpmtd:xlocale.obj
 0001:0005ab60       ??Y?$_String_const_iterator@V?$_String_val@U?$_Simple_types@D@std@@@std@@@std@@QAEAAV01@H@Z 1005bb60 f i libcpmtd:xlocale.obj
 0001:0005ac50       ??Y?$_String_iterator@V?$_String_val@U?$_Simple_types@D@std@@@std@@@std@@QAEAAV01@H@Z 1005bc50 f i libcpmtd:xlocale.obj
 0001:0005ac70       ??Z?$_String_iterator@V?$_String_val@U?$_Simple_types@D@std@@@std@@@std@@QAEAAV01@H@Z 1005bc70 f i libcpmtd:xlocale.obj
 0001:0005ac90       ??_G?$_Mpunct@D@std@@MAEPAXI@Z 1005bc90 f i libcpmtd:xlocale.obj
 0001:0005ac90       ??_E?$_Mpunct@D@std@@MAEPAXI@Z 1005bc90 f i libcpmtd:xlocale.obj
 0001:0005acc0       ??_E?$collate@D@std@@MAEPAXI@Z 1005bcc0 f i libcpmtd:xlocale.obj
 0001:0005acc0       ??_G?$collate@D@std@@MAEPAXI@Z 1005bcc0 f i libcpmtd:xlocale.obj
 0001:0005acf0       ??_G?$messages@D@std@@MAEPAXI@Z 1005bcf0 f i libcpmtd:xlocale.obj
 0001:0005acf0       ??_E?$messages@D@std@@MAEPAXI@Z 1005bcf0 f i libcpmtd:xlocale.obj
 0001:0005ad20       ??_E?$money_get@DV?$istreambuf_iterator@DU?$char_traits@D@std@@@std@@@std@@MAEPAXI@Z 1005bd20 f i libcpmtd:xlocale.obj
 0001:0005ad20       ??_G?$money_get@DV?$istreambuf_iterator@DU?$char_traits@D@std@@@std@@@std@@MAEPAXI@Z 1005bd20 f i libcpmtd:xlocale.obj
 0001:0005ad50       ??_G?$money_put@DV?$ostreambuf_iterator@DU?$char_traits@D@std@@@std@@@std@@MAEPAXI@Z 1005bd50 f i libcpmtd:xlocale.obj
 0001:0005ad50       ??_E?$money_put@DV?$ostreambuf_iterator@DU?$char_traits@D@std@@@std@@@std@@MAEPAXI@Z 1005bd50 f i libcpmtd:xlocale.obj
 0001:0005ad80       ??_E?$moneypunct@D$00@std@@MAEPAXI@Z 1005bd80 f i libcpmtd:xlocale.obj
 0001:0005ad80       ??_G?$moneypunct@D$00@std@@MAEPAXI@Z 1005bd80 f i libcpmtd:xlocale.obj
 0001:0005adb0       ??_G?$moneypunct@D$0A@@std@@MAEPAXI@Z 1005bdb0 f i libcpmtd:xlocale.obj
 0001:0005adb0       ??_E?$moneypunct@D$0A@@std@@MAEPAXI@Z 1005bdb0 f i libcpmtd:xlocale.obj
 0001:0005ade0       ??_G?$time_get@DV?$istreambuf_iterator@DU?$char_traits@D@std@@@std@@@std@@MAEPAXI@Z 1005bde0 f i libcpmtd:xlocale.obj
 0001:0005ade0       ??_E?$time_get@DV?$istreambuf_iterator@DU?$char_traits@D@std@@@std@@@std@@MAEPAXI@Z 1005bde0 f i libcpmtd:xlocale.obj
 0001:0005ae10       ??_G?$time_put@DV?$ostreambuf_iterator@DU?$char_traits@D@std@@@std@@@std@@MAEPAXI@Z 1005be10 f i libcpmtd:xlocale.obj
 0001:0005ae10       ??_E?$time_put@DV?$ostreambuf_iterator@DU?$char_traits@D@std@@@std@@@std@@MAEPAXI@Z 1005be10 f i libcpmtd:xlocale.obj
 0001:0005ae40       ?_Compat@?$_String_const_iterator@V?$_String_val@U?$_Simple_types@D@std@@@std@@@std@@QBEXABV12@@Z 1005be40 f i libcpmtd:xlocale.obj
 0001:0005aee0       ?_Getcat@?$collate@D@std@@SAIPAPBVfacet@locale@2@PBV42@@Z 1005bee0 f i libcpmtd:xlocale.obj
 0001:0005b030       ?_Getcat@?$messages@D@std@@SAIPAPBVfacet@locale@2@PBV42@@Z 1005c030 f i libcpmtd:xlocale.obj
 0001:0005b130       ?_Getcat@?$money_get@DV?$istreambuf_iterator@DU?$char_traits@D@std@@@std@@@std@@SAIPAPBVfacet@locale@2@PBV42@@Z 1005c130 f i libcpmtd:xlocale.obj
 0001:0005b230       ?_Getcat@?$money_put@DV?$ostreambuf_iterator@DU?$char_traits@D@std@@@std@@@std@@SAIPAPBVfacet@locale@2@PBV42@@Z 1005c230 f i libcpmtd:xlocale.obj
 0001:0005b330       ?_Getcat@?$moneypunct@D$00@std@@SAIPAPBVfacet@locale@2@PBV42@@Z 1005c330 f i libcpmtd:xlocale.obj
 0001:0005b430       ?_Getcat@?$moneypunct@D$0A@@std@@SAIPAPBVfacet@locale@2@PBV42@@Z 1005c430 f i libcpmtd:xlocale.obj
 0001:0005b530       ?_Getcat@?$time_get@DV?$istreambuf_iterator@DU?$char_traits@D@std@@@std@@@std@@SAIPAPBVfacet@locale@2@PBV42@@Z 1005c530 f i libcpmtd:xlocale.obj
 0001:0005b630       ?_Getcat@?$time_put@DV?$ostreambuf_iterator@DU?$char_traits@D@std@@@std@@@std@@SAIPAPBVfacet@locale@2@PBV42@@Z 1005c630 f i libcpmtd:xlocale.obj
 0001:0005b730       ?_Getfmt@?$time_get@DV?$istreambuf_iterator@DU?$char_traits@D@std@@@std@@@std@@IBE?AV?$istreambuf_iterator@DU?$char_traits@D@std@@@2@V32@0AAVios_base@2@AAHPAUtm@@PBD@Z 1005c730 f i libcpmtd:xlocale.obj
 0001:0005b8e0       ?_Getint@?$time_get@DV?$istreambuf_iterator@DU?$char_traits@D@std@@@std@@@std@@ABAHAAV?$istreambuf_iterator@DU?$char_traits@D@std@@@2@0HHAAHABV?$ctype@D@2@@Z 1005c8e0 f i libcpmtd:xlocale.obj
 0001:0005baf0       ?_Getmfld@?$money_get@DV?$istreambuf_iterator@DU?$char_traits@D@std@@@std@@@std@@ABE?AV?$basic_string@DU?$char_traits@D@std@@V?$allocator@D@2@@2@AAV?$istreambuf_iterator@DU?$char_traits@D@std@@@2@0_NAAVios_base@2@PAD@Z 1005caf0 f i libcpmtd:xlocale.obj
 0001:0005cae0       ?_Gettnames@_Locinfo@std@@QBE?AV_Timevec@2@XZ 1005dae0 f i libcpmtd:xlocale.obj
 0001:0005cb10       ?_Init@?$_Mpunct@D@std@@IAEXABV_Locinfo@2@_N@Z 1005db10 f i libcpmtd:xlocale.obj
 0001:0005cce0       ?_Init@?$collate@D@std@@IAEXABV_Locinfo@2@@Z 1005dce0 f i libcpmtd:xlocale.obj
 0001:0005cd10       ?_Init@?$messages@D@std@@IAEXABV_Locinfo@2@@Z 1005dd10 f i libcpmtd:xlocale.obj
 0001:0005cd20       ?_Init@?$money_get@DV?$istreambuf_iterator@DU?$char_traits@D@std@@@std@@@std@@IAEXABV_Locinfo@2@@Z 1005dd20 f i libcpmtd:xlocale.obj
 0001:0005cd30       ?_Init@?$money_put@DV?$ostreambuf_iterator@DU?$char_traits@D@std@@@std@@@std@@IAEXABV_Locinfo@2@@Z 1005dd30 f i libcpmtd:xlocale.obj
 0001:0005cd40       ?_Init@?$time_get@DV?$istreambuf_iterator@DU?$char_traits@D@std@@@std@@@std@@IAEXABV_Locinfo@2@@Z 1005dd40 f i libcpmtd:xlocale.obj
 0001:0005ce00       ?_Init@?$time_put@DV?$ostreambuf_iterator@DU?$char_traits@D@std@@@std@@@std@@IAEXABV_Locinfo@2@@Z 1005de00 f i libcpmtd:xlocale.obj
 0001:0005ce80       ?_Makexloc@_Locimp@locale@std@@CAXABV_Locinfo@3@HPAV123@PBV23@@Z 1005de80 f   libcpmtd:xlocale.obj
 0001:0005d470       ?_Makpat@?$_Mpunct@D@std@@AAEXAAUpattern@money_base@2@III@Z 1005e470 f i libcpmtd:xlocale.obj
 0001:0005d4e0       ?_Pdif@?$basic_string@DU?$char_traits@D@std@@V?$allocator@D@2@@std@@SAIV?$_String_const_iterator@V?$_String_val@U?$_Simple_types@D@std@@@std@@@2@0@Z 1005e4e0 f i libcpmtd:xlocale.obj
 0001:0005d560       ?_Put@?$money_put@DV?$ostreambuf_iterator@DU?$char_traits@D@std@@@std@@@std@@CA?AV?$ostreambuf_iterator@DU?$char_traits@D@std@@@2@V32@V?$_String_const_iterator@V?$_String_val@U?$_Simple_types@D@std@@@std@@@2@I@Z 1005e560 f i libcpmtd:xlocale.obj
 0001:0005d600       ?_Putmfld@?$money_put@DV?$ostreambuf_iterator@DU?$char_traits@D@std@@@std@@@std@@ABE?AV?$ostreambuf_iterator@DU?$char_traits@D@std@@@2@V32@_NAAVios_base@2@D1V?$basic_string@DU?$char_traits@D@std@@V?$allocator@D@2@@2@D@Z 1005e600 f i libcpmtd:xlocale.obj
 0001:0005e2d0       ?_Rep@?$money_put@DV?$ostreambuf_iterator@DU?$char_traits@D@std@@@std@@@std@@CA?AV?$ostreambuf_iterator@DU?$char_traits@D@std@@@2@V32@DI@Z 1005f2d0 f i libcpmtd:xlocale.obj
 0001:0005e320       ?_Tidy@?$_Mpunct@D@std@@AAEXXZ 1005f320 f i libcpmtd:xlocale.obj
 0001:0005e370       ?_Tidy@?$time_get@DV?$istreambuf_iterator@DU?$char_traits@D@std@@@std@@@std@@AAEXXZ 1005f370 f i libcpmtd:xlocale.obj
 0001:0005e3b0       ?curr_symbol@?$_Mpunct@D@std@@QBE?AV?$basic_string@DU?$char_traits@D@std@@V?$allocator@D@2@@2@XZ 1005f3b0 f i libcpmtd:xlocale.obj
 0001:0005e3f0       ?date_order@?$time_get@DV?$istreambuf_iterator@DU?$char_traits@D@std@@@std@@@std@@QBE?AW4dateorder@time_base@2@XZ 1005f3f0 f i libcpmtd:xlocale.obj
 0001:0005e410       ?decimal_point@?$_Mpunct@D@std@@QBEDXZ 1005f410 f i libcpmtd:xlocale.obj
 0001:0005e430       ?do_close@?$messages@D@std@@MBEXH@Z 1005f430 f i libcpmtd:xlocale.obj
 0001:0005e440       ?do_compare@?$collate@D@std@@MBEHPBD000@Z 1005f440 f i libcpmtd:xlocale.obj
 0001:0005e4d0       ?do_curr_symbol@?$_Mpunct@D@std@@MBE?AV?$basic_string@DU?$char_traits@D@std@@V?$allocator@D@2@@2@XZ 1005f4d0 f i libcpmtd:xlocale.obj
 0001:0005e510       ?do_date_order@?$time_get@DV?$istreambuf_iterator@DU?$char_traits@D@std@@@std@@@std@@MBE?AW4dateorder@time_base@2@XZ 1005f510 f i libcpmtd:xlocale.obj
 0001:0005e530       ?do_decimal_point@?$_Mpunct@D@std@@MBEDXZ 1005f530 f i libcpmtd:xlocale.obj
 0001:0005e550       ?do_frac_digits@?$_Mpunct@D@std@@MBEHXZ 1005f550 f i libcpmtd:xlocale.obj
 0001:0005e570       ?do_get@?$messages@D@std@@MBE?AV?$basic_string@DU?$char_traits@D@std@@V?$allocator@D@2@@2@HHHABV32@@Z 1005f570 f i libcpmtd:xlocale.obj
 0001:0005e5a0       ?do_get@?$money_get@DV?$istreambuf_iterator@DU?$char_traits@D@std@@@std@@@std@@MBE?AV?$istreambuf_iterator@DU?$char_traits@D@std@@@2@V32@0_NAAVios_base@2@AAHAAO@Z 1005f5a0 f i libcpmtd:xlocale.obj
 0001:0005e6c0       ?do_get@?$money_get@DV?$istreambuf_iterator@DU?$char_traits@D@std@@@std@@@std@@MBE?AV?$istreambuf_iterator@DU?$char_traits@D@std@@@2@V32@0_NAAVios_base@2@AAHAAV?$basic_string@DU?$char_traits@D@std@@V?$allocator@D@2@@2@@Z 1005f6c0 f i libcpmtd:xlocale.obj
 0001:0005e820       ?do_get@?$time_get@DV?$istreambuf_iterator@DU?$char_traits@D@std@@@std@@@std@@MBE?AV?$istreambuf_iterator@DU?$char_traits@D@std@@@2@V32@0AAVios_base@2@AAHPAUtm@@DD@Z 1005f820 f i libcpmtd:xlocale.obj
 0001:0005eef0       ?do_get_date@?$time_get@DV?$istreambuf_iterator@DU?$char_traits@D@std@@@std@@@std@@MBE?AV?$istreambuf_iterator@DU?$char_traits@D@std@@@2@V32@0AAVios_base@2@AAHPAUtm@@@Z 1005fef0 f i libcpmtd:xlocale.obj
 0001:0005f510       ?do_get_monthname@?$time_get@DV?$istreambuf_iterator@DU?$char_traits@D@std@@@std@@@std@@MBE?AV?$istreambuf_iterator@DU?$char_traits@D@std@@@2@V32@0AAVios_base@2@AAHPAUtm@@@Z 10060510 f i libcpmtd:xlocale.obj
 0001:0005f5b0       ?do_get_time@?$time_get@DV?$istreambuf_iterator@DU?$char_traits@D@std@@@std@@@std@@MBE?AV?$istreambuf_iterator@DU?$char_traits@D@std@@@2@V32@0AAVios_base@2@AAHPAUtm@@@Z 100605b0 f i libcpmtd:xlocale.obj
 0001:0005f770       ?do_get_weekday@?$time_get@DV?$istreambuf_iterator@DU?$char_traits@D@std@@@std@@@std@@MBE?AV?$istreambuf_iterator@DU?$char_traits@D@std@@@2@V32@0AAVios_base@2@AAHPAUtm@@@Z 10060770 f i libcpmtd:xlocale.obj
 0001:0005f810       ?do_get_year@?$time_get@DV?$istreambuf_iterator@DU?$char_traits@D@std@@@std@@@std@@MBE?AV?$istreambuf_iterator@DU?$char_traits@D@std@@@2@V32@0AAVios_base@2@AAHPAUtm@@@Z 10060810 f i libcpmtd:xlocale.obj
 0001:0005f940       ?do_grouping@?$_Mpunct@D@std@@MBE?AV?$basic_string@DU?$char_traits@D@std@@V?$allocator@D@2@@2@XZ 10060940 f i libcpmtd:xlocale.obj
 0001:0005f980       ?do_hash@?$collate@D@std@@MBEJPBD0@Z 10060980 f i libcpmtd:xlocale.obj
 0001:0005f9c0       ?do_neg_format@?$_Mpunct@D@std@@MBE?AUpattern@money_base@2@XZ 100609c0 f i libcpmtd:xlocale.obj
 0001:0005f9e0       ?do_negative_sign@?$_Mpunct@D@std@@MBE?AV?$basic_string@DU?$char_traits@D@std@@V?$allocator@D@2@@2@XZ 100609e0 f i libcpmtd:xlocale.obj
 0001:0005fa20       ?do_open@?$messages@D@std@@MBEHABV?$basic_string@DU?$char_traits@D@std@@V?$allocator@D@2@@2@ABVlocale@2@@Z 10060a20 f i libcpmtd:xlocale.obj
 0001:0005fa30       ?do_pos_format@?$_Mpunct@D@std@@MBE?AUpattern@money_base@2@XZ 10060a30 f i libcpmtd:xlocale.obj
 0001:0005fa50       ?do_positive_sign@?$_Mpunct@D@std@@MBE?AV?$basic_string@DU?$char_traits@D@std@@V?$allocator@D@2@@2@XZ 10060a50 f i libcpmtd:xlocale.obj
 0001:0005fa90       ?do_put@?$money_put@DV?$ostreambuf_iterator@DU?$char_traits@D@std@@@std@@@std@@MBE?AV?$ostreambuf_iterator@DU?$char_traits@D@std@@@2@V32@_NAAVios_base@2@DABV?$basic_string@DU?$char_traits@D@std@@V?$allocator@D@2@@2@@Z 10060a90 f i libcpmtd:xlocale.obj
 0001:0005fc70       ?do_put@?$money_put@DV?$ostreambuf_iterator@DU?$char_traits@D@std@@@std@@@std@@MBE?AV?$ostreambuf_iterator@DU?$char_traits@D@std@@@2@V32@_NAAVios_base@2@DO@Z 10060c70 f i libcpmtd:xlocale.obj
 0001:0005fe30       ?do_put@?$time_put@DV?$ostreambuf_iterator@DU?$char_traits@D@std@@@std@@@std@@MBE?AV?$ostreambuf_iterator@DU?$char_traits@D@std@@@2@V32@AAVios_base@2@DPBUtm@@DD@Z 10060e30 f i libcpmtd:xlocale.obj
 0001:00060030       ?do_thousands_sep@?$_Mpunct@D@std@@MBEDXZ 10061030 f i libcpmtd:xlocale.obj
 0001:00060050       ?do_transform@?$collate@D@std@@MBE?AV?$basic_string@DU?$char_traits@D@std@@V?$allocator@D@2@@2@PBD0@Z 10061050 f i libcpmtd:xlocale.obj
 0001:000601d0       ?empty@?$basic_string@DU?$char_traits@D@std@@V?$allocator@D@2@@std@@QBE_NXZ 100611d0 f i libcpmtd:xlocale.obj
 0001:00060200       ?end@?$basic_string@DU?$char_traits@D@std@@V?$allocator@D@2@@std@@QAE?AV?$_String_iterator@V?$_String_val@U?$_Simple_types@D@std@@@std@@@2@XZ 10061200 f i libcpmtd:xlocale.obj
 0001:00060230       ?frac_digits@?$_Mpunct@D@std@@QBEHXZ 10061230 f i libcpmtd:xlocale.obj
 0001:00060250       ?get_monthname@?$time_get@DV?$istreambuf_iterator@DU?$char_traits@D@std@@@std@@@std@@QBE?AV?$istreambuf_iterator@DU?$char_traits@D@std@@@2@V32@0AAVios_base@2@AAHPAUtm@@@Z 10061250 f i libcpmtd:xlocale.obj
 0001:00060290       ?get_weekday@?$time_get@DV?$istreambuf_iterator@DU?$char_traits@D@std@@@std@@@std@@QBE?AV?$istreambuf_iterator@DU?$char_traits@D@std@@@2@V32@0AAVios_base@2@AAHPAUtm@@@Z 10061290 f i libcpmtd:xlocale.obj
 0001:000602d0       ?get_year@?$time_get@DV?$istreambuf_iterator@DU?$char_traits@D@std@@@std@@@std@@QBE?AV?$istreambuf_iterator@DU?$char_traits@D@std@@@2@V32@0AAVios_base@2@AAHPAUtm@@@Z 100612d0 f i libcpmtd:xlocale.obj
 0001:00060310       ?grouping@?$_Mpunct@D@std@@QBE?AV?$basic_string@DU?$char_traits@D@std@@V?$allocator@D@2@@2@XZ 10061310 f i libcpmtd:xlocale.obj
 0001:00060350       ?is@?$ctype@D@std@@QBE_NFD@Z 10061350 f i libcpmtd:xlocale.obj
 0001:00060390       ?narrow@?$ctype@D@std@@QBEDDD@Z 10061390 f i libcpmtd:xlocale.obj
 0001:000603c0       ?neg_format@?$_Mpunct@D@std@@QBE?AUpattern@money_base@2@XZ 100613c0 f i libcpmtd:xlocale.obj
 0001:000603f0       ?negative_sign@?$_Mpunct@D@std@@QBE?AV?$basic_string@DU?$char_traits@D@std@@V?$allocator@D@2@@2@XZ 100613f0 f i libcpmtd:xlocale.obj
 0001:00060430       ?pos_format@?$_Mpunct@D@std@@QBE?AUpattern@money_base@2@XZ 10061430 f i libcpmtd:xlocale.obj
 0001:00060460       ?positive_sign@?$_Mpunct@D@std@@QBE?AV?$basic_string@DU?$char_traits@D@std@@V?$allocator@D@2@@2@XZ 10061460 f i libcpmtd:xlocale.obj
 0001:000604a0       ?replace@?$basic_string@DU?$char_traits@D@std@@V?$allocator@D@2@@std@@QAEAAV12@IIABV12@II@Z 100614a0 f i libcpmtd:xlocale.obj
 0001:00060760       ?replace@?$basic_string@DU?$char_traits@D@std@@V?$allocator@D@2@@std@@QAEAAV12@IIPBDI@Z 10061760 f i libcpmtd:xlocale.obj
 0001:000608e0       ?replace@?$basic_string@DU?$char_traits@D@std@@V?$allocator@D@2@@std@@QAEAAV12@V?$_String_const_iterator@V?$_String_val@U?$_Simple_types@D@std@@@std@@@2@0V?$_String_iterator@V?$_String_val@U?$_Simple_types@D@std@@@std@@@2@1@Z 100618e0 f i libcpmtd:xlocale.obj
 0001:00060b10       ?resize@?$basic_string@DU?$char_traits@D@std@@V?$allocator@D@2@@std@@QAEXI@Z 10061b10 f i libcpmtd:xlocale.obj
 0001:00060b30       ?resize@?$basic_string@DU?$char_traits@D@std@@V?$allocator@D@2@@std@@QAEXID@Z 10061b30 f i libcpmtd:xlocale.obj
 0001:00060b70       ?select_on_container_copy_construction@?$_Wrap_alloc@V?$allocator@D@std@@@std@@QBE?AU12@XZ 10061b70 f i libcpmtd:xlocale.obj
 0001:00060ba0       ?select_on_container_copy_construction@?$allocator@D@std@@QBE?AV12@XZ 10061ba0 f i libcpmtd:xlocale.obj
 0001:00060bc0       ?select_on_container_copy_construction@?$allocator_traits@V?$allocator@D@std@@@std@@SA?AV?$allocator@D@2@ABV32@@Z 10061bc0 f i libcpmtd:xlocale.obj
 0001:00060be0       ?thousands_sep@?$_Mpunct@D@std@@QBEDXZ 10061be0 f i libcpmtd:xlocale.obj
 0001:00060c00       __Stof                     10061c00 f   libcpmtd:xstof.obj
 0001:00060c20       __Stofx                    10061c20 f   libcpmtd:xstof.obj
 0001:00060f40       __Stod                     10061f40 f   libcpmtd:xstod.obj
 0001:00060f60       __Stodx                    10061f60 f   libcpmtd:xstod.obj
 0001:000612a0       __Stold                    100622a0 f   libcpmtd:xstold.obj
 0001:000612c0       __Stoldx                   100622c0 f   libcpmtd:xstold.obj
 0001:00061600       __Stolx                    10062600 f   libcpmtd:xstol.obj
 0001:00061730       __Stoul                    10062730 f   libcpmtd:xstoul.obj
 0001:00061750       __Stoulx                   10062750 f   libcpmtd:xstoul.obj
 0001:000619d0       __Stoll                    100629d0 f   libcpmtd:xstoll.obj
 0001:000619f0       __Stollx                   100629f0 f   libcpmtd:xstoll.obj
 0001:00061b60       __Stoull                   10062b60 f   libcpmtd:xstoull.obj
 0001:00061b80       __Stoullx                  10062b80 f   libcpmtd:xstoull.obj
 0001:00061e80       __Getcoll                  10062e80 f   libcpmtd:xstrcoll.obj
 0001:00061ec0       __Strcoll                  10062ec0 f   libcpmtd:xstrcoll.obj
 0001:00061fe0       __Getdateorder             10062fe0 f   libcpmtd:xdateord.obj
 0001:00062080       __Mbrtowc                  10063080 f   libcpmtd:xmbtowc.obj
 0001:00062300       __Wcscoll                  10063300 f   libcpmtd:xwcscoll.obj
 0001:00062480       __Wcsxfrm                  10063480 f   libcpmtd:xwcsxfrm.obj
 0001:000625d0       __Getwctype                100635d0 f   libcpmtd:xgetwctype.obj
 0001:00062610       __Getwctypes               10063610 f   libcpmtd:xgetwctype.obj
 0001:00062640       __Towlower                 10063640 f   libcpmtd:xtowlower.obj
 0001:000626d0       __Towupper                 100636d0 f   libcpmtd:xtowupper.obj
 0001:00062760       __Strxfrm                  10063760 f   libcpmtd:xstrxfrm.obj
 0001:00062850       __Stopfx                   10063850 f   libcpmtd:xstopfx.obj
 0001:00062af0       __Stoflt                   10063af0 f   libcpmtd:xstoflt.obj
 0001:00062f50       __Stoxflt                  10063f50 f   libcpmtd:xstoxflt.obj
 0001:00063400       __FDscale                  10064400 f   libcpmtd:xfdscale.obj
 0001:000637e0       __FXp_addh                 100647e0 f   libcpmtd:xfprec.obj
 0001:00063cb0       __FXp_addx                 10064cb0 f   libcpmtd:xfprec.obj
 0001:00063d10       __FXp_getw                 10064d10 f   libcpmtd:xfprec.obj
 0001:00063ea0       __FXp_invx                 10064ea0 f   libcpmtd:xfprec.obj
 0001:00064050       __FXp_ldexpx               10065050 f   libcpmtd:xfprec.obj
 0001:000640c0       __FXp_movx                 100650c0 f   libcpmtd:xfprec.obj
 0001:000640e0       __FXp_mulh                 100650e0 f   libcpmtd:xfprec.obj
 0001:00064330       __FXp_mulx                 10065330 f   libcpmtd:xfprec.obj
 0001:00064470       __FXp_setn                 10065470 f   libcpmtd:xfprec.obj
 0001:000644f0       __FXp_setw                 100654f0 f   libcpmtd:xfprec.obj
 0001:00064680       __FXp_sqrtx                10065680 f   libcpmtd:xfprec.obj
 0001:00064870       __FXp_subx                 10065870 f   libcpmtd:xfprec.obj
 0001:000648d0       __FDtento                  100658d0 f   libcpmtd:xfdtento.obj
 0001:00064a20       __Dscale                   10065a20 f   libcpmtd:xdscale.obj
 0001:00064fb0       __Xp_addh                  10065fb0 f   libcpmtd:xprec.obj
 0001:00065480       __Xp_addx                  10066480 f   libcpmtd:xprec.obj
 0001:000654e0       __Xp_getw                  100664e0 f   libcpmtd:xprec.obj
 0001:00065660       __Xp_invx                  10066660 f   libcpmtd:xprec.obj
 0001:00065800       __Xp_ldexpx                10066800 f   libcpmtd:xprec.obj
 0001:00065870       __Xp_movx                  10066870 f   libcpmtd:xprec.obj
 0001:00065890       __Xp_mulh                  10066890 f   libcpmtd:xprec.obj
 0001:00065ad0       __Xp_mulx                  10066ad0 f   libcpmtd:xprec.obj
 0001:00065c10       __Xp_setn                  10066c10 f   libcpmtd:xprec.obj
 0001:00065c40       __Xp_setw                  10066c40 f   libcpmtd:xprec.obj
 0001:00065e00       __Xp_sqrtx                 10066e00 f   libcpmtd:xprec.obj
 0001:00065fd0       __Xp_subx                  10066fd0 f   libcpmtd:xprec.obj
 0001:00066030       __Dtento                   10067030 f   libcpmtd:xdtento.obj
 0001:00066180       __LDscale                  10067180 f   libcpmtd:xldscale.obj
 0001:000661a0       __LXp_addh                 100671a0 f   libcpmtd:xlprec.obj
 0001:00066670       __LXp_addx                 10067670 f   libcpmtd:xlprec.obj
 0001:000666d0       __LXp_getw                 100676d0 f   libcpmtd:xlprec.obj
 0001:00066850       __LXp_invx                 10067850 f   libcpmtd:xlprec.obj
 0001:000669f0       __LXp_ldexpx               100679f0 f   libcpmtd:xlprec.obj
 0001:00066a60       __LXp_movx                 10067a60 f   libcpmtd:xlprec.obj
 0001:00066a80       __LXp_mulh                 10067a80 f   libcpmtd:xlprec.obj
 0001:00066cc0       __LXp_mulx                 10067cc0 f   libcpmtd:xlprec.obj
 0001:00066e00       __LXp_setn                 10067e00 f   libcpmtd:xlprec.obj
 0001:00066e30       __LXp_setw                 10067e30 f   libcpmtd:xlprec.obj
 0001:00066ff0       __LXp_sqrtx                10067ff0 f   libcpmtd:xlprec.obj
 0001:000671c0       __LXp_subx                 100681c0 f   libcpmtd:xlprec.obj
 0001:00067220       __LDtento                  10068220 f   libcpmtd:xldtento.obj
 0001:00067370       __FDnorm                   10068370 f   libcpmtd:xfdnorm.obj
 0001:00067580       __Feraise                  10068580 f   libcpmtd:xferaise.obj
 0001:000675b0       __FDtest                   100685b0 f   libcpmtd:xfdtest.obj
 0001:00067680       __FDint                    10068680 f   libcpmtd:xfdint.obj
 0001:00067850       __FDunscale                10068850 f   libcpmtd:xfdunsca.obj
 0001:00067940       __Dnorm                    10068940 f   libcpmtd:xdnorm.obj
 0001:00067c80       __Dtest                    10068c80 f   libcpmtd:xdtest.obj
 0001:00067d90       __Dint                     10068d90 f   libcpmtd:xdint.obj
 0001:00068030       __Dunscale                 10069030 f   libcpmtd:xdunscal.obj
 0001:00068140       __LDtest                   10069140 f   libcpmtd:xldtest.obj
 0001:00068160       __LDint                    10069160 f   libcpmtd:xldint.obj
 0001:00068180       __LDunscale                10069180 f   libcpmtd:xldunsca.obj
 0001:000681a0       ??_M@YGXPAXIHP6EX0@Z@Z     100691a0 f   LIBCMTD:ehvecdtr.obj
 0001:00068280       ?__ArrayUnwind@@YGXPAXIHP6EX0@Z@Z 10069280 f   LIBCMTD:ehvecdtr.obj
 0001:00068310       __get_purecall_handler     10069310 f   LIBCMTD:purevirt.obj
 0001:00068330       __purecall                 10069330 f   LIBCMTD:purevirt.obj
 0001:00068370       __set_purecall_handler     10069370 f   LIBCMTD:purevirt.obj
 0001:000683a0       ??2@YAPAXI@Z               100693a0 f   LIBCMTD:new.obj
 0001:000683f0       ??3@YAXPAX@Z               100693f0 f   LIBCMTD:dbgdel.obj
 0001:000684e0       ___onexitinit              100694e0 f   LIBCMTD:onexit.obj
 0001:00068540       __onexit                   10069540 f   LIBCMTD:onexit.obj
 0001:00068700       _atexit                    10069700 f   LIBCMTD:onexit.obj
 0001:00068730       ?_invalid_parameter@@YAXPBG00II@Z 10069730 f   LIBCMTD:invarg.obj
 0001:00068760       ?_invoke_watson@@YAXPBG00II@Z 10069760 f   LIBCMTD:invarg.obj
 0001:00068780       __call_reportfault         10069780 f   LIBCMTD:invarg.obj
 0001:000688e0       __get_invalid_parameter_handler 100698e0 f   LIBCMTD:invarg.obj
 0001:00068910       __initp_misc_invarg        10069910 f   LIBCMTD:invarg.obj
 0001:00068920       __invalid_parameter        10069920 f   LIBCMTD:invarg.obj
 0001:00068980       __invoke_watson            10069980 f   LIBCMTD:invarg.obj
 0001:000689c0       __set_invalid_parameter_handler 100699c0 f   LIBCMTD:invarg.obj
 0001:00068a00       _rand                      10069a00 f   LIBCMTD:rand.obj
 0001:00068a40       _srand                     10069a40 f   LIBCMTD:rand.obj
 0001:00068a50       _free                      10069a50 f   LIBCMTD:dbgfree.obj
 0001:00068a70       _fabs                      10069a70 f   LIBCMTD:fabs.obj
 0001:00068b70       _floor                     10069b70 f   LIBCMTD:floor_pentium4.obj
 0001:00068bb0       __floor_pentium4           10069bb0 f   LIBCMTD:floor_pentium4.obj
 0001:00068ca0       _modf                      10069ca0 f   LIBCMTD:modf_pentium4.obj
 0001:00068ce0       __modf_pentium4            10069ce0 f   LIBCMTD:modf_pentium4.obj
 0001:00068df0       _memmove                   10069df0 f   LIBCMTD:memmove.obj
 0001:00069440       _memcpy                    1006a440 f   LIBCMTD:memcpy.obj
 0001:00069a90       _memcpy_s                  1006aa90 f   LIBCMTD:memcpy_s.obj
 0001:00069c60       _memset                    1006ac60 f   LIBCMTD:memset.obj
 0001:00069cf0       _strlen                    1006acf0 f   LIBCMTD:strlen.obj
 0001:00069d80       _strcspn                   1006ad80 f   LIBCMTD:strcspn.obj
 0001:00069dd0       ??0__non_rtti_object@std@@QAE@ABV01@@Z 1006add0 f   LIBCMTD:stdexcpt.obj
 0001:00069e00       ??0__non_rtti_object@std@@QAE@PBD@Z 1006ae00 f   LIBCMTD:stdexcpt.obj
 0001:00069e30       ??0bad_cast@std@@QAE@ABV01@@Z 1006ae30 f   LIBCMTD:stdexcpt.obj
 0001:00069e60       ??0bad_cast@std@@QAE@PBD@Z 1006ae60 f   LIBCMTD:stdexcpt.obj
 0001:00069e90       ??0bad_typeid@std@@QAE@ABV01@@Z 1006ae90 f   LIBCMTD:stdexcpt.obj
 0001:00069ec0       ??0bad_typeid@std@@QAE@PBD@Z 1006aec0 f   LIBCMTD:stdexcpt.obj
 0001:00069ef0       ??0exception@std@@QAE@ABQBD@Z 1006aef0 f   LIBCMTD:stdexcpt.obj
 0001:00069f30       ??0exception@std@@QAE@ABQBDH@Z 1006af30 f   LIBCMTD:stdexcpt.obj
 0001:00069f60       ??0exception@std@@QAE@ABV01@@Z 1006af60 f   LIBCMTD:stdexcpt.obj
 0001:00069fa0       ??0exception@std@@QAE@XZ   1006afa0 f   LIBCMTD:stdexcpt.obj
 0001:00069fd0       ??1__non_rtti_object@std@@UAE@XZ 1006afd0 f   LIBCMTD:stdexcpt.obj
 0001:00069ff0       ??1bad_cast@std@@UAE@XZ    1006aff0 f   LIBCMTD:stdexcpt.obj
 0001:0006a010       ??1bad_typeid@std@@UAE@XZ  1006b010 f   LIBCMTD:stdexcpt.obj
 0001:0006a030       ??1exception@std@@UAE@XZ   1006b030 f   LIBCMTD:stdexcpt.obj
 0001:0006a050       ??4exception@std@@QAEAAV01@ABV01@@Z 1006b050 f   LIBCMTD:stdexcpt.obj
 0001:0006a0a0       ??_G__non_rtti_object@std@@UAEPAXI@Z 1006b0a0 f i LIBCMTD:stdexcpt.obj
 0001:0006a0a0       ??_E__non_rtti_object@std@@UAEPAXI@Z 1006b0a0 f i LIBCMTD:stdexcpt.obj
 0001:0006a0d0       ??_Ebad_cast@std@@UAEPAXI@Z 1006b0d0 f i LIBCMTD:stdexcpt.obj
 0001:0006a0d0       ??_Gbad_cast@std@@UAEPAXI@Z 1006b0d0 f i LIBCMTD:stdexcpt.obj
 0001:0006a100       ??_Ebad_typeid@std@@UAEPAXI@Z 1006b100 f i LIBCMTD:stdexcpt.obj
 0001:0006a100       ??_Gbad_typeid@std@@UAEPAXI@Z 1006b100 f i LIBCMTD:stdexcpt.obj
 0001:0006a130       ??_Eexception@std@@UAEPAXI@Z 1006b130 f i LIBCMTD:stdexcpt.obj
 0001:0006a130       ??_Gexception@std@@UAEPAXI@Z 1006b130 f i LIBCMTD:stdexcpt.obj
 0001:0006a160       ?_Copy_str@exception@std@@AAEXPBD@Z 1006b160 f   LIBCMTD:stdexcpt.obj
 0001:0006a1c0       ?_Tidy@exception@std@@AAEXXZ 1006b1c0 f   LIBCMTD:stdexcpt.obj
 0001:0006a200       ?what@exception@std@@UBEPBDXZ 1006b200 f   LIBCMTD:stdexcpt.obj
 0001:0006a230       ??_V@YAXPAX@Z              1006b230 f   LIBCMTD:delete2.obj
 0001:0006a250       __fclose_nolock            1006b250 f   LIBCMTD:fclose.obj
 0001:0006a360       _fclose                    1006b360 f   LIBCMTD:fclose.obj
 0001:0006a480       __fflush_nolock            1006b480 f   LIBCMTD:fflush.obj
 0001:0006a4f0       __flush                    1006b4f0 f   LIBCMTD:fflush.obj
 0001:0006a5b0       __flushall                 1006b5b0 f   LIBCMTD:fflush.obj
 0001:0006a5c0       _fflush                    1006b5c0 f   LIBCMTD:fflush.obj
 0001:0006a800       __getc_nolock              1006b800 f   LIBCMTD:fgetc.obj
 0001:0006a860       _fgetc                     1006b860 f   LIBCMTD:fgetc.obj
 0001:0006aac0       _getc                      1006bac0 f   LIBCMTD:fgetc.obj
 0001:0006ad20       _fgetpos                   1006bd20 f   LIBCMTD:fgetpos.obj
 0001:0006ae50       _fputc                     1006be50 f   LIBCMTD:fputc.obj
 0001:0006b0c0       _putc                      1006c0c0 f   LIBCMTD:fputc.obj
 0001:0006b330       _fsetpos                   1006c330 f   LIBCMTD:fsetpos.obj
 0001:0006b450       __fseeki64                 1006c450 f   LIBCMTD:fseeki64.obj
 0001:0006b5e0       __fseeki64_nolock          1006c5e0 f   LIBCMTD:fseeki64.obj
 0001:0006b720       __fwrite_nolock            1006c720 f   LIBCMTD:fwrite.obj
 0001:0006bb30       _fwrite                    1006cb30 f   LIBCMTD:fwrite.obj
 0001:0006bc50       _setvbuf                   1006cc50 f   LIBCMTD:setvbuf.obj
 0001:0006bf50       __scprintf                 1006cf50 f   LIBCMTD:sprintf.obj
 0001:0006bf70       __scprintf_l               1006cf70 f   LIBCMTD:sprintf.obj
 0001:0006bfa0       __scprintf_p               1006cfa0 f   LIBCMTD:sprintf.obj
 0001:0006bfc0       __scprintf_p_l             1006cfc0 f   LIBCMTD:sprintf.obj
 0001:0006bff0       __snprintf_s               1006cff0 f   LIBCMTD:sprintf.obj
 0001:0006c020       __snprintf_s_l             1006d020 f   LIBCMTD:sprintf.obj
 0001:0006c050       __sprintf_l                1006d050 f   LIBCMTD:sprintf.obj
 0001:0006c080       __sprintf_p                1006d080 f   LIBCMTD:sprintf.obj
 0001:0006c0b0       __sprintf_p_l              1006d0b0 f   LIBCMTD:sprintf.obj
 0001:0006c0e0       __sprintf_s_l              1006d0e0 f   LIBCMTD:sprintf.obj
 0001:0006c110       _sprintf                   1006d110 f   LIBCMTD:sprintf.obj
 0001:0006c2d0       _sprintf_s                 1006d2d0 f   LIBCMTD:sprintf.obj
 0001:0006c300       __ungetc_nolock            1006d300 f   LIBCMTD:ungetc.obj
 0001:0006c530       _ungetc                    1006d530 f   LIBCMTD:ungetc.obj
 0001:0006c630       ___initstdio               1006d630 f   LIBCMTD:_file.obj
 0001:0006c700       ___endstdio                1006d700 f   LIBCMTD:_file.obj
 0001:0006c740       ___iob_func                1006d740 f   LIBCMTD:_file.obj
 0001:0006c750       __lock_file                1006d750 f   LIBCMTD:_file.obj
 0001:0006c7b0       __lock_file2               1006d7b0 f   LIBCMTD:_file.obj
 0001:0006c7f0       __unlock_file              1006d7f0 f   LIBCMTD:_file.obj
 0001:0006c850       __unlock_file2             1006d850 f   LIBCMTD:_file.obj
 0001:0006c890       ?_CrtDbgReportW@@YAHHPBGH00ZZ 1006d890 f   LIBCMTD:dbgrptw.obj
 0001:0006c8e0       __CrtDbgReportW            1006d8e0 f   LIBCMTD:dbgrptw.obj
 0001:0006c930       __CrtDbgReportWV           1006d930 f i LIBCMTD:dbgrptw.obj
 0001:0006c960       __CrtSetReportHookW2       1006d960 f   LIBCMTD:dbgrptw.obj
 0001:0006ccb0       ___crtMessageWindowW       1006dcb0 f   LIBCMTD:dbgrptw.obj
 0001:0006d160       __invoke_watson_if_error   1006e160 f i LIBCMTD:dbgrptw.obj
 0001:0006d190       __invoke_watson_if_oneof   1006e190 f i LIBCMTD:dbgrptw.obj
 0001:0006d1d0       ??0_LocaleUpdate@@QAE@PAUlocaleinfo_struct@@@Z 1006e1d0 f i LIBCMTD:dbgheap.obj
 0001:0006d2b0       ??1_LocaleUpdate@@QAE@XZ   1006e2b0 f i LIBCMTD:dbgheap.obj
 0001:0006d2e0       ?GetLocaleT@_LocaleUpdate@@QAEPAUlocaleinfo_struct@@XZ 1006e2e0 f i LIBCMTD:dbgheap.obj
 0001:0006d780       __CrtCheckMemory           1006e780 f   LIBCMTD:dbgheap.obj
 0001:0006dbe0       __CrtDoForAllClientObjects 1006ebe0 f   LIBCMTD:dbgheap.obj
 0001:0006dd10       __CrtDumpMemoryLeaks       1006ed10 f   LIBCMTD:dbgheap.obj
 0001:0006ddb0       __CrtGetAllocHook          1006edb0 f   LIBCMTD:dbgheap.obj
 0001:0006ddc0       __CrtGetCheckCount         1006edc0 f   LIBCMTD:dbgheap.obj
 0001:0006ddd0       __CrtGetDumpClient         1006edd0 f   LIBCMTD:dbgheap.obj
 0001:0006dde0       __CrtIsMemoryBlock         1006ede0 f   LIBCMTD:dbgheap.obj
 0001:0006df50       __CrtIsValidHeapPointer    1006ef50 f   LIBCMTD:dbgheap.obj
 0001:0006df90       __CrtIsValidPointer        1006ef90 f   LIBCMTD:dbgheap.obj
 0001:0006dfc0       __CrtMemCheckpoint         1006efc0 f   LIBCMTD:dbgheap.obj
 0001:0006e1f0       __CrtMemDifference         1006f1f0 f   LIBCMTD:dbgheap.obj
 0001:0006e450       __CrtMemDumpAllObjectsSince 1006f450 f   LIBCMTD:dbgheap.obj
 0001:0006e490       __CrtMemDumpStatistics     1006f490 f   LIBCMTD:dbgheap.obj
 0001:0006e5b0       __CrtReportBlockType       1006f5b0 f   LIBCMTD:dbgheap.obj
 0001:0006e5e0       __CrtSetAllocHook          1006f5e0 f   LIBCMTD:dbgheap.obj
 0001:0006e600       __CrtSetBreakAlloc         1006f600 f   LIBCMTD:dbgheap.obj
 0001:0006e620       __CrtSetCheckCount         1006f620 f   LIBCMTD:dbgheap.obj
 0001:0006e640       __CrtSetDbgBlockType       1006f640 f   LIBCMTD:dbgheap.obj
 0001:0006e730       __CrtSetDbgFlag            1006f730 f   LIBCMTD:dbgheap.obj
 0001:0006e880       __CrtSetDebugFillThreshold 1006f880 f   LIBCMTD:dbgheap.obj
 0001:0006e8a0       __CrtSetDumpClient         1006f8a0 f   LIBCMTD:dbgheap.obj
 0001:0006e8c0       __aligned_free             1006f8c0 f   LIBCMTD:dbgheap.obj
 0001:0006e8e0       __aligned_free_dbg         1006f8e0 f   LIBCMTD:dbgheap.obj
 0001:0006e990       __aligned_malloc           1006f990 f   LIBCMTD:dbgheap.obj
 0001:0006e9b0       __aligned_malloc_dbg       1006f9b0 f   LIBCMTD:dbgheap.obj
 0001:0006e9d0       __aligned_msize            1006f9d0 f   LIBCMTD:dbgheap.obj
 0001:0006e9f0       __aligned_msize_dbg        1006f9f0 f   LIBCMTD:dbgheap.obj
 0001:0006eb10       __aligned_offset_malloc    1006fb10 f   LIBCMTD:dbgheap.obj
 0001:0006eb30       __aligned_offset_malloc_dbg 1006fb30 f   LIBCMTD:dbgheap.obj
 0001:0006ed10       __aligned_offset_realloc   1006fd10 f   LIBCMTD:dbgheap.obj
 0001:0006ed40       __aligned_offset_realloc_dbg 1006fd40 f   LIBCMTD:dbgheap.obj
 0001:0006f050       __aligned_offset_recalloc  10070050 f   LIBCMTD:dbgheap.obj
 0001:0006f080       __aligned_offset_recalloc_dbg 10070080 f   LIBCMTD:dbgheap.obj
 0001:0006f140       __aligned_realloc          10070140 f   LIBCMTD:dbgheap.obj
 0001:0006f160       __aligned_realloc_dbg      10070160 f   LIBCMTD:dbgheap.obj
 0001:0006f190       __aligned_recalloc         10070190 f   LIBCMTD:dbgheap.obj
 0001:0006f1c0       __aligned_recalloc_dbg     100701c0 f   LIBCMTD:dbgheap.obj
 0001:0006f1f0       __calloc_dbg               100701f0 f   LIBCMTD:dbgheap.obj
 0001:0006f250       __calloc_dbg_impl          10070250 f   LIBCMTD:dbgheap.obj
 0001:0006f2d0       __expand                   100702d0 f   LIBCMTD:dbgheap.obj
 0001:0006f300       __expand_dbg               10070300 f   LIBCMTD:dbgheap.obj
 0001:0006f420       __free_dbg                 10070420 f   LIBCMTD:dbgheap.obj
 0001:0006f4a0       __free_dbg_nolock          100704a0 f   LIBCMTD:dbgheap.obj
 0001:0006f9a0       __free_nolock              100709a0 f   LIBCMTD:dbgheap.obj
 0001:0006f9c0       __heap_alloc               100709c0 f   LIBCMTD:dbgheap.obj
 0001:0006f9e0       __heap_alloc_dbg           100709e0 f   LIBCMTD:dbgheap.obj
 0001:0006fe00       __malloc_dbg               10070e00 f   LIBCMTD:dbgheap.obj
 0001:0006fe30       __msize                    10070e30 f   LIBCMTD:dbgheap.obj
 0001:0006fe50       __msize_dbg                10070e50 f   LIBCMTD:dbgheap.obj
 0001:00070060       __nh_malloc                10071060 f   LIBCMTD:dbgheap.obj
 0001:00070080       __nh_malloc_dbg            10071080 f   LIBCMTD:dbgheap.obj
 0001:00070310       __realloc_dbg              10071310 f   LIBCMTD:dbgheap.obj
 0001:000703a0       __recalloc                 100713a0 f   LIBCMTD:dbgheap.obj
 0001:000703d0       __recalloc_dbg             100713d0 f   LIBCMTD:dbgheap.obj
 0001:00070a90       _localeconv                10071a90 f   LIBCMTD:lconv.obj
 0001:00070ae0       __time64                   10071ae0 f   LIBCMTD:time64.obj
 0001:00070b60       @_RTC_AllocaHelper@12      10071b60 f   LIBCMTD:stack.obj
 0001:00070ba0       @_RTC_CheckStackVars2@12   10071ba0 f   LIBCMTD:stack.obj
 0001:00070c80       @_RTC_CheckStackVars@8     10071c80 f   LIBCMTD:stack.obj
 0001:00070ce0       __RTC_CheckEsp             10071ce0 f   LIBCMTD:stack.obj
 0001:00070d10       @__security_check_cookie@4 10071d10 f   LIBCMTD:secchk.obj
 0001:00070d20       __CxxThrowException@8      10071d20 f   LIBCMTD:throw.obj
 0001:00070db0       __RTC_InitBase             10071db0 f   LIBCMTD:init.obj
 0001:00070de0       __RTC_Shutdown             10071de0 f   LIBCMTD:init.obj
 0001:00070f00       ?_CallCatchBlock2@@YAPAXPAUEHRegistrationNode@@PBU_s_FuncInfo@@PAXHK@Z 10071f00 f   LIBCMTD:_trnsctrl_.obj
 0001:00070f70       ?_CallMemberFunction0@@YGXPAX0@Z 10071f70 f   LIBCMTD:_trnsctrl_.obj
 0001:00070f80       ?_CallMemberFunction1@@YGXPAX00@Z 10071f80 f   LIBCMTD:_trnsctrl_.obj
 0001:00070f90       ?_CallMemberFunction2@@YGXPAX00H@Z 10071f90 f   LIBCMTD:_trnsctrl_.obj
 0001:00070fa0       ?_CallSETranslator@@YAHPAUEHExceptionRecord@@PAUEHRegistrationNode@@PAX2PBU_s_FuncInfo@@H1@Z 10071fa0 f   LIBCMTD:_trnsctrl_.obj
 0001:00071090       ?_GetRangeOfTrysToCheck@@YAPBU_s_TryBlockMapEntry@@PBU_s_FuncInfo@@HHPAI1@Z 10072090 f   LIBCMTD:_trnsctrl_.obj
 0001:00071120       ?_JumpToContinuation@@YGXPAXPAUEHRegistrationNode@@@Z 10072120 f   LIBCMTD:_trnsctrl_.obj
 0001:00071160       ?_UnwindNestedFrames@@YGXPAUEHRegistrationNode@@PAUEHExceptionRecord@@@Z 10072160 f   LIBCMTD:_trnsctrl_.obj
 0001:000711c0       __CreateFrameInfo          100721c0 f   LIBCMTD:_trnsctrl_.obj
 0001:000711f0       __FindAndUnlinkFrame       100721f0 f   LIBCMTD:_trnsctrl_.obj
 0001:00071250       __IsExceptionObjectToBeDestroyed 10072250 f   LIBCMTD:_trnsctrl_.obj
 0001:00071280       ___CxxFrameHandler         10072280 f   LIBCMTD:_trnsctrl_.obj
 0001:000712c0       ___CxxFrameHandler2        100722c0 f   LIBCMTD:_trnsctrl_.obj
 0001:00071300       ___CxxFrameHandler3        10072300 f   LIBCMTD:_trnsctrl_.obj
 0001:00071340       ___CxxLongjmpUnwind@4      10072340 f   LIBCMTD:_trnsctrl_.obj
 0001:00071370       ??0type_info@@AAE@ABV0@@Z  10072370 f   LIBCMTD:typinfo.obj
 0001:00071390       ??1type_info@@UAE@XZ       10072390 f   LIBCMTD:typinfo.obj
 0001:000713b0       ??4type_info@@AAEAAV0@ABV0@@Z 100723b0 f   LIBCMTD:typinfo.obj
 0001:000713c0       ??8type_info@@QBE_NABV0@@Z 100723c0 f   LIBCMTD:typinfo.obj
 0001:00071400       ??9type_info@@QBE_NABV0@@Z 10072400 f   LIBCMTD:typinfo.obj
 0001:00071440       ??_Gtype_info@@UAEPAXI@Z   10072440 f i LIBCMTD:typinfo.obj
 0001:00071440       ??_Etype_info@@UAEPAXI@Z   10072440 f i LIBCMTD:typinfo.obj
 0001:00071470       ?_name_internal_method@type_info@@QBEPBDPAU__type_info_node@@@Z 10072470 f   LIBCMTD:typinfo.obj
 0001:00071490       ?_type_info_dtor_internal_method@type_info@@QAEXXZ 10072490 f   LIBCMTD:typinfo.obj
 0001:000714b0       ?before@type_info@@QBE_NABV1@@Z 100724b0 f   LIBCMTD:typinfo.obj
 0001:000714f0       ?name@type_info@@QBEPBDPAU__type_info_node@@@Z 100724f0 f   LIBCMTD:typinfo.obj
 0001:00071510       ?raw_name@type_info@@QBEPBDXZ 10072510 f   LIBCMTD:typinfo.obj
 0001:00071530       __fpmath                   10072530 f   LIBCMTD:fpinit.obj
 0001:00071550       ___setfflag                10072550 f   LIBCMTD:fpinit.obj
 0001:00071570       __cfltcvt_init             10072570 f   LIBCMTD:fpinit.obj
 0001:00071630       _cos                       10072630 f   LIBCMTD:cos.obj
 0001:00071670       __CIcos                    10072670 f   LIBCMTD:cos.obj
 0001:000716ab       __CIcos_default            100726ab f   LIBCMTD:cos.obj
 0001:000716bf       __cos_default              100726bf     LIBCMTD:cos.obj
 0001:00071760       _sin                       10072760 f   LIBCMTD:sin.obj
 0001:000717a0       __CIsin                    100727a0 f   LIBCMTD:sin.obj
 0001:000717db       __CIsin_default            100727db f   LIBCMTD:sin.obj
 0001:000717ef       __sin_default              100727ef     LIBCMTD:sin.obj
 0001:00071890       __get_printf_count_output  10072890 f   LIBCMTD:printf.obj
 0001:000718c0       __printf_l                 100728c0 f   LIBCMTD:printf.obj
 0001:000718f0       __printf_p                 100728f0 f   LIBCMTD:printf.obj
 0001:00071910       __printf_p_l               10072910 f   LIBCMTD:printf.obj
 0001:00071940       __printf_s_l               10072940 f   LIBCMTD:printf.obj
 0001:00071970       __set_printf_count_output  10072970 f   LIBCMTD:printf.obj
 0001:000719d0       _printf                    100729d0 f   LIBCMTD:printf.obj
 0001:00071b40       _printf_s                  10072b40 f   LIBCMTD:printf.obj
 0001:00071b60       __snprintf                 10072b60 f   LIBCMTD:snprintf.obj
 0001:00071d40       __snprintf_l               10072d40 f   LIBCMTD:snprintf.obj
 0001:00071d70       _strcmp                    10072d70 f   LIBCMTD:strcmp.obj
 0001:00071e00       _strrchr                   10072e00 f   LIBCMTD:strrchr.obj
 0001:00071f40       _atan2                     10072f40 f   LIBCMTD:87ctriga.obj
 0001:00071f4a       __CIatan2                  10072f4a f   LIBCMTD:87ctriga.obj
 0001:00071f60       _exp                       10072f60 f   LIBCMTD:87ctran.obj
 0001:00071f9c       __CIexp                    10072f9c f   LIBCMTD:87ctran.obj
 0001:00071fd7       __exp_default              10072fd7 f   LIBCMTD:87ctran.obj
 0001:00071fe1       __CIexp_default            10072fe1 f   LIBCMTD:87ctran.obj
 0001:00071ff0       _log                       10072ff0 f   LIBCMTD:log.obj
 0001:00072030       __CIlog                    10073030 f   LIBCMTD:log.obj
 0001:0007206b       __CIlog_default            1007306b f   LIBCMTD:log.obj
 0001:0007207f       __log_default              1007307f     LIBCMTD:log.obj
 0001:00072140       __CIsqrt                   10073140 f   LIBCMTD:sqrt.obj
 0001:00072154       _sqrt                      10073154     LIBCMTD:sqrt.obj
 0001:00072200       ___raise_securityfailure   10073200 f   LIBCMTD:gs_report.obj
 0001:00072250       ___report_gsfailure        10073250 f   LIBCMTD:gs_report.obj
 0001:00072360       ___report_rangecheckfailure 10073360 f   LIBCMTD:gs_report.obj
 0001:00072370       ___report_securityfailure  10073370 f   LIBCMTD:gs_report.obj
 0001:00072450       ___report_securityfailureEx 10073450 f   LIBCMTD:gs_report.obj
 0001:00072580       __fsopen                   10073580 f   LIBCMTD:fopen.obj
 0001:000727d0       _fopen                     100737d0 f   LIBCMTD:fopen.obj
 0001:000727f0       _fopen_s                   100737f0 f   LIBCMTD:fopen.obj
 0001:000728b0       __fread_nolock             100738b0 f   LIBCMTD:fread.obj
 0001:000728d0       __fread_nolock_s           100738d0 f   LIBCMTD:fread.obj
 0001:00072f00       _fread                     10073f00 f   LIBCMTD:fread.obj
 0001:00072f20       _fread_s                   10073f20 f   LIBCMTD:fread.obj
 0001:00073070       _strchr                    10074070 f   LIBCMTD:strchr.obj
 0001:000730de       ___from_strstr_to_strchr   100740de     LIBCMTD:strchr.obj
 0001:000731a0       _strncmp                   100741a0 f   LIBCMTD:strncmp.obj
 0001:00073220       _strncpy                   10074220 f   LIBCMTD:strncpy.obj
 0001:00073350       _ceil                      10074350 f   LIBCMTD:ceil_pentium4.obj
 0001:00073390       __ceil_pentium4            10074390 f   LIBCMTD:ceil_pentium4.obj
 0001:00073470       _sinh                      10074470 f   LIBCMTD:87ctrigh.obj
 0001:0007347a       _cosh                      1007447a f   LIBCMTD:87ctrigh.obj
 0001:00073481       _tanh                      10074481 f   LIBCMTD:87ctrigh.obj
 0001:00073488       __CIsinh                   10074488 f   LIBCMTD:87ctrigh.obj
 0001:00073492       __CIcosh                   10074492 f   LIBCMTD:87ctrigh.obj
 0001:00073499       __CItanh                   10074499 f   LIBCMTD:87ctrigh.obj
 0001:000734a0       __fprintf_l                100744a0 f   LIBCMTD:fprintf.obj
 0001:000734d0       __fprintf_p                100744d0 f   LIBCMTD:fprintf.obj
 0001:00073500       __fprintf_p_l              10074500 f   LIBCMTD:fprintf.obj
 0001:00073530       __fprintf_s_l              10074530 f   LIBCMTD:fprintf.obj
 0001:00073560       _fprintf                   10074560 f   LIBCMTD:fprintf.obj
 0001:00073830       _fprintf_s                 10074830 f   LIBCMTD:fprintf.obj
 0001:00073860       __fscanf_l                 10074860 f   LIBCMTD:fscanf.obj
 0001:00073890       __fscanf_s_l               10074890 f   LIBCMTD:fscanf.obj
 0001:000738c0       _fscanf                    100748c0 f   LIBCMTD:fscanf.obj
 0001:000738f0       _fscanf_s                  100748f0 f   LIBCMTD:fscanf.obj
 0001:00073920       _vfscanf                   10074920 f   LIBCMTD:fscanf.obj
 0001:00073bd0       _acos                      10074bd0 f   LIBCMTD:acos.obj
 0001:00073c10       __CIacos                   10074c10 f   LIBCMTD:acos.obj
 0001:00073c4b       __CIacos_default           10074c4b f   LIBCMTD:acos.obj
 0001:00073c5f       __acos_default             10074c5f     LIBCMTD:acos.obj
 0001:00073d20       _tan                       10074d20 f   LIBCMTD:tan.obj
 0001:00073d60       __CItan                    10074d60 f   LIBCMTD:tan.obj
 0001:00073d9b       __CItan_default            10074d9b f   LIBCMTD:tan.obj
 0001:00073daf       __tan_default              10074daf     LIBCMTD:tan.obj
 0001:00073e50       __chkstk                   10074e50 f   LIBCMTD:chkstk.obj
 0001:00073e50       __alloca_probe             10074e50     LIBCMTD:chkstk.obj
 0001:00073e80       __ftol2_sse                10074e80 f   LIBCMTD:ftol2.obj
 0001:00073e89       __ftol2_pentium4           10074e89 f   LIBCMTD:ftol2.obj
 0001:00073e9c       __ftol2_sse_excpt          10074e9c f   LIBCMTD:ftol2.obj
 0001:00073eb6       __ftol2                    10074eb6 f   LIBCMTD:ftol2.obj
 0001:00073f30       _malloc                    10074f30 f   LIBCMTD:dbgmalloc.obj
 0001:00073f60       ??_L@YGXPAXIHP6EX0@Z1@Z    10074f60 f   LIBCMTD:ehvecctr.obj
 0001:00074010       _asin                      10075010 f   LIBCMTD:asin.obj
 0001:00074050       __CIasin                   10075050 f   LIBCMTD:asin.obj
 0001:0007408b       __CIasin_default           1007508b f   LIBCMTD:asin.obj
 0001:0007409f       __asin_default             1007509f     LIBCMTD:asin.obj
 0001:00074160       _atan                      10075160 f   LIBCMTD:atan.obj
 0001:000741a0       __CIatan                   100751a0 f   LIBCMTD:atan.obj
 0001:000741db       __CIatan_default           100751db f   LIBCMTD:atan.obj
 0001:000741ef       __atan_default             100751ef     LIBCMTD:atan.obj
 0001:00074280       __CRT_INIT@12              10075280 f   LIBCMTD:dllcrt0.obj
 0001:000744b0       __DllMainCRTStartup@12     100754b0 f   LIBCMTD:dllcrt0.obj
 0001:000746a0       ___DllXcptFilter           100756a0 f   LIBCMTD:dllcrt0.obj
 0001:000746d0       ___copy_path_to_wide_string 100756d0 f   LIBCMTD:crt0dat.obj
 0001:000748c0       ___crtCorExitProcess       100758c0 f   LIBCMTD:crt0dat.obj
 0001:00074900       ___crtExitProcess          10075900 f   LIBCMTD:crt0dat.obj
 0001:00074920       ___freeCrtMemory           10075920 f   LIBCMTD:crt0dat.obj
 0001:00074af0       __amsg_exit                10075af0 f   LIBCMTD:crt0dat.obj
 0001:00074b10       __c_exit                   10075b10 f   LIBCMTD:crt0dat.obj
 0001:00074b30       __cexit                    10075b30 f   LIBCMTD:crt0dat.obj
 0001:00074b50       __cinit                    10075b50 f   LIBCMTD:crt0dat.obj
 0001:00074bf0       __exit                     10075bf0 f   LIBCMTD:crt0dat.obj
 0001:00074c10       __get_pgmptr               10075c10 f   LIBCMTD:crt0dat.obj
 0001:00074d30       __get_wpgmptr              10075d30 f   LIBCMTD:crt0dat.obj
 0001:00074e50       __init_pointers            10075e50 f   LIBCMTD:crt0dat.obj
 0001:00074ee0       __initterm_e               10075ee0 f   LIBCMTD:crt0dat.obj
 0001:00074f20       __lockexit                 10075f20 f   LIBCMTD:crt0dat.obj
 0001:00074f30       __unlockexit               10075f30 f   LIBCMTD:crt0dat.obj
 0001:00075140       _exit                      10076140 f   LIBCMTD:crt0dat.obj
 0001:00075160       __vscprintf                10076160 f   LIBCMTD:vsprintf.obj
 0001:00075180       __vscprintf_helper         10076180 f   LIBCMTD:vsprintf.obj
 0001:00075270       __vscprintf_l              10076270 f   LIBCMTD:vsprintf.obj
 0001:00075290       __vscprintf_p              10076290 f   LIBCMTD:vsprintf.obj
 0001:000752b0       __vscprintf_p_l            100762b0 f   LIBCMTD:vsprintf.obj
 0001:000752d0       __vsprintf_l               100762d0 f   LIBCMTD:vsprintf.obj
 0001:00075490       _vsprintf                  10076490 f   LIBCMTD:vsprintf.obj
 0001:000754b0       __lock                     100764b0 f   LIBCMTD:mlock.obj
 0001:000754f0       __lockerr_exit             100764f0 f   LIBCMTD:mlock.obj
 0001:00075520       __mtdeletelocks            10076520 f   LIBCMTD:mlock.obj
 0001:000755e0       __mtinitlocknum            100765e0 f   LIBCMTD:mlock.obj
 0001:00075700       __mtinitlocks              10076700 f   LIBCMTD:mlock.obj
 0001:00075780       __unlock                   10076780 f   LIBCMTD:mlock.obj
 0001:000757a0       ___DestructExceptionObject 100767a0 f   LIBCMTD:frame.obj
 0001:000758c0       ??0bad_exception@std@@QAE@ABV01@@Z 100768c0 f i LIBCMTD:frame.obj
 0001:000758f0       ??0bad_exception@std@@QAE@PBD@Z 100768f0 f i LIBCMTD:frame.obj
 0001:00075920       ??1bad_exception@std@@UAE@XZ 10076920 f i LIBCMTD:frame.obj
 0001:00075940       ??_Gbad_exception@std@@UAEPAXI@Z 10076940 f i LIBCMTD:frame.obj
 0001:00075940       ??_Ebad_exception@std@@UAEPAXI@Z 10076940 f i LIBCMTD:frame.obj
 0001:00076540       ?__uncaught_exception@@YA_NXZ 10077540 f   LIBCMTD:frame.obj
 0001:00076570       ?_is_exception_typeof@@YAHABVtype_info@@PAU_EXCEPTION_POINTERS@@@Z 10077570 f   LIBCMTD:frame.obj
 0001:00076650       ___AdjustPointer           10077650 f   LIBCMTD:frame.obj
 0001:000766a0       ___BuildCatchObject        100776a0 f   LIBCMTD:frame.obj
 0001:000767b0       ___BuildCatchObjectHelper  100777b0 f   LIBCMTD:frame.obj
 0001:00076a30       ___CxxDetectRethrow        10077a30 f   LIBCMTD:frame.obj
 0001:00076ab0       ___CxxExceptionFilter      10077ab0 f   LIBCMTD:frame.obj
 0001:00076cb0       ___CxxQueryExceptionSize   10077cb0 f   LIBCMTD:frame.obj
 0001:00076cc0       ___CxxRegisterExceptionObject 10077cc0 f   LIBCMTD:frame.obj
 0001:00076e00       ___CxxUnregisterExceptionObject 10077e00 f   LIBCMTD:frame.obj
 0001:00076f80       ___FrameUnwindFilter       10077f80 f   LIBCMTD:frame.obj
 0001:00077000       ___FrameUnwindToState      10078000 f   LIBCMTD:frame.obj
 0001:00077180       ___InternalCxxFrameHandler 10078180 f   LIBCMTD:frame.obj
 0001:000772f0       ___TypeMatch               100782f0 f   LIBCMTD:frame.obj
 0001:000773b0       ___pctype_func             100783b0 f   LIBCMTD:ctype.obj
 0001:00077400       ___pwctype_func            10078400 f   LIBCMTD:ctype.obj
 0001:00077410       ___isascii                 10078410 f i LIBCMTD:_ctype.obj
 0001:00077440       ___iscsym                  10078440 f i LIBCMTD:_ctype.obj
 0001:00077480       ___iscsymf                 10078480 f i LIBCMTD:_ctype.obj
 0001:000774c0       ___toascii                 100784c0 f i LIBCMTD:_ctype.obj
 0001:000774d0       __isalnum_l                100784d0 f i LIBCMTD:_ctype.obj
 0001:00077550       __isalpha_l                10078550 f i LIBCMTD:_ctype.obj
 0001:000775d0       __iscntrl_l                100785d0 f i LIBCMTD:_ctype.obj
 0001:00077650       __iscsym_l                 10078650 f i LIBCMTD:_ctype.obj
 0001:00077690       __iscsymf_l                10078690 f i LIBCMTD:_ctype.obj
 0001:000776d0       __isdigit_l                100786d0 f i LIBCMTD:_ctype.obj
 0001:00077750       __isgraph_l                10078750 f i LIBCMTD:_ctype.obj
 0001:000777d0       __islower_l                100787d0 f i LIBCMTD:_ctype.obj
 0001:00077850       __isprint_l                10078850 f i LIBCMTD:_ctype.obj
 0001:000778d0       __ispunct_l                100788d0 f i LIBCMTD:_ctype.obj
 0001:00077950       __isspace_l                10078950 f i LIBCMTD:_ctype.obj
 0001:000779d0       __isupper_l                100789d0 f i LIBCMTD:_ctype.obj
 0001:00077a50       __isxdigit_l               10078a50 f i LIBCMTD:_ctype.obj
 0001:00077ad0       _isalnum                   10078ad0 f i LIBCMTD:_ctype.obj
 0001:00077b10       _isalpha                   10078b10 f i LIBCMTD:_ctype.obj
 0001:00077b50       _iscntrl                   10078b50 f i LIBCMTD:_ctype.obj
 0001:00077b80       _isdigit                   10078b80 f i LIBCMTD:_ctype.obj
 0001:00077bb0       _isgraph                   10078bb0 f i LIBCMTD:_ctype.obj
 0001:00077bf0       _islower                   10078bf0 f i LIBCMTD:_ctype.obj
 0001:00077c20       _isprint                   10078c20 f i LIBCMTD:_ctype.obj
 0001:00077c60       _ispunct                   10078c60 f i LIBCMTD:_ctype.obj
 0001:00077c90       _isspace                   10078c90 f i LIBCMTD:_ctype.obj
 0001:00077cc0       _isupper                   10078cc0 f i LIBCMTD:_ctype.obj
 0001:00077cf0       _isxdigit                  10078cf0 f i LIBCMTD:_ctype.obj
 0001:00077d30       __wcsdup                   10078d30 f   LIBCMTD:wcsdup.obj
 0001:00077d50       __wcsdup_dbg               10078d50 f   LIBCMTD:wcsdup.obj
 0001:00077de0       ____lc_codepage_func       10078de0 f   LIBCMTD:initctyp.obj
 0001:00077e30       ____lc_collate_cp_func     10078e30 f   LIBCMTD:initctyp.obj
 0001:00077e80       ____lc_locale_name_func    10078e80 f   LIBCMTD:initctyp.obj
 0001:00077ed0       ____mb_cur_max_func        10078ed0 f   LIBCMTD:initctyp.obj
 0001:00077f20       ____mb_cur_max_l_func      10078f20 f   LIBCMTD:initctyp.obj
 0001:00077f50       ___init_ctype              10078f50 f   LIBCMTD:initctyp.obj
 0001:00078880       __MarkAllocaS              10079880 f i LIBCMTD:a_map.obj
 0001:000788a0       ___crtLCMapStringA         100798a0 f   LIBCMTD:a_map.obj
 0001:00078900       __freea                    10079900 f i LIBCMTD:a_map.obj
 0001:00078970       ___doserrno                10079970 f   LIBCMTD:dosmap.obj
 0001:000789a0       __dosmaperr                100799a0 f   LIBCMTD:dosmap.obj
 0001:000789d0       __errno                    100799d0 f   LIBCMTD:dosmap.obj
 0001:00078a00       __get_doserrno             10079a00 f   LIBCMTD:dosmap.obj
 0001:00078a90       __get_errno                10079a90 f   LIBCMTD:dosmap.obj
 0001:00078b20       __get_errno_from_oserr     10079b20 f   LIBCMTD:dosmap.obj
 0001:00078ba0       __set_doserrno             10079ba0 f   LIBCMTD:dosmap.obj
 0001:00078bd0       __set_errno                10079bd0 f   LIBCMTD:dosmap.obj
 0001:00078cc0       __ismbbalnum               10079cc0 f   LIBCMTD:ismbbyte.obj
 0001:00078ce0       __ismbbalnum_l             10079ce0 f   LIBCMTD:ismbbyte.obj
 0001:00078d00       __ismbbalpha               10079d00 f   LIBCMTD:ismbbyte.obj
 0001:00078d20       __ismbbalpha_l             10079d20 f   LIBCMTD:ismbbyte.obj
 0001:00078d40       __ismbbgraph               10079d40 f   LIBCMTD:ismbbyte.obj
 0001:00078d60       __ismbbgraph_l             10079d60 f   LIBCMTD:ismbbyte.obj
 0001:00078d80       __ismbbkalnum              10079d80 f   LIBCMTD:ismbbyte.obj
 0001:00078da0       __ismbbkalnum_l            10079da0 f   LIBCMTD:ismbbyte.obj
 0001:00078dc0       __ismbbkana                10079dc0 f   LIBCMTD:ismbbyte.obj
 0001:00078de0       __ismbbkana_l              10079de0 f   LIBCMTD:ismbbyte.obj
 0001:00078e50       __ismbbkprint              10079e50 f   LIBCMTD:ismbbyte.obj
 0001:00078e70       __ismbbkprint_l            10079e70 f   LIBCMTD:ismbbyte.obj
 0001:00078e90       __ismbbkpunct              10079e90 f   LIBCMTD:ismbbyte.obj
 0001:00078eb0       __ismbbkpunct_l            10079eb0 f   LIBCMTD:ismbbyte.obj
 0001:00078ed0       __ismbblead                10079ed0 f   LIBCMTD:ismbbyte.obj
 0001:00078ef0       __ismbblead_l              10079ef0 f   LIBCMTD:ismbbyte.obj
 0001:00078f10       __ismbbprint               10079f10 f   LIBCMTD:ismbbyte.obj
 0001:00078f30       __ismbbprint_l             10079f30 f   LIBCMTD:ismbbyte.obj
 0001:00078f50       __ismbbpunct               10079f50 f   LIBCMTD:ismbbyte.obj
 0001:00078f70       __ismbbpunct_l             10079f70 f   LIBCMTD:ismbbyte.obj
 0001:00078f90       __ismbbtrail               10079f90 f   LIBCMTD:ismbbyte.obj
 0001:00078fb0       __ismbbtrail_l             10079fb0 f   LIBCMTD:ismbbyte.obj
 0001:00078fd0       _setlocale                 10079fd0 f   LIBCMTD:setlocal.obj
 0001:00079360       __fseek_nolock             1007a360 f   LIBCMTD:fseek.obj
 0001:00079450       _fseek                     1007a450 f   LIBCMTD:fseek.obj
 0001:000795e0       __wfopen                   1007a5e0 f   LIBCMTD:wfopen.obj
 0001:00079600       __wfopen_s                 1007a600 f   LIBCMTD:wfopen.obj
 0001:000796c0       __wfsopen                  1007a6c0 f   LIBCMTD:wfopen.obj
 0001:00079960       ___crtCloseThreadpoolTimer 1007a960 f   LIBCMTD:winapisupp.obj
 0001:00079990       ___crtCloseThreadpoolWait  1007a990 f   LIBCMTD:winapisupp.obj
 0001:000799c0       ___crtCreateSemaphoreExW@24 1007a9c0 f   LIBCMTD:winapisupp.obj
 0001:00079a20       ___crtCreateSymbolicLinkW  1007aa20 f   LIBCMTD:winapisupp.obj
 0001:00079a60       ___crtCreateThreadpoolTimer 1007aa60 f   LIBCMTD:winapisupp.obj
 0001:00079aa0       ___crtCreateThreadpoolWait 1007aaa0 f   LIBCMTD:winapisupp.obj
 0001:00079ae0       ___crtFlsAlloc             1007aae0 f   LIBCMTD:winapisupp.obj
 0001:00079b10       ___crtFlsFree              1007ab10 f   LIBCMTD:winapisupp.obj
 0001:00079b50       ___crtFlsGetValue          1007ab50 f   LIBCMTD:winapisupp.obj
 0001:00079b90       ___crtFlsSetValue          1007ab90 f   LIBCMTD:winapisupp.obj
 0001:00079bd0       ___crtFlushProcessWriteBuffers 1007abd0 f   LIBCMTD:winapisupp.obj
 0001:00079c00       ___crtFreeLibraryWhenCallbackReturns 1007ac00 f   LIBCMTD:winapisupp.obj
 0001:00079c30       ___crtGetCurrentProcessorNumber 1007ac30 f   LIBCMTD:winapisupp.obj
 0001:00079c60       ___crtGetLogicalProcessorInformation 1007ac60 f   LIBCMTD:winapisupp.obj
 0001:00079ca0       ___crtGetShowWindowMode    1007aca0 f   LIBCMTD:winapisupp.obj
 0001:00079cd0       ___crtInitializeCriticalSectionEx 1007acd0 f   LIBCMTD:winapisupp.obj
 0001:00079d20       ___crtIsPackagedApp        1007ad20 f   LIBCMTD:winapisupp.obj
 0001:00079d60       ___crtLoadWinApiPointers   1007ad60 f   LIBCMTD:winapisupp.obj
 0001:0007a170       ___crtSetThreadStackGuarantee 1007b170 f   LIBCMTD:winapisupp.obj
 0001:0007a1a0       ___crtSetThreadpoolTimer   1007b1a0 f   LIBCMTD:winapisupp.obj
 0001:0007a1e0       ___crtSetThreadpoolWait    1007b1e0 f   LIBCMTD:winapisupp.obj
 0001:0007a210       ___crtSetUnhandledExceptionFilter 1007b210 f   LIBCMTD:winapisupp.obj
 0001:0007a220       ___crtTerminateProcess     1007b220 f   LIBCMTD:winapisupp.obj
 0001:0007a240       ___crtUnhandledException   1007b240 f   LIBCMTD:winapisupp.obj
 0001:0007a260       ___crtWaitForThreadpoolTimerCallbacks 1007b260 f   LIBCMTD:winapisupp.obj
 0001:0007a290       __set_abort_behavior       1007b290 f   LIBCMTD:abort.obj
 0001:0007a2c0       _abort                     1007b2c0 f   LIBCMTD:abort.obj
 0001:0007a330       _ldexp                     1007b330 f   LIBCMTD:ldexp.obj
 0001:0007a610       _wcslen                    1007b610 f   LIBCMTD:wcslen.obj
 0001:0007a650       __Getdays                  1007b650 f   LIBCMTD:strftime.obj
 0001:0007a660       __Getdays_l                1007b660 f   LIBCMTD:strftime.obj
 0001:0007a810       __Getmonths                1007b810 f   LIBCMTD:strftime.obj
 0001:0007a820       __Getmonths_l              1007b820 f   LIBCMTD:strftime.obj
 0001:0007a9d0       __Gettnames                1007b9d0 f   LIBCMTD:strftime.obj
 0001:0007a9e0       __Strftime                 1007b9e0 f   LIBCMTD:strftime.obj
 0001:0007aa10       __Strftime_l               1007ba10 f   LIBCMTD:strftime.obj
 0001:0007ade0       __strftime_l               1007bde0 f   LIBCMTD:strftime.obj
 0001:0007ae10       _strftime                  1007be10 f   LIBCMTD:strftime.obj
 0001:0007c7b0       __W_Getdays                1007d7b0 f   LIBCMTD:wcsftime.obj
 0001:0007c7c0       __W_Getdays_l              1007d7c0 f   LIBCMTD:wcsftime.obj
 0001:0007c9a0       __W_Getmonths              1007d9a0 f   LIBCMTD:wcsftime.obj
 0001:0007c9b0       __W_Getmonths_l            1007d9b0 f   LIBCMTD:wcsftime.obj
 0001:0007cb90       __W_Gettnames              1007db90 f   LIBCMTD:wcsftime.obj
 0001:0007cba0       __W_Gettnames_l            1007dba0 f   LIBCMTD:wcsftime.obj
 0001:0007d800       __Wcsftime                 1007e800 f   LIBCMTD:wcsftime.obj
 0001:0007d830       __Wcsftime_l               1007e830 f   LIBCMTD:wcsftime.obj
 0001:0007dc70       __wcsftime_l               1007ec70 f   LIBCMTD:wcsftime.obj
 0001:0007dca0       _wcsftime                  1007eca0 f   LIBCMTD:wcsftime.obj
 0001:0007dcd0       __tolower                  1007ecd0 f   LIBCMTD:tolower.obj
 0001:0007dce0       __tolower_l                1007ece0 f   LIBCMTD:tolower.obj
 0001:0007df20       _tolower                   1007ef20 f   LIBCMTD:tolower.obj
 0001:0007df70       _memchr                    1007ef70 f   LIBCMTD:memchr.obj
 0001:0007e020       __allmul                   1007f020 f   LIBCMTD:llmul.obj
 0001:0007e060       __aulldiv                  1007f060 f   LIBCMTD:ulldiv.obj
 0001:0007e280       _memcmp                    1007f280 f   LIBCMTD:memcmp.obj
 0001:0007ef80       ___crtCompareStringA       1007ff80 f   LIBCMTD:a_cmp.obj
 0001:0007efe0       _GetTableIndexFromLcid     1007ffe0 f   LIBCMTD:winapinls.obj
 0001:0007f050       _GetTableIndexFromLocaleName 10080050 f   LIBCMTD:winapinls.obj
 0001:0007f0e0       ___crtCompareStringEx      100800e0 f   LIBCMTD:winapinls.obj
 0001:0007f150       ___crtDownlevelLCIDToLocaleName 10080150 f   LIBCMTD:winapinls.obj
 0001:0007f220       ___crtDownlevelLocaleNameToLCID 10080220 f   LIBCMTD:winapinls.obj
 0001:0007f280       ___crtEnumSystemLocalesEx  10080280 f   LIBCMTD:winapinls.obj
 0001:0007f2f0       ___crtGetDateFormatEx      100802f0 f   LIBCMTD:winapinls.obj
 0001:0007f360       ___crtGetLocaleInfoEx      10080360 f   LIBCMTD:winapinls.obj
 0001:0007f3c0       ___crtGetTimeFormatEx      100803c0 f   LIBCMTD:winapinls.obj
 0001:0007f430       ___crtGetUserDefaultLocaleName 10080430 f   LIBCMTD:winapinls.obj
 0001:0007f480       ___crtIsValidLocaleName    10080480 f   LIBCMTD:winapinls.obj
 0001:0007f4c0       ___crtLCMapStringEx        100804c0 f   LIBCMTD:winapinls.obj
 0001:0007f530       ___wcsnicmp_ascii          10080530 f   LIBCMTD:winapinls.obj
 0001:0007f600       ___crtCompareStringW       10080600 f   LIBCMTD:w_cmp.obj
 0001:0007f6a0       ___crtLCMapStringW         100806a0 f   LIBCMTD:w_map.obj
 0001:0007f6e0       ?_inconsistency@@YAXXZ     100806e0 f   LIBCMTD:hooks.obj
 0001:0007f770       ?terminate@@YAXXZ          10080770 f   LIBCMTD:hooks.obj
 0001:0007f7f0       ?unexpected@@YAXXZ         100807f0 f   LIBCMTD:hooks.obj
 0001:0007f820       __initp_eh_hooks           10080820 f   LIBCMTD:hooks.obj
 0001:0007f8a0       __except_handler4          100808a0 f   LIBCMTD:chandler4.obj
 0001:0007fa60       __FF_MSGBANNER             10080a60 f   LIBCMTD:crt0msg.obj
 0001:0007fab0       __GET_RTERRMSG             10080ab0 f   LIBCMTD:crt0msg.obj
 0001:0007faf0       __NMSG_WRITE               10080af0 f   LIBCMTD:crt0msg.obj
 0001:0007feb0       ___getlocaleinfo           10080eb0 f   LIBCMTD:inithelp.obj
 0001:000801b0       __initp_misc_purevirt      100811b0 f   LIBCMTD:inithelp.obj
 0001:000801c0       ?_query_new_handler@@YAP6AHI@ZXZ 100811c0 f   LIBCMTD:handler.obj
 0001:000801e0       ?_set_new_handler@@YAP6AHI@ZH@Z 100811e0 f   LIBCMTD:handler.obj
 0001:00080220       ?_set_new_handler@@YAP6AHI@ZP6AHI@Z@Z 10081220 f   LIBCMTD:handler.obj
 0001:00080260       __callnewh                 10081260 f   LIBCMTD:handler.obj
 0001:000802a0       __initp_heap_handler       100812a0 f   LIBCMTD:handler.obj
 0001:000802b0       __CrtDefaultAllocHook      100812b0 f   LIBCMTD:dbghook.obj
 0001:000802c0       __crt_debugger_hook        100812c0 f   LIBCMTD:dbghook.obj
 0001:000802d0       ___get_flsindex            100812d0 f   LIBCMTD:tidtable.obj
 0001:000802e0       ___threadhandle            100812e0 f   LIBCMTD:tidtable.obj
 0001:000802f0       ___threadid                100812f0 f   LIBCMTD:tidtable.obj
 0001:00080300       __freefls@4                10081300 f   LIBCMTD:tidtable.obj
 0001:00080500       __freeptd                  10081500 f   LIBCMTD:tidtable.obj
 0001:00080540       __getptd                   10081540 f   LIBCMTD:tidtable.obj
 0001:00080570       __getptd_noexit            10081570 f   LIBCMTD:tidtable.obj
 0001:00080620       __initptd                  10081620 f   LIBCMTD:tidtable.obj
 0001:00080760       __mtinit                   10081760 f   LIBCMTD:tidtable.obj
 0001:00080810       __mtterm                   10081810 f   LIBCMTD:tidtable.obj
 0001:00080840       __errcode                  10081840 f   LIBCMTD:fpexcept.obj
 0001:000808b0       __except1                  100818b0 f   LIBCMTD:fpexcept.obj
 0001:000809b0       __except2                  100819b0 f   LIBCMTD:fpexcept.obj
 0001:00080b00       __handle_exc               10081b00 f   LIBCMTD:fpexcept.obj
 0001:00080e20       __handle_qnan1             10081e20 f   LIBCMTD:fpexcept.obj
 0001:00080e80       __handle_qnan2             10081e80 f   LIBCMTD:fpexcept.obj
 0001:00080ef0       __raise_exc                10081ef0 f   LIBCMTD:fpexcept.obj
 0001:00080f20       __raise_exc_ex             10081f20 f   LIBCMTD:fpexcept.obj
 0001:00081490       __raise_excf               10082490 f   LIBCMTD:fpexcept.obj
 0001:000814c0       __set_errno_from_matherr   100824c0 f   LIBCMTD:fpexcept.obj
 0001:00081500       __umatherr                 10082500 f   LIBCMTD:fpexcept.obj
 0001:000815a0       __add_exp                  100825a0 f   LIBCMTD:util.obj
 0001:000815d0       __decomp                   100825d0 f   LIBCMTD:util.obj
 0001:000816f0       __get_exp                  100826f0 f   LIBCMTD:util.obj
 0001:00081720       __set_bexp                 10082720 f   LIBCMTD:util.obj
 0001:00081750       __set_exp                  10082750 f   LIBCMTD:util.obj
 0001:00081790       __sptype                   10082790 f   LIBCMTD:util.obj
 0001:00081810       ___clrfp_sse2              10082810 f   LIBCMTD:fpctrl.obj
 0001:00081850       ___ctrlfp_sse2             10082850 f   LIBCMTD:fpctrl.obj
 0001:000818b0       ___fclrf_sse2              100828b0 f   LIBCMTD:fpctrl.obj
 0001:000818d0       ___get_fpsr_sse2           100828d0 f   LIBCMTD:fpctrl.obj
 0001:00081900       ___set_fpsr_sse2           10082900 f   LIBCMTD:fpctrl.obj
 0001:000819e0       ___set_statfp_sse2         100829e0 f   LIBCMTD:fpctrl.obj
 0001:00081a10       ___statfp_sse2             10082a10 f   LIBCMTD:fpctrl.obj
 0001:00081a40       __clrfp                    10082a40 f   LIBCMTD:fpctrl.obj
 0001:00081a60       __ctrlfp                   10082a60 f   LIBCMTD:fpctrl.obj
 0001:00081a90       __set_statfp               10082a90 f   LIBCMTD:fpctrl.obj
 0001:00081b00       __statfp                   10082b00 f   LIBCMTD:fpctrl.obj
 0001:00081b10       ___libm_error_support      10082b10 f   LIBCMTD:libm_error.obj
 0001:000826e0       ___libm_setusermatherr     100836e0 f   LIBCMTD:libm_error.obj
 0001:00082710       __sse2_mathfcns_init       10083710 f   LIBCMTD:mathfcns.obj
 0001:00082730       __set_SSE2_enable          10083730 f   LIBCMTD:mathfcns.obj
 0001:00082780       __floor_default            10083780 f   LIBCMTD:floor.obj
 0001:000828c0       __modf_default             100838c0 f   LIBCMTD:modf.obj
 0001:00082a30       ___isa_available_init      10083a30 f   LIBCMTD:cpu_disp.obj
 0001:00082c30       __VEC_memset               10083c30 f   LIBCMTD:p4_memset.obj
 0001:00082d00       _strcpy_s                  10083d00 f   LIBCMTD:strcpy_s.obj
 0001:00083000       __fileno                   10084000 f   LIBCMTD:fileno.obj
 0001:00083090       __close                    10084090 f   LIBCMTD:close.obj
 0001:000832c0       __close_nolock             100842c0 f   LIBCMTD:close.obj
 0001:000833a0       __freebuf                  100843a0 f   LIBCMTD:_freebuf.obj
 0001:00083430       __commit                   10084430 f   LIBCMTD:commit.obj
 0001:00083670       __write                    10084670 f   LIBCMTD:write.obj
 0001:000838c0       __write_nolock             100848c0 f   LIBCMTD:write.obj
 0001:00084650       __filbuf                   10085650 f   LIBCMTD:_filbuf.obj
 0001:000848c0       __ioinit                   100858c0 f   LIBCMTD:ioinit.obj
 0001:00084da0       __ioterm                   10085da0 f   LIBCMTD:ioinit.obj
 0001:00084e40       __ftelli64                 10085e40 f   LIBCMTD:ftelli64.obj
 0001:00084f50       __ftelli64_nolock          10085f50 f   LIBCMTD:ftelli64.obj
 0001:00085680       __flsbuf                   10086680 f   LIBCMTD:_flsbuf.obj
 0001:00085950       __lseeki64                 10086950 f   LIBCMTD:lseeki64.obj
 0001:00085bc0       __lseeki64_nolock          10086bc0 f   LIBCMTD:lseeki64.obj
 0001:00085c90       __vsnprintf_c              10086c90 f   LIBCMTD:vsnprnc.obj
 0001:00085ce0       __vsnprintf_c_l            10086ce0 f   LIBCMTD:vsnprnc.obj
 0001:00085d30       __vsnprintf_helper         10086d30 f   LIBCMTD:vsnprnc.obj
 0001:00085f30       __vsnprintf_s              10086f30 f   LIBCMTD:vsnprnc.obj
 0001:00085f60       __vsnprintf_s_l            10086f60 f   LIBCMTD:vsnprnc.obj
 0001:00086320       __vsprintf_p               10087320 f   LIBCMTD:vsnprnc.obj
 0001:00086370       __vsprintf_p_l             10087370 f   LIBCMTD:vsnprnc.obj
 0001:000863c0       __vsprintf_s_l             100873c0 f   LIBCMTD:vsnprnc.obj
 0001:00086650       _vsprintf_s                10087650 f   LIBCMTD:vsnprnc.obj
 0001:00086670       __output_l                 10087670 f   LIBCMTD:output.obj
 0001:00087d10       _get_int64_arg             10088d10 f i LIBCMTD:output.obj
 0001:00087d30       _get_int_arg               10088d30 f i LIBCMTD:output.obj
 0001:00087d50       _get_short_arg             10088d50 f i LIBCMTD:output.obj
 0001:00087f10       __getbuf                   10088f10 f   LIBCMTD:_getbuf.obj
 0001:00087fe0       __fcloseall                10088fe0 f   LIBCMTD:closeall.obj
 0001:00088110       _wcscpy_s                  10089110 f   LIBCMTD:wcscpy_s.obj
 0001:00088420       ___swprintf_l              10089420 f   LIBCMTD:swprintf.obj
 0001:00088450       __scwprintf                10089450 f   LIBCMTD:swprintf.obj
 0001:00088470       __scwprintf_l              10089470 f   LIBCMTD:swprintf.obj
 0001:000884a0       __scwprintf_p              100894a0 f   LIBCMTD:swprintf.obj
 0001:000884c0       __scwprintf_p_l            100894c0 f   LIBCMTD:swprintf.obj
 0001:000884f0       __snwprintf_s              100894f0 f   LIBCMTD:swprintf.obj
 0001:00088520       __snwprintf_s_l            10089520 f   LIBCMTD:swprintf.obj
 0001:00088550       __swprintf                 10089550 f   LIBCMTD:swprintf.obj
 0001:00088770       __swprintf_p               10089770 f   LIBCMTD:swprintf.obj
 0001:000887a0       __swprintf_p_l             100897a0 f   LIBCMTD:swprintf.obj
 0001:000887d0       __swprintf_s_l             100897d0 f   LIBCMTD:swprintf.obj
 0001:00088800       _swprintf_s                10089800 f   LIBCMTD:swprintf.obj
 0001:00088830       ___fpecode                 10089830 f   LIBCMTD:winsig.obj
 0001:00088840       ___get_sigabrt             10089840 f   LIBCMTD:winsig.obj
 0001:00088860       ___pxcptinfoptrs           10089860 f   LIBCMTD:winsig.obj
 0001:00088870       __initp_misc_winsig        10089870 f   LIBCMTD:winsig.obj
 0001:00088990       _raise                     10089990 f   LIBCMTD:winsig.obj
 0001:00088d00       _signal                    10089d00 f   LIBCMTD:winsig.obj
 0001:000890b0       ___crtMessageBoxW          1008a0b0 f   LIBCMTD:crtmboxw.obj
 0001:000893c0       ___crtMessageBoxWaitThreadW@4 1008a3c0 f   LIBCMTD:crtmboxw.obj
 0001:00089400       __CrtDbgBreak              1008a400 f   LIBCMTD:dbgrptt.obj
 0001:00089410       __CrtGetReportHook         1008a410 f   LIBCMTD:dbgrptt.obj
 0001:00089420       __CrtSetReportFile         1008a420 f   LIBCMTD:dbgrptt.obj
 0001:00089520       __CrtSetReportHook         1008a520 f   LIBCMTD:dbgrptt.obj
 0001:00089540       __CrtSetReportMode         1008a540 f   LIBCMTD:dbgrptt.obj
 0001:00089680       __VCrtDbgReportA           1008a680 f   LIBCMTD:dbgrptt.obj
 0001:00089ef0       __VCrtDbgReportW           1008aef0 f   LIBCMTD:dbgrptt.obj
 0001:0008a860       ___addlocaleref            1008b860 f   LIBCMTD:localref.obj
 0001:0008a980       ___freetlocinfo            1008b980 f   LIBCMTD:localref.obj
 0001:0008ac70       ___removelocaleref         1008bc70 f   LIBCMTD:localref.obj
 0001:0008ad90       ___updatetlocinfo          1008bd90 f   LIBCMTD:localref.obj
 0001:0008ae60       __updatetlocinfoEx_nolock  1008be60 f   LIBCMTD:localref.obj
 0001:0008aee0       ___initmbctable            1008bee0 f   LIBCMTD:mbctype.obj
 0001:0008b500       ___updatetmbcinfo          1008c500 f   LIBCMTD:mbctype.obj
 0001:0008b610       __getmbcp                  1008c610 f   LIBCMTD:mbctype.obj
 0001:0008b680       __setmbcp                  1008c680 f   LIBCMTD:mbctype.obj
 0001:0008b920       __setmbcp_nolock           1008c920 f   LIBCMTD:mbctype.obj
 0001:0008bca0       __chvalidator              1008cca0 f   LIBCMTD:isctype.obj
 0001:0008bcf0       __chvalidator_l            1008ccf0 f   LIBCMTD:isctype.obj
 0001:0008bdb0       __isctype                  1008cdb0 f   LIBCMTD:isctype.obj
 0001:0008bdf0       __isctype_l                1008cdf0 f   LIBCMTD:isctype.obj
 0001:0008bf40       __free_base                1008cf40 f   LIBCMTD:free.obj
 0001:0008bf90       __realloc_base             1008cf90 f   LIBCMTD:realloc.obj
 0001:0008c090       __expand_base              1008d090 f   LIBCMTD:expand.obj
 0001:0008c200       __CrtDbgReport             1008d200 f   LIBCMTD:dbgrpt.obj
 0001:0008c250       __CrtDbgReportV            1008d250 f i LIBCMTD:dbgrpt.obj
 0001:0008c280       __CrtSetReportHook2        1008d280 f   LIBCMTD:dbgrpt.obj
 0001:0008c5d0       ___crtMessageWindowA       1008d5d0 f   LIBCMTD:dbgrpt.obj
 0001:0008ca70       __heapchk                  1008da70 f   LIBCMTD:heapchk.obj
 0001:0008caa0       __heapset                  1008daa0 f   LIBCMTD:heapchk.obj
 0001:0008cab0       __heap_alloc_base          1008dab0 f i LIBCMTD:malloc.obj
 0001:0008cb10       __malloc_base              1008db10 f   LIBCMTD:malloc.obj
 0001:0008cba0       __get_heap_handle          1008dba0 f   LIBCMTD:heapinit.obj
 0001:0008cbe0       __heap_init                1008dbe0 f   LIBCMTD:heapinit.obj
 0001:0008cc10       __heap_term                1008dc10 f   LIBCMTD:heapinit.obj
 0001:0008cd70       ?_RTC_AllocaFailure@@YAXPAXPAU_RTC_ALLOCA_NODE@@H@Z 1008dd70 f   LIBCMTD:error.obj
 0001:0008cee0       ?_RTC_Failure@@YAXPAXH@Z   1008dee0 f   LIBCMTD:error.obj
 0001:0008cf30       ?_RTC_StackFailure@@YAXPAXPBD@Z 1008df30 f   LIBCMTD:error.obj
 0001:0008d290       __RTC_UninitUse            1008e290 f   LIBCMTD:error.obj
 0001:0008d390       ?_RTC_GetErrorFunc@@YAP6AHHPBDH00ZZPBX@Z 1008e390 f   LIBCMTD:userapi.obj
 0001:0008d3a0       ?_RTC_GetErrorFuncW@@YAP6AHHPB_WH00ZZPBX@Z 1008e3a0 f   LIBCMTD:userapi.obj
 0001:0008d3b0       __RTC_GetErrDesc           1008e3b0 f   LIBCMTD:userapi.obj
 0001:0008d3d0       __RTC_NumErrors            1008e3d0 f   LIBCMTD:userapi.obj
 0001:0008d3e0       __RTC_SetErrorFunc         1008e3e0 f   LIBCMTD:userapi.obj
 0001:0008d400       __RTC_SetErrorFuncW        1008e400 f   LIBCMTD:userapi.obj
 0001:0008d420       __RTC_SetErrorType         1008e420 f   LIBCMTD:userapi.obj
 0001:0008d450       __CRT_RTC_INIT             1008e450 f   LIBCMTD:chkesp.obj
 0001:0008d460       __CRT_RTC_INITW            1008e460 f   LIBCMTD:chkesp.obj
 0001:0008d470       __chkesp                   1008e470 f   LIBCMTD:chkesp.obj
 0001:0008d4b0       __CallSettingFrame@12      1008e4b0 f   LIBCMTD:lowhelpr.obj
 0001:0008d4d7       __NLG_Return               1008e4d7     LIBCMTD:lowhelpr.obj
 0001:0008d500       ?_Name_base@type_info@@CAPBDPBV1@PAU__type_info_node@@@Z 1008e500 f   LIBCMTD:typname.obj
 0001:0008d6b0       ?_Name_base_internal@type_info@@CAPBDPBV1@PAU__type_info_node@@@Z 1008e6b0 f   LIBCMTD:typname.obj
 0001:0008d870       ?_Type_info_dtor@type_info@@CAXPAV1@@Z 1008e870 f   LIBCMTD:typname.obj
 0001:0008d980       ?_Type_info_dtor_internal@type_info@@CAXPAV1@@Z 1008e980 f   LIBCMTD:typname.obj
 0001:0008da90       ___clean_type_info_names_internal 1008ea90 f   LIBCMTD:typname.obj
 0001:0008db40       ___unDNameHelper           1008eb40 f   LIBCMTD:typname.obj
 0001:0008db80       __cfltcvt                  1008eb80 f   LIBCMTD:cvt.obj
 0001:0008dbb0       __cfltcvt_l                1008ebb0 f   LIBCMTD:cvt.obj
 0001:0008dc70       __cftoa                    1008ec70 f   LIBCMTD:cvt.obj
 0001:0008dca0       __cftoa_l                  1008eca0 f   LIBCMTD:cvt.obj
 0001:0008e510       __cftoe                    1008f510 f   LIBCMTD:cvt.obj
 0001:0008e950       __cftoe_l                  1008f950 f   LIBCMTD:cvt.obj
 0001:0008eb80       __cftof                    1008fb80 f   LIBCMTD:cvt.obj
 0001:0008ee30       __cftof_l                  1008fe30 f   LIBCMTD:cvt.obj
 0001:0008f030       __cftog                    10090030 f   LIBCMTD:cvt.obj
 0001:0008f060       __cftog_l                  10090060 f   LIBCMTD:cvt.obj
 0001:0008f2f0       __cropzeros                100902f0 f   LIBCMTD:cvt.obj
 0001:0008f310       __cropzeros_l              10090310 f   LIBCMTD:cvt.obj
 0001:0008f430       __fassign                  10090430 f   LIBCMTD:cvt.obj
 0001:0008f450       __fassign_l                10090450 f   LIBCMTD:cvt.obj
 0001:0008f4a0       __forcdecpt                100904a0 f   LIBCMTD:cvt.obj
 0001:0008f4c0       __forcdecpt_l              100904c0 f   LIBCMTD:cvt.obj
 0001:0008f590       __positive                 10090590 f   LIBCMTD:cvt.obj
 0001:0008f5f0       __setdefaultprecision      100905f0 f   LIBCMTD:fp8.obj
 0001:0008f630       __initp_misc_cfltcvt_tab   10090630 f   LIBCMTD:cmiscdat.obj
 0001:0008f670       __CIcos_pentium4           10090670 f   LIBCMTD:cos_pentium4.obj
 0001:0008f688       __cos_pentium4             10090688     LIBCMTD:cos_pentium4.obj
 0001:0008f820       __trandisp1                10090820 f   LIBCMTD:87disp.obj
 0001:0008f887       __trandisp2                10090887 f   LIBCMTD:87disp.obj
 0001:0008f913       __rttospopde               10090913     LIBCMTD:87disp.obj
 0001:0008f918       __rttospop                 10090918     LIBCMTD:87disp.obj
 0001:0008f91a       __rtnospop                 1009091a     LIBCMTD:87disp.obj
 0001:0008f91c       __rttosnpop                1009091c     LIBCMTD:87disp.obj
 0001:0008f91d       __rtnospopde               1009091d     LIBCMTD:87disp.obj
 0001:0008f924       __rtzeropop                10090924     LIBCMTD:87disp.obj
 0001:0008f926       __rtzeronpop               10090926     LIBCMTD:87disp.obj
 0001:0008f92b       __rtonepop                 1009092b     LIBCMTD:87disp.obj
 0001:0008f92d       __rtonenpop                1009092d     LIBCMTD:87disp.obj
 0001:0008f932       __tosnan1                  10090932     LIBCMTD:87disp.obj
 0001:0008f95d       __nosnan2                  1009095d     LIBCMTD:87disp.obj
 0001:0008f95f       __tosnan2                  1009095f     LIBCMTD:87disp.obj
 0001:0008f987       __nan2                     10090987     LIBCMTD:87disp.obj
 0001:0008f9c6       __rtindfpop                100909c6     LIBCMTD:87disp.obj
 0001:0008f9c8       __rtindfnpop               100909c8     LIBCMTD:87disp.obj
 0001:0008f9d9       __rttosnpopde              100909d9     LIBCMTD:87disp.obj
 0001:0008f9e3       __rtchsifneg               100909e3     LIBCMTD:87disp.obj
 0001:0008f9f0       __twoToTOS                 100909f0 f   LIBCMTD:common.obj
 0001:0008fa05       __load_CW                  10090a05 f   LIBCMTD:common.obj
 0001:0008fa1c       __convertTOStoQNaN         10090a1c f   LIBCMTD:common.obj
 0001:0008fa35       __fload_withFB             10090a35 f   LIBCMTD:common.obj
 0001:0008fa78       __checkTOS_withFB          10090a78 f   LIBCMTD:common.obj
 0001:0008fa8e       __fast_exit                10090a8e f   LIBCMTD:common.obj
 0001:0008fa9b       __math_exit                10090a9b f   LIBCMTD:common.obj
 0001:0008fac5       __check_overflow_exit      10090ac5 f   LIBCMTD:common.obj
 0001:0008fad9       __check_range_exit         10090ad9 f   LIBCMTD:common.obj
 0001:0008fb80       __startTwoArgErrorHandling 10090b80 f   LIBCMTD:genexcep.obj
 0001:0008fb97       __startOneArgErrorHandling 10090b97 f   LIBCMTD:genexcep.obj
 0001:0008fbe0       __CIsin_pentium4           10090be0 f   LIBCMTD:sin_pentium4.obj
 0001:0008fbf8       __sin_pentium4             10090bf8     LIBCMTD:sin_pentium4.obj
 0001:0008fdb0       __vprintf_l                10090db0 f   LIBCMTD:vprintf.obj
 0001:0008fdd0       __vprintf_p                10090dd0 f   LIBCMTD:vprintf.obj
 0001:0008fdf0       __vprintf_p_l              10090df0 f   LIBCMTD:vprintf.obj
 0001:0008fe10       __vprintf_s_l              10090e10 f   LIBCMTD:vprintf.obj
 0001:0008fe30       _vprintf                   10090e30 f   LIBCMTD:vprintf.obj
 0001:0008fe50       _vprintf_helper            10090e50 f   LIBCMTD:vprintf.obj
 0001:0008ff90       _vprintf_s                 10090f90 f   LIBCMTD:vprintf.obj
 0001:0008ffb0       __ftbuf                    10090fb0 f   LIBCMTD:_sftbuf.obj
 0001:00090040       __stbuf                    10091040 f   LIBCMTD:_sftbuf.obj
 0001:000901b0       __vsnprintf                100911b0 f   LIBCMTD:vsnprint.obj
 0001:000901d0       __vsnprintf_l              100911d0 f   LIBCMTD:vsnprint.obj
 0001:000903cc       __fFATN2                   100913cc     LIBCMTD:87triga.obj
 0001:0009041c       __rtpiby2                  1009141c     LIBCMTD:87triga.obj
 0001:00090460       __cintrindisp2             10091460 f   LIBCMTD:87cdisp.obj
 0001:0009049e       __cintrindisp1             1009149e f   LIBCMTD:87cdisp.obj
 0001:000904db       __ctrandisp2               100914db f   LIBCMTD:87cdisp.obj
 0001:0009066a       __ctrandisp1               1009166a f   LIBCMTD:87cdisp.obj
 0001:0009069d       __fload                    1009169d f   LIBCMTD:87cdisp.obj
 0001:000906e0       __CIexp_pentium4           100916e0 f   LIBCMTD:exp_pentium4.obj
 0001:000906f8       __exp_pentium4             100916f8     LIBCMTD:exp_pentium4.obj
 0001:000909b1       __fFEXP                    100919b1     LIBCMTD:87tran.obj
 0001:00090a08       __rtinfpopse               10091a08     LIBCMTD:87tran.obj
 0001:00090a0a       __rtinfnpopse              10091a0a     LIBCMTD:87tran.obj
 0001:00090a1a       __fFLN                     10091a1a     LIBCMTD:87tran.obj
 0001:00090acf       __rtinfpop                 10091acf     LIBCMTD:87tran.obj
 0001:00090ad1       __rtinfnpop                10091ad1     LIBCMTD:87tran.obj
 0001:00090aee       __ffexpm1                  10091aee     LIBCMTD:87tran.obj
 0001:00090ba0       __CIlog_pentium4           10091ba0 f   LIBCMTD:log_pentium4.obj
 0001:00090bb8       __log_pentium4             10091bb8     LIBCMTD:log_pentium4.obj
 0001:00090e10       __getstream                10091e10 f   LIBCMTD:stream.obj
 0001:00091040       __openfile                 10092040 f   LIBCMTD:_open.obj
 0001:00091840       __local_unwind4            10092840 f   LIBCMTD:exsup4.obj
 0001:00091916       __seh_longjmp_unwind4@4    10092916 f   LIBCMTD:exsup4.obj
 0001:00091932       @_EH4_CallFilterFunc@8     10092932 f   LIBCMTD:exsup4.obj
 0001:00091949       @_EH4_TransferToHandler@8  10092949 f   LIBCMTD:exsup4.obj
 0001:00091962       @_EH4_GlobalUnwind2@8      10092962 f   LIBCMTD:exsup4.obj
 0001:0009197b       @_EH4_LocalUnwind@16       1009297b f   LIBCMTD:exsup4.obj
 0001:000919a0       __read                     100929a0 f   LIBCMTD:read.obj
 0001:00091c70       __read_nolock              10092c70 f   LIBCMTD:read.obj
 0001:00092eb0       __ceil_default             10093eb0 f   LIBCMTD:ceil.obj
 0001:00092ff0       __fFSINH                   10093ff0     LIBCMTD:87trigh.obj
 0001:00093042       __fFCOSH                   10094042     LIBCMTD:87trigh.obj
 0001:000930f0       __vfprintf_l               100940f0 f   LIBCMTD:vfprintf.obj
 0001:00093120       __vfprintf_p               10094120 f   LIBCMTD:vfprintf.obj
 0001:00093140       __vfprintf_p_l             10094140 f   LIBCMTD:vfprintf.obj
 0001:00093170       __vfprintf_s_l             10094170 f   LIBCMTD:vfprintf.obj
 0001:000931a0       _vfprintf                  100941a0 f   LIBCMTD:vfprintf.obj
 0001:000931c0       _vfprintf_helper           100941c0 f   LIBCMTD:vfprintf.obj
 0001:00093490       _vfprintf_s                10094490 f   LIBCMTD:vfprintf.obj
 0001:000934b0       __INTRN_LOCALE_CONV        100944b0 f i LIBCMTD:input.obj
 0001:00093670       __input_l                  10094670 f   LIBCMTD:input.obj
 0001:00095550       __input_s_l                10096550 f   LIBCMTD:inputs.obj
 0001:00097710       __CIacos_pentium4          10098710 f   LIBCMTD:acos_pentium4.obj
 0001:00097728       __acos_pentium4            10098728     LIBCMTD:acos_pentium4.obj
 0001:00097c70       __CItan_pentium4           10098c70 f   LIBCMTD:tan_pentium4.obj
 0001:00097c88       __tan_pentium4             10098c88     LIBCMTD:tan_pentium4.obj
 0001:00097ed0       __CIasin_pentium4          10098ed0 f   LIBCMTD:asin_pentium4.obj
 0001:00097ee8       __asin_pentium4            10098ee8     LIBCMTD:asin_pentium4.obj
 0001:00098450       __CIatan_pentium4          10099450 f   LIBCMTD:atan_pentium4.obj
 0001:00098468       __atan_pentium4            10099468     LIBCMTD:atan_pentium4.obj
 0001:00098740       __XcptFilter               10099740 f   LIBCMTD:winxfltr.obj
 0001:00098940       ___CppXcptFilter           10099940 f   LIBCMTD:winxfltr.obj
 0001:000989d0       __set_pgmptr               100999d0 f i LIBCMTD:stdargv.obj
 0001:000989e0       __setargv                  100999e0 f   LIBCMTD:stdargv.obj
 0001:00098eb0       __setenvp                  10099eb0 f   LIBCMTD:stdenvp.obj
 0001:00099050       ___security_init_cookie    1009a050 f   LIBCMTD:gs_support.obj
 0001:00099130       _DllMain@12                1009a130 f   LIBCMTD:dllmain.obj
 0001:00099140       ___crtGetEnvironmentStringsA 1009a140 f   LIBCMTD:a_env.obj
 0001:00099240       __RTC_Initialize           1009a240 f   LIBCMTD:initsect.obj
 0001:00099270       __RTC_Terminate            1009a270 f   LIBCMTD:initsect.obj
 0001:000992a0       __FindPESection            1009a2a0 f   LIBCMTD:pesect.obj
 0001:00099320       __IsNonwritableInCurrentImage 1009a320 f   LIBCMTD:pesect.obj
 0001:00099450       __ValidateImageBase        1009a450 f   LIBCMTD:pesect.obj
 0001:000994b0       __initp_misc_rand_s        1009a4b0 f   LIBCMTD:rand_s.obj
 0001:000994c0       _rand_s                    1009a4c0 f   LIBCMTD:rand_s.obj
 0001:00099730       __output_p_l               1009a730 f   LIBCMTD:outputp.obj
 0001:0009d520       __validate_param_reuseA    1009e520 f   LIBCMTD:outputp.obj
 0001:0009d810       _get_crtdouble_arg         1009e810 f i LIBCMTD:outputp.obj
 0001:0009d9d0       ?_ValidateExecute@@YAHP6GHXZ@Z 1009e9d0 f   LIBCMTD:validate.obj
 0001:0009d9f0       ?_ValidateRead@@YAHPBXI@Z  1009e9f0 f   LIBCMTD:validate.obj
 0001:0009da10       ?_ValidateWrite@@YAHPAXI@Z 1009ea10 f   LIBCMTD:validate.obj
 0001:0009da30       ___init_dummy              1009ea30 f   LIBCMTD:wsetloca.obj
 0001:0009da40       __locterm                  1009ea40 f   LIBCMTD:wsetloca.obj
 0001:0009dad0       ____setlc_active_func      1009ead0 f   LIBCMTD:wsetloca.obj
 0001:0009dae0       ____unguarded_readlc_active_add_func 1009eae0 f   LIBCMTD:wsetloca.obj
 0001:0009daf0       ___copy_locale_name        1009eaf0 f   LIBCMTD:wsetloca.obj
 0001:0009db90       ___create_locale           1009eb90 f   LIBCMTD:wsetloca.obj
 0001:0009dbb0       ___free_locale             1009ebb0 f   LIBCMTD:wsetloca.obj
 0001:0009dbd0       ___get_current_locale      1009ebd0 f   LIBCMTD:wsetloca.obj
 0001:0009dbe0       ___lc_lctowcs              1009ebe0 f   LIBCMTD:wsetloca.obj
 0001:0009dc90       ___lc_wcstolc              1009ec90 f   LIBCMTD:wsetloca.obj
 0001:0009deb0       __configthreadlocale       1009eeb0 f   LIBCMTD:wsetloca.obj
 0001:0009e010       __create_locale            1009f010 f   LIBCMTD:wsetloca.obj
 0001:0009e080       __expandlocale             1009f080 f   LIBCMTD:wsetloca.obj
 0001:0009e570       __free_locale              1009f570 f   LIBCMTD:wsetloca.obj
 0001:0009e6a0       __get_current_locale       1009f6a0 f   LIBCMTD:wsetloca.obj
 0001:0009e7c0       __wcreate_locale           1009f7c0 f   LIBCMTD:wsetloca.obj
 0001:0009e9a0       __wcscats                  1009f9a0 f   LIBCMTD:wsetloca.obj
 0001:0009ea20       __wsetlocale               1009fa20 f   LIBCMTD:wsetloca.obj
 0001:0009fbc0       ___crtGetStringTypeA       100a0bc0 f   LIBCMTD:a_str.obj
 0001:0009fc10       __mbstowcs_l               100a0c10 f   LIBCMTD:mbstowcs.obj
 0001:0009fc30       __mbstowcs_l_helper        100a0c30 f   LIBCMTD:mbstowcs.obj
 0001:0009ffc0       __mbstowcs_s_l             100a0fc0 f   LIBCMTD:mbstowcs.obj
 0001:000a0380       _mbstowcs                  100a1380 f   LIBCMTD:mbstowcs.obj
 0001:000a03d0       _mbstowcs_s                100a13d0 f   LIBCMTD:mbstowcs.obj
 0001:000a0460       __wcstombs_l               100a1460 f   LIBCMTD:wcstombs.obj
 0001:000a0480       __wcstombs_l_helper        100a1480 f   LIBCMTD:wcstombs.obj
 0001:000a0990       __wcstombs_s_l             100a1990 f   LIBCMTD:wcstombs.obj
 0001:000a0cf0       _wcstombs                  100a1cf0 f   LIBCMTD:wcstombs.obj
 0001:000a0d10       _wcstombs_s                100a1d10 f   LIBCMTD:wcstombs.obj
 0001:000a0d40       __ftell_nolock             100a1d40 f   LIBCMTD:ftell.obj
 0001:000a1400       _ftell                     100a2400 f   LIBCMTD:ftell.obj
 0001:000a1500       __lseek                    100a2500 f   LIBCMTD:lseek.obj
 0001:000a1750       __lseek_nolock             100a2750 f   LIBCMTD:lseek.obj
 0001:000a1830       __wopenfile                100a2830 f   LIBCMTD:_wopen.obj
 0001:000a2030       __chgsign                  100a3030 f   LIBCMTD:ieeemisc.obj
 0001:000a2070       __copysign                 100a3070 f   LIBCMTD:ieeemisc.obj
 0001:000a20a0       __finite                   100a30a0 f   LIBCMTD:ieeemisc.obj
 0001:000a20c0       __fpclass                  100a30c0 f   LIBCMTD:ieeemisc.obj
 0001:000a21b0       __isnan                    100a31b0 f   LIBCMTD:ieeemisc.obj
 0001:000a21f0       __logb                     100a31f0 f   LIBCMTD:ieeemisc.obj
 0001:000a2320       __nextafter                100a3320 f   LIBCMTD:ieeemisc.obj
 0001:000a2640       __scalb                    100a3640 f   LIBCMTD:ieeemisc.obj
 0001:000a2660       __wcsicmp                  100a3660 f   LIBCMTD:wcsicmp.obj
 0001:000a2830       __wcsicmp_l                100a3830 f   LIBCMTD:wcsicmp.obj
 0001:000a2aa0       ___tzset                   100a3aa0 f   LIBCMTD:tzset.obj
 0001:000a2b30       __isindst                  100a3b30 f   LIBCMTD:tzset.obj
 0001:000a2f00       __set_daylight             100a3f00 f i LIBCMTD:tzset.obj
 0001:000a2f10       __set_dstbias              100a3f10 f i LIBCMTD:tzset.obj
 0001:000a2f20       __set_timezone             100a3f20 f i LIBCMTD:tzset.obj
 0001:000a2f30       __tzset                    100a3f30 f   LIBCMTD:tzset.obj
 0001:000a3830       ___daylight                100a4830 f   LIBCMTD:timeset.obj
 0001:000a3840       ___dstbias                 100a4840 f   LIBCMTD:timeset.obj
 0001:000a3850       ___timezone                100a4850 f   LIBCMTD:timeset.obj
 0001:000a3860       ___tzname                  100a4860 f   LIBCMTD:timeset.obj
 0001:000a3870       __get_daylight             100a4870 f   LIBCMTD:timeset.obj
 0001:000a3900       __get_dstbias              100a4900 f   LIBCMTD:timeset.obj
 0001:000a3990       __get_timezone             100a4990 f   LIBCMTD:timeset.obj
 0001:000a3a20       __get_tzname               100a4a20 f   LIBCMTD:timeset.obj
 0001:000a3c20       ___iswcsym                 100a4c20 f i LIBCMTD:_wctype.obj
 0001:000a3c60       ___iswcsymf                100a4c60 f i LIBCMTD:_wctype.obj
 0001:000a3ca0       __isleadbyte_l             100a4ca0 f i LIBCMTD:_wctype.obj
 0001:000a3cf0       __iswalnum_l               100a4cf0 f i LIBCMTD:_wctype.obj
 0001:000a3d10       __iswalpha_l               100a4d10 f i LIBCMTD:_wctype.obj
 0001:000a3d30       __iswcntrl_l               100a4d30 f i LIBCMTD:_wctype.obj
 0001:000a3d50       __iswcsym_l                100a4d50 f i LIBCMTD:_wctype.obj
 0001:000a3d90       __iswcsymf_l               100a4d90 f i LIBCMTD:_wctype.obj
 0001:000a3dd0       __iswdigit_l               100a4dd0 f i LIBCMTD:_wctype.obj
 0001:000a3df0       __iswgraph_l               100a4df0 f i LIBCMTD:_wctype.obj
 0001:000a3e10       __iswlower_l               100a4e10 f i LIBCMTD:_wctype.obj
 0001:000a3e30       __iswprint_l               100a4e30 f i LIBCMTD:_wctype.obj
 0001:000a3e50       __iswpunct_l               100a4e50 f i LIBCMTD:_wctype.obj
 0001:000a3e70       __iswspace_l               100a4e70 f i LIBCMTD:_wctype.obj
 0001:000a3e90       __iswupper_l               100a4e90 f i LIBCMTD:_wctype.obj
 0001:000a3eb0       __iswxdigit_l              100a4eb0 f i LIBCMTD:_wctype.obj
 0001:000a3ed0       _isleadbyte                100a4ed0 f i LIBCMTD:_wctype.obj
 0001:000a3ef0       _iswalnum                  100a4ef0 f i LIBCMTD:_wctype.obj
 0001:000a3f10       _iswalpha                  100a4f10 f i LIBCMTD:_wctype.obj
 0001:000a3f30       _iswascii                  100a4f30 f i LIBCMTD:_wctype.obj
 0001:000a3f60       _iswcntrl                  100a4f60 f i LIBCMTD:_wctype.obj
 0001:000a3f80       _iswdigit                  100a4f80 f i LIBCMTD:_wctype.obj
 0001:000a3fa0       _iswgraph                  100a4fa0 f i LIBCMTD:_wctype.obj
 0001:000a3fc0       _iswlower                  100a4fc0 f i LIBCMTD:_wctype.obj
 0001:000a3fe0       _iswprint                  100a4fe0 f i LIBCMTD:_wctype.obj
 0001:000a4000       _iswpunct                  100a5000 f i LIBCMTD:_wctype.obj
 0001:000a4020       _iswspace                  100a5020 f i LIBCMTD:_wctype.obj
 0001:000a4040       _iswupper                  100a5040 f i LIBCMTD:_wctype.obj
 0001:000a4060       _iswxdigit                 100a5060 f i LIBCMTD:_wctype.obj
 0001:000a4080       _wcsnlen                   100a5080 f   LIBCMTD:wcslen_s.obj
 0001:000a40c0       _wcscat_s                  100a50c0 f   LIBCMTD:wcscat_s.obj
 0001:000a44d0       _wcsncpy_s                 100a54d0 f   LIBCMTD:wcsncpy_s.obj
 0001:000a4900       ___set_app_type            100a5900 f   LIBCMTD:errmode.obj
 0001:000a4910       __set_error_mode           100a5910 f   LIBCMTD:errmode.obj
 0001:000a49d0       _strncpy_s                 100a59d0 f   LIBCMTD:strncpy_s.obj
 0001:000a4f00       ___crtGetLocaleInfoA       100a5f00 f   LIBCMTD:a_loc.obj
 0001:000a4f50       __matherr                  100a5f50 f   LIBCMTD:matherr.obj
 0001:000a4f60       __frnd                     100a5f60 f   LIBCMTD:frnd.obj
 0001:000a4f80       ___lock_fhandle            100a5f80 f   LIBCMTD:osfinfo.obj
 0001:000a5070       __alloc_osfhnd             100a6070 f   LIBCMTD:osfinfo.obj
 0001:000a5310       __free_osfhnd              100a6310 f   LIBCMTD:osfinfo.obj
 0001:000a5400       __get_osfhandle            100a6400 f   LIBCMTD:osfinfo.obj
 0001:000a5580       __open_osfhandle           100a6580 f   LIBCMTD:osfinfo.obj
 0001:000a57b0       __set_osfhnd               100a67b0 f   LIBCMTD:osfinfo.obj
 0001:000a5880       __unlock_fhandle           100a6880 f   LIBCMTD:osfinfo.obj
 0001:000a58b0       __isatty                   100a68b0 f   LIBCMTD:isatty.obj
 0001:000a5970       __mbtowc_l                 100a6970 f   LIBCMTD:mbtowc.obj
 0001:000a5bb0       _mbtowc                    100a6bb0 f   LIBCMTD:mbtowc.obj
 0001:000a5bd0       __putwch                   100a6bd0 f   LIBCMTD:putwch.obj
 0001:000a5c60       __putwch_nolock            100a6c60 f   LIBCMTD:putwch.obj
 0001:000a5cb0       __output_s_l               100a6cb0 f   LIBCMTD:outputs.obj
 0001:000a7650       __wctomb_l                 100a8650 f   LIBCMTD:wctomb.obj
 0001:000a76d0       __wctomb_s_l               100a86d0 f   LIBCMTD:wctomb.obj
 0001:000a7a20       _wctomb                    100a8a20 f   LIBCMTD:wctomb.obj
 0001:000a7a70       _wctomb_s                  100a8a70 f   LIBCMTD:wctomb.obj
 0001:000a7a90       __aullrem                  100a8a90 f   LIBCMTD:ullrem.obj
 0001:000a7b10       ___vswprintf_l             100a8b10 f   LIBCMTD:vswprint.obj
 0001:000a7b30       __vscwprintf               100a8b30 f   LIBCMTD:vswprint.obj
 0001:000a7b50       __vscwprintf_helper        100a8b50 f   LIBCMTD:vswprint.obj
 0001:000a7c40       __vscwprintf_l             100a8c40 f   LIBCMTD:vswprint.obj
 0001:000a7c60       __vscwprintf_p             100a8c60 f   LIBCMTD:vswprint.obj
 0001:000a7c80       __vscwprintf_p_l           100a8c80 f   LIBCMTD:vswprint.obj
 0001:000a7ca0       __vswprintf                100a8ca0 f   LIBCMTD:vswprint.obj
 0001:000a7cc0       __vswprintf_l              100a8cc0 f   LIBCMTD:vswprint.obj
 0001:000a7ee0       __vsnwprintf_s             100a8ee0 f   LIBCMTD:vswprnc.obj
 0001:000a7f10       __vsnwprintf_s_l           100a8f10 f   LIBCMTD:vswprnc.obj
 0001:000a82f0       __vswprintf_c              100a92f0 f   LIBCMTD:vswprnc.obj
 0001:000a8340       __vswprintf_c_l            100a9340 f   LIBCMTD:vswprnc.obj
 0001:000a8390       __vswprintf_helper         100a9390 f   LIBCMTD:vswprnc.obj
 0001:000a8600       __vswprintf_p              100a9600 f   LIBCMTD:vswprnc.obj
 0001:000a8650       __vswprintf_p_l            100a9650 f   LIBCMTD:vswprnc.obj
 0001:000a86a0       __vswprintf_s_l            100a96a0 f   LIBCMTD:vswprnc.obj
 0001:000a8930       _vswprintf_s               100a9930 f   LIBCMTD:vswprnc.obj
 0001:000a8950       __woutput_l                100a9950 f   LIBCMTD:woutput.obj
 0001:000a9f30       _strcat_s                  100aaf30 f   LIBCMTD:strcat_s.obj
 0001:000aa760       __i64toa_s                 100ab760 f   LIBCMTD:xtoas.obj
 0001:000aa7b0       __itoa_s                   100ab7b0 f   LIBCMTD:xtoas.obj
 0001:000aa810       __ltoa_s                   100ab810 f   LIBCMTD:xtoas.obj
 0001:000aa850       __ui64toa_s                100ab850 f   LIBCMTD:xtoas.obj
 0001:000aa870       __ultoa_s                  100ab870 f   LIBCMTD:xtoas.obj
 0001:000ab0b0       __i64tow_s                 100ac0b0 f   LIBCMTD:xtows.obj
 0001:000ab100       __itow_s                   100ac100 f   LIBCMTD:xtows.obj
 0001:000ab160       __ltow_s                   100ac160 f   LIBCMTD:xtows.obj
 0001:000ab1a0       __ui64tow_s                100ac1a0 f   LIBCMTD:xtows.obj
 0001:000ab1c0       __ultow_s                  100ac1c0 f   LIBCMTD:xtows.obj
 0001:000ab5e0       ___free_lconv_mon          100ac5e0 f   LIBCMTD:initmon.obj
 0001:000ab790       ___init_monetary           100ac790 f   LIBCMTD:initmon.obj
 0001:000abda0       ___free_lconv_num          100acda0 f   LIBCMTD:initnum.obj
 0001:000abe50       ___init_numeric            100ace50 f   LIBCMTD:initnum.obj
 0001:000ac220       ___free_lc_time            100ad220 f   LIBCMTD:inittime.obj
 0001:000acb50       ___init_time               100adb50 f   LIBCMTD:inittime.obj
 0001:000adf80       ?_RTC_GetSrcLine@@YAHPAEPA_WKPAH1K@Z 100aef80 f   LIBCMTD:pdblkup.obj
 0001:000ae230       __global_unwind2           100af230 f   LIBCMTD:exsup.obj
 0001:000ae295       __local_unwind2            100af295 f   LIBCMTD:exsup.obj
 0001:000ae319       __abnormal_termination     100af319 f   LIBCMTD:exsup.obj
 0001:000ae33c       __NLG_Notify1              100af33c f   LIBCMTD:exsup.obj
 0001:000ae345       __NLG_Notify               100af345 f   LIBCMTD:exsup.obj
 0001:000ae35c       __NLG_Dispatch2            100af35c     LIBCMTD:exsup.obj
 0001:000ae35c       __NLG_Dispatch             100af35c     LIBCMTD:exsup.obj
 0001:000ae364       __NLG_Call                 100af364 f   LIBCMTD:exsup.obj
 0001:000ae366       __NLG_Return2              100af366     LIBCMTD:exsup.obj
 0001:000ae370       ??0Block@_HeapManager@@QAE@XZ 100af370 f i LIBCMTD:undname.obj
 0001:000ae390       ??0DName@@QAE@AAPBDD@Z     100af390 f   LIBCMTD:undname.obj
 0001:000ae650       ??0DName@@QAE@ABV0@@Z      100af650 f i LIBCMTD:undname.obj
 0001:000ae670       ??0DName@@QAE@D@Z          100af670 f   LIBCMTD:undname.obj
 0001:000ae750       ??0DName@@QAE@PAV0@@Z      100af750 f   LIBCMTD:undname.obj
 0001:000ae890       ??0DName@@QAE@PBD@Z        100af890 f   LIBCMTD:undname.obj
 0001:000ae980       ??0DName@@QAE@W4DNameStatus@@@Z 100af980 f   LIBCMTD:undname.obj
 0001:000aeaa0       ??0DName@@QAE@XZ           100afaa0 f i LIBCMTD:undname.obj
 0001:000aeb60       ??0DName@@QAE@_J@Z         100afb60 f   LIBCMTD:undname.obj
 0001:000aece0       ??0DName@@QAE@_K@Z         100afce0 f   LIBCMTD:undname.obj
 0001:000aee20       ??0DNameNode@@IAE@XZ       100afe20 f   LIBCMTD:undname.obj
 0001:000aee40       ??0DNameStatusNode@@AAE@W4DNameStatus@@@Z 100afe40 f   LIBCMTD:undname.obj
 0001:000aee90       ??0Replicator@@QAE@XZ      100afe90 f i LIBCMTD:undname.obj
 0001:000aeeb0       ??0UnDecorator@@QAE@PADPBDHP6APADJ@ZK@Z 100afeb0 f i LIBCMTD:undname.obj
 0001:000aef50       ??0charNode@@QAE@D@Z       100aff50 f   LIBCMTD:undname.obj
 0001:000aef80       ??0pDNameNode@@QAE@PAVDName@@@Z 100aff80 f   LIBCMTD:undname.obj
 0001:000aefe0       ??0pairNode@@QAE@PAVDNameNode@@0@Z 100affe0 f   LIBCMTD:undname.obj
 0001:000af020       ??0pcharNode@@QAE@PBDH@Z   100b0020 f   LIBCMTD:undname.obj
 0001:000af0c0       ??2@YAPAXIAAV_HeapManager@@H@Z 100b00c0 f i LIBCMTD:undname.obj
 0001:000af0e0       ??4DName@@QAEAAV0@ABV0@@Z  100b00e0 f   LIBCMTD:undname.obj
 0001:000af100       ??4DName@@QAEAAV0@D@Z      100b0100 f i LIBCMTD:undname.obj
 0001:000af1e0       ??4DName@@QAEAAV0@PAV0@@Z  100b01e0 f   LIBCMTD:undname.obj
 0001:000af310       ??4DName@@QAEAAV0@PBD@Z    100b0310 f   LIBCMTD:undname.obj
 0001:000af3f0       ??4DName@@QAEAAV0@W4DNameStatus@@@Z 100b03f0 f   LIBCMTD:undname.obj
 0001:000af4f0       ??AReplicator@@QBE?AVDName@@H@Z 100b04f0 f   LIBCMTD:undname.obj
 0001:000af560       ??BUnDecorator@@QAEPADXZ   100b0560 f i LIBCMTD:undname.obj
 0001:000af7f0       ??H@YA?AVDName@@DABV0@@Z   100b07f0 f i LIBCMTD:undname.obj
 0001:000af820       ??H@YA?AVDName@@PBDABV0@@Z 100b0820 f i LIBCMTD:undname.obj
 0001:000af850       ??H@YA?AVDName@@W4DNameStatus@@ABV0@@Z 100b0850 f i LIBCMTD:undname.obj
 0001:000af880       ??HDName@@QBE?AV0@ABV0@@Z  100b0880 f   LIBCMTD:undname.obj
 0001:000af8c0       ??HDName@@QBE?AV0@D@Z      100b08c0 f   LIBCMTD:undname.obj
 0001:000af900       ??HDName@@QBE?AV0@PAV0@@Z  100b0900 f   LIBCMTD:undname.obj
 0001:000af940       ??HDName@@QBE?AV0@PBD@Z    100b0940 f   LIBCMTD:undname.obj
 0001:000af980       ??HDName@@QBE?AV0@W4DNameStatus@@@Z 100b0980 f   LIBCMTD:undname.obj
 0001:000af9c0       ??YDName@@QAEAAV0@ABV0@@Z  100b09c0 f   LIBCMTD:undname.obj
 0001:000afa30       ??YDName@@QAEAAV0@D@Z      100b0a30 f   LIBCMTD:undname.obj
 0001:000afab0       ??YDName@@QAEAAV0@PAV0@@Z  100b0ab0 f   LIBCMTD:undname.obj
 0001:000afb60       ??YDName@@QAEAAV0@PBD@Z    100b0b60 f   LIBCMTD:undname.obj
 0001:000afc00       ??YDName@@QAEAAV0@W4DNameStatus@@@Z 100b0c00 f   LIBCMTD:undname.obj
 0001:000afc60       ??YReplicator@@QAEAAV0@ABVDName@@@Z 100b0c60 f   LIBCMTD:undname.obj
 0001:000afcf0       ??_5DName@@QAEAAV0@ABV0@@Z 100b0cf0 f   LIBCMTD:undname.obj
 0001:000afd50       ?Constructor@_HeapManager@@QAEXP6APAXI@ZP6AXPAX@Z@Z 100b0d50 f i LIBCMTD:undname.obj
 0001:000afd90       ?Destructor@_HeapManager@@QAEXXZ 100b0d90 f i LIBCMTD:undname.obj
 0001:000afde0       ?UScore@UnDecorator@@SAPBDW4Tokens@@@Z 100b0de0 f   LIBCMTD:undname.obj
 0001:000afe10       ?append@DName@@AAEXPAVDNameNode@@@Z 100b0e10 f   LIBCMTD:undname.obj
 0001:000afea0       ?composeDeclaration@UnDecorator@@CA?AVDName@@ABV2@@Z 100b0ea0 f i LIBCMTD:undname.obj
 0001:000b1b20       ?dbGetString@DName@@QBEPADXZ 100b2b20 f   LIBCMTD:undname.obj
 0001:000b1b40       ?doAccessSpecifiers@UnDecorator@@SAHXZ 100b2b40 f i LIBCMTD:undname.obj
 0001:000b1b70       ?doAllocationLanguage@UnDecorator@@SAHXZ 100b2b70 f i LIBCMTD:undname.obj
 0001:000b1ba0       ?doAllocationModel@UnDecorator@@SAHXZ 100b2ba0 f i LIBCMTD:undname.obj
 0001:000b1bd0       ?doEcsu@UnDecorator@@SAHXZ 100b2bd0 f i LIBCMTD:undname.obj
 0001:000b1c00       ?doEllipsis@UnDecorator@@SAHXZ 100b2c00 f i LIBCMTD:undname.obj
 0001:000b1c30       ?doFunctionReturns@UnDecorator@@SAHXZ 100b2c30 f i LIBCMTD:undname.obj
 0001:000b1c60       ?doMSKeywords@UnDecorator@@SAHXZ 100b2c60 f i LIBCMTD:undname.obj
 0001:000b1c90       ?doMemberTypes@UnDecorator@@SAHXZ 100b2c90 f i LIBCMTD:undname.obj
 0001:000b1cc0       ?doNameOnly@UnDecorator@@SAHXZ 100b2cc0 f i LIBCMTD:undname.obj
 0001:000b1cd0       ?doNoIdentCharCheck@UnDecorator@@SAHXZ 100b2cd0 f i LIBCMTD:undname.obj
 0001:000b1ce0       ?doPchar@DName@@AAEXPBDH@Z 100b2ce0 f   LIBCMTD:undname.obj
 0001:000b1e20       ?doPtr64@UnDecorator@@SAHXZ 100b2e20 f i LIBCMTD:undname.obj
 0001:000b1e50       ?doRestrictionSpec@UnDecorator@@SAHXZ 100b2e50 f i LIBCMTD:undname.obj
 0001:000b1e80       ?doThisTypes@UnDecorator@@SAHXZ 100b2e80 f i LIBCMTD:undname.obj
 0001:000b1eb0       ?doThrowTypes@UnDecorator@@SAHXZ 100b2eb0 f i LIBCMTD:undname.obj
 0001:000b1ee0       ?doTypeOnly@UnDecorator@@SAHXZ 100b2ee0 f i LIBCMTD:undname.obj
 0001:000b1ef0       ?doUnderScore@UnDecorator@@SAHXZ 100b2ef0 f i LIBCMTD:undname.obj
 0001:000b1f20       ?getArgumentList@UnDecorator@@CA?AVDName@@XZ 100b2f20 f   LIBCMTD:undname.obj
 0001:000b2070       ?getArgumentTypes@UnDecorator@@CA?AVDName@@XZ 100b3070 f   LIBCMTD:undname.obj
 0001:000b21d0       ?getArrayType@UnDecorator@@CA?AVDName@@ABV2@@Z 100b31d0 f i LIBCMTD:undname.obj
 0001:000b2410       ?getBasedType@UnDecorator@@CA?AVDName@@XZ 100b3410 f   LIBCMTD:undname.obj
 0001:000b24d0       ?getBasicDataType@UnDecorator@@CA?AVDName@@ABV2@@Z 100b34d0 f   LIBCMTD:undname.obj
 0001:000b2a90       ?getCallIndex@UnDecorator@@CA?AVDName@@XZ 100b3a90 f i LIBCMTD:undname.obj
 0001:000b2ab0       ?getCallingConvention@UnDecorator@@CA?AVDName@@XZ 100b3ab0 f   LIBCMTD:undname.obj
 0001:000b2c20       ?getDataIndirectType@UnDecorator@@CA?AVDName@@ABV2@PBD0H@Z 100b3c20 f   LIBCMTD:undname.obj
 0001:000b3330       ?getDataIndirectType@UnDecorator@@CA?AVDName@@XZ 100b4330 f i LIBCMTD:undname.obj
 0001:000b3370       ?getDataType@UnDecorator@@CA?AVDName@@PAV2@@Z 100b4370 f   LIBCMTD:undname.obj
 0001:000b3490       ?getDecoratedName@UnDecorator@@CA?AVDName@@XZ 100b4490 f   LIBCMTD:undname.obj
 0001:000b37c0       ?getDimension@UnDecorator@@CA?AVDName@@_N@Z 100b47c0 f   LIBCMTD:undname.obj
 0001:000b3a70       ?getDispatchTarget@UnDecorator@@CA?AVDName@@XZ 100b4a70 f   LIBCMTD:undname.obj
 0001:000b3b10       ?getDisplacement@UnDecorator@@CA?AVDName@@XZ 100b4b10 f i LIBCMTD:undname.obj
 0001:000b3b30       ?getECSUDataType@UnDecorator@@CA?AVDName@@XZ 100b4b30 f   LIBCMTD:undname.obj
 0001:000b3d00       ?getECSUName@UnDecorator@@CA?AVDName@@XZ 100b4d00 f i LIBCMTD:undname.obj
 0001:000b3d20       ?getEnumType@UnDecorator@@CA?AVDName@@XZ 100b4d20 f i LIBCMTD:undname.obj
 0001:000b3e70       ?getExtendedDataIndirectType@UnDecorator@@CA?AVDName@@AAPBDAA_NH@Z 100b4e70 f   LIBCMTD:undname.obj
 0001:000b40c0       ?getExternalDataType@UnDecorator@@CA?AVDName@@ABV2@@Z 100b50c0 f i LIBCMTD:undname.obj
 0001:000b4150       ?getFunctionIndirectType@UnDecorator@@CA?AVDName@@ABV2@@Z 100b5150 f   LIBCMTD:undname.obj
 0001:000b45c0       ?getGuardNumber@UnDecorator@@CA?AVDName@@XZ 100b55c0 f i LIBCMTD:undname.obj
 0001:000b45e0       ?getLastChar@DName@@QBEDXZ 100b55e0 f i LIBCMTD:undname.obj
 0001:000b4610       ?getLastChar@DNameStatusNode@@UBEDXZ 100b5610 f i LIBCMTD:undname.obj
 0001:000b4640       ?getLastChar@charNode@@UBEDXZ 100b5640 f i LIBCMTD:undname.obj
 0001:000b4660       ?getLastChar@pDNameNode@@UBEDXZ 100b5660 f i LIBCMTD:undname.obj
 0001:000b4690       ?getLastChar@pairNode@@UBEDXZ 100b5690 f i LIBCMTD:undname.obj
 0001:000b46e0       ?getLastChar@pcharNode@@UBEDXZ 100b56e0 f i LIBCMTD:undname.obj
 0001:000b4720       ?getLexicalFrame@UnDecorator@@CA?AVDName@@XZ 100b5720 f i LIBCMTD:undname.obj
 0001:000b4760       ?getMemory@_HeapManager@@QAEPAXIH@Z 100b5760 f   LIBCMTD:undname.obj
 0001:000b4870       ?getNumberOfDimensions@UnDecorator@@CAHXZ 100b5870 f   LIBCMTD:undname.obj
 0001:000b4970       ?getOperatorName@UnDecorator@@CA?AVDName@@_NPA_N@Z 100b5970 f i LIBCMTD:undname.obj
 0001:000b5300       ?getPointerType@UnDecorator@@CA?AVDName@@ABV2@0@Z 100b6300 f i LIBCMTD:undname.obj
 0001:000b5330       ?getPointerTypeArray@UnDecorator@@CA?AVDName@@ABV2@0@Z 100b6330 f i LIBCMTD:undname.obj
 0001:000b5360       ?getPrimaryDataType@UnDecorator@@CA?AVDName@@ABV2@@Z 100b6360 f   LIBCMTD:undname.obj
 0001:000b5700       ?getPtrRefDataType@UnDecorator@@CA?AVDName@@ABV2@H@Z 100b6700 f i LIBCMTD:undname.obj
 0001:000b5840       ?getPtrRefType@UnDecorator@@CA?AVDName@@ABV2@0PBD@Z 100b6840 f   LIBCMTD:undname.obj
 0001:000b59b0       ?getReferenceType@UnDecorator@@CA?AVDName@@ABV2@0PBD@Z 100b69b0 f i LIBCMTD:undname.obj
 0001:000b59d0       ?getRestrictionSpec@UnDecorator@@CA?AVDName@@XZ 100b69d0 f   LIBCMTD:undname.obj
 0001:000b5b20       ?getReturnType@UnDecorator@@CA?AVDName@@PAV2@@Z 100b6b20 f   LIBCMTD:undname.obj
 0001:000b5b70       ?getScope@UnDecorator@@CA?AVDName@@XZ 100b6b70 f   LIBCMTD:undname.obj
 0001:000b6060       ?getScopedName@UnDecorator@@CA?AVDName@@XZ 100b7060 f   LIBCMTD:undname.obj
 0001:000b6180       ?getSignedDimension@UnDecorator@@CA?AVDName@@XZ 100b7180 f   LIBCMTD:undname.obj
 0001:000b6200       ?getStorageConvention@UnDecorator@@CA?AVDName@@XZ 100b7200 f i LIBCMTD:undname.obj
 0001:000b6220       ?getString@DName@@QBEPADPAD0@Z 100b7220 f i LIBCMTD:undname.obj
 0001:000b6260       ?getString@DName@@QBEPADPADH@Z 100b7260 f i LIBCMTD:undname.obj
 0001:000b62f0       ?getString@DNameStatusNode@@UBEPADPAD0@Z 100b72f0 f i LIBCMTD:undname.obj
 0001:000b6330       ?getString@charNode@@UBEPADPAD0@Z 100b7330 f i LIBCMTD:undname.obj
 0001:000b6360       ?getString@pDNameNode@@UBEPADPAD0@Z 100b7360 f i LIBCMTD:undname.obj
 0001:000b63a0       ?getString@pairNode@@UBEPADPAD0@Z 100b73a0 f i LIBCMTD:undname.obj
 0001:000b6400       ?getString@pcharNode@@UBEPADPAD0@Z 100b7400 f i LIBCMTD:undname.obj
 0001:000b6430       ?getStringEncoding@UnDecorator@@CA?AVDName@@PADH@Z 100b7430 f   LIBCMTD:undname.obj
 0001:000b6540       ?getStringHelper@@YAPADPAD00H@Z 100b7540 f i LIBCMTD:undname.obj
 0001:000b6580       ?getSymbolName@UnDecorator@@CA?AVDName@@XZ 100b7580 f i LIBCMTD:undname.obj
 0001:000b6610       ?getTemplateArgumentList@UnDecorator@@CA?AVDName@@XZ 100b7610 f   LIBCMTD:undname.obj
 0001:000b6890       ?getTemplateConstant@UnDecorator@@CA?AVDName@@XZ 100b7890 f   LIBCMTD:undname.obj
 0001:000b6d60       ?getTemplateName@UnDecorator@@CA?AVDName@@_N@Z 100b7d60 f   LIBCMTD:undname.obj
 0001:000b6f30       ?getThisType@UnDecorator@@CA?AVDName@@XZ 100b7f30 f i LIBCMTD:undname.obj
 0001:000b6f70       ?getThrowTypes@UnDecorator@@CA?AVDName@@XZ 100b7f70 f   LIBCMTD:undname.obj
 0001:000b7020       ?getTypeEncoding@UnDecorator@@CAHXZ 100b8020 f i LIBCMTD:undname.obj
 0001:000b7a60       ?getVCallThunkType@UnDecorator@@CA?AVDName@@XZ 100b8a60 f i LIBCMTD:undname.obj
 0001:000b7ac0       ?getVbTableType@UnDecorator@@CA?AVDName@@ABV2@@Z 100b8ac0 f i LIBCMTD:undname.obj
 0001:000b7ae0       ?getVdispMapType@UnDecorator@@CA?AVDName@@ABV2@@Z 100b8ae0 f i LIBCMTD:undname.obj
 0001:000b7b50       ?getVfTableType@UnDecorator@@CA?AVDName@@ABV2@@Z 100b8b50 f i LIBCMTD:undname.obj
 0001:000b7d10       ?getZName@UnDecorator@@CA?AVDName@@_N0@Z 100b8d10 f   LIBCMTD:undname.obj
 0001:000b7fc0       ?haveTemplateParameters@UnDecorator@@SAHXZ 100b8fc0 f i LIBCMTD:undname.obj
 0001:000b7fd0       ?isArray@DName@@QBEHXZ     100b8fd0 f i LIBCMTD:undname.obj
 0001:000b7ff0       ?isComArray@DName@@QBEHXZ  100b8ff0 f i LIBCMTD:undname.obj
 0001:000b8010       ?isEmpty@DName@@QBEHXZ     100b9010 f i LIBCMTD:undname.obj
 0001:000b8040       ?isFull@Replicator@@QBEHXZ 100b9040 f i LIBCMTD:undname.obj
 0001:000b8070       ?isNoTE@DName@@QBEHXZ      100b9070 f i LIBCMTD:undname.obj
 0001:000b8090       ?isPinPtr@DName@@QBEHXZ    100b9090 f i LIBCMTD:undname.obj
 0001:000b80b0       ?isPtrRef@DName@@QBEHXZ    100b90b0 f i LIBCMTD:undname.obj
 0001:000b80d0       ?isUDC@DName@@QBEHXZ       100b90d0 f i LIBCMTD:undname.obj
 0001:000b8110       ?isUDTThunk@DName@@QBEHXZ  100b9110 f i LIBCMTD:undname.obj
 0001:000b8150       ?isVCallThunk@DName@@QBEHXZ 100b9150 f i LIBCMTD:undname.obj
 0001:000b8170       ?isValid@DName@@QBEHXZ     100b9170 f i LIBCMTD:undname.obj
 0001:000b81b0       ?length@DName@@QBEHXZ      100b91b0 f i LIBCMTD:undname.obj
 0001:000b81e0       ?length@DNameStatusNode@@UBEHXZ 100b91e0 f i LIBCMTD:undname.obj
 0001:000b8200       ?length@charNode@@UBEHXZ   100b9200 f i LIBCMTD:undname.obj
 0001:000b8210       ?length@pDNameNode@@UBEHXZ 100b9210 f i LIBCMTD:undname.obj
 0001:000b8240       ?length@pairNode@@UBEHXZ   100b9240 f i LIBCMTD:undname.obj
 0001:000b8290       ?length@pcharNode@@UBEHXZ  100b9290 f i LIBCMTD:undname.obj
 0001:000b82b0       ?make@DNameStatusNode@@SAPAV1@W4DNameStatus@@@Z 100b92b0 f i LIBCMTD:undname.obj
 0001:000b8360       ?setIsArray@DName@@QAEXXZ  100b9360 f i LIBCMTD:undname.obj
 0001:000b8380       ?setIsComArray@DName@@QAEXXZ 100b9380 f i LIBCMTD:undname.obj
 0001:000b83a0       ?setIsNoTE@DName@@QAEXXZ   100b93a0 f i LIBCMTD:undname.obj
 0001:000b83c0       ?setIsPinPtr@DName@@QAEXXZ 100b93c0 f i LIBCMTD:undname.obj
 0001:000b83e0       ?setIsUDC@DName@@QAEXXZ    100b93e0 f i LIBCMTD:undname.obj
 0001:000b8410       ?setIsVCallThunk@DName@@QAEXXZ 100b9410 f i LIBCMTD:undname.obj
 0001:000b8430       ?setPtrRef@DName@@QAEAAV1@XZ 100b9430 f i LIBCMTD:undname.obj
 0001:000b8450       ?status@DName@@QBE?AW4DNameStatus@@XZ 100b9450 f i LIBCMTD:undname.obj
 0001:000b8550       ___unDName                 100b9550 f   LIBCMTD:undname.obj
 0001:000b8620       ___unDNameEx               100b9620 f   LIBCMTD:undname.obj
 0001:000b8700       __fptostr                  100b9700 f   LIBCMTD:_fptostr.obj
 0001:000b8a20       __atodbl                   100b9a20 f   LIBCMTD:atodbl.obj
 0001:000b8a40       __atodbl_l                 100b9a40 f   LIBCMTD:atodbl.obj
 0001:000b8b40       __atoflt                   100b9b40 f   LIBCMTD:atodbl.obj
 0001:000b8b60       __atoflt_l                 100b9b60 f   LIBCMTD:atodbl.obj
 0001:000b8c60       __atoldbl                  100b9c60 f   LIBCMTD:atodbl.obj
 0001:000b8c80       __atoldbl_l                100b9c80 f   LIBCMTD:atodbl.obj
 0001:000b8d80       ___dtold                   100b9d80 f   LIBCMTD:cfout.obj
 0001:000b8ee0       __fltout2                  100b9ee0 f   LIBCMTD:cfout.obj
 0001:000b8f90       __alldiv                   100b9f90 f   LIBCMTD:lldiv.obj
 0001:000b9040       __allrem                   100ba040 f   LIBCMTD:llrem.obj
 0001:000b9100       __allshl                   100ba100 f   LIBCMTD:llshl.obj
 0001:000b9120       __aullshr                  100ba120 f   LIBCMTD:ullshr.obj
 0001:000b9140       __get_output_format        100ba140 f   LIBCMTD:outputformat.obj
 0001:000b9150       __set_output_format        100ba150 f   LIBCMTD:outputformat.obj
 0001:000b91f0       __controlfp_s              100ba1f0 f   LIBCMTD:contrlfp.obj
 0001:000b92e0       __fptrap                   100ba2e0 f   LIBCMTD:crt0fp.obj
 0001:000b92f0       __87except                 100ba2f0 f   LIBCMTD:87except.obj
 0001:000b94f0       __d_inttype                100ba4f0 f   LIBCMTD:powhlp.obj
 0001:000b9580       __powhlp                   100ba580 f   LIBCMTD:powhlp.obj
 0001:000b9730       __open                     100ba730 f   LIBCMTD:open.obj
 0001:000b98c0       __sopen                    100ba8c0 f   LIBCMTD:open.obj
 0001:000b9930       __sopen_helper             100ba930 f   LIBCMTD:open.obj
 0001:000b9bc0       __sopen_nolock             100babc0 f   LIBCMTD:open.obj
 0001:000b9c30       __sopen_s                  100bac30 f   LIBCMTD:open.obj
 0001:000b9c60       __mbsnbcmp                 100bac60 f   LIBCMTD:mbsnbcmp.obj
 0001:000b9c80       __mbsnbcmp_l               100bac80 f   LIBCMTD:mbsnbcmp.obj
 0001:000b9fa0       __mbsnbicmp                100bafa0 f   LIBCMTD:mbsnbicm.obj
 0001:000b9fc0       __mbsnbicmp_l              100bafc0 f   LIBCMTD:mbsnbicm.obj
 0001:000baa00       __strtol_l                 100bba00 f   LIBCMTD:strtol.obj
 0001:000baa20       __strtoul_l                100bba20 f   LIBCMTD:strtol.obj
 0001:000baa40       _strtol                    100bba40 f   LIBCMTD:strtol.obj
 0001:000baa90       _strtoul                   100bba90 f   LIBCMTD:strtol.obj
 0001:000baae0       ___init_collate            100bbae0 f   LIBCMTD:initcoll.obj
 0001:000baaf0       _wcscmp                    100bbaf0 f   LIBCMTD:wcscmp.obj
 0001:000bab50       _wcscspn                   100bbb50 f   LIBCMTD:wcscspn.obj
 0001:000babc0       _wcsncmp                   100bbbc0 f   LIBCMTD:wcsncmp.obj
 0001:000bac20       _wcspbrk                   100bbc20 f   LIBCMTD:wcspbrk.obj
 0001:000bb7c0       ___get_qualified_locale    100bc7c0 f   LIBCMTD:getqloc.obj
 0001:000bc7a0       ___get_qualified_locale_downlevel 100bd7a0 f   LIBCMTD:getqloc_downlevel.obj
 0001:000bcb20       __wopen                    100bdb20 f   LIBCMTD:wopen.obj
 0001:000bccb0       __wsopen                   100bdcb0 f   LIBCMTD:wopen.obj
 0001:000bcd20       __wsopen_helper            100bdd20 f   LIBCMTD:wopen.obj
 0001:000bcfb0       __wsopen_nolock            100bdfb0 f   LIBCMTD:wopen.obj
 0001:000be020       __wsopen_s                 100bf020 f   LIBCMTD:wopen.obj
 0001:000be050       __wcsnicmp                 100bf050 f   LIBCMTD:wcsnicmp.obj
 0001:000be240       __wcsnicmp_l               100bf240 f   LIBCMTD:wcsnicmp.obj
 0001:000be4a0       __towlower_l               100bf4a0 f   LIBCMTD:towlower.obj
 0001:000be5f0       _towlower                  100bf5f0 f   LIBCMTD:towlower.obj
 0001:000be610       __atoi64                   100bf610 f   LIBCMTD:atox.obj
 0001:000be630       __atoi64_l                 100bf630 f   LIBCMTD:atox.obj
 0001:000be650       __atoi_l                   100bf650 f   LIBCMTD:atox.obj
 0001:000be670       __atol_l                   100bf670 f   LIBCMTD:atox.obj
 0001:000be690       _atoi                      100bf690 f   LIBCMTD:atox.obj
 0001:000be6b0       _atol                      100bf6b0 f   LIBCMTD:atox.obj
 0001:000be6d0       __dupenv_s                 100bf6d0 f   LIBCMTD:getenv.obj
 0001:000be6f0       __dupenv_s_dbg             100bf6f0 f   LIBCMTD:getenv.obj
 0001:000be970       __getenv_helper_nolock     100bf970 f   LIBCMTD:getenv.obj
 0001:000bec40       _getenv                    100bfc40 f   LIBCMTD:getenv.obj
 0001:000bedc0       _getenv_s                  100bfdc0 f   LIBCMTD:getenv.obj
 0001:000bee50       __iswctype_l               100bfe50 f   LIBCMTD:iswctype.obj
 0001:000bee70       _is_wctype                 100bfe70 f   LIBCMTD:iswctype.obj
 0001:000bee90       _iswctype                  100bfe90 f   LIBCMTD:iswctype.obj
 0001:000beef0       ___termconout              100bfef0 f   LIBCMTD:initcon.obj
 0001:000bef20       ___initconout              100bff20 f   LIBCMTD:initcon.obj
 0001:000bef50       __validate_param_reuseW    100bff50 f   LIBCMTD:woutputp.obj
 0001:000bf230       __woutput_p_l              100c0230 f   LIBCMTD:woutputp.obj
 0001:000c2d20       __woutput_s_l              100c3d20 f   LIBCMTD:woutputs.obj
 0001:000c4460       __fputwc_nolock            100c5460 f   LIBCMTD:fputwc.obj
 0001:000c4750       _fputwc                    100c5750 f   LIBCMTD:fputwc.obj
 0001:000c4860       _putwc                     100c5860 f   LIBCMTD:fputwc.obj
 0001:000c4880       __wmakepath_s              100c5880 f   LIBCMTD:wmakepath_s.obj
 0001:000c4c40       __wsplitpath_s             100c5c40 f   LIBCMTD:wsplitpath_s.obj
 0001:000c5280       __CopyMan                  100c6280 f i LIBCMTD:intrncvt.obj
 0001:000c52d0       __FillZeroMan              100c62d0 f i LIBCMTD:intrncvt.obj
 0001:000c5300       __IncMan                   100c6300 f i LIBCMTD:intrncvt.obj
 0001:000c53b0       __IsZeroMan                100c63b0 f i LIBCMTD:intrncvt.obj
 0001:000c53f0       __RoundMan                 100c63f0 f i LIBCMTD:intrncvt.obj
 0001:000c54d0       __ShrMan                   100c64d0 f i LIBCMTD:intrncvt.obj
 0001:000c55c0       __ZeroTail                 100c65c0 f i LIBCMTD:intrncvt.obj
 0001:000c5650       ___addl                    100c6650 f i LIBCMTD:intrncvt.obj
 0001:000c5690       __ld12cvt                  100c6690 f i LIBCMTD:intrncvt.obj
 0001:000c5950       __ld12tod                  100c6950 f   LIBCMTD:intrncvt.obj
 0001:000c5970       __ld12tof                  100c6970 f   LIBCMTD:intrncvt.obj
 0001:000c5990       __ld12told                 100c6990 f   LIBCMTD:intrncvt.obj
 0001:000c5a90       ___STRINGTOLD_L            100c6a90 f   LIBCMTD:strgtold.obj
 0001:000c5b00       ___ld12mul                 100c6b00 f i LIBCMTD:strgtold.obj
 0001:000c5f10       ___multtenpow12            100c6f10 f i LIBCMTD:strgtold.obj
 0001:000c5ff0       ___shl_12                  100c6ff0 f i LIBCMTD:strgtold.obj
 0001:000c6070       ___shr_12                  100c7070 f i LIBCMTD:strgtold.obj
 0001:000c60f0       ___strgtold12_l            100c70f0 f   LIBCMTD:strgtold.obj
 0001:000c6bc0       _$I10_OUTPUT               100c7bc0 f   LIBCMTD:x10fout.obj
 0001:000c71d0       ___add_12                  100c81d0 f i LIBCMTD:x10fout.obj
 0001:000c7480       ___control87_2             100c8480 f   LIBCMTD:ieee87.obj
 0001:000c7920       __clearfp                  100c8920 f   LIBCMTD:ieee87.obj
 0001:000c7960       __control87                100c8960 f i LIBCMTD:ieee87.obj
 0001:000c7a10       __controlfp                100c8a10 f   LIBCMTD:ieee87.obj
 0001:000c7a30       __fpreset                  100c8a30 f   LIBCMTD:ieee87.obj
 0001:000c7bf0       __set_controlfp            100c8bf0 f   LIBCMTD:ieee87.obj
 0001:000c7c80       __statusfp                 100c8c80 f   LIBCMTD:ieee87.obj
 0001:000c7cc0       __statusfp2                100c8cc0 f   LIBCMTD:ieee87.obj
 0001:000c7d00       __strnicmp                 100c8d00 f   LIBCMTD:strnicmp.obj
 0001:000c7ed0       __strnicmp_l               100c8ed0 f   LIBCMTD:strnicmp.obj
 0001:000c8160       __wtoi                     100c9160 f   LIBCMTD:wtox.obj
 0001:000c8180       __wtoi64                   100c9180 f   LIBCMTD:wtox.obj
 0001:000c81a0       __wtoi64_l                 100c91a0 f   LIBCMTD:wtox.obj
 0001:000c81c0       __wtoi_l                   100c91c0 f   LIBCMTD:wtox.obj
 0001:000c81e0       __wtol                     100c91e0 f   LIBCMTD:wtox.obj
 0001:000c8200       __wtol_l                   100c9200 f   LIBCMTD:wtox.obj
 0001:000c8220       _wcschr                    100c9220 f   LIBCMTD:wcschr.obj
 0001:000c83a0       __chsize                   100c93a0 f   LIBCMTD:chsize.obj
 0001:000c83e0       __chsize_nolock            100c93e0 f   LIBCMTD:chsize.obj
 0001:000c8690       __chsize_s                 100c9690 f   LIBCMTD:chsize.obj
 0001:000c8950       __get_fmode                100c9950 f   LIBCMTD:setmode.obj
 0001:000c89f0       __set_fmode                100c99f0 f   LIBCMTD:setmode.obj
 0001:000c8aa0       __setmode                  100c9aa0 f   LIBCMTD:setmode.obj
 0001:000c8d60       __setmode_nolock           100c9d60 f   LIBCMTD:setmode.obj
 0001:000c9500       __strtoi64                 100ca500 f   LIBCMTD:strtoq.obj
 0001:000c9550       __strtoi64_l               100ca550 f   LIBCMTD:strtoq.obj
 0001:000c9570       __strtoui64                100ca570 f   LIBCMTD:strtoq.obj
 0001:000c95c0       __strtoui64_l              100ca5c0 f   LIBCMTD:strtoq.obj
 0001:000c95e0       _strnlen                   100ca5e0 f   LIBCMTD:strlen_s.obj
 0001:000c9620       ___wtomb_environ           100ca620 f   LIBCMTD:wtombenv.obj
 0001:000c9710       __mbsnbicoll               100ca710 f   LIBCMTD:mbsnbico.obj
 0001:000c9730       __mbsnbicoll_l             100ca730 f   LIBCMTD:mbsnbico.obj
 0001:000c9d70       __wcstol_l                 100cad70 f   LIBCMTD:wcstol.obj
 0001:000c9d90       __wcstoul_l                100cad90 f   LIBCMTD:wcstol.obj
 0001:000c9db0       _wcstol                    100cadb0 f   LIBCMTD:wcstol.obj
 0001:000c9dd0       _wcstoul                   100cadd0 f   LIBCMTD:wcstol.obj
 0001:000c9df0       __flswbuf                  100cadf0 f   LIBCMTD:_flswbuf.obj
 0001:000ca0e0       ___mtold12                 100cb0e0 f   LIBCMTD:mantold.obj
 0001:000ca230       ___ascii_strnicmp          100cb230 f   LIBCMTD:_strnicm.obj
 0001:000ca7f0       __wcstoi64                 100cb7f0 f   LIBCMTD:wcstoq.obj
 0001:000ca840       __wcstoi64_l               100cb840 f   LIBCMTD:wcstoq.obj
 0001:000ca860       __wcstoui64                100cb860 f   LIBCMTD:wcstoq.obj
 0001:000ca8b0       __wcstoui64_l              100cb8b0 f   LIBCMTD:wcstoq.obj
 0001:000ca8d0       ___crtsetenv               100cb8d0 f   LIBCMTD:setenv.obj
 0001:000cafa0       __strnicoll                100cbfa0 f   LIBCMTD:strnicol.obj
 0001:000cafe0       __strnicoll_l              100cbfe0 f   LIBCMTD:strnicol.obj
 0001:000cb290       __wchartodigit             100cc290 f   LIBCMTD:wchtodig.obj
 0001:000cb5b0       __mbschr                   100cc5b0 f   LIBCMTD:mbschr.obj
 0001:000cb5d0       __mbschr_l                 100cc5d0 f   LIBCMTD:mbschr.obj
 0001:000cb76a       _InterlockedIncrement@4    100cc76a f   kernel32:KERNEL32.dll
 0001:000cb770       _InterlockedDecrement@4    100cc770 f   kernel32:KERNEL32.dll
 0001:000cb776       _WideCharToMultiByte@32    100cc776 f   kernel32:KERNEL32.dll
 0001:000cb77c       _EnterCriticalSection@4    100cc77c f   kernel32:KERNEL32.dll
 0001:000cb782       _LeaveCriticalSection@4    100cc782 f   kernel32:KERNEL32.dll
 0001:000cb788       _DeleteCriticalSection@4   100cc788 f   kernel32:KERNEL32.dll
 0001:000cb78e       _Sleep@4                   100cc78e f   kernel32:KERNEL32.dll
 0001:000cb794       _InterlockedExchange@8     100cc794 f   kernel32:KERNEL32.dll
 0001:000cb79a       _EncodePointer@4           100cc79a f   kernel32:KERNEL32.dll
 0001:000cb7a0       _DecodePointer@4           100cc7a0 f   kernel32:KERNEL32.dll
 0001:000cb7a6       _MultiByteToWideChar@24    100cc7a6 f   kernel32:KERNEL32.dll
 0001:000cb7ac       _GetStringTypeW@16         100cc7ac f   kernel32:KERNEL32.dll
 0001:000cb7b2       _IsDebuggerPresent@0       100cc7b2 f   kernel32:KERNEL32.dll
 0001:000cb7b8       _IsProcessorFeaturePresent@4 100cc7b8 f   kernel32:KERNEL32.dll
 0001:000cb7be       _GetModuleFileNameW@12     100cc7be f   kernel32:KERNEL32.dll
 0001:000cb7c4       _GetModuleHandleExW@12     100cc7c4 f   kernel32:KERNEL32.dll
 0001:000cb7ca       _HeapValidate@12           100cc7ca f   kernel32:KERNEL32.dll
 0001:000cb7d0       _GetSystemInfo@4           100cc7d0 f   kernel32:KERNEL32.dll
 0001:000cb7d6       _GetSystemTimeAsFileTime@4 100cc7d6 f   kernel32:KERNEL32.dll
 0001:000cb7dc       _RaiseException@16         100cc7dc f   kernel32:KERNEL32.dll
 0001:000cb7e2       _RtlUnwind@16              100cc7e2 f   kernel32:KERNEL32.dll
 0001:000cb7e8       _GetCommandLineA@0         100cc7e8 f   kernel32:KERNEL32.dll
 0001:000cb7ee       _GetCurrentThreadId@0      100cc7ee f   kernel32:KERNEL32.dll
 0001:000cb7f4       _GetLastError@0            100cc7f4 f   kernel32:KERNEL32.dll
 0001:000cb7fa       _ExitProcess@4             100cc7fa f   kernel32:KERNEL32.dll
 0001:000cb800       _GetProcAddress@8          100cc800 f   kernel32:KERNEL32.dll
 0001:000cb806       _AreFileApisANSI@0         100cc806 f   kernel32:KERNEL32.dll
 0001:000cb80c       _InitializeCriticalSectionAndSpinCount@8 100cc80c f   kernel32:KERNEL32.dll
 0001:000cb812       _FatalAppExitA@8           100cc812 f   kernel32:KERNEL32.dll
 0001:000cb818       _GetCPInfo@8               100cc818 f   kernel32:KERNEL32.dll
 0001:000cb81e       _UnhandledExceptionFilter@4 100cc81e f   kernel32:KERNEL32.dll
 0001:000cb824       _SetUnhandledExceptionFilter@4 100cc824 f   kernel32:KERNEL32.dll
 0001:000cb82a       _SetLastError@4            100cc82a f   kernel32:KERNEL32.dll
 0001:000cb830       _GetCurrentProcess@0       100cc830 f   kernel32:KERNEL32.dll
 0001:000cb836       _TerminateProcess@8        100cc836 f   kernel32:KERNEL32.dll
 0001:000cb83c       _TlsAlloc@0                100cc83c f   kernel32:KERNEL32.dll
 0001:000cb842       _TlsGetValue@4             100cc842 f   kernel32:KERNEL32.dll
 0001:000cb848       _TlsSetValue@8             100cc848 f   kernel32:KERNEL32.dll
 0001:000cb84e       _TlsFree@4                 100cc84e f   kernel32:KERNEL32.dll
 0001:000cb854       _GetStartupInfoW@4         100cc854 f   kernel32:KERNEL32.dll
 0001:000cb85a       _GetModuleHandleW@4        100cc85a f   kernel32:KERNEL32.dll
 0001:000cb860       _CreateSemaphoreW@16       100cc860 f   kernel32:KERNEL32.dll
 0001:000cb866       _GetDateFormatW@24         100cc866 f   kernel32:KERNEL32.dll
 0001:000cb86c       _GetTimeFormatW@24         100cc86c f   kernel32:KERNEL32.dll
 0001:000cb872       _CompareStringW@24         100cc872 f   kernel32:KERNEL32.dll
 0001:000cb878       _LCMapStringW@24           100cc878 f   kernel32:KERNEL32.dll
 0001:000cb87e       _GetLocaleInfoW@16         100cc87e f   kernel32:KERNEL32.dll
 0001:000cb884       _IsValidLocale@8           100cc884 f   kernel32:KERNEL32.dll
 0001:000cb88a       _GetUserDefaultLCID@0      100cc88a f   kernel32:KERNEL32.dll
 0001:000cb890       _EnumSystemLocalesW@8      100cc890 f   kernel32:KERNEL32.dll
 0001:000cb896       _GetStdHandle@4            100cc896 f   kernel32:KERNEL32.dll
 0001:000cb89c       _WriteFile@20              100cc89c f   kernel32:KERNEL32.dll
 0001:000cb8a2       _GetCurrentThread@0        100cc8a2 f   kernel32:KERNEL32.dll
 0001:000cb8a8       _CloseHandle@4             100cc8a8 f   kernel32:KERNEL32.dll
 0001:000cb8ae       _FlushFileBuffers@4        100cc8ae f   kernel32:KERNEL32.dll
 0001:000cb8b4       _GetConsoleCP@0            100cc8b4 f   kernel32:KERNEL32.dll
 0001:000cb8ba       _GetConsoleMode@8          100cc8ba f   kernel32:KERNEL32.dll
 0001:000cb8c0       _GetFileType@4             100cc8c0 f   kernel32:KERNEL32.dll
 0001:000cb8c6       _ReadFile@20               100cc8c6 f   kernel32:KERNEL32.dll
 0001:000cb8cc       _SetFilePointerEx@20       100cc8cc f   kernel32:KERNEL32.dll
 0001:000cb8d2       _SetConsoleCtrlHandler@8   100cc8d2 f   kernel32:KERNEL32.dll
 0001:000cb8d8       _OutputDebugStringW@4      100cc8d8 f   kernel32:KERNEL32.dll
 0001:000cb8de       _WaitForSingleObjectEx@12  100cc8de f   kernel32:KERNEL32.dll
 0001:000cb8e4       _CreateThread@24           100cc8e4 f   kernel32:KERNEL32.dll
 0001:000cb8ea       _LoadLibraryExW@12         100cc8ea f   kernel32:KERNEL32.dll
 0001:000cb8f0       _LoadLibraryW@4            100cc8f0 f   kernel32:KERNEL32.dll
 0001:000cb8f6       _OutputDebugStringA@4      100cc8f6 f   kernel32:KERNEL32.dll
 0001:000cb8fc       _WriteConsoleW@20          100cc8fc f   kernel32:KERNEL32.dll
 0001:000cb902       _IsValidCodePage@4         100cc902 f   kernel32:KERNEL32.dll
 0001:000cb908       _GetACP@0                  100cc908 f   kernel32:KERNEL32.dll
 0001:000cb90e       _GetOEMCP@0                100cc90e f   kernel32:KERNEL32.dll
 0001:000cb914       _HeapFree@12               100cc914 f   kernel32:KERNEL32.dll
 0001:000cb91a       _HeapReAlloc@16            100cc91a f   kernel32:KERNEL32.dll
 0001:000cb920       _HeapSize@12               100cc920 f   kernel32:KERNEL32.dll
 0001:000cb926       _HeapQueryInformation@20   100cc926 f   kernel32:KERNEL32.dll
 0001:000cb92c       _GetModuleFileNameA@12     100cc92c f   kernel32:KERNEL32.dll
 0001:000cb932       _HeapAlloc@12              100cc932 f   kernel32:KERNEL32.dll
 0001:000cb938       _GetProcessHeap@0          100cc938 f   kernel32:KERNEL32.dll
 0001:000cb93e       _lstrlenA@4                100cc93e f   kernel32:KERNEL32.dll
 0001:000cb944       _ReadConsoleW@20           100cc944 f   kernel32:KERNEL32.dll
 0001:000cb94a       _GetCurrentProcessId@0     100cc94a f   kernel32:KERNEL32.dll
 0001:000cb950       _GetEnvironmentStringsW@0  100cc950 f   kernel32:KERNEL32.dll
 0001:000cb956       _FreeEnvironmentStringsW@4 100cc956 f   kernel32:KERNEL32.dll
 0001:000cb95c       _FreeLibrary@4             100cc95c f   kernel32:KERNEL32.dll
 0001:000cb962       _SetFilePointer@16         100cc962 f   kernel32:KERNEL32.dll
 0001:000cb968       _GetTimeZoneInformation@4  100cc968 f   kernel32:KERNEL32.dll
 0001:000cb96e       _SetStdHandle@8            100cc96e f   kernel32:KERNEL32.dll
 0001:000cb974       _VirtualQuery@12           100cc974 f   kernel32:KERNEL32.dll
 0001:000cb97a       _CreateFileW@28            100cc97a f   kernel32:KERNEL32.dll
 0001:000cb980       _SetEndOfFile@4            100cc980 f   kernel32:KERNEL32.dll
 0001:000cb986       _SetEnvironmentVariableA@8 100cc986 f   kernel32:KERNEL32.dll
 0002:00000000       __imp__TlsFree@4           100d4000     kernel32:KERNEL32.dll
 0002:00000004       __imp__SetEndOfFile@4      100d4004     kernel32:KERNEL32.dll
 0002:00000008       __imp__CreateFileW@28      100d4008     kernel32:KERNEL32.dll
 0002:0000000c       __imp__VirtualQuery@12     100d400c     kernel32:KERNEL32.dll
 0002:00000010       __imp__SetStdHandle@8      100d4010     kernel32:KERNEL32.dll
 0002:00000014       __imp__GetTimeZoneInformation@4 100d4014     kernel32:KERNEL32.dll
 0002:00000018       __imp__SetFilePointer@16   100d4018     kernel32:KERNEL32.dll
 0002:0000001c       __imp__FreeLibrary@4       100d401c     kernel32:KERNEL32.dll
 0002:00000020       __imp__FreeEnvironmentStringsW@4 100d4020     kernel32:KERNEL32.dll
 0002:00000024       __imp__GetEnvironmentStringsW@0 100d4024     kernel32:KERNEL32.dll
 0002:00000028       __imp__GetCurrentProcessId@0 100d4028     kernel32:KERNEL32.dll
 0002:0000002c       __imp__ReadConsoleW@20     100d402c     kernel32:KERNEL32.dll
 0002:00000030       __imp__QueryPerformanceCounter@4 100d4030     kernel32:KERNEL32.dll
 0002:00000034       __imp__QueryPerformanceFrequency@4 100d4034     kernel32:KERNEL32.dll
 0002:00000038       __imp__InterlockedIncrement@4 100d4038     kernel32:KERNEL32.dll
 0002:0000003c       __imp__InterlockedDecrement@4 100d403c     kernel32:KERNEL32.dll
 0002:00000040       __imp__WideCharToMultiByte@32 100d4040     kernel32:KERNEL32.dll
 0002:00000044       __imp__EnterCriticalSection@4 100d4044     kernel32:KERNEL32.dll
 0002:00000048       __imp__LeaveCriticalSection@4 100d4048     kernel32:KERNEL32.dll
 0002:0000004c       __imp__DeleteCriticalSection@4 100d404c     kernel32:KERNEL32.dll
 0002:00000050       __imp__Sleep@4             100d4050     kernel32:KERNEL32.dll
 0002:00000054       __imp__InterlockedExchange@8 100d4054     kernel32:KERNEL32.dll
 0002:00000058       __imp__EncodePointer@4     100d4058     kernel32:KERNEL32.dll
 0002:0000005c       __imp__DecodePointer@4     100d405c     kernel32:KERNEL32.dll
 0002:00000060       __imp__MultiByteToWideChar@24 100d4060     kernel32:KERNEL32.dll
 0002:00000064       __imp__GetStringTypeW@16   100d4064     kernel32:KERNEL32.dll
 0002:00000068       __imp__IsDebuggerPresent@0 100d4068     kernel32:KERNEL32.dll
 0002:0000006c       __imp__IsProcessorFeaturePresent@4 100d406c     kernel32:KERNEL32.dll
 0002:00000070       __imp__GetModuleFileNameW@12 100d4070     kernel32:KERNEL32.dll
 0002:00000074       __imp__GetModuleHandleExW@12 100d4074     kernel32:KERNEL32.dll
 0002:00000078       __imp__HeapValidate@12     100d4078     kernel32:KERNEL32.dll
 0002:0000007c       __imp__GetSystemInfo@4     100d407c     kernel32:KERNEL32.dll
 0002:00000080       __imp__GetSystemTimeAsFileTime@4 100d4080     kernel32:KERNEL32.dll
 0002:00000084       __imp__RaiseException@16   100d4084     kernel32:KERNEL32.dll
 0002:00000088       __imp__RtlUnwind@16        100d4088     kernel32:KERNEL32.dll
 0002:0000008c       __imp__GetCommandLineA@0   100d408c     kernel32:KERNEL32.dll
 0002:00000090       __imp__GetCurrentThreadId@0 100d4090     kernel32:KERNEL32.dll
 0002:00000094       __imp__GetLastError@0      100d4094     kernel32:KERNEL32.dll
 0002:00000098       __imp__ExitProcess@4       100d4098     kernel32:KERNEL32.dll
 0002:0000009c       __imp__GetProcAddress@8    100d409c     kernel32:KERNEL32.dll
 0002:000000a0       __imp__AreFileApisANSI@0   100d40a0     kernel32:KERNEL32.dll
 0002:000000a4       __imp__InitializeCriticalSectionAndSpinCount@8 100d40a4     kernel32:KERNEL32.dll
 0002:000000a8       __imp__FatalAppExitA@8     100d40a8     kernel32:KERNEL32.dll
 0002:000000ac       __imp__GetCPInfo@8         100d40ac     kernel32:KERNEL32.dll
 0002:000000b0       __imp__UnhandledExceptionFilter@4 100d40b0     kernel32:KERNEL32.dll
 0002:000000b4       __imp__SetUnhandledExceptionFilter@4 100d40b4     kernel32:KERNEL32.dll
 0002:000000b8       __imp__SetLastError@4      100d40b8     kernel32:KERNEL32.dll
 0002:000000bc       __imp__GetCurrentProcess@0 100d40bc     kernel32:KERNEL32.dll
 0002:000000c0       __imp__TerminateProcess@8  100d40c0     kernel32:KERNEL32.dll
 0002:000000c4       __imp__TlsAlloc@0          100d40c4     kernel32:KERNEL32.dll
 0002:000000c8       __imp__TlsGetValue@4       100d40c8     kernel32:KERNEL32.dll
 0002:000000cc       __imp__TlsSetValue@8       100d40cc     kernel32:KERNEL32.dll
 0002:000000d0       __imp__SetEnvironmentVariableA@8 100d40d0     kernel32:KERNEL32.dll
 0002:000000d4       __imp__GetStartupInfoW@4   100d40d4     kernel32:KERNEL32.dll
 0002:000000d8       __imp__GetModuleHandleW@4  100d40d8     kernel32:KERNEL32.dll
 0002:000000dc       __imp__CreateSemaphoreW@16 100d40dc     kernel32:KERNEL32.dll
 0002:000000e0       __imp__GetDateFormatW@24   100d40e0     kernel32:KERNEL32.dll
 0002:000000e4       __imp__GetTimeFormatW@24   100d40e4     kernel32:KERNEL32.dll
 0002:000000e8       __imp__CompareStringW@24   100d40e8     kernel32:KERNEL32.dll
 0002:000000ec       __imp__LCMapStringW@24     100d40ec     kernel32:KERNEL32.dll
 0002:000000f0       __imp__GetLocaleInfoW@16   100d40f0     kernel32:KERNEL32.dll
 0002:000000f4       __imp__IsValidLocale@8     100d40f4     kernel32:KERNEL32.dll
 0002:000000f8       __imp__GetUserDefaultLCID@0 100d40f8     kernel32:KERNEL32.dll
 0002:000000fc       __imp__EnumSystemLocalesW@8 100d40fc     kernel32:KERNEL32.dll
 0002:00000100       __imp__GetStdHandle@4      100d4100     kernel32:KERNEL32.dll
 0002:00000104       __imp__WriteFile@20        100d4104     kernel32:KERNEL32.dll
 0002:00000108       __imp__GetCurrentThread@0  100d4108     kernel32:KERNEL32.dll
 0002:0000010c       __imp__CloseHandle@4       100d410c     kernel32:KERNEL32.dll
 0002:00000110       __imp__FlushFileBuffers@4  100d4110     kernel32:KERNEL32.dll
 0002:00000114       __imp__GetConsoleCP@0      100d4114     kernel32:KERNEL32.dll
 0002:00000118       __imp__GetConsoleMode@8    100d4118     kernel32:KERNEL32.dll
 0002:0000011c       __imp__GetFileType@4       100d411c     kernel32:KERNEL32.dll
 0002:00000120       __imp__ReadFile@20         100d4120     kernel32:KERNEL32.dll
 0002:00000124       __imp__SetFilePointerEx@20 100d4124     kernel32:KERNEL32.dll
 0002:00000128       __imp__SetConsoleCtrlHandler@8 100d4128     kernel32:KERNEL32.dll
 0002:0000012c       __imp__OutputDebugStringW@4 100d412c     kernel32:KERNEL32.dll
 0002:00000130       __imp__WaitForSingleObjectEx@12 100d4130     kernel32:KERNEL32.dll
 0002:00000134       __imp__CreateThread@24     100d4134     kernel32:KERNEL32.dll
 0002:00000138       __imp__LoadLibraryExW@12   100d4138     kernel32:KERNEL32.dll
 0002:0000013c       __imp__LoadLibraryW@4      100d413c     kernel32:KERNEL32.dll
 0002:00000140       __imp__OutputDebugStringA@4 100d4140     kernel32:KERNEL32.dll
 0002:00000144       __imp__WriteConsoleW@20    100d4144     kernel32:KERNEL32.dll
 0002:00000148       __imp__IsValidCodePage@4   100d4148     kernel32:KERNEL32.dll
 0002:0000014c       __imp__GetACP@0            100d414c     kernel32:KERNEL32.dll
 0002:00000150       __imp__GetOEMCP@0          100d4150     kernel32:KERNEL32.dll
 0002:00000154       __imp__HeapFree@12         100d4154     kernel32:KERNEL32.dll
 0002:00000158       __imp__HeapReAlloc@16      100d4158     kernel32:KERNEL32.dll
 0002:0000015c       __imp__HeapSize@12         100d415c     kernel32:KERNEL32.dll
 0002:00000160       __imp__HeapQueryInformation@20 100d4160     kernel32:KERNEL32.dll
 0002:00000164       __imp__GetModuleFileNameA@12 100d4164     kernel32:KERNEL32.dll
 0002:00000168       __imp__HeapAlloc@12        100d4168     kernel32:KERNEL32.dll
 0002:0000016c       __imp__GetProcessHeap@0    100d416c     kernel32:KERNEL32.dll
 0002:00000170       __imp__lstrlenA@4          100d4170     kernel32:KERNEL32.dll
 0002:00000174       \177KERNEL32_NULL_THUNK_DATA 100d4174     kernel32:KERNEL32.dll
 0002:00000178       __imp_?RtDistToPit@@YAHPAUCarElt@@PAUtTrack@@PAM2@Z 100d4178     robottools:robottools.dll
 0002:0000017c       __imp_?RtTrackSideTgAngleL@@YAMPAUtTrkLocPos@@@Z 100d417c     robottools:robottools.dll
 0002:00000180       \177robottools_NULL_THUNK_DATA 100d4180     robottools:robottools.dll
 0002:00000184       __imp_?GfParmSetNum@@YAHPAXPBD11M@Z 100d4184     tgf:tgf.dll
 0002:00000188       __imp_?GfCreateDir@@YAHPAD@Z 100d4188     tgf:tgf.dll
 0002:0000018c       __imp_?GetDataDir@@YAPADXZ 100d418c     tgf:tgf.dll
 0002:00000190       __imp_?GetLocalDir@@YAPADXZ 100d4190     tgf:tgf.dll
 0002:00000194       __imp_?GfParmGetNum@@YAMPAXPBD11M@Z 100d4194     tgf:tgf.dll
 0002:00000198       __imp_?GfParmGetStr@@YAPBDPAXPBD11@Z 100d4198     tgf:tgf.dll
 0002:0000019c       __imp_?GfParmReadFile@@YAPAXPBDH@Z 100d419c     tgf:tgf.dll
 0002:000001a0       __imp_?_tgf_win_strdup@@YAPADPBD@Z 100d41a0     tgf:tgf.dll
 0002:000001a4       \177tgf_NULL_THUNK_DATA    100d41a4     tgf:tgf.dll
 0002:000001a8       ___xc_a                    100d41a8     LIBCMTD:crt0init.obj
 0002:00000330       ___xc_z                    100d4330     LIBCMTD:crt0init.obj
 0002:00000334       ___xi_a                    100d4334     LIBCMTD:crt0init.obj
 0002:0000034c       ___xi_z                    100d434c     LIBCMTD:crt0init.obj
 0002:00000350       ___xp_a                    100d4350     LIBCMTD:crt0init.obj
 0002:00000360       ___xp_z                    100d4360     LIBCMTD:crt0init.obj
 0002:00000364       ___xt_a                    100d4364     LIBCMTD:crt0init.obj
 0002:00000368       ___xt_z                    100d4368     LIBCMTD:crt0init.obj
 0002:000003a8       ?has_denorm@_Num_float_base@std@@2W4float_denorm_style@2@B 100d43a8     AnnAIController.obj
 0002:000003ac       ?has_denorm_loss@_Num_float_base@std@@2_NB 100d43ac     AnnAIController.obj
 0002:000003ad       ?has_infinity@_Num_float_base@std@@2_NB 100d43ad     AnnAIController.obj
 0002:000003ae       ?has_quiet_NaN@_Num_float_base@std@@2_NB 100d43ae     AnnAIController.obj
 0002:000003af       ?has_signaling_NaN@_Num_float_base@std@@2_NB 100d43af     AnnAIController.obj
 0002:000003b0       ?is_bounded@_Num_float_base@std@@2_NB 100d43b0     AnnAIController.obj
 0002:000003b1       ?is_exact@_Num_float_base@std@@2_NB 100d43b1     AnnAIController.obj
 0002:000006f2       ?is_iec559@_Num_float_base@std@@2_NB 100d46f2     AnnAIController.obj
 0002:000006f3       ?is_integer@_Num_float_base@std@@2_NB 100d46f3     AnnAIController.obj
 0002:000006f4       ?is_modulo@_Num_float_base@std@@2_NB 100d46f4     AnnAIController.obj
 0002:000006f5       ?is_signed@_Num_float_base@std@@2_NB 100d46f5     AnnAIController.obj
 0002:000006f6       ?is_specialized@_Num_float_base@std@@2_NB 100d46f6     AnnAIController.obj
 0002:000006f7       ?tinyness_before@_Num_float_base@std@@2_NB 100d46f7     AnnAIController.obj
 0002:000006f8       ?traps@_Num_float_base@std@@2_NB 100d46f8     AnnAIController.obj
 0002:000006fc       ?round_style@_Num_float_base@std@@2W4float_round_style@2@B 100d46fc     AnnAIController.obj
 0002:00000700       ?radix@_Num_float_base@std@@2HB 100d4700     AnnAIController.obj
 0002:00000704       ?is_signed@?$numeric_limits@D@std@@2_NB 100d4704     AnnAIController.obj
 0002:00000708       ?digits@?$numeric_limits@D@std@@2HB 100d4708     AnnAIController.obj
 0002:0000070c       ?digits10@?$numeric_limits@D@std@@2HB 100d470c     AnnAIController.obj
 0002:00000710       ?is_signed@?$numeric_limits@_W@std@@2_NB 100d4710     AnnAIController.obj
 0002:00000714       ?digits@?$numeric_limits@_W@std@@2HB 100d4714     AnnAIController.obj
 0002:00000718       ?digits10@?$numeric_limits@_W@std@@2HB 100d4718     AnnAIController.obj
 0002:0000071c       ?is_modulo@?$numeric_limits@_N@std@@2_NB 100d471c     AnnAIController.obj
 0002:0000071d       ?is_signed@?$numeric_limits@_N@std@@2_NB 100d471d     AnnAIController.obj
 0002:00000720       ?digits@?$numeric_limits@_N@std@@2HB 100d4720     AnnAIController.obj
 0002:00000724       ?digits10@?$numeric_limits@_N@std@@2HB 100d4724     AnnAIController.obj
 0002:00000728       ?is_signed@?$numeric_limits@C@std@@2_NB 100d4728     AnnAIController.obj
 0002:0000072c       ?digits@?$numeric_limits@C@std@@2HB 100d472c     AnnAIController.obj
 0002:00000730       ?digits10@?$numeric_limits@C@std@@2HB 100d4730     AnnAIController.obj
 0002:00000734       ?is_signed@?$numeric_limits@E@std@@2_NB 100d4734     AnnAIController.obj
 0002:00000738       ?digits@?$numeric_limits@E@std@@2HB 100d4738     AnnAIController.obj
 0002:0000073c       ?digits10@?$numeric_limits@E@std@@2HB 100d473c     AnnAIController.obj
 0002:00000740       ?is_signed@?$numeric_limits@F@std@@2_NB 100d4740     AnnAIController.obj
 0002:00000744       ?digits@?$numeric_limits@F@std@@2HB 100d4744     AnnAIController.obj
 0002:00000748       ?digits10@?$numeric_limits@F@std@@2HB 100d4748     AnnAIController.obj
 0002:0000074c       ?is_signed@?$numeric_limits@G@std@@2_NB 100d474c     AnnAIController.obj
 0002:00000750       ?digits@?$numeric_limits@G@std@@2HB 100d4750     AnnAIController.obj
 0002:00000754       ?digits10@?$numeric_limits@G@std@@2HB 100d4754     AnnAIController.obj
 0002:00000758       ?is_signed@?$numeric_limits@H@std@@2_NB 100d4758     AnnAIController.obj
 0002:0000075c       ?digits@?$numeric_limits@H@std@@2HB 100d475c     AnnAIController.obj
 0002:00000760       ?digits10@?$numeric_limits@H@std@@2HB 100d4760     AnnAIController.obj
 0002:00000764       ?is_signed@?$numeric_limits@I@std@@2_NB 100d4764     AnnAIController.obj
 0002:00000768       ?digits@?$numeric_limits@I@std@@2HB 100d4768     AnnAIController.obj
 0002:0000076c       ?digits10@?$numeric_limits@I@std@@2HB 100d476c     AnnAIController.obj
 0002:00000770       ?is_signed@?$numeric_limits@J@std@@2_NB 100d4770     AnnAIController.obj
 0002:00000774       ?digits@?$numeric_limits@J@std@@2HB 100d4774     AnnAIController.obj
 0002:00000778       ?digits10@?$numeric_limits@J@std@@2HB 100d4778     AnnAIController.obj
 0002:0000077c       ?skipws@?$_Iosb@H@std@@2W4_Fmtflags@12@B 100d477c     AnnAIController.obj
 0002:00000780       ?unitbuf@?$_Iosb@H@std@@2W4_Fmtflags@12@B 100d4780     AnnAIController.obj
 0002:00000784       ?uppercase@?$_Iosb@H@std@@2W4_Fmtflags@12@B 100d4784     AnnAIController.obj
 0002:00000788       ?showbase@?$_Iosb@H@std@@2W4_Fmtflags@12@B 100d4788     AnnAIController.obj
 0002:0000078c       ?showpoint@?$_Iosb@H@std@@2W4_Fmtflags@12@B 100d478c     AnnAIController.obj
 0002:00000790       ?is_signed@?$numeric_limits@K@std@@2_NB 100d4790     AnnAIController.obj
 0002:00000794       ?showpos@?$_Iosb@H@std@@2W4_Fmtflags@12@B 100d4794     AnnAIController.obj
 0002:00000798       ?left@?$_Iosb@H@std@@2W4_Fmtflags@12@B 100d4798     AnnAIController.obj
 0002:0000079c       ?digits@?$numeric_limits@K@std@@2HB 100d479c     AnnAIController.obj
 0002:000007a0       ?right@?$_Iosb@H@std@@2W4_Fmtflags@12@B 100d47a0     AnnAIController.obj
 0002:000007a4       ?digits10@?$numeric_limits@K@std@@2HB 100d47a4     AnnAIController.obj
 0002:000007a8       ?internal@?$_Iosb@H@std@@2W4_Fmtflags@12@B 100d47a8     AnnAIController.obj
 0002:000007ac       ?dec@?$_Iosb@H@std@@2W4_Fmtflags@12@B 100d47ac     AnnAIController.obj
 0002:000007b0       ?oct@?$_Iosb@H@std@@2W4_Fmtflags@12@B 100d47b0     AnnAIController.obj
 0002:000007b4       ?hex@?$_Iosb@H@std@@2W4_Fmtflags@12@B 100d47b4     AnnAIController.obj
 0002:000007b8       ?scientific@?$_Iosb@H@std@@2W4_Fmtflags@12@B 100d47b8     AnnAIController.obj
 0002:000007bc       ?fixed@?$_Iosb@H@std@@2W4_Fmtflags@12@B 100d47bc     AnnAIController.obj
 0002:000007c0       ?hexfloat@?$_Iosb@H@std@@2W4_Fmtflags@12@B 100d47c0     AnnAIController.obj
 0002:000007c4       ?boolalpha@?$_Iosb@H@std@@2W4_Fmtflags@12@B 100d47c4     AnnAIController.obj
 0002:000007c8       ?collate@?$_Locbase@H@std@@2HB 100d47c8     AnnAIController.obj
 0002:000007cc       ?ctype@?$_Locbase@H@std@@2HB 100d47cc     AnnAIController.obj
 0002:000007d0       ?_Stdio@?$_Iosb@H@std@@2W4_Fmtflags@12@B 100d47d0     AnnAIController.obj
 0002:000007d4       ?monetary@?$_Locbase@H@std@@2HB 100d47d4     AnnAIController.obj
 0002:000007d8       ?adjustfield@?$_Iosb@H@std@@2W4_Fmtflags@12@B 100d47d8     AnnAIController.obj
 0002:000007dc       ?numeric@?$_Locbase@H@std@@2HB 100d47dc     AnnAIController.obj
 0002:000007e0       ?is_signed@?$numeric_limits@_J@std@@2_NB 100d47e0     AnnAIController.obj
 0002:000007e4       ?time@?$_Locbase@H@std@@2HB 100d47e4     AnnAIController.obj
 0002:000007e8       ?basefield@?$_Iosb@H@std@@2W4_Fmtflags@12@B 100d47e8     AnnAIController.obj
 0002:000007ec       ?messages@?$_Locbase@H@std@@2HB 100d47ec     AnnAIController.obj
 0002:000007f0       ?digits@?$numeric_limits@_J@std@@2HB 100d47f0     AnnAIController.obj
 0002:000007f4       ?floatfield@?$_Iosb@H@std@@2W4_Fmtflags@12@B 100d47f4     AnnAIController.obj
 0002:000007f8       ?all@?$_Locbase@H@std@@2HB 100d47f8     AnnAIController.obj
 0002:000007fc       ?none@?$_Locbase@H@std@@2HB 100d47fc     AnnAIController.obj
 0002:00000800       ?digits10@?$numeric_limits@_J@std@@2HB 100d4800     AnnAIController.obj
 0002:00000804       ?goodbit@?$_Iosb@H@std@@2W4_Iostate@12@B 100d4804     AnnAIController.obj
 0002:00000808       ?eofbit@?$_Iosb@H@std@@2W4_Iostate@12@B 100d4808     AnnAIController.obj
 0002:0000080c       ?failbit@?$_Iosb@H@std@@2W4_Iostate@12@B 100d480c     AnnAIController.obj
 0002:00000810       ?badbit@?$_Iosb@H@std@@2W4_Iostate@12@B 100d4810     AnnAIController.obj
 0002:00000814       ?_Hardfail@?$_Iosb@H@std@@2W4_Iostate@12@B 100d4814     AnnAIController.obj
 0002:00000818       ?in@?$_Iosb@H@std@@2W4_Openmode@12@B 100d4818     AnnAIController.obj
 0002:0000081c       ?out@?$_Iosb@H@std@@2W4_Openmode@12@B 100d481c     AnnAIController.obj
 0002:00000820       ?ate@?$_Iosb@H@std@@2W4_Openmode@12@B 100d4820     AnnAIController.obj
 0002:00000824       ?app@?$_Iosb@H@std@@2W4_Openmode@12@B 100d4824     AnnAIController.obj
 0002:00000828       ?is_signed@?$numeric_limits@_K@std@@2_NB 100d4828     AnnAIController.obj
 0002:0000082c       ?trunc@?$_Iosb@H@std@@2W4_Openmode@12@B 100d482c     AnnAIController.obj
 0002:00000830       ?_Nocreate@?$_Iosb@H@std@@2W4_Openmode@12@B 100d4830     AnnAIController.obj
 0002:00000834       ?digits@?$numeric_limits@_K@std@@2HB 100d4834     AnnAIController.obj
 0002:00000838       ?_Noreplace@?$_Iosb@H@std@@2W4_Openmode@12@B 100d4838     AnnAIController.obj
 0002:0000083c       ?digits10@?$numeric_limits@_K@std@@2HB 100d483c     AnnAIController.obj
 0002:00000840       ?binary@?$_Iosb@H@std@@2W4_Openmode@12@B 100d4840     AnnAIController.obj
 0002:00000844       ?beg@?$_Iosb@H@std@@2W4_Seekdir@12@B 100d4844     AnnAIController.obj
 0002:00000848       ?cur@?$_Iosb@H@std@@2W4_Seekdir@12@B 100d4848     AnnAIController.obj
 0002:0000084c       ?end@?$_Iosb@H@std@@2W4_Seekdir@12@B 100d484c     AnnAIController.obj
 0002:00000850       ?digits@?$numeric_limits@M@std@@2HB 100d4850     AnnAIController.obj
 0002:00000854       ?value@?$integral_constant@I$0A@@std@@2IB 100d4854     AnnAIController.obj
 0002:00000858       ?digits10@?$numeric_limits@M@std@@2HB 100d4858     AnnAIController.obj
 0002:0000085c       ?max_digits10@?$numeric_limits@M@std@@2HB 100d485c     AnnAIController.obj
 0002:00000860       ?max_exponent@?$numeric_limits@M@std@@2HB 100d4860     AnnAIController.obj
 0002:00000864       ?_Stream_err@failure@ios_base@std@@0W4io_errc@43@B 100d4864     AnnAIController.obj
 0002:00000868       ?max_exponent10@?$numeric_limits@M@std@@2HB 100d4868     AnnAIController.obj
 0002:0000086c       ?min_exponent@?$numeric_limits@M@std@@2HB 100d486c     AnnAIController.obj
 0002:00000870       ?min_exponent10@?$numeric_limits@M@std@@2HB 100d4870     AnnAIController.obj
 0002:00000874       ?digits@?$numeric_limits@N@std@@2HB 100d4874     AnnAIController.obj
 0002:00000878       ?digits10@?$numeric_limits@N@std@@2HB 100d4878     AnnAIController.obj
 0002:0000087c       ?max_digits10@?$numeric_limits@N@std@@2HB 100d487c     AnnAIController.obj
 0002:00000880       ?max_exponent@?$numeric_limits@N@std@@2HB 100d4880     AnnAIController.obj
 0002:00000884       ?max_exponent10@?$numeric_limits@N@std@@2HB 100d4884     AnnAIController.obj
 0002:00000888       ?min_exponent@?$numeric_limits@N@std@@2HB 100d4888     AnnAIController.obj
 0002:0000088c       ?min_exponent10@?$numeric_limits@N@std@@2HB 100d488c     AnnAIController.obj
 0002:00000890       ?digits@?$numeric_limits@O@std@@2HB 100d4890     AnnAIController.obj
 0002:00000894       ?digits10@?$numeric_limits@O@std@@2HB 100d4894     AnnAIController.obj
 0002:00000898       ?max_digits10@?$numeric_limits@O@std@@2HB 100d4898     AnnAIController.obj
 0002:0000089c       ?max_exponent@?$numeric_limits@O@std@@2HB 100d489c     AnnAIController.obj
 0002:000008a0       ?max_exponent10@?$numeric_limits@O@std@@2HB 100d48a0     AnnAIController.obj
 0002:000008a4       ?min_exponent@?$numeric_limits@O@std@@2HB 100d48a4     AnnAIController.obj
 0002:000008a8       ?min_exponent10@?$numeric_limits@O@std@@2HB 100d48a8     AnnAIController.obj
 0002:000008ac       ?table_size@?$ctype@D@std@@2IB 100d48ac     AnnAIController.obj
 0002:000008b0       ?value@?$_Sizeof@U_Nil@std@@U12@U12@U12@U12@U12@U12@U12@@std@@2IB 100d48b0     AnnAIController.obj
 0002:000008b4       ?value@?$integral_constant@_N$0A@@std@@2_NB 100d48b4     AnnAIController.obj
 0002:000008b5       ?value@?$integral_constant@_N$00@std@@2_NB 100d48b5     AnnAIController.obj
 0002:000008b8       ?has_denorm@_Num_base@std@@2W4float_denorm_style@2@B 100d48b8     AnnAIController.obj
 0002:000008bc       ?has_denorm_loss@_Num_base@std@@2_NB 100d48bc     AnnAIController.obj
 0002:000008bd       ?has_infinity@_Num_base@std@@2_NB 100d48bd     AnnAIController.obj
 0002:000008be       ?has_quiet_NaN@_Num_base@std@@2_NB 100d48be     AnnAIController.obj
 0002:000008bf       ?has_signaling_NaN@_Num_base@std@@2_NB 100d48bf     AnnAIController.obj
 0002:000008c0       ?is_bounded@_Num_base@std@@2_NB 100d48c0     AnnAIController.obj
 0002:000008c1       ?is_exact@_Num_base@std@@2_NB 100d48c1     AnnAIController.obj
 0002:000008c2       ?is_iec559@_Num_base@std@@2_NB 100d48c2     AnnAIController.obj
 0002:000008c3       ?is_integer@_Num_base@std@@2_NB 100d48c3     AnnAIController.obj
 0002:000008c4       ?is_modulo@_Num_base@std@@2_NB 100d48c4     AnnAIController.obj
 0002:000008c5       ?is_signed@_Num_base@std@@2_NB 100d48c5     AnnAIController.obj
 0002:000008c6       ?is_specialized@_Num_base@std@@2_NB 100d48c6     AnnAIController.obj
 0002:000008c7       ?tinyness_before@_Num_base@std@@2_NB 100d48c7     AnnAIController.obj
 0002:000008c8       ?traps@_Num_base@std@@2_NB 100d48c8     AnnAIController.obj
 0002:000008cc       ?round_style@_Num_base@std@@2W4float_round_style@2@B 100d48cc     AnnAIController.obj
 0002:000008d0       ?digits@_Num_base@std@@2HB 100d48d0     AnnAIController.obj
 0002:000008d4       ?digits10@_Num_base@std@@2HB 100d48d4     AnnAIController.obj
 0002:000008d8       ?max_digits10@_Num_base@std@@2HB 100d48d8     AnnAIController.obj
 0002:000008dc       ?max_exponent@_Num_base@std@@2HB 100d48dc     AnnAIController.obj
 0002:000008e0       ?max_exponent10@_Num_base@std@@2HB 100d48e0     AnnAIController.obj
 0002:000008e4       ?min_exponent@_Num_base@std@@2HB 100d48e4     AnnAIController.obj
 0002:000008e8       ?min_exponent10@_Num_base@std@@2HB 100d48e8     AnnAIController.obj
 0002:000008ec       ?radix@_Num_base@std@@2HB  100d48ec     AnnAIController.obj
 0002:000008f0       ?value@?$_Sizeof@HU_Nil@std@@U12@U12@U12@U12@U12@U12@@std@@2IB 100d48f0     AnnAIController.obj
 0002:000008f4       ?is_bounded@_Num_int_base@std@@2_NB 100d48f4     AnnAIController.obj
 0002:000008f5       ?is_exact@_Num_int_base@std@@2_NB 100d48f5     AnnAIController.obj
 0002:000008f6       ?is_integer@_Num_int_base@std@@2_NB 100d48f6     AnnAIController.obj
 0002:000008f7       ?is_modulo@_Num_int_base@std@@2_NB 100d48f7     AnnAIController.obj
 0002:000008f8       ?is_specialized@_Num_int_base@std@@2_NB 100d48f8     AnnAIController.obj
 0002:000008fc       ?radix@_Num_int_base@std@@2HB 100d48fc     AnnAIController.obj
 0002:00000900       ??_C@_1HI@INMNAKMP@?$AAD?$AA?3?$AA?2?$AAP?$AAr?$AAo?$AAg?$AAr?$AAa?$AAm?$AA?2?$AAM?$AAi?$AAc?$AAr?$AAo?$AAs?$AAo?$AAf?$AAt?$AA?5?$AAV?$AAi?$AAs?$AAu?$AAa?$AAl?$AA?5?$AAS?$AAt?$AAu?$AAd@ 100d4900     AnnAIController.obj
 0002:00000978       ??_C@_1DC@POOIKBAO@?$AAI?$AAT?$AAE?$AAR?$AAA?$AAT?$AAO?$AAR?$AA?5?$AAL?$AAI?$AAS?$AAT?$AA?5?$AAC?$AAO?$AAR?$AAR?$AAU?$AAP?$AAT?$AAE?$AAD?$AA?$CB?$AA?$AA@ 100d4978     AnnAIController.obj
 0002:000009ac       ?npos@?$basic_string@DU?$char_traits@D@std@@V?$allocator@D@2@@std@@2IB 100d49ac     AnnAIController.obj
 0002:000009b4       ??_7runtime_error@std@@6B@ 100d49b4     AnnAIController.obj
 0002:000009c0       ??_7AnnAIController@@6B@   100d49c0     AnnAIController.obj
 0002:000009c4       ??_C@_0BA@ELKIONDK@bad?5locale?5name?$AA@ 100d49c4     AnnAIController.obj
 0002:000009d4       ??_C@_05LAPONLG@false?$AA@ 100d49d4     AnnAIController.obj
 0002:000009dc       ??_C@_04LOAJBDKD@true?$AA@ 100d49dc     AnnAIController.obj
 0002:000009e8       ??_7_Facet_base@std@@6B@   100d49e8     AnnAIController.obj
 0002:000009f8       ??_7facet@locale@std@@6B@  100d49f8     AnnAIController.obj
 0002:00000a04       ??_C@_0DL@CPCDAFLF@D?3?2Program?2Microsoft?5Visual?5Stud@ 100d4a04     AnnAIController.obj
 0002:00000a3f       ??_C@_00CNPNBAHC@?$AA@     100d4a3f     AnnAIController.obj
 0002:00000a44       ??_7codecvt_base@std@@6B@  100d4a44     AnnAIController.obj
 0002:00000a60       ??_C@_1HG@MCNNMNII@?$AAD?$AA?3?$AA?2?$AAP?$AAr?$AAo?$AAg?$AAr?$AAa?$AAm?$AA?2?$AAM?$AAi?$AAc?$AAr?$AAo?$AAs?$AAo?$AAf?$AAt?$AA?5?$AAV?$AAi?$AAs?$AAu?$AAa?$AAl?$AA?5?$AAS?$AAt?$AAu?$AAd@ 100d4a60     AnnAIController.obj
 0002:00000adc       ??_7ctype_base@std@@6B@    100d4adc     AnnAIController.obj
 0002:00000aec       ??_7?$ctype@D@std@@6B@     100d4aec     AnnAIController.obj
 0002:00000b1c       ??_7error_category@std@@6B@ 100d4b1c     AnnAIController.obj
 0002:00000b38       ??_7system_error@std@@6B@  100d4b38     AnnAIController.obj
 0002:00000b44       ??_7_Generic_error_category@std@@6B@ 100d4b44     AnnAIController.obj
 0002:00000b5c       ??_C@_07DCLBNMLN@generic?$AA@ 100d4b5c     AnnAIController.obj
 0002:00000b64       ??_C@_0O@BFJCFAAK@unknown?5error?$AA@ 100d4b64     AnnAIController.obj
 0002:00000b78       ??_7_Iostream_error_category@std@@6B@ 100d4b78     AnnAIController.obj
 0002:00000b90       ??_C@_08LLGCOLLL@iostream?$AA@ 100d4b90     AnnAIController.obj
 0002:00000b9c       ??_C@_0BG@PADBLCHM@iostream?5stream?5error?$AA@ 100d4b9c     AnnAIController.obj
 0002:00000bb8       ??_7_System_error_category@std@@6B@ 100d4bb8     AnnAIController.obj
 0002:00000bd0       ??_C@_06FHFOAHML@system?$AA@ 100d4bd0     AnnAIController.obj
 0002:00000bdc       ??_7failure@ios_base@std@@6B@ 100d4bdc     AnnAIController.obj
 0002:00000be8       ??_7ios_base@std@@6B@      100d4be8     AnnAIController.obj
 0002:00000bec       ??_C@_0BF@PHHKMMFD@ios_base?3?3badbit?5set?$AA@ 100d4bec     AnnAIController.obj
 0002:00000c04       ??_C@_0BG@FMKFHCIL@ios_base?3?3failbit?5set?$AA@ 100d4c04     AnnAIController.obj
 0002:00000c1c       ??_C@_0BF@OOHOMBOF@ios_base?3?3eofbit?5set?$AA@ 100d4c1c     AnnAIController.obj
 0002:00000c34       ??_C@_0DM@EFPJIKNE@D?3?2Program?2Microsoft?5Visual?5Stud@ 100d4c34     AnnAIController.obj
 0002:00000c70       ??_C@_0DL@KMGOAHBE@D?3?2Program?2Microsoft?5Visual?5Stud@ 100d4c70     AnnAIController.obj
 0002:00000cb0       ??_7?$basic_ios@DU?$char_traits@D@std@@@std@@6B@ 100d4cb0     AnnAIController.obj
 0002:00000cc0       ??_7?$basic_ostream@DU?$char_traits@D@std@@@std@@6B@ 100d4cc0     AnnAIController.obj
 0002:00000ccc       ??_8?$basic_ostream@DU?$char_traits@D@std@@@std@@7B@ 100d4ccc     AnnAIController.obj
 0002:00000cd8       ??_7?$basic_istream@DU?$char_traits@D@std@@@std@@6B@ 100d4cd8     AnnAIController.obj
 0002:00000ce4       ??_8?$basic_istream@DU?$char_traits@D@std@@@std@@7B@ 100d4ce4     AnnAIController.obj
 0002:00000cf4       ??_7?$basic_streambuf@DU?$char_traits@D@std@@@std@@6B@ 100d4cf4     AnnAIController.obj
 0002:00000d34       ??_7?$basic_iostream@DU?$char_traits@D@std@@@std@@6B@ 100d4d34     AnnAIController.obj
 0002:00000d40       ??_8?$basic_iostream@DU?$char_traits@D@std@@@std@@7B?$basic_istream@DU?$char_traits@D@std@@@1@@ 100d4d40     AnnAIController.obj
 0002:00000d48       ??_8?$basic_iostream@DU?$char_traits@D@std@@@std@@7B?$basic_ostream@DU?$char_traits@D@std@@@1@@ 100d4d48     AnnAIController.obj
 0002:00000d54       ??_7?$basic_filebuf@DU?$char_traits@D@std@@@std@@6B@ 100d4d54     AnnAIController.obj
 0002:00000d94       ??_7?$basic_fstream@DU?$char_traits@D@std@@@std@@6B@ 100d4d94     AnnAIController.obj
 0002:00000da0       ??_8?$basic_fstream@DU?$char_traits@D@std@@@std@@7B?$basic_istream@DU?$char_traits@D@std@@@1@@ 100d4da0     AnnAIController.obj
 0002:00000da8       ??_8?$basic_fstream@DU?$char_traits@D@std@@@std@@7B?$basic_ostream@DU?$char_traits@D@std@@@1@@ 100d4da8     AnnAIController.obj
 0002:00000db4       ??_7?$basic_ofstream@DU?$char_traits@D@std@@@std@@6B@ 100d4db4     AnnAIController.obj
 0002:00000dc0       ??_8?$basic_ofstream@DU?$char_traits@D@std@@@std@@7B@ 100d4dc0     AnnAIController.obj
 0002:00000dc8       ??_C@_1HG@HDDJJEAD@?$AAD?$AA?3?$AA?2?$AAP?$AAr?$AAo?$AAg?$AAr?$AAa?$AAm?$AA?2?$AAM?$AAi?$AAc?$AAr?$AAo?$AAs?$AAo?$AAf?$AAt?$AA?5?$AAV?$AAi?$AAs?$AAu?$AAa?$AAl?$AA?5?$AAS?$AAt?$AAu?$AAd@ 100d4dc8     AnnAIController.obj
 0002:00000e40       ??_C@_1HE@JKLHPCBN@?$AAD?$AA?3?$AA?2?$AAP?$AAr?$AAo?$AAg?$AAr?$AAa?$AAm?$AA?2?$AAM?$AAi?$AAc?$AAr?$AAo?$AAs?$AAo?$AAf?$AAt?$AA?5?$AAV?$AAi?$AAs?$AAu?$AAa?$AAl?$AA?5?$AAS?$AAt?$AAu?$AAd@ 100d4e40     AnnAIController.obj
 0002:00000eb4       ??_C@_1DM@LHGCHCBA@?$AAv?$AAe?$AAc?$AAt?$AAo?$AAr?$AA?5?$AAs?$AAu?$AAb?$AAs?$AAc?$AAr?$AAi?$AAp?$AAt?$AA?5?$AAo?$AAu?$AAt?$AA?5?$AAo?$AAf?$AA?5?$AAr?$AAa?$AAn?$AAg?$AAe?$AA?$AA@ 100d4eb4     AnnAIController.obj
 0002:00000ef0       ??_C@_0CE@OFMIGAMM@Standard?5C?$CL?$CL?5Libraries?5Out?5of?5Ra@ 100d4ef0     AnnAIController.obj
 0002:00000f18       ??_C@_1FG@IBPIFFN@?$AA?$CC?$AAS?$AAt?$AAa?$AAn?$AAd?$AAa?$AAr?$AAd?$AA?5?$AAC?$AA?$CL?$AA?$CL?$AA?5?$AAL?$AAi?$AAb?$AAr?$AAa?$AAr?$AAi?$AAe?$AAs?$AA?5?$AAO?$AAu?$AAt?$AA?5?$AAo?$AAf?$AA?5?$AAR@ 100d4f18     AnnAIController.obj
 0002:00000f70       ??_C@_15GANGMFKL@?$AA?$CF?$AAs?$AA?$AA@ 100d4f70     AnnAIController.obj
 0002:00000f78       ??_C@_1HK@EJDBECKJ@?$AAs?$AAt?$AAd?$AA?3?$AA?3?$AAv?$AAe?$AAc?$AAt?$AAo?$AAr?$AA?$DM?$AAf?$AAl?$AAo?$AAa?$AAt?$AA?0?$AAc?$AAl?$AAa?$AAs?$AAs?$AA?5?$AAs?$AAt?$AAd?$AA?3?$AA?3?$AAa?$AAl?$AAl@ 100d4f78     AnnAIController.obj
 0002:00000ff4       ??_C@_1BO@MEPPHOO@?$AA?$CC?$AAo?$AAu?$AAt?$AA?5?$AAo?$AAf?$AA?5?$AAr?$AAa?$AAn?$AAg?$AAe?$AA?$CC?$AA?$AA@ 100d4ff4     AnnAIController.obj
 0002:00001018       ??_C@_1HG@KBKDBFBG@?$AAD?$AA?3?$AA?2?$AAP?$AAr?$AAo?$AAg?$AAr?$AAa?$AAm?$AA?2?$AAM?$AAi?$AAc?$AAr?$AAo?$AAs?$AAo?$AAf?$AAt?$AA?5?$AAV?$AAi?$AAs?$AAu?$AAa?$AAl?$AA?5?$AAS?$AAt?$AAu?$AAd@ 100d5018     AnnAIController.obj
 0002:00001094       ??_7?$num_put@DV?$ostreambuf_iterator@DU?$char_traits@D@std@@@std@@@std@@6B@ 100d5094     AnnAIController.obj
 0002:000010c0       ??_C@_1HG@PKJAKEJI@?$AAD?$AA?3?$AA?2?$AAP?$AAr?$AAo?$AAg?$AAr?$AAa?$AAm?$AA?2?$AAM?$AAi?$AAc?$AAr?$AAo?$AAs?$AAo?$AAf?$AAt?$AA?5?$AAV?$AAi?$AAs?$AAu?$AAa?$AAl?$AA?5?$AAS?$AAt?$AAu?$AAd@ 100d50c0     AnnAIController.obj
 0002:0000113c       ??_7?$numpunct@D@std@@6B@  100d513c     AnnAIController.obj
 0002:0000115c       ??_C@_02EAOCLKAK@ld?$AA@   100d515c     AnnAIController.obj
 0002:00001160       ??_C@_02BDDLJJBK@lu?$AA@   100d5160     AnnAIController.obj
 0002:00001164       ??_C@_02HIKPPMOK@Ld?$AA@   100d5164     AnnAIController.obj
 0002:00001168       ??_C@_02CLHGNPPK@Lu?$AA@   100d5168     AnnAIController.obj
 0002:0000116c       ??_C@_02BBAHNLBA@?$CFp?$AA@ 100d516c     AnnAIController.obj
 0002:00001174       ??_7?$codecvt@DDH@std@@6B@ 100d5174     AnnAIController.obj
 0002:000011a0       ??_C@_1EG@FOHJJHAC@?$AAv?$AAe?$AAc?$AAt?$AAo?$AAr?$AA?5?$AAi?$AAt?$AAe?$AAr?$AAa?$AAt?$AAo?$AAr?$AA?5?$AAn?$AAo?$AAt?$AA?5?$AAd?$AAe?$AAr?$AAe?$AAf?$AAe?$AAr?$AAe?$AAn?$AAc?$AAa?$AAb@ 100d51a0     AnnAIController.obj
 0002:000011e8       ??_C@_1NO@ECFEIMJN@?$AAs?$AAt?$AAd?$AA?3?$AA?3?$AA_?$AAV?$AAe?$AAc?$AAt?$AAo?$AAr?$AA_?$AAc?$AAo?$AAn?$AAs?$AAt?$AA_?$AAi?$AAt?$AAe?$AAr?$AAa?$AAt?$AAo?$AAr?$AA?$DM?$AAc?$AAl?$AAa?$AAs@ 100d51e8     AnnAIController.obj
 0002:000012c8       ??_C@_1NG@FNFJBLFA@?$AAs?$AAt?$AAd?$AA?3?$AA?3?$AA_?$AAV?$AAe?$AAc?$AAt?$AAo?$AAr?$AA_?$AAc?$AAo?$AAn?$AAs?$AAt?$AA_?$AAi?$AAt?$AAe?$AAr?$AAa?$AAt?$AAo?$AAr?$AA?$DM?$AAc?$AAl?$AAa?$AAs@ 100d52c8     AnnAIController.obj
 0002:000013a0       ??_C@_02MDKMJEGG@eE?$AA@   100d53a0     AnnAIController.obj
 0002:000013a4       ??_C@_02OOPEBDOJ@pP?$AA@   100d53a4     AnnAIController.obj
 0002:000013a8       ??_C@_01LFCBOECM@?4?$AA@   100d53a8     AnnAIController.obj
 0002:000013b0       ??_C@_1EE@EJDKCLKB@?$AAv?$AAe?$AAc?$AAt?$AAo?$AAr?$AA?5?$AAi?$AAt?$AAe?$AAr?$AAa?$AAt?$AAo?$AAr?$AA?5?$AAn?$AAo?$AAt?$AA?5?$AAi?$AAn?$AAc?$AAr?$AAe?$AAm?$AAe?$AAn?$AAt?$AAa?$AAb?$AAl@ 100d53b0     AnnAIController.obj
 0002:000013f8       ??_C@_1OA@JMIOICJC@?$AAs?$AAt?$AAd?$AA?3?$AA?3?$AA_?$AAV?$AAe?$AAc?$AAt?$AAo?$AAr?$AA_?$AAc?$AAo?$AAn?$AAs?$AAt?$AA_?$AAi?$AAt?$AAe?$AAr?$AAa?$AAt?$AAo?$AAr?$AA?$DM?$AAc?$AAl?$AAa?$AAs@ 100d53f8     AnnAIController.obj
 0002:000014d8       ??_C@_1NI@IMLBDCHL@?$AAs?$AAt?$AAd?$AA?3?$AA?3?$AA_?$AAV?$AAe?$AAc?$AAt?$AAo?$AAr?$AA_?$AAc?$AAo?$AAn?$AAs?$AAt?$AA_?$AAi?$AAt?$AAe?$AAr?$AAa?$AAt?$AAo?$AAr?$AA?$DM?$AAc?$AAl?$AAa?$AAs@ 100d54d8     AnnAIController.obj
 0002:000015b0       ??_C@_1DM@GMPLOCPK@?$AAs?$AAt?$AAr?$AAi?$AAn?$AAg?$AA?5?$AAs?$AAu?$AAb?$AAs?$AAc?$AAr?$AAi?$AAp?$AAt?$AA?5?$AAo?$AAu?$AAt?$AA?5?$AAo?$AAf?$AA?5?$AAr?$AAa?$AAn?$AAg?$AAe?$AA?$AA@ 100d55b0     AnnAIController.obj
 0002:000015ec       ??_C@_0BA@JFNIOLAK@string?5too?5long?$AA@ 100d55ec     AnnAIController.obj
 0002:000015fc       ??_C@_0BI@CFPLBAOH@invalid?5string?5position?$AA@ 100d55fc     AnnAIController.obj
 0002:00001614       ??_C@_0BD@OLBABOEK@vector?$DMT?$DO?5too?5long?$AA@ 100d5614     AnnAIController.obj
 0002:00001628       ??_C@_0DN@EDGEPMJM@D?3?2Program?2Microsoft?5Visual?5Stud@ 100d5628     AnnAIController.obj
 0002:00001668       ??_C@_1DM@HINDPMBP@?$AAv?$AAe?$AAc?$AAt?$AAo?$AAr?$AA?5?$AAi?$AAt?$AAe?$AAr?$AAa?$AAt?$AAo?$AAr?$AAs?$AA?5?$AAi?$AAn?$AAc?$AAo?$AAm?$AAp?$AAa?$AAt?$AAi?$AAb?$AAl?$AAe?$AA?$AA@ 100d5668     AnnAIController.obj
 0002:000016a4       ??_C@_0CI@FNPHFCCM@Standard?5C?$CL?$CL?5Libraries?5Invalid?5A@ 100d56a4     AnnAIController.obj
 0002:000016d0       ??_C@_1FO@GJIHNDLM@?$AA?$CC?$AAS?$AAt?$AAa?$AAn?$AAd?$AAa?$AAr?$AAd?$AA?5?$AAC?$AA?$CL?$AA?$CL?$AA?5?$AAL?$AAi?$AAb?$AAr?$AAa?$AAr?$AAi?$AAe?$AAs?$AA?5?$AAI?$AAn?$AAv?$AAa?$AAl?$AAi?$AAd?$AA?5@ 100d56d0     AnnAIController.obj
 0002:00001730       ??_C@_1NI@NGCEJPGJ@?$AAs?$AAt?$AAd?$AA?3?$AA?3?$AA_?$AAV?$AAe?$AAc?$AAt?$AAo?$AAr?$AA_?$AAc?$AAo?$AAn?$AAs?$AAt?$AA_?$AAi?$AAt?$AAe?$AAr?$AAa?$AAt?$AAo?$AAr?$AA?$DM?$AAc?$AAl?$AAa?$AAs@ 100d5730     AnnAIController.obj
 0002:00001808       ??_C@_1CG@JNLFBNGN@?$AA?$CC?$AAi?$AAn?$AAv?$AAa?$AAl?$AAi?$AAd?$AA?5?$AAa?$AAr?$AAg?$AAu?$AAm?$AAe?$AAn?$AAt?$AA?$CC?$AA?$AA@ 100d5808     AnnAIController.obj
 0002:00001830       ??_C@_1NA@MEHCCPCG@?$AAs?$AAt?$AAd?$AA?3?$AA?3?$AA_?$AAV?$AAe?$AAc?$AAt?$AAo?$AAr?$AA_?$AAc?$AAo?$AAn?$AAs?$AAt?$AA_?$AAi?$AAt?$AAe?$AAr?$AAa?$AAt?$AAo?$AAr?$AA?$DM?$AAc?$AAl?$AAa?$AAs@ 100d5830     AnnAIController.obj
 0002:00001900       ??_C@_1EG@CNCHLAOB@?$AAs?$AAt?$AAr?$AAi?$AAn?$AAg?$AA?5?$AAi?$AAt?$AAe?$AAr?$AAa?$AAt?$AAo?$AAr?$AA?5?$AAn?$AAo?$AAt?$AA?5?$AAd?$AAe?$AAr?$AAe?$AAf?$AAe?$AAr?$AAe?$AAn?$AAc?$AAa?$AAb@ 100d5900     AnnAIController.obj
 0002:00001948       ??_C@_1MG@GDGHDIKC@?$AAs?$AAt?$AAd?$AA?3?$AA?3?$AA_?$AAS?$AAt?$AAr?$AAi?$AAn?$AAg?$AA_?$AAc?$AAo?$AAn?$AAs?$AAt?$AA_?$AAi?$AAt?$AAe?$AAr?$AAa?$AAt?$AAo?$AAr?$AA?$DM?$AAc?$AAl?$AAa?$AAs@ 100d5948     AnnAIController.obj
 0002:00001a10       ??_C@_1CK@EOPGIILJ@?$AAi?$AAn?$AAv?$AAa?$AAl?$AAi?$AAd?$AA?5?$AAn?$AAu?$AAl?$AAl?$AA?5?$AAp?$AAo?$AAi?$AAn?$AAt?$AAe?$AAr?$AA?$AA@ 100d5a10     AnnAIController.obj
 0002:00001a3c       ??_C@_08EPJLHIJG@bad?5cast?$AA@ 100d5a3c     AnnAIController.obj
 0002:00001a48       ??_C@_1CO@DGLIKNHI@?$AAi?$AAn?$AAv?$AAa?$AAl?$AAi?$AAd?$AA?5?$AAi?$AAt?$AAe?$AAr?$AAa?$AAt?$AAo?$AAr?$AA?5?$AAr?$AAa?$AAn?$AAg?$AAe?$AA?$AA@ 100d5a48     AnnAIController.obj
 0002:00001a78       ??_C@_1HG@JNLFGNNC@?$AAD?$AA?3?$AA?2?$AAP?$AAr?$AAo?$AAg?$AAr?$AAa?$AAm?$AA?2?$AAM?$AAi?$AAc?$AAr?$AAo?$AAs?$AAo?$AAf?$AAt?$AA?5?$AAV?$AAi?$AAs?$AAu?$AAa?$AAl?$AA?5?$AAS?$AAt?$AAu?$AAd@ 100d5a78     AnnAIController.obj
 0002:00001af0       __real@00000000            100d5af0     AnnAIController.obj
 0002:00001af8       __real@0000000000000000    100d5af8     AnnAIController.obj
 0002:00001b00       __real@38aa95a5b7f87a0f    100d5b00     AnnAIController.obj
 0002:00001b08       __real@3a6bedfa            100d5b08     AnnAIController.obj
 0002:00001b0c       __real@3a83126f            100d5b0c     AnnAIController.obj
 0002:00001b10       __real@3c1374bc            100d5b10     AnnAIController.obj
 0002:00001b14       __real@3d4ccccd            100d5b14     AnnAIController.obj
 0002:00001b18       __real@3dcccccd            100d5b18     AnnAIController.obj
 0002:00001b1c       __real@3e99999a            100d5b1c     AnnAIController.obj
 0002:00001b20       __real@3f000000            100d5b20     AnnAIController.obj
 0002:00001b24       __real@3f19999a            100d5b24     AnnAIController.obj
 0002:00001b28       __real@3f4ccccd            100d5b28     AnnAIController.obj
 0002:00001b2c       __real@3f59999a            100d5b2c     AnnAIController.obj
 0002:00001b30       __real@3f733333            100d5b30     AnnAIController.obj
 0002:00001b34       __real@3f800000            100d5b34     AnnAIController.obj
 0002:00001b38       __real@3fe0000000000000    100d5b38     AnnAIController.obj
 0002:00001b40       __real@40000000            100d5b40     AnnAIController.obj
 0002:00001b44       __real@40c00000            100d5b44     AnnAIController.obj
 0002:00001b48       __real@41200000            100d5b48     AnnAIController.obj
 0002:00001b50       __real@4202a05f20000000    100d5b50     AnnAIController.obj
 0002:00001b58       __real@42700000            100d5b58     AnnAIController.obj
 0002:00001b5c       __real@45610000            100d5b5c     AnnAIController.obj
 0002:00001b60       __real@4733426172c74d82    100d5b60     AnnAIController.obj
 0002:00001b68       __real@4b189680            100d5b68     AnnAIController.obj
 0002:00001b70       __xmm@80000000000000008000000000000000 100d5b70     AnnAIController.obj
 0002:00001b80       __xmm@80000000800000008000000080000000 100d5b80     AnnAIController.obj
 0002:00001ca0       __real@4000000000000000    100d5ca0     cardata.obj
 0002:00001e08       ?UNSTUCK_TIME_LIMIT@Driver@@0MB 100d5e08     driver.obj
 0002:00001e0c       ?MAX_UNSTUCK_SPEED@Driver@@0MB 100d5e0c     driver.obj
 0002:00001e14       ?MIN_UNSTUCK_DIST@Driver@@0MB 100d5e14     driver.obj
 0002:00001e18       ?G@Driver@@0MB             100d5e18     driver.obj
 0002:00001e1c       ?FULL_ACCEL_MARGIN@Driver@@0MB 100d5e1c     driver.obj
 0002:00001e20       ?SHIFT@Driver@@0MB         100d5e20     driver.obj
 0002:00001e24       ?SHIFT_MARGIN@Driver@@0MB  100d5e24     driver.obj
 0002:00001e28       ?ABS_SLIP@Driver@@0MB      100d5e28     driver.obj
 0002:00001e2c       ?ABS_RANGE@Driver@@0MB     100d5e2c     driver.obj
 0002:00001e30       ?ABS_MINSPEED@Driver@@0MB  100d5e30     driver.obj
 0002:00001e34       ?TCL_SLIP@Driver@@0MB      100d5e34     driver.obj
 0002:00001e38       ?LOOKAHEAD_CONST@Driver@@0MB 100d5e38     driver.obj
 0002:00001e3c       ?LOOKAHEAD_FACTOR@Driver@@0MB 100d5e3c     driver.obj
 0002:00001e40       ?WIDTHDIV@Driver@@0MB      100d5e40     driver.obj
 0002:00001e44       ?SIDECOLL_MARGIN@Driver@@0MB 100d5e44     driver.obj
 0002:00001e48       ?BORDER_OVERTAKE_MARGIN@Driver@@0MB 100d5e48     driver.obj
 0002:00001e4c       ?OVERTAKE_OFFSET_SPEED@Driver@@0MB 100d5e4c     driver.obj
 0002:00001e50       ?PIT_LOOKAHEAD@Driver@@0MB 100d5e50     driver.obj
 0002:00001e54       ?PIT_BRAKE_AHEAD@Driver@@0MB 100d5e54     driver.obj
 0002:00001e58       ?PIT_MU@Driver@@0MB        100d5e58     driver.obj
 0002:00001e5c       ?MAX_SPEED@Driver@@0MB     100d5e5c     driver.obj
 0002:00001e60       ?TCL_RANGE@Driver@@0MB     100d5e60     driver.obj
 0002:00001e64       ?MAX_FUEL_PER_METER@Driver@@0MB 100d5e64     driver.obj
 0002:00001e68       ?CLUTCH_SPEED@Driver@@0MB  100d5e68     driver.obj
 0002:00001e6c       ?CENTERDIV@Driver@@0MB     100d5e6c     driver.obj
 0002:00001e70       ?DISTCUTOFF@Driver@@0MB    100d5e70     driver.obj
 0002:00001e74       ?MAX_INC_FACTOR@Driver@@0MB 100d5e74     driver.obj
 0002:00001e78       ?CATCH_FACTOR@Driver@@0MB  100d5e78     driver.obj
 0002:00001e7c       ?CLUTCH_FULL_MAX_TIME@Driver@@0MB 100d5e7c     driver.obj
 0002:00001e80       ?USE_LEARNED_OFFSET_RANGE@Driver@@0MB 100d5e80     driver.obj
 0002:00001e84       ?TEAM_REAR_DIST@Driver@@0MB 100d5e84     driver.obj
 0002:00001e88       ?TEAM_DAMAGE_CHANGE_LEAD@Driver@@0HB 100d5e88     driver.obj
 0002:00002018       ??_7SimpleStrategy2@@6B@   100d6018     driver.obj
 0002:00002038       __real@3ca3d70a            100d6038     driver.obj
 0002:0000203c       __real@3e4ccccd            100d603c     driver.obj
 0002:00002040       __real@3f251eb8            100d6040     driver.obj
 0002:00002044       __real@3f30a3d7            100d6044     driver.obj
 0002:00002048       __real@3f947ae147ae147b    100d6048     driver.obj
 0002:00002050       __real@3f9d70a4            100d6050     driver.obj
 0002:00002058       __real@3fb5555560000000    100d6058     driver.obj
 0002:00002060       __real@3fc00000            100d6060     driver.obj
 0002:00002068       __real@3ff0000000000000    100d6068     driver.obj
 0002:00002070       __real@40800000            100d6070     driver.obj
 0002:00002074       __real@41f00000            100d6074     driver.obj
 0002:00002078       __real@42b40000            100d6078     driver.obj
 0002:0000207c       __real@42c80000            100d607c     driver.obj
 0002:00002080       __real@447a0000            100d6080     driver.obj
 0002:00002084       __real@7f7fffff            100d6084     driver.obj
 0002:00002088       __real@bf800000            100d6088     driver.obj
 0002:0000208c       __real@c0400000            100d608c     driver.obj
 0002:00002090       __real@c1f00000            100d6090     driver.obj
 0002:00002094       __real@c2700000            100d6094     driver.obj
 0002:00002098       __real@c2b40000            100d6098     driver.obj
 0002:0000209c       __real@c47a0000            100d609c     driver.obj
 0002:00002138       ?PATHERR@MyCar@@2NB        100d6138     mycar.obj
 0002:00002140       ?CORRLEN@MyCar@@2NB        100d6140     mycar.obj
 0002:00002148       ?TURNTOL@MyCar@@2NB        100d6148     mycar.obj
 0002:00002150       ?TURNSPEED@MyCar@@2NB      100d6150     mycar.obj
 0002:00002158       ?MARGIN@MyCar@@2NB         100d6158     mycar.obj
 0002:00002160       ?STABLESPEED@MyCar@@2NB    100d6160     mycar.obj
 0002:00002168       ?TIMETOCATCH@MyCar@@2NB    100d6168     mycar.obj
 0002:00002170       ?MINOVERTAKERANGE@MyCar@@2NB 100d6170     mycar.obj
 0002:00002178       ?OVERTAKERADIUS@MyCar@@2NB 100d6178     mycar.obj
 0002:00002180       ?OVERTAKEDIST@MyCar@@2NB   100d6180     mycar.obj
 0002:00002188       ?OVERTAKEMINDIST@MyCar@@2NB 100d6188     mycar.obj
 0002:00002190       ?OVERTAKEANGLE@MyCar@@2NB  100d6190     mycar.obj
 0002:00002198       ?OVERTAKEMARGIN@MyCar@@2NB 100d6198     mycar.obj
 0002:000021a0       ?MAXALLOWEDPITCH@MyCar@@2NB 100d61a0     mycar.obj
 0002:000021a8       ?FLYSPEED@MyCar@@2NB       100d61a8     mycar.obj
 0002:000021b0       ?OVERLAPSTARTDIST@MyCar@@2NB 100d61b0     mycar.obj
 0002:000021b8       ?OVERLAPPASSDIST@MyCar@@2NB 100d61b8     mycar.obj
 0002:000021c0       ?OVERLAPWAITTIME@MyCar@@2NB 100d61c0     mycar.obj
 0002:000021c8       ?LAPBACKTIMEPENALTY@MyCar@@2NB 100d61c8     mycar.obj
 0002:000021d0       ?TCL_SLIP@MyCar@@2NB       100d61d0     mycar.obj
 0002:000021d8       ?TCL_RANGE@MyCar@@2NB      100d61d8     mycar.obj
 0002:000021e0       ?SHIFT@MyCar@@2NB          100d61e0     mycar.obj
 0002:000021e8       ?SHIFT_MARGIN@MyCar@@2NB   100d61e8     mycar.obj
 0002:000021f8       ?MAX_SPEED@MyCar@@2NB      100d61f8     mycar.obj
 0002:00002200       ?MAX_FUEL_PER_METER@MyCar@@2NB 100d6200     mycar.obj
 0002:00002208       ?LOOKAHEAD_MAX_ERROR@MyCar@@2NB 100d6208     mycar.obj
 0002:00002210       ?LOOKAHEAD_FACTOR@MyCar@@2NB 100d6210     mycar.obj
 0002:00002404       ??_C@_09KBFOLGED@GC?5height?$AA@ 100d6404     mycar.obj
 0002:00002410       ??_C@_03DAGGNFD@Car?$AA@   100d6410     mycar.obj
 0002:00002418       __real@3f847ae147ae147b    100d6418     mycar.obj
 0002:00002420       __real@3fb999999999999a    100d6420     mycar.obj
 0002:00002428       __real@3fc999999999999a    100d6428     mycar.obj
 0002:00002430       __real@3fcccccd            100d6430     mycar.obj
 0002:00002438       __real@3fdd70a3d70a3d71    100d6438     mycar.obj
 0002:00002440       __real@3fe4000000000000    100d6440     mycar.obj
 0002:00002448       __real@3feccccccccccccd    100d6448     mycar.obj
 0002:00002450       __real@3fee666666666666    100d6450     mycar.obj
 0002:00002458       __real@3fef5c28f5c28f5c    100d6458     mycar.obj
 0002:00002460       __real@3ff199999999999a    100d6460     mycar.obj
 0002:00002468       __real@3ff3333333333333    100d6468     mycar.obj
 0002:00002470       __real@3ff3ae147ae147ae    100d6470     mycar.obj
 0002:00002478       __real@3ff4cccccccccccd    100d6478     mycar.obj
 0002:00002480       __real@3ff8000000000000    100d6480     mycar.obj
 0002:00002488       __real@3ff999999999999a    100d6488     mycar.obj
 0002:00002490       __real@4010000000000000    100d6490     mycar.obj
 0002:00002498       __real@4014000000000000    100d6498     mycar.obj
 0002:000024a0       __real@402e000000000000    100d64a0     mycar.obj
 0002:000024a8       __real@4034000000000000    100d64a8     mycar.obj
 0002:000024b0       __real@4039000000000000    100d64b0     mycar.obj
 0002:000024b8       __real@4046800000000000    100d64b8     mycar.obj
 0002:000024c0       __real@43340000            100d64c0     mycar.obj
 0002:000024c8       __real@47efffffe0000000    100d64c8     mycar.obj
 0002:000024d0       __real@bff0000000000000    100d64d0     mycar.obj
 0002:000024d8       __real@c008000000000000    100d64d8     mycar.obj
 0002:000024e4       ??_7Neuron@@6B@            100d64e4     NeuralLayer.obj
 0002:000024ec       ??_7NeuralLayer@@6B@       100d64ec     NeuralLayer.obj
 0002:000024f0       ??_C@_1KC@PBBINCGB@?$AAs?$AAt?$AAd?$AA?3?$AA?3?$AAv?$AAe?$AAc?$AAt?$AAo?$AAr?$AA?$DM?$AAs?$AAt?$AAr?$AAu?$AAc?$AAt?$AA?5?$AAN?$AAe?$AAu?$AAr?$AAo?$AAn?$AA?5?$AA?$CK?$AA?0?$AAc?$AAl?$AAa?$AAs@ 100d64f0     NeuralLayer.obj
 0002:00002594       __real@46fffe00            100d6594     NeuralLayer.obj
 0002:00002598       __real@47c34ff3            100d6598     NeuralLayer.obj
 0002:000025b4       ??_7NeuralNetwork@@6B@     100d65b4     NeuralNetwork.obj
 0002:000025b8       ??_C@_1KK@GHDIDJBF@?$AAs?$AAt?$AAd?$AA?3?$AA?3?$AAv?$AAe?$AAc?$AAt?$AAo?$AAr?$AA?$DM?$AAc?$AAl?$AAa?$AAs?$AAs?$AA?5?$AAN?$AAe?$AAu?$AAr?$AAa?$AAl?$AAL?$AAa?$AAy?$AAe?$AAr?$AA?0?$AAc?$AAl@ 100d65b8     NeuralNetwork.obj
 0002:00002668       ??_C@_1NM@MMLFNMCL@?$AAs?$AAt?$AAd?$AA?3?$AA?3?$AA_?$AAV?$AAe?$AAc?$AAt?$AAo?$AAr?$AA_?$AAc?$AAo?$AAn?$AAs?$AAt?$AA_?$AAi?$AAt?$AAe?$AAr?$AAa?$AAt?$AAo?$AAr?$AA?$DM?$AAc?$AAl?$AAa?$AAs@ 100d6668     NeuralNetwork.obj
 0002:00002748       ??_C@_1NO@EFHKFELJ@?$AAs?$AAt?$AAd?$AA?3?$AA?3?$AA_?$AAV?$AAe?$AAc?$AAt?$AAo?$AAr?$AA_?$AAc?$AAo?$AAn?$AAs?$AAt?$AA_?$AAi?$AAt?$AAe?$AAr?$AAa?$AAt?$AAo?$AAr?$AA?$DM?$AAc?$AAl?$AAa?$AAs@ 100d6748     NeuralNetwork.obj
 0002:00002828       ??_C@_1NG@OOHAEEHO@?$AAs?$AAt?$AAd?$AA?3?$AA?3?$AA_?$AAV?$AAe?$AAc?$AAt?$AAo?$AAr?$AA_?$AAc?$AAo?$AAn?$AAs?$AAt?$AA_?$AAi?$AAt?$AAe?$AAr?$AAa?$AAt?$AAo?$AAr?$AA?$DM?$AAc?$AAl?$AAa?$AAs@ 100d6828     NeuralNetwork.obj
 0002:00002900       __real@359d08e5            100d6900     NeuralNetwork.obj
 0002:0000290c       ?FRONTCOLLDIST@Opponent@@0MB 100d690c     opponent.obj
 0002:00002910       ?BACKCOLLDIST@Opponent@@0MB 100d6910     opponent.obj
 0002:00002914       ?LENGTH_MARGIN@Opponent@@0MB 100d6914     opponent.obj
 0002:00002918       ?SIDE_MARGIN@Opponent@@0MB 100d6918     opponent.obj
 0002:0000291c       ?EXACT_DIST@Opponent@@0MB  100d691c     opponent.obj
 0002:00002920       ?LAP_BACK_TIME_PENALTY@Opponent@@0MB 100d6920     opponent.obj
 0002:00002924       ?OVERLAP_WAIT_TIME@Opponent@@0MB 100d6924     opponent.obj
 0002:00002928       ?SPEED_PASS_MARGIN@Opponent@@0MB 100d6928     opponent.obj
 0002:00002938       ?COLLDIST@Pathfinder@@0NB  100d6938     pathfinder.obj
 0002:000029f0       __real@3e112e0be826d695    100d69f0     pathfinder.obj
 0002:000029f8       __real@3f1a36e2eb1c432d    100d69f8     pathfinder.obj
 0002:00002a00       __real@4008000000000000    100d6a00     pathfinder.obj
 0002:00002a08       __real@401e000000000000    100d6a08     pathfinder.obj
 0002:00002a10       __real@4066800000000000    100d6a10     pathfinder.obj
 0002:00002a18       __real@407c200000000000    100d6a18     pathfinder.obj
 0002:00002a20       __real@407f400000000000    100d6a20     pathfinder.obj
 0002:00002a28       __real@4089000000000000    100d6a28     pathfinder.obj
 0002:00002a30       __real@408f400000000000    100d6a30     pathfinder.obj
 0002:00002a38       __real@40c3880000000000    100d6a38     pathfinder.obj
 0002:00002a44       ?SPEED_LIMIT_MARGIN@Pit@@0MB 100d6a44     pit.obj
 0002:00002a50       __real@40400000            100d6a50     pit.obj
 0002:00002a58       __real@4049000000000000    100d6a58     pit.obj
 0002:00002a74       ?MAX_FUEL_PER_METER@SimpleStrategy@@1MB 100d6a74     strategy.obj
 0002:00002a78       ?PIT_DAMMAGE@SimpleStrategy@@1HB 100d6a78     strategy.obj
 0002:00002b40       ??_7AbstractStrategy@@6B@  100d6b40     strategy.obj
 0002:00002b60       ??_7SimpleStrategy@@6B@    100d6b60     strategy.obj
 0002:00002b7c       __real@41000000            100d6b7c     strategy.obj
 0002:00002b80       __real@41c80000            100d6b80     strategy.obj
 0002:00002b84       __real@42ae0000            100d6b84     strategy.obj
 0002:00002be8       __real@4018000000000000    100d6be8     trackdesc.obj
 0002:00002bf8       __real@404ca5dc1a63c1f8    100d6bf8     sg_vs2008_32:sgd.obj
 0002:00002c00       __real@3f91df46a2529d39    100d6c00     sg_vs2008_32:sgd.obj
 0002:00002c08       __real@4022d97c7f3321d2    100d6c08     sg_vs2008_32:sgd.obj
 0002:00002c10       __real@400921fb54442d18    100d6c10     sg_vs2008_32:sgd.obj
 0002:00002c18       __real@401921fb54442d18    100d6c18     sg_vs2008_32:sgd.obj
 0002:00002c20       __real@3ff921fb54442d18    100d6c20     sg_vs2008_32:sgd.obj
 0002:00002c28       __real@3fefffeb074a771d    100d6c28     sg_vs2008_32:sgd.obj
 0002:00002c30       __real@bff921fb54442d18    100d6c30     sg_vs2008_32:sgd.obj
 0002:00002c38       __real@bfefffeb074a771d    100d6c38     sg_vs2008_32:sgd.obj
 0002:00002c40       ??_C@_0CL@MFADICKC@sgdGetAngleBetweenVectors?3?5Norma@ 100d6c40     sg_vs2008_32:sgd.obj
 0002:00002c70       __real@c000000000000000    100d6c70     sg_vs2008_32:sgd.obj
 0002:00002c78       ??_C@_0ED@LKGOFPEJ@sgFrustum?3?5Can?8t?5support?5fields?5@ 100d6c78     sg_vs2008_32:sgd.obj
 0002:00002cbc       ??_C@_0DF@MFOAFILF@sgFrustum?3?5Can?8t?5support?5width?5o@ 100d6cbc     sg_vs2008_32:sgd.obj
 0002:00002cf4       ??_C@_0DE@FLABMHND@sgdFrustum?3?5Can?8t?5support?5depth?5@ 100d6cf4     sg_vs2008_32:sgd.obj
 0002:00002d28       __real@bee4f8b588e368f1    100d6d28     sg_vs2008_32:sgd.obj
 0002:00002d30       ??_C@_0CE@HBHLABFJ@sgdMat4ToCoord?3?5ERROR?5?9?5Bad?5Matr@ 100d6d30     sg_vs2008_32:sgd.obj
 0002:00002d58       __real@3ee4f8b588e368f1    100d6d58     sg_vs2008_32:sgd.obj
 0002:00002d60       ??_C@_0CJ@BEEFNIHJ@sg?3?5ERROR?5?9?5Singular?5matrix?0?5no?5@ 100d6d60     sg_vs2008_32:sgd.obj
 0002:00002d90       __real@3cb0000000000000    100d6d90     sg_vs2008_32:sgd.obj
 0002:00002d98       __real@c04ca5dc1a63c1f8    100d6d98     sg_vs2008_32:sgd.obj
 0002:00002da0       __real@3feffffde7210be9    100d6da0     sg_vs2008_32:sgd.obj
 0002:00002da8       __real@3eb0c6f7a0b5ed8d    100d6da8     sg_vs2008_32:sgd.obj
 0002:00002db0       __real@404e000000000000    100d6db0     sg_vs2008_32:sgd.obj
 0002:00002db8       __real@4056800000000000    100d6db8     sg_vs2008_32:sgd.obj
 0002:00002dc0       ??_C@_05JLFELJNP@FATAL?$AA@ 100d6dc0     ul_vs2008_32:ulError.obj
 0002:00002dc8       ??_C@_07KCOHIFOP@WARNING?$AA@ 100d6dc8     ul_vs2008_32:ulError.obj
 0002:00002dd0       ??_C@_05KOLFGEDA@DEBUG?$AA@ 100d6dd0     ul_vs2008_32:ulError.obj
 0002:00002ddc       ??_C@_07KJFPOMFC@?$CFs?3?5?$CFs?6?$AA@ 100d6ddc     ul_vs2008_32:ulError.obj
 0002:00002de4       ?_VBITS@?$vector@_NV?$allocator@_N@std@@@std@@2HB 100d6de4     libcpmtd:xthrow.obj
 0002:00002de8       ?value@?$integral_constant@H$0A@@std@@2HB 100d6de8     libcpmtd:xthrow.obj
 0002:00002df0       ?_Names@?$_Regex_traits@D@std@@0QBU?$_Cl_names@D@2@B 100d6df0     libcpmtd:xthrow.obj
 0002:00002eb0       ??_C@_05IIMHCHIO@alnum?$AA@ 100d6eb0     libcpmtd:xthrow.obj
 0002:00002eb8       ??_C@_05IAEKHIAN@alpha?$AA@ 100d6eb8     libcpmtd:xthrow.obj
 0002:00002ec0       ??_C@_05BABJKOGB@blank?$AA@ 100d6ec0     libcpmtd:xthrow.obj
 0002:00002ec8       ??_C@_05JMDPEFNK@cntrl?$AA@ 100d6ec8     libcpmtd:xthrow.obj
 0002:00002ed0       ??_C@_01LPLHEDKD@d?$AA@    100d6ed0     libcpmtd:xthrow.obj
 0002:00002ed4       ??_C@_05ODNOIFML@digit?$AA@ 100d6ed4     libcpmtd:xthrow.obj
 0002:00002edc       ??_C@_05KCJBMLII@graph?$AA@ 100d6edc     libcpmtd:xthrow.obj
 0002:00002ee4       ??_C@_05IPJEPLHL@lower?$AA@ 100d6ee4     libcpmtd:xthrow.obj
 0002:00002eec       ??_C@_05IJDJACGD@print?$AA@ 100d6eec     libcpmtd:xthrow.obj
 0002:00002ef4       ??_C@_05KOBGHFJJ@punct?$AA@ 100d6ef4     libcpmtd:xthrow.obj
 0002:00002efc       ??_C@_05OLNILLAB@space?$AA@ 100d6efc     libcpmtd:xthrow.obj
 0002:00002f04       ??_C@_01LKDEMHDF@s?$AA@    100d6f04     libcpmtd:xthrow.obj
 0002:00002f08       ??_C@_05NECKJAMC@upper?$AA@ 100d6f08     libcpmtd:xthrow.obj
 0002:00002f10       ??_C@_01NOFIACDB@w?$AA@    100d6f10     libcpmtd:xthrow.obj
 0002:00002f14       ??_C@_06BAPHGFFK@xdigit?$AA@ 100d6f14     libcpmtd:xthrow.obj
 0002:00002f20       ?_Names@?$_Regex_traits@_W@std@@0QBU?$_Cl_names@_W@2@B 100d6f20     libcpmtd:xthrow.obj
 0002:00002fe0       ??_C@_1M@KLMEPMCM@?$AAa?$AAl?$AAn?$AAu?$AAm?$AA?$AA@ 100d6fe0     libcpmtd:xthrow.obj
 0002:00002fec       ??_C@_1M@DHGLHBMI@?$AAa?$AAl?$AAp?$AAh?$AAa?$AA?$AA@ 100d6fec     libcpmtd:xthrow.obj
 0002:00002ff8       ??_C@_1M@EJAAJBPE@?$AAb?$AAl?$AAa?$AAn?$AAk?$AA?$AA@ 100d6ff8     libcpmtd:xthrow.obj
 0002:00003004       ??_C@_1M@LMIMILA@?$AAc?$AAn?$AAt?$AAr?$AAl?$AA?$AA@ 100d7004     libcpmtd:xthrow.obj
 0002:00003010       ??_C@_13GKPPEALH@?$AAd?$AA?$AA@ 100d7010     libcpmtd:xthrow.obj
 0002:00003014       ??_C@_1M@JDAEIBKG@?$AAd?$AAi?$AAg?$AAi?$AAt?$AA?$AA@ 100d7014     libcpmtd:xthrow.obj
 0002:00003020       ??_C@_1M@MDKNJLLK@?$AAg?$AAr?$AAa?$AAp?$AAh?$AA?$AA@ 100d7020     libcpmtd:xthrow.obj
 0002:0000302c       ??_C@_1M@LGAECJJD@?$AAl?$AAo?$AAw?$AAe?$AAr?$AA?$AA@ 100d702c     libcpmtd:xthrow.obj
 0002:00003038       ??_C@_1M@ELNLAPLA@?$AAp?$AAr?$AAi?$AAn?$AAt?$AA?$AA@ 100d7038     libcpmtd:xthrow.obj
 0002:00003044       ??_C@_1M@BPFMAOAO@?$AAp?$AAu?$AAn?$AAc?$AAt?$AA?$AA@ 100d7044     libcpmtd:xthrow.obj
 0002:00003050       ??_C@_1M@LPGODFOM@?$AAs?$AAp?$AAa?$AAc?$AAe?$AA?$AA@ 100d7050     libcpmtd:xthrow.obj
 0002:0000305c       ??_C@_13KHDBCPJB@?$AAs?$AA?$AA@ 100d705c     libcpmtd:xthrow.obj
 0002:00003060       ??_C@_1M@PLNFCNIC@?$AAu?$AAp?$AAp?$AAe?$AAr?$AA?$AA@ 100d7060     libcpmtd:xthrow.obj
 0002:0000306c       ??_C@_13CIFDLIMG@?$AAw?$AA?$AA@ 100d706c     libcpmtd:xthrow.obj
 0002:00003070       ??_C@_1O@OAFMJDHN@?$AAx?$AAd?$AAi?$AAg?$AAi?$AAt?$AA?$AA@ 100d7070     libcpmtd:xthrow.obj
 0002:00003084       ??_7bad_alloc@std@@6B@     100d7084     libcpmtd:xthrow.obj
 0002:0000308c       ??_C@_0P@GHFPNOJB@bad?5allocation?$AA@ 100d708c     libcpmtd:xthrow.obj
 0002:000030a0       ??_7logic_error@std@@6B@   100d70a0     libcpmtd:xthrow.obj
 0002:000030ac       ??_7invalid_argument@std@@6B@ 100d70ac     libcpmtd:xthrow.obj
 0002:000030b8       ??_7length_error@std@@6B@  100d70b8     libcpmtd:xthrow.obj
 0002:000030c4       ??_7out_of_range@std@@6B@  100d70c4     libcpmtd:xthrow.obj
 0002:000030d0       ??_7overflow_error@std@@6B@ 100d70d0     libcpmtd:xthrow.obj
 0002:000030dc       ??_7bad_function_call@std@@6B@ 100d70dc     libcpmtd:xthrow.obj
 0002:000030e4       ??_C@_0BC@DPJNKNAF@bad?5function?5call?$AA@ 100d70e4     libcpmtd:xthrow.obj
 0002:000030fc       ??_7regex_error@std@@6B@   100d70fc     libcpmtd:xthrow.obj
 0002:00003108       ??_C@_0FI@CMNGHIFF@regex_error?$CIerror_collate?$CJ?3?5The?5@ 100d7108     libcpmtd:xthrow.obj
 0002:00003160       ??_C@_0FE@LJMHKIOC@regex_error?$CIerror_ctype?$CJ?3?5The?5ex@ 100d7160     libcpmtd:xthrow.obj
 0002:000031b8       ??_C@_0GI@HEGGMMDL@regex_error?$CIerror_escape?$CJ?3?5The?5e@ 100d71b8     libcpmtd:xthrow.obj
 0002:00003220       ??_C@_0FA@HFMLPGNN@regex_error?$CIerror_backref?$CJ?3?5The?5@ 100d7220     libcpmtd:xthrow.obj
 0002:00003270       ??_C@_0EH@LGEANNAL@regex_error?$CIerror_brack?$CJ?3?5The?5ex@ 100d7270     libcpmtd:xthrow.obj
 0002:000032b8       ??_C@_0EH@CAGOJGLE@regex_error?$CIerror_paren?$CJ?3?5The?5ex@ 100d72b8     libcpmtd:xthrow.obj
 0002:00003300       ??_C@_0EH@DICJJKLO@regex_error?$CIerror_brace?$CJ?3?5The?5ex@ 100d7300     libcpmtd:xthrow.obj
 0002:00003348       ??_C@_0FM@BLDIHIBB@regex_error?$CIerror_badbrace?$CJ?3?5The@ 100d7348     libcpmtd:xthrow.obj
 0002:000033a8       ??_C@_0HA@ICNJLCMC@regex_error?$CIerror_range?$CJ?3?5The?5ex@ 100d73a8     libcpmtd:xthrow.obj
 0002:00003418       ??_C@_0GP@PICOBCHA@regex_error?$CIerror_space?$CJ?3?5There?5@ 100d7418     libcpmtd:xthrow.obj
 0002:00003488       ??_C@_0FK@LCHHHEOA@regex_error?$CIerror_badrepeat?$CJ?3?5On@ 100d7488     libcpmtd:xthrow.obj
 0002:000034e8       ??_C@_0HL@NEKOFBJA@regex_error?$CIerror_complexity?$CJ?3?5T@ 100d74e8     libcpmtd:xthrow.obj
 0002:00003568       ??_C@_0JC@HCDLJLGO@regex_error?$CIerror_stack?$CJ?3?5There?5@ 100d7568     libcpmtd:xthrow.obj
 0002:000035fc       ??_C@_0BJ@CHBLKGNM@regex_error?$CIerror_parse?$CJ?$AA@ 100d75fc     libcpmtd:xthrow.obj
 0002:00003618       ??_C@_0BK@DFJCACNI@regex_error?$CIerror_syntax?$CJ?$AA@ 100d7618     libcpmtd:xthrow.obj
 0002:00003634       ??_C@_0M@KGKAAGCA@regex_error?$AA@ 100d7634     libcpmtd:xthrow.obj
 0002:00003640       ??_C@_1FO@BEGKGBFG@?$AAf?$AA?3?$AA?2?$AAd?$AAd?$AA?2?$AAv?$AAc?$AAt?$AAo?$AAo?$AAl?$AAs?$AA?2?$AAc?$AAr?$AAt?$AA_?$AAb?$AAl?$AAd?$AA?2?$AAs?$AAe?$AAl?$AAf?$AA_?$AAx?$AA8?$AA6?$AA?2?$AAc@ 100d7640     libcpmtd:xthrow.obj
 0002:000036a0       ??_C@_0DC@CFILDBAI@f?3?2dd?2vctools?2crt_bld?2self_x86?2c@ 100d76a0     libcpmtd:_tolower.obj
 0002:000036d4       ??_C@_0DD@IMKCHGBE@f?3?2dd?2vctools?2crt_bld?2self_x86?2c@ 100d76d4     libcpmtd:locale0.obj
 0002:0000370c       ??_7_Locimp@locale@std@@6B@ 100d770c     libcpmtd:locale0.obj
 0002:00003718       ??_C@_01NBENCBCI@?$CK?$AA@ 100d7718     libcpmtd:locale0.obj
 0002:0000371c       ??_C@_01GFHCPBMG@C?$AA@    100d771c     libcpmtd:locale0.obj
 0002:00003720       ??_C@_0DA@CHOJEIKD@f?3?2dd?2vctools?2crt_bld?2self_x86?2c@ 100d7720     libcpmtd:locale0.obj
 0002:00003c28       ??_C@_0BC@CIJDGCDI@permission?5denied?$AA@ 100d7c28     libcpmtd:syserror.obj
 0002:00003c3c       ??_C@_0M@MIDIAGJP@file?5exists?$AA@ 100d7c3c     libcpmtd:syserror.obj
 0002:00003c48       ??_C@_0P@FDINDDOK@no?5such?5device?$AA@ 100d7c48     libcpmtd:syserror.obj
 0002:00003c58       ??_C@_0BC@EJHOMAAK@filename?5too?5long?$AA@ 100d7c58     libcpmtd:syserror.obj
 0002:00003c6c       ??_C@_0BI@NGCEHDD@device?5or?5resource?5busy?$AA@ 100d7c6c     libcpmtd:syserror.obj
 0002:00003c84       ??_C@_08GLNPIFBN@io?5error?$AA@ 100d7c84     libcpmtd:syserror.obj
 0002:00003c90       ??_C@_0BE@JIDOCPHM@directory?5not?5empty?$AA@ 100d7c90     libcpmtd:syserror.obj
 0002:00003ca4       ??_C@_0BB@FCMFBGOM@invalid?5argument?$AA@ 100d7ca4     libcpmtd:syserror.obj
 0002:00003cb8       ??_C@_0BD@IJDJKDEA@no?5space?5on?5device?$AA@ 100d7cb8     libcpmtd:syserror.obj
 0002:00003ccc       ??_C@_0BK@NDOCBPGE@no?5such?5file?5or?5directory?$AA@ 100d7ccc     libcpmtd:syserror.obj
 0002:00003ce8       ??_C@_0BH@KEFGLDAF@function?5not?5supported?$AA@ 100d7ce8     libcpmtd:syserror.obj
 0002:00003d00       ??_C@_0BC@NJECKMKE@no?5lock?5available?$AA@ 100d7d00     libcpmtd:syserror.obj
 0002:00003d14       ??_C@_0BC@ENOOLCNF@not?5enough?5memory?$AA@ 100d7d14     libcpmtd:syserror.obj
 0002:00003d28       ??_C@_0BP@LKNGHENJ@resource?5unavailable?5try?5again?$AA@ 100d7d28     libcpmtd:syserror.obj
 0002:00003d48       ??_C@_0BC@PPHBOELF@cross?5device?5link?$AA@ 100d7d48     libcpmtd:syserror.obj
 0002:00003d5c       ??_C@_0BD@MOLBPMEA@operation?5canceled?$AA@ 100d7d5c     libcpmtd:syserror.obj
 0002:00003d70       ??_C@_0BE@GHAFMPAH@too?5many?5files?5open?$AA@ 100d7d70     libcpmtd:syserror.obj
 0002:00003d84       ??_C@_0BC@FNODOBAE@permission_denied?$AA@ 100d7d84     libcpmtd:syserror.obj
 0002:00003d98       ??_C@_0P@LNDJPBFK@address_in_use?$AA@ 100d7d98     libcpmtd:syserror.obj
 0002:00003da8       ??_C@_0BG@IPMGOJF@address_not_available?$AA@ 100d7da8     libcpmtd:syserror.obj
 0002:00003dc0       ??_C@_0BN@LCBDHODA@address_family_not_supported?$AA@ 100d7dc0     libcpmtd:syserror.obj
 0002:00003de0       ??_C@_0BP@FOJJHMCC@connection_already_in_progress?$AA@ 100d7de0     libcpmtd:syserror.obj
 0002:00003e00       ??_C@_0BE@DLHHIBGN@bad_file_descriptor?$AA@ 100d7e00     libcpmtd:syserror.obj
 0002:00003e14       ??_C@_0BD@OJMJDIGI@connection_aborted?$AA@ 100d7e14     libcpmtd:syserror.obj
 0002:00003e28       ??_C@_0BD@NGKCIFEP@connection_refused?$AA@ 100d7e28     libcpmtd:syserror.obj
 0002:00003e3c       ??_C@_0BB@JOANDNCK@connection_reset?$AA@ 100d7e3c     libcpmtd:syserror.obj
 0002:00003e50       ??_C@_0BN@JLJNLKLK@destination_address_required?$AA@ 100d7e50     libcpmtd:syserror.obj
 0002:00003e70       ??_C@_0M@IJGMGFGP@bad_address?$AA@ 100d7e70     libcpmtd:syserror.obj
 0002:00003e7c       ??_C@_0BB@KKNHPPIN@host_unreachable?$AA@ 100d7e7c     libcpmtd:syserror.obj
 0002:00003e90       ??_C@_0BG@DJGBJIIK@operation_in_progress?$AA@ 100d7e90     libcpmtd:syserror.obj
 0002:00003ea8       ??_C@_0M@EGEKIIMP@interrupted?$AA@ 100d7ea8     libcpmtd:syserror.obj
 0002:00003eb4       ??_C@_0BB@FFIHMIPJ@invalid_argument?$AA@ 100d7eb4     libcpmtd:syserror.obj
 0002:00003ec8       ??_C@_0BC@FIFLCHLO@already_connected?$AA@ 100d7ec8     libcpmtd:syserror.obj
 0002:00003edc       ??_C@_0BE@GJJJJDDA@too_many_files_open?$AA@ 100d7edc     libcpmtd:syserror.obj
 0002:00003ef0       ??_C@_0N@HPMLKHPL@message_size?$AA@ 100d7ef0     libcpmtd:syserror.obj
 0002:00003f00       ??_C@_0BC@LEEIKBAL@filename_too_long?$AA@ 100d7f00     libcpmtd:syserror.obj
 0002:00003f14       ??_C@_0N@FCPALPJK@network_down?$AA@ 100d7f14     libcpmtd:syserror.obj
 0002:00003f24       ??_C@_0O@EHNDLHIG@network_reset?$AA@ 100d7f24     libcpmtd:syserror.obj
 0002:00003f34       ??_C@_0BE@JFNJIDNF@network_unreachable?$AA@ 100d7f34     libcpmtd:syserror.obj
 0002:00003f48       ??_C@_0BA@FDIJKJCL@no_buffer_space?$AA@ 100d7f48     libcpmtd:syserror.obj
 0002:00003f58       ??_C@_0BD@JHIHCGKP@no_protocol_option?$AA@ 100d7f58     libcpmtd:syserror.obj
 0002:00003f6c       ??_C@_0O@GBCLHHD@not_connected?$AA@ 100d7f6c     libcpmtd:syserror.obj
 0002:00003f7c       ??_C@_0N@IMHKKLEM@not_a_socket?$AA@ 100d7f7c     libcpmtd:syserror.obj
 0002:00003f8c       ??_C@_0BI@ICEIDKLJ@operation_not_supported?$AA@ 100d7f8c     libcpmtd:syserror.obj
 0002:00003fa4       ??_C@_0BH@KAPBAIJF@protocol_not_supported?$AA@ 100d7fa4     libcpmtd:syserror.obj
 0002:00003fbc       ??_C@_0BE@GAOJJFPC@wrong_protocol_type?$AA@ 100d7fbc     libcpmtd:syserror.obj
 0002:00003fd0       ??_C@_09NCHNLHPG@timed_out?$AA@ 100d7fd0     libcpmtd:syserror.obj
 0002:00003fdc       ??_C@_0BG@GDGHKFDH@operation_would_block?$AA@ 100d7fdc     libcpmtd:syserror.obj
 0002:00003ff4       ??_C@_0BN@LKKBCCDB@address?5family?5not?5supported?$AA@ 100d7ff4     libcpmtd:syserror.obj
 0002:00004014       ??_C@_0P@LDMLAFHI@address?5in?5use?$AA@ 100d8014     libcpmtd:syserror.obj
 0002:00004024       ??_C@_0BG@DHPCNBJB@address?5not?5available?$AA@ 100d8024     libcpmtd:syserror.obj
 0002:0000403c       ??_C@_0BC@DFIBIBIL@already?5connected?$AA@ 100d803c     libcpmtd:syserror.obj
 0002:00004050       ??_C@_0BH@CAKOHOMI@argument?5list?5too?5long?$AA@ 100d8050     libcpmtd:syserror.obj
 0002:00004068       ??_C@_0BH@CGIMPKIM@argument?5out?5of?5domain?$AA@ 100d8068     libcpmtd:syserror.obj
 0002:00004080       ??_C@_0M@KGHGGJGL@bad?5address?$AA@ 100d8080     libcpmtd:syserror.obj
 0002:0000408c       ??_C@_0BE@MPJPGCEO@bad?5file?5descriptor?$AA@ 100d808c     libcpmtd:syserror.obj
 0002:000040a0       ??_C@_0M@PMMIEFCP@bad?5message?$AA@ 100d80a0     libcpmtd:syserror.obj
 0002:000040ac       ??_C@_0M@KPHOFDBE@broken?5pipe?$AA@ 100d80ac     libcpmtd:syserror.obj
 0002:000040b8       ??_C@_0BD@MGNDDEGM@connection?5aborted?$AA@ 100d80b8     libcpmtd:syserror.obj
 0002:000040cc       ??_C@_0BP@KAIHPOGN@connection?5already?5in?5progress?$AA@ 100d80cc     libcpmtd:syserror.obj
 0002:000040ec       ??_C@_0BD@PJLIIJEL@connection?5refused?$AA@ 100d80ec     libcpmtd:syserror.obj
 0002:00004100       ??_C@_0BB@IECNJNOI@connection?5reset?$AA@ 100d8100     libcpmtd:syserror.obj
 0002:00004114       ??_C@_0BN@KDMIFEIP@destination?5address?5required?$AA@ 100d8114     libcpmtd:syserror.obj
 0002:00004134       ??_C@_0BI@BNCLIGPB@executable?5format?5error?$AA@ 100d8134     libcpmtd:syserror.obj
 0002:0000414c       ??_C@_0P@DNAJLBJK@file?5too?5large?$AA@ 100d814c     libcpmtd:syserror.obj
 0002:0000415c       ??_C@_0BB@DHFDFGDM@host?5unreachable?$AA@ 100d815c     libcpmtd:syserror.obj
 0002:00004170       ??_C@_0BD@JPHBMONG@identifier?5removed?$AA@ 100d8170     libcpmtd:syserror.obj
 0002:00004184       ??_C@_0BG@CDNPAGJK@illegal?5byte?5sequence?$AA@ 100d8184     libcpmtd:syserror.obj
 0002:0000419c       ??_C@_0CD@BNPLBMNA@inappropriate?5io?5control?5operati@ 100d819c     libcpmtd:syserror.obj
 0002:000041c0       ??_C@_0N@OHAFKDEK@invalid?5seek?$AA@ 100d81c0     libcpmtd:syserror.obj
 0002:000041d0       ??_C@_0P@FLLDBIDK@is?5a?5directory?$AA@ 100d81d0     libcpmtd:syserror.obj
 0002:000041e0       ??_C@_0N@IFLPBIOP@message?5size?$AA@ 100d81e0     libcpmtd:syserror.obj
 0002:000041f0       ??_C@_0N@KIIEAAIO@network?5down?$AA@ 100d81f0     libcpmtd:syserror.obj
 0002:00004200       ??_C@_0O@FNPDBHEE@network?5reset?$AA@ 100d8200     libcpmtd:syserror.obj
 0002:00004210       ??_C@_0BE@IFNCKGE@network?5unreachable?$AA@ 100d8210     libcpmtd:syserror.obj
 0002:00004224       ??_C@_0BA@PFFCAOFK@no?5buffer?5space?$AA@ 100d8224     libcpmtd:syserror.obj
 0002:00004234       ??_C@_0BB@IEPBLJHK@no?5child?5process?$AA@ 100d8234     libcpmtd:syserror.obj
 0002:00004248       ??_C@_07PLECNNKG@no?5link?$AA@ 100d8248     libcpmtd:syserror.obj
 0002:00004250       ??_C@_0BF@PBGGPKKE@no?5message?5available?$AA@ 100d8250     libcpmtd:syserror.obj
 0002:00004268       ??_C@_0L@EDOLMPAK@no?5message?$AA@ 100d8268     libcpmtd:syserror.obj
 0002:00004274       ??_C@_0BD@EAMBFIDF@no?5protocol?5option?$AA@ 100d8274     libcpmtd:syserror.obj
 0002:00004288       ??_C@_0BE@MKFDAFMP@no?5stream?5resources?$AA@ 100d8288     libcpmtd:syserror.obj
 0002:0000429c       ??_C@_0BK@IMCPHCBI@no?5such?5device?5or?5address?$AA@ 100d829c     libcpmtd:syserror.obj
 0002:000042b8       ??_C@_0BA@ENLPPKBN@no?5such?5process?$AA@ 100d82b8     libcpmtd:syserror.obj
 0002:000042c8       ??_C@_0BA@DOCPFFJG@not?5a?5directory?$AA@ 100d82c8     libcpmtd:syserror.obj
 0002:000042d8       ??_C@_0N@POEIPGGF@not?5a?5socket?$AA@ 100d82d8     libcpmtd:syserror.obj
 0002:000042e8       ??_C@_0N@LGAPMMPI@not?5a?5stream?$AA@ 100d82e8     libcpmtd:syserror.obj
 0002:000042f8       ??_C@_0O@GLMIBBEG@not?5connected?$AA@ 100d82f8     libcpmtd:syserror.obj
 0002:00004308       ??_C@_0O@NHEDABJP@not?5supported?$AA@ 100d8308     libcpmtd:syserror.obj
 0002:00004318       ??_C@_0BG@KDKHOPCO@operation?5in?5progress?$AA@ 100d8318     libcpmtd:syserror.obj
 0002:00004330       ??_C@_0BI@OHIEJAAB@operation?5not?5permitted?$AA@ 100d8330     libcpmtd:syserror.obj
 0002:00004348       ??_C@_0BI@LNEGIFLN@operation?5not?5supported?$AA@ 100d8348     libcpmtd:syserror.obj
 0002:00004360       ??_C@_0BG@OEMDKMEE@operation?5would?5block?$AA@ 100d8360     libcpmtd:syserror.obj
 0002:00004378       ??_C@_0L@BLPOFLNJ@owner?5dead?$AA@ 100d8378     libcpmtd:syserror.obj
 0002:00004384       ??_C@_0P@FNPOCJBE@protocol?5error?$AA@ 100d8384     libcpmtd:syserror.obj
 0002:00004394       ??_C@_0BH@JPPPLHJB@protocol?5not?5supported?$AA@ 100d8394     libcpmtd:syserror.obj
 0002:000043ac       ??_C@_0BG@EICBIHDP@read?5only?5file?5system?$AA@ 100d83ac     libcpmtd:syserror.obj
 0002:000043c4       ??_C@_0BO@BJBOMOEJ@resource?5deadlock?5would?5occur?$AA@ 100d83c4     libcpmtd:syserror.obj
 0002:000043e4       ??_C@_0BE@GOIPJJHG@result?5out?5of?5range?$AA@ 100d83e4     libcpmtd:syserror.obj
 0002:000043f8       ??_C@_0BG@MPLKFPAE@state?5not?5recoverable?$AA@ 100d83f8     libcpmtd:syserror.obj
 0002:00004410       ??_C@_0P@DIIFGFCG@stream?5timeout?$AA@ 100d8410     libcpmtd:syserror.obj
 0002:00004420       ??_C@_0P@IPFDMIFL@text?5file?5busy?$AA@ 100d8420     libcpmtd:syserror.obj
 0002:00004430       ??_C@_09KJPPMAOI@timed?5out?$AA@ 100d8430     libcpmtd:syserror.obj
 0002:0000443c       ??_C@_0BO@HACHBEKI@too?5many?5files?5open?5in?5system?$AA@ 100d843c     libcpmtd:syserror.obj
 0002:0000445c       ??_C@_0P@HCOMKFCC@too?5many?5links?$AA@ 100d845c     libcpmtd:syserror.obj
 0002:0000446c       ??_C@_0BO@EFGOJEF@too?5many?5symbolic?5link?5levels?$AA@ 100d846c     libcpmtd:syserror.obj
 0002:0000448c       ??_C@_0BA@KGKGOOJA@value?5too?5large?$AA@ 100d848c     libcpmtd:syserror.obj
 0002:0000449c       ??_C@_0BE@MIEJDDNH@wrong?5protocol?5type?$AA@ 100d849c     libcpmtd:syserror.obj
 0002:000044b0       ?_BADOFF@std@@3_JB         100d84b0     libcpmtd:ios.obj
 0002:000044b8       ?ProcessDetach@NativeDll@<CrtImplementationDetails>@@0IB 100d84b8     libcpmtd:fiopen.obj
 0002:000044bc       ?ProcessAttach@NativeDll@<CrtImplementationDetails>@@0IB 100d84bc     libcpmtd:fiopen.obj
 0002:000044c0       ?ThreadAttach@NativeDll@<CrtImplementationDetails>@@0IB 100d84c0     libcpmtd:fiopen.obj
 0002:000044c4       ?ThreadDetach@NativeDll@<CrtImplementationDetails>@@0IB 100d84c4     libcpmtd:fiopen.obj
 0002:000044c8       ?ProcessVerifier@NativeDll@<CrtImplementationDetails>@@0IB 100d84c8     libcpmtd:fiopen.obj
 0002:00004508       ??_C@_01KDCPPGHE@r?$AA@    100d8508     libcpmtd:fiopen.obj
 0002:0000450c       ??_C@_01MCMALHOG@a?$AA@    100d850c     libcpmtd:fiopen.obj
 0002:00004510       ??_C@_02JDPG@rb?$AA@       100d8510     libcpmtd:fiopen.obj
 0002:00004514       ??_C@_02GMLFBBN@wb?$AA@    100d8514     libcpmtd:fiopen.obj
 0002:00004518       ??_C@_02BOGAIONP@ab?$AA@   100d8518     libcpmtd:fiopen.obj
 0002:0000451c       ??_C@_02CBLLGHLK@r?$CL?$AA@ 100d851c     libcpmtd:fiopen.obj
 0002:00004520       ??_C@_02CHHAKFFB@w?$CL?$AA@ 100d8520     libcpmtd:fiopen.obj
 0002:00004524       ??_C@_02DPNLHKJD@a?$CL?$AA@ 100d8524     libcpmtd:fiopen.obj
 0002:00004528       ??_C@_03HMFOOINA@r?$CLb?$AA@ 100d8528     libcpmtd:fiopen.obj
 0002:0000452c       ??_C@_03ELIABIOC@w?$CLb?$AA@ 100d852c     libcpmtd:fiopen.obj
 0002:00004530       ??_C@_03DOPCBAKB@a?$CLb?$AA@ 100d8530     libcpmtd:fiopen.obj
 0002:00004570       ??_C@_13BPINEIPE@?$AAr?$AA?$AA@ 100d8570     libcpmtd:fiopen.obj
 0002:00004574       ??_C@_13FNCBLAIF@?$AAa?$AA?$AA@ 100d8574     libcpmtd:fiopen.obj
 0002:00004578       ??_C@_15JJPIMNBO@?$AAr?$AAb?$AA?$AA@ 100d8578     libcpmtd:fiopen.obj
 0002:00004580       ??_C@_15MJDFFMKN@?$AAw?$AAb?$AA?$AA@ 100d8580     libcpmtd:fiopen.obj
 0002:00004588       ??_C@_15BMLKLNCL@?$AAa?$AAb?$AA?$AA@ 100d8588     libcpmtd:fiopen.obj
 0002:00004590       ??_C@_15HPOENKKJ@?$AAr?$AA?$CL?$AA?$AA@ 100d8590     libcpmtd:fiopen.obj
 0002:00004598       ??_C@_15CPCJELBK@?$AAw?$AA?$CL?$AA?$AA@ 100d8598     libcpmtd:fiopen.obj
 0002:000045a0       ??_C@_15PKKGKKJM@?$AAa?$AA?$CL?$AA?$AA@ 100d85a0     libcpmtd:fiopen.obj
 0002:000045a8       ??_C@_17IIOMHMAG@?$AAr?$AA?$CL?$AAb?$AA?$AA@ 100d85a8     libcpmtd:fiopen.obj
 0002:000045b0       ??_C@_17MAAMHCGC@?$AAw?$AA?$CL?$AAb?$AA?$AA@ 100d85b0     libcpmtd:fiopen.obj
 0002:000045b8       ??_C@_17HKNIEKMO@?$AAa?$AA?$CL?$AAb?$AA?$AA@ 100d85b8     libcpmtd:fiopen.obj
 0002:000045c0       ?valid@?1???$_Xfiopen@D@std@@YAPAU_iobuf@@PBDHH@Z@4QBHB 100d85c0     libcpmtd:fiopen.obj
 0002:000045fc       ?valid@?1???$_Xfiopen@_W@std@@YAPAU_iobuf@@PB_WHH@Z@4QBHB 100d85fc     libcpmtd:fiopen.obj
 0002:00004638       ??_C@_1GA@IHNGMCBO@?$AAf?$AA?3?$AA?2?$AAd?$AAd?$AA?2?$AAv?$AAc?$AAt?$AAo?$AAo?$AAl?$AAs?$AA?2?$AAc?$AAr?$AAt?$AA_?$AAb?$AAl?$AAd?$AA?2?$AAs?$AAe?$AAl?$AAf?$AA_?$AAx?$AA8?$AA6?$AA?2?$AAc@ 100d8638     libcpmtd:cout.obj
 0002:00004698       ??_C@_0CP@LEEPMKCL@f?3?2dd?2vctools?2crt_bld?2self_x86?2c@ 100d8698     libcpmtd:cout.obj
 0002:000046c8       ??_C@_1FO@KFIODINN@?$AAf?$AA?3?$AA?2?$AAd?$AAd?$AA?2?$AAv?$AAc?$AAt?$AAo?$AAo?$AAl?$AAs?$AA?2?$AAc?$AAr?$AAt?$AA_?$AAb?$AAl?$AAd?$AA?2?$AAs?$AAe?$AAl?$AAf?$AA_?$AAx?$AA8?$AA6?$AA?2?$AAc@ 100d86c8     libcpmtd:cout.obj
 0002:00004728       ??_C@_0DA@FCNFFIFI@f?3?2dd?2vctools?2crt_bld?2self_x86?2c@ 100d8728     libcpmtd:cout.obj
 0002:00004758       ??_C@_0DB@KHHNBPEF@f?3?2dd?2vctools?2crt_bld?2self_x86?2c@ 100d8758     libcpmtd:cout.obj
 0002:0000478c       ??_C@_0CP@DHACMIIK@f?3?2dd?2vctools?2crt_bld?2self_x86?2c@ 100d878c     libcpmtd:locale.obj
 0002:000047bc       ??_C@_0DC@IJMBCCEI@f?3?2dd?2vctools?2crt_bld?2self_x86?2c@ 100d87bc     libcpmtd:locale.obj
 0002:000047f4       ??_7?$num_get@DV?$istreambuf_iterator@DU?$char_traits@D@std@@@std@@@std@@6B@ 100d87f4     libcpmtd:locale.obj
 0002:00004830       ??_C@_1FO@JNMDFBMN@?$AAf?$AA?3?$AA?2?$AAd?$AAd?$AA?2?$AAv?$AAc?$AAt?$AAo?$AAo?$AAl?$AAs?$AA?2?$AAc?$AAr?$AAt?$AA_?$AAb?$AAl?$AAd?$AA?2?$AAs?$AAe?$AAl?$AAf?$AA_?$AAx?$AA8?$AA6?$AA?2?$AAc@ 100d8830     libcpmtd:locale.obj
 0002:00004890       ?_Src@?1??_Getifld@?$num_get@DV?$istreambuf_iterator@DU?$char_traits@D@std@@@std@@@std@@ABAHPADAAV?$istreambuf_iterator@DU?$char_traits@D@std@@@3@1HABVlocale@3@@Z@4QBDB 100d8890     libcpmtd:locale.obj
 0002:000048ac       ?_Src@?3??_Getffld@?$num_get@DV?$istreambuf_iterator@DU?$char_traits@D@std@@@std@@@std@@ABAHPADAAV?$istreambuf_iterator@DU?$char_traits@D@std@@@3@1AAVios_base@3@PAH@Z@4QBDB 100d88ac     libcpmtd:locale.obj
 0002:000048bc       ?_Src@?1??_Getffldx@?$num_get@DV?$istreambuf_iterator@DU?$char_traits@D@std@@@std@@@std@@ABAHPADAAV?$istreambuf_iterator@DU?$char_traits@D@std@@@3@1AAVios_base@3@PAH@Z@4QBDB 100d88bc     libcpmtd:locale.obj
 0002:000048e0       ??_C@_1GC@EBHADPFJ@?$AAf?$AA?3?$AA?2?$AAd?$AAd?$AA?2?$AAv?$AAc?$AAt?$AAo?$AAo?$AAl?$AAs?$AA?2?$AAc?$AAr?$AAt?$AA_?$AAb?$AAl?$AAd?$AA?2?$AAs?$AAe?$AAl?$AAf?$AA_?$AAx?$AA8?$AA6?$AA?2?$AAc@ 100d88e0     libcpmtd:locale.obj
 0002:00004948       ??_C@_1FE@NIBPPHHA@?$AAi?$AAs?$AAt?$AAr?$AAe?$AAa?$AAm?$AAb?$AAu?$AAf?$AA_?$AAi?$AAt?$AAe?$AAr?$AAa?$AAt?$AAo?$AAr?$AA?5?$AAi?$AAs?$AA?5?$AAn?$AAo?$AAt?$AA?5?$AAd?$AAe?$AAr?$AAe?$AAf@ 100d8948     libcpmtd:locale.obj
 0002:000049a0       ??_C@_1FC@CLFDMKBM@?$AAi?$AAs?$AAt?$AAr?$AAe?$AAa?$AAm?$AAb?$AAu?$AAf?$AA_?$AAi?$AAt?$AAe?$AAr?$AAa?$AAt?$AAo?$AAr?$AA?5?$AAi?$AAs?$AA?5?$AAn?$AAo?$AAt?$AA?5?$AAi?$AAn?$AAc?$AAr?$AAe@ 100d89a0     libcpmtd:locale.obj
 0002:000049f8       ??_C@_0FG@EOHGAEB@?3Sun?3Sunday?3Mon?3Monday?3Tue?3Tuesd@ 100d89f8     libcpmtd:wlocale.obj
 0002:00004a50       ??_C@_0IH@HPGJLCCK@?3Jan?3January?3Feb?3February?3Mar?3Ma@ 100d8a50     libcpmtd:wlocale.obj
 0002:00004ad8       ??_C@_1KM@LPDIELBN@?$AA?3?$AAS?$AAu?$AAn?$AA?3?$AAS?$AAu?$AAn?$AAd?$AAa?$AAy?$AA?3?$AAM?$AAo?$AAn?$AA?3?$AAM?$AAo?$AAn?$AAd?$AAa?$AAy?$AA?3?$AAT?$AAu?$AAe?$AA?3?$AAT?$AAu?$AAe?$AAs?$AAd@ 100d8ad8     libcpmtd:wlocale.obj
 0002:00004b88       ??_C@_1BAO@JIKOGLKA@?$AA?3?$AAJ?$AAa?$AAn?$AA?3?$AAJ?$AAa?$AAn?$AAu?$AAa?$AAr?$AAy?$AA?3?$AAF?$AAe?$AAb?$AA?3?$AAF?$AAe?$AAb?$AAr?$AAu?$AAa?$AAr?$AAy?$AA?3?$AAM?$AAa?$AAr?$AA?3?$AAM?$AAa@ 100d8b88     libcpmtd:wlocale.obj
 0002:00004c9c       ??_7?$codecvt@_WDH@std@@6B@ 100d8c9c     libcpmtd:wlocale.obj
 0002:00004cc8       ??_7?$codecvt@GDH@std@@6B@ 100d8cc8     libcpmtd:wlocale.obj
 0002:00004cf4       ??_7?$ctype@_W@std@@6B@    100d8cf4     libcpmtd:wlocale.obj
 0002:00004d34       ??_7?$ctype@G@std@@6B@     100d8d34     libcpmtd:wlocale.obj
 0002:00004d70       ?npos@?$basic_string@_WU?$char_traits@_W@std@@V?$allocator@_W@2@@std@@2IB 100d8d70     libcpmtd:wlocale.obj
 0002:00004d78       ??_7messages_base@std@@6B@ 100d8d78     libcpmtd:wlocale.obj
 0002:00004d88       ??_7money_base@std@@6B@    100d8d88     libcpmtd:wlocale.obj
 0002:00004d98       ??_7time_base@std@@6B@     100d8d98     libcpmtd:wlocale.obj
 0002:00004da8       ??_7?$time_put@_WV?$ostreambuf_iterator@_WU?$char_traits@_W@std@@@std@@@std@@6B@ 100d8da8     libcpmtd:wlocale.obj
 0002:00004db8       ??_C@_0DD@ONOFIKJ@f?3?2dd?2vctools?2crt_bld?2self_x86?2c@ 100d8db8     libcpmtd:wlocale.obj
 0002:00004df0       ??_7?$num_get@_WV?$istreambuf_iterator@_WU?$char_traits@_W@std@@@std@@@std@@6B@ 100d8df0     libcpmtd:wlocale.obj
 0002:00004e2c       ??_7?$num_put@_WV?$ostreambuf_iterator@_WU?$char_traits@_W@std@@@std@@@std@@6B@ 100d8e2c     libcpmtd:wlocale.obj
 0002:00004e5c       ??_7?$numpunct@_W@std@@6B@ 100d8e5c     libcpmtd:wlocale.obj
 0002:00004e80       ??_7?$collate@_W@std@@6B@  100d8e80     libcpmtd:wlocale.obj
 0002:00004e9c       ??_7?$messages@_W@std@@6B@ 100d8e9c     libcpmtd:wlocale.obj
 0002:00004eb8       ??_7?$money_get@_WV?$istreambuf_iterator@_WU?$char_traits@_W@std@@@std@@@std@@6B@ 100d8eb8     libcpmtd:wlocale.obj
 0002:00004ed0       ??_7?$money_put@_WV?$ostreambuf_iterator@_WU?$char_traits@_W@std@@@std@@@std@@6B@ 100d8ed0     libcpmtd:wlocale.obj
 0002:00004ee8       ??_7?$_Mpunct@_W@std@@6B@  100d8ee8     libcpmtd:wlocale.obj
 0002:00004f1c       ??_7?$moneypunct@_W$0A@@std@@6B@ 100d8f1c     libcpmtd:wlocale.obj
 0002:00004f50       ??_7?$moneypunct@_W$00@std@@6B@ 100d8f50     libcpmtd:wlocale.obj
 0002:00004f84       ??_7?$time_get@_WV?$istreambuf_iterator@_WU?$char_traits@_W@std@@@std@@@std@@6B@ 100d8f84     libcpmtd:wlocale.obj
 0002:00004fb0       ??_7?$num_get@GV?$istreambuf_iterator@GU?$char_traits@G@std@@@std@@@std@@6B@ 100d8fb0     libcpmtd:wlocale.obj
 0002:00004fec       ??_7?$num_put@GV?$ostreambuf_iterator@GU?$char_traits@G@std@@@std@@@std@@6B@ 100d8fec     libcpmtd:wlocale.obj
 0002:0000501c       ??_7?$numpunct@G@std@@6B@  100d901c     libcpmtd:wlocale.obj
 0002:00005040       ??_7?$collate@G@std@@6B@   100d9040     libcpmtd:wlocale.obj
 0002:0000505c       ??_7?$messages@G@std@@6B@  100d905c     libcpmtd:wlocale.obj
 0002:00005078       ??_7?$money_get@GV?$istreambuf_iterator@GU?$char_traits@G@std@@@std@@@std@@6B@ 100d9078     libcpmtd:wlocale.obj
 0002:0000508c       ?npos@?$basic_string@GU?$char_traits@G@std@@V?$allocator@G@2@@std@@2IB 100d908c     libcpmtd:wlocale.obj
 0002:00005094       ??_7?$money_put@GV?$ostreambuf_iterator@GU?$char_traits@G@std@@@std@@@std@@6B@ 100d9094     libcpmtd:wlocale.obj
 0002:000050ac       ??_7?$_Mpunct@G@std@@6B@   100d90ac     libcpmtd:wlocale.obj
 0002:000050e0       ??_7?$moneypunct@G$0A@@std@@6B@ 100d90e0     libcpmtd:wlocale.obj
 0002:00005114       ??_7?$moneypunct@G$00@std@@6B@ 100d9114     libcpmtd:wlocale.obj
 0002:00005148       ??_7?$time_get@GV?$istreambuf_iterator@GU?$char_traits@G@std@@@std@@@std@@6B@ 100d9148     libcpmtd:wlocale.obj
 0002:00005174       ??_7?$time_put@GV?$ostreambuf_iterator@GU?$char_traits@G@std@@@std@@@std@@6B@ 100d9174     libcpmtd:wlocale.obj
 0002:00005184       ??_C@_0DA@CFEPJABA@f?3?2dd?2vctools?2crt_bld?2self_x86?2c@ 100d9184     libcpmtd:wlocale.obj
 0002:000051b8       ??_C@_1GA@HFFIGHNG@?$AAf?$AA?3?$AA?2?$AAd?$AAd?$AA?2?$AAv?$AAc?$AAt?$AAo?$AAo?$AAl?$AAs?$AA?2?$AAc?$AAr?$AAt?$AA_?$AAb?$AAl?$AAd?$AA?2?$AAs?$AAe?$AAl?$AAf?$AA_?$AAx?$AA8?$AA6?$AA?2?$AAc@ 100d91b8     libcpmtd:wlocale.obj
 0002:00005218       ??_C@_19OKANBMPJ@?$AA?$CB?$AA?$CF?$AAx?$AA?$AA?$AA?$AA@ 100d9218     libcpmtd:wlocale.obj
 0002:00005224       ??_C@_0CO@NKEKEOMI@f?3?2dd?2vctools?2crt_bld?2self_x86?2c@ 100d9224     libcpmtd:wlocale.obj
 0002:00005258       ??_C@_1FM@LKHCLMNB@?$AAf?$AA?3?$AA?2?$AAd?$AAd?$AA?2?$AAv?$AAc?$AAt?$AAo?$AAo?$AAl?$AAs?$AA?2?$AAc?$AAr?$AAt?$AA_?$AAb?$AAl?$AAd?$AA?2?$AAs?$AAe?$AAl?$AAf?$AA_?$AAx?$AA8?$AA6?$AA?2?$AAc@ 100d9258     libcpmtd:wlocale.obj
 0002:000052b4       ??_C@_0CP@ONNAPLML@f?3?2dd?2vctools?2crt_bld?2self_x86?2c@ 100d92b4     libcpmtd:wlocale.obj
 0002:000052e4       ??_C@_0CP@BPCLBCAB@f?3?2dd?2vctools?2crt_bld?2self_x86?2c@ 100d92e4     libcpmtd:wlocale.obj
 0002:00005314       ??_C@_05NNKBBLJI@?$CF?40Lf?$AA@ 100d9314     libcpmtd:wlocale.obj
 0002:0000531c       ?_Src@?1??do_put@?$money_put@_WV?$ostreambuf_iterator@_WU?$char_traits@_W@std@@@std@@@std@@MBE?AV?$ostreambuf_iterator@_WU?$char_traits@_W@std@@@3@V43@_NAAVios_base@3@_WABV?$basic_string@_WU?$char_traits@_W@std@@V?$allocator@_W@2@@3@@Z@4QBDB 100d931c     libcpmtd:wlocale.obj
 0002:00005328       ??_C@_0BG@ELKJEKEA@?$CFb?5?$CFd?5?$CFH?5?3?5?$CFM?5?3?5?$CFS?5?$CFY?$AA@ 100d9328     libcpmtd:wlocale.obj
 0002:00005340       ??_C@_0N@LIAHCJPJ@?$CFm?5?1?5?$CFd?5?1?5?$CFy?$AA@ 100d9340     libcpmtd:wlocale.obj
 0002:00005350       ??_C@_01CLKCMJKC@?5?$AA@   100d9350     libcpmtd:wlocale.obj
 0002:00005354       ??_C@_0N@LPFKKEBD@?3AM?3am?3PM?3pm?$AA@ 100d9354     libcpmtd:wlocale.obj
 0002:00005364       ??_C@_0BA@HGEPHOKI@?$CFI?5?3?5?$CFM?5?3?5?$CFS?5?$CFp?$AA@ 100d9364     libcpmtd:wlocale.obj
 0002:00005374       ??_C@_07GLPBMING@?$CFH?5?3?5?$CFM?$AA@ 100d9374     libcpmtd:wlocale.obj
 0002:0000537c       ??_C@_0M@LMMIDGCH@?$CFH?5?3?5?$CFM?5?3?5S?$AA@ 100d937c     libcpmtd:wlocale.obj
 0002:00005388       ??_C@_0N@LADGFGLL@?$CFd?5?1?5?$CFm?5?1?5?$CFy?$AA@ 100d9388     libcpmtd:wlocale.obj
 0002:00005398       ?_Src@?1??do_put@?$money_put@GV?$ostreambuf_iterator@GU?$char_traits@G@std@@@std@@@std@@MBE?AV?$ostreambuf_iterator@GU?$char_traits@G@std@@@3@V43@_NAAVios_base@3@GABV?$basic_string@GU?$char_traits@G@std@@V?$allocator@G@2@@3@@Z@4QBDB 100d9398     libcpmtd:wlocale.obj
 0002:000053a4       ?_Src@?1??_Getifld@?$num_get@_WV?$istreambuf_iterator@_WU?$char_traits@_W@std@@@std@@@std@@ABAHPADAAV?$istreambuf_iterator@_WU?$char_traits@_W@std@@@3@1HABVlocale@3@@Z@4QBDB 100d93a4     libcpmtd:wlocale.obj
 0002:000053c0       ?_Src@?3??_Getffld@?$num_get@_WV?$istreambuf_iterator@_WU?$char_traits@_W@std@@@std@@@std@@ABAHPADAAV?$istreambuf_iterator@_WU?$char_traits@_W@std@@@3@1AAVios_base@3@PAH@Z@4QBDB 100d93c0     libcpmtd:wlocale.obj
 0002:000053d0       ??_C@_1FO@KDLENIDN@?$AAf?$AA?3?$AA?2?$AAd?$AAd?$AA?2?$AAv?$AAc?$AAt?$AAo?$AAo?$AAl?$AAs?$AA?2?$AAc?$AAr?$AAt?$AA_?$AAb?$AAl?$AAd?$AA?2?$AAs?$AAe?$AAl?$AAf?$AA_?$AAx?$AA8?$AA6?$AA?2?$AAc@ 100d93d0     libcpmtd:wlocale.obj
 0002:00005430       ?_Src@?4??_Getmfld@?$money_get@_WV?$istreambuf_iterator@_WU?$char_traits@_W@std@@@std@@@std@@ABE?AV?$basic_string@DU?$char_traits@D@std@@V?$allocator@D@2@@3@AAV?$istreambuf_iterator@_WU?$char_traits@_W@std@@@3@0_NAAVios_base@3@PA_W@Z@4QBDB 100d9430     libcpmtd:wlocale.obj
 0002:0000543c       ?_Src@?1??_Getifld@?$num_get@GV?$istreambuf_iterator@GU?$char_traits@G@std@@@std@@@std@@ABAHPADAAV?$istreambuf_iterator@GU?$char_traits@G@std@@@3@1HABVlocale@3@@Z@4QBDB 100d943c     libcpmtd:wlocale.obj
 0002:00005458       ?_Src@?3??_Getffld@?$num_get@GV?$istreambuf_iterator@GU?$char_traits@G@std@@@std@@@std@@ABAHPADAAV?$istreambuf_iterator@GU?$char_traits@G@std@@@3@1AAVios_base@3@PAH@Z@4QBDB 100d9458     libcpmtd:wlocale.obj
 0002:00005468       ?_Src@?4??_Getmfld@?$money_get@GV?$istreambuf_iterator@GU?$char_traits@G@std@@@std@@@std@@ABE?AV?$basic_string@DU?$char_traits@D@std@@V?$allocator@D@2@@3@AAV?$istreambuf_iterator@GU?$char_traits@G@std@@@3@0_NAAVios_base@3@PAG@Z@4QBDB 100d9468     libcpmtd:wlocale.obj
 0002:00005474       ?_Src@?1??_Getffldx@?$num_get@_WV?$istreambuf_iterator@_WU?$char_traits@_W@std@@@std@@@std@@ABAHPADAAV?$istreambuf_iterator@_WU?$char_traits@_W@std@@@3@1AAVios_base@3@PAH@Z@4QBDB 100d9474     libcpmtd:wlocale.obj
 0002:00005494       ??_C@_04FJCIEOIB@$?$CLxv?$AA@ 100d9494     libcpmtd:wlocale.obj
 0002:0000549c       ??_C@_1BK@MHIKGOKE@?$AA?3?$AAA?$AAM?$AA?3?$AAa?$AAm?$AA?3?$AAP?$AAM?$AA?3?$AAp?$AAm?$AA?$AA@ 100d949c     libcpmtd:wlocale.obj
 0002:000054b8       ?_Src@?1??_Getffldx@?$num_get@GV?$istreambuf_iterator@GU?$char_traits@G@std@@@std@@@std@@ABAHPADAAV?$istreambuf_iterator@GU?$char_traits@G@std@@@3@1AAVios_base@3@PAH@Z@4QBDB 100d94b8     libcpmtd:wlocale.obj
 0002:000054d8       ??_C@_1MM@BFHGHMKD@?$AAs?$AAt?$AAd?$AA?3?$AA?3?$AA_?$AAS?$AAt?$AAr?$AAi?$AAn?$AAg?$AA_?$AAc?$AAo?$AAn?$AAs?$AAt?$AA_?$AAi?$AAt?$AAe?$AAr?$AAa?$AAt?$AAo?$AAr?$AA?$DM?$AAc?$AAl?$AAa?$AAs@ 100d94d8     libcpmtd:wlocale.obj
