 trackgen

 Timestamp is 5176605c (Tue Apr 23 12:20:12 2013)

 Preferred load address is 00400000

 Start         Length     Name                   Class
 0001:00000000 0006facaH .text                   CODE
 0001:0006fad0 000018a4H .text$x                 CODE
 0001:00071380 0000073aH .text$yc                CODE
 0001:00071ac0 000000eaH .text$yd                CODE
 0002:00000000 000002e4H .idata$5                DATA
 0002:000002e4 00000004H .CRT$XCA                DATA
 0002:000002e8 00000050H .CRT$XCU                DATA
 0002:00000338 00000004H .CRT$XCZ                DATA
 0002:0000033c 00000004H .CRT$XIA                DATA
 0002:00000340 00000014H .CRT$XIC                DATA
 0002:00000354 00000004H .CRT$XIY                DATA
 0002:00000358 00000004H .CRT$XIZ                DATA
 0002:0000035c 00000004H .CRT$XPA                DATA
 0002:00000360 00000008H .CRT$XPX                DATA
 0002:00000368 00000004H .CRT$XPXA               DATA
 0002:0000036c 00000004H .CRT$XPZ                DATA
 0002:00000370 00000004H .CRT$XTA                DATA
 0002:00000374 00000004H .CRT$XTZ                DATA
 0002:00000380 00016ca0H .rdata                  DATA
 0002:00017020 00001208H .rdata$r                DATA
 0002:00018230 000001b4H .rdata$sxdata           DATA
 0002:000183e4 00000004H .rtc$IAA                DATA
 0002:000183e8 00000004H .rtc$IZZ                DATA
 0002:000183ec 00000004H .rtc$TAA                DATA
 0002:000183f0 00000004H .rtc$TZZ                DATA
 0002:000183f8 00002414H .xdata$x                DATA
 0002:0001a80c 0000008cH .idata$2                DATA
 0002:0001a898 00000014H .idata$3                DATA
 0002:0001a8ac 000002e4H .idata$4                DATA
 0002:0001ab90 00000cd2H .idata$6                DATA
 0002:0001b862 00000000H .edata                  DATA
 0003:00000000 00003bc0H .data                   DATA
 0003:00003bc0 0090aee0H .bss                    DATA

  Address         Publics by Value              Rva+Base       Lib:Object

 0000:00000000       __except_list              00000000     <absolute>
 0000:0000006d       ___safe_se_handler_count   0000006d     <absolute>
 0000:00000000       ___ImageBase               00400000     <linker-defined>
 0001:00000010       ?Ac3dOpen@@YAPAU_iobuf@@PADH@Z 00401010 f   ac3d.obj
 0001:00000080       ?Ac3dGroup@@YAHPAU_iobuf@@PBDH@Z 00401080 f   ac3d.obj
 0001:000000c0       ?Ac3dClose@@YAXPAU_iobuf@@@Z 004010c0 f   ac3d.obj
 0001:000000e0       ?GenerateTerrain@@YAXPAUtTrack@@PAXPADPAU_iobuf@@H@Z 004010e0 f   easymesh.obj
 0001:00000410       ?swap_side@@YAXH@Z         00401410 f   easymesh.obj
 0001:000008a0       ?area@@YANPAUnod@@00@Z     004018a0 f   easymesh.obj
 0001:00000900       ?dist@@YANPAUnod@@0@Z      00401900 f   easymesh.obj
 0001:00000940       ?in_elem@@YAHPAUnod@@@Z    00401940 f   easymesh.obj
 0001:00000a10       ?bowyer@@YAXHH@Z           00401a10 f   easymesh.obj
 0001:00000b40       ?circles@@YAXH@Z           00401b40 f   easymesh.obj
 0001:00000dc0       ?spacing@@YAXHH@Z          00401dc0 f   easymesh.obj
 0001:00000ee0       ?insert_node@@YAHNNNHHHHHH@Z 00401ee0 f   easymesh.obj
 0001:00001400       ?erase@@YAXXZ              00402400 f   easymesh.obj
 0001:00001630       ?diamond@@YAXXZ            00402630 f   easymesh.obj
 0001:000017a0       ?classify@@YAXXZ           004027a0 f   easymesh.obj
 0001:00001a00       ?new_node@@YAXXZ           00402a00 f   easymesh.obj
 0001:00001d30       ?neighbours@@YAXXZ         00402d30 f   easymesh.obj
 0001:00001d80       ?materials@@YAXXZ          00402d80 f   easymesh.obj
 0001:00001ed0       ?relax@@YAXXZ              00402ed0 f   easymesh.obj
 0001:00001fd0       ?smooth@@YAHXZ             00402fd0 f   easymesh.obj
 0001:00002130       ?renum@@YAXXZ              00403130 f   easymesh.obj
 0001:000024d0       ?load@@YAHXZ               004034d0 f   easymesh.obj
 0001:000051e0       ?LoadElevation@@YAXPAUtTrack@@PAXPAD@Z 004061e0 f   elevation.obj
 0001:00005360       ?GetElevation@@YAMMMM@Z    00406360 f   elevation.obj
 0001:000053e0       ?SaveElevation@@YAXPAUtTrack@@PAXPAD2H@Z 004063e0 f   elevation.obj
 0001:000059d0       ??0ssgLoaderOptions@@QAE@XZ 004069d0 f i elevation.obj
 0001:00005ad0       ??0ssgSimpleList@@QAE@HHPAD@Z 00406ad0 f i elevation.obj
 0001:00005b70       ??0ssgSimpleStateArray@@QAE@H@Z 00406b70 f i elevation.obj
 0001:00005bf0       ??1ssgLoaderOptions@@UAE@XZ 00406bf0 f i elevation.obj
 0001:00005cb0       ??1ssgSimpleList@@UAE@XZ   00406cb0 f i elevation.obj
 0001:00005cb0       ??1ssgSimpleStateArray@@UAE@XZ 00406cb0 f i elevation.obj
 0001:00005ce0       ??_EmyLoaderOptions@@UAEPAXI@Z 00406ce0 f i objects.obj
 0001:00005ce0       ??_GssgLoaderOptions@@UAEPAXI@Z 00406ce0 f i elevation.obj
 0001:00005ce0       ??_GmyLoaderOptions@@UAEPAXI@Z 00406ce0 f i objects.obj
 0001:00005ce0       ??_GssgLoaderOptionsEx@@UAEPAXI@Z 00406ce0 f i elevation.obj
 0001:00005ce0       ??_EssgLoaderOptions@@UAEPAXI@Z 00406ce0 f i elevation.obj
 0001:00005ce0       ??_EssgLoaderOptionsEx@@UAEPAXI@Z 00406ce0 f i elevation.obj
 0001:00005d10       ??_GssgSimpleStateArray@@UAEPAXI@Z 00406d10 f i elevation.obj
 0001:00005d10       ??_GssgSimpleList@@UAEPAXI@Z 00406d10 f i elevation.obj
 0001:00005d10       ??_EssgTextureArray@@UAEPAXI@Z 00406d10 f i elevation.obj
 0001:00005d10       ??_EssgSimpleList@@UAEPAXI@Z 00406d10 f i elevation.obj
 0001:00005d10       ??_GssgTextureArray@@UAEPAXI@Z 00406d10 f i elevation.obj
 0001:00005d10       ??_EssgSimpleStateArray@@UAEPAXI@Z 00406d10 f i elevation.obj
 0001:00005d60       ?createBranch@ssgLoaderOptions@@UBEPAVssgBranch@@PAD@Z 00406d60 f i elevation.obj
 0001:00005d80       ?createSimpleState@ssgLoaderOptions@@UBEPAVssgSimpleState@@PAD@Z 00406d80 f i elevation.obj
 0001:00005db0       ?createState@ssgLoaderOptions@@UBEPAVssgState@@PAD@Z 00406db0 f i elevation.obj
 0001:00005dd0       ?endLoad@ssgLoaderOptions@@UAEXXZ 00406dd0 f i elevation.obj
 0001:00005df0       ?makeModelPath@myLoaderOptions@@UBEXPADPBD@Z 00406df0 f i objects.obj
 0001:00005df0       ?makeModelPath@ssgLoaderOptionsEx@@UBEXPADPBD@Z 00406df0 f i elevation.obj
 0001:00006310       ?usage@@YAXXZ              00407310 f   maintrackgen.obj
 0001:000064a0       ?init_args@@YAXHPAPAD@Z    004074a0 f   maintrackgen.obj
 0001:00006790       _main                      00407790 f   maintrackgen.obj
 0001:000067e0       ?GenerateObjects@@YAXPAUtTrack@@PAX1PAU_iobuf@@PAD@Z 004077e0 f   objects.obj
 0001:00006bb0       ?GetObjectsNb@@YAHPAX@Z    00407bb0 f   objects.obj
 0001:00007900       ??1myLoaderOptions@@UAE@XZ 00408900 f i objects.obj
 0001:00007900       ??1ssgLoaderOptionsEx@@UAE@XZ 00408900 f i elevation.obj
 0001:00007910       ?getKid@ssgBranch@@QAEPAVssgEntity@@H@Z 00408910 f i objects.obj
 0001:00007940       ?makeTexturePath@myLoaderOptions@@UBEXPADPBD@Z 00408940 f i objects.obj
 0001:00007940       ?makeTexturePath@ssgLoaderOptionsEx@@UBEXPADPBD@Z 00408940 f i elevation.obj
 0001:00007960       ?sgMakeRotMat4@@YAXQAY03MMMM@Z 00408960 f i objects.obj
 0001:00008530       ?generateRaceLine@@YAXPAUtTrack@@NN@Z 00409530 f   raceline.obj
 0001:000085b0       ?getTexureOffset@@YANN@Z   004095b0 f   raceline.obj
 0001:00008660       ?LoadRelief@@YAXPAXPAD@Z   00409660 f   relief.obj
 0001:00008730       ?CountRelief@@YAXHPAH0@Z   00409730 f   relief.obj
 0001:00008800       ?GenRelief@@YAXH@Z         00409800 f   relief.obj
 0001:00008b40       ?GenerateTrack@@YAXPAUtTrack@@PAXPADPAU_iobuf@@HH@Z 00409b40 f   track.obj
 0001:00008be0       ?CalculateTrack@@YAXPAUtTrack@@PAX@Z 00409be0 f   track.obj
 0001:00008e50       ?newTextureId@@YAIXZ       00409e50 f   track.obj
 0001:00008e60       ?setTexture@@YAXPAPAUtexElt@@0AAIPBD22@Z 00409e60 f   track.obj
 0001:00008fd0       ?newDispList@@YAXHHHAAHPBDHPAPAUdispElt@@PAUtexElt@@@Z 00409fd0 f   track.obj
 0001:000090d0       ?checkDispList@@YAXPAUtTrack@@PAXPBD2HMHHPAPAUtexElt@@3PAPAUdispElt@@AAI5AAH66AAM7@Z 0040a0d0 f   track.obj
 0001:00009350       ?checkDispList2@@YAXPBD0HHHPAPAUtexElt@@1PAPAUdispElt@@AAI3AAH@Z 0040a350 f   track.obj
 0001:000093d0       ?checkDispList3@@YAXPBD0HHHPAPAUtexElt@@1PAPAUdispElt@@AAI3AAH@Z 0040a3d0 f   track.obj
 0001:00009430       ?setPoint@@YAXPAUtexElt@@MMMMMAAI@Z 0040a430 f   track.obj
 0001:000094b0       ?pitCapCCW@@YAXPAUtexElt@@AAIMMMABUt3Dd@@@Z 0040a4b0 f   track.obj
 0001:000096c0       ?pitCapCW@@YAXPAUtexElt@@AAIMMMABUt3Dd@@@Z 0040a6c0 f   track.obj
 0001:000098d0       ?InitScene@@YAHPAUtTrack@@PAXHH@Z 0040a8d0 f   track.obj
 0001:00014ab0       ?GetFilename@@YAHPBD0PADH@Z 00415ab0 f   util.obj
 0001:00014be0       ?getHOT@@YAMPAVssgRoot@@MM@Z 00415be0 f   util.obj
 0001:00014d50       ?sgMakeIdentMat4@@YAXQAY03M@Z 00415d50 f i util.obj
 0001:00015b40       ?WindowsSpecInit@@YAXXZ    00416b40 f   windowsspec.obj
 0001:00015bf0       ??_Eerror_category@std@@UAEPAXI@Z 00416bf0 f i windowsspec.obj
 0001:00015bf0       ??_E_System_error_category@std@@UAEPAXI@Z 00416bf0 f i windowsspec.obj
 0001:00015bf0       ??_Gerror_category@std@@UAEPAXI@Z 00416bf0 f i windowsspec.obj
 0001:00015bf0       ??_E_Generic_error_category@std@@UAEPAXI@Z 00416bf0 f i windowsspec.obj
 0001:00015bf0       ??_E_Iostream_error_category@std@@UAEPAXI@Z 00416bf0 f i windowsspec.obj
 0001:00015bf0       ??_G_Iostream_error_category@std@@UAEPAXI@Z 00416bf0 f i windowsspec.obj
 0001:00015bf0       ??_G_System_error_category@std@@UAEPAXI@Z 00416bf0 f i windowsspec.obj
 0001:00015bf0       ??_G_Generic_error_category@std@@UAEPAXI@Z 00416bf0 f i windowsspec.obj
 0001:00015c20       ?_Copy@?$basic_string@DU?$char_traits@D@std@@V?$allocator@D@2@@std@@QAEXII@Z 00416c20 f i windowsspec.obj
 0001:00015d70       ?allocate@?$_Wrap_alloc@V?$allocator@D@std@@@std@@QAEPADI@Z 00416d70 f i windowsspec.obj
 0001:00015da0       ?assign@?$basic_string@DU?$char_traits@D@std@@V?$allocator@D@2@@std@@QAEAAV12@ABV12@II@Z 00416da0 f i windowsspec.obj
 0001:00015ed0       ?assign@?$basic_string@DU?$char_traits@D@std@@V?$allocator@D@2@@std@@QAEAAV12@PBDI@Z 00416ed0 f i windowsspec.obj
 0001:00015fd0       ?default_error_condition@_System_error_category@std@@UBE?AVerror_condition@2@H@Z 00416fd0 f i windowsspec.obj
 0001:00016010       ?default_error_condition@error_category@std@@UBE?AVerror_condition@2@H@Z 00417010 f i windowsspec.obj
 0001:00016030       ?equivalent@error_category@std@@UBE_NABVerror_code@2@H@Z 00417030 f i windowsspec.obj
 0001:00016050       ?equivalent@error_category@std@@UBE_NHABVerror_condition@2@@Z 00417050 f i windowsspec.obj
 0001:00016090       ?erase@?$basic_string@DU?$char_traits@D@std@@V?$allocator@D@2@@std@@QAEAAV12@II@Z 00417090 f i windowsspec.obj
 0001:00016130       ?message@_Generic_error_category@std@@UBE?AV?$basic_string@DU?$char_traits@D@std@@V?$allocator@D@2@@2@H@Z 00417130 f i windowsspec.obj
 0001:000161a0       ?message@_Iostream_error_category@std@@UBE?AV?$basic_string@DU?$char_traits@D@std@@V?$allocator@D@2@@2@H@Z 004171a0 f i windowsspec.obj
 0001:000161f0       ?message@_System_error_category@std@@UBE?AV?$basic_string@DU?$char_traits@D@std@@V?$allocator@D@2@@2@H@Z 004171f0 f i windowsspec.obj
 0001:00016260       ?name@_Generic_error_category@std@@UBEPBDXZ 00417260 f i windowsspec.obj
 0001:00016270       ?name@_Iostream_error_category@std@@UBEPBDXZ 00417270 f i windowsspec.obj
 0001:00016280       ?name@_System_error_category@std@@UBEPBDXZ 00417280 f i windowsspec.obj
 0001:00016286       ?GfImgReadPng@@YAPAEPBDPAH1M@Z 00417286 f   client:client.dll
 0001:0001628c       ?GfImgWritePng@@YAHPAEPBDHH@Z 0041728c f   client:client.dll
 0001:00016292       _ssggraph                  00417292 f   client:client.dll
 0001:00016298       ?RtTrackGetWidth@@YAMPAUtrackSeg@@M@Z 00417298 f   robottools:robottools.dll
 0001:0001629e       ?RtTrackLocal2Global@@YAXPAUtTrkLocPos@@PAM1H@Z 0041729e f   robottools:robottools.dll
 0001:000162a4       ?RtTrackHeightL@@YAMPAUtTrkLocPos@@@Z 004172a4 f   robottools:robottools.dll
 0001:000162aa       ?RtTrackHeightG@@YAMPAUtrackSeg@@MM@Z 004172aa f   robottools:robottools.dll
 0001:000162b0       ?RtTrackSideNormalG@@YAXPAUtrackSeg@@MMHPAUt3Dd@@@Z 004172b0 f   robottools:robottools.dll
 0001:000162c0       ?sgAbs@@YAMM@Z             004172c0 f i sg_vs2008_32:sg.obj
 0001:000162e0       ?sgSubVec3@@YAXQAMQBM1@Z   004172e0 f i sg_vs2008_32:sg.obj
 0001:00016310       ?sgScalarProductVec3@@YAMQBM0@Z 00417310 f i sg_vs2008_32:sg.obj
 0001:00016340       ?sgDistanceVec3@@YAMQBM0@Z 00417340 f i sg_vs2008_32:sg.obj
 0001:000163b0       ?sgLengthVec3@@YAMQBM@Z    004173b0 f i sg_vs2008_32:sg.obj
 0001:000163f0       ?sgNormaliseVec3@@YAXQAM@Z 004173f0 f i sg_vs2008_32:sg.obj
 0001:00016450       ?sgNormaliseVec3@@YAXQAMQBM@Z 00417450 f i sg_vs2008_32:sg.obj
 0001:000164b0       ?sgCopyMat4@@YAXQAY03MQAY03$$CBM@Z 004174b0 f i sg_vs2008_32:sg.obj
 0001:00016520       ?sgVectorProductVec3@@YAXQAMQBM1@Z 00417520 f   sg_vs2008_32:sg.obj
 0001:00016560       ?sgMakeRotMat4@@YAXQAY03MMQBM@Z 00417560 f   sg_vs2008_32:sg.obj
 0001:00016670       ?extend@sgBox@@QAEXQBM@Z   00417670 f   sg_vs2008_32:sg.obj
 0001:00016750       ?extend@sgSphere@@QAEXQBM@Z 00417750 f   sg_vs2008_32:sg.obj
 0001:00016800       ?extend@sgSphere@@QAEXPBVsgBox@@@Z 00417800 f   sg_vs2008_32:sg.obj
 0001:00016980       ?extend@sgSphere@@QAEXPBV1@@Z 00417980 f   sg_vs2008_32:sg.obj
 0001:00016a60       ?update@sgFrustum@@AAEXXZ  00417a60 f   sg_vs2008_32:sg.obj
 0001:00016e80       ?contains@sgFrustum@@QBEHPBVsgSphere@@@Z 00417e80 f   sg_vs2008_32:sg.obj
 0001:00017020       ?sgMakeCoordMat4@@YAXQAY03MMMMMMM@Z 00418020 f   sg_vs2008_32:sg.obj
 0001:00017210       ?sgMakeTransMat4@@YAXQAY03MQBM@Z 00418210 f   sg_vs2008_32:sg.obj
 0001:00017260       ?sgMakeTransMat4@@YAXQAY03MMMM@Z 00418260 f   sg_vs2008_32:sg.obj
 0001:000172b0       ?sgMakeNormal@@YAXQAMQBM11@Z 004182b0 f   sg_vs2008_32:sg.obj
 0001:00017320       ?sgMultMat4@@YAXQAY03MQAY03$$CBM1@Z 00418320 f   sg_vs2008_32:sg.obj
 0001:000173d0       ?sgXformVec3@@YAXQAMQBMQAY03$$CBM@Z 004183d0 f   sg_vs2008_32:sg.obj
 0001:00017450       ?sgXformPnt3@@YAXQAMQBMQAY03$$CBM@Z 00418450 f   sg_vs2008_32:sg.obj
 0001:000174e0       ?sgClassifyMat4@@YAHQAY03$$CBM@Z 004184e0 f   sg_vs2008_32:sg.obj
 0001:00017810       ?sgPreMultMat4@@YAXQAY03MQAY03$$CBM@Z 00418810 f   sg_vs2008_32:sg.obj
 0001:00017840       ?sgPostMultMat4@@YAXQAY03MQAY03$$CBM@Z 00418840 f   sg_vs2008_32:sg.obj
 0001:00017870       ??2ssgBase@@SAPAXI@Z       00418870 f   ssg_vs2008_32:ssgBase.obj
 0001:00017880       ??3ssgBase@@SAXPAX@Z       00418880 f   ssg_vs2008_32:ssgBase.obj
 0001:00017890       ?clone@ssgBase@@UAEPAV1@H@Z 00418890 f   ssg_vs2008_32:ssgBase.obj
 0001:000178b0       ??0ssgBase@@QAE@XZ         004188b0 f   ssg_vs2008_32:ssgBase.obj
 0001:000178e0       ??1ssgBase@@UAE@XZ         004188e0 f   ssg_vs2008_32:ssgBase.obj
 0001:00017910       ?setName@ssgBase@@QAEXPBD@Z 00418910 f   ssg_vs2008_32:ssgBase.obj
 0001:00017940       ?zeroSpareRecursive@ssgBase@@UAEXXZ 00418940 f   ssg_vs2008_32:ssgBase.obj
 0001:00017950       ?zeroSpare@ssgBase@@UAEXXZ 00418950 f   ssg_vs2008_32:ssgBase.obj
 0001:00017960       ?incSpare@ssgBase@@UAEXXZ  00418960 f   ssg_vs2008_32:ssgBase.obj
 0001:00017970       ?setSpare@ssgBase@@UAEXH@Z 00418970 f   ssg_vs2008_32:ssgBase.obj
 0001:00017980       ?getSpare@ssgBase@@UAEHXZ  00418980 f   ssg_vs2008_32:ssgBase.obj
 0001:00017990       ?print@ssgBase@@UAEXPAU_iobuf@@PADH@Z 00418990 f   ssg_vs2008_32:ssgBase.obj
 0001:00017a30       ?load@ssgBase@@UAEHPAU_iobuf@@@Z 00418a30 f   ssg_vs2008_32:ssgBase.obj
 0001:00017a60       ?save@ssgBase@@UAEHPAU_iobuf@@@Z 00418a60 f   ssg_vs2008_32:ssgBase.obj
 0001:00017a80       ?copy_from@ssgBase@@MAEXPAV1@H@Z 00418a80 f   ssg_vs2008_32:ssgBase.obj
 0001:00017af0       ??_GssgBase@@UAEPAXI@Z     00418af0 f i ssg_vs2008_32:ssgBase.obj
 0001:00017af0       ??_EssgBase@@UAEPAXI@Z     00418af0 f i ssg_vs2008_32:ssgBase.obj
 0001:00017b10       ??0ssgVertexArray@@QAE@HPAY02M@Z 00418b10 f i ssg_vs2008_32:ssgSimpleList.obj
 0001:00017b40       ?get@dxfVertArray@@QAEPAVdxfVert@@I@Z 00418b40 f i ssg_vs2008_32:ssgLoadDXF.obj
 0001:00017b40       ?get@ssgIndexArray@@QAEPAFI@Z 00418b40 f i ssg_vs2008_32:ssgSimpleList.obj
 0001:00017b40       ?get@ssgVertexArray@@QAEPAMI@Z 00418b40 f i ssg_vs2008_32:ssgSimpleList.obj
 0001:00017b40       ?get@ssgTexCoordArray@@QAEPAMI@Z 00418b40 f i ssg_vs2008_32:ssgSimpleList.obj
 0001:00017b60       ??0ssgNormalArray@@QAE@HPAY02M@Z 00418b60 f i ssg_vs2008_32:ssgSimpleList.obj
 0001:00017b90       ??0ssgTexCoordArray@@QAE@HPAY01M@Z 00418b90 f i ssg_vs2008_32:ssgSimpleList.obj
 0001:00017bc0       ??0ssgColourArray@@QAE@HPAY03M@Z 00418bc0 f i ssg_vs2008_32:ssgSimpleList.obj
 0001:00017bf0       ??1ssgTransformArray@@UAE@XZ 00418bf0 f i ssg_vs2008_32:ssg.obj
 0001:00017bf0       ??1ssgIndexArray@@UAE@XZ   00418bf0 f i ssg_vs2008_32:ssgSimpleList.obj
 0001:00017c00       ?copy_from@ssgSimpleList@@MAEXPAV1@H@Z 00418c00 f   ssg_vs2008_32:ssgSimpleList.obj
 0001:00017c70       ?clone@ssgSimpleList@@UAEPAVssgBase@@H@Z 00418c70 f   ssg_vs2008_32:ssgSimpleList.obj
 0001:00017d00       ?clone@ssgNormalArray@@UAEPAVssgBase@@H@Z 00418d00 f   ssg_vs2008_32:ssgSimpleList.obj
 0001:00017dc0       ?clone@ssgVertexArray@@UAEPAVssgBase@@H@Z 00418dc0 f   ssg_vs2008_32:ssgSimpleList.obj
 0001:00017e80       ?clone@ssgTexCoordArray@@UAEPAVssgBase@@H@Z 00418e80 f   ssg_vs2008_32:ssgSimpleList.obj
 0001:00017f40       ?clone@ssgColourArray@@UAEPAVssgBase@@H@Z 00418f40 f   ssg_vs2008_32:ssgSimpleList.obj
 0001:00018000       ?clone@ssgIndexArray@@UAEPAVssgBase@@H@Z 00419000 f   ssg_vs2008_32:ssgSimpleList.obj
 0001:000180c0       ?print@ssgSimpleList@@UAEXPAU_iobuf@@PADH@Z 004190c0 f   ssg_vs2008_32:ssgSimpleList.obj
 0001:00018110       ?load@ssgSimpleList@@UAEHPAU_iobuf@@@Z 00419110 f   ssg_vs2008_32:ssgSimpleList.obj
 0001:00018170       ?save@ssgSimpleList@@UAEHPAU_iobuf@@@Z 00419170 f   ssg_vs2008_32:ssgSimpleList.obj
 0001:000181b0       ??_EssgTransformArray@@UAEPAXI@Z 004191b0 f i ssg_vs2008_32:ssg.obj
 0001:000181b0       ??_EssgListOfNodes@@UAEPAXI@Z 004191b0 f i ssg_vs2008_32:ssgLoadIV.obj
 0001:000181b0       ??_GssgColourArray@@UAEPAXI@Z 004191b0 f i ssg_vs2008_32:ssgSimpleList.obj
 0001:000181b0       ??_GssgSimpleStateList@@UAEPAXI@Z 004191b0 f i ssg_vs2008_32:ssgLoadX.obj
 0001:000181b0       ??_EdxfVertArray@@UAEPAXI@Z 004191b0 f i ssg_vs2008_32:ssgLoadDXF.obj
 0001:000181b0       ??_EssgVertexArray@@UAEPAXI@Z 004191b0 f i ssg_vs2008_32:ssgSimpleList.obj
 0001:000181b0       ??_GssgIndexArray@@UAEPAXI@Z 004191b0 f i ssg_vs2008_32:ssgSimpleList.obj
 0001:000181b0       ??_GdxfVertArray@@UAEPAXI@Z 004191b0 f i ssg_vs2008_32:ssgLoadDXF.obj
 0001:000181b0       ??_GssgInterleavedArray@@UAEPAXI@Z 004191b0 f i ssg_vs2008_32:ssg.obj
 0001:000181b0       ??_GssgNormalArray@@UAEPAXI@Z 004191b0 f i ssg_vs2008_32:ssgSimpleList.obj
 0001:000181b0       ??_EssgTexCoordArray@@UAEPAXI@Z 004191b0 f i ssg_vs2008_32:ssgSimpleList.obj
 0001:000181b0       ??_EssgColourArray@@UAEPAXI@Z 004191b0 f i ssg_vs2008_32:ssgSimpleList.obj
 0001:000181b0       ??_EssgInterleavedArray@@UAEPAXI@Z 004191b0 f i ssg_vs2008_32:ssg.obj
 0001:000181b0       ??_GssgTransformArray@@UAEPAXI@Z 004191b0 f i ssg_vs2008_32:ssg.obj
 0001:000181b0       ??_EssgIndexArray@@UAEPAXI@Z 004191b0 f i ssg_vs2008_32:ssgSimpleList.obj
 0001:000181b0       ??_GssgListOfLists@@UAEPAXI@Z 004191b0 f i ssg_vs2008_32:ssgLoaderWriterStuff.obj
 0001:000181b0       ??_EssgListOfLists@@UAEPAXI@Z 004191b0 f i ssg_vs2008_32:ssgLoaderWriterStuff.obj
 0001:000181b0       ??_GssgTexCoordArray@@UAEPAXI@Z 004191b0 f i ssg_vs2008_32:ssgSimpleList.obj
 0001:000181b0       ??_GssgListOfNodes@@UAEPAXI@Z 004191b0 f i ssg_vs2008_32:ssgLoadIV.obj
 0001:000181b0       ??_EssgNormalArray@@UAEPAXI@Z 004191b0 f i ssg_vs2008_32:ssgSimpleList.obj
 0001:000181b0       ??_GssgVertexArray@@UAEPAXI@Z 004191b0 f i ssg_vs2008_32:ssgSimpleList.obj
 0001:000181b0       ??_EssgSimpleStateList@@UAEPAXI@Z 004191b0 f i ssg_vs2008_32:ssgLoadX.obj
 0001:000181d0       ?print@ssgVertexArray@@UAEXPAU_iobuf@@PADH@Z 004191d0 f   ssg_vs2008_32:ssgSimpleList.obj
 0001:00018270       ?print@ssgNormalArray@@UAEXPAU_iobuf@@PADH@Z 00419270 f   ssg_vs2008_32:ssgSimpleList.obj
 0001:00018310       ?print@ssgIndexArray@@UAEXPAU_iobuf@@PADH@Z 00419310 f   ssg_vs2008_32:ssgSimpleList.obj
 0001:00018370       ?print@ssgTexCoordArray@@UAEXPAU_iobuf@@PADH@Z 00419370 f   ssg_vs2008_32:ssgSimpleList.obj
 0001:000183f0       ?print@ssgColourArray@@UAEXPAU_iobuf@@PADH@Z 004193f0 f   ssg_vs2008_32:ssgSimpleList.obj
 0001:000184c0       ?ssgGetFrameCounter@@YAHXZ 004194c0 f   ssg_vs2008_32:ssg.obj
 0001:000184d0       ?ssgDeRefDelete@@YAXPAVssgBase@@@Z 004194d0 f   ssg_vs2008_32:ssg.obj
 0001:000184f0       ?ssgInit@@YAXXZ            004194f0 f   ssg_vs2008_32:ssg.obj
 0001:000189c0       ?getTypeName@ssgAxisTransform@@UAEPBDXZ 004199c0 f   ssg_vs2008_32:ssg.obj
 0001:000189d0       ?getTypeName@ssgBase@@UAEPBDXZ 004199d0 f   ssg_vs2008_32:ssg.obj
 0001:000189e0       ?getTypeName@ssgTexture@@UAEPBDXZ 004199e0 f   ssg_vs2008_32:ssg.obj
 0001:000189f0       ?getTypeName@ssgState@@UAEPBDXZ 004199f0 f   ssg_vs2008_32:ssg.obj
 0001:00018a00       ?getTypeName@ssgSimpleState@@UAEPBDXZ 00419a00 f   ssg_vs2008_32:ssg.obj
 0001:00018a10       ?getTypeName@ssgStateSelector@@UAEPBDXZ 00419a10 f   ssg_vs2008_32:ssg.obj
 0001:00018a20       ?getTypeName@ssgEntity@@UAEPBDXZ 00419a20 f   ssg_vs2008_32:ssg.obj
 0001:00018a30       ?getTypeName@ssgLeaf@@UAEPBDXZ 00419a30 f   ssg_vs2008_32:ssg.obj
 0001:00018a40       ?getTypeName@ssgVTable@@UAEPBDXZ 00419a40 f   ssg_vs2008_32:ssg.obj
 0001:00018a50       ?getTypeName@ssgVtxTable@@UAEPBDXZ 00419a50 f   ssg_vs2008_32:ssg.obj
 0001:00018a60       ?getTypeName@ssgVtxArray@@UAEPBDXZ 00419a60 f   ssg_vs2008_32:ssg.obj
 0001:00018a70       ?getTypeName@ssgBranch@@UAEPBDXZ 00419a70 f   ssg_vs2008_32:ssg.obj
 0001:00018a80       ?getTypeName@ssgSelector@@UAEPBDXZ 00419a80 f   ssg_vs2008_32:ssg.obj
 0001:00018a90       ?getTypeName@ssgRangeSelector@@UAEPBDXZ 00419a90 f   ssg_vs2008_32:ssg.obj
 0001:00018aa0       ?getTypeName@ssgTimedSelector@@UAEPBDXZ 00419aa0 f   ssg_vs2008_32:ssg.obj
 0001:00018ab0       ?getTypeName@ssgBaseTransform@@UAEPBDXZ 00419ab0 f   ssg_vs2008_32:ssg.obj
 0001:00018ac0       ?getTypeName@ssgTransform@@UAEPBDXZ 00419ac0 f   ssg_vs2008_32:ssg.obj
 0001:00018ad0       ?getTypeName@ssgTexTrans@@UAEPBDXZ 00419ad0 f   ssg_vs2008_32:ssg.obj
 0001:00018ae0       ?getTypeName@ssgCutout@@UAEPBDXZ 00419ae0 f   ssg_vs2008_32:ssg.obj
 0001:00018af0       ?getTypeName@ssgRoot@@UAEPBDXZ 00419af0 f   ssg_vs2008_32:ssg.obj
 0001:00018b00       ?getTypeName@ssgSimpleList@@UAEPBDXZ 00419b00 f   ssg_vs2008_32:ssg.obj
 0001:00018b10       ?getTypeName@ssgColourArray@@UAEPBDXZ 00419b10 f   ssg_vs2008_32:ssg.obj
 0001:00018b20       ?getTypeName@ssgIndexArray@@UAEPBDXZ 00419b20 f   ssg_vs2008_32:ssg.obj
 0001:00018b30       ?getTypeName@ssgTransformArray@@UAEPBDXZ 00419b30 f   ssg_vs2008_32:ssg.obj
 0001:00018b40       ?getTypeName@ssgTexCoordArray@@UAEPBDXZ 00419b40 f   ssg_vs2008_32:ssg.obj
 0001:00018b50       ?getTypeName@ssgVertexArray@@UAEPBDXZ 00419b50 f   ssg_vs2008_32:ssg.obj
 0001:00018b60       ?getTypeName@ssgNormalArray@@UAEPBDXZ 00419b60 f   ssg_vs2008_32:ssg.obj
 0001:00018b70       ?getTypeName@ssgInterleavedArray@@UAEPBDXZ 00419b70 f   ssg_vs2008_32:ssg.obj
 0001:00019850       ?ssgCreateOfType@@YAPAVssgBase@@H@Z 0041a850 f   ssg_vs2008_32:ssg.obj
 0001:00019960       ?ssgIsExtensionSupported@@YA_NPAD@Z 0041a960 f   ssg_vs2008_32:ssg.obj
 0001:00019980       ?sizeChk@ssgSimpleList@@IAEXI@Z 0041a980 f i ssg_vs2008_32:ssgTexture.obj
 0001:00019a00       ?removeAll@ssgSimpleList@@QAEXXZ 0041aa00 f i ssg_vs2008_32:ssgTexture.obj
 0001:00019a30       ?setDefaultGlParams@ssgTexture@@IAEXHHH@Z 0041aa30 f   ssg_vs2008_32:ssgTexture.obj
 0001:00019ad0       ??0ssgTexture@@QAE@XZ      0041aad0 f   ssg_vs2008_32:ssgTexture.obj
 0001:00019b10       ?free_handle@ssgTexture@@IAEXXZ 0041ab10 f   ssg_vs2008_32:ssgTexture.obj
 0001:00019b40       ?setHandle@ssgTexture@@QAEXI@Z 0041ab40 f   ssg_vs2008_32:ssgTexture.obj
 0001:00019b60       ?print@ssgTexture@@UAEXPAU_iobuf@@PADH@Z 0041ab60 f   ssg_vs2008_32:ssgTexture.obj
 0001:00019b90       ?save@ssgTexture@@UAEHPAU_iobuf@@@Z 0041ab90 f   ssg_vs2008_32:ssgTexture.obj
 0001:00019bd0       ?add@ssgTextureArray@@QAEXPAVssgTexture@@@Z 0041abd0 f   ssg_vs2008_32:ssgTexture.obj
 0001:00019bd0       ?add@ssgSimpleStateArray@@QAEXPAVssgSimpleState@@@Z 0041abd0 f   ssg_vs2008_32:ssgSimpleState.obj
 0001:00019c10       ?removeAll@ssgTextureArray@@QAEXXZ 0041ac10 f   ssg_vs2008_32:ssgTexture.obj
 0001:00019c10       ?removeAll@ssgSimpleStateArray@@QAEXXZ 0041ac10 f   ssg_vs2008_32:ssgSimpleState.obj
 0001:00019c70       ?findByFilename@ssgTextureArray@@QAEPAVssgTexture@@PBD@Z 0041ac70 f   ssg_vs2008_32:ssgTexture.obj
 0001:00019cd0       ?clone@ssgTexture@@UAEPAVssgBase@@H@Z 0041acd0 f   ssg_vs2008_32:ssgTexture.obj
 0001:00019d40       ??1ssgTexture@@UAE@XZ      0041ad40 f   ssg_vs2008_32:ssgTexture.obj
 0001:00019db0       ?alloc_handle@ssgTexture@@IAEXXZ 0041adb0 f   ssg_vs2008_32:ssgTexture.obj
 0001:00019de0       ?load@ssgTexture@@UAEHPAU_iobuf@@@Z 0041ade0 f   ssg_vs2008_32:ssgTexture.obj
 0001:00019e70       ?copy_from@ssgTexture@@MAEXPAV1@H@Z 0041ae70 f   ssg_vs2008_32:ssgTexture.obj
 0001:00019f00       ??_EssgTexture@@UAEPAXI@Z  0041af00 f i ssg_vs2008_32:ssgTexture.obj
 0001:00019f00       ??_GssgTexture@@UAEPAXI@Z  0041af00 f i ssg_vs2008_32:ssgTexture.obj
 0001:00019f20       ??0ssgTexture@@QAE@PBDHHH@Z 0041af20 f   ssg_vs2008_32:ssgTexture.obj
 0001:00019ff0       ?sgEqualVec3@@YAHQBM0@Z    0041aff0 f i ssg_vs2008_32:ssgSimpleState.obj
 0001:0001a030       ?sgEqualVec4@@YAHQBM0@Z    0041b030 f i ssg_vs2008_32:ssgSimpleState.obj
 0001:0001a080       ?setShadeModel@ssgSimpleState@@UAEXI@Z 0041b080 f i ssg_vs2008_32:ssgSimpleState.obj
 0001:0001a0a0       ?copy_from@ssgSimpleState@@UAEXPAV1@H@Z 0041b0a0 f   ssg_vs2008_32:ssgSimpleState.obj
 0001:0001a1a0       ?_ssgForceLineState@@YAXXZ 0041b1a0 f   ssg_vs2008_32:ssgSimpleState.obj
 0001:0001a1e0       ??0ssgSimpleState@@QAE@XZ  0041b1e0 f   ssg_vs2008_32:ssgSimpleState.obj
 0001:0001a210       ?isTranslucent@ssgState@@UAEHXZ 0041b210 f i ssg_vs2008_32:ssgSimpleState.obj
 0001:0001a220       ?setTranslucent@ssgState@@UAEXXZ 0041b220 f i ssg_vs2008_32:ssgSimpleState.obj
 0001:0001a230       ?setOpaque@ssgState@@UAEXXZ 0041b230 f i ssg_vs2008_32:ssgSimpleState.obj
 0001:0001a240       ?care_about@ssgSimpleState@@UAEXH@Z 0041b240 f i ssg_vs2008_32:ssgSimpleState.obj
 0001:0001a260       ?dont_care_about@ssgSimpleState@@UAEXH@Z 0041b260 f i ssg_vs2008_32:ssgSimpleState.obj
 0001:0001a280       ?getCareAbout@ssgSimpleState@@UAEHH@Z 0041b280 f i ssg_vs2008_32:ssgSimpleState.obj
 0001:0001a2a0       ?set@ssgSimpleState@@UAEXIH@Z 0041b2a0 f i ssg_vs2008_32:ssgSimpleState.obj
 0001:0001a2d0       ?getTextureHandle@ssgSimpleState@@UAEIXZ 0041b2d0 f i ssg_vs2008_32:ssgSimpleState.obj
 0001:0001a2e0       ?getTextureFilename@ssgSimpleState@@UAEPADXZ 0041b2e0 f i ssg_vs2008_32:ssgSimpleState.obj
 0001:0001a2f0       ?getTexture@ssgSimpleState@@UAEPAVssgTexture@@XZ 0041b2f0 f i ssg_vs2008_32:ssgSimpleState.obj
 0001:0001a300       ?setTexture@ssgSimpleState@@UAEXPAVssgTexture@@@Z 0041b300 f i ssg_vs2008_32:ssgSimpleState.obj
 0001:0001a340       ?setTexture@ssgSimpleState@@UAEXPBDHHH@Z 0041b340 f i ssg_vs2008_32:ssgSimpleState.obj
 0001:0001a3c0       ?setTexture@ssgSimpleState@@UAEXI@Z 0041b3c0 f i ssg_vs2008_32:ssgSimpleState.obj
 0001:0001a450       ?setTextureFilename@ssgSimpleState@@UAEXPBD@Z 0041b450 f i ssg_vs2008_32:ssgSimpleState.obj
 0001:0001a4f0       ?getColourMaterial@ssgSimpleState@@UAEIXZ 0041b4f0 f i ssg_vs2008_32:ssgSimpleState.obj
 0001:0001a500       ?setColourMaterial@ssgSimpleState@@UAEXI@Z 0041b500 f i ssg_vs2008_32:ssgSimpleState.obj
 0001:0001a520       ?setMaterial@ssgSimpleState@@UAEXIMMMM@Z 0041b520 f i ssg_vs2008_32:ssgSimpleState.obj
 0001:0001a560       ?setMaterial@ssgSimpleState@@UAEXIQAM@Z 0041b560 f i ssg_vs2008_32:ssgSimpleState.obj
 0001:0001a670       ?getMaterial@ssgSimpleState@@UAEPAMI@Z 0041b670 f i ssg_vs2008_32:ssgSimpleState.obj
 0001:0001a6b0       ?getShininess@ssgSimpleState@@UAEMXZ 0041b6b0 f i ssg_vs2008_32:ssgSimpleState.obj
 0001:0001a6c0       ?setShininess@ssgSimpleState@@UAEXM@Z 0041b6c0 f i ssg_vs2008_32:ssgSimpleState.obj
 0001:0001a6e0       ?setAlphaClamp@ssgSimpleState@@UAEXM@Z 0041b6e0 f i ssg_vs2008_32:ssgSimpleState.obj
 0001:0001a700       ??1ssgSimpleState@@UAE@XZ  0041b700 f   ssg_vs2008_32:ssgSimpleState.obj
 0001:0001a760       ?apply@ssgSimpleState@@UAEXXZ 0041b760 f   ssg_vs2008_32:ssgSimpleState.obj
 0001:0001ab20       ?force@ssgSimpleState@@UAEXXZ 0041bb20 f   ssg_vs2008_32:ssgSimpleState.obj
 0001:0001adc0       ?isEnabled@ssgSimpleState@@UAEHI@Z 0041bdc0 f   ssg_vs2008_32:ssgSimpleState.obj
 0001:0001ae30       ?disable@ssgSimpleState@@UAEXI@Z 0041be30 f   ssg_vs2008_32:ssgSimpleState.obj
 0001:0001aef0       ?enable@ssgSimpleState@@UAEXI@Z 0041bef0 f   ssg_vs2008_32:ssgSimpleState.obj
 0001:0001afb0       ?load@ssgSimpleState@@UAEHPAU_iobuf@@@Z 0041bfb0 f   ssg_vs2008_32:ssgSimpleState.obj
 0001:0001b060       ?save@ssgSimpleState@@UAEHPAU_iobuf@@@Z 0041c060 f   ssg_vs2008_32:ssgSimpleState.obj
 0001:0001b190       ?print@ssgSimpleState@@UAEXPAU_iobuf@@PADH@Z 0041c190 f   ssg_vs2008_32:ssgSimpleState.obj
 0001:0001b390       ?findIndex@ssgSimpleStateArray@@QAEHPAVssgSimpleState@@@Z 0041c390 f   ssg_vs2008_32:ssgSimpleState.obj
 0001:0001b3d0       ?findMatch@ssgSimpleStateArray@@QAEPAVssgSimpleState@@PAV2@@Z 0041c3d0 f   ssg_vs2008_32:ssgSimpleState.obj
 0001:0001b660       ?clone@ssgSimpleState@@UAEPAVssgBase@@H@Z 0041c660 f   ssg_vs2008_32:ssgSimpleState.obj
 0001:0001b6d0       ??0ssgSimpleState@@QAE@H@Z 0041c6d0 f   ssg_vs2008_32:ssgSimpleState.obj
 0001:0001b780       ??_GssgSimpleState@@UAEPAXI@Z 0041c780 f i ssg_vs2008_32:ssgSimpleState.obj
 0001:0001b780       ??_EssgSimpleState@@UAEPAXI@Z 0041c780 f i ssg_vs2008_32:ssgSimpleState.obj
 0001:0001b7a0       ?collect_recursive@ssgSimpleStateArray@@AAEXPAVssgEntity@@@Z 0041c7a0 f   ssg_vs2008_32:ssgSimpleState.obj
 0001:0001b830       ?collect@ssgSimpleStateArray@@QAEXPAVssgEntity@@@Z 0041c830 f   ssg_vs2008_32:ssgSimpleState.obj
 0001:0001b850       ?make_path@ssgLoaderOptions@@IBEPADPADPBD1@Z 0041c850 f   ssg_vs2008_32:ssgLoad.obj
 0001:0001b920       ?makeModelPath@ssgLoaderOptions@@UBEXPADPBD@Z 0041c920 f   ssg_vs2008_32:ssgLoad.obj
 0001:0001b940       ?makeTexturePath@ssgLoaderOptions@@UBEXPADPBD@Z 0041c940 f   ssg_vs2008_32:ssgLoad.obj
 0001:0001b9b0       ?createLeaf@ssgLoaderOptions@@UAEPAVssgLeaf@@PAV2@PBD@Z 0041c9b0 f   ssg_vs2008_32:ssgLoad.obj
 0001:0001ba00       ?createTexture@ssgLoaderOptions@@UAEPAVssgTexture@@PADHHH@Z 0041ca00 f   ssg_vs2008_32:ssgLoad.obj
 0001:0001bad0       ?createTransform@ssgLoaderOptions@@UBEPAVssgTransform@@PAV2@PAVssgTransformArray@@@Z 0041cad0 f   ssg_vs2008_32:ssgLoad.obj
 0001:0001bb00       ?createSelector@ssgLoaderOptions@@UBEPAVssgSelector@@PAV2@@Z 0041cb00 f   ssg_vs2008_32:ssgLoad.obj
 0001:0001bb10       ?setModelDir@ssgLoaderOptions@@QAEXPBD@Z 0041cb10 f   ssg_vs2008_32:ssgLoad.obj
 0001:0001bb30       ?setTextureDir@ssgLoaderOptions@@QAEXPBD@Z 0041cb30 f   ssg_vs2008_32:ssgLoad.obj
 0001:0001bb80       ?ssgAddModelFormat@@YAXPBDP6APAVssgEntity@@0PBVssgLoaderOptions@@@ZP6AH0PAV1@@Z@Z 0041cb80 f   ssg_vs2008_32:ssgLoad.obj
 0001:0001bc20       ?ssgLoad@@YAPAVssgEntity@@PBDPBVssgLoaderOptions@@@Z 0041cc20 f   ssg_vs2008_32:ssgLoad.obj
 0001:0001bce0       ?add@ssgTexCoordArray@@QAEXQAM@Z 0041cce0 f i ssg_vs2008_32:ssgLoadAC.obj
 0001:0001bce0       ?add@ssgNormalArray@@QAEXQAM@Z 0041cce0 f i ssg_vs2008_32:ssgLoadAC.obj
 0001:0001bce0       ?add@ssgVertexArray@@QAEXQAM@Z 0041cce0 f i ssg_vs2008_32:ssgLoadAC.obj
 0001:0001bce0       ?add@ssgSimpleStateList@@QAEXPAPAVssgSimpleState@@@Z 0041cce0 f i ssg_vs2008_32:ssgLoadX.obj
 0001:0001bce0       ?add@dxfVertArray@@QAEXPBVdxfVert@@@Z 0041cce0 f i ssg_vs2008_32:ssgLoadDXF.obj
 0001:0001bd10       ?add@ssgIndexArray@@QAEXF@Z 0041cd10 f i ssg_vs2008_32:ssgLoadAC.obj
 0001:0001ddd0       ?ssgLoadAC@@YAPAVssgEntity@@PBDPBVssgLoaderOptions@@@Z 0041edd0 f   ssg_vs2008_32:ssgLoadAC.obj
 0001:0001e030       ?ssgLoadAC3D@@YAPAVssgEntity@@PBDPBVssgLoaderOptions@@@Z 0041f030 f   ssg_vs2008_32:ssgLoadAC.obj
 0001:0001e0c0       ?getIndex@ssgVtxArray@@QAEPAFH@Z 0041f0c0 f i ssg_vs2008_32:ssgBranch.obj
 0001:0001e100       ??0ssgBranch@@QAE@XZ       0041f100 f   ssg_vs2008_32:ssgBranch.obj
 0001:0001e160       ?getNumKids@ssgBranch@@UAEHXZ 0041f160 f i ssg_vs2008_32:ssgBranch.obj
 0001:0001e170       ?zeroSpareRecursive@ssgBranch@@UAEXXZ 0041f170 f   ssg_vs2008_32:ssgBranch.obj
 0001:0001e1c0       ?recalcBSphere@ssgBranch@@UAEXXZ 0041f1c0 f   ssg_vs2008_32:ssgBranch.obj
 0001:0001e240       ?addKid@ssgBranch@@QAEXPAVssgEntity@@@Z 0041f240 f   ssg_vs2008_32:ssgBranch.obj
 0001:0001e270       ?removeKid@ssgBranch@@QAEXH@Z 0041f270 f   ssg_vs2008_32:ssgBranch.obj
 0001:0001e2d0       ?removeKid@ssgBranch@@QAEXPAVssgEntity@@@Z 0041f2d0 f   ssg_vs2008_32:ssgBranch.obj
 0001:0001e2f0       ?removeAllKids@ssgBranch@@QAEXXZ 0041f2f0 f   ssg_vs2008_32:ssgBranch.obj
 0001:0001e320       ?replaceKid@ssgBranch@@QAEXHPAVssgEntity@@@Z 0041f320 f   ssg_vs2008_32:ssgBranch.obj
 0001:0001e3a0       ?replaceKid@ssgBranch@@QAEXPAVssgEntity@@0@Z 0041f3a0 f   ssg_vs2008_32:ssgBranch.obj
 0001:0001e3d0       ?print@ssgBranch@@UAEXPAU_iobuf@@PADH@Z 0041f3d0 f   ssg_vs2008_32:ssgBranch.obj
 0001:0001e4d0       ?getStats@ssgBranch@@UAEXPAH000@Z 0041f4d0 f   ssg_vs2008_32:ssgBranch.obj
 0001:0001e590       ?getByName@ssgBranch@@UAEPAVssgEntity@@PAD@Z 0041f590 f   ssg_vs2008_32:ssgBranch.obj
 0001:0001e620       ?getByPath@ssgBranch@@UAEPAVssgEntity@@PAD@Z 0041f620 f   ssg_vs2008_32:ssgBranch.obj
 0001:0001e710       ?cull@ssgBranch@@UAEXPAVsgFrustum@@QAY03MH@Z 0041f710 f   ssg_vs2008_32:ssgBranch.obj
 0001:0001e7a0       ?hot@ssgBranch@@UAEXQAMQAY03MH@Z 0041f7a0 f   ssg_vs2008_32:ssgBranch.obj
 0001:0001e840       ?los@ssgBranch@@UAEXQAMQAY03MH@Z 0041f840 f   ssg_vs2008_32:ssgBranch.obj
 0001:0001e8e0       ?isect@ssgBranch@@UAEXPAVsgSphere@@QAY03MH@Z 0041f8e0 f   ssg_vs2008_32:ssgBranch.obj
 0001:0001e980       ?load@ssgBranch@@UAEHPAU_iobuf@@@Z 0041f980 f   ssg_vs2008_32:ssgBranch.obj
 0001:0001e9f0       ?save@ssgBranch@@UAEHPAU_iobuf@@@Z 0041f9f0 f   ssg_vs2008_32:ssgBranch.obj
 0001:0001ea80       ?copy_from@ssgBranch@@MAEXPAV1@H@Z 0041fa80 f   ssg_vs2008_32:ssgBranch.obj
 0001:0001eaf0       ?clone@ssgBranch@@UAEPAVssgBase@@H@Z 0041faf0 f   ssg_vs2008_32:ssgBranch.obj
 0001:0001eb60       ??1ssgBranch@@UAE@XZ       0041fb60 f   ssg_vs2008_32:ssgBranch.obj
 0001:0001ebc0       ??_EssgBranch@@UAEPAXI@Z   0041fbc0 f i ssg_vs2008_32:ssgBranch.obj
 0001:0001ebc0       ??_GssgBranch@@UAEPAXI@Z   0041fbc0 f i ssg_vs2008_32:ssgBranch.obj
 0001:0001ebe0       ??0ssgRoot@@QAE@XZ         0041fbe0 f   ssg_vs2008_32:ssgRoot.obj
 0001:0001ec00       ??1ssgRoot@@UAE@XZ         0041fc00 f   ssg_vs2008_32:ssgRoot.obj
 0001:0001ec10       ?clone@ssgRoot@@UAEPAVssgBase@@H@Z 0041fc10 f   ssg_vs2008_32:ssgRoot.obj
 0001:0001ec80       ??_EssgRoot@@UAEPAXI@Z     0041fc80 f i ssg_vs2008_32:ssgRoot.obj
 0001:0001ec80       ??_GssgRoot@@UAEPAXI@Z     0041fc80 f i ssg_vs2008_32:ssgRoot.obj
 0001:0001eca0       ?sgCompareFloat@@YAHMMM@Z  0041fca0 f i ssg_vs2008_32:ssgOptimiser.obj
 0001:0001ece0       ?sgCompareVec2@@YAHQBM0M@Z 0041fce0 f i ssg_vs2008_32:ssgOptimiser.obj
 0001:0001ed70       ?sgCompareVec3@@YAHQBM0M@Z 0041fd70 f i ssg_vs2008_32:ssgOptimiser.obj
 0001:0001f0a0       ?flatten@@YAXPAVssgBranch@@PAVssgEntity@@QAY03M@Z 004200a0 f   ssg_vs2008_32:ssgOptimiser.obj
 0001:0001f340       ?ssgFlatten@@YAXPAVssgEntity@@@Z 00420340 f   ssg_vs2008_32:ssgOptimiser.obj
 0001:0001f430       ?_ssgPushPath@@YAXPAVssgEntity@@@Z 00420430 f   ssg_vs2008_32:ssgIsect.obj
 0001:0001f450       ?_ssgPopPath@@YAXXZ        00420450 f   ssg_vs2008_32:ssgIsect.obj
 0001:0001f460       ?_ssgAddHit@@YAXPAVssgLeaf@@HQAY03MQAM@Z 00420460 f   ssg_vs2008_32:ssgIsect.obj
 0001:0001f500       ?ssgHOT@@YAHPAVssgBranch@@QAMQAY03MPAPAVssgHit@@@Z 00420500 f   ssg_vs2008_32:ssgIsect.obj
 0001:0001f550       ?_ssgReadError@@YAHXZ      00420550 f   ssg_vs2008_32:ssgIO.obj
 0001:0001f560       ?_ssgWriteError@@YAHXZ     00420560 f   ssg_vs2008_32:ssgIO.obj
 0001:0001f570       ?_ssgWriteUInt@@YAXPAU_iobuf@@I@Z 00420570 f   ssg_vs2008_32:ssgIO.obj
 0001:0001f570       ?_ssgWriteFloat@@YAXPAU_iobuf@@M@Z 00420570 f   ssg_vs2008_32:ssgIO.obj
 0001:0001f570       ?_ssgWriteInt@@YAXPAU_iobuf@@H@Z 00420570 f   ssg_vs2008_32:ssgIO.obj
 0001:0001f5a0       ?_ssgReadFloat@@YAXPAU_iobuf@@PAM@Z 004205a0 f   ssg_vs2008_32:ssgIO.obj
 0001:0001f5a0       ?_ssgReadInt@@YAXPAU_iobuf@@PAH@Z 004205a0 f   ssg_vs2008_32:ssgIO.obj
 0001:0001f5a0       ?_ssgReadUInt@@YAXPAU_iobuf@@PAI@Z 004205a0 f   ssg_vs2008_32:ssgIO.obj
 0001:0001f5d0       ?_ssgReadFloat@@YAXPAU_iobuf@@IPAM@Z 004205d0 f   ssg_vs2008_32:ssgIO.obj
 0001:0001f600       ?_ssgWriteFloat@@YAXPAU_iobuf@@IPBM@Z 00420600 f   ssg_vs2008_32:ssgIO.obj
 0001:0001f630       ?_ssgReadBytes@@YAXPAU_iobuf@@IPAX@Z 00420630 f   ssg_vs2008_32:ssgIO.obj
 0001:0001f660       ?_ssgWriteBytes@@YAXPAU_iobuf@@IPBX@Z 00420660 f   ssg_vs2008_32:ssgIO.obj
 0001:0001f690       ?_ssgReadUShort@@YAXPAU_iobuf@@IPAG@Z 00420690 f   ssg_vs2008_32:ssgIO.obj
 0001:0001f6c0       ?_ssgWriteUShort@@YAXPAU_iobuf@@IPBG@Z 004206c0 f   ssg_vs2008_32:ssgIO.obj
 0001:0001f6f0       ?_ssgReadString@@YAXPAU_iobuf@@PAPAD@Z 004206f0 f   ssg_vs2008_32:ssgIO.obj
 0001:0001f770       ?_ssgWriteString@@YAXPAU_iobuf@@PBD@Z 00420770 f   ssg_vs2008_32:ssgIO.obj
 0001:0001f7a0       ?_ssgReadVec3@@YAXPAU_iobuf@@QAM@Z 004207a0 f   ssg_vs2008_32:ssgIO.obj
 0001:0001f7c0       ?_ssgWriteVec3@@YAXPAU_iobuf@@QBM@Z 004207c0 f   ssg_vs2008_32:ssgIO.obj
 0001:0001f7e0       ?_ssgReadVec4@@YAXPAU_iobuf@@QAM@Z 004207e0 f   ssg_vs2008_32:ssgIO.obj
 0001:0001f800       ?_ssgWriteVec4@@YAXPAU_iobuf@@QBM@Z 00420800 f   ssg_vs2008_32:ssgIO.obj
 0001:0001f820       ?_ssgReadMat4@@YAXPAU_iobuf@@QAY03M@Z 00420820 f   ssg_vs2008_32:ssgIO.obj
 0001:0001f840       ?_ssgWriteMat4@@YAXPAU_iobuf@@QAY03$$CBM@Z 00420840 f   ssg_vs2008_32:ssgIO.obj
 0001:0001f860       ?setFOV@sgFrustum@@QAEXMM@Z 00420860 f i ssg_vs2008_32:ssgContext.obj
 0001:0001f8d0       ?makeCurrent@ssgContext@@QAEXXZ 004208d0 f   ssg_vs2008_32:ssgContext.obj
 0001:0001f8e0       ??0ssgContext@@QAE@XZ      004208e0 f   ssg_vs2008_32:ssgContext.obj
 0001:0001fb40       ??0ObjLoader@@QAE@PBVssgLoaderOptions@@@Z 00420b40 f   ssg_vs2008_32:ssgLoadXPlaneObj.obj
 0001:0001fb70       ?get_state@ObjLoader@@AAEPAVssgState@@PBD@Z 00420b70 f   ssg_vs2008_32:ssgLoadXPlaneObj.obj
 0001:0001fd40       ?fgets@ObjLoader@@AAEPADPADHPAU_iobuf@@@Z 00420d40 f   ssg_vs2008_32:ssgLoadXPlaneObj.obj
 0001:0001fdb0       ?getline@ObjLoader@@AAEPADPADIPAU_iobuf@@@Z 00420db0 f   ssg_vs2008_32:ssgLoadXPlaneObj.obj
 0001:0001fe20       ?getTextureName@ObjLoader@@AAEPADPBDPADI@Z 00420e20 f   ssg_vs2008_32:ssgLoadXPlaneObj.obj
 0001:0001feb0       ?load@ObjLoader@@QAEPAVssgEntity@@PBD@Z 00420eb0 f   ssg_vs2008_32:ssgLoadXPlaneObj.obj
 0001:00020900       ?ssgLoadXPlaneOBJ@@YAPAVssgEntity@@PBDPBVssgLoaderOptions@@@Z 00421900 f   ssg_vs2008_32:ssgLoadXPlaneObj.obj
 0001:00020930       ?ssgLoadMDLTexture@@YA_NPBDPAUssgTextureInfo@@@Z 00421930 f   ssg_vs2008_32:ssgLoadMDL_BGLTexture.obj
 0001:00020ac0       ?makeConsistant@ssgSGIHeader@@QAEXXZ 00421ac0 f   ssg_vs2008_32:ssgLoadSGI.obj
 0001:00020b90       ?swab_short@ssgSGIHeader@@IAEXPAG@Z 00421b90 f   ssg_vs2008_32:ssgLoadSGI.obj
 0001:00020bc0       ?swab_int@ssgSGIHeader@@IAEXPAI@Z 00421bc0 f   ssg_vs2008_32:ssgLoadSGI.obj
 0001:00020c00       ?swab_int_array@ssgSGIHeader@@IAEXPAHH@Z 00421c00 f   ssg_vs2008_32:ssgLoadSGI.obj
 0001:00020c60       ?readByte@ssgSGIHeader@@IAEEXZ 00421c60 f   ssg_vs2008_32:ssgLoadSGI.obj
 0001:00020c80       ?readShort@ssgSGIHeader@@IAEGXZ 00421c80 f   ssg_vs2008_32:ssgLoadSGI.obj
 0001:00020cb0       ?readInt@ssgSGIHeader@@IAEIXZ 00421cb0 f   ssg_vs2008_32:ssgLoadSGI.obj
 0001:00020ce0       ?getRow@ssgSGIHeader@@QAEXPAEHH@Z 00421ce0 f   ssg_vs2008_32:ssgLoadSGI.obj
 0001:00020de0       ??1ssgSGIHeader@@QAE@XZ    00421de0 f   ssg_vs2008_32:ssgLoadSGI.obj
 0001:00020e30       ?readHeader@ssgSGIHeader@@QAEXXZ 00421e30 f   ssg_vs2008_32:ssgLoadSGI.obj
 0001:00020fb0       ?openFile@ssgSGIHeader@@QAE_NPBD@Z 00421fb0 f   ssg_vs2008_32:ssgLoadSGI.obj
 0001:00021110       ??0ssgSGIHeader@@QAE@PBDPAUssgTextureInfo@@@Z 00422110 f   ssg_vs2008_32:ssgLoadSGI.obj
 0001:00021450       ?ssgLoadSGI@@YA_NPBDPAUssgTextureInfo@@@Z 00422450 f   ssg_vs2008_32:ssgLoadSGI.obj
 0001:000215b0       ?ReadFileIntoBuffer@@YAHPBDAAPAE1AAK@Z 004225b0 f   ssg_vs2008_32:ssgLoadPCX.obj
 0001:00021640       ?ssgLoadPCX@@YA_NPBDPAUssgTextureInfo@@@Z 00422640 f   ssg_vs2008_32:ssgLoadPCX.obj
 0001:00021a40       ?ssgLoadBMP@@YA_NPBDPAUssgTextureInfo@@@Z 00422a40 f   ssg_vs2008_32:ssgLoadBMP.obj
 0001:00021f60       ?ssgMakeMipMaps@@YA_NPAEHHH_N@Z 00422f60 f   ssg_vs2008_32:ssgLoadTexture.obj
 0001:00022470       ?ssgAddTextureFormat@@YAXPBDP6A_N0PAUssgTextureInfo@@@Z@Z 00423470 f   ssg_vs2008_32:ssgLoadTexture.obj
 0001:00022550       ?ssgConvertTexture@@YA_NPADPBD@Z 00423550 f   ssg_vs2008_32:ssgLoadTexture.obj
 0001:00022670       ?ssgLoadTexture@@YA_NPBDPAUssgTextureInfo@@@Z 00423670 f   ssg_vs2008_32:ssgLoadTexture.obj
 0001:000227b0       ?ssgLoadTGA@@YA_NPBDPAUssgTextureInfo@@@Z 004237b0 f   ssg_vs2008_32:ssgLoadTGA.obj
 0001:00022e30       ?ulEndianReadLittle16@@YAGPAU_iobuf@@@Z 00423e30 f i ssg_vs2008_32:ssgLoadMDL.obj
 0001:00022e50       ?ulEndianReadLittle32@@YAIPAU_iobuf@@@Z 00423e50 f i ssg_vs2008_32:ssgLoadMDL.obj
 0001:00022e70       ?ulEndianReadLittleFloat@@YAMPAU_iobuf@@@Z 00423e70 f i ssg_vs2008_32:ssgLoadMDL.obj
 0001:00024650       ?ParseBGL@@YAXPAU_iobuf@@@Z 00425650 f   ssg_vs2008_32:ssgLoadMDL.obj
 0001:00025f60       ?FindBGLBeginRIFF@@YAXPAU_iobuf@@@Z 00426f60 f   ssg_vs2008_32:ssgLoadMDL.obj
 0001:00026090       ?FindBGLBeginOldVersion@@YAXPAU_iobuf@@@Z 00427090 f   ssg_vs2008_32:ssgLoadMDL.obj
 0001:00026100       ?ssgLoadMDL@@YAPAVssgEntity@@PBDPBVssgLoaderOptions@@@Z 00427100 f   ssg_vs2008_32:ssgLoadMDL.obj
 0001:00026710       ?AscLinePreProcessor@@YAXPAD@Z 00427710 f   ssg_vs2008_32:ssgLoadASC.obj
 0001:00026760       ?set_sName@MeshStatusType@@QAEXPAD@Z 00427760 f   ssg_vs2008_32:ssgLoadASC.obj
 0001:000267b0       ?CheckIndex@@YAXAAHH@Z     004277b0 f   ssg_vs2008_32:ssgLoadASC.obj
 0001:00027060       ?SetOrGetMaterial@@YAHPAD@Z 00428060 f   ssg_vs2008_32:ssgLoadASC.obj
 0001:00027790       ?CheckWhetherMeshHasEnded@@YAXXZ 00428790 f   ssg_vs2008_32:ssgLoadASC.obj
 0001:00027ac0       ?ssgLoadASC@@YAPAVssgEntity@@PBDPBVssgLoaderOptions@@@Z 00428ac0 f   ssg_vs2008_32:ssgLoadASC.obj
 0001:00028130       ?ssgSaveASC@@YAHPAU_iobuf@@PAVssgEntity@@@Z 00429130 f   ssg_vs2008_32:ssgSaveASC.obj
 0001:00028190       ?ssgSaveASC@@YAHPBDPAVssgEntity@@@Z 00429190 f   ssg_vs2008_32:ssgSaveASC.obj
 0001:000281e0       ?select@ssgSelector@@QAEXI@Z 004291e0 f i ssg_vs2008_32:ssgLoadIV.obj
 0001:00028220       ??0ssgListOfNodes@@QAE@H@Z 00429220 f i ssg_vs2008_32:ssgLoadIV.obj
 0001:000282a0       ??0_nodeIndex@@QAE@XZ      004292a0 f i ssg_vs2008_32:ssgLoadIV.obj
 0001:00028310       ??1_nodeIndex@@QAE@XZ      00429310 f i ssg_vs2008_32:ssgLoadIV.obj
 0001:00028350       ?insert@_nodeIndex@@QAEXPAVssgBase@@@Z 00429350 f i ssg_vs2008_32:ssgLoadIV.obj
 0001:00028af0       ?ssgLoadIV@@YAPAVssgEntity@@PBDPBVssgLoaderOptions@@@Z 00429af0 f   ssg_vs2008_32:ssgLoadIV.obj
 0001:000297e0       ?ssgSaveIV@@YAHPBDPAVssgEntity@@@Z 0042a7e0 f   ssg_vs2008_32:ssgSaveIV.obj
 0001:00029840       ?extract@_nodeIndex@@QAEPAVssgBase@@PAD@Z 0042a840 f i ssg_vs2008_32:ssgLoadVRML1.obj
 0001:000298b0       ?parseVec@@YA_NPAMH@Z      0042a8b0 f   ssg_vs2008_32:ssgLoadVRML1.obj
 0001:00029900       ?parseIndexArray@@YAPAVssgIndexArray@@PAV_traversalState@@@Z 0042a900 f   ssg_vs2008_32:ssgLoadVRML1.obj
 0001:00029b90       ?vrml1_parseCoordinate3@@YA_NPAVssgBranch@@PAV_traversalState@@PAD@Z 0042ab90 f   ssg_vs2008_32:ssgLoadVRML1.obj
 0001:00029e00       ?vrml1_parseTextureCoordinate2@@YA_NPAVssgBranch@@PAV_traversalState@@PAD@Z 0042ae00 f   ssg_vs2008_32:ssgLoadVRML1.obj
 0001:0002a300       ?vrml1_parseShapeHints@@YA_NPAVssgBranch@@PAV_traversalState@@PAD@Z 0042b300 f   ssg_vs2008_32:ssgLoadVRML1.obj
 0001:0002a4e0       ?vrml1_parseUseDirective@@YA_NPAVssgBranch@@PAV_traversalState@@PAD2@Z 0042b4e0 f   ssg_vs2008_32:ssgLoadVRML1.obj
 0001:0002a530       ?parseUnidentified@@YA_NXZ 0042b530 f   ssg_vs2008_32:ssgLoadVRML1.obj
 0001:0002a5d0       ?vrml1_parseCoordIndex@@YA_NPAVssgLoaderWriterMesh@@PAV_traversalState@@@Z 0042b5d0 f   ssg_vs2008_32:ssgLoadVRML1.obj
 0001:0002a720       ?vrml1_parseTextureCoordIndex@@YA_NPAVssgLoaderWriterMesh@@PAV_traversalState@@@Z 0042b720 f   ssg_vs2008_32:ssgLoadVRML1.obj
 0001:0002aa90       ?mergeTransformNodes@@YAXPAVssgTransform@@00@Z 0042ba90 f   ssg_vs2008_32:ssgLoadVRML1.obj
 0001:0002b5f0       ?applyTransform@@YAXPAVssgTransform@@PAV_traversalState@@@Z 0042c5f0 f   ssg_vs2008_32:ssgLoadVRML1.obj
 0001:0002b6a0       ?ssgLoadVRML1@@YAPAVssgEntity@@PBDPBVssgLoaderOptions@@@Z 0042c6a0 f   ssg_vs2008_32:ssgLoadVRML1.obj
 0001:0002b8a0       ?vrml1_parseMatrixTransform@@YA_NPAVssgBranch@@PAV_traversalState@@PAD@Z 0042c8a0 f   ssg_vs2008_32:ssgLoadVRML1.obj
 0001:0002b9b0       ?vrml1_parseScale@@YA_NPAVssgBranch@@PAV_traversalState@@PAD@Z 0042c9b0 f   ssg_vs2008_32:ssgLoadVRML1.obj
 0001:0002bae0       ?vrml1_parseRotation@@YA_NPAVssgBranch@@PAV_traversalState@@PAD@Z 0042cae0 f   ssg_vs2008_32:ssgLoadVRML1.obj
 0001:0002bc20       ?vrml1_parseTranslation@@YA_NPAVssgBranch@@PAV_traversalState@@PAD@Z 0042cc20 f   ssg_vs2008_32:ssgLoadVRML1.obj
 0001:0002c1a0       ?ssgSaveVRML1@@YAHPBDPAVssgEntity@@@Z 0042d1a0 f   ssg_vs2008_32:ssgSaveVRML1.obj
 0001:0002cb20       ?ssgSaveQHI@@YAHPBDPAVssgEntity@@@Z 0042db20 f   ssg_vs2008_32:ssgSaveQHI.obj
 0001:0002d920       ?ssgLoadATG@@YAPAVssgEntity@@PBDPBVssgLoaderOptions@@@Z 0042e920 f   ssg_vs2008_32:ssgLoadATG.obj
 0001:0002dac0       ?ssgSaveATG@@YAHPBDPAVssgEntity@@@Z 0042eac0 f   ssg_vs2008_32:ssgSaveATG.obj
 0001:0002ebe0       ?ssgLoadOFF@@YAPAVssgEntity@@PBDPBVssgLoaderOptions@@@Z 0042fbe0 f   ssg_vs2008_32:ssgLoadOFF.obj
 0001:0002ecc0       ?ssgSaveOFF@@YAHPBDPAVssgEntity@@@Z 0042fcc0 f   ssg_vs2008_32:ssgSaveOFF.obj
 0001:0002f000       ?ssgLoadM@@YAPAVssgEntity@@PBDPBVssgLoaderOptions@@@Z 00430000 f   ssg_vs2008_32:ssgLoadM.obj
 0001:0002f830       ?ssgSaveM@@YAHPBDPAVssgEntity@@@Z 00430830 f   ssg_vs2008_32:ssgSaveM.obj
 0001:0002fb70       ?ssgLoadStrip@@YAPAVssgEntity@@PBDPBVssgLoaderOptions@@@Z 00430b70 f   ssg_vs2008_32:ssgLoadStrip.obj
 0001:00030260       ?setRanges@ssgRangeSelector@@QAEXPAMI@Z 00431260 f i ssg_vs2008_32:ssgLoadFLT.obj
 0001:00030290       ?compute_loop_time@ssgTimedSelector@@IAEXXZ 00431290 f i ssg_vs2008_32:ssgLoadFLT.obj
 0001:000302d0       ?get_time@ssgTimedSelector@@IBENXZ 004312d0 f i ssg_vs2008_32:ssgLoadFLT.obj
 0001:00030300       ?setDuration@ssgTimedSelector@@QAEXMHW4ssgAnimTimeMode@@@Z 00431300 f i ssg_vs2008_32:ssgLoadFLT.obj
 0001:00030450       ?get32u@@YAIPBX@Z          00431450 f i ssg_vs2008_32:ssgLoadFLT.obj
 0001:00030820       ??1fltState@@QAE@XZ        00431820 f i ssg_vs2008_32:ssgLoadFLT.obj
 0001:00035730       ?ssgLoadFLT@@YAPAVssgEntity@@PBDPBVssgLoaderOptions@@@Z 00436730 f   ssg_vs2008_32:ssgLoadFLT.obj
 0001:00036760       ?ssgSaveFLT@@YAHPBDPAVssgEntity@@@Z 00437760 f   ssg_vs2008_32:ssgSaveFLT.obj
 0001:000368d0       ??0ssgSimpleStateList@@QAE@H@Z 004378d0 f i ssg_vs2008_32:ssgLoadX.obj
 0001:00036950       ?clone@ssgListOfLists@@UAEPAVssgBase@@H@Z 00437950 f i ssg_vs2008_32:ssgLoaderWriterStuff.obj
 0001:00036950       ?clone@ssgListOfNodes@@UAEPAVssgBase@@H@Z 00437950 f i ssg_vs2008_32:ssgLoadIV.obj
 0001:00036950       ?clone@ssgSimpleStateList@@UAEPAVssgBase@@H@Z 00437950 f i ssg_vs2008_32:ssgLoadX.obj
 0001:00037dc0       ?ssgLoadX@@YAPAVssgEntity@@PBDPBVssgLoaderOptions@@@Z 00438dc0 f   ssg_vs2008_32:ssgLoadX.obj
 0001:00037ec0       ?ssgSaveX@@YAHPBDPAVssgEntity@@@Z 00438ec0 f   ssg_vs2008_32:ssgSaveX.obj
 0001:00037ee0       ?selectStep@ssgSelector@@QAEXI@Z 00438ee0 f i ssg_vs2008_32:ssgLoadMD2.obj
 0001:00038770       ?ssgLoadMD2@@YAPAVssgEntity@@PBDPBVssgLoaderOptions@@@Z 00439770 f   ssg_vs2008_32:ssgLoadMD2.obj
 0001:00038890       ?ssgLoadTRI@@YAPAVssgEntity@@PBDPBVssgLoaderOptions@@@Z 00439890 f   ssg_vs2008_32:ssgLoadTRI.obj
 0001:00038ce0       ?ssgSaveTRI@@YAHPBDPAVssgEntity@@@Z 00439ce0 f   ssg_vs2008_32:ssgSaveTRI.obj
 0001:0003a050       ?ssgLoadOBJ@@YAPAVssgEntity@@PBDPBVssgLoaderOptions@@@Z 0043b050 f   ssg_vs2008_32:ssgLoadOBJ.obj
 0001:0003a4e0       ?ssgSaveOBJ@@YAHPBDPAVssgEntity@@@Z 0043b4e0 f   ssg_vs2008_32:ssgSaveOBJ.obj
 0001:0003a590       ?sgScaleVec4@@YAXQAMM@Z    0043b590 f i ssg_vs2008_32:ssgLoadDXF.obj
 0001:0003a5c0       ?isEqual@dxfVert@@QAEHPAV1@@Z 0043b5c0 f   ssg_vs2008_32:ssgLoadDXF.obj
 0001:0003ba90       ?ssgLoadDXF@@YAPAVssgEntity@@PBDPBVssgLoaderOptions@@@Z 0043ca90 f   ssg_vs2008_32:ssgLoadDXF.obj
 0001:0003c090       ?ssgSaveDXF@@YAHPBDPAVssgEntity@@@Z 0043d090 f   ssg_vs2008_32:ssgSaveDXF.obj
 0001:0003cf50       ?ssgLoadDOF@@YAPAVssgEntity@@PBDPBVssgLoaderOptions@@@Z 0043df50 f   ssg_vs2008_32:ssgLoadDOF.obj
 0001:0003d110       ?sgSubVec3@@YAXQAMQBM@Z    0043e110 f i ssg_vs2008_32:ssgLoadASE.obj
 0001:0003d140       ?setNum@ssgSimpleList@@QAEXI@Z 0043e140 f i ssg_vs2008_32:ssgLoadASE.obj
 0001:0003d180       ??0aseMesh@@QAE@XZ         0043e180 f   ssg_vs2008_32:ssgLoadASE.obj
 0001:0003d1a0       ??1aseMesh@@QAE@XZ         0043e1a0 f   ssg_vs2008_32:ssgLoadASE.obj
 0001:0003d1d0       ??0aseObject@@QAE@W4Type@0@@Z 0043e1d0 f   ssg_vs2008_32:ssgLoadASE.obj
 0001:0003fe60       ??1aseObject@@QAE@XZ       00440e60 f   ssg_vs2008_32:ssgLoadASE.obj
 0001:00040d80       ?ssgLoadASE@@YAPAVssgEntity@@PBDPBVssgLoaderOptions@@@Z 00441d80 f   ssg_vs2008_32:ssgLoadASE.obj
 0001:00041890       ?ssgSaveASE@@YAHPAU_iobuf@@PAVssgEntity@@@Z 00442890 f   ssg_vs2008_32:ssgSaveASE.obj
 0001:00041990       ?ssgSaveASE@@YAHPBDPAVssgEntity@@@Z 00442990 f   ssg_vs2008_32:ssgSaveASE.obj
 0001:00041e70       ?ssgSaveAC@@YAHPBDPAVssgEntity@@@Z 00442e70 f   ssg_vs2008_32:ssgSaveAC.obj
 0001:00043cd0       ?ssgLoad3ds@@YAPAVssgEntity@@PBDPBVssgLoaderOptions@@@Z 00444cd0 f   ssg_vs2008_32:ssgLoad3ds.obj
 0001:000442f0       ?size@_ssgSave3dsData@@QAEIXZ 004452f0 f i ssg_vs2008_32:ssgSave3ds.obj
 0001:00044310       ?write@_ssgSave3dsData@@QAEXXZ 00445310 f i ssg_vs2008_32:ssgSave3ds.obj
 0001:00044340       ??_G_ssgSave3dsData@@QAEPAXI@Z 00445340 f i ssg_vs2008_32:ssgSave3ds.obj
 0001:00044380       ??1_ssgSave3dsChunk@@QAE@XZ 00445380 f i ssg_vs2008_32:ssgSave3ds.obj
 0001:000443e0       ?addKid@_ssgSave3dsChunk@@QAEXPAV1@@Z 004453e0 f i ssg_vs2008_32:ssgSave3ds.obj
 0001:00044400       ?size@_ssgSave3dsChunk@@QAEIXZ 00445400 f i ssg_vs2008_32:ssgSave3ds.obj
 0001:00044450       ?write@_ssgSave3dsChunk@@QAEXXZ 00445450 f i ssg_vs2008_32:ssgSave3ds.obj
 0001:00045530       ?ssgSave3ds@@YAHPBDPAVssgEntity@@@Z 00446530 f   ssg_vs2008_32:ssgSave3ds.obj
 0001:000456b0       ??0_ssgBaseList@@QAE@XZ    004466b0 f i ssg_vs2008_32:ssgLoadSSG.obj
 0001:00045720       ??_G_ssgBaseList@@UAEPAXI@Z 00446720 f i ssg_vs2008_32:ssgLoadSSG.obj
 0001:00045720       ??_E_ssgBaseList@@UAEPAXI@Z 00446720 f i ssg_vs2008_32:ssgLoadSSG.obj
 0001:00045750       ?_ssgLoadObject@@YAHPAU_iobuf@@PAPAVssgBase@@H@Z 00446750 f   ssg_vs2008_32:ssgLoadSSG.obj
 0001:000458d0       ?_ssgSaveObject@@YAHPAU_iobuf@@PAVssgBase@@@Z 004468d0 f   ssg_vs2008_32:ssgLoadSSG.obj
 0001:00045990       ?ssgLoadSSG@@YAPAVssgEntity@@PBDPBVssgLoaderOptions@@@Z 00446990 f   ssg_vs2008_32:ssgLoadSSG.obj
 0001:00045bd0       ?ssgSaveSSG@@YAHPBDPAVssgEntity@@@Z 00446bd0 f   ssg_vs2008_32:ssgLoadSSG.obj
 0001:00045cf0       ?_ssgSetTweenState@@YAXMH@Z 00446cf0 f   ssg_vs2008_32:ssgDList.obj
 0001:00045d40       ?_ssgPopMatrix@@YAXXZ      00446d40 f   ssg_vs2008_32:ssgDList.obj
 0001:00045d90       ?_ssgLoadTexMatrix@@YAXQAY03M@Z 00446d90 f   ssg_vs2008_32:ssgDList.obj
 0001:00045e10       ?_ssgUnloadTexMatrix@@YAXXZ 00446e10 f   ssg_vs2008_32:ssgDList.obj
 0001:00045e70       ?_ssgLoadMatrix@@YAXQAY03M@Z 00446e70 f   ssg_vs2008_32:ssgDList.obj
 0001:00045ee0       ?_ssgDrawLeaf@@YAXPAVssgLeaf@@@Z 00446ee0 f   ssg_vs2008_32:ssgDList.obj
 0001:00045f20       ?_ssgPushMatrix@@YAXQAY03M@Z 00446f20 f   ssg_vs2008_32:ssgDList.obj
 0001:00045f90       ?preApply@ssgState@@IAEXXZ 00446f90 f   ssg_vs2008_32:ssgState.obj
 0001:00045fc0       ?preDraw@ssgState@@IAEXXZ  00446fc0 f   ssg_vs2008_32:ssgState.obj
 0001:00045fe0       ?copy_from@ssgState@@UAEXPAV1@H@Z 00446fe0 f   ssg_vs2008_32:ssgState.obj
 0001:00046030       ??0ssgState@@QAE@XZ        00447030 f   ssg_vs2008_32:ssgState.obj
 0001:00046060       ??1ssgState@@UAE@XZ        00447060 f   ssg_vs2008_32:ssgState.obj
 0001:00046080       ?print@ssgState@@UAEXPAU_iobuf@@PADH@Z 00447080 f   ssg_vs2008_32:ssgState.obj
 0001:000460e0       ?load@ssgState@@UAEHPAU_iobuf@@@Z 004470e0 f   ssg_vs2008_32:ssgState.obj
 0001:00046120       ?save@ssgState@@UAEHPAU_iobuf@@@Z 00447120 f   ssg_vs2008_32:ssgState.obj
 0001:00046150       ??_GssgState@@UAEPAXI@Z    00447150 f i ssg_vs2008_32:ssgState.obj
 0001:00046150       ??_EssgState@@UAEPAXI@Z    00447150 f i ssg_vs2008_32:ssgState.obj
 0001:00046170       ?copy_from@ssgVTable@@MAEXPAV1@H@Z 00447170 f   ssg_vs2008_32:ssgVTable.obj
 0001:00046260       ??1ssgVTable@@UAE@XZ       00447260 f   ssg_vs2008_32:ssgVTable.obj
 0001:00046270       ?getCallback@ssgLeaf@@UAEP6AHPAVssgEntity@@@ZH@Z 00447270 f i ssg_vs2008_32:ssgVTable.obj
 0001:00046290       ?setCallback@ssgLeaf@@UAEXHP6AHPAVssgEntity@@@Z@Z 00447290 f i ssg_vs2008_32:ssgVTable.obj
 0001:000462b0       ?setPrimitiveType@ssgLeaf@@UAEXI@Z 004472b0 f i ssg_vs2008_32:ssgVTable.obj
 0001:000462c0       ?getPrimitiveType@ssgLeaf@@UAEIXZ 004472c0 f i ssg_vs2008_32:ssgVTable.obj
 0001:000462d0       ?getNumVertices@ssgVTable@@UAEHXZ 004472d0 f i ssg_vs2008_32:ssgVTable.obj
 0001:000462e0       ?getSelectStep@ssgStateSelector@@QAEIXZ 004472e0 f i ssg_vs2008_32:ssgStateSelector.obj
 0001:000462e0       ?getNumNormals@ssgVTable@@UAEHXZ 004472e0 f i ssg_vs2008_32:ssgVTable.obj
 0001:000462f0       ?getNumColours@ssgVTable@@UAEHXZ 004472f0 f i ssg_vs2008_32:ssgVTable.obj
 0001:00046300       ?getNumTexCoords@ssgVTable@@UAEHXZ 00447300 f i ssg_vs2008_32:ssgVTable.obj
 0001:00046310       ?getVertex@ssgVTable@@UAEPAMH@Z 00447310 f i ssg_vs2008_32:ssgVTable.obj
 0001:00046360       ?getColour@ssgVTable@@UAEPAMH@Z 00447360 f i ssg_vs2008_32:ssgVTable.obj
 0001:000463a0       ?getNormal@ssgVTable@@UAEPAMH@Z 004473a0 f i ssg_vs2008_32:ssgVTable.obj
 0001:000463f0       ?getTexCoord@ssgVTable@@UAEPAMH@Z 004473f0 f i ssg_vs2008_32:ssgVTable.obj
 0001:00046440       ?getTriangle@ssgVTable@@UAEXHPAF00@Z 00447440 f   ssg_vs2008_32:ssgVTable.obj
 0001:00046500       ?getNumTriangles@ssgVTable@@UAEHXZ 00447500 f   ssg_vs2008_32:ssgVTable.obj
 0001:000465a0       ?getLine@ssgVTable@@UAEXHPAF0@Z 004475a0 f   ssg_vs2008_32:ssgVTable.obj
 0001:000465a0       ?getLine@ssgVtxTable@@UAEXHPAF0@Z 004475a0 f   ssg_vs2008_32:ssgVtxTable.obj
 0001:00046640       ?transform@ssgVTable@@UAEXQAY03$$CBM@Z 00447640 f   ssg_vs2008_32:ssgVTable.obj
 0001:000466c0       ?recalcBSphere@ssgVTable@@UAEXXZ 004476c0 f   ssg_vs2008_32:ssgVTable.obj
 0001:00046770       ?draw@ssgVTable@@UAEXXZ    00447770 f   ssg_vs2008_32:ssgVTable.obj
 0001:000467e0       ?drawHighlight@ssgVTable@@UAEXQAMH@Z 004477e0 f   ssg_vs2008_32:ssgVTable.obj
 0001:000467f0       ?drawHighlight@ssgVTable@@UAEXQAM@Z 004477f0 f   ssg_vs2008_32:ssgVTable.obj
 0001:00046800       ?pick@ssgVTable@@UAEXH@Z   00447800 f   ssg_vs2008_32:ssgVTable.obj
 0001:00046970       ?draw_geometry@ssgVTable@@MAEXXZ 00447970 f   ssg_vs2008_32:ssgVTable.obj
 0001:00046ba0       ?hot_triangles@ssgVTable@@UAEXQAMQAY03MH@Z 00447ba0 f   ssg_vs2008_32:ssgVTable.obj
 0001:00046ba0       ?hot_triangles@ssgVtxTable@@UAEXQAMQAY03MH@Z 00447ba0 f   ssg_vs2008_32:ssgVtxTable.obj
 0001:00046ff0       ?isect_triangles@ssgVtxTable@@UAEXPAVsgSphere@@QAY03MH@Z 00447ff0 f   ssg_vs2008_32:ssgVtxTable.obj
 0001:00046ff0       ?isect_triangles@ssgVTable@@UAEXPAVsgSphere@@QAY03MH@Z 00447ff0 f   ssg_vs2008_32:ssgVTable.obj
 0001:00047450       ?print@ssgVTable@@UAEXPAU_iobuf@@PADH@Z 00448450 f   ssg_vs2008_32:ssgVTable.obj
 0001:00047460       ?load@ssgVTable@@UAEHPAU_iobuf@@@Z 00448460 f   ssg_vs2008_32:ssgVTable.obj
 0001:000477c0       ?save@ssgVTable@@UAEHPAU_iobuf@@@Z 004487c0 f   ssg_vs2008_32:ssgVTable.obj
 0001:000479d0       ??0ssgVTable@@QAE@XZ       004489d0 f   ssg_vs2008_32:ssgVTable.obj
 0001:00047a60       ??_GssgVTable@@UAEPAXI@Z   00448a60 f i ssg_vs2008_32:ssgVTable.obj
 0001:00047a60       ??_EssgVTable@@UAEPAXI@Z   00448a60 f i ssg_vs2008_32:ssgVTable.obj
 0001:00047a80       ?clone@ssgVTable@@UAEPAVssgBase@@H@Z 00448a80 f   ssg_vs2008_32:ssgVTable.obj
 0001:00047af0       ?setVertices@ssgVtxTable@@UAEXPAVssgVertexArray@@@Z 00448af0 f   ssg_vs2008_32:ssgVtxTable.obj
 0001:00047b20       ?setNormals@ssgVtxTable@@UAEXPAVssgNormalArray@@@Z 00448b20 f   ssg_vs2008_32:ssgVtxTable.obj
 0001:00047b50       ?setTexCoords@ssgVtxTable@@UAEXPAVssgTexCoordArray@@@Z 00448b50 f   ssg_vs2008_32:ssgVtxTable.obj
 0001:00047b80       ?setColours@ssgVtxTable@@UAEXPAVssgColourArray@@@Z 00448b80 f   ssg_vs2008_32:ssgVtxTable.obj
 0001:00047bb0       ??1ssgVtxTable@@UAE@XZ     00448bb0 f   ssg_vs2008_32:ssgVtxTable.obj
 0001:00047c30       ?getNumVertices@ssgVtxTable@@UAEHXZ 00448c30 f i ssg_vs2008_32:ssgVtxTable.obj
 0001:00047c40       ?getNumNormals@ssgVtxTable@@UAEHXZ 00448c40 f i ssg_vs2008_32:ssgVtxTable.obj
 0001:00047c50       ?getNumColours@ssgVtxTable@@UAEHXZ 00448c50 f i ssg_vs2008_32:ssgVtxTable.obj
 0001:00047c60       ?getNumTexCoords@ssgVtxTable@@UAEHXZ 00448c60 f i ssg_vs2008_32:ssgVtxTable.obj
 0001:00047c70       ?getVertex@ssgVtxTable@@UAEPAMH@Z 00448c70 f i ssg_vs2008_32:ssgVtxTable.obj
 0001:00047cc0       ?getNormal@ssgVtxTable@@UAEPAMH@Z 00448cc0 f i ssg_vs2008_32:ssgVtxTable.obj
 0001:00047d10       ?getTexCoord@ssgVtxTable@@UAEPAMH@Z 00448d10 f i ssg_vs2008_32:ssgVtxTable.obj
 0001:00047d60       ?getColour@ssgVtxTable@@UAEPAMH@Z 00448d60 f i ssg_vs2008_32:ssgVtxTable.obj
 0001:00047db0       ?getTriangle@ssgVtxTable@@UAEXHPAF00@Z 00448db0 f   ssg_vs2008_32:ssgVtxTable.obj
 0001:00047e90       ?getNumTriangles@ssgVtxTable@@UAEHXZ 00448e90 f   ssg_vs2008_32:ssgVtxTable.obj
 0001:00047f40       ?getNumLines@ssgVTable@@UAEHXZ 00448f40 f   ssg_vs2008_32:ssgVTable.obj
 0001:00047f40       ?getNumLines@ssgVtxTable@@UAEHXZ 00448f40 f   ssg_vs2008_32:ssgVtxTable.obj
 0001:00047fb0       ?transform@ssgVtxTable@@UAEXQAY03$$CBM@Z 00448fb0 f   ssg_vs2008_32:ssgVtxTable.obj
 0001:00048270       ?recalcBSphere@ssgVtxTable@@UAEXXZ 00449270 f   ssg_vs2008_32:ssgVtxTable.obj
 0001:00048300       ?drawHighlight@ssgVtxTable@@UAEXQAM@Z 00449300 f   ssg_vs2008_32:ssgVtxTable.obj
 0001:00048390       ?drawHighlight@ssgVtxTable@@UAEXQAMH@Z 00449390 f   ssg_vs2008_32:ssgVtxTable.obj
 0001:000484f0       ?draw@ssgVtxTable@@UAEXXZ  004494f0 f   ssg_vs2008_32:ssgVtxTable.obj
 0001:00048560       ?pick@ssgVtxTable@@UAEXH@Z 00449560 f   ssg_vs2008_32:ssgVtxTable.obj
 0001:00048610       ?draw_geometry@ssgVtxTable@@MAEXXZ 00449610 f   ssg_vs2008_32:ssgVtxTable.obj
 0001:000487a0       ?los_triangles@ssgVtxTable@@UAEXQAMQAY03MH@Z 004497a0 f   ssg_vs2008_32:ssgVtxTable.obj
 0001:000487a0       ?los_triangles@ssgVTable@@UAEXQAMQAY03MH@Z 004497a0 f   ssg_vs2008_32:ssgVTable.obj
 0001:00048ac0       ?print@ssgVtxTable@@UAEXPAU_iobuf@@PADH@Z 00449ac0 f   ssg_vs2008_32:ssgVtxTable.obj
 0001:00048bd0       ?load@ssgVtxTable@@UAEHPAU_iobuf@@@Z 00449bd0 f   ssg_vs2008_32:ssgVtxTable.obj
 0001:00048cf0       ?save@ssgVtxTable@@UAEHPAU_iobuf@@@Z 00449cf0 f   ssg_vs2008_32:ssgVtxTable.obj
 0001:00048d90       ??0ssgVtxTable@@QAE@XZ     00449d90 f   ssg_vs2008_32:ssgVtxTable.obj
 0001:00048df0       ??_EssgVtxTable@@UAEPAXI@Z 00449df0 f i ssg_vs2008_32:ssgVtxTable.obj
 0001:00048df0       ??_GssgVtxTable@@UAEPAXI@Z 00449df0 f i ssg_vs2008_32:ssgVtxTable.obj
 0001:00048e10       ??0ssgVtxTable@@QAE@IPAVssgVertexArray@@PAVssgNormalArray@@PAVssgTexCoordArray@@PAVssgColourArray@@@Z 00449e10 f   ssg_vs2008_32:ssgVtxTable.obj
 0001:00049090       ?clone@ssgVtxTable@@UAEPAVssgBase@@H@Z 0044a090 f   ssg_vs2008_32:ssgVtxTable.obj
 0001:00049100       ?copy_from@ssgVtxArray@@MAEXPAV1@H@Z 0044a100 f   ssg_vs2008_32:ssgVtxArray.obj
 0001:00049160       ??0ssgVtxArray@@QAE@XZ     0044a160 f   ssg_vs2008_32:ssgVtxArray.obj
 0001:00049190       ??0ssgVtxArray@@QAE@IPAVssgVertexArray@@PAVssgNormalArray@@PAVssgTexCoordArray@@PAVssgColourArray@@PAVssgIndexArray@@@Z 0044a190 f   ssg_vs2008_32:ssgVtxArray.obj
 0001:00049280       ??1ssgVtxArray@@UAE@XZ     0044a280 f   ssg_vs2008_32:ssgVtxArray.obj
 0001:000492e0       ?drawHighlight@ssgVtxArray@@UAEXQAM@Z 0044a2e0 f   ssg_vs2008_32:ssgVtxArray.obj
 0001:000493a0       ?drawHighlight@ssgVtxArray@@UAEXQAMH@Z 0044a3a0 f   ssg_vs2008_32:ssgVtxArray.obj
 0001:00049520       ?pick@ssgVtxArray@@UAEXH@Z 0044a520 f   ssg_vs2008_32:ssgVtxArray.obj
 0001:00049610       ?removeUnusedVertices@ssgVtxArray@@QAEXXZ 0044a610 f   ssg_vs2008_32:ssgVtxArray.obj
 0001:00049b50       ?draw_geometry@ssgVtxArray@@MAEXXZ 0044ab50 f   ssg_vs2008_32:ssgVtxArray.obj
 0001:00049cf0       ?getTriangle@ssgVtxArray@@UAEXHPAF00@Z 0044acf0 f   ssg_vs2008_32:ssgVtxArray.obj
 0001:00049da0       ?getNumTriangles@ssgVtxArray@@UAEHXZ 0044ada0 f   ssg_vs2008_32:ssgVtxArray.obj
 0001:00049e40       ?getNumLines@ssgVtxArray@@UAEHXZ 0044ae40 f   ssg_vs2008_32:ssgVtxArray.obj
 0001:00049eb0       ?getLine@ssgVtxArray@@UAEXHPAF0@Z 0044aeb0 f   ssg_vs2008_32:ssgVtxArray.obj
 0001:0004a010       ?print@ssgVtxArray@@UAEXPAU_iobuf@@PADH@Z 0044b010 f   ssg_vs2008_32:ssgVtxArray.obj
 0001:0004a070       ?load@ssgVtxArray@@UAEHPAU_iobuf@@@Z 0044b070 f   ssg_vs2008_32:ssgVtxArray.obj
 0001:0004a0c0       ?save@ssgVtxArray@@UAEHPAU_iobuf@@@Z 0044b0c0 f   ssg_vs2008_32:ssgVtxArray.obj
 0001:0004a100       ?clone@ssgVtxArray@@UAEPAVssgBase@@H@Z 0044b100 f   ssg_vs2008_32:ssgVtxArray.obj
 0001:0004a170       ??_EssgVtxArray@@UAEPAXI@Z 0044b170 f i ssg_vs2008_32:ssgVtxArray.obj
 0001:0004a170       ??_GssgVtxArray@@UAEPAXI@Z 0044b170 f i ssg_vs2008_32:ssgVtxArray.obj
 0001:0004a190       ?getTypeName@ssgTween@@UAEPBDXZ 0044b190 f   ssg_vs2008_32:ssgTween.obj
 0001:0004a1a0       ?_ssgGetCurrentTweenMode@@YAHXZ 0044b1a0 f   ssg_vs2008_32:ssgTween.obj
 0001:0004a1b0       ?_ssgGetCurrentTweenState@@YAMXZ 0044b1b0 f   ssg_vs2008_32:ssgTween.obj
 0001:0004a1c0       ?_ssgSetRealCurrentTweenSettings@@YAXMH@Z 0044b1c0 f   ssg_vs2008_32:ssgTween.obj
 0001:0004a1e0       ?copy_from@ssgVtxTable@@MAEXPAV1@H@Z 0044b1e0 f   ssg_vs2008_32:ssgVtxTable.obj
 0001:0004a1e0       ?copy_from@ssgTween@@EAEXPAV1@H@Z 0044b1e0 f   ssg_vs2008_32:ssgTween.obj
 0001:0004a2d0       ?init@ssgTween@@AAEXXZ     0044b2d0 f   ssg_vs2008_32:ssgTween.obj
 0001:0004a610       ??0ssgTween@@QAE@XZ        0044b610 f   ssg_vs2008_32:ssgTween.obj
 0001:0004a660       ?setBank@ssgTween@@QAEXH@Z 0044b660 f   ssg_vs2008_32:ssgTween.obj
 0001:0004a700       ?setVertices@ssgTween@@UAEXPAVssgVertexArray@@@Z 0044b700 f   ssg_vs2008_32:ssgTween.obj
 0001:0004a740       ?setNormals@ssgTween@@UAEXPAVssgNormalArray@@@Z 0044b740 f   ssg_vs2008_32:ssgTween.obj
 0001:0004a780       ?setTexCoords@ssgTween@@UAEXPAVssgTexCoordArray@@@Z 0044b780 f   ssg_vs2008_32:ssgTween.obj
 0001:0004a7c0       ?setColours@ssgTween@@UAEXPAVssgColourArray@@@Z 0044b7c0 f   ssg_vs2008_32:ssgTween.obj
 0001:0004a800       ??1ssgTween@@UAE@XZ        0044b800 f   ssg_vs2008_32:ssgTween.obj
 0001:0004a9a0       ?recalcBSphere@ssgTween@@UAEXXZ 0044b9a0 f   ssg_vs2008_32:ssgTween.obj
 0001:0004aa60       ?draw@ssgTween@@UAEXXZ     0044ba60 f   ssg_vs2008_32:ssgTween.obj
 0001:0004b750       ?transform@ssgTween@@UAEXQAY03$$CBM@Z 0044c750 f   ssg_vs2008_32:ssgTween.obj
 0001:0004b800       ?save@ssgTween@@UAEHPAU_iobuf@@@Z 0044c800 f   ssg_vs2008_32:ssgTween.obj
 0001:0004b8d0       ?print@ssgTween@@UAEXPAU_iobuf@@PADH@Z 0044c8d0 f   ssg_vs2008_32:ssgTween.obj
 0001:0004b960       ?_ssgSetCurrentTweenSettings@@YAXMH@Z 0044c960 f   ssg_vs2008_32:ssgTween.obj
 0001:0004b990       ?clone@ssgTween@@UAEPAVssgBase@@H@Z 0044c990 f   ssg_vs2008_32:ssgTween.obj
 0001:0004ba00       ??_GssgTween@@UAEPAXI@Z    0044ca00 f i ssg_vs2008_32:ssgTween.obj
 0001:0004ba00       ??_EssgTween@@UAEPAXI@Z    0044ca00 f i ssg_vs2008_32:ssgTween.obj
 0001:0004ba20       ?newBank@ssgTween@@QAEHPAVssgVertexArray@@PAVssgNormalArray@@PAVssgTexCoordArray@@PAVssgColourArray@@@Z 0044ca20 f   ssg_vs2008_32:ssgTween.obj
 0001:0004bb40       ?load@ssgTween@@UAEHPAU_iobuf@@@Z 0044cb40 f   ssg_vs2008_32:ssgTween.obj
 0001:0004bc80       ??0ssgTransform@@QAE@XZ    0044cc80 f   ssg_vs2008_32:ssgTransform.obj
 0001:0004bca0       ??1ssgTransform@@UAE@XZ    0044cca0 f   ssg_vs2008_32:ssgTransform.obj
 0001:0004bcb0       ?recalcBSphere@ssgTransform@@UAEXXZ 0044ccb0 f   ssg_vs2008_32:ssgTransform.obj
 0001:0004bce0       ?cull@ssgTransform@@UAEXPAVsgFrustum@@QAY03MH@Z 0044cce0 f   ssg_vs2008_32:ssgTransform.obj
 0001:0004bdc0       ?hot@ssgTransform@@UAEXQAMQAY03MH@Z 0044cdc0 f   ssg_vs2008_32:ssgTransform.obj
 0001:0004be80       ?los@ssgTransform@@UAEXQAMQAY03MH@Z 0044ce80 f   ssg_vs2008_32:ssgTransform.obj
 0001:0004bf40       ?isect@ssgTransform@@UAEXPAVsgSphere@@QAY03MH@Z 0044cf40 f   ssg_vs2008_32:ssgTransform.obj
 0001:0004c000       ?setTransform@ssgTransform@@UAEXQAM@Z 0044d000 f   ssg_vs2008_32:ssgTransform.obj
 0001:0004c030       ?setTransform@ssgTransform@@UAEXPAUsgCoord@@@Z 0044d030 f   ssg_vs2008_32:ssgTransform.obj
 0001:0004c090       ?setTransform@ssgTransform@@UAEXPAUsgCoord@@MMM@Z 0044d090 f   ssg_vs2008_32:ssgTransform.obj
 0001:0004c160       ?getNetTransform@ssgTransform@@UAEXQAY03M@Z 0044d160 f   ssg_vs2008_32:ssgTransform.obj
 0001:0004c1b0       ?getLastNetTransform@ssgTransform@@UAEXQAY03M@Z 0044d1b0 f   ssg_vs2008_32:ssgTransform.obj
 0001:0004c250       ?load@ssgTransform@@UAEHPAU_iobuf@@@Z 0044d250 f   ssg_vs2008_32:ssgTransform.obj
 0001:0004c250       ?load@ssgTexTrans@@UAEHPAU_iobuf@@@Z 0044d250 f   ssg_vs2008_32:ssgTexTrans.obj
 0001:0004c260       ?clone@ssgTransform@@UAEPAVssgBase@@H@Z 0044d260 f   ssg_vs2008_32:ssgTransform.obj
 0001:0004c2d0       ??_EssgTransform@@UAEPAXI@Z 0044d2d0 f i ssg_vs2008_32:ssgTransform.obj
 0001:0004c2d0       ??_GssgTransform@@UAEPAXI@Z 0044d2d0 f i ssg_vs2008_32:ssgTransform.obj
 0001:0004c2f0       ?setTransform@ssgTransform@@UAEXQAY03M@Z 0044d2f0 f   ssg_vs2008_32:ssgTransform.obj
 0001:0004c3e0       ?copy_from@ssgTransform@@MAEXPAV1@H@Z 0044d3e0 f   ssg_vs2008_32:ssgTransform.obj
 0001:0004c3e0       ?copy_from@ssgTexTrans@@MAEXPAV1@H@Z 0044d3e0 f   ssg_vs2008_32:ssgTexTrans.obj
 0001:0004c3f0       ??0ssgTexTrans@@QAE@XZ     0044d3f0 f   ssg_vs2008_32:ssgTexTrans.obj
 0001:0004c410       ??1ssgTexTrans@@UAE@XZ     0044d410 f   ssg_vs2008_32:ssgTexTrans.obj
 0001:0004c420       ?setTransform@ssgTexTrans@@UAEXQAM@Z 0044d420 f   ssg_vs2008_32:ssgTexTrans.obj
 0001:0004c440       ?setTransform@ssgTexTrans@@UAEXPAUsgCoord@@MMM@Z 0044d440 f   ssg_vs2008_32:ssgTexTrans.obj
 0001:0004c4f0       ?setTransform@ssgTexTrans@@UAEXPAUsgCoord@@@Z 0044d4f0 f   ssg_vs2008_32:ssgTexTrans.obj
 0001:0004c530       ?setTransform@ssgTexTrans@@UAEXQAY03M@Z 0044d530 f   ssg_vs2008_32:ssgTexTrans.obj
 0001:0004c550       ?cull@ssgTexTrans@@UAEXPAVsgFrustum@@QAY03MH@Z 0044d550 f   ssg_vs2008_32:ssgTexTrans.obj
 0001:0004c630       ?save@ssgTransform@@UAEHPAU_iobuf@@@Z 0044d630 f   ssg_vs2008_32:ssgTransform.obj
 0001:0004c630       ?save@ssgTexTrans@@UAEHPAU_iobuf@@@Z 0044d630 f   ssg_vs2008_32:ssgTexTrans.obj
 0001:0004c640       ?clone@ssgTexTrans@@UAEPAVssgBase@@H@Z 0044d640 f   ssg_vs2008_32:ssgTexTrans.obj
 0001:0004c6b0       ??_EssgTexTrans@@UAEPAXI@Z 0044d6b0 f i ssg_vs2008_32:ssgTexTrans.obj
 0001:0004c6b0       ??_GssgTexTrans@@UAEPAXI@Z 0044d6b0 f i ssg_vs2008_32:ssgTexTrans.obj
 0001:0004c6d0       ?getTypeName@ssgAnimTransform@@UAEPBDXZ 0044d6d0 f   ssg_vs2008_32:ssgAnimTransform.obj
 0001:0004c6e0       ?copy_from@ssgAnimTransform@@MAEXPAV1@H@Z 0044d6e0 f   ssg_vs2008_32:ssgAnimTransform.obj
 0001:0004c710       ??0ssgAnimTransform@@QAE@XZ 0044d710 f   ssg_vs2008_32:ssgAnimTransform.obj
 0001:0004c7d0       ??1ssgAnimTransform@@UAE@XZ 0044d7d0 f   ssg_vs2008_32:ssgAnimTransform.obj
 0001:0004c830       ?cull@ssgAnimTransform@@UAEXPAVsgFrustum@@QAY03MH@Z 0044d830 f   ssg_vs2008_32:ssgAnimTransform.obj
 0001:0004c9d0       ?load@ssgAnimTransform@@UAEHPAU_iobuf@@@Z 0044d9d0 f   ssg_vs2008_32:ssgAnimTransform.obj
 0001:0004ca20       ?save@ssgAnimTransform@@UAEHPAU_iobuf@@@Z 0044da20 f   ssg_vs2008_32:ssgAnimTransform.obj
 0001:0004ca70       ?print@ssgAnimTransform@@UAEXPAU_iobuf@@PADH@Z 0044da70 f   ssg_vs2008_32:ssgAnimTransform.obj
 0001:0004cae0       ?clone@ssgAnimTransform@@UAEPAVssgBase@@H@Z 0044dae0 f   ssg_vs2008_32:ssgAnimTransform.obj
 0001:0004cb50       ??_EssgAnimTransform@@UAEPAXI@Z 0044db50 f i ssg_vs2008_32:ssgAnimTransform.obj
 0001:0004cb50       ??_GssgAnimTransform@@UAEPAXI@Z 0044db50 f i ssg_vs2008_32:ssgAnimTransform.obj
 0001:0004cb70       ?copy_from@ssgAxisTransform@@MAEXPAV1@H@Z 0044db70 f   ssg_vs2008_32:ssgAxisTransform.obj
 0001:0004cbf0       ??0ssgAxisTransform@@QAE@XZ 0044dbf0 f   ssg_vs2008_32:ssgAxisTransform.obj
 0001:0004cc30       ??1ssgAxisTransform@@UAE@XZ 0044dc30 f   ssg_vs2008_32:ssgAxisTransform.obj
 0001:0004cc40       ?setAxis@ssgAxisTransform@@UAEXQAM@Z 0044dc40 f   ssg_vs2008_32:ssgAxisTransform.obj
 0001:0004cc70       ?getAxis@ssgAxisTransform@@UAEPAMXZ 0044dc70 f   ssg_vs2008_32:ssgAxisTransform.obj
 0001:0004cc80       ?setCenter@ssgAxisTransform@@UAEXQAM@Z 0044dc80 f   ssg_vs2008_32:ssgAxisTransform.obj
 0001:0004ccb0       ?getCenter@ssgAxisTransform@@UAEPAMXZ 0044dcb0 f   ssg_vs2008_32:ssgAxisTransform.obj
 0001:0004ccc0       ?setRotation@ssgAxisTransform@@UAEXM@Z 0044dcc0 f   ssg_vs2008_32:ssgAxisTransform.obj
 0001:0004cd70       ?setRotationLimits@ssgAxisTransform@@UAEXMM@Z 0044dd70 f   ssg_vs2008_32:ssgAxisTransform.obj
 0001:0004cd90       ?setLinearRotation@ssgAxisTransform@@UAEXM@Z 0044dd90 f   ssg_vs2008_32:ssgAxisTransform.obj
 0001:0004cdc0       ?load@ssgAxisTransform@@UAEHPAU_iobuf@@@Z 0044ddc0 f   ssg_vs2008_32:ssgAxisTransform.obj
 0001:0004ce10       ?save@ssgAxisTransform@@UAEHPAU_iobuf@@@Z 0044de10 f   ssg_vs2008_32:ssgAxisTransform.obj
 0001:0004ce70       ?clone@ssgAxisTransform@@UAEPAVssgBase@@H@Z 0044de70 f   ssg_vs2008_32:ssgAxisTransform.obj
 0001:0004cee0       ??_GssgAxisTransform@@UAEPAXI@Z 0044dee0 f i ssg_vs2008_32:ssgAxisTransform.obj
 0001:0004cee0       ??_EssgAxisTransform@@UAEPAXI@Z 0044dee0 f i ssg_vs2008_32:ssgAxisTransform.obj
 0001:0004cf00       ?copy_from@ssgSelector@@MAEXPAV1@H@Z 0044df00 f   ssg_vs2008_32:ssgSelector.obj
 0001:0004cf40       ??0ssgSelector@@QAE@H@Z    0044df40 f   ssg_vs2008_32:ssgSelector.obj
 0001:0004cfb0       ??1ssgSelector@@UAE@XZ     0044dfb0 f   ssg_vs2008_32:ssgSelector.obj
 0001:0004d010       ?cull@ssgSelector@@UAEXPAVsgFrustum@@QAY03MH@Z 0044e010 f   ssg_vs2008_32:ssgSelector.obj
 0001:0004d0b0       ?hot@ssgSelector@@UAEXQAMQAY03MH@Z 0044e0b0 f   ssg_vs2008_32:ssgSelector.obj
 0001:0004d170       ?los@ssgSelector@@UAEXQAMQAY03MH@Z 0044e170 f   ssg_vs2008_32:ssgSelector.obj
 0001:0004d230       ?isect@ssgSelector@@UAEXPAVsgSphere@@QAY03MH@Z 0044e230 f   ssg_vs2008_32:ssgSelector.obj
 0001:0004d2f0       ?load@ssgSelector@@UAEHPAU_iobuf@@@Z 0044e2f0 f   ssg_vs2008_32:ssgSelector.obj
 0001:0004d350       ?save@ssgSelector@@UAEHPAU_iobuf@@@Z 0044e350 f   ssg_vs2008_32:ssgSelector.obj
 0001:0004d3a0       ?clone@ssgSelector@@UAEPAVssgBase@@H@Z 0044e3a0 f   ssg_vs2008_32:ssgSelector.obj
 0001:0004d410       ??_EssgSelector@@UAEPAXI@Z 0044e410 f i ssg_vs2008_32:ssgSelector.obj
 0001:0004d410       ??_GssgSelector@@UAEPAXI@Z 0044e410 f i ssg_vs2008_32:ssgSelector.obj
 0001:0004d430       ?copy_from@ssgRangeSelector@@MAEXPAV1@H@Z 0044e430 f   ssg_vs2008_32:ssgRangeSelector.obj
 0001:0004d4c0       ??0ssgRangeSelector@@QAE@XZ 0044e4c0 f   ssg_vs2008_32:ssgRangeSelector.obj
 0001:0004d5b0       ??1ssgRangeSelector@@UAE@XZ 0044e5b0 f   ssg_vs2008_32:ssgRangeSelector.obj
 0001:0004d5c0       ?cull@ssgRangeSelector@@UAEXPAVsgFrustum@@QAY03MH@Z 0044e5c0 f   ssg_vs2008_32:ssgRangeSelector.obj
 0001:0004d730       ?hot@ssgRangeSelector@@UAEXQAMQAY03MH@Z 0044e730 f   ssg_vs2008_32:ssgRangeSelector.obj
 0001:0004d7c0       ?los@ssgRangeSelector@@UAEXQAMQAY03MH@Z 0044e7c0 f   ssg_vs2008_32:ssgRangeSelector.obj
 0001:0004d850       ?isect@ssgRangeSelector@@UAEXPAVsgSphere@@QAY03MH@Z 0044e850 f   ssg_vs2008_32:ssgRangeSelector.obj
 0001:0004d8e0       ?load@ssgRangeSelector@@UAEHPAU_iobuf@@@Z 0044e8e0 f   ssg_vs2008_32:ssgRangeSelector.obj
 0001:0004d910       ?save@ssgRangeSelector@@UAEHPAU_iobuf@@@Z 0044e910 f   ssg_vs2008_32:ssgRangeSelector.obj
 0001:0004d940       ?clone@ssgRangeSelector@@UAEPAVssgBase@@H@Z 0044e940 f   ssg_vs2008_32:ssgRangeSelector.obj
 0001:0004d9b0       ??_EssgRangeSelector@@UAEPAXI@Z 0044e9b0 f i ssg_vs2008_32:ssgRangeSelector.obj
 0001:0004d9b0       ??_GssgRangeSelector@@UAEPAXI@Z 0044e9b0 f i ssg_vs2008_32:ssgRangeSelector.obj
 0001:0004d9d0       ?copy_from@ssgTimedSelector@@MAEXPAV1@H@Z 0044e9d0 f   ssg_vs2008_32:ssgAnimation.obj
 0001:0004daa0       ??0ssgTimedSelector@@QAE@H@Z 0044eaa0 f   ssg_vs2008_32:ssgAnimation.obj
 0001:0004dbf0       ?getStep@ssgTimedSelector@@QAEHXZ 0044ebf0 f   ssg_vs2008_32:ssgAnimation.obj
 0001:0004dd30       ??1ssgTimedSelector@@UAE@XZ 0044ed30 f   ssg_vs2008_32:ssgAnimation.obj
 0001:0004dd90       ?load@ssgTimedSelector@@UAEHPAU_iobuf@@@Z 0044ed90 f   ssg_vs2008_32:ssgAnimation.obj
 0001:0004de40       ?save@ssgTimedSelector@@UAEHPAU_iobuf@@@Z 0044ee40 f   ssg_vs2008_32:ssgAnimation.obj
 0001:0004dec0       ?clone@ssgTimedSelector@@UAEPAVssgBase@@H@Z 0044eec0 f   ssg_vs2008_32:ssgAnimation.obj
 0001:0004df30       ??_GssgTimedSelector@@UAEPAXI@Z 0044ef30 f i ssg_vs2008_32:ssgAnimation.obj
 0001:0004df30       ??_EssgTimedSelector@@UAEPAXI@Z 0044ef30 f i ssg_vs2008_32:ssgAnimation.obj
 0001:0004df50       ?cull@ssgTimedSelector@@UAEXPAVsgFrustum@@QAY03MH@Z 0044ef50 f   ssg_vs2008_32:ssgAnimation.obj
 0001:0004dfa0       ?hot@ssgTimedSelector@@UAEXQAMQAY03MH@Z 0044efa0 f   ssg_vs2008_32:ssgAnimation.obj
 0001:0004dfe0       ?los@ssgTimedSelector@@UAEXQAMQAY03MH@Z 0044efe0 f   ssg_vs2008_32:ssgAnimation.obj
 0001:0004e020       ?isect@ssgTimedSelector@@UAEXPAVsgSphere@@QAY03MH@Z 0044f020 f   ssg_vs2008_32:ssgAnimation.obj
 0001:0004e060       ?getTypeName@ssgTweenController@@UAEPBDXZ 0044f060 f   ssg_vs2008_32:ssgTweenController.obj
 0001:0004e070       ?copy_from@ssgTweenController@@MAEXPAV1@H@Z 0044f070 f   ssg_vs2008_32:ssgTweenController.obj
 0001:0004e090       ??0ssgTweenController@@QAE@XZ 0044f090 f   ssg_vs2008_32:ssgTweenController.obj
 0001:0004e0b0       ??1ssgTweenController@@UAE@XZ 0044f0b0 f   ssg_vs2008_32:ssgTweenController.obj
 0001:0004e100       ?cull@ssgTweenController@@UAEXPAVsgFrustum@@QAY03MH@Z 0044f100 f   ssg_vs2008_32:ssgTweenController.obj
 0001:0004e160       ?save@ssgTweenController@@UAEHPAU_iobuf@@@Z 0044f160 f   ssg_vs2008_32:ssgTweenController.obj
 0001:0004e190       ?print@ssgTweenController@@UAEXPAU_iobuf@@PADH@Z 0044f190 f   ssg_vs2008_32:ssgTweenController.obj
 0001:0004e1d0       ?clone@ssgTweenController@@UAEPAVssgBase@@H@Z 0044f1d0 f   ssg_vs2008_32:ssgTweenController.obj
 0001:0004e240       ??_EssgTweenController@@UAEPAXI@Z 0044f240 f i ssg_vs2008_32:ssgTweenController.obj
 0001:0004e240       ??_GssgTweenController@@UAEPAXI@Z 0044f240 f i ssg_vs2008_32:ssgTweenController.obj
 0001:0004e260       ?copy_from@ssgCutout@@MAEXPAV1@H@Z 0044f260 f   ssg_vs2008_32:ssgCutout.obj
 0001:0004e280       ??0ssgCutout@@QAE@H@Z      0044f280 f   ssg_vs2008_32:ssgCutout.obj
 0001:0004e2b0       ??1ssgCutout@@UAE@XZ       0044f2b0 f   ssg_vs2008_32:ssgCutout.obj
 0001:0004e2c0       ?cull@ssgCutout@@UAEXPAVsgFrustum@@QAY03MH@Z 0044f2c0 f   ssg_vs2008_32:ssgCutout.obj
 0001:0004e410       ?hot@ssgCutout@@UAEXQAMQAY03MH@Z 0044f410 f   ssg_vs2008_32:ssgCutout.obj
 0001:0004e420       ?los@ssgCutout@@UAEXQAMQAY03MH@Z 0044f420 f   ssg_vs2008_32:ssgCutout.obj
 0001:0004e430       ?isect@ssgCutout@@UAEXPAVsgSphere@@QAY03MH@Z 0044f430 f   ssg_vs2008_32:ssgCutout.obj
 0001:0004e440       ?load@ssgTweenController@@UAEHPAU_iobuf@@@Z 0044f440 f   ssg_vs2008_32:ssgTweenController.obj
 0001:0004e440       ?load@ssgCutout@@UAEHPAU_iobuf@@@Z 0044f440 f   ssg_vs2008_32:ssgCutout.obj
 0001:0004e470       ?save@ssgCutout@@UAEHPAU_iobuf@@@Z 0044f470 f   ssg_vs2008_32:ssgCutout.obj
 0001:0004e4a0       ?clone@ssgCutout@@UAEPAVssgBase@@H@Z 0044f4a0 f   ssg_vs2008_32:ssgCutout.obj
 0001:0004e510       ??_EssgCutout@@UAEPAXI@Z   0044f510 f i ssg_vs2008_32:ssgCutout.obj
 0001:0004e510       ??_GssgCutout@@UAEPAXI@Z   0044f510 f i ssg_vs2008_32:ssgCutout.obj
 0001:0004e530       ?copy_from@ssgRoot@@MAEXPAV1@H@Z 0044f530 f   ssg_vs2008_32:ssgRoot.obj
 0001:0004e530       ?copy_from@ssgInvisible@@MAEXPAV1@H@Z 0044f530 f   ssg_vs2008_32:ssgInvisible.obj
 0001:0004e540       ??0ssgInvisible@@QAE@XZ    0044f540 f   ssg_vs2008_32:ssgInvisible.obj
 0001:0004e560       ??1ssgInvisible@@UAE@XZ    0044f560 f   ssg_vs2008_32:ssgInvisible.obj
 0001:0004e570       ?load@ssgRoot@@UAEHPAU_iobuf@@@Z 0044f570 f   ssg_vs2008_32:ssgRoot.obj
 0001:0004e570       ?load@ssgInvisible@@UAEHPAU_iobuf@@@Z 0044f570 f   ssg_vs2008_32:ssgInvisible.obj
 0001:0004e580       ?save@ssgInvisible@@UAEHPAU_iobuf@@@Z 0044f580 f   ssg_vs2008_32:ssgInvisible.obj
 0001:0004e580       ?save@ssgRoot@@UAEHPAU_iobuf@@@Z 0044f580 f   ssg_vs2008_32:ssgRoot.obj
 0001:0004e590       ?clone@ssgInvisible@@UAEPAVssgBase@@H@Z 0044f590 f   ssg_vs2008_32:ssgInvisible.obj
 0001:0004e600       ??_EssgInvisible@@UAEPAXI@Z 0044f600 f i ssg_vs2008_32:ssgInvisible.obj
 0001:0004e600       ??_GssgInvisible@@UAEPAXI@Z 0044f600 f i ssg_vs2008_32:ssgInvisible.obj
 0001:0004e620       ??0ssgStateSelector@@QAE@XZ 0044f620 f   ssg_vs2008_32:ssgStateSelector.obj
 0001:0004e660       ??0ssgStateSelector@@QAE@H@Z 0044f660 f   ssg_vs2008_32:ssgStateSelector.obj
 0001:0004e710       ??1ssgStateSelector@@UAE@XZ 0044f710 f   ssg_vs2008_32:ssgStateSelector.obj
 0001:0004e790       ?selectStep@ssgStateSelector@@QAEXI@Z 0044f790 f   ssg_vs2008_32:ssgStateSelector.obj
 0001:0004e7a0       ?getCurrentStep@ssgStateSelector@@QAEPAVssgSimpleState@@XZ 0044f7a0 f   ssg_vs2008_32:ssgStateSelector.obj
 0001:0004e7d0       ?getStep@ssgStateSelector@@QAEPAVssgSimpleState@@H@Z 0044f7d0 f   ssg_vs2008_32:ssgStateSelector.obj
 0001:0004e800       ?setStep@ssgStateSelector@@QAEXHPAVssgSimpleState@@@Z 0044f800 f   ssg_vs2008_32:ssgStateSelector.obj
 0001:0004e840       ?isTranslucent@ssgStateSelector@@UAEHXZ 0044f840 f   ssg_vs2008_32:ssgStateSelector.obj
 0001:0004e850       ?setTranslucent@ssgStateSelector@@UAEXXZ 0044f850 f   ssg_vs2008_32:ssgStateSelector.obj
 0001:0004e860       ?setOpaque@ssgStateSelector@@UAEXXZ 0044f860 f   ssg_vs2008_32:ssgStateSelector.obj
 0001:0004e880       ?force@ssgStateSelector@@UAEXXZ 0044f880 f   ssg_vs2008_32:ssgStateSelector.obj
 0001:0004e8a0       ?apply@ssgStateSelector@@UAEXXZ 0044f8a0 f   ssg_vs2008_32:ssgStateSelector.obj
 0001:0004e8c0       ?care_about@ssgStateSelector@@UAEXH@Z 0044f8c0 f   ssg_vs2008_32:ssgStateSelector.obj
 0001:0004e8f0       ?dont_care_about@ssgStateSelector@@UAEXH@Z 0044f8f0 f   ssg_vs2008_32:ssgStateSelector.obj
 0001:0004e920       ?isEnabled@ssgStateSelector@@UAEHI@Z 0044f920 f   ssg_vs2008_32:ssgStateSelector.obj
 0001:0004e950       ?disable@ssgStateSelector@@UAEXI@Z 0044f950 f   ssg_vs2008_32:ssgStateSelector.obj
 0001:0004e980       ?enable@ssgStateSelector@@UAEXI@Z 0044f980 f   ssg_vs2008_32:ssgStateSelector.obj
 0001:0004e9b0       ?getTextureFilename@ssgStateSelector@@UAEPADXZ 0044f9b0 f   ssg_vs2008_32:ssgStateSelector.obj
 0001:0004e9e0       ?getTextureHandle@ssgStateSelector@@UAEIXZ 0044f9e0 f   ssg_vs2008_32:ssgStateSelector.obj
 0001:0004ea10       ?setTexture@ssgStateSelector@@UAEXPAVssgTexture@@@Z 0044fa10 f   ssg_vs2008_32:ssgStateSelector.obj
 0001:0004ea60       ?setTexture@ssgStateSelector@@UAEXI@Z 0044fa60 f   ssg_vs2008_32:ssgStateSelector.obj
 0001:0004ea90       ?setColourMaterial@ssgStateSelector@@UAEXI@Z 0044fa90 f   ssg_vs2008_32:ssgStateSelector.obj
 0001:0004eac0       ?setMaterial@ssgStateSelector@@UAEXIMMMM@Z 0044fac0 f   ssg_vs2008_32:ssgStateSelector.obj
 0001:0004eb50       ?setMaterial@ssgStateSelector@@UAEXIQAM@Z 0044fb50 f   ssg_vs2008_32:ssgStateSelector.obj
 0001:0004eb80       ?getMaterial@ssgStateSelector@@UAEPAMI@Z 0044fb80 f   ssg_vs2008_32:ssgStateSelector.obj
 0001:0004ebe0       ?getShininess@ssgStateSelector@@UAEMXZ 0044fbe0 f   ssg_vs2008_32:ssgStateSelector.obj
 0001:0004ec10       ?setShininess@ssgStateSelector@@UAEXM@Z 0044fc10 f   ssg_vs2008_32:ssgStateSelector.obj
 0001:0004ec50       ?setShadeModel@ssgStateSelector@@UAEXI@Z 0044fc50 f   ssg_vs2008_32:ssgStateSelector.obj
 0001:0004ec90       ?setAlphaClamp@ssgStateSelector@@UAEXM@Z 0044fc90 f   ssg_vs2008_32:ssgStateSelector.obj
 0001:0004ecd0       ?print@ssgStateSelector@@UAEXPAU_iobuf@@PADH@Z 0044fcd0 f   ssg_vs2008_32:ssgStateSelector.obj
 0001:0004ed00       ?load@ssgStateSelector@@UAEHPAU_iobuf@@@Z 0044fd00 f   ssg_vs2008_32:ssgStateSelector.obj
 0001:0004edc0       ?save@ssgStateSelector@@UAEHPAU_iobuf@@@Z 0044fdc0 f   ssg_vs2008_32:ssgStateSelector.obj
 0001:0004ee30       ?copy_from@ssgStateSelector@@MAEXPAV1@H@Z 0044fe30 f   ssg_vs2008_32:ssgStateSelector.obj
 0001:0004eef0       ?clone@ssgStateSelector@@UAEPAVssgBase@@H@Z 0044fef0 f   ssg_vs2008_32:ssgStateSelector.obj
 0001:0004ef60       ??_GssgStateSelector@@UAEPAXI@Z 0044ff60 f i ssg_vs2008_32:ssgStateSelector.obj
 0001:0004ef60       ??_EssgStateSelector@@UAEPAXI@Z 0044ff60 f i ssg_vs2008_32:ssgStateSelector.obj
 0001:00050550       ?setState@ssgLeaf@@QAEXPAVssgState@@@Z 00451550 f   ssg_vs2008_32:ssgLeaf.obj
 0001:00050580       ?copy_from@ssgLeaf@@MAEXPAV1@H@Z 00451580 f   ssg_vs2008_32:ssgLeaf.obj
 0001:00050610       ??0ssgLeaf@@QAE@XZ         00451610 f   ssg_vs2008_32:ssgLeaf.obj
 0001:00050640       ?getNumVertices@ssgLeaf@@UAEHXZ 00451640 f i ssg_vs2008_32:ssgLeaf.obj
 0001:00050640       ?getNumTexCoords@ssgLeaf@@UAEHXZ 00451640 f i ssg_vs2008_32:ssgLeaf.obj
 0001:00050640       ?getNumNormals@ssgLeaf@@UAEHXZ 00451640 f i ssg_vs2008_32:ssgLeaf.obj
 0001:00050640       ?getNumKids@ssgEntity@@UAEHXZ 00451640 f i ssg_vs2008_32:ssgVTable.obj
 0001:00050640       ?getNumColours@ssgLeaf@@UAEHXZ 00451640 f i ssg_vs2008_32:ssgLeaf.obj
 0001:00050650       ?deleteDList@ssgLeaf@@QAEXXZ 00451650 f   ssg_vs2008_32:ssgLeaf.obj
 0001:00050670       ?cull@ssgLeaf@@UAEXPAVsgFrustum@@QAY03MH@Z 00451670 f   ssg_vs2008_32:ssgLeaf.obj
 0001:000506c0       ?hot@ssgLeaf@@UAEXQAMQAY03MH@Z 004516c0 f   ssg_vs2008_32:ssgLeaf.obj
 0001:00050700       ?los@ssgLeaf@@UAEXQAMQAY03MH@Z 00451700 f   ssg_vs2008_32:ssgLeaf.obj
 0001:00050740       ?isect@ssgLeaf@@UAEXPAVsgSphere@@QAY03MH@Z 00451740 f   ssg_vs2008_32:ssgLeaf.obj
 0001:00050780       ?getStats@ssgLeaf@@UAEXPAH000@Z 00451780 f   ssg_vs2008_32:ssgLeaf.obj
 0001:000507c0       ?print@ssgLeaf@@UAEXPAU_iobuf@@PADH@Z 004517c0 f   ssg_vs2008_32:ssgLeaf.obj
 0001:00050870       ?preDraw@ssgLeaf@@IAEHXZ   00451870 f   ssg_vs2008_32:ssgLeaf.obj
 0001:000508d0       ?load@ssgLeaf@@UAEHPAU_iobuf@@@Z 004518d0 f   ssg_vs2008_32:ssgLeaf.obj
 0001:00050950       ?save@ssgLeaf@@UAEHPAU_iobuf@@@Z 00451950 f   ssg_vs2008_32:ssgLeaf.obj
 0001:00050990       ??1ssgLeaf@@UAE@XZ         00451990 f   ssg_vs2008_32:ssgLeaf.obj
 0001:000509f0       ??_EssgLeaf@@UAEPAXI@Z     004519f0 f i ssg_vs2008_32:ssgLeaf.obj
 0001:000509f0       ??_GssgLeaf@@UAEPAXI@Z     004519f0 f i ssg_vs2008_32:ssgLeaf.obj
 0001:00050a10       ?origVert@ssgVertSplitter@@QAEHH@Z 00451a10 f   ssg_vs2008_32:ssgVertSplitter.obj
 0001:00050a20       ??1ssgVertSplitter@@UAE@XZ 00451a20 f   ssg_vs2008_32:ssgVertSplitter.obj
 0001:00050a70       ?setTri@ssgVertSplitter@@QAEXHHHH@Z 00451a70 f   ssg_vs2008_32:ssgVertSplitter.obj
 0001:00050ad0       ?getTri@ssgVertSplitter@@QAEPAHH@Z 00451ad0 f   ssg_vs2008_32:ssgVertSplitter.obj
 0001:00050af0       ?setSharpAngle@ssgVertSplitter@@QAEXM@Z 00451af0 f   ssg_vs2008_32:ssgVertSplitter.obj
 0001:00050b20       ?findTriWithVert@ssgVertSplitter@@AAEHHHPAHH@Z 00451b20 f   ssg_vs2008_32:ssgVertSplitter.obj
 0001:00050b80       ?nextTri@ssgVertSplitter@@AAEHHHPAHH@Z 00451b80 f   ssg_vs2008_32:ssgVertSplitter.obj
 0001:00050bf0       ?prevTri@ssgVertSplitter@@AAEHHHPAHH@Z 00451bf0 f   ssg_vs2008_32:ssgVertSplitter.obj
 0001:00050c60       ?fixVidx@ssgVertSplitter@@CAXPAUTri@1@HH@Z 00451c60 f   ssg_vs2008_32:ssgVertSplitter.obj
 0001:00050c90       ?condenseGeometry@ssgVertSplitter@@AAEXXZ 00451c90 f   ssg_vs2008_32:ssgVertSplitter.obj
 0001:00050d50       ?expandDuplicates@ssgVertSplitter@@AAEXXZ 00451d50 f   ssg_vs2008_32:ssgVertSplitter.obj
 0001:00050f10       ?splitAndCalcNormals@ssgVertSplitter@@QAEXXZ 00451f10 f   ssg_vs2008_32:ssgVertSplitter.obj
 0001:000517f0       ??0ssgVertSplitter@@QAE@HH@Z 004527f0 f   ssg_vs2008_32:ssgVertSplitter.obj
 0001:000518c0       ??_GssgVertSplitter@@UAEPAXI@Z 004528c0 f i ssg_vs2008_32:ssgVertSplitter.obj
 0001:000518c0       ??_EssgVertSplitter@@UAEPAXI@Z 004528c0 f i ssg_vs2008_32:ssgVertSplitter.obj
 0001:000518e0       ??0ssgList@@QAE@H@Z        004528e0 f   ssg_vs2008_32:ssgList.obj
 0001:00051930       ?sizeChk@ssgList@@IAEXXZ   00452930 f   ssg_vs2008_32:ssgList.obj
 0001:00051930       ?sizeChk@ulList@@IAEXXZ    00452930 f   ul_vs2008_32:ulList.obj
 0001:00051980       ?searchForEntity@ssgList@@QAEHPAVssgEntity@@@Z 00452980 f   ssg_vs2008_32:ssgList.obj
 0001:000519b0       ?removeAllEntities@ssgList@@QAEXXZ 004529b0 f   ssg_vs2008_32:ssgList.obj
 0001:000519e0       ?removeEntity@ssgList@@UAEXI@Z 004529e0 f   ssg_vs2008_32:ssgList.obj
 0001:000519e0       ?removeEntity@ulList@@UAEXI@Z 004529e0 f   ul_vs2008_32:ulList.obj
 0001:00051a20       ?removeEntity@ssgKidList@@UAEXI@Z 00452a20 f   ssg_vs2008_32:ssgList.obj
 0001:00051a40       ?replaceEntity@ssgKidList@@UAEXIPAVssgEntity@@@Z 00452a40 f   ssg_vs2008_32:ssgList.obj
 0001:00051a70       ??1ssgList@@UAE@XZ         00452a70 f   ssg_vs2008_32:ssgList.obj
 0001:00051a90       ??1ssgKidList@@UAE@XZ      00452a90 f   ssg_vs2008_32:ssgList.obj
 0001:00051aa0       ?addEntity@ulList@@UAEXPAX@Z 00452aa0 f   ul_vs2008_32:ulList.obj
 0001:00051aa0       ?addEntity@ssgList@@UAEXPAVssgEntity@@@Z 00452aa0 f   ssg_vs2008_32:ssgList.obj
 0001:00051ac0       ?addEntity@ssgKidList@@UAEXPAVssgEntity@@@Z 00452ac0 f   ssg_vs2008_32:ssgList.obj
 0001:00051ad0       ??_EssgList@@UAEPAXI@Z     00452ad0 f i ssg_vs2008_32:ssgList.obj
 0001:00051ad0       ??_GssgList@@UAEPAXI@Z     00452ad0 f i ssg_vs2008_32:ssgList.obj
 0001:00051af0       ??0ssgKidList@@QAE@H@Z     00452af0 f   ssg_vs2008_32:ssgList.obj
 0001:00051b10       ??_EssgKidList@@UAEPAXI@Z  00452b10 f i ssg_vs2008_32:ssgList.obj
 0001:00051b10       ??_GssgKidList@@UAEPAXI@Z  00452b10 f i ssg_vs2008_32:ssgList.obj
 0001:00051b30       ??1ssgEntity@@UAE@XZ       00452b30 f   ssg_vs2008_32:ssgEntity.obj
 0001:00051b90       ?dirtyBSphere@ssgEntity@@QAEXXZ 00452b90 f   ssg_vs2008_32:ssgEntity.obj
 0001:00051be0       ?print@ssgEntity@@UAEXPAU_iobuf@@PADH@Z 00452be0 f   ssg_vs2008_32:ssgEntity.obj
 0001:00051c20       ?getByName@ssgEntity@@UAEPAV1@PAD@Z 00452c20 f   ssg_vs2008_32:ssgEntity.obj
 0001:00051c60       ?getByPath@ssgEntity@@UAEPAV1@PAD@Z 00452c60 f   ssg_vs2008_32:ssgEntity.obj
 0001:00051cb0       ?getCallback@ssgEntity@@UAEP6AHPAV1@@ZH@Z 00452cb0 f   ssg_vs2008_32:ssgEntity.obj
 0001:00051ce0       ?setCallback@ssgEntity@@UAEXHP6AHPAV1@@Z@Z 00452ce0 f   ssg_vs2008_32:ssgEntity.obj
 0001:00051d10       ?preTravTests@ssgEntity@@QAEHPAHH@Z 00452d10 f   ssg_vs2008_32:ssgEntity.obj
 0001:00051d60       ?postTravTests@ssgEntity@@QAEXH@Z 00452d60 f   ssg_vs2008_32:ssgEntity.obj
 0001:00051d80       ?cull_test@ssgEntity@@MAE?AW4ssgCullResult@@PAVsgFrustum@@QAY03MH@Z 00452d80 f   ssg_vs2008_32:ssgEntity.obj
 0001:00051e10       ?isect_test@ssgEntity@@MAE?AW4ssgCullResult@@PAVsgSphere@@QAY03MH@Z 00452e10 f   ssg_vs2008_32:ssgEntity.obj
 0001:00051fb0       ?hot_test@ssgEntity@@MAE?AW4ssgCullResult@@QAMQAY03MH@Z 00452fb0 f   ssg_vs2008_32:ssgEntity.obj
 0001:000520b0       ?los_test@ssgEntity@@MAE?AW4ssgCullResult@@QAMQAY03MH@Z 004530b0 f   ssg_vs2008_32:ssgEntity.obj
 0001:000522a0       ?load@ssgEntity@@UAEHPAU_iobuf@@@Z 004532a0 f   ssg_vs2008_32:ssgEntity.obj
 0001:000522d0       ?save@ssgEntity@@UAEHPAU_iobuf@@@Z 004532d0 f   ssg_vs2008_32:ssgEntity.obj
 0001:00052300       ?getNetTransform@ssgEntity@@UAEXQAY03M@Z 00453300 f   ssg_vs2008_32:ssgEntity.obj
 0001:00052370       ?getLastNetTransform@ssgEntity@@UAEXQAY03M@Z 00453370 f   ssg_vs2008_32:ssgEntity.obj
 0001:000523e0       ?copy_from@ssgEntity@@MAEXPAV1@H@Z 004533e0 f   ssg_vs2008_32:ssgEntity.obj
 0001:00052420       ??0ssgEntity@@QAE@XZ       00453420 f   ssg_vs2008_32:ssgEntity.obj
 0001:000524a0       ??_EssgEntity@@UAEPAXI@Z   004534a0 f i ssg_vs2008_32:ssgEntity.obj
 0001:000524a0       ??_GssgEntity@@UAEPAXI@Z   004534a0 f i ssg_vs2008_32:ssgEntity.obj
 0001:000524c0       ?error@_ssgParser@@QAAXPBDZZ 004534c0 f   ssg_vs2008_32:ssgParser.obj
 0001:00052520       ?message@_ssgParser@@QAAXPBDZZ 00453520 f   ssg_vs2008_32:ssgParser.obj
 0001:00052580       ?openFile@_ssgParser@@QAEHPBDPBU_ssgParserSpec@@@Z 00453580 f   ssg_vs2008_32:ssgParser.obj
 0001:000526e0       ?closeFile@_ssgParser@@QAEXXZ 004536e0 f   ssg_vs2008_32:ssgParser.obj
 0001:00052700       ?addOneCharToken@_ssgParser@@AAEXPAD@Z 00453700 f   ssg_vs2008_32:ssgParser.obj
 0001:00052750       ?getRawLine@_ssgParser@@QAEPADXZ 00453750 f   ssg_vs2008_32:ssgParser.obj
 0001:000527b0       ?parseToken@_ssgParser@@QAEPADPBD@Z 004537b0 f   ssg_vs2008_32:ssgParser.obj
 0001:00052800       ?parseString@_ssgParser@@QAEHAAPADPBD@Z 00453800 f   ssg_vs2008_32:ssgParser.obj
 0001:000528c0       ?parseDouble@_ssgParser@@QAEHAANPBD@Z 004538c0 f   ssg_vs2008_32:ssgParser.obj
 0001:00052920       ?parseFloat@_ssgParser@@QAEHAAMPBD@Z 00453920 f   ssg_vs2008_32:ssgParser.obj
 0001:00052980       ?parseInt@_ssgParser@@QAEHAAHPBD@Z 00453980 f   ssg_vs2008_32:ssgParser.obj
 0001:000529e0       ?parseUInt@_ssgParser@@QAEHAAIPBD@Z 004539e0 f   ssg_vs2008_32:ssgParser.obj
 0001:00052a50       ?expect@_ssgParser@@QAEXPBD@Z 00453a50 f   ssg_vs2008_32:ssgParser.obj
 0001:00052aa0       ?getLine@_ssgParser@@QAEPADH@Z 00453aa0 f   ssg_vs2008_32:ssgParser.obj
 0001:00052d90       ?getNextToken@_ssgParser@@QAEPADPBD@Z 00453d90 f   ssg_vs2008_32:ssgParser.obj
 0001:00052e10       ?peekAtNextToken@_ssgParser@@QAEPADPBD@Z 00453e10 f   ssg_vs2008_32:ssgParser.obj
 0001:00052e80       ?getNextFloat@_ssgParser@@QAEHAAMPBD@Z 00453e80 f   ssg_vs2008_32:ssgParser.obj
 0001:00052ee0       ?getNextUInt@_ssgParser@@QAEHAAIPBD@Z 00453ee0 f   ssg_vs2008_32:ssgParser.obj
 0001:00052ee0       ?getNextInt@_ssgParser@@QAEHAAHPBD@Z 00453ee0 f   ssg_vs2008_32:ssgParser.obj
 0001:00052f40       ?getNextString@_ssgParser@@QAEHAAPADPBD@Z 00453f40 f   ssg_vs2008_32:ssgParser.obj
 0001:00052fe0       ?expectNextToken@_ssgParser@@QAEXPBD@Z 00453fe0 f   ssg_vs2008_32:ssgParser.obj
 0001:00053030       ??0ssgListOfLists@@QAE@H@Z 00454030 f i ssg_vs2008_32:ssgLoaderWriterStuff.obj
 0001:000530b0       ?print@ssgListOfLists@@UAEXPAU_iobuf@@PADH@Z 004540b0 f i ssg_vs2008_32:ssgLoaderWriterStuff.obj
 0001:000530b0       ?cull@ssgInvisible@@UAEXPAVsgFrustum@@QAY03MH@Z 004540b0 f i ssg_vs2008_32:ssgInvisible.obj
 0001:000530b0       ?print@ssgSimpleStateList@@UAEXPAU_iobuf@@PADH@Z 004540b0 f i ssg_vs2008_32:ssgLoadX.obj
 0001:000530b0       ?print@ssgListOfNodes@@UAEXPAU_iobuf@@PADH@Z 004540b0 f i ssg_vs2008_32:ssgLoadIV.obj
 0001:000530c0       ?ssgAccumVerticesAndFaces@@YAXPAVssgEntity@@QAY03MPAVssgVertexArray@@PAVssgIndexArray@@MPAVssgSimpleStateArray@@3PAVssgTexCoordArray@@@Z 004540c0 f   ssg_vs2008_32:ssgLoaderWriterStuff.obj
 0001:00053c60       ?_ssgTriangulate@@YAHPAY02MPAHH1@Z 00454c60 f   ssg_vs2008_32:ssgLoaderWriterStuff.obj
 0001:00054140       ?reInit@ssgLoaderWriterMesh@@QAEXXZ 00455140 f   ssg_vs2008_32:ssgLoaderWriterStuff.obj
 0001:00054160       ??0ssgLoaderWriterMesh@@QAE@XZ 00455160 f   ssg_vs2008_32:ssgLoaderWriterStuff.obj
 0001:00054170       ??1ssgLoaderWriterMesh@@QAE@XZ 00455170 f   ssg_vs2008_32:ssgLoaderWriterStuff.obj
 0001:00054180       ?createVertices@ssgLoaderWriterMesh@@QAEXH@Z 00455180 f   ssg_vs2008_32:ssgLoaderWriterStuff.obj
 0001:00054240       ?addVertex@ssgLoaderWriterMesh@@QAEXQAM@Z 00455240 f   ssg_vs2008_32:ssgLoaderWriterStuff.obj
 0001:00054280       ?setVertices@ssgLoaderWriterMesh@@QAEXPAVssgVertexArray@@@Z 00455280 f   ssg_vs2008_32:ssgLoaderWriterStuff.obj
 0001:00054290       ?createFaces@ssgLoaderWriterMesh@@QAEXH@Z 00455290 f   ssg_vs2008_32:ssgLoaderWriterStuff.obj
 0001:00054300       ?addFace@ssgLoaderWriterMesh@@QAEXPAPAVssgIndexArray@@@Z 00455300 f   ssg_vs2008_32:ssgLoaderWriterStuff.obj
 0001:00054340       ?addFaceFromIntegerArray@ssgLoaderWriterMesh@@QAEXHPAH@Z 00455340 f   ssg_vs2008_32:ssgLoaderWriterStuff.obj
 0001:00054440       ?createPerFaceAndVertexTextureCoordinates2@ssgLoaderWriterMesh@@QAEXH@Z 00455440 f   ssg_vs2008_32:ssgLoaderWriterStuff.obj
 0001:000544b0       ?addPerFaceAndVertexTextureCoordinate2@ssgLoaderWriterMesh@@QAEXPAPAVssgTexCoordArray@@@Z 004554b0 f   ssg_vs2008_32:ssgLoaderWriterStuff.obj
 0001:000544f0       ?createPerVertexTextureCoordinates2@ssgLoaderWriterMesh@@QAEXH@Z 004554f0 f   ssg_vs2008_32:ssgLoaderWriterStuff.obj
 0001:000545b0       ?addPerVertexTextureCoordinate2@ssgLoaderWriterMesh@@QAEXQAM@Z 004555b0 f   ssg_vs2008_32:ssgLoaderWriterStuff.obj
 0001:000545f0       ?createMaterialIndices@ssgLoaderWriterMesh@@QAEXH@Z 004555f0 f   ssg_vs2008_32:ssgLoaderWriterStuff.obj
 0001:000546b0       ?addMaterialIndex@ssgLoaderWriterMesh@@QAEXF@Z 004556b0 f   ssg_vs2008_32:ssgLoaderWriterStuff.obj
 0001:000546f0       ?createMaterials@ssgLoaderWriterMesh@@QAEXH@Z 004556f0 f   ssg_vs2008_32:ssgLoaderWriterStuff.obj
 0001:00054760       ?addMaterial@ssgLoaderWriterMesh@@QAEXPAPAVssgSimpleState@@@Z 00455760 f   ssg_vs2008_32:ssgLoaderWriterStuff.obj
 0001:000549f0       ?addOneNodeToSSGFromPerVertexTextureCoordinates2@ssgLoaderWriterMesh@@AAEXPAVssgVertexArray@@PAVssgTexCoordArray@@PAVssgListOfLists@@PAVssgSimpleState@@PAVssgLoaderOptions@@PAVssgBranch@@@Z 004559f0 f   ssg_vs2008_32:ssgLoaderWriterStuff.obj
 0001:00054e30       ?setName@ssgLoaderWriterMesh@@QAEXPBD@Z 00455e30 f   ssg_vs2008_32:ssgLoaderWriterStuff.obj
 0001:00054e60       ?checkMe@ssgLoaderWriterMesh@@QAEHXZ 00455e60 f   ssg_vs2008_32:ssgLoaderWriterStuff.obj
 0001:00055010       ?addOneNodeToSSGFromPerFaceAndVertexTextureCoordinates2@ssgLoaderWriterMesh@@AAEXPAVssgVertexArray@@PAVssgListOfLists@@1PAVssgSimpleState@@PAVssgLoaderOptions@@PAVssgBranch@@@Z 00456010 f   ssg_vs2008_32:ssgLoaderWriterStuff.obj
 0001:00055320       ?addToSSG@ssgLoaderWriterMesh@@QAEXPAVssgSimpleState@@PAVssgLoaderOptions@@PAVssgBranch@@@Z 00456320 f   ssg_vs2008_32:ssgLoaderWriterStuff.obj
 0001:000558b0       ?reset@ssgStatistics@@QAEXXZ 004568b0 f   ssg_vs2008_32:ssgStatistics.obj
 0001:000558c0       ?copy_from@ssgBaseTransform@@MAEXPAV1@H@Z 004568c0 f   ssg_vs2008_32:ssgBaseTransform.obj
 0001:00055950       ??0ssgBaseTransform@@QAE@XZ 00456950 f   ssg_vs2008_32:ssgBaseTransform.obj
 0001:00055a40       ??1ssgBaseTransform@@UAE@XZ 00456a40 f   ssg_vs2008_32:ssgBaseTransform.obj
 0001:00055a50       ?load@ssgBaseTransform@@UAEHPAU_iobuf@@@Z 00456a50 f   ssg_vs2008_32:ssgBaseTransform.obj
 0001:00055aa0       ?save@ssgBaseTransform@@UAEHPAU_iobuf@@@Z 00456aa0 f   ssg_vs2008_32:ssgBaseTransform.obj
 0001:00055ad0       ?print@ssgBaseTransform@@UAEXPAU_iobuf@@PADH@Z 00456ad0 f   ssg_vs2008_32:ssgBaseTransform.obj
 0001:00055b40       ??_EssgBaseTransform@@UAEPAXI@Z 00456b40 f i ssg_vs2008_32:ssgBaseTransform.obj
 0001:00055b40       ??_GssgBaseTransform@@UAEPAXI@Z 00456b40 f i ssg_vs2008_32:ssgBaseTransform.obj
 0001:00055b60       ?ulSetError@@YAXW4ulSeverity@@PBDZZ 00456b60 f   ul_vs2008_32:ulError.obj
 0001:00055bd0       ?ulOpenDir@@YAPAU_ulDir@@PBD@Z 00456bd0 f   ul_vs2008_32:ul.obj
 0001:00055cc0       ?ulReadDir@@YAPAUulDirEnt@@PAU_ulDir@@@Z 00456cc0 f   ul_vs2008_32:ul.obj
 0001:00055d40       ?ulCloseDir@@YAXPAU_ulDir@@@Z 00456d40 f   ul_vs2008_32:ul.obj
 0001:00055d70       ?ulFileExists@@YA_NPBD@Z   00456d70 f   ul_vs2008_32:ul.obj
 0001:00055da0       ?ulStrDup@@YAPADPBD@Z      00456da0 f   ul_vs2008_32:ul.obj
 0001:00055de0       ?ulStrNEqual@@YAHPBD0H@Z   00456de0 f   ul_vs2008_32:ul.obj
 0001:00055e80       ?ulStrEqual@@YAHPBD0@Z     00456e80 f   ul_vs2008_32:ul.obj
 0001:00055f10       ?ulIsAbsolutePathName@@YAHPBD@Z 00456f10 f   ul_vs2008_32:ul.obj
 0001:00055f50       ?ulMakePath@@YAPADPADPBD1@Z 00456f50 f   ul_vs2008_32:ul.obj
 0001:00056120       ?ulFindFile@@YAXPADPBD11@Z 00457120 f   ul_vs2008_32:ul.obj
 0001:00056330       ?initPerformanceTimer@ulClock@@AAEXXZ 00457330 f   ul_vs2008_32:ulClock.obj
 0001:00056370       ?getRawTime@ulClock@@ABENXZ 00457370 f   ul_vs2008_32:ulClock.obj
 0001:000563c0       ?update@ulClock@@QAEXXZ    004573c0 f   ul_vs2008_32:ulClock.obj
 0001:00056400       ??0ulList@@QAE@H@Z         00457400 f   ul_vs2008_32:ulList.obj
 0001:00056450       ?removeAllEntities@ulList@@QAEXXZ 00457450 f   ul_vs2008_32:ulList.obj
 0001:00056480       ?replaceEntity@ulList@@UAEXIPAX@Z 00457480 f   ul_vs2008_32:ulList.obj
 0001:00056480       ?replaceEntity@ssgList@@UAEXIPAVssgEntity@@@Z 00457480 f   ssg_vs2008_32:ssgList.obj
 0001:000564a0       ??1ulList@@UAE@XZ          004574a0 f   ul_vs2008_32:ulList.obj
 0001:000564c0       ?addEntityBefore@ulList@@UAEXHPAX@Z 004574c0 f   ul_vs2008_32:ulList.obj
 0001:00056500       ??_EulList@@UAEPAXI@Z      00457500 f i ul_vs2008_32:ulList.obj
 0001:00056500       ??_GulList@@UAEPAXI@Z      00457500 f i ul_vs2008_32:ulList.obj
 0001:0005651e       ?_tgf_win_calloc@@YAPAXII@Z 0045751e f   tgf:tgf.dll
 0001:00056524       ?_tgf_win_realloc@@YAPAXPAXI@Z 00457524 f   tgf:tgf.dll
 0001:0005652a       ?_tgf_win_free@@YAXPAX@Z   0045752a f   tgf:tgf.dll
 0001:00056530       ?GfParmGetStr@@YAPBDPAXPBD11@Z 00457530 f   tgf:tgf.dll
 0001:00056536       ?GfParmGetNum@@YAMPAXPBD11M@Z 00457536 f   tgf:tgf.dll
 0001:0005653c       ?_tgf_win_strdup@@YAPADPBD@Z 0045753c f   tgf:tgf.dll
 0001:00056542       ?GfModLoad@@YAHIPADPAPAUModList@@@Z 00457542 f   tgf:tgf.dll
 0001:00056548       ?GfParmReadFile@@YAPAXPBDH@Z 00457548 f   tgf:tgf.dll
 0001:0005654e       ?GetLibDir@@YAPADXZ        0045754e f   tgf:tgf.dll
 0001:00056554       ?_tgf_win_malloc@@YAPAXI@Z 00457554 f   tgf:tgf.dll
 0001:0005655a       ?GfParmGetCurStr@@YAPBDPAXPBD11@Z 0045755a f   tgf:tgf.dll
 0001:00056560       ?GfParmGetCurNum@@YAMPAXPBD11M@Z 00457560 f   tgf:tgf.dll
 0001:00056566       ?GfParmGetEltNb@@YAHPAXPBD@Z 00457566 f   tgf:tgf.dll
 0001:0005656c       ?GfParmListSeekFirst@@YAHPAXPBD@Z 0045756c f   tgf:tgf.dll
 0001:00056572       ?GfParmListSeekNext@@YAHPAXPBD@Z 00457572 f   tgf:tgf.dll
 0001:00056578       ?GfParmListGetCurEltName@@YAPADPAXPBD@Z 00457578 f   tgf:tgf.dll
 0001:0005657e       ??0bad_alloc@std@@QAE@ABV01@@Z 0045757e f i libcpmt:xthrow.obj
 0001:00056599       ??0length_error@std@@QAE@ABV01@@Z 00457599 f i libcpmt:xthrow.obj
 0001:000565b4       ??0logic_error@std@@QAE@ABV01@@Z 004575b4 f i libcpmt:xthrow.obj
 0001:000565cf       ??0out_of_range@std@@QAE@ABV01@@Z 004575cf f i libcpmt:xthrow.obj
 0001:000565ea       ??1bad_alloc@std@@UAE@XZ   004575ea f i libcpmt:xthrow.obj
 0001:000565f5       ??1length_error@std@@UAE@XZ 004575f5 f i libcpmt:xthrow.obj
 0001:000565f5       ??1out_of_range@std@@UAE@XZ 004575f5 f i libcpmt:xthrow.obj
 0001:000565fa       ??_Ebad_alloc@std@@UAEPAXI@Z 004575fa f i libcpmt:xthrow.obj
 0001:000565fa       ??_Gbad_alloc@std@@UAEPAXI@Z 004575fa f i libcpmt:xthrow.obj
 0001:0005661f       ??_Glength_error@std@@UAEPAXI@Z 0045761f f i libcpmt:xthrow.obj
 0001:0005661f       ??_Eout_of_range@std@@UAEPAXI@Z 0045761f f i libcpmt:xthrow.obj
 0001:0005661f       ??_Elogic_error@std@@UAEPAXI@Z 0045761f f i libcpmt:xthrow.obj
 0001:0005661f       ??_Glogic_error@std@@UAEPAXI@Z 0045761f f i libcpmt:xthrow.obj
 0001:0005661f       ??_Elength_error@std@@UAEPAXI@Z 0045761f f i libcpmt:xthrow.obj
 0001:0005661f       ??_Gout_of_range@std@@UAEPAXI@Z 0045761f f i libcpmt:xthrow.obj
 0001:0005663e       ?_Xbad_alloc@std@@YAXXZ    0045763e f   libcpmt:xthrow.obj
 0001:0005666f       ?_Xlength_error@std@@YAXPBD@Z 0045766f f   libcpmt:xthrow.obj
 0001:0005669d       ?_Xout_of_range@std@@YAXPBD@Z 0045769d f   libcpmt:xthrow.obj
 0001:000566cb       ?_Syserror_map@std@@YAPBDH@Z 004576cb f   libcpmt:syserror.obj
 0001:000566f5       ?_Winerror_map@std@@YAPBDH@Z 004576f5 f   libcpmt:syserror.obj
 0001:0005671f       __fclose_nolock            0045771f f   LIBCMT:fclose.obj
 0001:0005678b       _fclose                    0045778b f   LIBCMT:fclose.obj
 0001:00056802       __fsopen                   00457802 f   LIBCMT:fopen.obj
 0001:000568c6       _fopen                     004578c6 f   LIBCMT:fopen.obj
 0001:000568db       _fprintf                   004578db f   LIBCMT:fprintf.obj
 0001:000569f0       _ceil                      004579f0 f   LIBCMT:ceil_pentium4.obj
 0001:00056a30       __ceil_pentium4            00457a30 f   LIBCMT:ceil_pentium4.obj
 0001:00056b0d       ___initstdio               00457b0d f   LIBCMT:_file.obj
 0001:00056b80       ___endstdio                00457b80 f   LIBCMT:_file.obj
 0001:00056ba7       ___iob_func                00457ba7 f   LIBCMT:_file.obj
 0001:00056bad       __lock_file                00457bad f   LIBCMT:_file.obj
 0001:00056bec       __lock_file2               00457bec f   LIBCMT:_file.obj
 0001:00056c1c       __unlock_file              00457c1c f   LIBCMT:_file.obj
 0001:00056c56       __unlock_file2             00457c56 f   LIBCMT:_file.obj
 0001:00056c83       __fflush_nolock            00457c83 f   LIBCMT:fflush.obj
 0001:00056cc9       __flush                    00457cc9 f   LIBCMT:fflush.obj
 0001:00056d2d       __flushall                 00457d2d f   LIBCMT:fflush.obj
 0001:00056d36       _fflush                    00457d36 f   LIBCMT:fflush.obj
 0001:00056e6f       __get_printf_count_output  00457e6f f   LIBCMT:printf.obj
 0001:00056e84       _printf                    00457e84 f   LIBCMT:printf.obj
 0001:00056f30       __snprintf                 00457f30 f   LIBCMT:snprintf.obj
 0001:00056fda       ___copy_path_to_wide_string 00457fda f   LIBCMT:crt0dat.obj
 0001:0005708a       ___crtCorExitProcess       0045808a f   LIBCMT:crt0dat.obj
 0001:000570bc       ___crtExitProcess          004580bc f   LIBCMT:crt0dat.obj
 0001:000570d2       __amsg_exit                004580d2 f   LIBCMT:crt0dat.obj
 0001:000570ee       __c_exit                   004580ee f   LIBCMT:crt0dat.obj
 0001:000570fd       __cexit                    004580fd f   LIBCMT:crt0dat.obj
 0001:0005710c       __cinit                    0045810c f   LIBCMT:crt0dat.obj
 0001:0005719d       __exit                     0045819d f   LIBCMT:crt0dat.obj
 0001:000571b1       __init_pointers            004581b1 f   LIBCMT:crt0dat.obj
 0001:00057205       __initterm_e               00458205 f   LIBCMT:crt0dat.obj
 0001:00057227       __lockexit                 00458227 f   LIBCMT:crt0dat.obj
 0001:00057230       __unlockexit               00458230 f   LIBCMT:crt0dat.obj
 0001:00057368       _exit                      00458368 f   LIBCMT:crt0dat.obj
 0001:00057380       __ftol2_sse                00458380 f   LIBCMT:ftol2.obj
 0001:00057389       __ftol2_pentium4           00458389 f   LIBCMT:ftol2.obj
 0001:0005739c       __ftol2_sse_excpt          0045839c f   LIBCMT:ftol2.obj
 0001:000573b6       __ftol2                    004583b6 f   LIBCMT:ftol2.obj
 0001:00057430       __libm_sse2_sqrt_precise   00458430 f   LIBCMT:sqrt_sse2_precise.obj
 0001:00057530       _memset                    00458530 f   LIBCMT:memset.obj
 0001:000575c0       __fpmath                   004585c0 f   LIBCMT:fpinit.obj
 0001:000575d7       __cfltcvt_init             004585d7 f   LIBCMT:fpinit.obj
 0001:00057637       ??2@YAPAXI@Z               00458637 f   LIBCMT:new.obj
 0001:00057686       ??3@YAXPAX@Z               00458686 f   LIBCMT:delete.obj
 0001:0005768b       _sprintf                   0045868b f   LIBCMT:sprintf.obj
 0001:0005770d       __dupenv_s                 0045870d f   LIBCMT:getenv.obj
 0001:000577e1       __getenv_helper_nolock     004587e1 f   LIBCMT:getenv.obj
 0001:00057865       _getenv                    00458865 f   LIBCMT:getenv.obj
 0001:000578e1       ??0_LocaleUpdate@@QAE@PAUlocaleinfo_struct@@@Z 004588e1 f i LIBCMT:strtol.obj
 0001:00057b8d       _strtol                    00458b8d f   LIBCMT:strtol.obj
 0001:00057c85       ?_CallCatchBlock2@@YAPAXPAUEHRegistrationNode@@PBU_s_FuncInfo@@PAXHK@Z 00458c85 f   LIBCMT:_trnsctrl_.obj
 0001:00057ce3       ?_CallMemberFunction1@@YGXPAX00@Z 00458ce3 f   LIBCMT:_trnsctrl_.obj
 0001:00057ce3       ?_CallMemberFunction0@@YGXPAX0@Z 00458ce3 f   LIBCMT:_trnsctrl_.obj
 0001:00057ce3       ?_CallMemberFunction2@@YGXPAX00H@Z 00458ce3 f   LIBCMT:_trnsctrl_.obj
 0001:00057cea       ?_CallSETranslator@@YAHPAUEHExceptionRecord@@PAUEHRegistrationNode@@PAX2PBU_s_FuncInfo@@H1@Z 00458cea f   LIBCMT:_trnsctrl_.obj
 0001:00057dbf       ?_GetRangeOfTrysToCheck@@YAPBU_s_TryBlockMapEntry@@PBU_s_FuncInfo@@HHPAI1@Z 00458dbf f   LIBCMT:_trnsctrl_.obj
 0001:00057e3e       ?_JumpToContinuation@@YGXPAXPAUEHRegistrationNode@@@Z 00458e3e f   LIBCMT:_trnsctrl_.obj
 0001:00057e6e       ?_UnwindNestedFrames@@YGXPAUEHRegistrationNode@@PAUEHExceptionRecord@@@Z 00458e6e f   LIBCMT:_trnsctrl_.obj
 0001:00057ec1       __CreateFrameInfo          00458ec1 f   LIBCMT:_trnsctrl_.obj
 0001:00057eeb       __FindAndUnlinkFrame       00458eeb f   LIBCMT:_trnsctrl_.obj
 0001:00057f3b       __IsExceptionObjectToBeDestroyed 00458f3b f   LIBCMT:_trnsctrl_.obj
 0001:00057f64       ___CxxFrameHandler3        00458f64 f   LIBCMT:_trnsctrl_.obj
 0001:00057fa0       _floor                     00458fa0 f   LIBCMT:floor_pentium4.obj
 0001:00057fe0       __floor_pentium4           00458fe0 f   LIBCMT:floor_pentium4.obj
 0001:000580c1       ??1type_info@@UAE@XZ       004590c1 f   LIBCMT:typinfo.obj
 0001:000580cf       ??8type_info@@QBE_NABV0@@Z 004590cf f   LIBCMT:typinfo.obj
 0001:000580ed       ??_Etype_info@@UAEPAXI@Z   004590ed f i LIBCMT:typinfo.obj
 0001:000580ed       ??_Gtype_info@@UAEPAXI@Z   004590ed f i LIBCMT:typinfo.obj
 0001:00058110       _strncmp                   00459110 f   LIBCMT:strncmp.obj
 0001:00058188       _rand                      00459188 f   LIBCMT:rand.obj
 0001:000581ab       _srand                     004591ab f   LIBCMT:rand.obj
 0001:000581c0       _strrchr                   004591c0 f   LIBCMT:strrchr.obj
 0001:00058300       __libm_sse2_cos_precise    00459300 f   LIBCMT:cos_sse2_precise.obj
 0001:000584c0       __libm_sse2_sin_precise    004594c0 f   LIBCMT:sin_sse2_precise.obj
 0001:00058690       _strchr                    00459690 f   LIBCMT:strchr.obj
 0001:000586fe       ___from_strstr_to_strchr   004596fe     LIBCMT:strchr.obj
 0001:000587c0       _strncpy                   004597c0 f   LIBCMT:strncpy.obj
 0001:000588e4       __purecall                 004598e4 f   LIBCMT:purevirt.obj
 0001:0005890e       ___onexitinit              0045990e f   LIBCMT:onexit.obj
 0001:0005893d       __onexit                   0045993d f   LIBCMT:onexit.obj
 0001:00058a33       _atexit                    00459a33 f   LIBCMT:onexit.obj
 0001:00058a50       _memmove                   00459a50 f   LIBCMT:memmove.obj
 0001:00059094       ___ascii_stricmp           0045a094 f   LIBCMT:stricmp.obj
 0001:000590cd       _stricmp                   0045a0cd f   LIBCMT:stricmp.obj
 0001:000590cd       __stricmp                  0045a0cd f   LIBCMT:stricmp.obj
 0001:00059114       __stricmp_l                0045a114 f   LIBCMT:stricmp.obj
 0001:000591a7       __findclose                0045a1a7 f   LIBCMT:findfile.obj
 0001:000591cb       ___time64_t_from_ft        0045a1cb f   LIBCMT:findfi32.obj
 0001:00059247       __findfirst64i32           0045a247 f   LIBCMT:findfi32.obj
 0001:0005936c       __findnext64i32            0045a36c f   LIBCMT:findfi32.obj
 0001:00059481       __CxxThrowException@8      0045a481 f   LIBCMT:throw.obj
 0001:000594e0       _memcpy                    0045a4e0 f   LIBCMT:memcpy.obj
 0001:00059c9f       _mainCRTStartup            0045ac9f f   LIBCMT:crt0.obj
 0001:00059cb0       __CIsqrt                   0045acb0 f   LIBCMT:sqrt.obj
 0001:00059cc4       _sqrt                      0045acc4     LIBCMT:sqrt.obj
 0001:00059d70       _asin                      0045ad70 f   LIBCMT:asin.obj
 0001:00059db0       __CIasin                   0045adb0 f   LIBCMT:asin.obj
 0001:00059deb       __CIasin_default           0045adeb f   LIBCMT:asin.obj
 0001:00059dff       __asin_default             0045adff     LIBCMT:asin.obj
 0001:00059ec0       _acos                      0045aec0 f   LIBCMT:acos.obj
 0001:00059f00       __CIacos                   0045af00 f   LIBCMT:acos.obj
 0001:00059f3b       __CIacos_default           0045af3b f   LIBCMT:acos.obj
 0001:00059f4f       __acos_default             0045af4f     LIBCMT:acos.obj
 0001:0005a010       _atan2                     0045b010 f   LIBCMT:87ctriga.obj
 0001:0005a01a       __CIatan2                  0045b01a f   LIBCMT:87ctriga.obj
 0001:0005a030       _sin                       0045b030 f   LIBCMT:sin.obj
 0001:0005a070       __CIsin                    0045b070 f   LIBCMT:sin.obj
 0001:0005a0ab       __CIsin_default            0045b0ab f   LIBCMT:sin.obj
 0001:0005a0bf       __sin_default              0045b0bf     LIBCMT:sin.obj
 0001:0005a160       _cos                       0045b160 f   LIBCMT:cos.obj
 0001:0005a1a0       __CIcos                    0045b1a0 f   LIBCMT:cos.obj
 0001:0005a1db       __CIcos_default            0045b1db f   LIBCMT:cos.obj
 0001:0005a1ef       __cos_default              0045b1ef     LIBCMT:cos.obj
 0001:0005a290       _tan                       0045b290 f   LIBCMT:tan.obj
 0001:0005a2d0       __CItan                    0045b2d0 f   LIBCMT:tan.obj
 0001:0005a30b       __CItan_default            0045b30b f   LIBCMT:tan.obj
 0001:0005a31f       __tan_default              0045b31f     LIBCMT:tan.obj
 0001:0005a3bd       _malloc                    0045b3bd f   LIBCMT:malloc.obj
 0001:0005a44f       _free                      0045b44f f   LIBCMT:free.obj
 0001:0005a490       _strcspn                   0045b490 f   LIBCMT:strcspn.obj
 0001:0005a4d6       _sscanf                    0045b4d6 f   LIBCMT:sscanf.obj
 0001:0005a565       _fgets                     0045b565 f   LIBCMT:fgets.obj
 0001:0005a6a4       __ungetc_nolock            0045b6a4 f   LIBCMT:ungetc.obj
 0001:0005a784       _ungetc                    0045b784 f   LIBCMT:ungetc.obj
 0001:0005a7f0       _getc                      0045b7f0 f   LIBCMT:fgetc.obj
 0001:0005a7f0       _fgetc                     0045b7f0 f   LIBCMT:fgetc.obj
 0001:0005a8e9       __fread_nolock_s           0045b8e9 f   LIBCMT:fread.obj
 0001:0005aaac       _fread                     0045baac f   LIBCMT:fread.obj
 0001:0005aac7       _fread_s                   0045bac7 f   LIBCMT:fread.obj
 0001:0005ab58       __fwrite_nolock            0045bb58 f   LIBCMT:fwrite.obj
 0001:0005acaf       _fwrite                    0045bcaf f   LIBCMT:fwrite.obj
 0001:0005ad2d       _putc                      0045bd2d f   LIBCMT:fputc.obj
 0001:0005ae2e       _fputs                     0045be2e f   LIBCMT:fputs.obj
 0001:0005af34       __isdigit_l                0045bf34 f i LIBCMT:_ctype.obj
 0001:0005af84       __isspace_l                0045bf84 f i LIBCMT:_ctype.obj
 0001:0005afd4       __isxdigit_l               0045bfd4 f i LIBCMT:_ctype.obj
 0001:0005b02a       _isdigit                   0045c02a f i LIBCMT:_ctype.obj
 0001:0005b055       _isspace                   0045c055 f i LIBCMT:_ctype.obj
 0001:0005b080       _isxdigit                  0045c080 f i LIBCMT:_ctype.obj
 0001:0005b0ad       __ftell_nolock             0045c0ad f   LIBCMT:ftell.obj
 0001:0005b406       _ftell                     0045c406 f   LIBCMT:ftell.obj
 0001:0005b46e       __fseek_nolock             0045c46e f   LIBCMT:fseek.obj
 0001:0005b4fd       _fseek                     0045c4fd f   LIBCMT:fseek.obj
 0001:0005b57c       _atoi                      0045c57c f   LIBCMT:atox.obj
 0001:0005b585       _atol                      0045c585 f   LIBCMT:atox.obj
 0001:0005b599       __get_sys_err_msg          0045c599 f i LIBCMT:perror.obj
 0001:0005b5bf       _perror                    0045c5bf f   LIBCMT:perror.obj
 0001:0005b64e       __stat64i32                0045c64e f   LIBCMT:stati32.obj
 0001:0005b692       _system                    0045c692 f   LIBCMT:system.obj
 0001:0005b771       _feof                      0045c771 f   LIBCMT:feoferr.obj
 0001:0005b797       _ferror                    0045c797 f   LIBCMT:feoferr.obj
 0001:0005b7c0       __alloca_probe             0045c7c0     LIBCMT:chkstk.obj
 0001:0005b7c0       __chkstk                   0045c7c0 f   LIBCMT:chkstk.obj
 0001:0005b7eb       __tolower_l                0045c7eb f   LIBCMT:tolower.obj
 0001:0005b92c       _tolower                   0045c92c f   LIBCMT:tolower.obj
 0001:0005b960       _strstr                    0045c960 f   LIBCMT:strstr.obj
 0001:0005bbc3       __atof_l                   0045cbc3 f   LIBCMT:atof.obj
 0001:0005bc5f       _atof                      0045cc5f f   LIBCMT:atof.obj
 0001:0005bc70       __strtod_l                 0045cc70 f   LIBCMT:strtod.obj
 0001:0005bd85       _strtod                    0045cd85 f   LIBCMT:strtod.obj
 0001:0005bd9a       _strtok                    0045cd9a f   LIBCMT:strtok.obj
 0001:0005be60       _strcmp                    0045ce60 f   LIBCMT:strcmp.obj
 0001:0005bef0       _qsort                     0045cef0 f   LIBCMT:qsort.obj
 0001:0005c21c       _bsearch                   0045d21c f   LIBCMT:bsearch.obj
 0001:0005c2c0       __toupper_l                0045d2c0 f   LIBCMT:toupper.obj
 0001:0005c402       _toupper                   0045d402 f   LIBCMT:toupper.obj
 0001:0005c430       _strncat                   0045d430 f   LIBCMT:strncat.obj
 0001:0005c565       _rewind                    0045d565 f   LIBCMT:rewind.obj
 0001:0005c624       __vsprintf_l               0045d624 f   LIBCMT:vsprintf.obj
 0001:0005c6a6       _vsprintf                  0045d6a6 f   LIBCMT:vsprintf.obj
 0001:0005c6be       __validdrive               0045d6be f   LIBCMT:getcwd.obj
 0001:0005c740       _strlen                    0045d740 f   LIBCMT:strlen.obj
 0001:0005c7cb       ??0exception@std@@QAE@ABQBD@Z 0045d7cb f   LIBCMT:stdexcpt.obj
 0001:0005c7f0       ??0exception@std@@QAE@ABQBDH@Z 0045d7f0 f   LIBCMT:stdexcpt.obj
 0001:0005c80b       ??0exception@std@@QAE@ABV01@@Z 0045d80b f   LIBCMT:stdexcpt.obj
 0001:0005c82e       ??1exception@std@@UAE@XZ   0045d82e f   LIBCMT:stdexcpt.obj
 0001:0005c839       ??4exception@std@@QAEAAV01@ABV01@@Z 0045d839 f   LIBCMT:stdexcpt.obj
 0001:0005c86c       ??_Gexception@std@@UAEPAXI@Z 0045d86c f i LIBCMT:stdexcpt.obj
 0001:0005c86c       ??_Eexception@std@@UAEPAXI@Z 0045d86c f i LIBCMT:stdexcpt.obj
 0001:0005c891       ?_Copy_str@exception@std@@AAEXPBD@Z 0045d891 f   LIBCMT:stdexcpt.obj
 0001:0005c8cf       ?_Tidy@exception@std@@AAEXXZ 0045d8cf f   LIBCMT:stdexcpt.obj
 0001:0005c8eb       ?what@exception@std@@UBEPBDXZ 0045d8eb f   LIBCMT:stdexcpt.obj
 0001:0005c8f8       @__security_check_cookie@4 0045d8f8 f   LIBCMT:secchk.obj
 0001:0005c907       __EH_prolog3_catch         0045d907 f   LIBCMT:ehprolg3.obj
 0001:0005c93d       __call_reportfault         0045d93d f   LIBCMT:invarg.obj
 0001:0005ca60       __initp_misc_invarg        0045da60 f   LIBCMT:invarg.obj
 0001:0005ca6d       __invalid_parameter        0045da6d f   LIBCMT:invarg.obj
 0001:0005ca98       __invalid_parameter_noinfo 0045da98 f   LIBCMT:invarg.obj
 0001:0005caa8       __invoke_watson            0045daa8 f   LIBCMT:invarg.obj
 0001:0005cad3       __fileno                   0045dad3 f   LIBCMT:fileno.obj
 0001:0005caf7       __close                    0045daf7 f   LIBCMT:close.obj
 0001:0005cbc1       __close_nolock             0045dbc1 f   LIBCMT:close.obj
 0001:0005cc5b       ___doserrno                0045dc5b f   LIBCMT:dosmap.obj
 0001:0005cc6e       __dosmaperr                0045dc6e f   LIBCMT:dosmap.obj
 0001:0005cc8f       __errno                    0045dc8f f   LIBCMT:dosmap.obj
 0001:0005cca2       __get_errno_from_oserr     0045dca2 f   LIBCMT:dosmap.obj
 0001:0005cce3       __freebuf                  0045dce3 f   LIBCMT:_freebuf.obj
 0001:0005cd20       __SEH_prolog4              0045dd20 f   LIBCMT:sehprolg4.obj
 0001:0005cd65       __SEH_epilog4              0045dd65 f   LIBCMT:sehprolg4.obj
 0001:0005cd80       __except_handler4          0045dd80 f   LIBCMT:chandler4.obj
 0001:0005cf15       __getstream                0045df15 f   LIBCMT:stream.obj
 0001:0005d02d       __openfile                 0045e02d f   LIBCMT:_open.obj
 0001:0005d2b0       __local_unwind4            0045e2b0 f   LIBCMT:exsup4.obj
 0001:0005d386       __seh_longjmp_unwind4@4    0045e386 f   LIBCMT:exsup4.obj
 0001:0005d3a2       @_EH4_CallFilterFunc@8     0045e3a2 f   LIBCMT:exsup4.obj
 0001:0005d3b9       @_EH4_TransferToHandler@8  0045e3b9 f   LIBCMT:exsup4.obj
 0001:0005d3d2       @_EH4_GlobalUnwind2@8      0045e3d2 f   LIBCMT:exsup4.obj
 0001:0005d3eb       @_EH4_LocalUnwind@16       0045e3eb f   LIBCMT:exsup4.obj
 0001:0005d402       __ftbuf                    0045e402 f   LIBCMT:_sftbuf.obj
 0001:0005d433       __stbuf                    0045e433 f   LIBCMT:_sftbuf.obj
 0001:0005d4d9       __output_l                 0045e4d9 f   LIBCMT:output.obj
 0001:0005e14b       __ioinit                   0045f14b f   LIBCMT:ioinit.obj
 0001:0005e3f9       ___libm_error_support      0045f3f9 f   LIBCMT:libm_error.obj
 0001:0005e6e1       __sse2_mathfcns_init       0045f6e1 f   LIBCMT:mathfcns.obj
 0001:0005e6f0       __ceil_default             0045f6f0 f   LIBCMT:ceil.obj
 0001:0005e7c3       __fcloseall                0045f7c3 f   LIBCMT:closeall.obj
 0001:0005e860       __lock                     0045f860 f   LIBCMT:mlock.obj
 0001:0005e894       __mtdeletelocks            0045f894 f   LIBCMT:mlock.obj
 0001:0005e8e8       __mtinitlocknum            0045f8e8 f   LIBCMT:mlock.obj
 0001:0005e98f       __mtinitlocks              0045f98f f   LIBCMT:mlock.obj
 0001:0005e9c4       __unlock                   0045f9c4 f   LIBCMT:mlock.obj
 0001:0005e9d9       __calloc_crt               0045f9d9 f   LIBCMT:crtheap.obj
 0001:0005ea23       __malloc_crt               0045fa23 f   LIBCMT:crtheap.obj
 0001:0005ea6c       __realloc_crt              0045fa6c f   LIBCMT:crtheap.obj
 0001:0005eab8       __recalloc_crt             0045fab8 f   LIBCMT:crtheap.obj
 0001:0005eb08       __commit                   0045fb08 f   LIBCMT:commit.obj
 0001:0005ebee       __write                    0045fbee f   LIBCMT:write.obj
 0001:0005ecd0       __write_nolock             0045fcd0 f   LIBCMT:write.obj
 0001:0005f4fa       __flsbuf                   004604fa f   LIBCMT:_flsbuf.obj
 0001:0005f647       __RTC_Initialize           00460647 f   LIBCMT:initsect.obj
 0001:0005f667       __RTC_Terminate            00460667 f   LIBCMT:initsect.obj
 0001:0005f687       ___crtFlsAlloc             00460687 f   LIBCMT:winapisupp.obj
 0001:0005f6a5       ___crtFlsFree              004606a5 f   LIBCMT:winapisupp.obj
 0001:0005f6c4       ___crtFlsGetValue          004606c4 f   LIBCMT:winapisupp.obj
 0001:0005f6e3       ___crtFlsSetValue          004606e3 f   LIBCMT:winapisupp.obj
 0001:0005f705       ___crtIsPackagedApp        00460705 f   LIBCMT:winapisupp.obj
 0001:0005f743       ___crtLoadWinApiPointers   00460743 f   LIBCMT:winapisupp.obj
 0001:0005f982       ___crtSetUnhandledExceptionFilter 00460982 f   LIBCMT:winapisupp.obj
 0001:0005f990       ___crtTerminateProcess     00460990 f   LIBCMT:winapisupp.obj
 0001:0005f9a5       ___crtUnhandledException   004609a5 f   LIBCMT:winapisupp.obj
 0001:0005f9bb       __FF_MSGBANNER             004609bb f   LIBCMT:crt0msg.obj
 0001:0005f9f4       __GET_RTERRMSG             004609f4 f   LIBCMT:crt0msg.obj
 0001:0005fa18       __NMSG_WRITE               00460a18 f   LIBCMT:crt0msg.obj
 0001:0005fbe0       __FindPESection            00460be0 f   LIBCMT:pesect.obj
 0001:0005fc30       __IsNonwritableInCurrentImage 00460c30 f   LIBCMT:pesect.obj
 0001:0005fcf0       __ValidateImageBase        00460cf0 f   LIBCMT:pesect.obj
 0001:0005fd21       __initp_misc_cfltcvt_tab   00460d21 f   LIBCMT:cmiscdat.obj
 0001:0005fd40       ?_inconsistency@@YAXXZ     00460d40 f   LIBCMT:hooks.obj
 0001:0005fd78       ?terminate@@YAXXZ          00460d78 f   LIBCMT:hooks.obj
 0001:0005fdac       ?unexpected@@YAXXZ         00460dac f   LIBCMT:hooks.obj
 0001:0005fdbf       __initp_eh_hooks           00460dbf f   LIBCMT:hooks.obj
 0001:0005fdd0       __callnewh                 00460dd0 f   LIBCMT:handler.obj
 0001:0005fdf6       __initp_heap_handler       00460df6 f   LIBCMT:handler.obj
 0001:0005fe03       __initp_misc_purevirt      00460e03 f   LIBCMT:inithelp.obj
 0001:0005fe10       __initp_misc_rand_s        00460e10 f   LIBCMT:rand_s.obj
 0001:0005fe1d       ___get_sigabrt             00460e1d f   LIBCMT:winsig.obj
 0001:0005fe2a       __initp_misc_winsig        00460e2a f   LIBCMT:winsig.obj
 0001:0005fe46       _raise                     00460e46 f   LIBCMT:winsig.obj
 0001:00060037       ___initmbctable            00461037 f   LIBCMT:mbctype.obj
 0001:000602f2       ___updatetmbcinfo          004612f2 f   LIBCMT:mbctype.obj
 0001:00060397       __setmbcp                  00461397 f   LIBCMT:mbctype.obj
 0001:00060545       __setmbcp_nolock           00461545 f   LIBCMT:mbctype.obj
 0001:0006073a       ___isa_available_init      0046173a f   LIBCMT:cpu_disp.obj
 0001:00060873       __VEC_memset               00461873 f   LIBCMT:p4_memset.obj
 0001:0006093b       __cfltcvt                  0046193b f   LIBCMT:cvt.obj
 0001:0006095c       __cfltcvt_l                0046195c f   LIBCMT:cvt.obj
 0001:000609e2       __cftoa_l                  004619e2 f   LIBCMT:cvt.obj
 0001:00060d3c       __cftoe                    00461d3c f   LIBCMT:cvt.obj
 0001:00060ea9       __cftoe_l                  00461ea9 f   LIBCMT:cvt.obj
 0001:0006105f       __cftof_l                  0046205f f   LIBCMT:cvt.obj
 0001:0006111e       __cftog_l                  0046211e f   LIBCMT:cvt.obj
 0001:0006121b       __cropzeros                0046221b f   LIBCMT:cvt.obj
 0001:0006122c       __cropzeros_l              0046222c f   LIBCMT:cvt.obj
 0001:000612aa       __fassign                  004622aa f   LIBCMT:cvt.obj
 0001:000612c2       __fassign_l                004622c2 f   LIBCMT:cvt.obj
 0001:00061302       __forcdecpt                00462302 f   LIBCMT:cvt.obj
 0001:00061313       __forcdecpt_l              00462313 f   LIBCMT:cvt.obj
 0001:00061385       __positive                 00462385 f   LIBCMT:cvt.obj
 0001:000613c7       __setdefaultprecision      004623c7 f   LIBCMT:fp8.obj
 0001:000613ee       _strcpy_s                  004623ee f   LIBCMT:strcpy_s.obj
 0001:00061443       _strnlen                   00462443 f   LIBCMT:strlen_s.obj
 0001:0006145e       ___wtomb_environ           0046245e f   LIBCMT:wtombenv.obj
 0001:000614eb       _calloc                    004624eb f   LIBCMT:calloc.obj
 0001:00061529       __mbsnbicoll               00462529 f   LIBCMT:mbsnbico.obj
 0001:00061541       __mbsnbicoll_l             00462541 f   LIBCMT:mbsnbico.obj
 0001:000615f5       ___addlocaleref            004625f5 f   LIBCMT:localref.obj
 0001:00061685       ___freetlocinfo            00462685 f   LIBCMT:localref.obj
 0001:000617df       ___removelocaleref         004627df f   LIBCMT:localref.obj
 0001:0006187a       ___updatetlocinfo          0046287a f   LIBCMT:localref.obj
 0001:000618f6       __updatetlocinfoEx_nolock  004628f6 f   LIBCMT:localref.obj
 0001:00061941       __isctype_l                00462941 f   LIBCMT:isctype.obj
 0001:000619f0       __freefls@4                004629f0 f   LIBCMT:tidtable.obj
 0001:00061b27       __getptd                   00462b27 f   LIBCMT:tidtable.obj
 0001:00061b3f       __getptd_noexit            00462b3f f   LIBCMT:tidtable.obj
 0001:00061bae       __initptd                  00462bae f   LIBCMT:tidtable.obj
 0001:00061c61       __mtinit                   00462c61 f   LIBCMT:tidtable.obj
 0001:00061cd7       __mtterm                   00462cd7 f   LIBCMT:tidtable.obj
 0001:00061cf4       __locterm                  00462cf4 f   LIBCMT:wsetloca.obj
 0001:00061d50       __CallSettingFrame@12      00462d50 f   LIBCMT:lowhelpr.obj
 0001:00061d77       __NLG_Return               00462d77     LIBCMT:lowhelpr.obj
 0001:00061d9c       ___DestructExceptionObject 00462d9c f   LIBCMT:frame.obj
 0001:00061e27       ??0bad_exception@std@@QAE@ABV01@@Z 00462e27 f i LIBCMT:frame.obj
 0001:00061e42       ??1bad_exception@std@@UAE@XZ 00462e42 f i LIBCMT:frame.obj
 0001:00061e4d       ??_Gbad_exception@std@@UAEPAXI@Z 00462e4d f i LIBCMT:frame.obj
 0001:00061e4d       ??_Ebad_exception@std@@UAEPAXI@Z 00462e4d f i LIBCMT:frame.obj
 0001:00062683       ___AdjustPointer           00463683 f   LIBCMT:frame.obj
 0001:000626a8       ___BuildCatchObject        004636a8 f   LIBCMT:frame.obj
 0001:00062736       ___BuildCatchObjectHelper  00463736 f   LIBCMT:frame.obj
 0001:000628bb       ___FrameUnwindFilter       004638bb f   LIBCMT:frame.obj
 0001:00062909       ___FrameUnwindToState      00463909 f   LIBCMT:frame.obj
 0001:000629e2       ___InternalCxxFrameHandler 004639e2 f   LIBCMT:frame.obj
 0001:00062ac1       ___TypeMatch               00463ac1 f   LIBCMT:frame.obj
 0001:00062b1e       __floor_default            00463b1e f   LIBCMT:floor.obj
 0001:00062bf1       ?_Type_info_dtor@type_info@@CAXPAV1@@Z 00463bf1 f   LIBCMT:typname.obj
 0001:00062c62       __set_abort_behavior       00463c62 f   LIBCMT:abort.obj
 0001:00062c81       _abort                     00463c81 f   LIBCMT:abort.obj
 0001:00062cc4       __msize                    00463cc4 f   LIBCMT:msize.obj
 0001:00062cf5       ___loctotime64_t           00463cf5 f   LIBCMT:dtoxtm64.obj
 0001:00062f59       ?__CxxUnhandledExceptionFilter@@YGJPAU_EXCEPTION_POINTERS@@@Z 00463f59 f   LIBCMT:unhandld.obj
 0001:00062f9a       ___CxxSetUnhandledExceptionFilter 00463f9a f   LIBCMT:unhandld.obj
 0001:00062fa8       __XcptFilter               00463fa8 f   LIBCMT:winxfltr.obj
 0001:00063103       __heap_init                00464103 f   LIBCMT:heapinit.obj
 0001:00063118       __setargv                  00464118 f   LIBCMT:stdargv.obj
 0001:00063345       __setenvp                  00464345 f   LIBCMT:stdenvp.obj
 0001:00063426       ___set_app_type            00464426 f   LIBCMT:errmode.obj
 0001:00063433       __set_error_mode           00464433 f   LIBCMT:errmode.obj
 0001:00063473       ___security_init_cookie    00464473 f   LIBCMT:gs_support.obj
 0001:0006350d       ___crtGetEnvironmentStringsA 0046450d f   LIBCMT:a_env.obj
 0001:000635a0       __trandisp1                004645a0 f   LIBCMT:87disp.obj
 0001:00063607       __trandisp2                00464607 f   LIBCMT:87disp.obj
 0001:00063693       __rttospopde               00464693     LIBCMT:87disp.obj
 0001:00063698       __rttospop                 00464698     LIBCMT:87disp.obj
 0001:0006369a       __rtnospop                 0046469a     LIBCMT:87disp.obj
 0001:0006369c       __rttosnpop                0046469c     LIBCMT:87disp.obj
 0001:0006369d       __rtnospopde               0046469d     LIBCMT:87disp.obj
 0001:000636a4       __rtzeropop                004646a4     LIBCMT:87disp.obj
 0001:000636a6       __rtzeronpop               004646a6     LIBCMT:87disp.obj
 0001:000636ab       __rtonepop                 004646ab     LIBCMT:87disp.obj
 0001:000636ad       __rtonenpop                004646ad     LIBCMT:87disp.obj
 0001:000636b2       __tosnan1                  004646b2     LIBCMT:87disp.obj
 0001:000636dd       __nosnan2                  004646dd     LIBCMT:87disp.obj
 0001:000636df       __tosnan2                  004646df     LIBCMT:87disp.obj
 0001:00063707       __nan2                     00464707     LIBCMT:87disp.obj
 0001:00063746       __rtindfpop                00464746     LIBCMT:87disp.obj
 0001:00063748       __rtindfnpop               00464748     LIBCMT:87disp.obj
 0001:00063759       __rttosnpopde              00464759     LIBCMT:87disp.obj
 0001:00063763       __rtchsifneg               00464763     LIBCMT:87disp.obj
 0001:00063770       __startTwoArgErrorHandling 00464770 f   LIBCMT:genexcep.obj
 0001:00063787       __startOneArgErrorHandling 00464787 f   LIBCMT:genexcep.obj
 0001:000637d0       __twoToTOS                 004647d0 f   LIBCMT:common.obj
 0001:000637e5       __load_CW                  004647e5 f   LIBCMT:common.obj
 0001:000637fc       __convertTOStoQNaN         004647fc f   LIBCMT:common.obj
 0001:00063815       __fload_withFB             00464815 f   LIBCMT:common.obj
 0001:00063858       __checkTOS_withFB          00464858 f   LIBCMT:common.obj
 0001:0006386e       __fast_exit                0046486e f   LIBCMT:common.obj
 0001:0006387b       __math_exit                0046487b f   LIBCMT:common.obj
 0001:000638a5       __check_overflow_exit      004648a5 f   LIBCMT:common.obj
 0001:000638b9       __check_range_exit         004648b9 f   LIBCMT:common.obj
 0001:00063960       __CIasin_pentium4          00464960 f   LIBCMT:asin_pentium4.obj
 0001:00063978       __asin_pentium4            00464978     LIBCMT:asin_pentium4.obj
 0001:00063ee0       __CIacos_pentium4          00464ee0 f   LIBCMT:acos_pentium4.obj
 0001:00063ef8       __acos_pentium4            00464ef8     LIBCMT:acos_pentium4.obj
 0001:0006445c       __fFATN2                   0046545c     LIBCMT:87triga.obj
 0001:000644ac       __rtpiby2                  004654ac     LIBCMT:87triga.obj
 0001:000644f0       __cintrindisp2             004654f0 f   LIBCMT:87cdisp.obj
 0001:0006452e       __cintrindisp1             0046552e f   LIBCMT:87cdisp.obj
 0001:0006456b       __ctrandisp2               0046556b f   LIBCMT:87cdisp.obj
 0001:000646fa       __ctrandisp1               004656fa f   LIBCMT:87cdisp.obj
 0001:0006472d       __fload                    0046572d f   LIBCMT:87cdisp.obj
 0001:00064770       __CIsin_pentium4           00465770 f   LIBCMT:sin_pentium4.obj
 0001:00064788       __sin_pentium4             00465788     LIBCMT:sin_pentium4.obj
 0001:00064940       __CIcos_pentium4           00465940 f   LIBCMT:cos_pentium4.obj
 0001:00064958       __cos_pentium4             00465958     LIBCMT:cos_pentium4.obj
 0001:00064af0       __CItan_pentium4           00465af0 f   LIBCMT:tan_pentium4.obj
 0001:00064b08       __tan_pentium4             00465b08     LIBCMT:tan_pentium4.obj
 0001:00064df2       __input_l                  00465df2 f   LIBCMT:input.obj
 0001:00065f0e       __filbuf                   00466f0e f   LIBCMT:_filbuf.obj
 0001:0006602f       __getbuf                   0046702f f   LIBCMT:_getbuf.obj
 0001:00066075       _memcpy_s                  00467075 f   LIBCMT:memcpy_s.obj
 0001:000660f4       __read                     004670f4 f   LIBCMT:read.obj
 0001:000661fc       __read_nolock              004671fc f   LIBCMT:read.obj
 0001:0006698b       __lseek                    0046798b f   LIBCMT:lseek.obj
 0001:00066a6d       __lseek_nolock             00467a6d f   LIBCMT:lseek.obj
 0001:00066adf       __lseeki64                 00467adf f   LIBCMT:lseeki64.obj
 0001:00066bdb       __lseeki64_nolock          00467bdb f   LIBCMT:lseeki64.obj
 0001:00066c4c       ___sys_errlist             00467c4c f   LIBCMT:syserr.obj
 0001:00066c52       ___sys_nerr                00467c52 f   LIBCMT:syserr.obj
 0001:00066c58       ___lock_fhandle            00467c58 f   LIBCMT:osfinfo.obj
 0001:00066ce4       __alloc_osfhnd             00467ce4 f   LIBCMT:osfinfo.obj
 0001:00066e89       __free_osfhnd              00467e89 f   LIBCMT:osfinfo.obj
 0001:00066f0f       __get_osfhandle            00467f0f f   LIBCMT:osfinfo.obj
 0001:00066f76       __set_osfhnd               00467f76 f   LIBCMT:osfinfo.obj
 0001:00066ff8       __unlock_fhandle           00467ff8 f   LIBCMT:osfinfo.obj
 0001:00067127       __wstat64i32               00468127 f   LIBCMT:wstati32.obj
 0001:000675ae       __spawnve                  004685ae f   LIBCMT:spawnve.obj
 0001:00067809       __spawnvpe                 00468809 f   LIBCMT:spawnvpe.obj
 0001:00067a79       __access_s                 00468a79 f   LIBCMT:access.obj
 0001:00067ac1       __isleadbyte_l             00468ac1 f i LIBCMT:_wctype.obj
 0001:00067af7       _isleadbyte                00468af7 f i LIBCMT:_wctype.obj
 0001:00067cf1       ___crtLCMapStringA         00468cf1 f   LIBCMT:a_map.obj
 0001:00067d35       __freea                    00468d35 f i LIBCMT:a_map.obj
 0001:00067d53       __fltin2                   00468d53 f   LIBCMT:cfin.obj
 0001:00067df8       ___strgtold12_l            00468df8 f   LIBCMT:strgtold.obj
 0001:00068580       ___raise_securityfailure   00469580 f   LIBCMT:gs_report.obj
 0001:000685bd       ___report_gsfailure        004695bd f   LIBCMT:gs_report.obj
 0001:000686b6       ___report_rangecheckfailure 004696b6 f   LIBCMT:gs_report.obj
 0001:000686c2       ___report_securityfailure  004696c2 f   LIBCMT:gs_report.obj
 0001:00068790       __getdrive                 00469790 f   LIBCMT:drive.obj
 0001:0006885d       __crt_debugger_hook        0046985d f   LIBCMT:dbghook.obj
 0001:00068865       __sopen_helper             00469865 f   LIBCMT:open.obj
 0001:0006892c       __sopen_nolock             0046992c f   LIBCMT:open.obj
 0001:00068978       __sopen_s                  00469978 f   LIBCMT:open.obj
 0001:00068996       __mbsnbcmp                 00469996 f   LIBCMT:mbsnbcmp.obj
 0001:000689ae       __mbsnbcmp_l               004699ae f   LIBCMT:mbsnbcmp.obj
 0001:00068ac3       __mbsnbicmp                00469ac3 f   LIBCMT:mbsnbicm.obj
 0001:00068adb       __mbsnbicmp_l              00469adb f   LIBCMT:mbsnbicm.obj
 0001:00068ca0       __global_unwind2           00469ca0 f   LIBCMT:exsup.obj
 0001:00068d05       __local_unwind2            00469d05 f   LIBCMT:exsup.obj
 0001:00068d89       __abnormal_termination     00469d89 f   LIBCMT:exsup.obj
 0001:00068dac       __NLG_Notify1              00469dac f   LIBCMT:exsup.obj
 0001:00068db5       __NLG_Notify               00469db5 f   LIBCMT:exsup.obj
 0001:00068dcc       __NLG_Dispatch             00469dcc     LIBCMT:exsup.obj
 0001:00068dcc       __NLG_Dispatch2            00469dcc     LIBCMT:exsup.obj
 0001:00068dd4       __NLG_Call                 00469dd4 f   LIBCMT:exsup.obj
 0001:00068dd6       __NLG_Return2              00469dd6     LIBCMT:exsup.obj
 0001:00068dd7       __isatty                   00469dd7 f   LIBCMT:isatty.obj
 0001:00068e2b       __wctomb_s_l               00469e2b f   LIBCMT:wctomb.obj
 0001:00068f4d       _wctomb_s                  00469f4d f   LIBCMT:wctomb.obj
 0001:00068f70       __aulldvrm                 00469f70 f   LIBCMT:ulldvrm.obj
 0001:00069005       __matherr                  0046a005 f   LIBCMT:matherr.obj
 0001:00069008       __frnd                     0046a008 f   LIBCMT:frnd.obj
 0001:0006901a       __errcode                  0046a01a f   LIBCMT:fpexcept.obj
 0001:0006904c       __except1                  0046a04c f   LIBCMT:fpexcept.obj
 0001:00069114       __handle_exc               0046a114 f   LIBCMT:fpexcept.obj
 0001:000692f0       __handle_qnan1             0046a2f0 f   LIBCMT:fpexcept.obj
 0001:00069340       __raise_exc                0046a340 f   LIBCMT:fpexcept.obj
 0001:00069361       __raise_exc_ex             0046a361 f   LIBCMT:fpexcept.obj
 0001:00069646       __set_errno_from_matherr   0046a646 f   LIBCMT:fpexcept.obj
 0001:00069673       __umatherr                 0046a673 f   LIBCMT:fpexcept.obj
 0001:00069711       __decomp                   0046a711 f   LIBCMT:util.obj
 0001:000697e3       __set_exp                  0046a7e3 f   LIBCMT:util.obj
 0001:0006980e       __sptype                   0046a80e f   LIBCMT:util.obj
 0001:0006986a       ___set_fpsr_sse2           0046a86a f   LIBCMT:fpctrl.obj
 0001:000698e0       __clrfp                    0046a8e0 f   LIBCMT:fpctrl.obj
 0001:000698ef       __ctrlfp                   0046a8ef f   LIBCMT:fpctrl.obj
 0001:00069918       __set_statfp               0046a918 f   LIBCMT:fpctrl.obj
 0001:0006996e       __statfp                   0046a96e f   LIBCMT:fpctrl.obj
 0001:0006997c       _realloc                   0046a97c f   LIBCMT:realloc.obj
 0001:00069a27       __recalloc                 0046aa27 f   LIBCMT:recalloc.obj
 0001:00069a90       __calloc_impl              0046aa90 f   LIBCMT:calloc_impl.obj
 0001:00069b0a       __mbtowc_l                 0046ab0a f   LIBCMT:mbtowc.obj
 0001:00069bfd       _mbtowc                    0046abfd f   LIBCMT:mbtowc.obj
 0001:00069c15       __putwch_nolock            0046ac15 f   LIBCMT:putwch.obj
 0001:00069c56       _wcscat_s                  0046ac56 f   LIBCMT:wcscat_s.obj
 0001:00069cc2       _wcscpy_s                  0046acc2 f   LIBCMT:wcscpy_s.obj
 0001:00069d1e       _wcslen                    0046ad1e f   LIBCMT:wcslen.obj
 0001:00069d37       _wcsncpy_s                 0046ad37 f   LIBCMT:wcsncpy_s.obj
 0001:00069df5       ___crtMessageBoxW          0046adf5 f   LIBCMT:crtmboxw.obj
 0001:00069fd7       __fptrap                   0046afd7 f   LIBCMT:crt0fp.obj
 0001:00069fe0       _strncpy_s                 0046afe0 f   LIBCMT:strncpy_s.obj
 0001:0006a084       _GetTableIndexFromLocaleName 0046b084 f   LIBCMT:winapinls.obj
 0001:0006a0d2       ___crtCompareStringEx      0046b0d2 f   LIBCMT:winapinls.obj
 0001:0006a11e       ___crtDownlevelLocaleNameToLCID 0046b11e f   LIBCMT:winapinls.obj
 0001:0006a148       ___crtLCMapStringEx        0046b148 f   LIBCMT:winapinls.obj
 0001:0006a194       ___wcsnicmp_ascii          0046b194 f   LIBCMT:winapinls.obj
 0001:0006a2ee       ___crtGetStringTypeA       0046b2ee f   LIBCMT:a_str.obj
 0001:0006a32c       __fptostr                  0046b32c f   LIBCMT:_fptostr.obj
 0001:0006a3dc       __atodbl_l                 0046b3dc f   LIBCMT:atodbl.obj
 0001:0006a468       __atoflt_l                 0046b468 f   LIBCMT:atodbl.obj
 0001:0006a4f4       ___dtold                   0046b4f4 f   LIBCMT:cfout.obj
 0001:0006a5ba       __fltout2                  0046b5ba f   LIBCMT:cfout.obj
 0001:0006a650       __alldvrm                  0046b650 f   LIBCMT:lldvrm.obj
 0001:0006a730       __aullshr                  0046b730 f   LIBCMT:ullshr.obj
 0001:0006a74f       __controlfp_s              0046b74f f   LIBCMT:contrlfp.obj
 0001:0006a7ac       ___crtsetenv               0046b7ac f   LIBCMT:setenv.obj
 0001:0006aaad       __strnicoll_l              0046baad f   LIBCMT:strnicol.obj
 0001:0006adfb       ___crtCompareStringA       0046bdfb f   LIBCMT:a_cmp.obj
 0001:0006ae3c       ___free_lconv_mon          0046be3c f   LIBCMT:initmon.obj
 0001:0006af38       ___free_lconv_num          0046bf38 f   LIBCMT:initnum.obj
 0001:0006af9f       ___free_lc_time            0046bf9f f   LIBCMT:inittime.obj
 0001:0006b31f       ____lc_codepage_func       0046c31f f   LIBCMT:initctyp.obj
 0001:0006b345       _wcsnlen                   0046c345 f   LIBCMT:wcslen_s.obj
 0001:0006b364       _wcspbrk                   0046c364 f   LIBCMT:wcspbrk.obj
 0001:0006b3a6       ?_ValidateExecute@@YAHP6GHXZ@Z 0046c3a6 f   LIBCMT:validate.obj
 0001:0006b3a6       ?_ValidateWrite@@YAHPAXI@Z 0046c3a6 f   LIBCMT:validate.obj
 0001:0006b3a6       ?_ValidateRead@@YAHPBXI@Z  0046c3a6 f   LIBCMT:validate.obj
 0001:0006b3b5       ___daylight                0046c3b5 f   LIBCMT:timeset.obj
 0001:0006b3bb       ___dstbias                 0046c3bb f   LIBCMT:timeset.obj
 0001:0006b3c1       ___timezone                0046c3c1 f   LIBCMT:timeset.obj
 0001:0006b3c7       ___tzname                  0046c3c7 f   LIBCMT:timeset.obj
 0001:0006b3cd       __get_daylight             0046c3cd f   LIBCMT:timeset.obj
 0001:0006b3f7       __get_dstbias              0046c3f7 f   LIBCMT:timeset.obj
 0001:0006b421       __get_timezone             0046c421 f   LIBCMT:timeset.obj
 0001:0006b44b       ___tzset                   0046c44b f   LIBCMT:tzset.obj
 0001:0006b49b       __isindst                  0046c49b f   LIBCMT:tzset.obj
 0001:0006bbf0       __allmul                   0046cbf0 f   LIBCMT:llmul.obj
 0001:0006bc7a       __ismbblead                0046cc7a f   LIBCMT:ismbbyte.obj
 0001:0006bc90       __87except                 0046cc90 f   LIBCMT:87except.obj
 0001:0006bd99       __fstat64i32               0046cd99 f   LIBCMT:fstati32.obj
 0001:0006c10f       __towlower_l               0046d10f f   LIBCMT:towlower.obj
 0001:0006c1c1       _towlower                  0046d1c1 f   LIBCMT:towlower.obj
 0001:0006c1d2       __wfullpath                0046d1d2 f   LIBCMT:wfullpat.obj
 0001:0006c35b       __wsopen_helper            0046d35b f   LIBCMT:wopen.obj
 0001:0006c422       __wsopen_nolock            0046d422 f   LIBCMT:wopen.obj
 0001:0006cb73       __wsopen_s                 0046db73 f   LIBCMT:wopen.obj
 0001:0006cb91       ___wdtoxmode               0046db91 f   LIBCMT:wstat.obj
 0001:0006cc53       _strcat_s                  0046dc53 f   LIBCMT:strcat_s.obj
 0001:0006ccb6       __dospawn                  0046dcb6 f   LIBCMT:dospawn.obj
 0001:0006cece       __cenvarg                  0046dece f   LIBCMT:cenvarg.obj
 0001:0006d297       __mbschr                   0046e297 f   LIBCMT:mbschr.obj
 0001:0006d2ac       __mbschr_l                 0046e2ac f   LIBCMT:mbschr.obj
 0001:0006d347       __mbsrchr                  0046e347 f   LIBCMT:mbsrchr.obj
 0001:0006d35c       __mbsrchr_l                0046e35c f   LIBCMT:mbsrchr.obj
 0001:0006d3eb       __getpath                  0046e3eb f   LIBCMT:getpath.obj
 0001:0006d476       __waccess_s                0046e476 f   LIBCMT:waccess.obj
 0001:0006d512       _iswctype                  0046e512 f   LIBCMT:iswctype.obj
 0001:0006d570       __alloca_probe_16          0046e570 f   LIBCMT:alloca16.obj
 0001:0006d586       __alloca_probe_8           0046e586     LIBCMT:alloca16.obj
 0001:0006d59c       __ld12tod                  0046e59c f   LIBCMT:intrncvt.obj
 0001:0006db0c       __ld12tof                  0046eb0c f   LIBCMT:intrncvt.obj
 0001:0006e07c       ___mtold12                 0046f07c f   LIBCMT:mantold.obj
 0001:0006e25e       _strnicmp                  0046f25e f   LIBCMT:strnicmp.obj
 0001:0006e25e       __strnicmp                 0046f25e f   LIBCMT:strnicmp.obj
 0001:0006e2c9       __strnicmp_l               0046f2c9 f   LIBCMT:strnicmp.obj
 0001:0006e378       ___termconout              0046f378 f   LIBCMT:initcon.obj
 0001:0006e38f       ___initconout              0046f38f f   LIBCMT:initcon.obj
 0001:0006e3ae       _$I10_OUTPUT               0046f3ae f   LIBCMT:x10fout.obj
 0001:0006ee1b       __control87                0046fe1b f i LIBCMT:ieee87.obj
 0001:0006f1b2       _strdup                    004701b2 f   LIBCMT:strdup.obj
 0001:0006f1b2       __strdup                   004701b2 f   LIBCMT:strdup.obj
 0001:0006f202       __wcsicmp                  00470202 f   LIBCMT:wcsicmp.obj
 0001:0006f295       __wcsicmp_l                00470295 f   LIBCMT:wcsicmp.obj
 0001:0006f370       __SEH_prolog4_GS           00470370 f   LIBCMT:sehprolg4gs.obj
 0001:0006f3b8       __SEH_epilog4_GS           004703b8 f   LIBCMT:sehprolg4gs.obj
 0001:0006f3c7       ___crtLCMapStringW         004703c7 f   LIBCMT:w_map.obj
 0001:0006f3f6       __wgetcwd                  004703f6 f   LIBCMT:wgetcwd.obj
 0001:0006f40b       __wgetdcwd                 0047040b f   LIBCMT:wgetcwd.obj
 0001:0006f546       __chsize_nolock            00470546 f   LIBCMT:chsize.obj
 0001:0006f6fa       __get_fmode                004706fa f   LIBCMT:setmode.obj
 0001:0006f724       __setmode_nolock           00470724 f   LIBCMT:setmode.obj
 0001:0006f7f1       _wcsrchr                   004707f1 f   LIBCMT:wcsrchr.obj
 0001:0006f897       __mbsnicmp                 00470897 f   LIBCMT:mbsnicmp.obj
 0001:0006f8af       __mbsnicmp_l               004708af f   LIBCMT:mbsnicmp.obj
 0001:0006fa50       ___ascii_strnicmp          00470a50 f   LIBCMT:_strnicm.obj
 0001:0006fab2       _glutInit@8                00470ab2 f   glut32:glut32.dll
 0001:0006fab8       _glutCreateWindow@4        00470ab8 f   glut32:glut32.dll
 0001:0006fabe       _RtlUnwind@16              00470abe f   kernel32:KERNEL32.dll
 0001:0006fac4       _IsProcessorFeaturePresent@4 00470ac4 f   kernel32:KERNEL32.dll
 0002:00000000       __imp__SetEndOfFile@4      00473000     kernel32:KERNEL32.dll
 0002:00000004       __imp__GetFileAttributesExW@12 00473004     kernel32:KERNEL32.dll
 0002:00000008       __imp__CreateProcessA@40   00473008     kernel32:KERNEL32.dll
 0002:0000000c       __imp__GetExitCodeProcess@8 0047300c     kernel32:KERNEL32.dll
 0002:00000010       __imp__WaitForSingleObject@8 00473010     kernel32:KERNEL32.dll
 0002:00000014       __imp__CreateFileW@28      00473014     kernel32:KERNEL32.dll
 0002:00000018       __imp__GetFullPathNameW@16 00473018     kernel32:KERNEL32.dll
 0002:0000001c       __imp__PeekNamedPipe@24    0047301c     kernel32:KERNEL32.dll
 0002:00000020       __imp__GetFileInformationByHandle@8 00473020     kernel32:KERNEL32.dll
 0002:00000024       __imp__GetTimeZoneInformation@4 00473024     kernel32:KERNEL32.dll
 0002:00000028       __imp__SetEnvironmentVariableA@8 00473028     kernel32:KERNEL32.dll
 0002:0000002c       __imp__GetStringTypeW@16   0047302c     kernel32:KERNEL32.dll
 0002:00000030       __imp__LCMapStringW@24     00473030     kernel32:KERNEL32.dll
 0002:00000034       __imp__CompareStringW@24   00473034     kernel32:KERNEL32.dll
 0002:00000038       __imp__LoadLibraryW@4      00473038     kernel32:KERNEL32.dll
 0002:0000003c       __imp__OutputDebugStringW@4 0047303c     kernel32:KERNEL32.dll
 0002:00000040       __imp__WriteConsoleW@20    00473040     kernel32:KERNEL32.dll
 0002:00000044       __imp__HeapReAlloc@16      00473044     kernel32:KERNEL32.dll
 0002:00000048       __imp__GetCurrentDirectoryW@8 00473048     kernel32:KERNEL32.dll
 0002:0000004c       __imp__FindFirstFileExW@24 0047304c     kernel32:KERNEL32.dll
 0002:00000050       __imp__FileTimeToLocalFileTime@8 00473050     kernel32:KERNEL32.dll
 0002:00000054       __imp__GetLastError@0      00473054     kernel32:KERNEL32.dll
 0002:00000058       __imp__QueryPerformanceCounter@4 00473058     kernel32:KERNEL32.dll
 0002:0000005c       __imp__QueryPerformanceFrequency@4 0047305c     kernel32:KERNEL32.dll
 0002:00000060       __imp__FreeLibrary@4       00473060     kernel32:KERNEL32.dll
 0002:00000064       __imp__GetProcAddress@8    00473064     kernel32:KERNEL32.dll
 0002:00000068       __imp__LoadLibraryA@4      00473068     kernel32:KERNEL32.dll
 0002:0000006c       __imp__LocalFree@4         0047306c     kernel32:KERNEL32.dll
 0002:00000070       __imp__FormatMessageA@28   00473070     kernel32:KERNEL32.dll
 0002:00000074       __imp__CloseHandle@4       00473074     kernel32:KERNEL32.dll
 0002:00000078       __imp__UnmapViewOfFile@4   00473078     kernel32:KERNEL32.dll
 0002:0000007c       __imp__MapViewOfFile@20    0047307c     kernel32:KERNEL32.dll
 0002:00000080       __imp__CreateFileMappingA@24 00473080     kernel32:KERNEL32.dll
 0002:00000084       __imp__GetFileSize@8       00473084     kernel32:KERNEL32.dll
 0002:00000088       __imp__CreateFileA@28      00473088     kernel32:KERNEL32.dll
 0002:0000008c       __imp__FindFirstFileA@8    0047308c     kernel32:KERNEL32.dll
 0002:00000090       __imp__FindNextFileA@8     00473090     kernel32:KERNEL32.dll
 0002:00000094       __imp__FindClose@4         00473094     kernel32:KERNEL32.dll
 0002:00000098       __imp__SetStdHandle@8      00473098     kernel32:KERNEL32.dll
 0002:0000009c       __imp__SetFilePointerEx@20 0047309c     kernel32:KERNEL32.dll
 0002:000000a0       __imp__GetSystemTimeAsFileTime@4 004730a0     kernel32:KERNEL32.dll
 0002:000000a4       __imp__GetCurrentProcessId@0 004730a4     kernel32:KERNEL32.dll
 0002:000000a8       __imp__GetModuleFileNameA@12 004730a8     kernel32:KERNEL32.dll
 0002:000000ac       __imp__GetProcessHeap@0    004730ac     kernel32:KERNEL32.dll
 0002:000000b0       __imp__HeapSize@12         004730b0     kernel32:KERNEL32.dll
 0002:000000b4       __imp__GetCurrentThreadId@0 004730b4     kernel32:KERNEL32.dll
 0002:000000b8       __imp__GetCPInfo@8         004730b8     kernel32:KERNEL32.dll
 0002:000000bc       __imp__GetOEMCP@0          004730bc     kernel32:KERNEL32.dll
 0002:000000c0       __imp__GetACP@0            004730c0     kernel32:KERNEL32.dll
 0002:000000c4       __imp__IsValidCodePage@4   004730c4     kernel32:KERNEL32.dll
 0002:000000c8       __imp__InterlockedIncrement@4 004730c8     kernel32:KERNEL32.dll
 0002:000000cc       __imp__LoadLibraryExW@12   004730cc     kernel32:KERNEL32.dll
 0002:000000d0       __imp__GetModuleFileNameW@12 004730d0     kernel32:KERNEL32.dll
 0002:000000d4       __imp__GetModuleHandleW@4  004730d4     kernel32:KERNEL32.dll
 0002:000000d8       __imp__TlsFree@4           004730d8     kernel32:KERNEL32.dll
 0002:000000dc       __imp__TlsSetValue@8       004730dc     kernel32:KERNEL32.dll
 0002:000000e0       __imp__TlsGetValue@4       004730e0     kernel32:KERNEL32.dll
 0002:000000e4       __imp__TlsAlloc@0          004730e4     kernel32:KERNEL32.dll
 0002:000000e8       __imp__TerminateProcess@8  004730e8     kernel32:KERNEL32.dll
 0002:000000ec       __imp__GetCurrentProcess@0 004730ec     kernel32:KERNEL32.dll
 0002:000000f0       __imp__SetLastError@4      004730f0     kernel32:KERNEL32.dll
 0002:000000f4       __imp__SetUnhandledExceptionFilter@4 004730f4     kernel32:KERNEL32.dll
 0002:000000f8       __imp__UnhandledExceptionFilter@4 004730f8     kernel32:KERNEL32.dll
 0002:000000fc       __imp__GetConsoleMode@8    004730fc     kernel32:KERNEL32.dll
 0002:00000100       __imp__GetConsoleCP@0      00473100     kernel32:KERNEL32.dll
 0002:00000104       __imp__WideCharToMultiByte@32 00473104     kernel32:KERNEL32.dll
 0002:00000108       __imp__WriteFile@20        00473108     kernel32:KERNEL32.dll
 0002:0000010c       __imp__FlushFileBuffers@4  0047310c     kernel32:KERNEL32.dll
 0002:00000110       __imp__Sleep@4             00473110     kernel32:KERNEL32.dll
 0002:00000114       __imp__GetStartupInfoW@4   00473114     kernel32:KERNEL32.dll
 0002:00000118       __imp__DeleteCriticalSection@4 00473118     kernel32:KERNEL32.dll
 0002:0000011c       __imp__GetFileType@4       0047311c     kernel32:KERNEL32.dll
 0002:00000120       __imp__GetStdHandle@4      00473120     kernel32:KERNEL32.dll
 0002:00000124       __imp__InitializeCriticalSectionAndSpinCount@8 00473124     kernel32:KERNEL32.dll
 0002:00000128       __imp__IsProcessorFeaturePresent@4 00473128     kernel32:KERNEL32.dll
 0002:0000012c       __imp__GetEnvironmentStringsW@0 0047312c     kernel32:KERNEL32.dll
 0002:00000130       __imp__IsDebuggerPresent@0 00473130     kernel32:KERNEL32.dll
 0002:00000134       __imp__GetDriveTypeW@4     00473134     kernel32:KERNEL32.dll
 0002:00000138       __imp__ReadFile@20         00473138     kernel32:KERNEL32.dll
 0002:0000013c       __imp__HeapFree@12         0047313c     kernel32:KERNEL32.dll
 0002:00000140       __imp__HeapAlloc@12        00473140     kernel32:KERNEL32.dll
 0002:00000144       __imp__GetCommandLineA@0   00473144     kernel32:KERNEL32.dll
 0002:00000148       __imp__RaiseException@16   00473148     kernel32:KERNEL32.dll
 0002:0000014c       __imp__FileTimeToSystemTime@8 0047314c     kernel32:KERNEL32.dll
 0002:00000150       __imp__SystemTimeToTzSpecificLocalTime@12 00473150     kernel32:KERNEL32.dll
 0002:00000154       __imp__FindFirstFileExA@24 00473154     kernel32:KERNEL32.dll
 0002:00000158       __imp__RtlUnwind@16        00473158     kernel32:KERNEL32.dll
 0002:0000015c       __imp__MultiByteToWideChar@24 0047315c     kernel32:KERNEL32.dll
 0002:00000160       __imp__AreFileApisANSI@0   00473160     kernel32:KERNEL32.dll
 0002:00000164       __imp__GetModuleHandleExW@12 00473164     kernel32:KERNEL32.dll
 0002:00000168       __imp__ExitProcess@4       00473168     kernel32:KERNEL32.dll
 0002:0000016c       __imp__InterlockedDecrement@4 0047316c     kernel32:KERNEL32.dll
 0002:00000170       __imp__DecodePointer@4     00473170     kernel32:KERNEL32.dll
 0002:00000174       __imp__EncodePointer@4     00473174     kernel32:KERNEL32.dll
 0002:00000178       __imp__LeaveCriticalSection@4 00473178     kernel32:KERNEL32.dll
 0002:0000017c       __imp__EnterCriticalSection@4 0047317c     kernel32:KERNEL32.dll
 0002:00000180       __imp__FreeEnvironmentStringsW@4 00473180     kernel32:KERNEL32.dll
 0002:00000184       __imp__SetFilePointer@16   00473184     kernel32:KERNEL32.dll
 0002:00000188       __imp__ReadConsoleW@20     00473188     kernel32:KERNEL32.dll
 0002:0000018c       \177KERNEL32_NULL_THUNK_DATA 0047318c     kernel32:KERNEL32.dll
 0002:00000190       __imp__glDeleteLists@8     00473190     opengl32:OPENGL32.dll
 0002:00000194       __imp__glArrayElement@4    00473194     opengl32:OPENGL32.dll
 0002:00000198       __imp__glDisableClientState@4 00473198     opengl32:OPENGL32.dll
 0002:0000019c       __imp__glDrawElements@16   0047319c     opengl32:OPENGL32.dll
 0002:000001a0       __imp__glPushClientAttrib@4 004731a0     opengl32:OPENGL32.dll
 0002:000001a4       __imp__glEnableClientState@4 004731a4     opengl32:OPENGL32.dll
 0002:000001a8       __imp__glColorPointer@16   004731a8     opengl32:OPENGL32.dll
 0002:000001ac       __imp__glNormalPointer@12  004731ac     opengl32:OPENGL32.dll
 0002:000001b0       __imp__glTexCoordPointer@16 004731b0     opengl32:OPENGL32.dll
 0002:000001b4       __imp__glVertexPointer@16  004731b4     opengl32:OPENGL32.dll
 0002:000001b8       __imp__glDrawArrays@12     004731b8     opengl32:OPENGL32.dll
 0002:000001bc       __imp__glPopClientAttrib@0 004731bc     opengl32:OPENGL32.dll
 0002:000001c0       __imp__glLineWidth@4       004731c0     opengl32:OPENGL32.dll
 0002:000001c4       __imp__glPushAttrib@4      004731c4     opengl32:OPENGL32.dll
 0002:000001c8       __imp__glPolygonMode@8     004731c8     opengl32:OPENGL32.dll
 0002:000001cc       __imp__glPopAttrib@0       004731cc     opengl32:OPENGL32.dll
 0002:000001d0       __imp__glColor4f@16        004731d0     opengl32:OPENGL32.dll
 0002:000001d4       __imp__glNormal3fv@4       004731d4     opengl32:OPENGL32.dll
 0002:000001d8       __imp__glTexCoord2fv@4     004731d8     opengl32:OPENGL32.dll
 0002:000001dc       __imp__glPushName@4        004731dc     opengl32:OPENGL32.dll
 0002:000001e0       __imp__glBegin@4           004731e0     opengl32:OPENGL32.dll
 0002:000001e4       __imp__glVertex3fv@4       004731e4     opengl32:OPENGL32.dll
 0002:000001e8       __imp__glEnd@0             004731e8     opengl32:OPENGL32.dll
 0002:000001ec       __imp__glLoadName@4        004731ec     opengl32:OPENGL32.dll
 0002:000001f0       __imp__glPopName@0         004731f0     opengl32:OPENGL32.dll
 0002:000001f4       __imp__glCallList@4        004731f4     opengl32:OPENGL32.dll
 0002:000001f8       __imp__glPopMatrix@0       004731f8     opengl32:OPENGL32.dll
 0002:000001fc       __imp__glPushMatrix@0      004731fc     opengl32:OPENGL32.dll
 0002:00000200       __imp__glPolygonOffset@8   00473200     opengl32:OPENGL32.dll
 0002:00000204       __imp__glPixelStorei@8     00473204     opengl32:OPENGL32.dll
 0002:00000208       __imp__glTexImage2D@36     00473208     opengl32:OPENGL32.dll
 0002:0000020c       __imp__glGetTexLevelParameteriv@16 0047320c     opengl32:OPENGL32.dll
 0002:00000210       __imp__glBlendFunc@8       00473210     opengl32:OPENGL32.dll
 0002:00000214       __imp__glLoadMatrixf@4     00473214     opengl32:OPENGL32.dll
 0002:00000218       __imp__glColorMaterial@8   00473218     opengl32:OPENGL32.dll
 0002:0000021c       __imp__glMaterialf@12      0047321c     opengl32:OPENGL32.dll
 0002:00000220       __imp__glMaterialfv@12     00473220     opengl32:OPENGL32.dll
 0002:00000224       __imp__glShadeModel@4      00473224     opengl32:OPENGL32.dll
 0002:00000228       __imp__glAlphaFunc@8       00473228     opengl32:OPENGL32.dll
 0002:0000022c       __imp__glGenTextures@8     0047322c     opengl32:OPENGL32.dll
 0002:00000230       __imp__glDeleteTextures@8  00473230     opengl32:OPENGL32.dll
 0002:00000234       __imp__glTexEnvi@12        00473234     opengl32:OPENGL32.dll
 0002:00000238       __imp__glTexParameteri@12  00473238     opengl32:OPENGL32.dll
 0002:0000023c       __imp__glBindTexture@8     0047323c     opengl32:OPENGL32.dll
 0002:00000240       __imp__glGetString@4       00473240     opengl32:OPENGL32.dll
 0002:00000244       __imp__glMatrixMode@4      00473244     opengl32:OPENGL32.dll
 0002:00000248       __imp__glLoadIdentity@0    00473248     opengl32:OPENGL32.dll
 0002:0000024c       __imp__wglGetCurrentContext@0 0047324c     opengl32:OPENGL32.dll
 0002:00000250       __imp__glEnable@4          00473250     opengl32:OPENGL32.dll
 0002:00000254       __imp__glDisable@4         00473254     opengl32:OPENGL32.dll
 0002:00000258       __imp__glColor4fv@4        00473258     opengl32:OPENGL32.dll
 0002:0000025c       \177OPENGL32_NULL_THUNK_DATA 0047325c     opengl32:OPENGL32.dll
 0002:00000260       __imp__timeGetTime@0       00473260     winmm:WINMM.dll
 0002:00000264       \177WINMM_NULL_THUNK_DATA  00473264     winmm:WINMM.dll
 0002:00000268       __imp__ssggraph            00473268     client:client.dll
 0002:0000026c       __imp_?GfImgWritePng@@YAHPAEPBDHH@Z 0047326c     client:client.dll
 0002:00000270       __imp_?GfImgReadPng@@YAPAEPBDPAH1M@Z 00473270     client:client.dll
 0002:00000274       \177client_NULL_THUNK_DATA 00473274     client:client.dll
 0002:00000278       __imp__glutInit@8          00473278     glut32:glut32.dll
 0002:0000027c       __imp__glutCreateWindow@4  0047327c     glut32:glut32.dll
 0002:00000280       \177glut32_NULL_THUNK_DATA 00473280     glut32:glut32.dll
 0002:00000284       __imp_?RtTrackGetWidth@@YAMPAUtrackSeg@@M@Z 00473284     robottools:robottools.dll
 0002:00000288       __imp_?RtTrackHeightL@@YAMPAUtTrkLocPos@@@Z 00473288     robottools:robottools.dll
 0002:0000028c       __imp_?RtTrackHeightG@@YAMPAUtrackSeg@@MM@Z 0047328c     robottools:robottools.dll
 0002:00000290       __imp_?RtTrackSideNormalG@@YAXPAUtrackSeg@@MMHPAUt3Dd@@@Z 00473290     robottools:robottools.dll
 0002:00000294       __imp_?RtTrackLocal2Global@@YAXPAUtTrkLocPos@@PAM1H@Z 00473294     robottools:robottools.dll
 0002:00000298       \177robottools_NULL_THUNK_DATA 00473298     robottools:robottools.dll
 0002:0000029c       __imp_?GfParmReadFile@@YAPAXPBDH@Z 0047329c     tgf:tgf.dll
 0002:000002a0       __imp_?GfParmListSeekNext@@YAHPAXPBD@Z 004732a0     tgf:tgf.dll
 0002:000002a4       __imp_?_tgf_win_strdup@@YAPADPBD@Z 004732a4     tgf:tgf.dll
 0002:000002a8       __imp_?GetLibDir@@YAPADXZ  004732a8     tgf:tgf.dll
 0002:000002ac       __imp_?GfParmGetStr@@YAPBDPAXPBD11@Z 004732ac     tgf:tgf.dll
 0002:000002b0       __imp_?_tgf_win_free@@YAXPAX@Z 004732b0     tgf:tgf.dll
 0002:000002b4       __imp_?_tgf_win_realloc@@YAPAXPAXI@Z 004732b4     tgf:tgf.dll
 0002:000002b8       __imp_?_tgf_win_calloc@@YAPAXII@Z 004732b8     tgf:tgf.dll
 0002:000002bc       __imp_?_tgf_win_malloc@@YAPAXI@Z 004732bc     tgf:tgf.dll
 0002:000002c0       __imp_?GfParmGetCurStr@@YAPBDPAXPBD11@Z 004732c0     tgf:tgf.dll
 0002:000002c4       __imp_?GfParmGetCurNum@@YAMPAXPBD11M@Z 004732c4     tgf:tgf.dll
 0002:000002c8       __imp_?GfParmGetEltNb@@YAHPAXPBD@Z 004732c8     tgf:tgf.dll
 0002:000002cc       __imp_?GfParmGetNum@@YAMPAXPBD11M@Z 004732cc     tgf:tgf.dll
 0002:000002d0       __imp_?GfParmListSeekFirst@@YAHPAXPBD@Z 004732d0     tgf:tgf.dll
 0002:000002d4       __imp_?GfParmListGetCurEltName@@YAPADPAXPBD@Z 004732d4     tgf:tgf.dll
 0002:000002d8       __imp_?GfOs@@3UtGfOs@@A    004732d8     tgf:tgf.dll
 0002:000002dc       __imp_?GfModLoad@@YAHIPADPAPAUModList@@@Z 004732dc     tgf:tgf.dll
 0002:000002e0       \177tgf_NULL_THUNK_DATA    004732e0     tgf:tgf.dll
 0002:000002e4       ___xc_a                    004732e4     LIBCMT:crt0init.obj
 0002:00000338       ___xc_z                    00473338     LIBCMT:crt0init.obj
 0002:0000033c       ___xi_a                    0047333c     LIBCMT:crt0init.obj
 0002:00000358       ___xi_z                    00473358     LIBCMT:crt0init.obj
 0002:0000035c       ___xp_a                    0047335c     LIBCMT:crt0init.obj
 0002:0000036c       ___xp_z                    0047336c     LIBCMT:crt0init.obj
 0002:00000370       ___xt_a                    00473370     LIBCMT:crt0init.obj
 0002:00000374       ___xt_z                    00473374     LIBCMT:crt0init.obj
 0002:00000380       ??_C@_01NOFIACDB@w?$AA@    00473380     ac3d.obj
 0002:00000384       ??_C@_0CA@JOGPNEMC@Failed?5to?5open?5?8?$CFs?8?5for?5writing?$AA@ 00473384     ac3d.obj
 0002:000003a4       ??_C@_06EKGINMHG@AC3Db?6?$AA@ 004733a4     ac3d.obj
 0002:000003b0       ??_C@_0GD@HLBALNPJ@MATERIAL?5?$CC?$CC?5rgb?50?44?50?44?50?44?5?5amb@ 004733b0     ac3d.obj
 0002:00000414       ??_C@_0O@KNAIOGCE@OBJECT?5world?6?$AA@ 00473414     ac3d.obj
 0002:00000424       ??_C@_08BJDHKDFP@kids?5?$CFd?6?$AA@ 00473424     ac3d.obj
 0002:00000430       ??_C@_0O@NLNACLCF@OBJECT?5group?6?$AA@ 00473430     ac3d.obj
 0002:00000440       ??_C@_0L@KJIMBMOM@name?5?$CC?$CFs?$CC?6?$AA@ 00473440     ac3d.obj
 0002:00000450       ??_C@_09GKILIECC@?$AN?$CFd?5Nodes?$AA@ 00473450     easymesh.obj
 0002:0000045c       ??_C@_0BL@BLHOEIMD@?6Resize?5MAX_NODES?4?4?4?5?$DO?5?$CFd?6?$AA@ 0047345c     easymesh.obj
 0002:00000478       ??_C@_0BF@DDBGOHMN@?6Don?8t?5Insert?5?$CFf?5?$CFf?6?$AA@ 00473478     easymesh.obj
 0002:00000490       ??_C@_0P@CMGDGGEB@?6Renum?5Nodes?0?5?$AA@ 00473490     easymesh.obj
 0002:000004a0       ??_C@_0M@DDOGKCG@Triangles?0?5?$AA@ 004734a0     easymesh.obj
 0002:000004ac       ??_C@_05KOEPHCJD@Sides?$AA@ 004734ac     easymesh.obj
 0002:000004b4       ??_C@_01EEMJAFIK@?6?$AA@   004734b4     easymesh.obj
 0002:000004b8       ??_C@_0P@IPLDPOHF@Segments?5?$DN?5?$CFd?6?$AA@ 004734b8     easymesh.obj
 0002:000004c8       ??_C@_0BH@DEKLOGLL@xmin?5?$DN?5?$CFf?5?5?5ymin?5?$DN?5?$CFf?6?$AA@ 004734c8     easymesh.obj
 0002:000004e0       ??_C@_0BH@HELAEDIJ@xmax?5?$DN?5?$CFf?5?5?5ymax?5?$DN?5?$CFf?6?$AA@ 004734e0     easymesh.obj
 0002:000004f8       ??_C@_0N@EAABCCHI@Chains?5?$DN?5?$CFd?6?$AA@ 004734f8     easymesh.obj
 0002:00000508       ??_C@_0CI@JLJKAII@Sorry?0?5cannot?5allocate?5enough?5me@ 00473508     easymesh.obj
 0002:00000530       ??_C@_0N@MDOLLMNC@OBJECT?5poly?6?$AA@ 00473530     easymesh.obj
 0002:00000540       ??_C@_0N@EODFGPAH@name?5?$CC?$CFs?$CFd?$CC?6?$AA@ 00473540     easymesh.obj
 0002:00000550       ??_C@_0O@MAIMEGKD@texture?5?$CC?$CFs?$CC?6?$AA@ 00473550     easymesh.obj
 0002:00000560       ??_C@_0M@PNMPJGNM@numvert?5?$CFd?6?$AA@ 00473560     easymesh.obj
 0002:0000056c       ??_C@_09BNFLLNNI@?$CFg?5?$CFg?5?$CFg?6?$AA@ 0047356c     easymesh.obj
 0002:00000578       ??_C@_0M@IFPNEBCI@numsurf?5?$CFd?6?$AA@ 00473578     easymesh.obj
 0002:00000584       ??_C@_0L@NDJBNEB@SURF?50x10?6?$AA@ 00473584     easymesh.obj
 0002:00000590       ??_C@_06DJLODFHA@mat?50?6?$AA@ 00473590     easymesh.obj
 0002:00000598       ??_C@_07LBAJLPBM@refs?53?6?$AA@ 00473598     easymesh.obj
 0002:000005a0       ??_C@_09OOEIDIIP@?$CFd?5?$CFf?5?$CFf?6?$AA@ 004735a0     easymesh.obj
 0002:000005ac       ??_C@_07FKNDOADK@kids?50?6?$AA@ 004735ac     easymesh.obj
 0002:000005b4       ??_C@_0N@HJLNLNPJ@Load?5Chains?6?$AA@ 004735b4     easymesh.obj
 0002:000005c4       ??_C@_0P@BJBOJHPA@GenerateMesh?3?5?$AA@ 004735c4     easymesh.obj
 0002:000005d4       ??_C@_07JGLLBAMO@right?0?5?$AA@ 004735d4     easymesh.obj
 0002:000005dc       ??_C@_06CAEALGPJ@left?0?5?$AA@ 004735dc     easymesh.obj
 0002:000005e4       ??_C@_0BA@PEKKBLFN@reverse?5order?0?5?$AA@ 004735e4     easymesh.obj
 0002:000005f4       ??_C@_0P@DMGDCEII@normal?5order?0?5?$AA@ 004735f4     easymesh.obj
 0002:00000604       ??_C@_09INEDMPEP@exterior?6?$AA@ 00473604     easymesh.obj
 0002:00000610       ??_C@_09EIKFBEDK@interior?6?$AA@ 00473610     easymesh.obj
 0002:0000061c       ??_C@_0BI@IJMPPKFL@Relief?3?5?$CFd?5vtx?0?5?$CFd?5seg?6?$AA@ 0047361c     easymesh.obj
 0002:00000634       ??_C@_0L@IIFCMILI@track?5step?$AA@ 00473634     easymesh.obj
 0002:00000640       ??_C@_0BL@BKIDJABK@Graphic?1Terrain?5Generation?$AA@ 00473640     easymesh.obj
 0002:0000065c       ??_C@_0O@OCLHEFHO@border?5margin?$AA@ 0047365c     easymesh.obj
 0002:0000066c       ??_C@_0M@KPAAJLPG@border?5step?$AA@ 0047366c     easymesh.obj
 0002:00000678       ??_C@_0O@INMBBOLA@border?5height?$AA@ 00473678     easymesh.obj
 0002:00000688       ??_C@_0L@CKDFMMGD@group?5size?$AA@ 00473688     easymesh.obj
 0002:00000694       ??_C@_05JOBLOEL@grass?$AA@ 00473694     easymesh.obj
 0002:0000069c       ??_C@_07IHELBNLD@surface?$AA@ 0047369c     easymesh.obj
 0002:000006a4       ??_C@_04PPBEGPNI@List?$AA@ 004736a4     easymesh.obj
 0002:000006ac       ??_C@_08NEAMABLN@Surfaces?$AA@ 004736ac     easymesh.obj
 0002:000006b8       ??_C@_08OBGMOMHH@?$CFs?1?$CFs?1?$CFs?$AA@ 004736b8     easymesh.obj
 0002:000006c4       ??_C@_05GFOLEBJA@?$CFs?1?$CFs?$AA@ 004736c4     easymesh.obj
 0002:000006cc       ??_C@_09BIPIFLNN@grass?4rgb?$AA@ 004736cc     easymesh.obj
 0002:000006d8       ??_C@_0N@PGAKMKPL@texture?5name?$AA@ 004736d8     easymesh.obj
 0002:000006e8       ??_C@_0N@LCKHAENC@texture?5size?$AA@ 004736e8     easymesh.obj
 0002:000006f8       ??_C@_0BD@OCAEIOFI@texture?5randomness?$AA@ 004736f8     easymesh.obj
 0002:0000070c       ??_C@_0M@CIBJIKHE@relief?5file?$AA@ 0047370c     easymesh.obj
 0002:00000718       ??_C@_0BA@GMOOFLEJ@tracks?1?$CFs?1?$CFs?1?$CFs?$AA@ 00473718     easymesh.obj
 0002:00000728       ??_C@_0O@GJHMELGL@elevation?5map?$AA@ 00473728     easymesh.obj
 0002:00000738       ??_C@_04LPDBAMOO@TERR?$AA@ 00473738     easymesh.obj
 0002:00000740       __real@0000000000000000    00473740     easymesh.obj
 0002:00000748       __real@3fd276c8b4395810    00473748     easymesh.obj
 0002:00000750       __real@3fe0000000000000    00473750     easymesh.obj
 0002:00000758       __real@3fe6666666666666    00473758     easymesh.obj
 0002:00000760       __real@3ff6666666666666    00473760     easymesh.obj
 0002:00000768       __real@4000000000000000    00473768     easymesh.obj
 0002:00000770       __real@4006666666666666    00473770     easymesh.obj
 0002:00000778       __real@4008000000000000    00473778     easymesh.obj
 0002:00000780       __real@4024000000000000    00473780     easymesh.obj
 0002:00000788       __real@4202a05f20000000    00473788     easymesh.obj
 0002:00000790       __real@c202a05f20000000    00473790     easymesh.obj
 0002:000007a0       __xmm@80000000000000008000000000000000 004737a0     easymesh.obj
 0002:000007b0       __xmm@80000000800000008000000080000000 004737b0     easymesh.obj
 0002:000007c8       ??_7ssgSimpleList@@6B@     004737c8     elevation.obj
 0002:00000800       ??_7ssgTextureArray@@6B@   00473800     elevation.obj
 0002:00000838       ??_7ssgSimpleStateArray@@6B@ 00473838     elevation.obj
 0002:00000870       ??_7ssgLoaderOptions@@6B@  00473870     elevation.obj
 0002:0000089c       ??_C@_0CK@BMCFPBHM@createState?$CI?$CJ?5did?5not?5return?5sim@ 0047389c     elevation.obj
 0002:000008cc       ??_7ssgLoaderOptionsEx@@6B@ 004738cc     elevation.obj
 0002:000008f8       ??_C@_0BK@JEFBMNI@Loading?5Elevation?5Map?5?$CFs?6?$AA@ 004738f8     elevation.obj
 0002:00000914       ??_C@_0BB@ODPLKANF@minimum?5altitude?$AA@ 00473914     elevation.obj
 0002:00000928       ??_C@_0BB@PGHAHECH@maximum?5altitude?$AA@ 00473928     elevation.obj
 0002:0000093c       ??_C@_07IFAJEEBJ@COLUMNS?$AA@ 0047393c     elevation.obj
 0002:00000944       ??_C@_0CG@FDCIJKPF@Generating?5Elevation?5Map?5?$CFs?5?$CI?$CFd?0@ 00473944     elevation.obj
 0002:0000096c       ??_C@_0BG@HCEJLPNL@Height?5of?5steps?5?$DN?5?$CFf?6?$AA@ 0047396c     elevation.obj
 0002:00000984       ??_C@_0CG@CGBDOHJ@tracks?1?$CFs?1?$CFs?$DLdata?1textures?$DLdata?1@ 00473984     elevation.obj
 0002:000009ac       ??_C@_0P@FOAIIFOL@?4?$DLtracks?1?$CFs?1?$CFs?$AA@ 004739ac     elevation.obj
 0002:000009bc       ??_C@_0BE@NLMKADOC@Could?5not?5load?5?$CFs?0?5?$AA@ 004739bc     elevation.obj
 0002:000009d0       ??_C@_0DD@NNJLMJCN@please?5generate?5it?5with?5?$CCtrackge@ 004739d0     elevation.obj
 0002:00000a04       ??_C@_07MBAIAPML@?$CF4d?$CF?$CF?5?$HM?$AA@ 00473a04     elevation.obj
 0002:00000a0c       ??_C@_09IDIDHEED@?$HM?5row?5?$CF4d?$AA@ 00473a0c     elevation.obj
 0002:00000a18       ??_C@_03BGEFFGAA@?$AN?$CFs?$AA@ 00473a18     elevation.obj
 0002:00000a20       __real@406fe00000000000    00473a20     elevation.obj
 0002:00000a28       __real@44800000            00473a28     elevation.obj
 0002:00000a2c       __real@c9742400            00473a2c     elevation.obj
 0002:00000a34       ??_C@_0DE@CMNGMBM@Terrain?5generator?5for?5tracks?5$Re@ 00473a34     maintrackgen.obj
 0002:00000a68       ??_C@_0EM@LHLICNKA@Usage?3?5trackgen?5?9c?5category?5?9n?5n@ 00473a68     maintrackgen.obj
 0002:00000ab4       ??_C@_0DO@DMAIDNF@?5?5?5?5?5?5?5?9c?5category?5?5?5?5?3?5track?5ca@ 00473ab4     maintrackgen.obj
 0002:00000af4       ??_C@_0CE@MIFBDGGL@?5?5?5?5?5?5?5?9n?5name?5?5?5?5?5?5?5?5?3?5track?5na@ 00473af4     maintrackgen.obj
 0002:00000b18       ??_C@_0CJ@JCEEAHJF@?5?5?5?5?5?5?5?9b?5?5?5?5?5?5?5?5?5?5?5?5?5?3?5draw?5bum@ 00473b18     maintrackgen.obj
 0002:00000b44       ??_C@_0CN@PPFPIIDF@?5?5?5?5?5?5?5?9r?5?5?5?5?5?5?5?5?5?5?5?5?5?3?5draw?5rac@ 00473b44     maintrackgen.obj
 0002:00000b78       ??_C@_0FK@CEDFAMPJ@?5?5?5?5?5?5?5?9B?5?5?5?5?5?5?5?5?5?5?5?5?5?3?5Don?8t?5us@ 00473b78     maintrackgen.obj
 0002:00000bd4       ??_C@_0DK@ILHNFNMM@?5?5?5?5?5?5?5?9a?5?5?5?5?5?5?5?5?5?5?5?5?5?3?5draw?5all@ 00473bd4     maintrackgen.obj
 0002:00000c10       ??_C@_0EC@PIMCGHJN@?5?5?5?5?5?5?5?9z?5?5?5?5?5?5?5?5?5?5?5?5?5?3?5Just?5cal@ 00473c10     maintrackgen.obj
 0002:00000c54       ??_C@_0DJ@CBABNBAM@?5?5?5?5?5?5?5?9s?5?5?5?5?5?5?5?5?5?5?5?5?5?3?5split?5th@ 00473c54     maintrackgen.obj
 0002:00000c90       ??_C@_0CD@ECLFOHCE@?5?5?5?5?5?5?5?9S?5?5?5?5?5?5?5?5?5?5?5?5?5?3?5split?5al@ 00473c90     maintrackgen.obj
 0002:00000cb4       ??_C@_0CP@IPOJMNJJ@?5?5?5?5?5?5?5?9E?5?$DMn?$DO?5?5?5?5?5?5?5?5?5?3?5save?5ele@ 00473cb4     maintrackgen.obj
 0002:00000ce4       ??_C@_0DD@PKACFCAE@?5?5?5?5?5?5?5?5?5?5?5?5?5?5?5?5?5?5?5?5?5?5?5?5?50?3?5all?5@ 00473ce4     maintrackgen.obj
 0002:00000d18       ??_C@_0DP@BGIGNNBJ@?5?5?5?5?5?5?5?5?5?5?5?5?5?5?5?5?5?5?5?5?5?5?5?5?51?3?5elev@ 00473d18     maintrackgen.obj
 0002:00000d58       ??_C@_0EI@GMABPAGI@?5?5?5?5?5?5?5?5?5?5?5?5?5?5?5?5?5?5?5?5?5?5?5?5?52?3?5elev@ 00473d58     maintrackgen.obj
 0002:00000da0       ??_C@_0CI@BGGDBPCA@?5?5?5?5?5?5?5?5?5?5?5?5?5?5?5?5?5?5?5?5?5?5?5?5?53?3?5trac@ 00473da0     maintrackgen.obj
 0002:00000dc8       ??_C@_0EA@EMKGGPMF@?5?5?5?5?5?5?5?5?5?5?5?5?5?5?5?5?5?5?5?5?5?5?5?5?54?3?5trac@ 00473dc8     maintrackgen.obj
 0002:00000e08       ??_C@_0EI@KBOECCGC@?5?5?5?5?5?5?5?9H?5?$DMnb?$DO?5?5?5?5?5?5?5?5?3?5nb?5of?5he@ 00473e08     maintrackgen.obj
 0002:00000e50       ??_C@_02JNAPBCPB@?9h?$AA@  00473e50     maintrackgen.obj
 0002:00000e54       ??_C@_02EJEOCNCO@?9v?$AA@  00473e54     maintrackgen.obj
 0002:00000e58       ??_C@_02EMMNKJLI@?9a?$AA@  00473e58     maintrackgen.obj
 0002:00000e5c       ??_C@_02OFPLGCCC@?9z?$AA@  00473e5c     maintrackgen.obj
 0002:00000e60       ??_C@_02GHOAPKHL@?9b?$AA@  00473e60     maintrackgen.obj
 0002:00000e64       ??_C@_02CNCCOICK@?9r?$AA@  00473e64     maintrackgen.obj
 0002:00000e68       ??_C@_02DEDJNJGL@?9s?$AA@  00473e68     maintrackgen.obj
 0002:00000e6c       ??_C@_02PCGENONJ@?9B?$AA@  00473e6c     maintrackgen.obj
 0002:00000e70       ??_C@_02KBLNPNMJ@?9S?$AA@  00473e70     maintrackgen.obj
 0002:00000e74       ??_C@_02MLFFLFHH@?9n?$AA@  00473e74     maintrackgen.obj
 0002:00000e78       ??_C@_02LNCFEIBO@?9E?$AA@  00473e78     maintrackgen.obj
 0002:00000e7c       ??_C@_02HOPLMLDK@?9c?$AA@  00473e7c     maintrackgen.obj
 0002:00000e80       ??_C@_02IILDGFD@?9H?$AA@   00473e80     maintrackgen.obj
 0002:00000e84       ??_C@_0BM@MOAKBIKE@tools?1trackgen?1trackgen?4xml?$AA@ 00473e84     maintrackgen.obj
 0002:00000ea0       ??_C@_02DKCKIIND@?$CFs?$AA@ 00473ea0     maintrackgen.obj
 0002:00000ea4       ??_C@_05BCJOPFFH@track?$AA@ 00473ea4     maintrackgen.obj
 0002:00000eac       ??_C@_07MMBCICBA@Modules?$AA@ 00473eac     maintrackgen.obj
 0002:00000eb4       ??_C@_03OCHKFGFI@dll?$AA@  00473eb4     maintrackgen.obj
 0002:00000eb8       ??_C@_0BG@BKCBLHAP@?$CFsmodules?1track?1?$CFs?4?$CFs?$AA@ 00473eb8     maintrackgen.obj
 0002:00000ed0       ??_C@_0CD@FKNLDAIA@Failed?5to?5find?5the?5track?5module?5@ 00473ed0     maintrackgen.obj
 0002:00000ef4       ??_C@_0CD@FGNGLKAH@Failed?5to?5init?5the?5track?5module?5@ 00473ef4     maintrackgen.obj
 0002:00000f18       ??_C@_0BE@FLDBEADJ@tracks?1?$CFs?1?$CFs?1?$CFs?4xml?$AA@ 00473f18     maintrackgen.obj
 0002:00000f2c       ??_C@_0BA@FFEAMCPH@Cannot?5find?5?$CFs?6?$AA@ 00473f2c     maintrackgen.obj
 0002:00000f3c       ??_C@_05OAAGBBLI@?$CFs?4ac?$AA@ 00473f3c     maintrackgen.obj
 0002:00000f44       ??_C@_08LIGMLEJE@trk?9bump?$AA@ 00473f44     maintrackgen.obj
 0002:00000f50       ??_C@_0N@OLLNPBPC@trk?9raceline?$AA@ 00473f50     maintrackgen.obj
 0002:00000f60       ??_C@_03OLJKBJHK@trk?$AA@  00473f60     maintrackgen.obj
 0002:00000f64       ??_C@_08PDBOKNHG@?$CFs?9?$CFs?4ac?$AA@ 00473f64     maintrackgen.obj
 0002:00000f70       ??_C@_03OMGEDIJL@msh?$AA@  00473f70     maintrackgen.obj
 0002:00000f74       ??_C@_0L@HJCOHKMI@?$CFs?9elv?4png?$AA@ 00473f74     maintrackgen.obj
 0002:00000f80       ??_C@_0M@PDFKDBPB@?$CFs?9elv2?4png?$AA@ 00473f80     maintrackgen.obj
 0002:00000f8c       ??_C@_0M@DIAGOCFE@?$CFs?9elv3?4png?$AA@ 00473f8c     maintrackgen.obj
 0002:00000f98       ??_C@_0M@CFADNCOM@?$CFs?9elv4?4png?$AA@ 00473f98     maintrackgen.obj
 0002:00000fac       ??_7myLoaderOptions@@6B@   00473fac     objects.obj
 0002:00000fd8       ??_C@_0M@CMKBHGBH@Object?5Maps?$AA@ 00473fd8     objects.obj
 0002:00000fe4       ??_C@_0M@KKBCLCK@random?5seed?$AA@ 00473fe4     objects.obj
 0002:00000ff0       ??_C@_0BK@JHCOAPK@tracks?1?$CFs?1?$CFs?$DLdata?1objects?$AA@ 00473ff0     objects.obj
 0002:0000100c       ??_C@_0CK@MOEEAALF@tracks?1?$CFs?1?$CFs?$DLdata?1objects?$DLdata?1t@ 0047400c     objects.obj
 0002:00001038       ??_C@_07PAINMLEO@Objects?$AA@ 00474038     objects.obj
 0002:00001040       ??_C@_05PEENBMOG@color?$AA@ 00474040     objects.obj
 0002:00001048       ??_C@_06IEOJBDIK@object?$AA@ 00474048     objects.obj
 0002:00001050       ??_C@_0BE@LKFAJBMK@Missing?5?$CFs?5in?5?$CFs?1?$CFs?$AA@ 00474050     objects.obj
 0002:00001064       ??_C@_06NLFCANPD@random?$AA@ 00474064     objects.obj
 0002:0000106b       ??_C@_00CNPNBAHC@?$AA@     0047406b     objects.obj
 0002:0000106c       ??_C@_0BB@CJBCKGJJ@orientation?5type?$AA@ 0047406c     objects.obj
 0002:00001080       ??_C@_0N@EGBGKEIG@delta?5height?$AA@ 00474080     objects.obj
 0002:00001090       ??_C@_0L@JNNHNJLC@delta?5vert?$AA@ 00474090     objects.obj
 0002:0000109c       ??_C@_03OFPLEBM@deg?$AA@   0047409c     objects.obj
 0002:000010a0       ??_C@_0M@KPMDGEHG@orientation?$AA@ 004740a0     objects.obj
 0002:000010ac       ??_C@_0L@KHDANFMK@SURF?50x30?6?$AA@ 004740ac     objects.obj
 0002:000010b8       ??_C@_05DPOBPKDB@obj?$CFd?$AA@ 004740b8     objects.obj
 0002:000010c0       ??_C@_09CENGIBBN@?$CFd?5?$CFg?5?$CFg?6?$AA@ 004740c0     objects.obj
 0002:000010cc       ??_C@_06BADFDICC@objg?$CFd?$AA@ 004740cc     objects.obj
 0002:000010d4       ??_C@_0L@JHEKJMNB@object?5map?$AA@ 004740d4     objects.obj
 0002:000010e0       ??_C@_0BK@FOPICDJA@Processing?5object?5map?5?$CFs?6?$AA@ 004740e0     objects.obj
 0002:000010fc       ??_C@_03GJLPFLNF@obj?$AA@  004740fc     objects.obj
 0002:00001100       ??_C@_05DIOAMJFE@Files?$AA@ 00474100     objects.obj
 0002:00001108       ??_C@_0M@OBPDCEFP@?$CFs?9?$CFs?9?$CFd?4ac?$AA@ 00474108     objects.obj
 0002:00001118       __real@3f00000000000000    00474118     objects.obj
 0002:00001120       __real@4076800000000000    00474120     objects.obj
 0002:00001140       __real@3e112e0be826d695    00474140     raceline.obj
 0002:00001148       __real@3f1a36e2eb1c432d    00474148     raceline.obj
 0002:00001150       __real@3ff0000000000000    00474150     raceline.obj
 0002:00001158       __real@3ff3333333333333    00474158     raceline.obj
 0002:00001160       __real@4089000000000000    00474160     raceline.obj
 0002:00001168       __real@bfc999999999999a    00474168     raceline.obj
 0002:00001174       ??_C@_08PHPHJILJ@interior?$AA@ 00474174     relief.obj
 0002:00001180       ??_C@_0BJ@CNPIFIGL@?6Loading?5relief?5file?5?$CFs?6?$AA@ 00474180     relief.obj
 0002:000011b0       ??_C@_09COGEDLPC@bump?5name?$AA@ 004741b0     track.obj
 0002:000011bc       ??_C@_0O@FFCKOPKO@raceline?5name?$AA@ 004741bc     track.obj
 0002:000011cc       ??_C@_0P@PLOKEJJE@tr?9asphalt?4rgb?$AA@ 004741cc     track.obj
 0002:000011dc       ??_C@_09GKMJPFNL@bump?5size?$AA@ 004741dc     track.obj
 0002:000011e8       ??_C@_0L@OJJGELPD@continuous?$AA@ 004741e8     track.obj
 0002:000011f4       ??_C@_0N@FNAJAKIL@texture?5type?$AA@ 004741f4     track.obj
 0002:00001204       ??_C@_03ICICOMAL@yes?$AA@  00474204     track.obj
 0002:00001208       ??_C@_0BL@CNELGGIG@texture?5link?5with?5previous?$AA@ 00474208     track.obj
 0002:00001224       ??_C@_02KAJCLHKP@no?$AA@   00474224     track.obj
 0002:00001228       ??_C@_0BK@BIFLFIEB@texture?5start?5on?5boundary?$AA@ 00474228     track.obj
 0002:00001244       ??_C@_06NHDEGECH@?$CFs?4rgb?$AA@ 00474244     track.obj
 0002:0000124c       ??_C@_0CB@PBCJEEIK@?$CL?$CL?$CL?$CL?$CL?$CL?$CL?$CL?$CL?$CL?$CL?$CL?5Track?5?$CL?$CL?$CL?$CL?$CL?$CL?$CL?$CL?$CL?$CL?$CL?$CL?6@ 0047424c     track.obj
 0002:00001270       ??_C@_0BA@POOCBDNM@name?5?5?5?5?5?5?$DN?5?$CFs?6?$AA@ 00474270     track.obj
 0002:00001280       ??_C@_0BA@FDPLGBPM@author?5?5?5?5?$DN?5?$CFs?6?$AA@ 00474280     track.obj
 0002:00001290       ??_C@_0BA@OOKCMJPL@filename?5?5?$DN?5?$CFs?6?$AA@ 00474290     track.obj
 0002:000012a0       ??_C@_0BA@FIGKCDIK@nseg?5?5?5?5?5?5?$DN?5?$CFd?6?$AA@ 004742a0     track.obj
 0002:000012b0       ??_C@_0BA@LEAOMEFN@version?5?5?5?$DN?5?$CFd?6?$AA@ 004742b0     track.obj
 0002:000012c0       ??_C@_0BA@KGBIDLAO@length?5?5?5?5?$DN?5?$CFf?6?$AA@ 004742c0     track.obj
 0002:000012d0       ??_C@_0BA@OBHCMPJB@width?5?5?5?5?5?$DN?5?$CFf?6?$AA@ 004742d0     track.obj
 0002:000012e0       ??_C@_0BA@DCKBBILA@pits?5?5?5?5?5?5?$DN?5?$CFd?6?$AA@ 004742e0     track.obj
 0002:000012f0       ??_C@_0BA@LMHCBE@XSize?5?5?5?5?5?$DN?5?$CFf?6?$AA@ 004742f0     track.obj
 0002:00001300       ??_C@_0BA@KONEODIF@YSize?5?5?5?5?5?$DN?5?$CFf?6?$AA@ 00474300     track.obj
 0002:00001310       ??_C@_0BA@IHBMFHHH@ZSize?5?5?5?5?5?$DN?5?$CFf?6?$AA@ 00474310     track.obj
 0002:00001320       ??_C@_0BA@DHDJHGKP@Delta?5X?5?5?5?$DN?5?$CFf?6?$AA@ 00474320     track.obj
 0002:00001330       ??_C@_0BA@NIPLBNJB@Delta?5Y?5?5?5?$DN?5?$CFf?6?$AA@ 00474330     track.obj
 0002:00001340       ??_C@_0BA@DDMMKGJC@Delta?5Z?5?5?5?$DN?5?$CFf?6?$AA@ 00474340     track.obj
 0002:00001350       ??_C@_0BF@CFHPEIEJ@Delta?5Ang?5?$DN?5?$CFf?5?$CI?$CFf?$CJ?6?$AA@ 00474350     track.obj
 0002:00001368       ??_C@_0N@ENOHKCIG@raceline?5ext?$AA@ 00474368     track.obj
 0002:00001378       ??_C@_0L@BGJCGHGC@Main?5Track?$AA@ 00474378     track.obj
 0002:00001384       ??_C@_0N@BPJKMCPM@raceline?5int?$AA@ 00474384     track.obj
 0002:00001394       ??_C@_0BE@MHBEPDHF@raceline?5widthscale?$AA@ 00474394     track.obj
 0002:000013a8       ??_C@_0BP@MJDDGNAD@?$DN?$DN?$DN?5Indices?5Array?5Size?5?5?5?$DN?5?$CFd?6?$AA@ 004743a8     track.obj
 0002:000013c8       ??_C@_0BP@EENPBPMD@?$DN?$DN?$DN?5Vertex?5Array?5Size?5?5?5?5?$DN?5?$CFd?6?$AA@ 004743c8     track.obj
 0002:000013e8       ??_C@_0BP@JKPMPMFI@?$DN?$DN?$DN?5Tex?5Coord?5Array?5Size?5?$DN?5?$CFd?6?$AA@ 004743e8     track.obj
 0002:00001408       ??_C@_04FKJEGGFF@tkMn?$AA@ 00474408     track.obj
 0002:00001410       ??_C@_0BO@BCONNGKG@?$DN?$DN?$DN?5Indices?5really?5used?5?$DN?5?$CFd?6?$AA@ 00474410     track.obj
 0002:00001430       ??_C@_05MOJMAGPC@t?$CFdRB?$AA@ 00474430     track.obj
 0002:00001438       ??_C@_04CHAGMKKG@tkRS?$AA@ 00474438     track.obj
 0002:00001440       ??_C@_05NICEIIII@t?$CFdLB?$AA@ 00474440     track.obj
 0002:00001448       ??_C@_04DBLOEENM@tkLS?$AA@ 00474448     track.obj
 0002:00001450       ??_C@_05JFKDHDDH@B?$CFdRt?$AA@ 00474450     track.obj
 0002:00001458       ??_C@_05IDBLPNEN@B?$CFdLt?$AA@ 00474458     track.obj
 0002:00001460       ??_C@_07DMMACGLA@turn?$CFdR?$AA@ 00474460     track.obj
 0002:00001468       ??_C@_07OIIBBJGP@turn?$CFdL?$AA@ 00474468     track.obj
 0002:00001470       ??_C@_04FGOEJNLI@TuMk?$AA@ 00474470     track.obj
 0002:00001478       ??_C@_09KACCMGJG@back?9sign?$AA@ 00474478     track.obj
 0002:00001484       ??_C@_0BM@NABBBBGL@?$CI?$CFf?0?5?$CFf?0?5?$CFf?$CJ?0?5?$CI?$CFf?0?5?$CFf?0?5?$CFf?$CJ?6?$AA@ 00474484     track.obj
 0002:000014a0       ??_C@_04OPOHOBJG@S0Bg?$AA@ 004744a0     track.obj
 0002:000014a8       ??_C@_06BJEFDACC@pylon1?$AA@ 004744a8     track.obj
 0002:000014b0       ??_C@_04FHFLIGPD@S1Bg?$AA@ 004744b0     track.obj
 0002:000014b8       ??_C@_04EFOOCJBN@S2Bg?$AA@ 004744b8     track.obj
 0002:000014c0       ??_C@_06DCGIGDOB@pylon2?$AA@ 004744c0     track.obj
 0002:000014c8       ??_C@_04PNFCEOHI@S3Bg?$AA@ 004744c8     track.obj
 0002:000014d0       ??_C@_04GAIFHGMB@S4Bg?$AA@ 004744d0     track.obj
 0002:000014d8       ??_C@_06CLHDFCKA@pylon3?$AA@ 004744d8     track.obj
 0002:000014e0       ??_C@_05KIDMHMDC@P?$CFdts?$AA@ 004744e0     track.obj
 0002:000014e8       ??_C@_0O@GNEIKLM@concrete2?4rgb?$AA@ 004744e8     track.obj
 0002:000014f8       ??_C@_0N@ICNCPMHG@concrete?4rgb?$AA@ 004744f8     track.obj
 0002:00001508       ??_C@_09MALOBAAJ@?$CFf?5?$CFf?5?$CFf?6?$AA@ 00474508     track.obj
 0002:00001514       ??_C@_06DECJIONE@TKMN?$CFd?$AA@ 00474514     track.obj
 0002:0000151c       ??_C@_04HGGBINEM@?$CFs?$CFd?$AA@ 0047451c     track.obj
 0002:00001524       ??_C@_0BG@JKCBOLHF@Calculation?5finished?6?$AA@ 00474524     track.obj
 0002:0000153c       __real@00000000            0047453c     track.obj
 0002:00001540       __real@3e4ccccd            00474540     track.obj
 0002:00001544       __real@3f800000            00474544     track.obj
 0002:00001548       __real@3fb999999999999a    00474548     track.obj
 0002:00001550       __real@400921fb54442d18    00474550     track.obj
 0002:00001558       __real@4018000000000000    00474558     track.obj
 0002:00001560       __real@401921fb54442d18    00474560     track.obj
 0002:00001568       __real@4020000000000000    00474568     track.obj
 0002:00001570       __real@4049000000000000    00474570     track.obj
 0002:00001578       __real@404ca5dc1a63c1f8    00474578     track.obj
 0002:00001580       __real@40a00000            00474580     track.obj
 0002:00001584       __real@41200000            00474584     track.obj
 0002:00001588       __real@c00921fb54442d18    00474588     track.obj
 0002:00001594       ??_C@_0BD@KJEKDPKE@File?5?$CFs?5not?5found?6?$AA@ 00474594     util.obj
 0002:000015a8       ??_C@_0BC@FECIOMAH@File?5Path?5was?5?$CFs?6?$AA@ 004745a8     util.obj
 0002:000015c0       ??_7error_category@std@@6B@ 004745c0     windowsspec.obj
 0002:000015dc       ??_7_Generic_error_category@std@@6B@ 004745dc     windowsspec.obj
 0002:000015f4       ??_C@_07DCLBNMLN@generic?$AA@ 004745f4     windowsspec.obj
 0002:000015fc       ??_C@_0O@BFJCFAAK@unknown?5error?$AA@ 004745fc     windowsspec.obj
 0002:00001610       ??_7_Iostream_error_category@std@@6B@ 00474610     windowsspec.obj
 0002:00001628       ??_C@_08LLGCOLLL@iostream?$AA@ 00474628     windowsspec.obj
 0002:00001634       ??_C@_0BG@PADBLCHM@iostream?5stream?5error?$AA@ 00474634     windowsspec.obj
 0002:00001650       ??_7_System_error_category@std@@6B@ 00474650     windowsspec.obj
 0002:00001668       ??_C@_06FHFOAHML@system?$AA@ 00474668     windowsspec.obj
 0002:00001670       ??_C@_0BL@EAICIBFH@loading?5windows?5module?5?$CFs?6?$AA@ 00474670     windowsspec.obj
 0002:0000168c       ??_C@_0BF@JAJBIBPG@LoadLibrary?5from?5?$CFs?6?$AA@ 0047468c     windowsspec.obj
 0002:000016a4       ??_C@_0BN@FCLKHLEI@modules?1graphic?1ssggraph?4dll?$AA@ 004746a4     windowsspec.obj
 0002:000016c4       ??_C@_0BF@DCIHFJEA@?$CFs?5loaded?5staticaly?6?$AA@ 004746c4     windowsspec.obj
 0002:000016dc       ??_C@_0BM@LJFGFKMN@LoadLibrary?5return?5from?5?$CFs?6?$AA@ 004746dc     windowsspec.obj
 0002:000016f8       ??_C@_0BJ@POLKLIHD@calling?5modInfo?5from?5?$CFs?6?$AA@ 004746f8     windowsspec.obj
 0002:00001714       ??_C@_0M@EGKAIGGP@?$DO?$DO?$DO?5?$CFs?5?$DO?$DO?$DO?6?$AA@ 00474714     windowsspec.obj
 0002:00001720       ??_C@_0CH@KGOHJPCL@windowsModLoad?3?5Module?3?5?$CFs?5not?5l@ 00474720     windowsspec.obj
 0002:00001748       ??_C@_0CI@NKFMGBO@windowsModLoad?3?5?4?4?4?5can?8t?5find?5p@ 00474748     windowsspec.obj
 0002:00001770       ??_C@_0CI@HJMJPBIM@windowsModLoad?3?5?4?4?4?5?5can?8t?5open?5@ 00474770     windowsspec.obj
 0002:00001798       ??_C@_0BK@JPINHGCO@windows?5module?5?$CFs?5loaded?6?$AA@ 00474798     windowsspec.obj
 0002:000017b4       ??_C@_0BF@GFEJDJKI@Request?5Info?5for?5?$CFs?6?$AA@ 004747b4     windowsspec.obj
 0002:000017cc       ??_C@_0CH@OGJAFPAB@windowsModInfo?3?5Module?3?5?$CFs?5not?5l@ 004747cc     windowsspec.obj
 0002:000017f4       ??_C@_0BJ@GIBDEGID@windowsModInfo?3?5?4?4?4?5?5?$CFd?6?$AA@ 004747f4     windowsspec.obj
 0002:00001810       ??_C@_08PDDNPIID@?$CFs?2?$CK?4dll?$AA@ 00474810     windowsspec.obj
 0002:0000181c       ??_C@_05BMGBEOOC@?$CFs?2?$CFs?$AA@ 0047481c     windowsspec.obj
 0002:00001824       ??_C@_0BD@PECAHIEA@?$DO?$DO?$DO?5?$CFs?5loaded?5?$DO?$DO?$DO?6?$AA@ 00474824     windowsspec.obj
 0002:00001838       ??_C@_0CM@FGKLJCLI@windowsModLoadDir?3?5Module?3?5?$CFs?5no@ 00474838     windowsspec.obj
 0002:00001864       ??_C@_0CM@CMLJEHFF@windowsModLoadDir?3?5?4?4?4?5?5can?8t?5fi@ 00474864     windowsspec.obj
 0002:00001890       ??_C@_06BNHEIDIH@?$CFs?2?$CK?4?$CK?$AA@ 00474890     windowsspec.obj
 0002:00001898       ??_C@_0BE@BPGNGELB@trying?5dir?5info?5?$CFs?6?$AA@ 00474898     windowsspec.obj
 0002:000018ac       ??_C@_04HLONOPDM@?4dll?$AA@ 004748ac     windowsspec.obj
 0002:000018b4       ??_C@_0N@KGFKAHK@?$CFs?1?$CFs?1?$CFs?4dll?$AA@ 004748b4     windowsspec.obj
 0002:000018c4       ??_C@_0CM@KFAHKML@windowsModInfoDir?3?5Module?3?5?$CFs?5no@ 004748c4     windowsspec.obj
 0002:000018f0       ??_C@_0CM@HAECKPCG@windowsModInfoDir?3?5?4?4?4?5?5can?8t?5fi@ 004748f0     windowsspec.obj
 0002:0000191c       ??_C@_0CL@BNGMGCOJ@windowsModInfoDir?3?5?4?4?4?5?5can?8t?5op@ 0047491c     windowsspec.obj
 0002:00001948       ??_C@_0BF@PCBEBGKK@?$DM?$DM?$DM?5?$CFs?5unloaded?5?$DM?$DM?$DM?6?$AA@ 00474948     windowsspec.obj
 0002:00001960       ??_C@_0P@GCOPHBGI@trying?5dir?5?$CFs?6?$AA@ 00474960     windowsspec.obj
 0002:00001970       ??_C@_01LFCBOECM@?4?$AA@   00474970     windowsspec.obj
 0002:00001974       ??_C@_02DJGKEECL@?4?4?$AA@ 00474974     windowsspec.obj
 0002:00001978       ??_C@_0BI@CFPLBAOH@invalid?5string?5position?$AA@ 00474978     windowsspec.obj
 0002:00001990       ??_C@_0BA@JFNIOLAK@string?5too?5long?$AA@ 00474990     windowsspec.obj
 0002:000019a8       __real@c000000000000000    004749a8     sg_vs2008_32:sgd.obj
 0002:000019b0       ??_C@_0ED@LKGOFPEJ@sgFrustum?3?5Can?8t?5support?5fields?5@ 004749b0     sg_vs2008_32:sgd.obj
 0002:000019f4       ??_C@_0DF@MFOAFILF@sgFrustum?3?5Can?8t?5support?5width?5o@ 004749f4     sg_vs2008_32:sgd.obj
 0002:00001a30       __real@3ee4f8b588e368f1    00474a30     sg_vs2008_32:sgd.obj
 0002:00001a40       __real@404ca5dc00000000    00474a40     sg_vs2008_32:sg.obj
 0002:00001a48       __real@3f91df46a0000000    00474a48     sg_vs2008_32:sg.obj
 0002:00001a50       __real@bf800000            00474a50     sg_vs2008_32:sg.obj
 0002:00001a54       ??_C@_0DD@OMGGIGK@sgFrustum?3?5Can?8t?5support?5depth?5o@ 00474a54     sg_vs2008_32:sg.obj
 0002:00001a88       __real@358637bd            00474a88     sg_vs2008_32:sg.obj
 0002:00001a8c       __real@42700000            00474a8c     sg_vs2008_32:sg.obj
 0002:00001a90       __real@42b40000            00474a90     sg_vs2008_32:sg.obj
 0002:00001a98       ??_C@_06LDNJCCPF@NoName?$AA@ 00474a98     ssg_vs2008_32:ssgBase.obj
 0002:00001aa0       ??_C@_0CM@NEJBBEND@SSG?3?5Can?8t?5clone?5abstract?5SSG?5cl@ 00474aa0     ssg_vs2008_32:ssgBase.obj
 0002:00001ad0       ??_7ssgBase@@6B@           00474ad0     ssg_vs2008_32:ssgBase.obj
 0002:00001b00       ??_C@_0BD@DHHKBCKH@?$CFs?5?5Userdata?5?$DN?5?$CFp?6?$AA@ 00474b00     ssg_vs2008_32:ssgBase.obj
 0002:00001b14       ??_C@_0P@KHDBIHPN@?$CFs?$CFs?3?5Name?$DN?$CFs?6?$AA@ 00474b14     ssg_vs2008_32:ssgBase.obj
 0002:00001b24       ??_C@_0BB@KPGNLEEC@?$CFs?5?5Name?5?$DN?5?$CC?$CFs?$CC?6?$AA@ 00474b24     ssg_vs2008_32:ssgBase.obj
 0002:00001b38       ??_C@_0BE@KPMDNDMK@?$CFs?$CFs?3?5Ref?5Count?$DN?$CFd?6?$AA@ 00474b38     ssg_vs2008_32:ssgBase.obj
 0002:00001b54       ??_7ssgVertexArray@@6B@    00474b54     ssg_vs2008_32:ssgSimpleList.obj
 0002:00001b8c       ??_7ssgNormalArray@@6B@    00474b8c     ssg_vs2008_32:ssgSimpleList.obj
 0002:00001bc4       ??_7ssgTexCoordArray@@6B@  00474bc4     ssg_vs2008_32:ssgSimpleList.obj
 0002:00001bfc       ??_7ssgColourArray@@6B@    00474bfc     ssg_vs2008_32:ssgSimpleList.obj
 0002:00001c34       ??_7ssgIndexArray@@6B@     00474c34     ssg_vs2008_32:ssgSimpleList.obj
 0002:00001c68       ??_C@_0BO@MPEBGECJ@?$CFs?5?5Size?5of?5items?5?$DN?5?$CFd?5bytes?6?$AA@ 00474c68     ssg_vs2008_32:ssgSimpleList.obj
 0002:00001c88       ??_C@_0BI@GDMCPGGO@?$CFs?5?5Total?5?$CD?5items?5?$DN?5?$CFd?6?$AA@ 00474c88     ssg_vs2008_32:ssgSimpleList.obj
 0002:00001ca0       ??_C@_0BJ@CNOBIOKM@?$CFs?5?5V?$CFd?$CJ?5?$HL?5?$CFf?0?5?$CFf?0?5?$CFf?5?$HN?6?$AA@ 00474ca0     ssg_vs2008_32:ssgSimpleList.obj
 0002:00001cbc       ??_C@_0BJ@EDPHJFDG@?$CFs?5?5N?$CFd?$CJ?5?$HL?5?$CFf?0?5?$CFf?0?5?$CFf?5?$HN?6?$AA@ 00474cbc     ssg_vs2008_32:ssgSimpleList.obj
 0002:00001cd8       ??_C@_0BB@DHIMKENE@?$CFs?5?5I?$CFd?$CJ?5?$HL?5?$CFd?5?$HN?6?$AA@ 00474cd8     ssg_vs2008_32:ssgSimpleList.obj
 0002:00001cec       ??_C@_0BJ@LOLODAKB@?$CFs?5?5T?$CFd?$CJ?5?$HL?5S?$DN?$CFf?0?5T?$DN?$CFf?5?$HN?6?$AA@ 00474cec     ssg_vs2008_32:ssgSimpleList.obj
 0002:00001d08       ??_C@_0CF@EJMDLOMN@?$CFs?5?5C?$CFd?$CJ?5?$HL?5R?$DN?$CFf?0?5G?$DN?$CFf?0?5B?$DN?$CFf?0?5A?$DN?$CF@ 00474d08     ssg_vs2008_32:ssgSimpleList.obj
 0002:00001d38       ??_7ssgTransformArray@@6B@ 00474d38     ssg_vs2008_32:ssg.obj
 0002:00001d70       ??_7ssgInterleavedArray@@6B@ 00474d70     ssg_vs2008_32:ssg.obj
 0002:00001da4       ??_C@_04HEBOFNAP@?4xpl?$AA@ 00474da4     ssg_vs2008_32:ssg.obj
 0002:00001dac       ??_C@_04JKBOHIOA@?4ngt?$AA@ 00474dac     ssg_vs2008_32:ssg.obj
 0002:00001db4       ??_C@_04IENJHAIL@?4sky?$AA@ 00474db4     ssg_vs2008_32:ssg.obj
 0002:00001dbc       ??_C@_04BEBJABLF@?4oav?$AA@ 00474dbc     ssg_vs2008_32:ssg.obj
 0002:00001dc4       ??_C@_04BPBFNKPH@?4ktx?$AA@ 00474dc4     ssg_vs2008_32:ssg.obj
 0002:00001dcc       ??_C@_04BACJNM@?4naz?$AA@  00474dcc     ssg_vs2008_32:ssg.obj
 0002:00001dd4       ??_C@_03NOLMPICL@?4r8?$AA@ 00474dd4     ssg_vs2008_32:ssg.obj
 0002:00001dd8       ??_C@_04COFFCEPO@?4pat?$AA@ 00474dd8     ssg_vs2008_32:ssg.obj
 0002:00001de0       ??_C@_04NBLJIELD@?4kaf?$AA@ 00474de0     ssg_vs2008_32:ssg.obj
 0002:00001de8       ??_C@_04GJAFODNG@?4jaf?$AA@ 00474de8     ssg_vs2008_32:ssg.obj
 0002:00001df0       ??_C@_04HLLAEMDI@?4iaf?$AA@ 00474df0     ssg_vs2008_32:ssg.obj
 0002:00001df8       ??_C@_04MDAMCLFN@?4haf?$AA@ 00474df8     ssg_vs2008_32:ssg.obj
 0002:00001e00       ??_C@_04JLGPDLAL@?4gaf?$AA@ 00474e00     ssg_vs2008_32:ssg.obj
 0002:00001e08       ??_C@_04CDNDFMGO@?4faf?$AA@ 00474e08     ssg_vs2008_32:ssg.obj
 0002:00001e10       ??_C@_04DBGGPDIA@?4eaf?$AA@ 00474e10     ssg_vs2008_32:ssg.obj
 0002:00001e18       ??_C@_04IJNKJEOF@?4daf?$AA@ 00474e18     ssg_vs2008_32:ssg.obj
 0002:00001e20       ??_C@_04BEANKMFM@?4caf?$AA@ 00474e20     ssg_vs2008_32:ssg.obj
 0002:00001e28       ??_C@_04KMLBMLDJ@?4baf?$AA@ 00474e28     ssg_vs2008_32:ssg.obj
 0002:00001e30       ??_C@_04LOAEGENH@?4aaf?$AA@ 00474e30     ssg_vs2008_32:ssg.obj
 0002:00001e38       ??_C@_04LALNEDJK@?49af?$AA@ 00474e38     ssg_vs2008_32:ssg.obj
 0002:00001e40       ??_C@_04IABCEPP@?48af?$AA@ 00474e40     ssg_vs2008_32:ssg.obj
 0002:00001e48       ??_C@_04FAGCDEKJ@?47af?$AA@ 00474e48     ssg_vs2008_32:ssg.obj
 0002:00001e50       ??_C@_04OINOFDMM@?46af?$AA@ 00474e50     ssg_vs2008_32:ssg.obj
 0002:00001e58       ??_C@_04PKGLPMCC@?45af?$AA@ 00474e58     ssg_vs2008_32:ssg.obj
 0002:00001e60       ??_C@_04ECNHJLEH@?44af?$AA@ 00474e60     ssg_vs2008_32:ssg.obj
 0002:00001e68       ??_C@_04NPAAKDPO@?43af?$AA@ 00474e68     ssg_vs2008_32:ssg.obj
 0002:00001e70       ??_C@_04GHLMMEJL@?42af?$AA@ 00474e70     ssg_vs2008_32:ssg.obj
 0002:00001e78       ??_C@_04HFAJGLHF@?41af?$AA@ 00474e78     ssg_vs2008_32:ssg.obj
 0002:00001e80       ??_C@_04MNLFAMBA@?40af?$AA@ 00474e80     ssg_vs2008_32:ssg.obj
 0002:00001e88       ??_C@_03LFHLAIJB@?4bw?$AA@ 00474e88     ssg_vs2008_32:ssg.obj
 0002:00001e8c       ??_C@_05BDFODFHM@?4inta?$AA@ 00474e8c     ssg_vs2008_32:ssg.obj
 0002:00001e94       ??_C@_04IBIHLNG@?4int?$AA@ 00474e94     ssg_vs2008_32:ssg.obj
 0002:00001e9c       ??_C@_05GBMNADKH@?4rgba?$AA@ 00474e9c     ssg_vs2008_32:ssg.obj
 0002:00001ea4       ??_C@_04JMEJCFBA@?4rgb?$AA@ 00474ea4     ssg_vs2008_32:ssg.obj
 0002:00001eac       ??_C@_04IBGELPJM@?4pcx?$AA@ 00474eac     ssg_vs2008_32:ssg.obj
 0002:00001eb4       ??_C@_04LJDDIHIK@?4bmp?$AA@ 00474eb4     ssg_vs2008_32:ssg.obj
 0002:00001ebc       ??_C@_04JCAPCJAP@?4tga?$AA@ 00474ebc     ssg_vs2008_32:ssg.obj
 0002:00001ec4       ??_C@_04IPGPBAO@?4mdl?$AA@ 00474ec4     ssg_vs2008_32:ssg.obj
 0002:00001ecc       ??_C@_04NMNBOHIM@?4asc?$AA@ 00474ecc     ssg_vs2008_32:ssg.obj
 0002:00001ed4       ??_C@_03KADFNGDB@?4iv?$AA@ 00474ed4     ssg_vs2008_32:ssg.obj
 0002:00001ed8       ??_C@_04CPPJJJDH@?4wrl?$AA@ 00474ed8     ssg_vs2008_32:ssg.obj
 0002:00001ee0       ??_C@_04GGFEBEAI@?4qhi?$AA@ 00474ee0     ssg_vs2008_32:ssg.obj
 0002:00001ee8       ??_C@_04LNPCDEAN@?4atg?$AA@ 00474ee8     ssg_vs2008_32:ssg.obj
 0002:00001ef0       ??_C@_04FLJEAFGB@?4off?$AA@ 00474ef0     ssg_vs2008_32:ssg.obj
 0002:00001ef8       ??_C@_02OCDOFION@?4m?$AA@  00474ef8     ssg_vs2008_32:ssg.obj
 0002:00001efc       ??_C@_06NFPKLKGO@?4strip?$AA@ 00474efc     ssg_vs2008_32:ssg.obj
 0002:00001f04       ??_C@_04FDPPLPOO@?4flt?$AA@ 00474f04     ssg_vs2008_32:ssg.obj
 0002:00001f0c       ??_C@_02NFILLOPJ@?4x?$AA@  00474f0c     ssg_vs2008_32:ssg.obj
 0002:00001f10       ??_C@_04CMMOIBNE@?4md2?$AA@ 00474f10     ssg_vs2008_32:ssg.obj
 0002:00001f18       ??_C@_04EADLMCJM@?4tri?$AA@ 00474f18     ssg_vs2008_32:ssg.obj
 0002:00001f20       ??_C@_04PACIOCLB@?4obj?$AA@ 00474f20     ssg_vs2008_32:ssg.obj
 0002:00001f28       ??_C@_04JKCNAMBK@?4dxf?$AA@ 00474f28     ssg_vs2008_32:ssg.obj
 0002:00001f30       ??_C@_04IDEELJOP@?4dof?$AA@ 00474f30     ssg_vs2008_32:ssg.obj
 0002:00001f38       ??_C@_04IKILEAAK@?4ase?$AA@ 00474f38     ssg_vs2008_32:ssg.obj
 0002:00001f40       ??_C@_03JJJDGBJN@?4ac?$AA@ 00474f40     ssg_vs2008_32:ssg.obj
 0002:00001f44       ??_C@_04OOHOIHAB@?43ds?$AA@ 00474f44     ssg_vs2008_32:ssg.obj
 0002:00001f4c       ??_C@_04ECKNLNJM@?4ssg?$AA@ 00474f4c     ssg_vs2008_32:ssg.obj
 0002:00001f54       ??_C@_0CP@JIKMKGJL@ssgInit?5called?5without?5a?5valid?5O@ 00474f54     ssg_vs2008_32:ssg.obj
 0002:00001f84       ??_C@_0BB@BGBAOEFN@ssgAxisTransform?$AA@ 00474f84     ssg_vs2008_32:ssg.obj
 0002:00001f98       ??_C@_07JPOHJBBF@ssgBase?$AA@ 00474f98     ssg_vs2008_32:ssg.obj
 0002:00001fa0       ??_C@_0L@CGBLIMLI@ssgTexture?$AA@ 00474fa0     ssg_vs2008_32:ssg.obj
 0002:00001fac       ??_C@_08PCLGADAH@ssgState?$AA@ 00474fac     ssg_vs2008_32:ssg.obj
 0002:00001fb8       ??_C@_0P@HOCPEPOJ@ssgSimpleState?$AA@ 00474fb8     ssg_vs2008_32:ssg.obj
 0002:00001fc8       ??_C@_0BB@GGPMCGPK@ssgStateSelector?$AA@ 00474fc8     ssg_vs2008_32:ssg.obj
 0002:00001fdc       ??_C@_09NBLPDHOB@ssgEntity?$AA@ 00474fdc     ssg_vs2008_32:ssg.obj
 0002:00001fe8       ??_C@_07JLDKJMPO@ssgLeaf?$AA@ 00474fe8     ssg_vs2008_32:ssg.obj
 0002:00001ff0       ??_C@_09KJCLKFBP@ssgVTable?$AA@ 00474ff0     ssg_vs2008_32:ssg.obj
 0002:00001ffc       ??_C@_0M@IOPFPOIH@ssgVtxTable?$AA@ 00474ffc     ssg_vs2008_32:ssg.obj
 0002:00002008       ??_C@_0M@EEBIBJGM@ssgVtxArray?$AA@ 00475008     ssg_vs2008_32:ssg.obj
 0002:00002014       ??_C@_09BPGLHNCB@ssgBranch?$AA@ 00475014     ssg_vs2008_32:ssg.obj
 0002:00002020       ??_C@_0M@CALDIHEE@ssgSelector?$AA@ 00475020     ssg_vs2008_32:ssg.obj
 0002:0000202c       ??_C@_0BB@BHFLOPPO@ssgRangeSelector?$AA@ 0047502c     ssg_vs2008_32:ssg.obj
 0002:00002040       ??_C@_0BB@HFKKHHCK@ssgTimedSelector?$AA@ 00475040     ssg_vs2008_32:ssg.obj
 0002:00002054       ??_C@_0BB@PJIPGGKB@ssgBaseTransform?$AA@ 00475054     ssg_vs2008_32:ssg.obj
 0002:00002068       ??_C@_0N@LELJAHH@ssgTransform?$AA@ 00475068     ssg_vs2008_32:ssg.obj
 0002:00002078       ??_C@_0M@DKPLMELB@ssgTexTrans?$AA@ 00475078     ssg_vs2008_32:ssg.obj
 0002:00002084       ??_C@_09EKHJLLCF@ssgCutout?$AA@ 00475084     ssg_vs2008_32:ssg.obj
 0002:00002090       ??_C@_07FJDNAIKA@ssgRoot?$AA@ 00475090     ssg_vs2008_32:ssg.obj
 0002:00002098       ??_C@_0O@PMIKDJNF@ssgSimpleList?$AA@ 00475098     ssg_vs2008_32:ssg.obj
 0002:000020a8       ??_C@_0P@LINMJEAP@ssgColourArray?$AA@ 004750a8     ssg_vs2008_32:ssg.obj
 0002:000020b8       ??_C@_0O@PGFOBHCA@ssgIndexArray?$AA@ 004750b8     ssg_vs2008_32:ssg.obj
 0002:000020c8       ??_C@_0BC@FIEBAHEI@ssgTransformArray?$AA@ 004750c8     ssg_vs2008_32:ssg.obj
 0002:000020dc       ??_C@_0BB@GNEKPNMC@ssgTexCoordArray?$AA@ 004750dc     ssg_vs2008_32:ssg.obj
 0002:000020f0       ??_C@_0P@BPBFFPF@ssgVertexArray?$AA@ 004750f0     ssg_vs2008_32:ssg.obj
 0002:00002100       ??_C@_0P@POPCNEHO@ssgNormalArray?$AA@ 00475100     ssg_vs2008_32:ssg.obj
 0002:00002110       ??_C@_0BE@FBIEPDHI@ssgInterleavedArray?$AA@ 00475110     ssg_vs2008_32:ssg.obj
 0002:00002128       ??_C@_0EH@NPCLHBEO@ssgCreateOfType?3?5Created?5object?5@ 00475128     ssg_vs2008_32:ssg.obj
 0002:00002170       ??_C@_0CP@GEMDPONM@ssgCreateOfType?3?5Got?5null?5object@ 00475170     ssg_vs2008_32:ssg.obj
 0002:000021a0       ??_C@_0CI@CKILEBIG@ssgCreateOfType?3?5Unrecognized?5ty@ 004751a0     ssg_vs2008_32:ssg.obj
 0002:000021c8       ??_C@_01CLKCMJKC@?5?$AA@   004751c8     ssg_vs2008_32:ssg.obj
 0002:000021d0       ??_C@_0CE@POIPFACO@ssgSimpleList?3?5Cannot?5resize?5arr@ 004751d0     ssg_vs2008_32:ssgTexture.obj
 0002:000021f8       ??_7ssgTexture@@6B@        004751f8     ssg_vs2008_32:ssgTexture.obj
 0002:0000222c       ??_C@_09EPKNGMMJ@?$CFs?$CFs?3?5?$CFs?6?$AA@ 0047522c     ssg_vs2008_32:ssgTexture.obj
 0002:00002244       ??_7ssgSimpleState@@6B@    00475244     ssg_vs2008_32:ssgSimpleState.obj
 0002:000022ec       ??_C@_0DD@LBMFPJFK@Illegal?5mode?5passed?5to?5ssgSimple@ 004752ec     ssg_vs2008_32:ssgSimpleState.obj
 0002:00002320       ??_C@_0DC@LCPPPHPF@Illegal?5mode?5passed?5to?5ssgSimple@ 00475320     ssg_vs2008_32:ssgSimpleState.obj
 0002:00002354       ??_C@_09OHBINFCB@LIGHTING?5?$AA@ 00475354     ssg_vs2008_32:ssgSimpleState.obj
 0002:00002360       ??_C@_0M@DPMPKKAH@ALPHA_TEST?5?$AA@ 00475360     ssg_vs2008_32:ssgSimpleState.obj
 0002:0000236c       ??_C@_06MAFCHHEP@BLEND?5?$AA@ 0047536c     ssg_vs2008_32:ssgSimpleState.obj
 0002:00002374       ??_C@_0BA@POMNEBFN@COLOR_MATERIAL?5?$AA@ 00475374     ssg_vs2008_32:ssgSimpleState.obj
 0002:00002384       ??_C@_09HKECODGO@CULLFACE?5?$AA@ 00475384     ssg_vs2008_32:ssgSimpleState.obj
 0002:00002390       ??_C@_0L@CEOHLLEC@TEXTURE2D?5?$AA@ 00475390     ssg_vs2008_32:ssgSimpleState.obj
 0002:0000239c       ??_C@_0BO@LGLCMIHH@?$CFs?5?5Emission?5?3?5?$CI?$CFf?0?$CFf?0?$CFf?0?$CFf?$CJ?6?$AA@ 0047539c     ssg_vs2008_32:ssgSimpleState.obj
 0002:000023bc       ??_C@_0BO@KGMMLJJA@?$CFs?5?5Specular?5?3?5?$CI?$CFf?0?$CFf?0?$CFf?0?$CFf?$CJ?6?$AA@ 004753bc     ssg_vs2008_32:ssgSimpleState.obj
 0002:000023dc       ??_C@_0BO@KFBJPIDO@?$CFs?5?5Diffuse?5?5?3?5?$CI?$CFf?0?$CFf?0?$CFf?0?$CFf?$CJ?6?$AA@ 004753dc     ssg_vs2008_32:ssgSimpleState.obj
 0002:000023fc       ??_C@_0BO@EDEIIBMG@?$CFs?5?5Ambient?5?5?3?5?$CI?$CFf?0?$CFf?0?$CFf?0?$CFf?$CJ?6?$AA@ 004753fc     ssg_vs2008_32:ssgSimpleState.obj
 0002:0000241c       ??_C@_0BH@PLBENKHL@?$CFs?5?5ColourMatMode?$DN?5?$CFs?6?$AA@ 0047541c     ssg_vs2008_32:ssgSimpleState.obj
 0002:00002434       ??_C@_05EHMBKEBF@?$DP?$DP?$DP?$DP?$DP?$AA@ 00475434     ssg_vs2008_32:ssgSimpleState.obj
 0002:0000243c       ??_C@_0M@KFBLOAFP@GL_EMISSION?$AA@ 0047543c     ssg_vs2008_32:ssgSimpleState.obj
 0002:00002448       ??_C@_0M@NHOOCHE@GL_SPECULAR?$AA@ 00475448     ssg_vs2008_32:ssgSimpleState.obj
 0002:00002454       ??_C@_0BH@JAOEGDGN@GL_AMBIENT_AND_DIFFUSE?$AA@ 00475454     ssg_vs2008_32:ssgSimpleState.obj
 0002:0000246c       ??_C@_0L@CPLHEHOK@GL_DIFFUSE?$AA@ 0047546c     ssg_vs2008_32:ssgSimpleState.obj
 0002:00002478       ??_C@_0L@JNOHPMPG@GL_AMBIENT?$AA@ 00475478     ssg_vs2008_32:ssgSimpleState.obj
 0002:00002484       ??_C@_0BH@GECNANGN@?$CFs?5?5AlphaClamp?5?5?5?$DN?5?$CFf?6?$AA@ 00475484     ssg_vs2008_32:ssgSimpleState.obj
 0002:0000249c       ??_C@_0BH@LKDAEHNO@?$CFs?5?5Shininess?5?5?5?5?$DN?5?$CFf?6?$AA@ 0047549c     ssg_vs2008_32:ssgSimpleState.obj
 0002:000024b4       ??_C@_0BH@EDFHLIMN@?$CFs?5?5Shade?5Model?5?5?$DN?5?$CFd?6?$AA@ 004754b4     ssg_vs2008_32:ssgSimpleState.obj
 0002:000024cc       ??_C@_0BJ@KOCDAGBE@?$CFs?5?5TexFilename?5?5?$DN?5?8?$CFs?8?6?$AA@ 004754cc     ssg_vs2008_32:ssgSimpleState.obj
 0002:000024e8       ??_C@_06PAOMPDJH@?$DMnone?$DO?$AA@ 004754e8     ssg_vs2008_32:ssgSimpleState.obj
 0002:000024f0       ??_C@_0BH@POKIPOLA@?$CFs?5?5TexHandle?5?5?5?5?$DN?5?$CFd?6?$AA@ 004754f0     ssg_vs2008_32:ssgSimpleState.obj
 0002:00002508       ??_C@_0BE@FCLDIPPO@?$CFs?5?5Enabled?5?5?5?5?5?5?$DN?5?$AA@ 00475508     ssg_vs2008_32:ssgSimpleState.obj
 0002:0000251c       ??_C@_0BE@HLEFNMOO@?$CFs?5?5Don?8t?5Care?5?5?5?$DN?5?$AA@ 0047551c     ssg_vs2008_32:ssgSimpleState.obj
 0002:00002534       ??_C@_01KMDKNFGN@?1?$AA@   00475534     ssg_vs2008_32:ssgLoad.obj
 0002:00002538       ??_C@_02HHAEMJFE@?2?1?$AA@ 00475538     ssg_vs2008_32:ssgLoad.obj
 0002:0000253c       ??_C@_0CE@GPKFIOLG@ssgAddModelFormat?3?5too?5many?5form@ 0047553c     ssg_vs2008_32:ssgLoad.obj
 0002:00002560       ??_C@_0CF@BAPOHDBK@ssgLoad?3?5Unrecognised?5file?5type?5@ 00475560     ssg_vs2008_32:ssgLoad.obj
 0002:00002588       ??_C@_0CN@JMMFCPE@ssgLoad?3?5Cannot?5determine?5file?5t@ 00475588     ssg_vs2008_32:ssgLoad.obj
 0002:000025b8       ??_C@_04POHPCBNL@refs?$AA@ 004755b8     ssg_vs2008_32:ssgLoadAC.obj
 0002:000025c0       ??_C@_03BFLBBCNI@mat?$AA@  004755c0     ssg_vs2008_32:ssgLoadAC.obj
 0002:000025c4       ??_C@_04HDKGFADE@SURF?$AA@ 004755c4     ssg_vs2008_32:ssgLoadAC.obj
 0002:000025cc       ??_C@_04NKNNLPPO@kids?$AA@ 004755cc     ssg_vs2008_32:ssgLoadAC.obj
 0002:000025d4       ??_C@_07NDMHMLLJ@numsurf?$AA@ 004755d4     ssg_vs2008_32:ssgLoadAC.obj
 0002:000025dc       ??_C@_07DDMKGDIF@numvert?$AA@ 004755dc     ssg_vs2008_32:ssgLoadAC.obj
 0002:000025e4       ??_C@_03BMGHOINI@url?$AA@  004755e4     ssg_vs2008_32:ssgLoadAC.obj
 0002:000025e8       ??_C@_03KCBANMCB@loc?$AA@  004755e8     ssg_vs2008_32:ssgLoadAC.obj
 0002:000025ec       ??_C@_03BHFFHIBL@rot?$AA@  004755ec     ssg_vs2008_32:ssgLoadAC.obj
 0002:000025f0       ??_C@_06CFCPLID@crease?$AA@ 004755f0     ssg_vs2008_32:ssgLoadAC.obj
 0002:000025f8       ??_C@_06PHJHHNLI@texoff?$AA@ 004755f8     ssg_vs2008_32:ssgLoadAC.obj
 0002:00002600       ??_C@_06ELDKPJHE@texrep?$AA@ 00475600     ssg_vs2008_32:ssgLoadAC.obj
 0002:00002608       ??_C@_07JDHEGGGP@texture?$AA@ 00475608     ssg_vs2008_32:ssgLoadAC.obj
 0002:00002610       ??_C@_04PJOLNDGD@data?$AA@ 00475610     ssg_vs2008_32:ssgLoadAC.obj
 0002:00002618       ??_C@_04MEMAJGDJ@name?$AA@ 00475618     ssg_vs2008_32:ssgLoadAC.obj
 0002:00002620       ??_C@_06IAMCMNFI@OBJECT?$AA@ 00475620     ssg_vs2008_32:ssgLoadAC.obj
 0002:00002628       ??_C@_08NCEIPHOL@MATERIAL?$AA@ 00475628     ssg_vs2008_32:ssgLoadAC.obj
 0002:00002638       ??_C@_0CO@OLCHAKCC@ac_to_gl?3?5Expected?5double?9quote?5@ 00475638     ssg_vs2008_32:ssgLoadAC.obj
 0002:00002668       ??_C@_0DA@BPNDLECG@ac_to_gl?3?5Mismatched?5double?9quot@ 00475668     ssg_vs2008_32:ssgLoadAC.obj
 0002:00002698       ??_C@_0CC@PJAKNJPI@ac_to_gl?3?5Unrecognised?5token?5?8?$CFs@ 00475698     ssg_vs2008_32:ssgLoadAC.obj
 0002:000026c0       __real@3fefae147ae147ae    004756c0     ssg_vs2008_32:ssgLoadAC.obj
 0002:000026c8       ??_C@_0BG@COBDPAEH@ac_to_gl?3?5MATERIAL?5?$CFs?$AA@ 004756c8     ssg_vs2008_32:ssgLoadAC.obj
 0002:000026e0       ??_C@_0CF@POCEKGBI@ac_to_gl?3?5Can?8t?5parse?5this?5MATER@ 004756e0     ssg_vs2008_32:ssgLoadAC.obj
 0002:00002708       ??_C@_0EJ@PPJFENOP@?$CFs?5rgb?5?$CFf?5?$CFf?5?$CFf?5amb?5?$CFf?5?$CFf?5?$CFf?5emi@ 00475708     ssg_vs2008_32:ssgLoadAC.obj
 0002:00002754       ??_C@_0CB@PEEJJKOK@ac_to_gl?3?5Illegal?5texrep?5record?4@ 00475754     ssg_vs2008_32:ssgLoadAC.obj
 0002:00002778       ??_C@_05KCDNKPCA@?$CFf?5?$CFf?$AA@ 00475778     ssg_vs2008_32:ssgLoadAC.obj
 0002:00002780       ??_C@_0CB@NFKMOBFG@ac_to_gl?3?5Illegal?5texoff?5record?4@ 00475780     ssg_vs2008_32:ssgLoadAC.obj
 0002:000027a4       ??_C@_0CA@CKINFFHK@ac_to_gl?3?5Illegal?5crease?5angle?4?$AA@ 004757a4     ssg_vs2008_32:ssgLoadAC.obj
 0002:000027c4       ??_C@_02NJPGOMH@?$CFf?$AA@ 004757c4     ssg_vs2008_32:ssgLoadAC.obj
 0002:000027c8       ??_C@_0BO@CIIGBCDJ@ac_to_gl?3?5Illegal?5rot?5record?4?$AA@ 004757c8     ssg_vs2008_32:ssgLoadAC.obj
 0002:000027e8       ??_C@_0BL@PNBJJOIP@?$CFf?5?$CFf?5?$CFf?5?$CFf?5?$CFf?5?$CFf?5?$CFf?5?$CFf?5?$CFf?$AA@ 004757e8     ssg_vs2008_32:ssgLoadAC.obj
 0002:00002804       ??_C@_0BO@INNLGEK@ac_to_gl?3?5Illegal?5loc?5record?4?$AA@ 00475804     ssg_vs2008_32:ssgLoadAC.obj
 0002:00002824       ??_C@_08OEKJENGB@?$CFf?5?$CFf?5?$CFf?$AA@ 00475824     ssg_vs2008_32:ssgLoadAC.obj
 0002:00002830       ??_C@_0CB@JKHKKIEJ@ac_to_gl?3?5Illegal?5vertex?5record?4@ 00475830     ssg_vs2008_32:ssgLoadAC.obj
 0002:00002854       ??_C@_0BO@OJHCBLGI@ac_to_gl?3?5Illegal?5ref?5record?4?$AA@ 00475854     ssg_vs2008_32:ssgLoadAC.obj
 0002:00002874       ??_C@_08KGIMEKBM@?$CFd?5?$CFf?5?$CFf?$AA@ 00475874     ssg_vs2008_32:ssgLoadAC.obj
 0002:00002880       ??_C@_0CH@EAGMGF@ssgLoadAC?3?5?8?$CFs?8?5is?5not?5in?5AC3D?5f@ 00475880     ssg_vs2008_32:ssgLoadAC.obj
 0002:000028a8       ??_C@_04GHNHFPAA@AC3D?$AA@ 004758a8     ssg_vs2008_32:ssgLoadAC.obj
 0002:000028b0       ??_C@_0CL@MKIDGHNP@ssgLoadAC?3?5Failed?5to?5open?5?8?$CFs?8?5f@ 004758b0     ssg_vs2008_32:ssgLoadAC.obj
 0002:000028dc       ??_C@_01KDCPPGHE@r?$AA@    004758dc     ssg_vs2008_32:ssgLoadAC.obj
 0002:000028e0       __real@42740000            004758e0     ssg_vs2008_32:ssgLoadAC.obj
 0002:000028ec       ??_7ssgBranch@@6B@         004758ec     ssg_vs2008_32:ssgBranch.obj
 0002:00002968       ??_C@_04OELPMFKG@?$CFs?5?5?$AA@ 00475968     ssg_vs2008_32:ssgBranch.obj
 0002:00002970       ??_C@_0CB@KODIMJFG@?$CFs?5?5BSphere?5?5R?$DN?$CFg?0?5C?$DN?$CI?$CFg?0?$CFg?0?$CFg?$CJ?6@ 00475970     ssg_vs2008_32:ssgBranch.obj
 0002:00002994       ??_C@_0BH@LFCJJEGO@?$CFs?5?5BSphere?5is?5Empty?4?6?$AA@ 00475994     ssg_vs2008_32:ssgBranch.obj
 0002:000029ac       ??_C@_0CK@BBOEKHPG@Ref?5count?5doesn?8t?5tally?5with?5par@ 004759ac     ssg_vs2008_32:ssgBranch.obj
 0002:000029d8       ??_C@_0BB@GKMNLLBH@?$CFs?5?5Num?5Kids?$DN?$CFd?6?$AA@ 004759d8     ssg_vs2008_32:ssgBranch.obj
 0002:000029f4       ??_7ssgRoot@@6B@           004759f4     ssg_vs2008_32:ssgRoot.obj
 0002:00002a84       __real@42340000            00475a84     ssg_vs2008_32:ssgContext.obj
 0002:00002a88       __real@49742400            00475a88     ssg_vs2008_32:ssgContext.obj
 0002:00002a90       __real@3fd0000000000000    00475a90     ssg_vs2008_32:ssgContext.obj
 0002:00002a98       __real@4010000000000000    00475a98     ssg_vs2008_32:ssgContext.obj
 0002:00002aa0       __real@3c23d70a            00475aa0     ssg_vs2008_32:ssgContext.obj
 0002:00002aa4       __real@461c4000            00475aa4     ssg_vs2008_32:ssgContext.obj
 0002:00002aac       ??_C@_0CF@HJJIOCEE@ssgLoadXPlaneObj?3?5invalid?5line?0?5@ 00475aac     ssg_vs2008_32:ssgLoadXPlaneObj.obj
 0002:00002ad4       ??_C@_0CL@PNDDKAML@ssgLoadXPlaneObj?3?5Error?5reading?5@ 00475ad4     ssg_vs2008_32:ssgLoadXPlaneObj.obj
 0002:00002b00       ??_C@_06OOABJBHO@?$CFd?$CFd?$CFd?$AA@ 00475b00     ssg_vs2008_32:ssgLoadXPlaneObj.obj
 0002:00002b08       ??_C@_06DLPGJKHM@?$CFf?$CFf?$CFf?$AA@ 00475b08     ssg_vs2008_32:ssgLoadXPlaneObj.obj
 0002:00002b10       ??_C@_0DF@JMIPJING@ssgLoadXPlaneObj?3?5unexpected?5EOF@ 00475b10     ssg_vs2008_32:ssgLoadXPlaneObj.obj
 0002:00002b48       ??_C@_0DA@EPKNNJJH@ssgLoadXPlaneObj?3?5Version?52?5not?5@ 00475b48     ssg_vs2008_32:ssgLoadXPlaneObj.obj
 0002:00002b78       ??_C@_0DH@BMKKCEK@ssgLoadXPlaneObj?3?5unexpected?5EOF@ 00475b78     ssg_vs2008_32:ssgLoadXPlaneObj.obj
 0002:00002bb0       ??_C@_0DG@JKEMJGGD@ssgLoadXPlaneObj?3?5invalid?5header@ 00475bb0     ssg_vs2008_32:ssgLoadXPlaneObj.obj
 0002:00002be8       ??_C@_0CD@EPHBBHEE@ssgLoadXPlaneObj?3?5expected?5heade@ 00475be8     ssg_vs2008_32:ssgLoadXPlaneObj.obj
 0002:00002c0c       ??_C@_0DD@HFBIFBHE@ssgLoadXPlaneObj?3?5Failed?5to?5open@ 00475c0c     ssg_vs2008_32:ssgLoadXPlaneObj.obj
 0002:00002c48       ?ssgFsTexPalette@@3QBEB    00475c48     ssg_vs2008_32:ssgLoadMDL_BGLTexture.obj
 0002:00003048       ??_C@_0CF@IICDJIMB@ssgLoadTexture?3?5Failed?5to?5load?5?8@ 00476048     ssg_vs2008_32:ssgLoadMDL_BGLTexture.obj
 0002:00003070       ??_C@_02JDPG@rb?$AA@       00476070     ssg_vs2008_32:ssgLoadMDL_BGLTexture.obj
 0002:00003078       ??_C@_0DH@FCPNPAGA@ssgLoadTexture?3?5Can?8t?5work?5with?5@ 00476078     ssg_vs2008_32:ssgLoadSGI.obj
 0002:000030b0       ??_C@_0BE@LFHLIBHC@?$CFs?3?5Bad?5swabbing?$DP?$CB?$DP?$AA@ 004760b0     ssg_vs2008_32:ssgLoadSGI.obj
 0002:000030c4       ??_C@_0CF@MDDAAPCA@?$CFs?3?5Unrecognised?5magic?5number?50x@ 004760c4     ssg_vs2008_32:ssgLoadSGI.obj
 0002:000030ec       ??_C@_0CD@CFFNOAAP@ssgLoadTexture?3?5?8?$CFs?8?5is?5corrupte@ 004760ec     ssg_vs2008_32:ssgLoadSGI.obj
 0002:00003110       ??_C@_0DB@LGBNLKAK@ssgSGIHeader?3?3?3?5Failed?5to?5open?5?8@ 00476110     ssg_vs2008_32:ssgLoadSGI.obj
 0002:00003148       ??_C@_0DG@CFIKJJHH@ssgLoadTexture?3?5Failed?5to?5open?5f@ 00476148     ssg_vs2008_32:ssgLoadPCX.obj
 0002:00003180       ??_C@_0DO@MALGLIJP@ssgLoadTexture?3?5?8?$CFs?8?5?9?5unsupport@ 00476180     ssg_vs2008_32:ssgLoadPCX.obj
 0002:000031c0       ??_C@_0FC@JLHGGCAC@ssgLoadTexture?3?5?8?$CFs?8?5?9?5Height?5do@ 004761c0     ssg_vs2008_32:ssgLoadPCX.obj
 0002:00003218       ??_C@_0FA@LBHIBPMC@ssgLoadTexture?3?5?8?$CFs?8?5?9?5Width?5doe@ 00476218     ssg_vs2008_32:ssgLoadPCX.obj
 0002:00003268       ??_C@_0L@KMAOPGMM@_trans?4pcx?$AA@ 00476268     ssg_vs2008_32:ssgLoadPCX.obj
 0002:00003274       ??_C@_0DD@HLFPKBNJ@ssgLoadTexture?3?5?8?$CFs?8?5?9?5PCX?5files@ 00476274     ssg_vs2008_32:ssgLoadPCX.obj
 0002:000032ac       ??_C@_0DA@OOKONBDM@ssgLoadTexture?3?5Can?8t?5load?5?$CFd?5bp@ 004762ac     ssg_vs2008_32:ssgLoadBMP.obj
 0002:000032dc       ??_C@_0BG@IIFENHEJ@Premature?5EOF?5in?5?8?$CFs?8?$AA@ 004762dc     ssg_vs2008_32:ssgLoadBMP.obj
 0002:000032f4       ??_C@_0DB@LALABENP@ssgLoadTexture?3?5Failed?5to?5open?5?8@ 004762f4     ssg_vs2008_32:ssgLoadBMP.obj
 0002:00003328       ??_C@_0DB@PGNENLGG@ssgLoadTexture?3?5Failed?5to?5load?5?8@ 00476328     ssg_vs2008_32:ssgLoadBMP.obj
 0002:0000335c       ??_C@_0P@ODLDAFJD@ssgLoadTexture?$AA@ 0047635c     ssg_vs2008_32:ssgLoadBMP.obj
 0002:00003370       ??_C@_0DE@PKONNNKL@SSG?3?5OpenGL?5will?5not?5accept?5a?5do@ 00476370     ssg_vs2008_32:ssgLoadTexture.obj
 0002:000033a4       ??_C@_0CD@EKAOKKPP@Map?5is?5not?5a?5power?9of?9two?5in?5siz@ 004763a4     ssg_vs2008_32:ssgLoadTexture.obj
 0002:000033c8       ??_C@_0CA@IICOLDCN@GL_ARB_texture_non_power_of_two?$AA@ 004763c8     ssg_vs2008_32:ssgLoadTexture.obj
 0002:000033e8       ??_C@_0CG@LIOKDKJJ@ssgAddTextureFormat?3?5too?5many?5fo@ 004763e8     ssg_vs2008_32:ssgLoadTexture.obj
 0002:00003410       ??_C@_0HL@INKGCFML@Couldn?8t?5convert?5texture?5?8?$CFs?8?4?5D@ 00476410     ssg_vs2008_32:ssgLoadTexture.obj
 0002:0000348c       ??_C@_0BG@LFAGCIEG@?$CFs?5?9verbose?5?$CFs?5sgi?3?$CFs?$AA@ 0047648c     ssg_vs2008_32:ssgLoadTexture.obj
 0002:000034a4       ??_C@_09OLIDDJCM@imconvert?$AA@ 004764a4     ssg_vs2008_32:ssgLoadTexture.obj
 0002:000034b0       ??_C@_0CC@GOMBHNPM@Can?8t?5find?5the?5texture?5file?5?8?$CFs?8@ 004764b0     ssg_vs2008_32:ssgLoadTexture.obj
 0002:000034d4       ??_C@_0CL@NPALNLDC@There?5is?5no?5extension?5in?5the?5tex@ 004764d4     ssg_vs2008_32:ssgLoadTexture.obj
 0002:00003500       ??_C@_0DE@GEKAIOHF@ssgLoadTexture?3?5Cannot?5determine@ 00476500     ssg_vs2008_32:ssgLoadTexture.obj
 0002:00003538       ??_C@_0CF@NGBMNCFH@ssgLoadTGA?3?5?8?$CFs?8?5is?5not?5a?5TGA?5im@ 00476538     ssg_vs2008_32:ssgLoadTGA.obj
 0002:00003560       ??_C@_0CB@BLMFFFNF@ssgLoadTGA?3?5RLE?5unpack?5problems?4@ 00476560     ssg_vs2008_32:ssgLoadTGA.obj
 0002:00003584       ??_C@_0BA@GPJKDOAD@ssgLoadTGA?3?5?$CFs?4?$AA@ 00476584     ssg_vs2008_32:ssgLoadTGA.obj
 0002:00003594       ??_C@_0BH@CHGNDCAL@Unexpected?5end?5of?5file?$AA@ 00476594     ssg_vs2008_32:ssgLoadTGA.obj
 0002:000035ac       ??_C@_0L@BHPPDFMA@Read?5error?$AA@ 004765ac     ssg_vs2008_32:ssgLoadTGA.obj
 0002:000035b8       ??_C@_0CJ@BMKMEMDP@ssgLoadTGA?3?5Loading?5?8?$CFs?8?0?5?$CFs?5?$CFdx@ 004765b8     ssg_vs2008_32:ssgLoadTGA.obj
 0002:000035e4       ??_C@_09BNFDBJDM@grayscale?$AA@ 004765e4     ssg_vs2008_32:ssgLoadTGA.obj
 0002:000035f0       ??_C@_03ICFFBAI@RGB?$AA@   004765f0     ssg_vs2008_32:ssgLoadTGA.obj
 0002:000035f4       ??_C@_08OMBDDLKJ@colormap?$AA@ 004765f4     ssg_vs2008_32:ssgLoadTGA.obj
 0002:00003600       ??_C@_04GNJGCPCL@?5RLE?$AA@ 00476600     ssg_vs2008_32:ssgLoadTGA.obj
 0002:00003608       ??_C@_0DE@IMDALECK@ssgLoadTGA?3?5Unsupported?5depth?5?$CFd@ 00476608     ssg_vs2008_32:ssgLoadTGA.obj
 0002:0000363c       ??_C@_0CL@HCLHLOMB@ssgLoadTGA?3?5Unsupported?5colormap@ 0047663c     ssg_vs2008_32:ssgLoadTGA.obj
 0002:00003668       ??_C@_0CL@LDOMDMCM@ssgLoadTGA?3?5Failed?5to?5read?5heade@ 00476668     ssg_vs2008_32:ssgLoadTGA.obj
 0002:00003694       ??_C@_0CN@CGMLKOCG@ssgLoadTGA?3?5Failed?5to?5open?5?8?$CFs?8?5@ 00476694     ssg_vs2008_32:ssgLoadTGA.obj
 0002:000036c4       ??_C@_0N@NIKIOEFG@UNKNOWN?50xFF?$AA@ 004766c4     ssg_vs2008_32:ssgLoadMDL.obj
 0002:000036d4       ??_C@_0N@PDIFLHJF@UNKNOWN?50xFE?$AA@ 004766d4     ssg_vs2008_32:ssgLoadMDL.obj
 0002:000036e4       ??_C@_0N@OKJOIGNE@UNKNOWN?50xFD?$AA@ 004766e4     ssg_vs2008_32:ssgLoadMDL.obj
 0002:000036f4       ??_C@_0N@KFNPBABD@UNKNOWN?50xFC?$AA@ 004766f4     ssg_vs2008_32:ssgLoadMDL.obj
 0002:00003704       ??_C@_0N@LMMECBFC@UNKNOWN?50xFB?$AA@ 00476704     ssg_vs2008_32:ssgLoadMDL.obj
 0002:00003714       ??_C@_0N@JHOJHCJB@UNKNOWN?50xFA?$AA@ 00476714     ssg_vs2008_32:ssgLoadMDL.obj
 0002:00003724       ??_C@_0N@HAAPIBGP@UNKNOWN?50xF9?$AA@ 00476724     ssg_vs2008_32:ssgLoadMDL.obj
 0002:00003734       ??_C@_0N@GJBELACO@UNKNOWN?50xF8?$AA@ 00476734     ssg_vs2008_32:ssgLoadMDL.obj
 0002:00003744       ??_C@_0N@OOIMKMOB@UNKNOWN?50xF7?$AA@ 00476744     ssg_vs2008_32:ssgLoadMDL.obj
 0002:00003754       ??_C@_0N@PHJHJNKA@UNKNOWN?50xF6?$AA@ 00476754     ssg_vs2008_32:ssgLoadMDL.obj
 0002:00003764       ??_C@_0N@NMLKMOGD@UNKNOWN?50xF5?$AA@ 00476764     ssg_vs2008_32:ssgLoadMDL.obj
 0002:00003774       ??_C@_0N@MFKBPPCC@UNKNOWN?50xF4?$AA@ 00476774     ssg_vs2008_32:ssgLoadMDL.obj
 0002:00003784       ??_C@_0N@IKOAGJOF@UNKNOWN?50xF3?$AA@ 00476784     ssg_vs2008_32:ssgLoadMDL.obj
 0002:00003794       ??_C@_0N@JDPLFIKE@UNKNOWN?50xF2?$AA@ 00476794     ssg_vs2008_32:ssgLoadMDL.obj
 0002:000037a4       ??_C@_0N@LINGALGH@UNKNOWN?50xF1?$AA@ 004767a4     ssg_vs2008_32:ssgLoadMDL.obj
 0002:000037b4       ??_C@_0N@KBMNDKCG@UNKNOWN?50xF0?$AA@ 004767b4     ssg_vs2008_32:ssgLoadMDL.obj
 0002:000037c4       ??_C@_0N@NKOOFKAP@UNKNOWN?50xEF?$AA@ 004767c4     ssg_vs2008_32:ssgLoadMDL.obj
 0002:000037d4       ??_C@_0N@PBMDAJMM@UNKNOWN?50xEE?$AA@ 004767d4     ssg_vs2008_32:ssgLoadMDL.obj
 0002:000037e4       ??_C@_0N@OINIDIIN@UNKNOWN?50xED?$AA@ 004767e4     ssg_vs2008_32:ssgLoadMDL.obj
 0002:000037f4       ??_C@_0N@KHJJKOEK@UNKNOWN?50xEC?$AA@ 004767f4     ssg_vs2008_32:ssgLoadMDL.obj
 0002:00003804       ??_C@_0N@LOICJPAL@UNKNOWN?50xEB?$AA@ 00476804     ssg_vs2008_32:ssgLoadMDL.obj
 0002:00003814       ??_C@_0N@JFKPMMMI@UNKNOWN?50xEA?$AA@ 00476814     ssg_vs2008_32:ssgLoadMDL.obj
 0002:00003824       ??_C@_0N@HCEJDPDG@UNKNOWN?50xE9?$AA@ 00476824     ssg_vs2008_32:ssgLoadMDL.obj
 0002:00003834       ??_C@_0N@GLFCAOHH@UNKNOWN?50xE8?$AA@ 00476834     ssg_vs2008_32:ssgLoadMDL.obj
 0002:00003844       ??_C@_0N@OMMKBCLI@UNKNOWN?50xE7?$AA@ 00476844     ssg_vs2008_32:ssgLoadMDL.obj
 0002:00003854       ??_C@_0N@PFNBCDPJ@UNKNOWN?50xE6?$AA@ 00476854     ssg_vs2008_32:ssgLoadMDL.obj
 0002:00003864       ??_C@_0N@NOPMHADK@UNKNOWN?50xE5?$AA@ 00476864     ssg_vs2008_32:ssgLoadMDL.obj
 0002:00003874       ??_C@_0N@MHOHEBHL@UNKNOWN?50xE4?$AA@ 00476874     ssg_vs2008_32:ssgLoadMDL.obj
 0002:00003884       ??_C@_0N@IIKGNHLM@UNKNOWN?50xE3?$AA@ 00476884     ssg_vs2008_32:ssgLoadMDL.obj
 0002:00003894       ??_C@_0N@JBLNOGPN@UNKNOWN?50xE2?$AA@ 00476894     ssg_vs2008_32:ssgLoadMDL.obj
 0002:000038a4       ??_C@_0N@LKJALFDO@UNKNOWN?50xE1?$AA@ 004768a4     ssg_vs2008_32:ssgLoadMDL.obj
 0002:000038b4       ??_C@_0N@KDILIEHP@UNKNOWN?50xE0?$AA@ 004768b4     ssg_vs2008_32:ssgLoadMDL.obj
 0002:000038c4       ??_C@_0N@NLCMDADI@UNKNOWN?50xDF?$AA@ 004768c4     ssg_vs2008_32:ssgLoadMDL.obj
 0002:000038d4       ??_C@_0N@PAABGDPL@UNKNOWN?50xDE?$AA@ 004768d4     ssg_vs2008_32:ssgLoadMDL.obj
 0002:000038e4       ??_C@_0N@OJBKFCLK@UNKNOWN?50xDD?$AA@ 004768e4     ssg_vs2008_32:ssgLoadMDL.obj
 0002:000038f4       ??_C@_0N@KGFLMEHN@UNKNOWN?50xDC?$AA@ 004768f4     ssg_vs2008_32:ssgLoadMDL.obj
 0002:00003904       ??_C@_0N@LPEAPFDM@UNKNOWN?50xDB?$AA@ 00476904     ssg_vs2008_32:ssgLoadMDL.obj
 0002:00003914       ??_C@_0N@JEGNKGPP@UNKNOWN?50xDA?$AA@ 00476914     ssg_vs2008_32:ssgLoadMDL.obj
 0002:00003924       ??_C@_0N@HDILFFAB@UNKNOWN?50xD9?$AA@ 00476924     ssg_vs2008_32:ssgLoadMDL.obj
 0002:00003934       ??_C@_0N@GKJAGEEA@UNKNOWN?50xD8?$AA@ 00476934     ssg_vs2008_32:ssgLoadMDL.obj
 0002:00003944       ??_C@_0N@ONAIHIIP@UNKNOWN?50xD7?$AA@ 00476944     ssg_vs2008_32:ssgLoadMDL.obj
 0002:00003954       ??_C@_0N@PEBDEJMO@UNKNOWN?50xD6?$AA@ 00476954     ssg_vs2008_32:ssgLoadMDL.obj
 0002:00003964       ??_C@_0N@NPDOBKAN@UNKNOWN?50xD5?$AA@ 00476964     ssg_vs2008_32:ssgLoadMDL.obj
 0002:00003974       ??_C@_0N@MGCFCLEM@UNKNOWN?50xD4?$AA@ 00476974     ssg_vs2008_32:ssgLoadMDL.obj
 0002:00003984       ??_C@_0N@IJGELNIL@UNKNOWN?50xD3?$AA@ 00476984     ssg_vs2008_32:ssgLoadMDL.obj
 0002:00003994       ??_C@_0N@JAHPIMMK@UNKNOWN?50xD2?$AA@ 00476994     ssg_vs2008_32:ssgLoadMDL.obj
 0002:000039a4       ??_C@_0N@LLFCNPAJ@UNKNOWN?50xD1?$AA@ 004769a4     ssg_vs2008_32:ssgLoadMDL.obj
 0002:000039b4       ??_C@_0N@KCEJOOEI@UNKNOWN?50xD0?$AA@ 004769b4     ssg_vs2008_32:ssgLoadMDL.obj
 0002:000039c4       ??_C@_0N@NOGDCGLN@UNKNOWN?50xCF?$AA@ 004769c4     ssg_vs2008_32:ssgLoadMDL.obj
 0002:000039d4       ??_C@_0N@PFEOHFHO@UNKNOWN?50xCE?$AA@ 004769d4     ssg_vs2008_32:ssgLoadMDL.obj
 0002:000039e4       ??_C@_0N@OMFFEEDP@UNKNOWN?50xCD?$AA@ 004769e4     ssg_vs2008_32:ssgLoadMDL.obj
 0002:000039f4       ??_C@_0N@KDBENCPI@UNKNOWN?50xCC?$AA@ 004769f4     ssg_vs2008_32:ssgLoadMDL.obj
 0002:00003a04       ??_C@_0N@LKAPODLJ@UNKNOWN?50xCB?$AA@ 00476a04     ssg_vs2008_32:ssgLoadMDL.obj
 0002:00003a14       ??_C@_0N@JBCCLAHK@UNKNOWN?50xCA?$AA@ 00476a14     ssg_vs2008_32:ssgLoadMDL.obj
 0002:00003a24       ??_C@_0N@HGMEEDIE@UNKNOWN?50xC9?$AA@ 00476a24     ssg_vs2008_32:ssgLoadMDL.obj
 0002:00003a34       ??_C@_0N@GPNPHCMF@UNKNOWN?50xC8?$AA@ 00476a34     ssg_vs2008_32:ssgLoadMDL.obj
 0002:00003a44       ??_C@_0N@OIEHGOAK@UNKNOWN?50xC7?$AA@ 00476a44     ssg_vs2008_32:ssgLoadMDL.obj
 0002:00003a54       ??_C@_0N@PBFMFPEL@UNKNOWN?50xC6?$AA@ 00476a54     ssg_vs2008_32:ssgLoadMDL.obj
 0002:00003a64       ??_C@_0N@NKHBAMII@UNKNOWN?50xC5?$AA@ 00476a64     ssg_vs2008_32:ssgLoadMDL.obj
 0002:00003a74       ??_C@_0N@MDGKDNMJ@UNKNOWN?50xC4?$AA@ 00476a74     ssg_vs2008_32:ssgLoadMDL.obj
 0002:00003a84       ??_C@_0N@IMCLKLAO@UNKNOWN?50xC3?$AA@ 00476a84     ssg_vs2008_32:ssgLoadMDL.obj
 0002:00003a94       ??_C@_0N@JFDAJKEP@UNKNOWN?50xC2?$AA@ 00476a94     ssg_vs2008_32:ssgLoadMDL.obj
 0002:00003aa4       ??_C@_0N@LOBNMJIM@UNKNOWN?50xC1?$AA@ 00476aa4     ssg_vs2008_32:ssgLoadMDL.obj
 0002:00003ab4       ??_C@_0N@KHAGPIMN@UNKNOWN?50xC0?$AA@ 00476ab4     ssg_vs2008_32:ssgLoadMDL.obj
 0002:00003ac4       ??_C@_0N@NPKBEMIK@UNKNOWN?50xBF?$AA@ 00476ac4     ssg_vs2008_32:ssgLoadMDL.obj
 0002:00003ad4       ??_C@_0N@PEIMBPEJ@UNKNOWN?50xBE?$AA@ 00476ad4     ssg_vs2008_32:ssgLoadMDL.obj
 0002:00003ae4       ??_C@_0N@ONJHCOAI@UNKNOWN?50xBD?$AA@ 00476ae4     ssg_vs2008_32:ssgLoadMDL.obj
 0002:00003af4       ??_C@_0N@KCNGLIMP@UNKNOWN?50xBC?$AA@ 00476af4     ssg_vs2008_32:ssgLoadMDL.obj
 0002:00003b04       ??_C@_0N@LLMNIJIO@UNKNOWN?50xBB?$AA@ 00476b04     ssg_vs2008_32:ssgLoadMDL.obj
 0002:00003b14       ??_C@_0N@JAOANKEN@UNKNOWN?50xBA?$AA@ 00476b14     ssg_vs2008_32:ssgLoadMDL.obj
 0002:00003b24       ??_C@_0N@HHAGCJLD@UNKNOWN?50xB9?$AA@ 00476b24     ssg_vs2008_32:ssgLoadMDL.obj
 0002:00003b34       ??_C@_0N@GOBNBIPC@UNKNOWN?50xB8?$AA@ 00476b34     ssg_vs2008_32:ssgLoadMDL.obj
 0002:00003b44       ??_C@_0N@OJIFAEDN@UNKNOWN?50xB7?$AA@ 00476b44     ssg_vs2008_32:ssgLoadMDL.obj
 0002:00003b54       ??_C@_0N@PAJODFHM@UNKNOWN?50xB6?$AA@ 00476b54     ssg_vs2008_32:ssgLoadMDL.obj
 0002:00003b64       ??_C@_0N@NLLDGGLP@UNKNOWN?50xB5?$AA@ 00476b64     ssg_vs2008_32:ssgLoadMDL.obj
 0002:00003b74       ??_C@_0N@MCKIFHPO@UNKNOWN?50xB4?$AA@ 00476b74     ssg_vs2008_32:ssgLoadMDL.obj
 0002:00003b84       ??_C@_0L@EGGKNJLA@BGL_IFINF1?$AA@ 00476b84     ssg_vs2008_32:ssgLoadMDL.obj
 0002:00003b90       ??_C@_09BMICLEKF@BGL_LIGHT?$AA@ 00476b90     ssg_vs2008_32:ssgLoadMDL.obj
 0002:00003b9c       ??_C@_0N@LPNPKDLL@UNKNOWN?50xB1?$AA@ 00476b9c     ssg_vs2008_32:ssgLoadMDL.obj
 0002:00003bac       ??_C@_0N@KGMEJCPK@UNKNOWN?50xB0?$AA@ 00476bac     ssg_vs2008_32:ssgLoadMDL.obj
 0002:00003bbc       ??_C@_0BF@EKMEMFAP@BGL_TRANSFORM_MATRIX?$AA@ 00476bbc     ssg_vs2008_32:ssgLoadMDL.obj
 0002:00003bd4       ??_C@_0BC@IBKPJDMM@BGL_TRANSFORM_END?$AA@ 00476bd4     ssg_vs2008_32:ssgLoadMDL.obj
 0002:00003be8       ??_C@_0M@DCEIHMGF@BGL_ANIMATE?$AA@ 00476be8     ssg_vs2008_32:ssgLoadMDL.obj
 0002:00003bf4       ??_C@_09BOJCLOEJ@BGL_ZBIAS?$AA@ 00476bf4     ssg_vs2008_32:ssgLoadMDL.obj
 0002:00003c00       ??_C@_0O@HCPIJKDI@RESERVED?50xAB?$AA@ 00476c00     ssg_vs2008_32:ssgLoadMDL.obj
 0002:00003c10       ??_C@_0P@CCFEAEDD@BGL_NEW_RUNWAY?$AA@ 00476c10     ssg_vs2008_32:ssgLoadMDL.obj
 0002:00003c20       ??_C@_0BM@KOENJBHO@BGL_IFIN_INSTANCE_BOX_PLANE?$AA@ 00476c20     ssg_vs2008_32:ssgLoadMDL.obj
 0002:00003c3c       ??_C@_0BH@EHNNENHF@BGL_TEXTURE_ROAD_START?$AA@ 00476c3c     ssg_vs2008_32:ssgLoadMDL.obj
 0002:00003c54       ??_C@_0BB@ENGBL@BGL_SPRITE_VCALL?$AA@ 00476c54     ssg_vs2008_32:ssgLoadMDL.obj
 0002:00003c68       ??_C@_0O@MNHDMBMP@OBSOLETE?50xA6?$AA@ 00476c68     ssg_vs2008_32:ssgLoadMDL.obj
 0002:00003c78       ??_C@_0O@OGFOJCAM@OBSOLETE?50xA5?$AA@ 00476c78     ssg_vs2008_32:ssgLoadMDL.obj
 0002:00003c88       ??_C@_0L@JHHOPOAP@BGL_VALPHA?$AA@ 00476c88     ssg_vs2008_32:ssgLoadMDL.obj
 0002:00003c94       ??_C@_0O@LAAEDFIK@OBSOLETE?50xA3?$AA@ 00476c94     ssg_vs2008_32:ssgLoadMDL.obj
 0002:00003ca4       ??_C@_0O@KJBPAEML@OBSOLETE?50xA2?$AA@ 00476ca4     ssg_vs2008_32:ssgLoadMDL.obj
 0002:00003cb4       ??_C@_0O@ICDCFHAI@OBSOLETE?50xA1?$AA@ 00476cb4     ssg_vs2008_32:ssgLoadMDL.obj
 0002:00003cc4       ??_C@_0L@DAMLAOEE@BGL_OBJECT?$AA@ 00476cc4     ssg_vs2008_32:ssgLoadMDL.obj
 0002:00003cd0       ??_C@_0N@GGKJEFPK@BGL_OVERRIDE?$AA@ 00476cd0     ssg_vs2008_32:ssgLoadMDL.obj
 0002:00003ce0       ??_C@_0BA@DBBAFKLH@BGL_INTERPOLATE?$AA@ 00476ce0     ssg_vs2008_32:ssgLoadMDL.obj
 0002:00003cf0       ??_C@_0O@OLMECAPE@RESERVED?50x9d?$AA@ 00476cf0     ssg_vs2008_32:ssgLoadMDL.obj
 0002:00003d00       ??_C@_0O@KEIFLGDD@RESERVED?50x9c?$AA@ 00476d00     ssg_vs2008_32:ssgLoadMDL.obj
 0002:00003d10       ??_C@_0O@LNJOIHHC@RESERVED?50x9b?$AA@ 00476d10     ssg_vs2008_32:ssgLoadMDL.obj
 0002:00003d20       ??_C@_0O@GCGLDDLE@OBSOLETE?50x9a?$AA@ 00476d20     ssg_vs2008_32:ssgLoadMDL.obj
 0002:00003d30       ??_C@_0O@OMHIGALA@BGL_SET_CRASH?$AA@ 00476d30     ssg_vs2008_32:ssgLoadMDL.obj
 0002:00003d40       ??_C@_0O@CPJAEIAC@BGL_CRASH_BOX?$AA@ 00476d40     ssg_vs2008_32:ssgLoadMDL.obj
 0002:00003d50       ??_C@_0BB@NGBONLCP@BGL_CRASH_SPHERE?$AA@ 00476d50     ssg_vs2008_32:ssgLoadMDL.obj
 0002:00003d64       ??_C@_0BA@JHFIJIG@BGL_CRASH_START?$AA@ 00476d64     ssg_vs2008_32:ssgLoadMDL.obj
 0002:00003d74       ??_C@_0BD@EPKLAPBP@BGL_CRASH_INDIRECT?$AA@ 00476d74     ssg_vs2008_32:ssgLoadMDL.obj
 0002:00003d88       ??_C@_09CJILOOPD@BGL_CRASH?$AA@ 00476d88     ssg_vs2008_32:ssgLoadMDL.obj
 0002:00003d94       ??_C@_0O@BODOOLGH@RESERVED?50x93?$AA@ 00476d94     ssg_vs2008_32:ssgLoadMDL.obj
 0002:00003da4       ??_C@_0O@PDPNDNCD@OBSOLETE?50x92?$AA@ 00476da4     ssg_vs2008_32:ssgLoadMDL.obj
 0002:00003db4       ??_C@_08GJJIIIFH@BGL_TEXT?$AA@ 00476db4     ssg_vs2008_32:ssgLoadMDL.obj
 0002:00003dc0       ??_C@_0O@DFBDLIKE@RESERVED?50x90?$AA@ 00476dc0     ssg_vs2008_32:ssgLoadMDL.obj
 0002:00003dd0       ??_C@_09JCIHKBDJ@BGL_ALPHA?$AA@ 00476dd0     ssg_vs2008_32:ssgLoadMDL.obj
 0002:00003ddc       ??_C@_0BB@MEAPDLMM@BGL_VFILE_MARKER?$AA@ 00476ddc     ssg_vs2008_32:ssgLoadMDL.obj
 0002:00003df0       ??_C@_0O@OKAGEKMD@RESERVED?50x8d?$AA@ 00476df0     ssg_vs2008_32:ssgLoadMDL.obj
 0002:00003e00       ??_C@_0O@KFEHNMAE@RESERVED?50x8c?$AA@ 00476e00     ssg_vs2008_32:ssgLoadMDL.obj
 0002:00003e10       ??_C@_0N@EKPLIBEA@BGL_ADDCAT32?$AA@ 00476e10     ssg_vs2008_32:ssgLoadMDL.obj
 0002:00003e20       ??_C@_0L@OEOBAIMF@BGL_CALL32?$AA@ 00476e20     ssg_vs2008_32:ssgLoadMDL.obj
 0002:00003e2c       ??_C@_0P@DJJINKLO@BGL_VAR_BASE32?$AA@ 00476e2c     ssg_vs2008_32:ssgLoadMDL.obj
 0002:00003e3c       ??_C@_0L@MOJBMMAM@BGL_JUMP32?$AA@ 00476e3c     ssg_vs2008_32:ssgLoadMDL.obj
 0002:00003e48       ??_C@_0BB@LMHPAGMI@BGL_FIXED_COLORS?$AA@ 00476e48     ssg_vs2008_32:ssgLoadMDL.obj
 0002:00003e5c       ??_C@_0O@JGFDJCBA@OBSOLETE?50x86?$AA@ 00476e5c     ssg_vs2008_32:ssgLoadMDL.obj
 0002:00003e6c       ??_C@_0O@LNHOMBND@OBSOLETE?50x85?$AA@ 00476e6c     ssg_vs2008_32:ssgLoadMDL.obj
 0002:00003e7c       ??_C@_0O@KEGFPAJC@OBSOLETE?50x84?$AA@ 00476e7c     ssg_vs2008_32:ssgLoadMDL.obj
 0002:00003e8c       ??_C@_0M@MNDDHDAD@BGL_RESCALE?$AA@ 00476e8c     ssg_vs2008_32:ssgLoadMDL.obj
 0002:00003e98       ??_C@_0O@PCDPFHBE@OBSOLETE?50x82?$AA@ 00476e98     ssg_vs2008_32:ssgLoadMDL.obj
 0002:00003ea8       ??_C@_0O@NJBCAENH@OBSOLETE?50x81?$AA@ 00476ea8     ssg_vs2008_32:ssgLoadMDL.obj
 0002:00003eb8       ??_C@_0L@CJCIACPP@BGL_RESPNT?$AA@ 00476eb8     ssg_vs2008_32:ssgLoadMDL.obj
 0002:00003ec4       ??_C@_0O@CHLEIIHJ@OBSOLETE?50x7f?$AA@ 00476ec4     ssg_vs2008_32:ssgLoadMDL.obj
 0002:00003ed4       ??_C@_0BC@BBJBIJHN@BGL_SETWRD_GLOBAL?$AA@ 00476ed4     ssg_vs2008_32:ssgLoadMDL.obj
 0002:00003ee8       ??_C@_0BA@MHOFBFIP@BGL_PERSPECTIVE?$AA@ 00476ee8     ssg_vs2008_32:ssgLoadMDL.obj
 0002:00003ef8       ??_C@_0L@CPADNOG@BGL_SELECT?$AA@ 00476ef8     ssg_vs2008_32:ssgLoadMDL.obj
 0002:00003f04       ??_C@_0O@EDNIENHN@OBSOLETE?50x7b?$AA@ 00476f04     ssg_vs2008_32:ssgLoadMDL.obj
 0002:00003f14       ??_C@_0BA@GGIGKBAE@BGL_GFACET_TMAP?$AA@ 00476f14     ssg_vs2008_32:ssgLoadMDL.obj
 0002:00003f24       ??_C@_0BA@IHOJHMDM@BGL_RIVER_CONTW?$AA@ 00476f24     ssg_vs2008_32:ssgLoadMDL.obj
 0002:00003f34       ??_C@_0P@EPNGCJIG@BGL_ROAD_CONTW?$AA@ 00476f34     ssg_vs2008_32:ssgLoadMDL.obj
 0002:00003f44       ??_C@_0BJ@DAKADIN@BGL_SCALE_AGL?5?9?5RefPoint?$AA@ 00476f44     ssg_vs2008_32:ssgLoadMDL.obj
 0002:00003f60       ??_C@_0BG@HPNJAF@BGL_BGL?5?9?5Perspective?$AA@ 00476f60     ssg_vs2008_32:ssgLoadMDL.obj
 0002:00003f78       ??_C@_0L@MEPBJDNJ@BGL_ADDMNT?$AA@ 00476f78     ssg_vs2008_32:ssgLoadMDL.obj
 0002:00003f84       ??_C@_0L@CPHCKDNH@BGL_ADDCAT?$AA@ 00476f84     ssg_vs2008_32:ssgLoadMDL.obj
 0002:00003f90       ??_C@_0N@LNLONBJB@BGL_IFINBOXP?$AA@ 00476f90     ssg_vs2008_32:ssgLoadMDL.obj
 0002:00003fa0       ??_C@_0O@PJGDBACJ@OBSOLETE?50x72?$AA@ 00476fa0     ssg_vs2008_32:ssgLoadMDL.obj
 0002:00003fb0       ??_C@_0BB@HLBCGANP@BGL_ALTITUDE_SET?$AA@ 00476fb0     ssg_vs2008_32:ssgLoadMDL.obj
 0002:00003fc4       ??_C@_0P@ILEDKCBA@BGL_AREA_SENSE?$AA@ 00476fc4     ssg_vs2008_32:ssgLoadMDL.obj
 0002:00003fd4       ??_C@_0BB@JADNEEJN@BGL_TAXIWAY_CONT?$AA@ 00476fd4     ssg_vs2008_32:ssgLoadMDL.obj
 0002:00003fe8       ??_C@_0BC@BIPBICAB@BGL_TAXIWAY_START?$AA@ 00476fe8     ssg_vs2008_32:ssgLoadMDL.obj
 0002:00003ffc       ??_C@_0M@KKNNMJBO@BGL_IFSIZEH?$AA@ 00476ffc     ssg_vs2008_32:ssgLoadMDL.obj
 0002:00004008       ??_C@_0P@BENACKMG@BGL_RIVER_CONT?$AA@ 00477008     ssg_vs2008_32:ssgLoadMDL.obj
 0002:00004018       ??_C@_0BA@OEMMOHBD@BGL_RIVER_START?$AA@ 00477018     ssg_vs2008_32:ssgLoadMDL.obj
 0002:00004028       ??_C@_0O@PMNEBAPE@BGL_ROAD_CONT?$AA@ 00477028     ssg_vs2008_32:ssgLoadMDL.obj
 0002:00004038       ??_C@_0P@CMPDLCKJ@BGL_ROAD_START?$AA@ 00477038     ssg_vs2008_32:ssgLoadMDL.obj
 0002:00004048       ??_C@_08EICEIJOP@OBSOLETE?$AA@ 00477048     ssg_vs2008_32:ssgLoadMDL.obj
 0002:00004054       ??_C@_0M@OPGIDFKC@BGL_VLCOLOR?$AA@ 00477054     ssg_vs2008_32:ssgLoadMDL.obj
 0002:00004060       ??_C@_0M@ONGPGBFI@BGL_VGCOLOR?$AA@ 00477060     ssg_vs2008_32:ssgLoadMDL.obj
 0002:0000406c       ??_C@_0M@HOPONJIF@BGL_VSCOLOR?$AA@ 0047706c     ssg_vs2008_32:ssgLoadMDL.obj
 0002:00004078       ??_C@_08HPILAEEN@BGL_LIST?$AA@ 00477078     ssg_vs2008_32:ssgLoadMDL.obj
 0002:00004084       ??_C@_0BB@KHIMJHLD@BGL_LIBRARY_CALL?$AA@ 00477084     ssg_vs2008_32:ssgLoadMDL.obj
 0002:00004098       ??_C@_09GIDJHOMN@BGL_IFVIS?$AA@ 00477098     ssg_vs2008_32:ssgLoadMDL.obj
 0002:000040a4       ??_C@_0O@BHCEBCAD@RESERVED?50x53?$AA@ 004770a4     ssg_vs2008_32:ssgLoadMDL.obj
 0002:000040b4       ??_C@_0O@OJPIOHBN@BGL_FACE_TMAP?$AA@ 004770b4     ssg_vs2008_32:ssgLoadMDL.obj
 0002:000040c4       ??_C@_0M@HOJMPGMB@BGL_IFSIZEV?$AA@ 004770c4     ssg_vs2008_32:ssgLoadMDL.obj
 0002:000040d0       ??_C@_0O@PBNAPNE@OBSOLETE?50x5e?$AA@ 004770d0     ssg_vs2008_32:ssgLoadMDL.obj
 0002:000040e0       ??_C@_0BD@BIIMGCAH@BGL_TEXTURE_REPEAT?$AA@ 004770e0     ssg_vs2008_32:ssgLoadMDL.obj
 0002:000040f4       ??_C@_0O@FJEHKIFC@OBSOLETE?50x5c?$AA@ 004770f4     ssg_vs2008_32:ssgLoadMDL.obj
 0002:00004104       ??_C@_0O@EAFMJJBD@OBSOLETE?50x5b?$AA@ 00477104     ssg_vs2008_32:ssgLoadMDL.obj
 0002:00004114       ??_C@_0O@GLHBMKNA@OBSOLETE?50x5a?$AA@ 00477114     ssg_vs2008_32:ssgLoadMDL.obj
 0002:00004124       ??_C@_0O@BJBDBNIM@OBSOLETE?50x59?$AA@ 00477124     ssg_vs2008_32:ssgLoadMDL.obj
 0002:00004134       ??_C@_0BD@MAPPOGIG@BLG_TEXTURE_BOUNDS?$AA@ 00477134     ssg_vs2008_32:ssgLoadMDL.obj
 0002:00004148       ??_C@_0BA@LPADBCOE@BGL_SET_WEATHER?$AA@ 00477148     ssg_vs2008_32:ssgLoadMDL.obj
 0002:00004158       ??_C@_0BB@COKGLDMI@BGL_SURFACE_TYPE?$AA@ 00477158     ssg_vs2008_32:ssgLoadMDL.obj
 0002:0000416c       ??_C@_0O@KMLNGDMB@OBSOLETE?50x54?$AA@ 0047716c     ssg_vs2008_32:ssgLoadMDL.obj
 0002:0000417c       ??_C@_0O@ODPMPFAG@OBSOLETE?50x53?$AA@ 0047717c     ssg_vs2008_32:ssgLoadMDL.obj
 0002:0000418c       ??_C@_0P@CLOODOO@BGL_NEW_SCOLOR?$AA@ 0047718c     ssg_vs2008_32:ssgLoadMDL.obj
 0002:0000419c       ??_C@_0P@JDCIAPMJ@BGL_NEW_LCOLOR?$AA@ 0047719c     ssg_vs2008_32:ssgLoadMDL.obj
 0002:000041ac       ??_C@_0L@CCNAANJO@BGL_GCOLOR?$AA@ 004771ac     ssg_vs2008_32:ssgLoadMDL.obj
 0002:000041b8       ??_C@_0N@IPHFMNCD@BGL_MOVEWORD?$AA@ 004771b8     ssg_vs2008_32:ssgLoadMDL.obj
 0002:000041c8       ??_C@_0M@LJJDMKBG@BGL_MOVEG2L?$AA@ 004771c8     ssg_vs2008_32:ssgLoadMDL.obj
 0002:000041d4       ??_C@_0M@INGGJENM@BGL_MOVEL2G?$AA@ 004771d4     ssg_vs2008_32:ssgLoadMDL.obj
 0002:000041e0       ??_C@_0L@NAPAJHGM@BGL_VSCALE?$AA@ 004771e0     ssg_vs2008_32:ssgLoadMDL.obj
 0002:000041ec       ??_C@_0O@NEBKNHIG@OBSOLETE?50x4B?$AA@ 004771ec     ssg_vs2008_32:ssgLoadMDL.obj
 0002:000041fc       ??_C@_0O@PPDHIEEF@OBSOLETE?50x4A?$AA@ 004771fc     ssg_vs2008_32:ssgLoadMDL.obj
 0002:0000420c       ??_C@_0N@DHBECJKH@BGL_BUILDING?$AA@ 0047720c     ssg_vs2008_32:ssgLoadMDL.obj
 0002:0000421c       ??_C@_0M@BEINDGNF@BGL_VAR_SEG?$AA@ 0047721c     ssg_vs2008_32:ssgLoadMDL.obj
 0002:00004228       ??_C@_08CHHGCPCC@RESERVED?$AA@ 00477228     ssg_vs2008_32:ssgLoadMDL.obj
 0002:00004234       ??_C@_0BB@CGCKEINA@BGL_POINT_VICALL?$AA@ 00477234     ssg_vs2008_32:ssgLoadMDL.obj
 0002:00004248       ??_C@_0O@LEGEDILH@OBSOLETE?50x45?$AA@ 00477248     ssg_vs2008_32:ssgLoadMDL.obj
 0002:00004258       ??_C@_0BD@ILDEKICG@BGL_TEXTURE_RUNWAY?$AA@ 00477258     ssg_vs2008_32:ssgLoadMDL.obj
 0002:0000426c       ??_C@_0N@DONMDIAF@BGL_TEXTURE2?$AA@ 0047726c     ssg_vs2008_32:ssgLoadMDL.obj
 0002:0000427c       ??_C@_0BD@JPPBDDPD@BGL_POLYGON_RUNWAY?$AA@ 0047727c     ssg_vs2008_32:ssgLoadMDL.obj
 0002:00004290       ??_C@_0BC@PMPGHCLM@BGL_SHADOW_VICALL?$AA@ 00477290     ssg_vs2008_32:ssgLoadMDL.obj
 0002:000042a4       ??_C@_0BF@NBGDNFGG@BGL_SHADOW_VPOSITION?$AA@ 004772a4     ssg_vs2008_32:ssgLoadMDL.obj
 0002:000042bc       ??_C@_0BA@IJBOANDJ@BGL_SHADOW_CALL?$AA@ 004772bc     ssg_vs2008_32:ssgLoadMDL.obj
 0002:000042cc       ??_C@_09KNDNIAG@BGL_FACET?$AA@ 004772cc     ssg_vs2008_32:ssgLoadMDL.obj
 0002:000042d8       ??_C@_08IFIEHGDF@BGL_SEED?$AA@ 004772d8     ssg_vs2008_32:ssgLoadMDL.obj
 0002:000042e4       ??_C@_0N@HLNKHKHM@BGL_POSITION?$AA@ 004772e4     ssg_vs2008_32:ssgLoadMDL.obj
 0002:000042f4       ??_C@_0O@OMGANGN@BGL_VINSTANCE?$AA@ 004772f4     ssg_vs2008_32:ssgLoadMDL.obj
 0002:00004304       ??_C@_0O@KCHOOIHI@BGL_VPOSITION?$AA@ 00477304     ssg_vs2008_32:ssgLoadMDL.obj
 0002:00004314       ??_C@_09HMILBAKM@BGL_IFMSK?$AA@ 00477314     ssg_vs2008_32:ssgLoadMDL.obj
 0002:00004320       ??_C@_0M@HHKLCKBL@BGL_CONCAVE?$AA@ 00477320     ssg_vs2008_32:ssgLoadMDL.obj
 0002:0000432c       ??_C@_09DIEIIGE@BGL_POINT?$AA@ 0047732c     ssg_vs2008_32:ssgLoadMDL.obj
 0002:00004338       ??_C@_0O@JKAGHNPB@OBSOLETE?50x36?$AA@ 00477338     ssg_vs2008_32:ssgLoadMDL.obj
 0002:00004348       ??_C@_0L@OGLGMOHK@BGL_PNTROW?$AA@ 00477348     ssg_vs2008_32:ssgLoadMDL.obj
 0002:00004354       ??_C@_0BA@EBDKGLMP@BGL_SUPER_SCALE?$AA@ 00477354     ssg_vs2008_32:ssgLoadMDL.obj
 0002:00004364       ??_C@_0BL@GDNFFHMK@BGL_INSTANCE?5?9?5RotatedCall?$AA@ 00477364     ssg_vs2008_32:ssgLoadMDL.obj
 0002:00004380       ??_C@_0BN@HCLNELBE@BGL_ADDOBJ?5?9?5PerspectiveCall?$AA@ 00477380     ssg_vs2008_32:ssgLoadMDL.obj
 0002:000043a0       ??_C@_0L@KJMOPDIA@BGL_RESROW?$AA@ 004773a0     ssg_vs2008_32:ssgLoadMDL.obj
 0002:000043ac       ??_C@_0O@MMFMNKHH@OBSOLETE?50x30?$AA@ 004773ac     ssg_vs2008_32:ssgLoadMDL.obj
 0002:000043bc       ??_C@_09NFAJMIFK@BGL_SCALE?$AA@ 004773bc     ssg_vs2008_32:ssgLoadMDL.obj
 0002:000043c8       ??_C@_0N@IPODKFCN@BGL_LCOLOR24?$AA@ 004773c8     ssg_vs2008_32:ssgLoadMDL.obj
 0002:000043d8       ??_C@_0N@PMJKCIIN@BGL_SCOLOR24?$AA@ 004773d8     ssg_vs2008_32:ssgLoadMDL.obj
 0002:000043e8       ??_C@_0L@CLMHMDPC@BGL_REJECT?$AA@ 004773e8     ssg_vs2008_32:ssgLoadMDL.obj
 0002:000043f4       ??_C@_0N@MKFPBLEH@BGL_ADDOBJ32?$AA@ 004773f4     ssg_vs2008_32:ssgLoadMDL.obj
 0002:00004404       ??_C@_0L@MOIDBAEK@BGL_GFACET?$AA@ 00477404     ssg_vs2008_32:ssgLoadMDL.obj
 0002:00004410       ??_C@_0N@HAHIFLL@BGL_GRESLIST?$AA@ 00477410     ssg_vs2008_32:ssgLoadMDL.obj
 0002:00004420       ??_C@_0O@FEHDKEI@OBSOLETE?50x28?$AA@ 00477420     ssg_vs2008_32:ssgLoadMDL.obj
 0002:00004430       ??_C@_0O@ICNPCGIH@OBSOLETE?50x27?$AA@ 00477430     ssg_vs2008_32:ssgLoadMDL.obj
 0002:00004440       ??_C@_0L@PPFGKFKH@BGL_SETWRD?$AA@ 00477440     ssg_vs2008_32:ssgLoadMDL.obj
 0002:0000444c       ??_C@_0BF@GPCBJNCF@BGL_SEPARATION_PLANE?$AA@ 0047744c     ssg_vs2008_32:ssgLoadMDL.obj
 0002:00004464       ??_C@_09DCMHCGKE@BGL_IFIN1?$AA@ 00477464     ssg_vs2008_32:ssgLoadMDL.obj
 0002:00004470       ??_C@_08KNAOMHGH@BGL_CALL?$AA@ 00477470     ssg_vs2008_32:ssgLoadMDL.obj
 0002:0000447c       ??_C@_0BE@DPGMIDGB@BGL_RETURN?5?9?5Return?$AA@ 0047747c     ssg_vs2008_32:ssgLoadMDL.obj
 0002:00004490       ??_C@_09PBEECG@BGL_IFIN3?$AA@ 00477490     ssg_vs2008_32:ssgLoadMDL.obj
 0002:0000449c       ??_C@_0P@ILFGOOFP@BGL_FACET_TMAP?$AA@ 0047749c     ssg_vs2008_32:ssgLoadMDL.obj
 0002:000044ac       ??_C@_0O@NHOBBDMO@RESERVED?50x1f?$AA@ 004774ac     ssg_vs2008_32:ssgLoadMDL.obj
 0002:000044bc       ??_C@_08BDLHJCPN@BGL_HAZE?$AA@ 004774bc     ssg_vs2008_32:ssgLoadMDL.obj
 0002:000044c8       ??_C@_08LPHALEGD@BGL_FACE?$AA@ 004774c8     ssg_vs2008_32:ssgLoadMDL.obj
 0002:000044d4       ??_C@_09BJOKHFGH@BGL_IFIN2?$AA@ 004774d4     ssg_vs2008_32:ssgLoadMDL.obj
 0002:000044e0       ??_C@_0BH@DPDKIFAD@BGL_IFIN_BOX_RAW_PLANE?$AA@ 004774e0     ssg_vs2008_32:ssgLoadMDL.obj
 0002:000044f8       ??_C@_0M@MOHEALGA@BGL_RESLIST?$AA@ 004774f8     ssg_vs2008_32:ssgLoadMDL.obj
 0002:00004504       ??_C@_0M@HDGLEAOG@BGL_PALETTE?$AA@ 00477504     ssg_vs2008_32:ssgLoadMDL.obj
 0002:00004510       ??_C@_0M@HKJIIPGH@BGL_TEXTURE?$AA@ 00477510     ssg_vs2008_32:ssgLoadMDL.obj
 0002:0000451c       ??_C@_0BD@ELGEAGEM@BGL_TEXTURE_ENABLE?$AA@ 0047751c     ssg_vs2008_32:ssgLoadMDL.obj
 0002:00004530       ??_C@_0O@GNFKEOJK@RESERVED?50x16?$AA@ 00477530     ssg_vs2008_32:ssgLoadMDL.obj
 0002:00004540       ??_C@_0BC@CEBJPPMP@BGL_ELEVATION_MAP?$AA@ 00477540     ssg_vs2008_32:ssgLoadMDL.obj
 0002:00004554       ??_C@_0L@LBEBLFED@BGL_SCOLOR?$AA@ 00477554     ssg_vs2008_32:ssgLoadMDL.obj
 0002:00004560       ??_C@_0O@OEPFFNNK@OBSOLETE?50x13?$AA@ 00477560     ssg_vs2008_32:ssgLoadMDL.obj
 0002:00004570       ??_C@_0O@PNOOGMJL@OBSOLETE?50x12?$AA@ 00477570     ssg_vs2008_32:ssgLoadMDL.obj
 0002:00004580       ??_C@_0O@NGMDDPFI@OBSOLETE?50x11?$AA@ 00477580     ssg_vs2008_32:ssgLoadMDL.obj
 0002:00004590       ??_C@_0L@NJHLAIPL@BGL_CNTRES?$AA@ 00477590     ssg_vs2008_32:ssgLoadMDL.obj
 0002:0000459c       ??_C@_0L@JDKIEAGI@BGL_STRRES?$AA@ 0047759c     ssg_vs2008_32:ssgLoadMDL.obj
 0002:000045a8       ??_C@_0L@GMDLACFE@BGL_DEFRES?$AA@ 004775a8     ssg_vs2008_32:ssgLoadMDL.obj
 0002:000045b4       ??_C@_08JINAFCLE@BGL_JUMP?$AA@ 004775b4     ssg_vs2008_32:ssgLoadMDL.obj
 0002:000045c0       ??_C@_0O@FPIMGKLJ@OBSOLETE?50x0c?$AA@ 004775c0     ssg_vs2008_32:ssgLoadMDL.obj
 0002:000045d0       ??_C@_0O@EGJHFLPI@OBSOLETE?50x0b?$AA@ 004775d0     ssg_vs2008_32:ssgLoadMDL.obj
 0002:000045e0       ??_C@_0O@GNLKAIDL@OBSOLETE?50x0a?$AA@ 004775e0     ssg_vs2008_32:ssgLoadMDL.obj
 0002:000045f0       ??_C@_0O@BPNINPGH@OBSOLETE?50x09?$AA@ 004775f0     ssg_vs2008_32:ssgLoadMDL.obj
 0002:00004600       ??_C@_0M@OOEMGAAG@BLG_CLOSURE?$AA@ 00477600     ssg_vs2008_32:ssgLoadMDL.obj
 0002:0000460c       ??_C@_08MEDELLKK@BGL_CPNT?$AA@ 0047760c     ssg_vs2008_32:ssgLoadMDL.obj
 0002:00004618       ??_C@_08KENECMCI@BGL_SPNT?$AA@ 00477618     ssg_vs2008_32:ssgLoadMDL.obj
 0002:00004624       ??_C@_0BD@HDGAPGBM@BGL_SURFACE?5?9?5Area?$AA@ 00477624     ssg_vs2008_32:ssgLoadMDL.obj
 0002:00004638       ??_C@_0O@FOKOEGCP@RESERVED?50x04?$AA@ 00477638     ssg_vs2008_32:ssgLoadMDL.obj
 0002:00004648       ??_C@_08GLLGJIGD@BGL_CASE?$AA@ 00477648     ssg_vs2008_32:ssgLoadMDL.obj
 0002:00004654       ??_C@_08FBHAJHOB@BGL_NOOP?$AA@ 00477654     ssg_vs2008_32:ssgLoadMDL.obj
 0002:00004660       ??_C@_0O@NHABFFGP@OBSOLETE?50x01?$AA@ 00477660     ssg_vs2008_32:ssgLoadMDL.obj
 0002:00004670       ??_C@_07MDDPLGIN@BGL_EOF?$AA@ 00477670     ssg_vs2008_32:ssgLoadMDL.obj
 0002:00005520       __real@3f60000000000000    00478520     ssg_vs2008_32:ssgLoadMDL.obj
 0002:00005528       ??_C@_0DB@MLLHFICJ@ssgLoadMDL?3?5Index?5out?5of?5bounds?4@ 00478528     ssg_vs2008_32:ssgLoadMDL.obj
 0002:0000555c       ??_C@_0M@NBLMMMOL@?$CFs?6?9?9?9?9?9?9?9?6?$AA@ 0047855c     ssg_vs2008_32:ssgLoadMDL.obj
 0002:00005568       ??_C@_0CJ@NDEHGHEI@ssgLoadMDL?3?5Index?5out?5of?5bounds?4@ 00478568     ssg_vs2008_32:ssgLoadMDL.obj
 0002:00005594       __real@3f000000            00478594     ssg_vs2008_32:ssgLoadMDL.obj
 0002:00005598       __real@bf000000            00478598     ssg_vs2008_32:ssgLoadMDL.obj
 0002:0000559c       ??_C@_06MBBPNKFI@?$CFs?$CFf?0?5?$AA@ 0047859c     ssg_vs2008_32:ssgLoadMDL.obj
 0002:000055a4       ??_C@_0BL@GEPHHPEO@?9?9?9?9?9?9?9?5?$CFld?5?$CFf?6?$CFf?0?5?$CFf?0?5?$CFf?6?$AA@ 004785a4     ssg_vs2008_32:ssgLoadMDL.obj
 0002:000055c0       __real@416fffc000000000    004785c0     ssg_vs2008_32:ssgLoadMDL.obj
 0002:000055c8       ??_C@_0CN@HBOMKHJF@ssgLoadMDL?3?5Index?5out?5of?5bounds?4@ 004785c8     ssg_vs2008_32:ssgLoadMDL.obj
 0002:000055f8       ??_C@_0CJ@DEKLMLPN@ssgLoadMDL?3?5Index?5out?5of?5bounds?5@ 004785f8     ssg_vs2008_32:ssgLoadMDL.obj
 0002:00005624       ??_C@_0CO@NKDIDFHA@ssgLoadMDL?3?5Index?5array?5with?5too@ 00478624     ssg_vs2008_32:ssgLoadMDL.obj
 0002:00005654       ??_C@_0CN@HOINIBNM@ssgLoadMDL?3?5Texture?5coord?5out?5of@ 00478654     ssg_vs2008_32:ssgLoadMDL.obj
 0002:00005688       __real@47efffffe0000000    00478688     ssg_vs2008_32:ssgLoadMDL.obj
 0002:00005690       __real@7f7fffff            00478690     ssg_vs2008_32:ssgLoadMDL.obj
 0002:00005698       __real@3fefae1480000000    00478698     ssg_vs2008_32:ssgLoadMDL.obj
 0002:000056a0       __real@42480000            004786a0     ssg_vs2008_32:ssgLoadMDL.obj
 0002:000056a4       ??_C@_06CELAOPIE@lod?5?$CFd?$AA@ 004786a4     ssg_vs2008_32:ssgLoadMDL.obj
 0002:000056ac       ??_C@_09PHNEMFNP@propeller?$AA@ 004786ac     ssg_vs2008_32:ssgLoadMDL.obj
 0002:000056b8       ??_C@_08CNNAOMDJ@spoilers?$AA@ 004786b8     ssg_vs2008_32:ssgLoadMDL.obj
 0002:000056c4       ??_C@_04EKCLBOON@gear?$AA@ 004786c4     ssg_vs2008_32:ssgLoadMDL.obj
 0002:000056cc       ??_C@_05BPCLPKFE@flaps?$AA@ 004786cc     ssg_vs2008_32:ssgLoadMDL.obj
 0002:000056d4       ??_C@_08CPGJOFLL@ailerons?$AA@ 004786d4     ssg_vs2008_32:ssgLoadMDL.obj
 0002:000056e0       ??_C@_08JCDOOJIP@elevator?$AA@ 004786e0     ssg_vs2008_32:ssgLoadMDL.obj
 0002:000056ec       ??_C@_06MJGINOJH@rudder?$AA@ 004786ec     ssg_vs2008_32:ssgLoadMDL.obj
 0002:000056f4       __real@43b40000            004786f4     ssg_vs2008_32:ssgLoadMDL.obj
 0002:000056f8       __real@c2b40000            004786f8     ssg_vs2008_32:ssgLoadMDL.obj
 0002:000056fc       __real@428c0000            004786fc     ssg_vs2008_32:ssgLoadMDL.obj
 0002:00005700       __real@41f00000            00478700     ssg_vs2008_32:ssgLoadMDL.obj
 0002:00005704       __real@c1f00000            00478704     ssg_vs2008_32:ssgLoadMDL.obj
 0002:00005708       ??_C@_0DO@HEHKEFAI@i1?$CLbase?5?$DN?5?$CFd?0?5i1?5?$DN?5?$CFd?0?5base?5?$DN?5?$CFd@ 00478708     ssg_vs2008_32:ssgLoadMDL.obj
 0002:00005748       ??_C@_0DL@GCHKKFEP@tex_coords_?9?$DOgetNum?$CI?$CJ?5?$DN?5?$CFd?0?5?5ver@ 00478748     ssg_vs2008_32:ssgLoadMDL.obj
 0002:00005784       ??_C@_03CNFPPDJC@BMP?$AA@  00478784     ssg_vs2008_32:ssgLoadMDL.obj
 0002:00005788       __real@3df0000000000000    00478788     ssg_vs2008_32:ssgLoadMDL.obj
 0002:00005790       __real@4f800000            00478790     ssg_vs2008_32:ssgLoadMDL.obj
 0002:00005794       ??_C@_0BE@IPDHAIAB@ssgAxisRotation?$CI?$CFx?$CJ?$AA@ 00478794     ssg_vs2008_32:ssgLoadMDL.obj
 0002:000057a8       __real@40efffe000000000    004787a8     ssg_vs2008_32:ssgLoadMDL.obj
 0002:000057b0       ??_C@_04PBCJDDEJ@BGL?5?$AA@ 004787b0     ssg_vs2008_32:ssgLoadMDL.obj
 0002:000057b8       ??_C@_0CK@IIJLNAI@RIFF?5Chunk?5?8?$CFs?8?5found?0?5data?5leng@ 004787b8     ssg_vs2008_32:ssgLoadMDL.obj
 0002:000057e4       ??_C@_0CG@OPDBDNKE@RIFF?5file?0?5subtype?5?8MDL8?8?5recogn@ 004787e4     ssg_vs2008_32:ssgLoadMDL.obj
 0002:0000580c       ??_C@_0CB@NGGNFJBM@Warning?3?5Not?5a?5?8MDL8?8?5RIFF?5file?6@ 0047880c     ssg_vs2008_32:ssgLoadMDL.obj
 0002:00005830       ??_C@_0BK@LMCIBGFM@noGT?$DN?$CFd?0?5noLT?$DN?$CFd?0?5no0?$DN?$CFd?6?$AA@ 00478830     ssg_vs2008_32:ssgLoadMDL.obj
 0002:0000584c       ??_C@_0N@CEHMBBCD@NoLoDs?5?$DN?5?$CFd?6?$AA@ 0047884c     ssg_vs2008_32:ssgLoadMDL.obj
 0002:0000585c       ??_C@_0CM@IBBILLIC@ssgLoadMDL?3?5No?5BGL?5Code?5found?5in@ 0047885c     ssg_vs2008_32:ssgLoadMDL.obj
 0002:00005888       ??_C@_0CJ@HHFDOOLJ@found?5a?5good?5RIFF?5header?5at?5addr@ 00478888     ssg_vs2008_32:ssgLoadMDL.obj
 0002:000058b4       ??_C@_0DB@KCEIMCEN@strange?4?4?4?5found?5RIFF?0?5but?5on?5an@ 004788b4     ssg_vs2008_32:ssgLoadMDL.obj
 0002:000058e8       ??_C@_0CJ@BAIEJKEL@ssgLoadMDL?3?5Couldn?8t?5open?5MDL?5fi@ 004788e8     ssg_vs2008_32:ssgLoadMDL.obj
 0002:00005914       ??_C@_05JODGIKH@Light?$AA@ 00478914     ssg_vs2008_32:ssgLoadASC.obj
 0002:0000591c       ??_C@_08GCJNLIKG@Position?$AA@ 0047891c     ssg_vs2008_32:ssgLoadASC.obj
 0002:00005928       ??_C@_06HDAEFCGM@Direct?$AA@ 00478928     ssg_vs2008_32:ssgLoadASC.obj
 0002:00005930       ??_C@_09IAGFJCLC@Smoothing?$AA@ 00478930     ssg_vs2008_32:ssgLoadASC.obj
 0002:0000593c       ??_C@_08CPBFELGP@Material?$AA@ 0047893c     ssg_vs2008_32:ssgLoadASC.obj
 0002:00005948       ??_C@_04DPOPNPPG@Face?$AA@ 00478948     ssg_vs2008_32:ssgLoadASC.obj
 0002:00005950       ??_C@_06LEBKBMLE@Vertex?$AA@ 00478950     ssg_vs2008_32:ssgLoadASC.obj
 0002:00005958       ??_C@_06FJIHAPPM@Mapped?$AA@ 00478958     ssg_vs2008_32:ssgLoadASC.obj
 0002:00005960       ??_C@_06FHBILLDG@Hidden?$AA@ 00478960     ssg_vs2008_32:ssgLoadASC.obj
 0002:00005968       ??_C@_09PANGKDNJ@Tri?9mesh?0?$AA@ 00478968     ssg_vs2008_32:ssgLoadASC.obj
 0002:00005974       ??_C@_05FJPMODAL@Named?$AA@ 00478974     ssg_vs2008_32:ssgLoadASC.obj
 0002:0000597c       ??_C@_05OICCNCCO@Solid?$AA@ 0047897c     ssg_vs2008_32:ssgLoadASC.obj
 0002:00005984       ??_C@_07EBHHCJEE@Ambient?$AA@ 00478984     ssg_vs2008_32:ssgLoadASC.obj
 0002:0000598c       ??_C@_04IGPKFDJI@Near?$AA@ 0047898c     ssg_vs2008_32:ssgLoadASC.obj
 0002:00005994       ??_C@_04FMDEMHOL@Bank?$AA@ 00478994     ssg_vs2008_32:ssgLoadASC.obj
 0002:0000599c       ??_C@_06FGANPIPG@Target?$AA@ 0047899c     ssg_vs2008_32:ssgLoadASC.obj
 0002:000059a4       ??_C@_06JGBJPOPP@Global?$AA@ 004789a4     ssg_vs2008_32:ssgLoadASC.obj
 0002:000059ac       ??_C@_07GHKCGFCG@Falloff?$AA@ 004789ac     ssg_vs2008_32:ssgLoadASC.obj
 0002:000059b4       ??_C@_07FAHNIAHJ@Hotspot?$AA@ 004789b4     ssg_vs2008_32:ssgLoadASC.obj
 0002:000059bc       ??_C@_09OPGLBMPF@Spotlight?$AA@ 004789bc     ssg_vs2008_32:ssgLoadASC.obj
 0002:000059c8       ??_C@_02CBLDBPFN@?1?1?$AA@ 004789c8     ssg_vs2008_32:ssgLoadASC.obj
 0002:000059cc       ??_C@_01CELHOKLL@?$HN?$AA@ 004789cc     ssg_vs2008_32:ssgLoadASC.obj
 0002:000059d0       ??_C@_01HCONENDN@?$HL?$AA@ 004789d0     ssg_vs2008_32:ssgLoadASC.obj
 0002:000059d4       ??_C@_02JKEIOFH@?$DN?3?$AA@ 004789d4     ssg_vs2008_32:ssgLoadASC.obj
 0002:000059d8       ??_C@_04DEKFDDBK@?$AN?6?7?5?$AA@ 004789d8     ssg_vs2008_32:ssgLoadASC.obj
 0002:000059e4       ??_C@_06JCBBMBIP@Camera?$AA@ 004789e4     ssg_vs2008_32:ssgLoadASC.obj
 0002:000059ec       ??_C@_04NHEGBFAI@Page?$AA@ 004789ec     ssg_vs2008_32:ssgLoadASC.obj
 0002:000059f4       ??_C@_0DB@HICCLOCG@Mesh?5?8?$CFs?8?3?5Index?5?$CFd?5is?5not?5in?5th@ 004789f4     ssg_vs2008_32:ssgLoadASC.obj
 0002:00005a28       ??_C@_05OEPGNJB@light?$AA@ 00478a28     ssg_vs2008_32:ssgLoadASC.obj
 0002:00005a30       ??_C@_08IJJJJJCG@Target?5Z?$AA@ 00478a30     ssg_vs2008_32:ssgLoadASC.obj
 0002:00005a3c       ??_C@_01POHCFINO@Z?$AA@    00478a3c     ssg_vs2008_32:ssgLoadASC.obj
 0002:00005a40       ??_C@_08KCLEMKOF@Target?5Y?$AA@ 00478a40     ssg_vs2008_32:ssgLoadASC.obj
 0002:00005a4c       ??_C@_01NFFPALBN@Y?$AA@    00478a4c     ssg_vs2008_32:ssgLoadASC.obj
 0002:00005a50       ??_C@_08LLKPPLKE@Target?5X?$AA@ 00478a50     ssg_vs2008_32:ssgLoadASC.obj
 0002:00005a5c       ??_C@_01MMEEDKFM@X?$AA@    00478a5c     ssg_vs2008_32:ssgLoadASC.obj
 0002:00005a60       ??_C@_01JLIPDDHJ@?3?$AA@   00478a60     ssg_vs2008_32:ssgLoadASC.obj
 0002:00005a64       ??_C@_07MHOHEFBH@degrees?$AA@ 00478a64     ssg_vs2008_32:ssgLoadASC.obj
 0002:00005a6c       ??_C@_0L@OIPICJPL@Bank?5angle?$AA@ 00478a6c     ssg_vs2008_32:ssgLoadASC.obj
 0002:00005a78       ??_C@_05FECBCJJD@angle?$AA@ 00478a78     ssg_vs2008_32:ssgLoadASC.obj
 0002:00005a80       ??_C@_03DENIJNGB@Far?$AA@  00478a80     ssg_vs2008_32:ssgLoadASC.obj
 0002:00005a84       ??_C@_07CDEAFLMP@light?5Z?$AA@ 00478a84     ssg_vs2008_32:ssgLoadASC.obj
 0002:00005a8c       ??_C@_07IGNAIAM@light?5Y?$AA@ 00478a8c     ssg_vs2008_32:ssgLoadASC.obj
 0002:00005a94       ??_C@_07BBHGDJEN@light?5X?$AA@ 00478a94     ssg_vs2008_32:ssgLoadASC.obj
 0002:00005a9c       ??_C@_0P@BHNNKLLK@Spotlight?5to?5Z?$AA@ 00478a9c     ssg_vs2008_32:ssgLoadASC.obj
 0002:00005aac       ??_C@_0P@DMPAPIHJ@Spotlight?5to?5Y?$AA@ 00478aac     ssg_vs2008_32:ssgLoadASC.obj
 0002:00005abc       ??_C@_0P@CFOLMJDI@Spotlight?5to?5X?$AA@ 00478abc     ssg_vs2008_32:ssgLoadASC.obj
 0002:00005acc       ??_C@_02LBCDJBAJ@to?$AA@   00478acc     ssg_vs2008_32:ssgLoadASC.obj
 0002:00005ad0       ??_C@_0N@EBBFMHBG@Hotspot?5size?$AA@ 00478ad0     ssg_vs2008_32:ssgLoadASC.obj
 0002:00005ae0       ??_C@_04IAGNFIBA@size?$AA@ 00478ae0     ssg_vs2008_32:ssgLoadASC.obj
 0002:00005ae8       ??_C@_0N@MCFPMDP@Falloff?5size?$AA@ 00478ae8     ssg_vs2008_32:ssgLoadASC.obj
 0002:00005af8       ??_C@_06KHOKADBJ@Shadow?$AA@ 00478af8     ssg_vs2008_32:ssgLoadASC.obj
 0002:00005b00       ??_C@_0L@FICMDKCH@Light?5Blue?$AA@ 00478b00     ssg_vs2008_32:ssgLoadASC.obj
 0002:00005b0c       ??_C@_04CAKOHOCJ@Blue?$AA@ 00478b0c     ssg_vs2008_32:ssgLoadASC.obj
 0002:00005b14       ??_C@_0M@IBCIDALH@Light?5Green?$AA@ 00478b14     ssg_vs2008_32:ssgLoadASC.obj
 0002:00005b20       ??_C@_05GGOIJPPE@Green?$AA@ 00478b20     ssg_vs2008_32:ssgLoadASC.obj
 0002:00005b28       ??_C@_09NFINEDNE@Light?5red?$AA@ 00478b28     ssg_vs2008_32:ssgLoadASC.obj
 0002:00005b34       ??_C@_01NEMOKFLO@?$DN?$AA@ 00478b34     ssg_vs2008_32:ssgLoadASC.obj
 0002:00005b38       ??_C@_03PADCEAKC@Red?$AA@  00478b38     ssg_vs2008_32:ssgLoadASC.obj
 0002:00005b3c       ??_C@_0N@BHILECFF@Ambient?5blue?$AA@ 00478b3c     ssg_vs2008_32:ssgLoadASC.obj
 0002:00005b4c       ??_C@_0O@DPGMIHNP@Ambient?5green?$AA@ 00478b4c     ssg_vs2008_32:ssgLoadASC.obj
 0002:00005b5c       ??_C@_0M@NDFMMEJ@Ambient?5red?$AA@ 00478b5c     ssg_vs2008_32:ssgLoadASC.obj
 0002:00005b68       ??_C@_0BA@FNADAHGD@Background?5blue?$AA@ 00478b68     ssg_vs2008_32:ssgLoadASC.obj
 0002:00005b78       ??_C@_0BB@PAJMJKAD@Background?5green?$AA@ 00478b78     ssg_vs2008_32:ssgLoadASC.obj
 0002:00005b8c       ??_C@_0P@FKNFLLCN@Background?5red?$AA@ 00478b8c     ssg_vs2008_32:ssgLoadASC.obj
 0002:00005b9c       ??_C@_0L@EGCKCJDC@background?$AA@ 00478b9c     ssg_vs2008_32:ssgLoadASC.obj
 0002:00005ba8       ??_C@_09BPCNAGO@Mesh?5name?$AA@ 00478ba8     ssg_vs2008_32:ssgLoadASC.obj
 0002:00005bb8       ??_C@_0GG@EGAHBLNL@MeshStatus?4isvalid?5is?5TRUE?4?5Prob@ 00478bb8     ssg_vs2008_32:ssgLoadASC.obj
 0002:00005c20       ??_C@_0N@GLAFHPMD@Number?5faces?$AA@ 00478c20     ssg_vs2008_32:ssgLoadASC.obj
 0002:00005c30       ??_C@_05FAPDJCMD@Faces?$AA@ 00478c30     ssg_vs2008_32:ssgLoadASC.obj
 0002:00005c38       ??_C@_0BA@CDEAEHDL@Number?5vertices?$AA@ 00478c38     ssg_vs2008_32:ssgLoadASC.obj
 0002:00005c48       ??_C@_08JMEOJNII@Vertices?$AA@ 00478c48     ssg_vs2008_32:ssgLoadASC.obj
 0002:00005c54       __real@3f333333            00478c54     ssg_vs2008_32:ssgLoadASC.obj
 0002:00005c58       ??_C@_0O@KFDHPNLL@Material?5name?$AA@ 00478c58     ssg_vs2008_32:ssgLoadASC.obj
 0002:00005c68       ??_C@_01FCMHBHNC@V?$AA@    00478c68     ssg_vs2008_32:ssgLoadASC.obj
 0002:00005c6c       ??_C@_01HJOKEEBB@U?$AA@    00478c6c     ssg_vs2008_32:ssgLoadASC.obj
 0002:00005c70       ??_C@_0N@LBDMLFGB@vertex?5index?$AA@ 00478c70     ssg_vs2008_32:ssgLoadASC.obj
 0002:00005c80       ??_C@_04DONFEANM@list?$AA@ 00478c80     ssg_vs2008_32:ssgLoadASC.obj
 0002:00005c88       ??_C@_0N@DMMDIHGB@vertex?5list?$DP?$AA@ 00478c88     ssg_vs2008_32:ssgLoadASC.obj
 0002:00005c98       ??_C@_02JLAAGLDA@CA?$AA@   00478c98     ssg_vs2008_32:ssgLoadASC.obj
 0002:00005c9c       ??_C@_02KIPEGDIF@BC?$AA@   00478c9c     ssg_vs2008_32:ssgLoadASC.obj
 0002:00005ca0       ??_C@_02LDKJOMJN@AB?$AA@   00478ca0     ssg_vs2008_32:ssgLoadASC.obj
 0002:00005ca4       ??_C@_01GFHCPBMG@C?$AA@    00478ca4     ssg_vs2008_32:ssgLoadASC.obj
 0002:00005ca8       ??_C@_01HMGJMAIH@B?$AA@    00478ca8     ssg_vs2008_32:ssgLoadASC.obj
 0002:00005cac       ??_C@_01FHEEJDEE@A?$AA@    00478cac     ssg_vs2008_32:ssgLoadASC.obj
 0002:00005cb0       ??_C@_0L@LCLPNFAM@Face?5index?$AA@ 00478cb0     ssg_vs2008_32:ssgLoadASC.obj
 0002:00005cbc       ??_C@_0L@DPEAOHAM@Face?5list?$DP?$AA@ 00478cbc     ssg_vs2008_32:ssgLoadASC.obj
 0002:00005cc8       ??_C@_0DJ@DGLCLBKJ@I?5am?5sorry?0?5but?5Entity?9type?5?8?$CFs?8@ 00478cc8     ssg_vs2008_32:ssgLoadASC.obj
 0002:00005d04       ??_C@_0BE@JICBCMFC@unexpected?5token?5?$CFs?$AA@ 00478d04     ssg_vs2008_32:ssgLoadASC.obj
 0002:00005d1c       ??_C@_0P@HFKNPJIE@Material?3?$CC?$CFs?$CC?6?$AA@ 00478d1c     ssg_vs2008_32:ssgSaveASC.obj
 0002:00005d2c       ??_C@_0CI@POIKCIIN@Face?5?$CFd?3?5A?3?$CFd?5B?3?$CFd?5C?3?$CFd?5AB?31?5BC?3@ 00478d2c     ssg_vs2008_32:ssgSaveASC.obj
 0002:00005d54       ??_C@_0M@PFKNCGKN@Face?5list?3?6?$AA@ 00478d54     ssg_vs2008_32:ssgSaveASC.obj
 0002:00005d60       ??_C@_0M@OLGDJNGK@?5U?3?$CFf?5V?3?$CFf?6?$AA@ 00478d60     ssg_vs2008_32:ssgSaveASC.obj
 0002:00005d6c       ??_C@_0BK@ENDJNMIJ@Vertex?5?$CFd?3?5X?3?$CFf?5Y?3?$CFf?5Z?3?$CFf?$AA@ 00478d6c     ssg_vs2008_32:ssgSaveASC.obj
 0002:00005d88       ??_C@_09EDKODFPH@PALGREY27?$AA@ 00478d88     ssg_vs2008_32:ssgSaveASC.obj
 0002:00005d94       ??_C@_0O@LMJMAPA@Vertex?5list?3?6?$AA@ 00478d94     ssg_vs2008_32:ssgSaveASC.obj
 0002:00005da4       ??_C@_07EOLNNBLC@Mapped?6?$AA@ 00478da4     ssg_vs2008_32:ssgSaveASC.obj
 0002:00005dac       ??_C@_0CG@CJGPOGLD@Tri?9mesh?0?5Vertices?3?5?$CFd?5?5?5?5?5Faces@ 00478dac     ssg_vs2008_32:ssgSaveASC.obj
 0002:00005dd4       ??_C@_0BE@HGBMBGKF@Named?5object?3?5?$CC?$CFs?$CC?6?$AA@ 00478dd4     ssg_vs2008_32:ssgSaveASC.obj
 0002:00005de8       ??_C@_0ED@KNNFJGIE@Solid?5background?5color?3?5Red?$DN0?437@ 00478de8     ssg_vs2008_32:ssgSaveASC.obj
 0002:00005e30       ??_C@_0EA@BBBMFOJC@Ambient?5light?5color?3?5Red?$DN0?403921@ 00478e30     ssg_vs2008_32:ssgSaveASC.obj
 0002:00005e70       ??_C@_0CM@JICHOLIG@ssgSaveASC?3?5Failed?5to?5open?5?8?$CFs?8?5@ 00478e70     ssg_vs2008_32:ssgSaveASC.obj
 0002:00005e9c       ??_C@_02CNOGACNO@wa?$AA@   00478e9c     ssg_vs2008_32:ssgSaveASC.obj
 0002:00005ea0       ??_C@_0M@OIHFNOAG@Translation?$AA@ 00478ea0     ssg_vs2008_32:ssgLoadIV.obj
 0002:00005eac       ??_C@_08GFJPCMMD@Rotation?$AA@ 00478eac     ssg_vs2008_32:ssgLoadIV.obj
 0002:00005eb8       ??_C@_05MAGIBEFI@Scale?$AA@ 00478eb8     ssg_vs2008_32:ssgLoadIV.obj
 0002:00005ec0       ??_C@_0BA@MBABGHED@MatrixTransform?$AA@ 00478ec0     ssg_vs2008_32:ssgLoadIV.obj
 0002:00005ed0       ??_C@_0L@HCOICBDD@ShapeHints?$AA@ 00478ed0     ssg_vs2008_32:ssgLoadIV.obj
 0002:00005edc       ??_C@_08LCBPNOHN@Texture2?$AA@ 00478edc     ssg_vs2008_32:ssgLoadIV.obj
 0002:00005ee8       ??_C@_0BD@NEGLAPJH@TextureCoordinate2?$AA@ 00478ee8     ssg_vs2008_32:ssgLoadIV.obj
 0002:00005efc       ??_C@_0M@HMELEGFA@Coordinate3?$AA@ 00478efc     ssg_vs2008_32:ssgLoadIV.obj
 0002:00005f08       ??_C@_0P@BOIOFBNO@IndexedFaceSet?$AA@ 00478f08     ssg_vs2008_32:ssgLoadIV.obj
 0002:00005f18       ??_C@_06PBEDFIPD@Switch?$AA@ 00478f18     ssg_vs2008_32:ssgLoadIV.obj
 0002:00005f20       ??_C@_09IBFEOKHN@Separator?$AA@ 00478f20     ssg_vs2008_32:ssgLoadIV.obj
 0002:00005f2c       ??_C@_02FDICPOPH@?$HN?$FN?$AA@ 00478f2c     ssg_vs2008_32:ssgLoadIV.obj
 0002:00005f30       ??_C@_02BFFCFMD@?$HL?$FL?$AA@ 00478f30     ssg_vs2008_32:ssgLoadIV.obj
 0002:00005f34       ??_C@_05GBMIIBIP@?$AN?6?7?0?5?$AA@ 00478f34     ssg_vs2008_32:ssgLoadIV.obj
 0002:00005f44       ??_7ssgListOfNodes@@6B@    00478f44     ssg_vs2008_32:ssgLoadIV.obj
 0002:00005f78       ??_C@_0BF@GIPEKIPG@Replaced?5element?5?$CFi?4?$AA@ 00478f78     ssg_vs2008_32:ssgLoadIV.obj
 0002:00005f90       ??_C@_05NCLELAOM@wrapT?$AA@ 00478f90     ssg_vs2008_32:ssgLoadIV.obj
 0002:00005f98       ??_C@_06LCBKFLKD@REPEAT?$AA@ 00478f98     ssg_vs2008_32:ssgLoadIV.obj
 0002:00005fa0       ??_C@_05JNPFCGCL@wrapS?$AA@ 00478fa0     ssg_vs2008_32:ssgLoadIV.obj
 0002:00005fa8       ??_C@_08BABJIOEM@filename?$AA@ 00478fa8     ssg_vs2008_32:ssgLoadIV.obj
 0002:00005fb4       ??_C@_0DH@PAOFDGCP@ssgLoadVRML?3?5Failed?5to?5extract?5v@ 00478fb4     ssg_vs2008_32:ssgLoadIV.obj
 0002:00005fec       ??_C@_0CF@JPMKAEMD@ssgLoadIV?3?5valid?5iv?5header?5not?5f@ 00478fec     ssg_vs2008_32:ssgLoadIV.obj
 0002:00006014       ??_C@_0BF@DKGAGKCD@?$CDInventor?5V2?41?5ascii?$AA@ 00479014     ssg_vs2008_32:ssgLoadIV.obj
 0002:0000602c       ??_C@_0CL@LCNNNGNA@ssgLoadIV?3?5Failed?5to?5open?5?8?$CFs?8?5f@ 0047902c     ssg_vs2008_32:ssgLoadIV.obj
 0002:00006058       __real@41a00000            00479058     ssg_vs2008_32:ssgLoadIV.obj
 0002:0000605c       ??_C@_0BC@JHFEMMIM@textureCoordIndex?$AA@ 0047905c     ssg_vs2008_32:ssgLoadIV.obj
 0002:00006070       ??_C@_0L@HMBPFJFA@coordIndex?$AA@ 00479070     ssg_vs2008_32:ssgLoadIV.obj
 0002:00006080       ??_C@_02KNHHEEKP@?5?5?$AA@ 00479080     ssg_vs2008_32:ssgSaveIV.obj
 0002:00006088       ??_C@_0EM@HBKPPHHN@MatrixTransform?5?$HL?5matrix?5?$CFf?5?$CFf?5?$CF@ 00479088     ssg_vs2008_32:ssgSaveIV.obj
 0002:000060d4       ??_C@_0N@LLDLGOEB@?$CFd?0?$CFd?0?$CFd?0?91?0?$AA@ 004790d4     ssg_vs2008_32:ssgSaveIV.obj
 0002:000060e4       ??_C@_0BA@HNGIPIJI@?5?5coordIndex?5?$FL?5?$AA@ 004790e4     ssg_vs2008_32:ssgSaveIV.obj
 0002:000060f4       ??_C@_0BC@CMMOBKBD@IndexedFaceSet?5?$HL?6?$AA@ 004790f4     ssg_vs2008_32:ssgSaveIV.obj
 0002:00006108       ??_C@_0BH@EKPIKEEF@Coordinate3?5?$HL?5point?5?$FL?5?$AA@ 00479108     ssg_vs2008_32:ssgSaveIV.obj
 0002:00006120       ??_C@_05IPOGOMKH@?5?$FN?5?$HN?6?$AA@ 00479120     ssg_vs2008_32:ssgSaveIV.obj
 0002:00006128       ??_C@_07HHDOKDMA@?$CFf?5?$CFf?0?5?$AA@ 00479128     ssg_vs2008_32:ssgSaveIV.obj
 0002:00006130       ??_C@_0CA@LEKNIBLA@SoTextureCoordinate2?5?$HL?5point?5?$FL?5?$AA@ 00479130     ssg_vs2008_32:ssgSaveIV.obj
 0002:00006150       ??_C@_03OAACNKLE@?5?$FN?6?$AA@ 00479150     ssg_vs2008_32:ssgSaveIV.obj
 0002:00006154       ??_C@_09JIHKLBDA@vector?5?$FL?5?$AA@ 00479154     ssg_vs2008_32:ssgSaveIV.obj
 0002:00006160       ??_C@_09IGNLNDJB@Normal?5?$HL?6?$AA@ 00479160     ssg_vs2008_32:ssgSaveIV.obj
 0002:0000616c       ??_C@_0BO@OJDFMGDM@Texture2?5?$HL?5filename?5?$CFc?$CFs?$CFc?5?$HN?6?$AA@ 0047916c     ssg_vs2008_32:ssgSaveIV.obj
 0002:0000618c       ??_C@_02KGHIDFGE@?$HN?6?$AA@ 0047918c     ssg_vs2008_32:ssgSaveIV.obj
 0002:00006190       ??_C@_0BB@CAAFOLMG@transparency?5?$CFf?6?$AA@ 00479190     ssg_vs2008_32:ssgSaveIV.obj
 0002:000061a4       ??_C@_0O@MKBFLDKI@shininess?5?$CFf?6?$AA@ 004791a4     ssg_vs2008_32:ssgSaveIV.obj
 0002:000061b4       ??_C@_0BI@NGLBJMDK@emissiveColor?5?$CFf?5?$CFf?5?$CFf?6?$AA@ 004791b4     ssg_vs2008_32:ssgSaveIV.obj
 0002:000061cc       ??_C@_0BI@GPOCDLLD@specularColor?5?$CFf?5?$CFf?5?$CFf?6?$AA@ 004791cc     ssg_vs2008_32:ssgSaveIV.obj
 0002:000061e4       ??_C@_0BH@EBJMNGHI@ambientColor?5?$CFf?5?$CFf?5?$CFf?6?$AA@ 004791e4     ssg_vs2008_32:ssgSaveIV.obj
 0002:000061fc       ??_C@_02JODFHDIE@?$FN?6?$AA@ 004791fc     ssg_vs2008_32:ssgSaveIV.obj
 0002:00006200       ??_C@_0L@NAFIBIEE@?$CFf?5?$CFf?5?$CFf?0?5?$AA@ 00479200     ssg_vs2008_32:ssgSaveIV.obj
 0002:0000620c       ??_C@_02PFNDMDBO@?$FL?5?$AA@ 0047920c     ssg_vs2008_32:ssgSaveIV.obj
 0002:00006210       ??_C@_0O@HNCPOLNC@diffuseColor?5?$AA@ 00479210     ssg_vs2008_32:ssgSaveIV.obj
 0002:00006220       ??_C@_0M@DPKCDOBC@Material?5?$HL?6?$AA@ 00479220     ssg_vs2008_32:ssgSaveIV.obj
 0002:00006230       ??_C@_0EE@IIMIIAAA@?$CD?5?$CFd?5triangles?0?5?$CFd?5verts?0?5?$CFd?5nor@ 00479230     ssg_vs2008_32:ssgSaveIV.obj
 0002:00006274       ??_C@_0N@JGMHLFAM@Separator?5?$HL?6?$AA@ 00479274     ssg_vs2008_32:ssgSaveIV.obj
 0002:00006284       ??_C@_0L@LHHIHBKO@?$CD?5?$CFs?5?$CI?$CFs?$CJ?6?$AA@ 00479284     ssg_vs2008_32:ssgSaveIV.obj
 0002:00006290       ??_C@_07LFIJDALL@unnamed?$AA@ 00479290     ssg_vs2008_32:ssgSaveIV.obj
 0002:00006298       ??_C@_0CF@GOIKIBBA@?$CDExport?5from?5plib?5version?5?$CFd?4?$CFd?4@ 00479298     ssg_vs2008_32:ssgSaveIV.obj
 0002:000062c0       ??_C@_0BG@FILCPJJC@?$CDInventor?5V2?41?5ascii?6?$AA@ 004792c0     ssg_vs2008_32:ssgSaveIV.obj
 0002:000062dc       ??_C@_0DL@PKALIBAN@ssgLoadVRML?3?5Expected?5a?5float?5fo@ 004792dc     ssg_vs2008_32:ssgLoadVRML1.obj
 0002:00006318       ??_C@_02PGHGPEOM@?91?$AA@  00479318     ssg_vs2008_32:ssgLoadVRML1.obj
 0002:0000631c       ??_C@_0CD@LBHGCMFH@Level?3?5?$CFi?4?5Found?5?$CFi?5vertices?5her@ 0047931c     ssg_vs2008_32:ssgLoadVRML1.obj
 0002:00006340       ??_C@_01LBDDMOBJ@?$FN?$AA@ 00479340     ssg_vs2008_32:ssgLoadVRML1.obj
 0002:00006344       ??_C@_01OHGJGJJP@?$FL?$AA@ 00479344     ssg_vs2008_32:ssgLoadVRML1.obj
 0002:00006348       ??_C@_05BBEJFBFA@point?$AA@ 00479348     ssg_vs2008_32:ssgLoadVRML1.obj
 0002:00006350       ??_C@_0CE@FNPNMMNL@Level?3?5?$CFi?4?5Found?5?$CFi?5TexCoords?5he@ 00479350     ssg_vs2008_32:ssgLoadVRML1.obj
 0002:00006374       ??_C@_0CP@GJNBGKOP@ssgLoadVRML?3?5invalid?5vertex?5orde@ 00479374     ssg_vs2008_32:ssgLoadVRML1.obj
 0002:000063a4       ??_C@_0BB@JOENHJBJ@UNKNOWN_ORDERING?$AA@ 004793a4     ssg_vs2008_32:ssgLoadVRML1.obj
 0002:000063b8       ??_C@_0BB@MMHEIGKH@COUNTERCLOCKWISE?$AA@ 004793b8     ssg_vs2008_32:ssgLoadVRML1.obj
 0002:000063cc       ??_C@_09DOEELBPG@CLOCKWISE?$AA@ 004793cc     ssg_vs2008_32:ssgLoadVRML1.obj
 0002:000063d8       ??_C@_0P@FIFKCDBI@vertexOrdering?$AA@ 004793d8     ssg_vs2008_32:ssgLoadVRML1.obj
 0002:000063e8       ??_C@_0CB@EJLPNPAE@ssgLoadVRML1?3?5invalid?5index?5list@ 004793e8     ssg_vs2008_32:ssgLoadVRML1.obj
 0002:0000640c       ??_C@_0BP@EBMPFGBJ@USE?3?5Found?5a?5use?5directive?5?$CFs?4?$AA@ 0047940c     ssg_vs2008_32:ssgLoadVRML1.obj
 0002:0000642c       ??_C@_03MBJMPENK@USE?$AA@  0047942c     ssg_vs2008_32:ssgLoadVRML1.obj
 0002:00006430       ??_C@_0CE@OLAOIIPH@DEF?3?5Found?5an?5object?5definition?5@ 00479430     ssg_vs2008_32:ssgLoadVRML1.obj
 0002:00006454       ??_C@_03BKLPEICB@DEF?$AA@  00479454     ssg_vs2008_32:ssgLoadVRML1.obj
 0002:00006458       ??_C@_0CL@MBBFDBCJ@ssgLoadVRML1?3?5valid?5vrml1?5header@ 00479458     ssg_vs2008_32:ssgLoadVRML1.obj
 0002:00006484       ??_C@_0BB@IPLCBEOA@?$CDVRML?5V1?40?5ascii?$AA@ 00479484     ssg_vs2008_32:ssgLoadVRML1.obj
 0002:00006498       ??_C@_0CO@NMMBLHPM@ssgLoadVRML1?3?5Failed?5to?5open?5?8?$CFs@ 00479498     ssg_vs2008_32:ssgLoadVRML1.obj
 0002:000064c8       ??_C@_0DL@PIPNCJKH@ssgLoadVRML?3?5Expected?5a?5float?5fo@ 004794c8     ssg_vs2008_32:ssgLoadVRML1.obj
 0002:00006504       ??_C@_06CGNOPMBC@matrix?$AA@ 00479504     ssg_vs2008_32:ssgLoadVRML1.obj
 0002:0000650c       ??_C@_0CC@BHKELLFH@Found?5a?5scale?5transform?3?5?$CFf?5?$CFf?5?$CF@ 0047950c     ssg_vs2008_32:ssgLoadVRML1.obj
 0002:00006530       ??_C@_0M@ICIPBIAP@scaleFactor?$AA@ 00479530     ssg_vs2008_32:ssgLoadVRML1.obj
 0002:0000653c       ??_C@_0BO@GAJAGDCD@Found?5a?5rotation?3?5?$CFf?5?$CFf?5?$CFf?5?$CFf?$AA@ 0047953c     ssg_vs2008_32:ssgLoadVRML1.obj
 0002:0000655c       ??_C@_08OHGOKOGA@rotation?$AA@ 0047955c     ssg_vs2008_32:ssgLoadVRML1.obj
 0002:00006568       ??_C@_0BO@JNCKEMDH@Found?5a?5translation?3?5?$CFf?5?$CFf?5?$CFf?$AA@ 00479568     ssg_vs2008_32:ssgLoadVRML1.obj
 0002:00006588       ??_C@_0M@PAEEAFPO@translation?$AA@ 00479588     ssg_vs2008_32:ssgLoadVRML1.obj
 0002:00006598       ??_C@_06GNLHIPJI@?5?5?5?5?$HN?6?$AA@ 00479598     ssg_vs2008_32:ssgSaveVRML1.obj
 0002:000065a0       ??_C@_0BJ@EGCKMCMM@?5?5?5?5?5?5?5?5specularColor?5?$FL?6?$AA@ 004795a0     ssg_vs2008_32:ssgSaveVRML1.obj
 0002:000065bc       ??_C@_0BJ@EAJMOGOC@?5?5?5?5?5?5?5?5emissiveColor?5?$FL?6?$AA@ 004795bc     ssg_vs2008_32:ssgSaveVRML1.obj
 0002:000065d8       ??_C@_0BI@JCLMMMHN@?5?5?5?5?5?5?5?5ambientColor?5?$FL?6?$AA@ 004795d8     ssg_vs2008_32:ssgSaveVRML1.obj
 0002:000065f0       ??_C@_0L@BBFHMLBI@?5?5?5?5?5?5?5?5?$FN?6?$AA@ 004795f0     ssg_vs2008_32:ssgSaveVRML1.obj
 0002:000065fc       ??_C@_0BH@NOKPLKE@?5?5?5?5?5?5?5?5?5?5?5?5?$CFf?5?$CFf?5?$CFf?0?6?$AA@ 004795fc     ssg_vs2008_32:ssgSaveVRML1.obj
 0002:00006614       ??_C@_0BI@PNFDKAMA@?5?5?5?5?5?5?5?5diffuseColor?5?$FL?6?$AA@ 00479614     ssg_vs2008_32:ssgSaveVRML1.obj
 0002:0000662c       ??_C@_0BA@EJCMMFOG@?5?5?5?5Material?5?$HL?6?$AA@ 0047962c     ssg_vs2008_32:ssgSaveVRML1.obj
 0002:0000663c       ??_C@_0CI@GJAHKOAM@?5?5?5?5MaterialBinding?5?$HL?5value?5PER_@ 0047963c     ssg_vs2008_32:ssgSaveVRML1.obj
 0002:00006664       ??_C@_0BJ@JMGDMFNI@?5?5?5?5?5?5?5?5wrapT?5?5?5?5REPEAT?6?$AA@ 00479664     ssg_vs2008_32:ssgSaveVRML1.obj
 0002:00006680       ??_C@_0BJ@OBBAMDIA@?5?5?5?5?5?5?5?5wrapS?5?5?5?5REPEAT?6?$AA@ 00479680     ssg_vs2008_32:ssgSaveVRML1.obj
 0002:0000669c       ??_C@_0BF@ICBABBMH@?5?5?5?5?5?5?5?5filename?5?$CFs?6?$AA@ 0047969c     ssg_vs2008_32:ssgSaveVRML1.obj
 0002:000066b4       ??_C@_0BA@LKGNCFCE@?5?5?5?5Texture2?5?$HL?6?$AA@ 004796b4     ssg_vs2008_32:ssgSaveVRML1.obj
 0002:000066c4       ??_C@_0BE@IPNOCEEL@?5?5?5?5?5?5?5?5?5?5?5?5?$CFf?5?$CFf?0?6?$AA@ 004796c4     ssg_vs2008_32:ssgSaveVRML1.obj
 0002:000066d8       ??_C@_0CK@COAPMCCO@?5?5?5?5TextureCoordinate2?5?$HL?6?5?5?5?5?5?5?5@ 004796d8     ssg_vs2008_32:ssgSaveVRML1.obj
 0002:00006708       ??_C@_0EF@LDGJNMK@ssgSaveVRML1?3?5Save?5error?3?5index?5@ 00479708     ssg_vs2008_32:ssgSaveVRML1.obj
 0002:00006750       ??_C@_0BN@ENEDKLKK@?5?5?5?5?5?5?5?5?5?5?5?5?$CFd?0?5?$CFd?0?5?$CFd?0?5?91?0?6?$AA@ 00479750     ssg_vs2008_32:ssgSaveVRML1.obj
 0002:00006770       ??_C@_0CL@ICHGONHJ@?5?5?5?5IndexedFaceSet?5?$HL?6?5?5?5?5?5?5?5?5coo@ 00479770     ssg_vs2008_32:ssgSaveVRML1.obj
 0002:0000679c       ??_C@_0BB@DFFKAIHJ@?5?5?5?5?5?5?5?5?$FN?6?5?5?5?5?$HN?6?$AA@ 0047979c     ssg_vs2008_32:ssgSaveVRML1.obj
 0002:000067b0       ??_C@_0CD@LLCCPMDJ@?5?5?5?5Coordinate3?5?$HL?6?5?5?5?5?5?5?5?5point?5@ 004797b0     ssg_vs2008_32:ssgSaveVRML1.obj
 0002:000067d4       ??_C@_0BD@LDNMMFHP@?$CDVRML?5V1?40?5ascii?6?6?$AA@ 004797d4     ssg_vs2008_32:ssgSaveVRML1.obj
 0002:000067e8       ??_C@_0CO@DCFIHOBA@ssgSaveVRML1?3?5Failed?5to?5open?5?8?$CFs@ 004797e8     ssg_vs2008_32:ssgSaveVRML1.obj
 0002:0000681c       ??_C@_03PMGGPEJJ@?$CFd?6?$AA@ 0047981c     ssg_vs2008_32:ssgSaveQHI.obj
 0002:00006820       ??_C@_02NMHMJFKO@3?6?$AA@  00479820     ssg_vs2008_32:ssgSaveQHI.obj
 0002:00006824       __real@38d1b717            00479824     ssg_vs2008_32:ssgSaveQHI.obj
 0002:00006828       ??_C@_0CM@IBBCJHGD@ssgSaveQHI?3?5Failed?5to?5open?5?8?$CFs?8?5@ 00479828     ssg_vs2008_32:ssgSaveQHI.obj
 0002:00006858       ??_C@_0DO@IPILCDL@The?5field?5?$CFs?5should?5contain?5an?5i@ 00479858     ssg_vs2008_32:ssgLoadATG.obj
 0002:00006898       ??_C@_03DHALNKCC@gbs?$AA@  00479898     ssg_vs2008_32:ssgLoadATG.obj
 0002:0000689c       ??_C@_06FDFLJDKG@usemtl?$AA@ 0047989c     ssg_vs2008_32:ssgLoadATG.obj
 0002:000068a4       ??_C@_0BB@NFPLJEII@Warning?3?5no?5eof?6?$AA@ 004798a4     ssg_vs2008_32:ssgLoadATG.obj
 0002:000068b8       ??_C@_0BE@JCEIKIMI@f?5expected?0?5got?5?$CFs?6?$AA@ 004798b8     ssg_vs2008_32:ssgLoadATG.obj
 0002:000068cc       ??_C@_0DM@JPLNKPIN@Internal?5error?5while?5reading?5?$CK?4a@ 004798cc     ssg_vs2008_32:ssgLoadATG.obj
 0002:00006908       ??_C@_0BF@KJAJEKPN@texture?5coord?4?5index?$AA@ 00479908     ssg_vs2008_32:ssgLoadATG.obj
 0002:00006920       ??_C@_01INIBCBCB@f?$AA@    00479920     ssg_vs2008_32:ssgLoadATG.obj
 0002:00006924       ??_C@_0BB@MKHIHPPG@vertex?5texture?4y?$AA@ 00479924     ssg_vs2008_32:ssgLoadATG.obj
 0002:00006938       ??_C@_0BB@NDGDEOLH@vertex?5texture?4x?$AA@ 00479938     ssg_vs2008_32:ssgLoadATG.obj
 0002:0000694c       ??_C@_02BLJBIOPN@vt?$AA@   0047994c     ssg_vs2008_32:ssgLoadATG.obj
 0002:00006950       ??_C@_0BA@EEFNIGMM@vertex?5normal?4z?$AA@ 00479950     ssg_vs2008_32:ssgLoadATG.obj
 0002:00006960       ??_C@_0BA@GPHANFAP@vertex?5normal?4y?$AA@ 00479960     ssg_vs2008_32:ssgLoadATG.obj
 0002:00006970       ??_C@_0BA@HGGLOEEO@vertex?5normal?4x?$AA@ 00479970     ssg_vs2008_32:ssgLoadATG.obj
 0002:00006980       ??_C@_0DB@PMMAJCEI@There?5are?5only?5vertices?5in?5the?5s@ 00479980     ssg_vs2008_32:ssgLoadATG.obj
 0002:000069b4       ??_C@_02KLLMHECG@vn?$AA@   004799b4     ssg_vs2008_32:ssgLoadATG.obj
 0002:000069b8       __real@40e86a0000000000    004799b8     ssg_vs2008_32:ssgLoadATG.obj
 0002:000069c0       ??_C@_08PBFKPLNM@vertex?4z?$AA@ 004799c0     ssg_vs2008_32:ssgLoadATG.obj
 0002:000069cc       ??_C@_08NKHHKIBP@vertex?4y?$AA@ 004799cc     ssg_vs2008_32:ssgLoadATG.obj
 0002:000069d8       ??_C@_08MDGMJJFO@vertex?4x?$AA@ 004799d8     ssg_vs2008_32:ssgLoadATG.obj
 0002:000069e4       ??_C@_01MHEDDDHA@v?$AA@    004799e4     ssg_vs2008_32:ssgLoadATG.obj
 0002:000069e8       ??_C@_0BL@LAODEIOK@The?5file?5seems?5to?5be?5empty?$AA@ 004799e8     ssg_vs2008_32:ssgLoadATG.obj
 0002:00006a08       ??_C@_0BF@OLFPIFEG@f?5?$CFd?1?$CFd?5?$CFd?1?$CFd?5?$CFd?1?$CFd?6?$AA@ 00479a08     ssg_vs2008_32:ssgSaveATG.obj
 0002:00006a20       ??_C@_0N@LEHLIBIH@?$CD?5usemtl?5?$CFs?6?$AA@ 00479a20     ssg_vs2008_32:ssgSaveATG.obj
 0002:00006a30       ??_C@_09BAKLEHLF@vt?5?$CFf?5?$CFf?6?$AA@ 00479a30     ssg_vs2008_32:ssgSaveATG.obj
 0002:00006a3c       ??_C@_0BB@FIOKNCAJ@vn?5?5?5?5?5?$CFf?5?$CFf?5?$CFf?6?$AA@ 00479a3c     ssg_vs2008_32:ssgSaveATG.obj
 0002:00006a50       ??_C@_0M@BFAKBFND@v?5?$CFf?5?$CFf?5?$CFf?6?$AA@ 00479a50     ssg_vs2008_32:ssgSaveATG.obj
 0002:00006a5c       ??_C@_01IPJKGB@?$CD?$AA@   00479a5c     ssg_vs2008_32:ssgSaveATG.obj
 0002:00006a60       ??_C@_0DI@OPIELHCM@?$CD?5Created?5by?5ssgSaveATG?4?5Origina@ 00479a60     ssg_vs2008_32:ssgSaveATG.obj
 0002:00006a98       ??_C@_0CM@EMANJLEN@ssgSaveATG?3?5Failed?5to?5open?5?8?$CFs?8?5@ 00479a98     ssg_vs2008_32:ssgSaveATG.obj
 0002:00006ac4       ??_C@_01FGNFDNOH@?$CF?$AA@ 00479ac4     ssg_vs2008_32:ssgLoadOFF.obj
 0002:00006ac8       ??_C@_02NFLHGFB@?0?$DL?$AA@ 00479ac8     ssg_vs2008_32:ssgLoadOFF.obj
 0002:00006ad0       __real@3e99999a            00479ad0     ssg_vs2008_32:ssgLoadOFF.obj
 0002:00006ad4       __real@3ecccccd            00479ad4     ssg_vs2008_32:ssgLoadOFF.obj
 0002:00006ad8       __real@3f4ccccd            00479ad8     ssg_vs2008_32:ssgLoadOFF.obj
 0002:00006adc       __real@3dcccccd            00479adc     ssg_vs2008_32:ssgLoadOFF.obj
 0002:00006ae0       ??_C@_0N@CECPOJE@Vertex?5index?$AA@ 00479ae0     ssg_vs2008_32:ssgLoadOFF.obj
 0002:00006af0       ??_C@_0CB@PLCDLIJL@number?5of?5vertices?5for?5this?5face@ 00479af0     ssg_vs2008_32:ssgLoadOFF.obj
 0002:00006b14       ??_C@_01GLPGHMHM@z?$AA@    00479b14     ssg_vs2008_32:ssgLoadOFF.obj
 0002:00006b18       ??_C@_01EANLCPLP@y?$AA@    00479b18     ssg_vs2008_32:ssgLoadOFF.obj
 0002:00006b1c       ??_C@_01FJMABOPO@x?$AA@    00479b1c     ssg_vs2008_32:ssgLoadOFF.obj
 0002:00006b20       ??_C@_06KJHPIILD@NEdges?$AA@ 00479b20     ssg_vs2008_32:ssgLoadOFF.obj
 0002:00006b28       ??_C@_06GIGJOCDK@NFaces?$AA@ 00479b28     ssg_vs2008_32:ssgLoadOFF.obj
 0002:00006b30       ??_C@_09BJLONGED@NVertices?$AA@ 00479b30     ssg_vs2008_32:ssgLoadOFF.obj
 0002:00006b40       ??_C@_0EA@ICFCINED@This?5is?5a?5?$CFudD?9OFF?5file?4?5We?5only@ 00479b40     ssg_vs2008_32:ssgLoadOFF.obj
 0002:00006b80       ??_C@_09JLNDFHAM@Dimension?$AA@ 00479b80     ssg_vs2008_32:ssgLoadOFF.obj
 0002:00006b90       ??_C@_0EB@INACPFNB@This?5is?5a?5?$CCST?$CC?9?5?$CCC?$CC?9?5or?5?$CCN?$CC?9OFF?4@ 00479b90     ssg_vs2008_32:ssgLoadOFF.obj
 0002:00006bd4       ??_C@_0DH@NINLBHLC@This?5is?5a?54D?9OFF?5file?4?5We?5only?5s@ 00479bd4     ssg_vs2008_32:ssgLoadOFF.obj
 0002:00006c0c       ??_C@_01EFFIKLCJ@n?$AA@    00479c0c     ssg_vs2008_32:ssgLoadOFF.obj
 0002:00006c10       ??_C@_01FAMBOPH@4?$AA@     00479c10     ssg_vs2008_32:ssgLoadOFF.obj
 0002:00006c14       ??_C@_01NANMIPIL@N?$AA@    00479c14     ssg_vs2008_32:ssgLoadOFF.obj
 0002:00006c18       ??_C@_02LAJDCOFE@ST?$AA@   00479c18     ssg_vs2008_32:ssgLoadOFF.obj
 0002:00006c1c       ??_C@_03MPPIHBHJ@OFF?$AA@  00479c1c     ssg_vs2008_32:ssgLoadOFF.obj
 0002:00006c24       ??_C@_0M@NNHAIINA@3?5?$CFd?5?$CFd?5?$CFd?6?$AA@ 00479c24     ssg_vs2008_32:ssgSaveOFF.obj
 0002:00006c30       ??_C@_08POJFMEM@?$CFd?5?$CFd?50?6?$AA@ 00479c30     ssg_vs2008_32:ssgSaveOFF.obj
 0002:00006c3c       ??_C@_07FADCIADA@nOFF?63?6?$AA@ 00479c3c     ssg_vs2008_32:ssgSaveOFF.obj
 0002:00006c44       ??_C@_0DN@HFKGJGKJ@?$CD?5Model?5output?5by?5ssgSaveOFF?4?5Or@ 00479c44     ssg_vs2008_32:ssgSaveOFF.obj
 0002:00006c84       ??_C@_0CM@PLCGJCAM@ssgSaveOFF?3?5Failed?5to?5open?5?8?$CFs?8?5@ 00479c84     ssg_vs2008_32:ssgSaveOFF.obj
 0002:00006cb4       ??_C@_0CF@INKKGPJO@ssgLoadM?3?5Syntax?5error?5on?5line?5?$CC@ 00479cb4     ssg_vs2008_32:ssgLoadM.obj
 0002:00006cdc       ??_C@_0CD@ELEAGEBF@ssgLoadM?3?5Couldn?8t?5open?5file?5?8?$CFs@ 00479cdc     ssg_vs2008_32:ssgLoadM.obj
 0002:00006d04       ??_C@_0BD@LDEJOFKO@Face?5?$CFd?5?5?$CFd?5?$CFd?5?$CFd?6?$AA@ 00479d04     ssg_vs2008_32:ssgSaveM.obj
 0002:00006d18       ??_C@_0BF@FLOHHILM@Vertex?5?$CFd?5?5?$CFf?5?$CFf?5?$CFf?6?$AA@ 00479d18     ssg_vs2008_32:ssgSaveM.obj
 0002:00006d30       ??_C@_0DL@GNOKFDFI@?$CD?5Model?5output?5by?5ssgSaveM?4?5Orig@ 00479d30     ssg_vs2008_32:ssgSaveM.obj
 0002:00006d6c       ??_C@_0CK@IECDNBIJ@ssgSaveM?3?5Failed?5to?5open?5?8?$CFs?8?5fo@ 00479d6c     ssg_vs2008_32:ssgSaveM.obj
 0002:00006d9c       ??_C@_0CH@NPPPHIGP@ssgLoadStrip?3?5Couldn?8t?5open?5file@ 00479d9c     ssg_vs2008_32:ssgLoadStrip.obj
 0002:00006dc8       ??_C@_03NDEAONJP@?5?5?5?$AA@ 00479dc8     ssg_vs2008_32:ssgLoadFLT.obj
 0002:00006dcc       ??_C@_05HAJCMBLP@?5?$CF02x?$AA@ 00479dcc     ssg_vs2008_32:ssgLoadFLT.obj
 0002:00006dd4       ??_C@_05IFCAAOD@?$CF04x?5?$AA@ 00479dd4     ssg_vs2008_32:ssgLoadFLT.obj
 0002:00006de0       __real@3f847ae140000000    00479de0     ssg_vs2008_32:ssgLoadFLT.obj
 0002:00006de8       __real@c0000000            00479de8     ssg_vs2008_32:ssgLoadFLT.obj
 0002:00006dec       ??_C@_0CO@COLOOGII@?$FLflt?$FN?5More?5than?565536?5vertices?0?5@ 00479dec     ssg_vs2008_32:ssgLoadFLT.obj
 0002:00006e20       ??_C@_0ED@ELLLNHEB@?$FLflt?$FN?5This?5file?5is?5probably?5rath@ 00479e20     ssg_vs2008_32:ssgLoadFLT.obj
 0002:00006e64       ??_C@_0DL@HACAIFDN@?$FLflt?$FN?5This?5file?5contains?5opcodes@ 00479e64     ssg_vs2008_32:ssgLoadFLT.obj
 0002:00006ea0       ??_C@_0DJ@MKOJMOP@or?5by?5email?5to?5plib?9devel?$EAlists?4@ 00479ea0     ssg_vs2008_32:ssgLoadFLT.obj
 0002:00006edc       ??_C@_0DM@OALAKOJD@Please?5report?5this?0?5either?5at?5ht@ 00479edc     ssg_vs2008_32:ssgLoadFLT.obj
 0002:00006f18       ??_C@_0CN@BIJPIEHI@?$FLflt?$FN?5Bad?5record?0?5opcode?5?$CFd?5?$CI?$CFs?$CJ@ 00479f18     ssg_vs2008_32:ssgLoadFLT.obj
 0002:00006f48       __real@3fc99999a0000000    00479f48     ssg_vs2008_32:ssgLoadFLT.obj
 0002:00006f50       __real@3fe99999a0000000    00479f50     ssg_vs2008_32:ssgLoadFLT.obj
 0002:00006f58       ??_C@_0BM@CDEJFFCC@?$FLflt?$FN?5Bad?5vertex?5offset?5?$CFi?4?$AA@ 00479f58     ssg_vs2008_32:ssgLoadFLT.obj
 0002:00006f74       ??_C@_0BJ@PMKFKMKI@?$FLflt?$FN?5Bad?5face?5color?5?$CFd?4?$AA@ 00479f74     ssg_vs2008_32:ssgLoadFLT.obj
 0002:00006f90       __real@3f00307100000000    00479f90     ssg_vs2008_32:ssgLoadFLT.obj
 0002:00006f98       __real@3f70101020000000    00479f98     ssg_vs2008_32:ssgLoadFLT.obj
 0002:00006fa0       __real@3feff7cee0000000    00479fa0     ssg_vs2008_32:ssgLoadFLT.obj
 0002:00006fa8       __real@3ef0001000000000    00479fa8     ssg_vs2008_32:ssgLoadFLT.obj
 0002:00006fb0       __real@3fb99999a0000000    00479fb0     ssg_vs2008_32:ssgLoadFLT.obj
 0002:00006fb8       __real@3a83126f            00479fb8     ssg_vs2008_32:ssgLoadFLT.obj
 0002:00006fbc       ??_C@_0CK@KELEJDHK@?$FLflt?$FN?5Multiple?5vertex?5tables?5not@ 00479fbc     ssg_vs2008_32:ssgLoadFLT.obj
 0002:00006fe8       ??_C@_0CP@CEFDNKKA@?$FLflt?$FN?5Multiple?5material?5tables?5a@ 00479fe8     ssg_vs2008_32:ssgLoadFLT.obj
 0002:00007018       __real@43000000            0047a018     ssg_vs2008_32:ssgLoadFLT.obj
 0002:0000701c       __real@41000000            0047a01c     ssg_vs2008_32:ssgLoadFLT.obj
 0002:00007020       ??_C@_0P@LGMPMNAJ@Material?5Table?$AA@ 0047a020     ssg_vs2008_32:ssgLoadFLT.obj
 0002:00007030       ??_C@_0BC@NILAAFED@Texture?5Reference?$AA@ 0047a030     ssg_vs2008_32:ssgLoadFLT.obj
 0002:00007044       ??_C@_0CN@EEEPCBBB@?$FLflt?$FN?5Multiple?5color?5tables?5are?5@ 0047a044     ssg_vs2008_32:ssgLoadFLT.obj
 0002:00007074       ??_C@_0M@JCBHLNKG@Color?5Table?$AA@ 0047a074     ssg_vs2008_32:ssgLoadFLT.obj
 0002:00007080       ??_C@_0CM@EBAJADMA@?$FLflt?$FN?5Color?5table?5ignored?5?$CIunkno@ 0047a080     ssg_vs2008_32:ssgLoadFLT.obj
 0002:000070ac       ??_C@_0CM@CPEFIDM@?$FLflt?$FN?5Suspicious?5header?5record?5l@ 0047a0ac     ssg_vs2008_32:ssgLoadFLT.obj
 0002:000070d8       ??_C@_0CO@CDBICM@?$FLflt?$FN?5Suspicious?5format?5revision@ 0047a0d8     ssg_vs2008_32:ssgLoadFLT.obj
 0002:00007108       ??_C@_0CA@IIDNOIO@?$FLflt?$FN?5Wrong?5header?5opcode?5?$CI?$CFd?$CJ?4?$AA@ 0047a108     ssg_vs2008_32:ssgLoadFLT.obj
 0002:00007128       ??_C@_0BE@NLAHAHBH@?$FLflt?$FN?5?$CFs?5not?5found?4?$AA@ 0047a128     ssg_vs2008_32:ssgLoadFLT.obj
 0002:0000713c       ??_C@_07KJFPOMFC@?$CFs?3?5?$CFs?6?$AA@ 0047a13c     ssg_vs2008_32:ssgLoadFLT.obj
 0002:00007144       ??_C@_0L@CIEOFPFN@FLTNOCLEAN?$AA@ 0047a144     ssg_vs2008_32:ssgLoadFLT.obj
 0002:00007150       ??_C@_08OCJFGAAJ@FLTNOEXT?$AA@ 0047a150     ssg_vs2008_32:ssgLoadFLT.obj
 0002:0000715c       ??_C@_0M@EGDBDENL@FLTNOMIPMAP?$AA@ 0047a15c     ssg_vs2008_32:ssgLoadFLT.obj
 0002:00007168       ??_C@_08LCHLCPNM@FLTNOTEX?$AA@ 0047a168     ssg_vs2008_32:ssgLoadFLT.obj
 0002:00007174       ??_C@_0BN@BKFIKPMN@?$FLflt?$FN?5Instance?5?$CFd?5redefined?4?$AA@ 0047a174     ssg_vs2008_32:ssgLoadFLT.obj
 0002:00007194       ??_C@_0CA@DLABJMGG@?$FLflt?$FN?5Incomplete?5switch?5record?4?$AA@ 0047a194     ssg_vs2008_32:ssgLoadFLT.obj
 0002:000071b4       ??_C@_0BH@NPKCLODP@?$FLflt?$FN?5Stack?5underflow?4?$AA@ 0047a1b4     ssg_vs2008_32:ssgLoadFLT.obj
 0002:000071cc       ??_C@_0BG@OOMOEBOC@?$FLflt?$FN?5Stack?5overflow?4?$AA@ 0047a1cc     ssg_vs2008_32:ssgLoadFLT.obj
 0002:000071e8       ??_C@_0EC@GFAKPFII@?$FLflt?$FN?5Objects?5are?5not?5allowed?5to@ 0047a1e8     ssg_vs2008_32:ssgLoadFLT.obj
 0002:0000722c       ??_C@_08FINKBBAF@reserved?$AA@ 0047a22c     ssg_vs2008_32:ssgLoadFLT.obj
 0002:0000723c       ??_C@_0CA@IPMJJAKO@Unknown?5Date?4?5?5?5?5?5?5?5?5?5?5?5?5?5?5?5?5?5?5?$AA@ 0047a23c     ssg_vs2008_32:ssgSaveFLT.obj
 0002:0000725c       ??_C@_07GHIAJMBC@?5?5?5?5?5?5?5?$AA@ 0047a25c     ssg_vs2008_32:ssgSaveFLT.obj
 0002:00007264       ??_C@_03CCNLECCA@O?$CFd?$AA@ 0047a264     ssg_vs2008_32:ssgSaveFLT.obj
 0002:00007268       ??_C@_03FPNDANKK@F?$CFd?$AA@ 0047a268     ssg_vs2008_32:ssgSaveFLT.obj
 0002:0000726c       ??_C@_07CCNCPHDL@Animate?$AA@ 0047a26c     ssg_vs2008_32:ssgSaveFLT.obj
 0002:00007274       ??_C@_03JCBNGCIM@Q?$CFd?$AA@ 0047a274     ssg_vs2008_32:ssgSaveFLT.obj
 0002:00007278       ??_C@_03OHGPGKMP@G?$CFd?$AA@ 0047a278     ssg_vs2008_32:ssgSaveFLT.obj
 0002:00007280       __real@c06fe00000000000    0047a280     ssg_vs2008_32:ssgSaveFLT.obj
 0002:00007288       ??_C@_0CH@DACHAANP@Could?5not?5open?5file?5?8?$CFs?8?5for?5wri@ 0047a288     ssg_vs2008_32:ssgSaveFLT.obj
 0002:000072b0       ??_C@_02GMLFBBN@wb?$AA@    0047a2b0     ssg_vs2008_32:ssgSaveFLT.obj
 0002:000072b4       ??_C@_08FJNLKCPH@template?$AA@ 0047a2b4     ssg_vs2008_32:ssgLoadX.obj
 0002:000072c0       ??_C@_0N@CAAIALFF@AnimationSet?$AA@ 0047a2c0     ssg_vs2008_32:ssgLoadX.obj
 0002:000072d0       ??_C@_09ONEINPNJ@Animation?$AA@ 0047a2d0     ssg_vs2008_32:ssgLoadX.obj
 0002:000072dc       ??_C@_0BB@KMPPBDMK@AnimationOptions?$AA@ 0047a2dc     ssg_vs2008_32:ssgLoadX.obj
 0002:000072f0       ??_C@_0N@LAKGI@AnimationKey?$AA@ 0047a2f0     ssg_vs2008_32:ssgLoadX.obj
 0002:00007300       ??_C@_0P@PGMCOBOH@TimedFloatKeys?$AA@ 0047a300     ssg_vs2008_32:ssgLoadX.obj
 0002:00007310       ??_C@_09PNNGDPMM@FloatKeys?$AA@ 0047a310     ssg_vs2008_32:ssgLoadX.obj
 0002:0000731c       ??_C@_05MPDBFDHF@Frame?$AA@ 0047a31c     ssg_vs2008_32:ssgLoadX.obj
 0002:00007324       ??_C@_0BF@BEAJEFHB@FrameTransformMatrix?$AA@ 0047a324     ssg_vs2008_32:ssgLoadX.obj
 0002:0000733c       ??_C@_04GONFKEIN@Mesh?$AA@ 0047a33c     ssg_vs2008_32:ssgLoadX.obj
 0002:00007344       ??_C@_0BB@CHPJDJIB@MeshMaterialList?$AA@ 0047a344     ssg_vs2008_32:ssgLoadX.obj
 0002:00007358       ??_C@_0BB@FLMHPDCM@MeshVertexColors?$AA@ 0047a358     ssg_vs2008_32:ssgLoadX.obj
 0002:0000736c       ??_C@_0M@FBEENDCB@MeshNormals?$AA@ 0047a36c     ssg_vs2008_32:ssgLoadX.obj
 0002:00007378       ??_C@_0BC@CHLBFJPN@MeshTextureCoords?$AA@ 0047a378     ssg_vs2008_32:ssgLoadX.obj
 0002:0000738c       ??_C@_0O@GMKODDFP@MeshFaceWraps?$AA@ 0047a38c     ssg_vs2008_32:ssgLoadX.obj
 0002:0000739c       ??_C@_08JBDFDBEL@MeshFace?$AA@ 0047a39c     ssg_vs2008_32:ssgLoadX.obj
 0002:000073a8       ??_C@_0BA@HLJJEFBM@TextureFilename?$AA@ 0047a3a8     ssg_vs2008_32:ssgLoadX.obj
 0002:000073b8       ??_C@_09EBNBEFJO@Boolean2d?$AA@ 0047a3b8     ssg_vs2008_32:ssgLoadX.obj
 0002:000073c4       ??_C@_07JHGIBOMG@Boolean?$AA@ 0047a3c4     ssg_vs2008_32:ssgLoadX.obj
 0002:000073cc       ??_C@_0O@OKMDOELM@Indexed?5Color?$AA@ 0047a3cc     ssg_vs2008_32:ssgLoadX.obj
 0002:000073dc       ??_C@_08BHBKDPNO@ColorRGB?$AA@ 0047a3dc     ssg_vs2008_32:ssgLoadX.obj
 0002:000073e8       ??_C@_09IIBOJLKI@ColorRGBA?$AA@ 0047a3e8     ssg_vs2008_32:ssgLoadX.obj
 0002:000073f4       ??_C@_09BHBMIAGD@Matrix4x4?$AA@ 0047a3f4     ssg_vs2008_32:ssgLoadX.obj
 0002:00007400       ??_C@_0L@BJJHHMLP@Quaternion?$AA@ 0047a400     ssg_vs2008_32:ssgLoadX.obj
 0002:0000740c       ??_C@_08PPHALHOA@Coords2d?$AA@ 0047a40c     ssg_vs2008_32:ssgLoadX.obj
 0002:00007418       ??_C@_06BOOCMPNK@Vector?$AA@ 0047a418     ssg_vs2008_32:ssgLoadX.obj
 0002:00007420       ??_C@_06OENKJGA@Header?$AA@ 0047a420     ssg_vs2008_32:ssgLoadX.obj
 0002:00007430       ??_7ssgSimpleStateList@@6B@ 0047a430     ssg_vs2008_32:ssgLoadX.obj
 0002:00007464       ??_C@_0N@MBNOAMGL@Header?4flags?$AA@ 0047a464     ssg_vs2008_32:ssgLoadX.obj
 0002:00007474       ??_C@_0N@CMJCADHH@Header?4minor?$AA@ 0047a474     ssg_vs2008_32:ssgLoadX.obj
 0002:00007484       ??_C@_01ICJEACDI@?$DL?$AA@ 0047a484     ssg_vs2008_32:ssgLoadX.obj
 0002:00007488       ??_C@_0N@JDIANPOB@Header?4major?$AA@ 0047a488     ssg_vs2008_32:ssgLoadX.obj
 0002:00007498       ??_C@_0BI@JDMMKCEK@unexpected?5end?5of?5file?6?$AA@ 0047a498     ssg_vs2008_32:ssgLoadX.obj
 0002:000074b0       ??_C@_0O@BPHFNIEN@?$CC?$HL?$CC?5expected?6?$AA@ 0047a4b0     ssg_vs2008_32:ssgLoadX.obj
 0002:000074c0       ??_C@_0CP@PMFADABN@Only?5one?5TextureFileName?5per?5Mat@ 0047a4c0     ssg_vs2008_32:ssgLoadX.obj
 0002:000074f0       ??_C@_0BL@PDOMOPDE@TextureFilename?5expected?$CB?6?$AA@ 0047a4f0     ssg_vs2008_32:ssgLoadX.obj
 0002:0000750c       ??_C@_0L@LHHCDIOP@Emissive?5B?$AA@ 0047a50c     ssg_vs2008_32:ssgLoadX.obj
 0002:00007518       ??_C@_0L@MKAFMMKK@Emissive?5G?$AA@ 0047a518     ssg_vs2008_32:ssgLoadX.obj
 0002:00007524       ??_C@_0L@PNLACKLO@Emissive?5R?$AA@ 0047a524     ssg_vs2008_32:ssgLoadX.obj
 0002:00007530       ??_C@_0L@JFPNHODN@Specular?5B?$AA@ 0047a530     ssg_vs2008_32:ssgLoadX.obj
 0002:0000753c       ??_C@_0L@OIIKIKHI@Specular?5G?$AA@ 0047a53c     ssg_vs2008_32:ssgLoadX.obj
 0002:00007548       ??_C@_0L@NPDPGMGM@Specular?5R?$AA@ 0047a548     ssg_vs2008_32:ssgLoadX.obj
 0002:00007554       ??_C@_05PLIADJJL@power?$AA@ 0047a554     ssg_vs2008_32:ssgLoadX.obj
 0002:0000755c       ??_C@_0N@FIFGEDAF@Facecolour?5A?$AA@ 0047a55c     ssg_vs2008_32:ssgLoadX.obj
 0002:0000756c       ??_C@_0N@HDHLBAMG@Facecolour?5B?$AA@ 0047a56c     ssg_vs2008_32:ssgLoadX.obj
 0002:0000757c       ??_C@_0N@OAMOEID@Facecolour?5G?$AA@ 0047a57c     ssg_vs2008_32:ssgLoadX.obj
 0002:0000758c       ??_C@_0N@DJLJACJH@Facecolour?5R?$AA@ 0047a58c     ssg_vs2008_32:ssgLoadX.obj
 0002:000075a0       ??_C@_0HM@PFJMHLCB@No?5of?5vertices?5of?5mesh?5?$CI?$CFd?$CJ?5and?5@ 0047a5a0     ssg_vs2008_32:ssgLoadX.obj
 0002:0000761c       ??_C@_0O@GIFONNDE@nNoOfVertices?$AA@ 0047a61c     ssg_vs2008_32:ssgLoadX.obj
 0002:0000762c       ??_C@_0BF@JIKKOLOI@Too?5many?5Materials?$CB?6?$AA@ 0047a62c     ssg_vs2008_32:ssgLoadX.obj
 0002:00007644       ??_C@_0BE@NLOIOFBC@Material?5expected?$CB?6?$AA@ 0047a644     ssg_vs2008_32:ssgLoadX.obj
 0002:00007658       ??_C@_0CI@HDMHNKDO@No?5global?5materials?5defined?0?5but@ 0047a658     ssg_vs2008_32:ssgLoadX.obj
 0002:00007680       ??_C@_0BE@FIFDJHPL@Too?5few?5Materials?$CB?6?$AA@ 0047a680     ssg_vs2008_32:ssgLoadX.obj
 0002:00007694       ??_C@_01IHBHIGKO@?0?$AA@   0047a694     ssg_vs2008_32:ssgLoadX.obj
 0002:00007698       ??_C@_0HH@BEGCNAHK@No?5of?5face?5indexes?5of?5materialli@ 0047a698     ssg_vs2008_32:ssgLoadX.obj
 0002:00007710       ??_C@_0BH@FNHDGJNP@number?5of?5Face?5Indexes?$AA@ 0047a710     ssg_vs2008_32:ssgLoadX.obj
 0002:00007728       ??_C@_0L@FDJPCHBD@nMaterials?$AA@ 0047a728     ssg_vs2008_32:ssgLoadX.obj
 0002:00007734       ??_C@_0BA@HALHNPEA@number?5of?5faces?$AA@ 0047a734     ssg_vs2008_32:ssgLoadX.obj
 0002:00007744       ??_C@_04PDBLCCBA@0064?$AA@ 0047a744     ssg_vs2008_32:ssgLoadX.obj
 0002:0000774c       ??_C@_04KDIKEHHN@0032?$AA@ 0047a74c     ssg_vs2008_32:ssgLoadX.obj
 0002:00007754       ??_C@_0BB@COKGINHI@3rd?5Header?5field?$AA@ 0047a754     ssg_vs2008_32:ssgLoadX.obj
 0002:00007768       ??_C@_0JM@JNHEEPBO@This?5loader?5is?5written?5for?5X?9fil@ 0047a768     ssg_vs2008_32:ssgLoadX.obj
 0002:00007804       ??_C@_04LDHJFGMK@0302?$AA@ 0047a804     ssg_vs2008_32:ssgLoadX.obj
 0002:00007810       ??_C@_0KB@EOIHCPDE@Binary?5X?5format?5files?5are?5not?5su@ 0047a810     ssg_vs2008_32:ssgLoadX.obj
 0002:000078b4       ??_C@_03PDOMKJON@bin?$AA@  0047a8b4     ssg_vs2008_32:ssgLoadX.obj
 0002:000078b8       ??_C@_03CLFHJCDC@txt?$AA@  0047a8b8     ssg_vs2008_32:ssgLoadX.obj
 0002:000078bc       ??_C@_0BB@OIAFKLGN@2nd?5Header?5field?$AA@ 0047a8bc     ssg_vs2008_32:ssgLoadX.obj
 0002:000078d0       ??_C@_0BN@GMEDIOEC@not?5X?5format?0?5invalid?5Header?$AA@ 0047a8d0     ssg_vs2008_32:ssgLoadX.obj
 0002:000078f0       ??_C@_03BMOIKM@xof?$AA@    0047a8f0     ssg_vs2008_32:ssgLoadX.obj
 0002:000078f8       ??_C@_0BO@NEDIBFAM@ssgSaveX?3?5Not?5implemented?5yet?$AA@ 0047a8f8     ssg_vs2008_32:ssgSaveX.obj
 0002:0000791c       __real@40400000            0047a91c     ssg_vs2008_32:ssgLoadMD2.obj
 0002:00007920       ??_C@_0CM@KKFIBHNK@ssgLoadMD2?3?5No?5skins?5specified?5i@ 0047a920     ssg_vs2008_32:ssgLoadMD2.obj
 0002:0000794c       ??_C@_0CM@CLIHPPHE@ssgLoadMD2?3?5Failed?5to?5open?5?8?$CFs?8?5@ 0047a94c     ssg_vs2008_32:ssgLoadMD2.obj
 0002:0000797c       ??_C@_0CF@MKFHMIPK@ssgLoadTRI?3?5Can?8t?5parse?5triangle@ 0047a97c     ssg_vs2008_32:ssgLoadTRI.obj
 0002:000079a4       ??_C@_0BO@PMAEBIM@?$CFe?5?$CFe?5?$CFe?5?$CFe?5?$CFe?5?$CFe?5?$CFe?5?$CFe?5?$CFe?5?$CFd?$AA@ 0047a9a4     ssg_vs2008_32:ssgLoadTRI.obj
 0002:000079c4       ??_C@_0CM@EIGMMIKE@ssgLoadTRI?3?5Failed?5to?5open?5?8?$CFs?8?5@ 0047a9c4     ssg_vs2008_32:ssgLoadTRI.obj
 0002:000079f0       ??_C@_02CLCNMADF@ra?$AA@   0047a9f0     ssg_vs2008_32:ssgLoadTRI.obj
 0002:000079f8       ??_C@_09MJOBKFNE@0xFFFFFF?6?$AA@ 0047a9f8     ssg_vs2008_32:ssgSaveTRI.obj
 0002:00007a04       ??_C@_09KPNFNMCB@?$CFf?5?$CFf?5?$CFf?5?$AA@ 0047aa04     ssg_vs2008_32:ssgSaveTRI.obj
 0002:00007a10       ??_C@_0CM@PMAKKNK@ssgSaveTRI?3?5Failed?5to?5open?5?8?$CFs?8?5@ 0047aa10     ssg_vs2008_32:ssgSaveTRI.obj
 0002:00007a40       ??_C@_06FMLIOCOC@map_Kd?$AA@ 0047aa40     ssg_vs2008_32:ssgLoadOBJ.obj
 0002:00007a48       ??_C@_02HIGDGOPJ@Ks?$AA@   0047aa48     ssg_vs2008_32:ssgLoadOBJ.obj
 0002:00007a4c       ??_C@_02HNOAOKGP@Kd?$AA@   0047aa4c     ssg_vs2008_32:ssgLoadOBJ.obj
 0002:00007a50       ??_C@_08GKLGDJB@?$CFe?5?$CFe?5?$CFe?$AA@ 0047aa50     ssg_vs2008_32:ssgLoadOBJ.obj
 0002:00007a5c       ??_C@_02JHBOCK@Ka?$AA@     0047aa5c     ssg_vs2008_32:ssgLoadOBJ.obj
 0002:00007a60       ??_C@_06PNAGKACE@NEWMTL?$AA@ 0047aa60     ssg_vs2008_32:ssgLoadOBJ.obj
 0002:00007a68       ??_C@_04IMIOGFMG@?$CFs?$CFn?$AA@ 0047aa68     ssg_vs2008_32:ssgLoadOBJ.obj
 0002:00007a70       ??_C@_01KICIPPFI@?2?$AA@   0047aa70     ssg_vs2008_32:ssgLoadOBJ.obj
 0002:00007a74       ??_C@_02GHFBGGE@VN?$AA@    0047aa74     ssg_vs2008_32:ssgLoadOBJ.obj
 0002:00007a78       ??_C@_02LGFIOMLP@VT?$AA@   0047aa78     ssg_vs2008_32:ssgLoadOBJ.obj
 0002:00007a7c       ??_C@_01EJNLAFE@P?$AA@     0047aa7c     ssg_vs2008_32:ssgLoadOBJ.obj
 0002:00007a80       ??_C@_01MJMHLOMK@O?$AA@    0047aa80     ssg_vs2008_32:ssgLoadOBJ.obj
 0002:00007a84       ??_C@_06FHHAENHE@USEMTL?$AA@ 0047aa84     ssg_vs2008_32:ssgLoadOBJ.obj
 0002:00007a8c       ??_C@_06CBJFLHNM@MTLLIB?$AA@ 0047aa8c     ssg_vs2008_32:ssgLoadOBJ.obj
 0002:00007a94       ??_C@_02MHMEOBLM@MG?$AA@   0047aa94     ssg_vs2008_32:ssgLoadOBJ.obj
 0002:00007a98       ??_C@_03OAKKIHJK@LOD?$AA@  0047aa98     ssg_vs2008_32:ssgLoadOBJ.obj
 0002:00007a9c       ??_C@_01OCOKONAJ@L?$AA@    0047aa9c     ssg_vs2008_32:ssgLoadOBJ.obj
 0002:00007aa0       ??_C@_01BBODEMC@G?$AA@     0047aaa0     ssg_vs2008_32:ssgLoadOBJ.obj
 0002:00007aa4       ??_C@_04EBEAAKOA@?$CFd?$CFn?$AA@ 0047aaa4     ssg_vs2008_32:ssgLoadOBJ.obj
 0002:00007aac       ??_C@_01BIAFAFID@F?$AA@    0047aaac     ssg_vs2008_32:ssgLoadOBJ.obj
 0002:00007ab0       ??_C@_0CM@MGAFFKEC@ssgLoadOBJ?3?5Failed?5to?5open?5?8?$CFs?8?5@ 0047aab0     ssg_vs2008_32:ssgLoadOBJ.obj
 0002:00007ae0       ??_C@_08LHCLFLLO@l?5?$CFd?5?$CFd?6?$AA@ 0047aae0     ssg_vs2008_32:ssgSaveOBJ.obj
 0002:00007aec       ??_C@_03EBJOKFHF@?5?$CFd?$AA@ 0047aaec     ssg_vs2008_32:ssgSaveOBJ.obj
 0002:00007af0       ??_C@_07OJJMDEKC@?5?$CFd?1?1?$CFd?$AA@ 0047aaf0     ssg_vs2008_32:ssgSaveOBJ.obj
 0002:00007af8       ??_C@_0N@HBKOKNGF@vn?5?$CFf?5?$CFf?5?$CFf?6?$AA@ 0047aaf8     ssg_vs2008_32:ssgSaveOBJ.obj
 0002:00007b08       ??_C@_0P@PCIHLDMH@v?5?$CFf?5?$CFf?5?$CFf?5?$CFf?6?$AA@ 0047ab08     ssg_vs2008_32:ssgSaveOBJ.obj
 0002:00007b18       ??_C@_06CBPDBEE@g?5SSG?6?$AA@ 0047ab18     ssg_vs2008_32:ssgSaveOBJ.obj
 0002:00007b20       ??_C@_0BG@IOAOJJPL@?$CD?5?$CFs?5created?5by?5SSG?4?6?$AA@ 0047ab20     ssg_vs2008_32:ssgSaveOBJ.obj
 0002:00007b38       ??_C@_0CM@IBKJDIDM@ssgSaveOBJ?3?5Failed?5to?5open?5?8?$CFs?8?5@ 0047ab38     ssg_vs2008_32:ssgSaveOBJ.obj
 0002:00007b6c       ??_7dxfVertArray@@6B@      0047ab6c     ssg_vs2008_32:ssgLoadDXF.obj
 0002:00007ba0       ??_C@_04PJPMGNIF@?$CFe?$CFn?$AA@ 0047aba0     ssg_vs2008_32:ssgLoadDXF.obj
 0002:00007ba8       ??_C@_06GIJDCMML@SEQEND?$AA@ 0047aba8     ssg_vs2008_32:ssgLoadDXF.obj
 0002:00007bb0       ??_C@_06LHJBJNBG@ENDBLK?$AA@ 0047abb0     ssg_vs2008_32:ssgLoadDXF.obj
 0002:00007bb8       ??_C@_05DDIIKNEP@BLOCK?$AA@ 0047abb8     ssg_vs2008_32:ssgLoadDXF.obj
 0002:00007bc0       ??_C@_06OEMEAEKN@INSERT?$AA@ 0047abc0     ssg_vs2008_32:ssgLoadDXF.obj
 0002:00007bc8       ??_C@_06HPIMPLPK@VERTEX?$AA@ 0047abc8     ssg_vs2008_32:ssgLoadDXF.obj
 0002:00007bd0       ??_C@_08LPCGIFCB@POLYLINE?$AA@ 0047abd0     ssg_vs2008_32:ssgLoadDXF.obj
 0002:00007bdc       ??_C@_06GEBIMNFM@3DFACE?$AA@ 0047abdc     ssg_vs2008_32:ssgLoadDXF.obj
 0002:00007be4       ??_C@_04LFMILBJH@LINE?$AA@ 0047abe4     ssg_vs2008_32:ssgLoadDXF.obj
 0002:00007bec       ??_C@_0CM@GCGMEGOC@ssgLoadDXF?3?5Failed?5to?5open?5?8?$CFs?8?5@ 0047abec     ssg_vs2008_32:ssgLoadDXF.obj
 0002:00007c1c       ??_C@_03ODGDBAIB@31?6?$AA@ 0047ac1c     ssg_vs2008_32:ssgSaveDXF.obj
 0002:00007c20       ??_C@_03FLNPHHOE@21?6?$AA@ 0047ac20     ssg_vs2008_32:ssgSaveDXF.obj
 0002:00007c24       ??_C@_03EJGKNIAK@11?6?$AA@ 0047ac24     ssg_vs2008_32:ssgSaveDXF.obj
 0002:00007c28       ??_C@_03OCKBHKLG@30?6?$AA@ 0047ac28     ssg_vs2008_32:ssgSaveDXF.obj
 0002:00007c2c       ??_C@_03FKBNBNND@20?6?$AA@ 0047ac2c     ssg_vs2008_32:ssgSaveDXF.obj
 0002:00007c30       ??_C@_03EIKILCDN@10?6?$AA@ 0047ac30     ssg_vs2008_32:ssgSaveDXF.obj
 0002:00007c34       ??_C@_05JEDBCGNM@LINE?6?$AA@ 0047ac34     ssg_vs2008_32:ssgSaveDXF.obj
 0002:00007c3c       ??_C@_03OAOHMEOP@33?6?$AA@ 0047ac3c     ssg_vs2008_32:ssgSaveDXF.obj
 0002:00007c40       ??_C@_03FIFLKDIK@23?6?$AA@ 0047ac40     ssg_vs2008_32:ssgSaveDXF.obj
 0002:00007c44       ??_C@_03EKOOAMGE@13?6?$AA@ 0047ac44     ssg_vs2008_32:ssgSaveDXF.obj
 0002:00007c48       ??_C@_04PNIBBOMO@3?$CFd?6?$AA@ 0047ac48     ssg_vs2008_32:ssgSaveDXF.obj
 0002:00007c50       ??_C@_04MAOBDHHO@2?$CFd?6?$AA@ 0047ac50     ssg_vs2008_32:ssgSaveDXF.obj
 0002:00007c58       ??_C@_03PPOCCAPH@?$CFf?6?$AA@ 0047ac58     ssg_vs2008_32:ssgSaveDXF.obj
 0002:00007c5c       ??_C@_04IHEBENKO@1?$CFd?6?$AA@ 0047ac5c     ssg_vs2008_32:ssgSaveDXF.obj
 0002:00007c64       ??_C@_05NDBPJHOI@Cube?6?$AA@ 0047ac64     ssg_vs2008_32:ssgSaveDXF.obj
 0002:00007c6c       ??_C@_02NACJHKEP@8?6?$AA@  0047ac6c     ssg_vs2008_32:ssgSaveDXF.obj
 0002:00007c70       ??_C@_07JIFGONJI@3DFACE?6?$AA@ 0047ac70     ssg_vs2008_32:ssgSaveDXF.obj
 0002:00007c78       ??_C@_02NODKCLPH@0?6?$AA@  0047ac78     ssg_vs2008_32:ssgSaveDXF.obj
 0002:00007c80       ??_C@_0GD@MCOKDKMN@ssgSaveDXF?3?5OpenGL?5mode?5?$CFd?5not?5i@ 0047ac80     ssg_vs2008_32:ssgSaveDXF.obj
 0002:00007ce4       ??_C@_04OEEBIOEI@EOF?6?$AA@ 0047ace4     ssg_vs2008_32:ssgSaveDXF.obj
 0002:00007cec       ??_C@_09IIGKOONL@ENTITIES?6?$AA@ 0047acec     ssg_vs2008_32:ssgSaveDXF.obj
 0002:00007cf8       ??_C@_07ELJDMHHE@BLOCKS?6?$AA@ 0047acf8     ssg_vs2008_32:ssgSaveDXF.obj
 0002:00007d00       ??_C@_07EOIBGNCE@TABLES?6?$AA@ 0047ad00     ssg_vs2008_32:ssgSaveDXF.obj
 0002:00007d08       ??_C@_07CABHGMEG@ENDSEC?6?$AA@ 0047ad08     ssg_vs2008_32:ssgSaveDXF.obj
 0002:00007d10       ??_C@_0BE@PNNKJMN@?$CFs?5created?5by?5SSG?4?6?$AA@ 0047ad10     ssg_vs2008_32:ssgSaveDXF.obj
 0002:00007d24       ??_C@_04MJJKFDKL@999?6?$AA@ 0047ad24     ssg_vs2008_32:ssgSaveDXF.obj
 0002:00007d2c       ??_C@_07CGPMDOAL@HEADER?6?$AA@ 0047ad2c     ssg_vs2008_32:ssgSaveDXF.obj
 0002:00007d34       ??_C@_02NNLOPPJJ@2?6?$AA@  0047ad34     ssg_vs2008_32:ssgSaveDXF.obj
 0002:00007d38       ??_C@_08MHNHEFHN@SECTION?6?$AA@ 0047ad38     ssg_vs2008_32:ssgSaveDXF.obj
 0002:00007d44       ??_C@_0CM@CFMACEJM@ssgSaveDXF?3?5Failed?5to?5open?5?8?$CFs?8?5@ 0047ad44     ssg_vs2008_32:ssgSaveDXF.obj
 0002:00007d70       ??_C@_04JBNFAOHP@GEND?$AA@ 0047ad70     ssg_vs2008_32:ssgLoadDOF.obj
 0002:00007d78       ??_C@_04MKMHMMFL@BRST?$AA@ 0047ad78     ssg_vs2008_32:ssgLoadDOF.obj
 0002:00007d80       ??_C@_04DHIGGNDH@NORM?$AA@ 0047ad80     ssg_vs2008_32:ssgLoadDOF.obj
 0002:00007d88       ??_C@_04OEPEEBGK@TVER?$AA@ 0047ad88     ssg_vs2008_32:ssgLoadDOF.obj
 0002:00007d90       ??_C@_04JDKLPIAI@VERT?$AA@ 0047ad90     ssg_vs2008_32:ssgLoadDOF.obj
 0002:00007d98       ??_C@_04EBNNMMIE@INDI?$AA@ 0047ad98     ssg_vs2008_32:ssgLoadDOF.obj
 0002:00007da0       ??_C@_04HCLAOGKD@GHDR?$AA@ 0047ada0     ssg_vs2008_32:ssgLoadDOF.obj
 0002:00007da8       ??_C@_04NLGFBGNO@MEND?$AA@ 0047ada8     ssg_vs2008_32:ssgLoadDOF.obj
 0002:00007db0       ??_C@_04OIDOPFIK@MSUB?$AA@ 0047adb0     ssg_vs2008_32:ssgLoadDOF.obj
 0002:00007db8       ??_C@_04NJOCJEJI@MTEX?$AA@ 0047adb8     ssg_vs2008_32:ssgLoadDOF.obj
 0002:00007dc0       ??_C@_04FLILIIHF@MTRA?$AA@ 0047adc0     ssg_vs2008_32:ssgLoadDOF.obj
 0002:00007dc8       ??_C@_04PIKGPCBL@MUVW?$AA@ 0047adc8     ssg_vs2008_32:ssgLoadDOF.obj
 0002:00007dd0       ??_C@_04DHBFKJDN@MCOL?$AA@ 0047add0     ssg_vs2008_32:ssgLoadDOF.obj
 0002:00007dd8       ??_C@_04DIAAPOAC@MHDR?$AA@ 0047add8     ssg_vs2008_32:ssgLoadDOF.obj
 0002:00007de0       ??_C@_04KFDKJKMM@GOB1?$AA@ 0047ade0     ssg_vs2008_32:ssgLoadDOF.obj
 0002:00007de8       ??_C@_04OOFBLNN@MAT0?$AA@  0047ade8     ssg_vs2008_32:ssgLoadDOF.obj
 0002:00007df0       ??_C@_04MGENMDMO@GEOB?$AA@ 0047adf0     ssg_vs2008_32:ssgLoadDOF.obj
 0002:00007df8       ??_C@_04EADFCDLJ@MATS?$AA@ 0047adf8     ssg_vs2008_32:ssgLoadDOF.obj
 0002:00007e00       ??_C@_04GAFNDCMP@EDOF?$AA@ 0047ae00     ssg_vs2008_32:ssgLoadDOF.obj
 0002:00007e08       ??_C@_04OFJDEIMA@DOF1?$AA@ 0047ae08     ssg_vs2008_32:ssgLoadDOF.obj
 0002:00007e14       ??_C@_0BD@DAIODANK@Illegal?5token?5?8?$CFs?8?$AA@ 0047ae14     ssg_vs2008_32:ssgLoadDOF.obj
 0002:00007e28       ??_C@_0DH@NJFAIOII@ssgLoadDOF?3?5Material?5contains?5an@ 0047ae28     ssg_vs2008_32:ssgLoadDOF.obj
 0002:00007e60       ??_C@_0CN@OMGHPNLJ@ssgLoadDOF?3?5Sub?9Materials?5are?5no@ 0047ae60     ssg_vs2008_32:ssgLoadDOF.obj
 0002:00007e90       ??_C@_0CC@MLBLKNCD@MAT0?3?5?5Name?$DN?8?$CFs?8?0?5className?$DN?8?$CFs?8@ 0047ae90     ssg_vs2008_32:ssgLoadDOF.obj
 0002:00007eb4       ??_C@_0BF@OCFPFDDD@Getting?5?$CFd?5materials?$AA@ 0047aeb4     ssg_vs2008_32:ssgLoadDOF.obj
 0002:00007ecc       ??_C@_0DD@ELOBCDPP@ssgLoadDOF?3?5GOB1?5contains?5an?5unr@ 0047aecc     ssg_vs2008_32:ssgLoadDOF.obj
 0002:00007f00       ??_C@_0DE@KLFCGMN@ssgLoadDOF?3?5Geode?5contains?5an?5un@ 0047af00     ssg_vs2008_32:ssgLoadDOF.obj
 0002:00007f34       ??_C@_0BC@GNDOCIGM@Getting?5?$CFd?5geodes?$AA@ 0047af34     ssg_vs2008_32:ssgLoadDOF.obj
 0002:00007f48       ??_C@_0DD@JACOIGAM@ssgLoadDOF?3?5?8?$CFs?8?5contains?5an?5unr@ 0047af48     ssg_vs2008_32:ssgLoadDOF.obj
 0002:00007f7c       ??_C@_0CP@NHEDINGJ@ssgLoadDOF?3?5?8?$CFs?8?5does?5not?5start?5@ 0047af7c     ssg_vs2008_32:ssgLoadDOF.obj
 0002:00007fac       ??_C@_0CM@NPJNAHNH@ssgLoadDOF?3?5Failed?5to?5open?5?8?$CFs?8?5@ 0047afac     ssg_vs2008_32:ssgLoadDOF.obj
 0002:00007fdc       ??_C@_0BF@GLOPAEBD@unknown?5material?5?$CD?$CFd?$AA@ 0047afdc     ssg_vs2008_32:ssgLoadASE.obj
 0002:00007ff4       ??_C@_0CE@NKFFOIMK@ifl?5material?5only?5has?5?$DM2?5frames?3@ 0047aff4     ssg_vs2008_32:ssgLoadASE.obj
 0002:00008018       ??_C@_04MPFMMGNO@ifl_?$AA@ 0047b018     ssg_vs2008_32:ssgLoadASE.obj
 0002:00008020       ??_C@_08BHEBHAME@offset?4v?$AA@ 0047b020     ssg_vs2008_32:ssgLoadASE.obj
 0002:0000802c       ??_C@_0O@KPOPKFDO@?$CKUVW_V_OFFSET?$AA@ 0047b02c     ssg_vs2008_32:ssgLoadASE.obj
 0002:0000803c       ??_C@_08DMGMCDAH@offset?4u?$AA@ 0047b03c     ssg_vs2008_32:ssgLoadASE.obj
 0002:00008048       ??_C@_0O@JGGCJJPL@?$CKUVW_U_OFFSET?$AA@ 0047b048     ssg_vs2008_32:ssgLoadASE.obj
 0002:00008058       ??_C@_08NDLFAJBH@tiling?4v?$AA@ 0047b058     ssg_vs2008_32:ssgLoadASE.obj
 0002:00008064       ??_C@_0O@CDMONOPG@?$CKUVW_V_TILING?$AA@ 0047b064     ssg_vs2008_32:ssgLoadASE.obj
 0002:00008074       ??_C@_08PIJIFKNE@tiling?4u?$AA@ 0047b074     ssg_vs2008_32:ssgLoadASE.obj
 0002:00008080       ??_C@_0O@BKEDOCDD@?$CKUVW_U_TILING?$AA@ 0047b080     ssg_vs2008_32:ssgLoadASE.obj
 0002:00008090       ??_C@_0BA@CIJCNMOF@bitmap?5filename?$AA@ 0047b090     ssg_vs2008_32:ssgLoadASE.obj
 0002:000080a0       ??_C@_0CD@JADPOCOK@multiple?5textures?5for?5material?3?5@ 0047b0a0     ssg_vs2008_32:ssgLoadASE.obj
 0002:000080c4       ??_C@_07GGKGDCLE@?$CKBITMAP?$AA@ 0047b0c4     ssg_vs2008_32:ssgLoadASE.obj
 0002:000080cc       ??_C@_09JEMNPFOB@sub?5mat?5?$CD?$AA@ 0047b0cc     ssg_vs2008_32:ssgLoadASE.obj
 0002:000080d8       ??_C@_0N@GKFHKGBD@?$CKSUBMATERIAL?$AA@ 0047b0d8     ssg_vs2008_32:ssgLoadASE.obj
 0002:000080e8       ??_C@_0N@LJIOIAGM@?$CKMAP_DIFFUSE?$AA@ 0047b0e8     ssg_vs2008_32:ssgLoadASE.obj
 0002:000080f8       ??_C@_0N@CMNBIHOP@transparency?$AA@ 0047b0f8     ssg_vs2008_32:ssgLoadASE.obj
 0002:00008108       ??_C@_0BH@MLIOIKII@?$CKMATERIAL_TRANSPARENCY?$AA@ 0047b108     ssg_vs2008_32:ssgLoadASE.obj
 0002:00008120       __real@4070000000000000    0047b120     ssg_vs2008_32:ssgLoadASE.obj
 0002:00008128       ??_C@_05HGCENMPO@shine?$AA@ 0047b128     ssg_vs2008_32:ssgLoadASE.obj
 0002:00008130       ??_C@_0BA@KIMMIDNB@?$CKMATERIAL_SHINE?$AA@ 0047b130     ssg_vs2008_32:ssgLoadASE.obj
 0002:00008140       ??_C@_06KJGICFOJ@spec?4b?$AA@ 0047b140     ssg_vs2008_32:ssgLoadASE.obj
 0002:00008148       ??_C@_06NEBPNBKM@spec?4g?$AA@ 0047b148     ssg_vs2008_32:ssgLoadASE.obj
 0002:00008150       ??_C@_06ODKKDHLI@spec?4r?$AA@ 0047b150     ssg_vs2008_32:ssgLoadASE.obj
 0002:00008158       ??_C@_0BD@JCKAOBKO@?$CKMATERIAL_SPECULAR?$AA@ 0047b158     ssg_vs2008_32:ssgLoadASE.obj
 0002:0000816c       ??_C@_06FPLGFOBI@diff?4b?$AA@ 0047b16c     ssg_vs2008_32:ssgLoadASE.obj
 0002:00008174       ??_C@_06CCMBKKFN@diff?4g?$AA@ 0047b174     ssg_vs2008_32:ssgLoadASE.obj
 0002:0000817c       ??_C@_06BFHEEMEJ@diff?4r?$AA@ 0047b17c     ssg_vs2008_32:ssgLoadASE.obj
 0002:00008184       ??_C@_0BC@EOFADIKM@?$CKMATERIAL_DIFFUSE?$AA@ 0047b184     ssg_vs2008_32:ssgLoadASE.obj
 0002:00008198       ??_C@_05BIAAGMBI@amb?4b?$AA@ 0047b198     ssg_vs2008_32:ssgLoadASE.obj
 0002:000081a0       ??_C@_05GFHHJIFN@amb?4g?$AA@ 0047b1a0     ssg_vs2008_32:ssgLoadASE.obj
 0002:000081a8       ??_C@_05FCMCHOEJ@amb?4r?$AA@ 0047b1a8     ssg_vs2008_32:ssgLoadASE.obj
 0002:000081b0       ??_C@_0BC@PMAAIDLA@?$CKMATERIAL_AMBIENT?$AA@ 0047b1b0     ssg_vs2008_32:ssgLoadASE.obj
 0002:000081c4       ??_C@_0L@LHDBIGN@?$CFs?0?5sub?$CD?$CFd?$AA@ 0047b1c4     ssg_vs2008_32:ssgLoadASE.obj
 0002:000081d0       ??_C@_08EKANECFC@mat?5name?$AA@ 0047b1d0     ssg_vs2008_32:ssgLoadASE.obj
 0002:000081dc       ??_C@_0P@KMGPFMBM@?$CKMATERIAL_NAME?$AA@ 0047b1dc     ssg_vs2008_32:ssgLoadASE.obj
 0002:000081ec       ??_C@_0BD@OJCNIFNI@too?5many?5materials?$AA@ 0047b1ec     ssg_vs2008_32:ssgLoadASE.obj
 0002:00008200       ??_C@_05DMLMBKGP@mat?5?$CD?$AA@ 0047b200     ssg_vs2008_32:ssgLoadASE.obj
 0002:00008208       ??_C@_09IPLEBICK@?$CKMATERIAL?$AA@ 0047b208     ssg_vs2008_32:ssgLoadASE.obj
 0002:00008214       ??_C@_0BI@FCCICPBO@multiple?5material?5lists?$AA@ 0047b214     ssg_vs2008_32:ssgLoadASE.obj
 0002:00008230       ??_C@_0EC@CODJGENE@The?5field?5face?5?$CD?5should?5contain?5@ 0047b230     ssg_vs2008_32:ssgLoadASE.obj
 0002:00008274       ??_C@_0BD@DEAKBCLL@missing?5?$CKTIMEVALUE?$AA@ 0047b274     ssg_vs2008_32:ssgLoadASE.obj
 0002:00008288       ??_C@_07JDHEICME@cvert?4z?$AA@ 0047b288     ssg_vs2008_32:ssgLoadASE.obj
 0002:00008290       ??_C@_07LIFJNBAH@cvert?4y?$AA@ 0047b290     ssg_vs2008_32:ssgLoadASE.obj
 0002:00008298       ??_C@_07KBECOAEG@cvert?4x?$AA@ 0047b298     ssg_vs2008_32:ssgLoadASE.obj
 0002:000082a0       ??_C@_0O@IOMBHCCO@bad?5cvertex?5?$CD?$AA@ 0047b2a0     ssg_vs2008_32:ssgLoadASE.obj
 0002:000082b0       ??_C@_09KPOOPDGA@cvertex?5?$CD?$AA@ 0047b2b0     ssg_vs2008_32:ssgLoadASE.obj
 0002:000082bc       ??_C@_0O@FKIDKNH@?$CKMESH_VERTCOL?$AA@ 0047b2bc     ssg_vs2008_32:ssgLoadASE.obj
 0002:000082cc       ??_C@_07MOCHOJDF@tvert?4y?$AA@ 0047b2cc     ssg_vs2008_32:ssgLoadASE.obj
 0002:000082d4       ??_C@_07NHDMNIHE@tvert?4x?$AA@ 0047b2d4     ssg_vs2008_32:ssgLoadASE.obj
 0002:000082dc       ??_C@_0O@ELLDOILP@bad?5tvertex?5?$CD?$AA@ 0047b2dc     ssg_vs2008_32:ssgLoadASE.obj
 0002:000082ec       ??_C@_09GKJMGJPB@tvertex?5?$CD?$AA@ 0047b2ec     ssg_vs2008_32:ssgLoadASE.obj
 0002:000082f8       ??_C@_0M@EKDABFLL@?$CKMESH_TVERT?$AA@ 0047b2f8     ssg_vs2008_32:ssgLoadASE.obj
 0002:00008304       ??_C@_06DFFOCFIL@vert?4z?$AA@ 0047b304     ssg_vs2008_32:ssgLoadASE.obj
 0002:0000830c       ??_C@_06BOHDHGEI@vert?4y?$AA@ 0047b30c     ssg_vs2008_32:ssgLoadASE.obj
 0002:00008314       ??_C@_06HGIEHAJ@vert?4x?$AA@ 0047b314     ssg_vs2008_32:ssgLoadASE.obj
 0002:0000831c       ??_C@_0N@LMIMLPP@bad?5vertex?5?$CD?$AA@ 0047b31c     ssg_vs2008_32:ssgLoadASE.obj
 0002:0000832c       ??_C@_08JALNDAML@vertex?5?$CD?$AA@ 0047b32c     ssg_vs2008_32:ssgLoadASE.obj
 0002:00008338       ??_C@_0N@NGAJDBFI@?$CKMESH_VERTEX?$AA@ 0047b338     ssg_vs2008_32:ssgLoadASE.obj
 0002:00008348       ??_C@_0P@NPKKMEIE@vertexNormal?4z?$AA@ 0047b348     ssg_vs2008_32:ssgLoadASE.obj
 0002:00008358       ??_C@_0P@PEIHJHEH@vertexNormal?4y?$AA@ 0047b358     ssg_vs2008_32:ssgLoadASE.obj
 0002:00008368       ??_C@_0P@ONJMKGAG@vertexNormal?4x?$AA@ 0047b368     ssg_vs2008_32:ssgLoadASE.obj
 0002:00008378       ??_C@_0CM@BHMKJPPG@bad?5MESH_VERTEXNORMAL?5entries?5ou@ 0047b378     ssg_vs2008_32:ssgLoadASE.obj
 0002:000083a4       ??_C@_0BA@CFLKENNL@vertex?5normal?5?$CD?$AA@ 0047b3a4     ssg_vs2008_32:ssgLoadASE.obj
 0002:000083b4       ??_C@_0BL@BFHCIIGA@bad?5mesh_face_normal_count?$AA@ 0047b3b4     ssg_vs2008_32:ssgLoadASE.obj
 0002:000083d0       ??_C@_0BN@MCEBAMKN@bad?5mesh_face_normal_index?5?$CD?$AA@ 0047b3d0     ssg_vs2008_32:ssgLoadASE.obj
 0002:000083f0       ??_C@_0BD@GEJDFAIM@?$CKMESH_VERTEXNORMAL?$AA@ 0047b3f0     ssg_vs2008_32:ssgLoadASE.obj
 0002:00008404       ??_C@_0O@LJJNNEEO@face?5normal?5?$CD?$AA@ 0047b404     ssg_vs2008_32:ssgLoadASE.obj
 0002:00008414       ??_C@_0BB@CDDIPKBI@?$CKMESH_FACENORMAL?$AA@ 0047b414     ssg_vs2008_32:ssgLoadASE.obj
 0002:00008428       ??_C@_0M@ILEBBDIO@tface?4cv?$FL2?$FN?$AA@ 0047b428     ssg_vs2008_32:ssgLoadASE.obj
 0002:00008434       ??_C@_0M@IJAHKNNH@tface?4cv?$FL1?$FN?$AA@ 0047b434     ssg_vs2008_32:ssgLoadASE.obj
 0002:00008440       ??_C@_0M@IIMFMHOA@tface?4cv?$FL0?$FN?$AA@ 0047b440     ssg_vs2008_32:ssgLoadASE.obj
 0002:0000844c       ??_C@_0M@KKMAJNAD@bad?5cface?5?$CD?$AA@ 0047b44c     ssg_vs2008_32:ssgLoadASE.obj
 0002:00008458       ??_C@_07LLPJBJMD@cface?5?$CD?$AA@ 0047b458     ssg_vs2008_32:ssgLoadASE.obj
 0002:00008460       ??_C@_0M@PFFMMNBK@?$CKMESH_CFACE?$AA@ 0047b460     ssg_vs2008_32:ssgLoadASE.obj
 0002:0000846c       ??_C@_0M@JFJCCBKN@tface?4tv?$FL2?$FN?$AA@ 0047b46c     ssg_vs2008_32:ssgLoadASE.obj
 0002:00008478       ??_C@_0M@JHNEJPPE@tface?4tv?$FL1?$FN?$AA@ 0047b478     ssg_vs2008_32:ssgLoadASE.obj
 0002:00008484       ??_C@_0M@JGBGPFMD@tface?4tv?$FL0?$FN?$AA@ 0047b484     ssg_vs2008_32:ssgLoadASE.obj
 0002:00008490       ??_C@_0M@NMLOKFDB@bad?5tface?5?$CD?$AA@ 0047b490     ssg_vs2008_32:ssgLoadASE.obj
 0002:0000849c       ??_C@_07MNIHCBPB@tface?5?$CD?$AA@ 0047b49c     ssg_vs2008_32:ssgLoadASE.obj
 0002:000084a4       ??_C@_0M@OLIPPPDJ@?$CKMESH_TFACE?$AA@ 0047b4a4     ssg_vs2008_32:ssgLoadASE.obj
 0002:000084b0       ??_C@_0M@DDJAAEMC@?$CKMESH_MTLID?$AA@ 0047b4b0     ssg_vs2008_32:ssgLoadASE.obj
 0002:000084bc       ??_C@_09HDLMFJCO@face?4v?$FL2?$FN?$AA@ 0047b4bc     ssg_vs2008_32:ssgLoadASE.obj
 0002:000084c8       ??_C@_02FHMLMLAN@C?3?$AA@  0047b4c8     ssg_vs2008_32:ssgLoadASE.obj
 0002:000084cc       ??_C@_09HBPKOHHH@face?4v?$FL1?$FN?$AA@ 0047b4cc     ssg_vs2008_32:ssgLoadASE.obj
 0002:000084d8       ??_C@_02FGAJKBDK@B?3?$AA@  0047b4d8     ssg_vs2008_32:ssgLoadASE.obj
 0002:000084dc       ??_C@_09HADIINEA@face?4v?$FL0?$FN?$AA@ 0047b4dc     ssg_vs2008_32:ssgLoadASE.obj
 0002:000084e8       ??_C@_02FEEPBPGD@A?3?$AA@  0047b4e8     ssg_vs2008_32:ssgLoadASE.obj
 0002:000084ec       ??_C@_0L@CFFMCCFH@bad?5face?5?$CD?$AA@ 0047b4ec     ssg_vs2008_32:ssgLoadASE.obj
 0002:000084f8       ??_C@_06BNNDLOIM@face?5?$CD?$AA@ 0047b4f8     ssg_vs2008_32:ssgLoadASE.obj
 0002:00008500       ??_C@_0L@FFFGDMGJ@?$CKMESH_FACE?$AA@ 0047b500     ssg_vs2008_32:ssgLoadASE.obj
 0002:0000850c       ??_C@_0L@HLLPIFP@num_cverts?$AA@ 0047b50c     ssg_vs2008_32:ssgLoadASE.obj
 0002:00008518       ??_C@_0BA@KNNHKFDM@?$CFs?5already?5seen?$AA@ 0047b518     ssg_vs2008_32:ssgLoadASE.obj
 0002:00008528       ??_C@_0BB@EIAPHOIJ@?$CKMESH_NUMCVERTEX?$AA@ 0047b528     ssg_vs2008_32:ssgLoadASE.obj
 0002:0000853c       ??_C@_0L@KFMCFKBP@num_tverts?$AA@ 0047b53c     ssg_vs2008_32:ssgLoadASE.obj
 0002:00008548       ??_C@_0BB@DOHBEGLL@?$CKMESH_NUMTVERTEX?$AA@ 0047b548     ssg_vs2008_32:ssgLoadASE.obj
 0002:0000855c       ??_C@_09ONGJJNKL@num_verts?$AA@ 0047b55c     ssg_vs2008_32:ssgLoadASE.obj
 0002:00008568       ??_C@_0BA@HNHPGJCI@?$CKMESH_NUMVERTEX?$AA@ 0047b568     ssg_vs2008_32:ssgLoadASE.obj
 0002:00008578       ??_C@_0BO@IHNHHBPK@NUMCFACES?$CI?$CFd?$CJ?5?$CB?$DN?5NUMFACES?$CI?$CFd?$CJ?$AA@ 0047b578     ssg_vs2008_32:ssgLoadASE.obj
 0002:00008598       ??_C@_07PMIAANMO@ncfaces?$AA@ 0047b598     ssg_vs2008_32:ssgLoadASE.obj
 0002:000085a0       ??_C@_0BB@MHOBFHJI@?$CKMESH_NUMCVFACES?$AA@ 0047b5a0     ssg_vs2008_32:ssgLoadASE.obj
 0002:000085b4       ??_C@_0BO@LHGJMCJ@NUMTFACES?$CI?$CFd?$CJ?5?$CB?$DN?5NUMFACES?$CI?$CFd?$CJ?$AA@ 0047b5b4     ssg_vs2008_32:ssgLoadASE.obj
 0002:000085d4       ??_C@_07FOPJKPIO@ntfaces?$AA@ 0047b5d4     ssg_vs2008_32:ssgLoadASE.obj
 0002:000085dc       ??_C@_0BB@LBJPGPKK@?$CKMESH_NUMTVFACES?$AA@ 0047b5dc     ssg_vs2008_32:ssgLoadASE.obj
 0002:000085f0       ??_C@_09OOHOMAEN@num_faces?$AA@ 0047b5f0     ssg_vs2008_32:ssgLoadASE.obj
 0002:000085fc       ??_C@_0P@CMIKIHI@?$CKMESH_NUMFACES?$AA@ 0047b5fc     ssg_vs2008_32:ssgLoadASE.obj
 0002:0000860c       ??_C@_04CLCEDBPF@time?$AA@ 0047b60c     ssg_vs2008_32:ssgLoadASE.obj
 0002:00008614       ??_C@_0L@BPNBKNEB@?$CKTIMEVALUE?$AA@ 0047b614     ssg_vs2008_32:ssgLoadASE.obj
 0002:00008620       ??_C@_0P@LPIEGNHB@internal?5error?$AA@ 0047b620     ssg_vs2008_32:ssgLoadASE.obj
 0002:00008630       ??_C@_08BNIOLGIB@bad?5time?$AA@ 0047b630     ssg_vs2008_32:ssgLoadASE.obj
 0002:0000863c       ??_C@_07HGMNFLIJ@scale?4z?$AA@ 0047b63c     ssg_vs2008_32:ssgLoadASE.obj
 0002:00008644       ??_C@_07FNOAAIEK@scale?4y?$AA@ 0047b644     ssg_vs2008_32:ssgLoadASE.obj
 0002:0000864c       ??_C@_07EEPLDJAL@scale?4x?$AA@ 0047b64c     ssg_vs2008_32:ssgLoadASE.obj
 0002:00008654       ??_C@_0BG@DJDILDAE@?$CKCONTROL_SCALE_SAMPLE?$AA@ 0047b654     ssg_vs2008_32:ssgLoadASE.obj
 0002:0000866c       ??_C@_07CJGNBAGI@easeOut?$AA@ 0047b66c     ssg_vs2008_32:ssgLoadASE.obj
 0002:00008674       ??_C@_06EOAKPCHE@easeIn?$AA@ 0047b674     ssg_vs2008_32:ssgLoadASE.obj
 0002:0000867c       ??_C@_04NBAGBPGE@bias?$AA@ 0047b67c     ssg_vs2008_32:ssgLoadASE.obj
 0002:00008684       ??_C@_04INBALIPC@cont?$AA@ 0047b684     ssg_vs2008_32:ssgLoadASE.obj
 0002:0000868c       ??_C@_04HPCMIFMD@tens?$AA@ 0047b68c     ssg_vs2008_32:ssgLoadASE.obj
 0002:00008694       ??_C@_0BF@OMBCDKDA@?$CKCONTROL_TCB_ROT_KEY?$AA@ 0047b694     ssg_vs2008_32:ssgLoadASE.obj
 0002:000086ac       ??_C@_06KCIIAIKE@axis?4z?$AA@ 0047b6ac     ssg_vs2008_32:ssgLoadASE.obj
 0002:000086b4       ??_C@_06IJKFFLGH@axis?4y?$AA@ 0047b6b4     ssg_vs2008_32:ssgLoadASE.obj
 0002:000086bc       ??_C@_06JALOGKCG@axis?4x?$AA@ 0047b6bc     ssg_vs2008_32:ssgLoadASE.obj
 0002:000086c4       ??_C@_0BE@OCINHHED@?$CKCONTROL_ROT_SAMPLE?$AA@ 0047b6c4     ssg_vs2008_32:ssgLoadASE.obj
 0002:000086d8       ??_C@_05MAPEEGOF@pos?4z?$AA@ 0047b6d8     ssg_vs2008_32:ssgLoadASE.obj
 0002:000086e0       ??_C@_05OLNJBFCG@pos?4y?$AA@ 0047b6e0     ssg_vs2008_32:ssgLoadASE.obj
 0002:000086e8       ??_C@_05PCMCCEGH@pos?4x?$AA@ 0047b6e8     ssg_vs2008_32:ssgLoadASE.obj
 0002:000086f0       ??_C@_0BE@NOIAKDEL@?$CKCONTROL_POS_SAMPLE?$AA@ 0047b6f0     ssg_vs2008_32:ssgLoadASE.obj
 0002:00008704       ??_C@_08NNJFIKKE@obj?5name?$AA@ 0047b704     ssg_vs2008_32:ssgLoadASE.obj
 0002:00008710       ??_C@_0L@GAIDCMN@?$CKNODE_NAME?$AA@ 0047b710     ssg_vs2008_32:ssgLoadASE.obj
 0002:0000871c       ??_C@_0O@CLCBHAAE@?$CKMATERIAL_REF?$AA@ 0047b71c     ssg_vs2008_32:ssgLoadASE.obj
 0002:0000872c       ??_C@_0O@DDDPJABH@?$CKTM_ANIMATION?$AA@ 0047b72c     ssg_vs2008_32:ssgLoadASE.obj
 0002:0000873c       ??_C@_0BA@OENPCADC@?$CKMESH_ANIMATION?$AA@ 0047b73c     ssg_vs2008_32:ssgLoadASE.obj
 0002:0000874c       ??_C@_05LCPJBJBP@?$CKMESH?$AA@ 0047b74c     ssg_vs2008_32:ssgLoadASE.obj
 0002:00008754       ??_C@_0O@IGDFHMOE@inherit_pos?4z?$AA@ 0047b754     ssg_vs2008_32:ssgLoadASE.obj
 0002:00008764       ??_C@_0O@KNBICPCH@inherit_pos?4y?$AA@ 0047b764     ssg_vs2008_32:ssgLoadASE.obj
 0002:00008774       ??_C@_0O@LEADBOGG@inherit_pos?4x?$AA@ 0047b774     ssg_vs2008_32:ssgLoadASE.obj
 0002:00008784       ??_C@_0N@IDKHDHBI@?$CKINHERIT_POS?$AA@ 0047b784     ssg_vs2008_32:ssgLoadASE.obj
 0002:00008794       ??_C@_07NCJBJMM@?$CKTM_POS?$AA@ 0047b794     ssg_vs2008_32:ssgLoadASE.obj
 0002:0000879c       ??_C@_07ECLPIIIF@?4Target?$AA@ 0047b79c     ssg_vs2008_32:ssgLoadASE.obj
 0002:000087a4       ??_C@_08DJKLABLA@?$CKNODE_TM?$AA@ 0047b7a4     ssg_vs2008_32:ssgLoadASE.obj
 0002:000087b0       ??_C@_0M@PCIFLNIO@parent?5name?$AA@ 0047b7b0     ssg_vs2008_32:ssgLoadASE.obj
 0002:000087bc       ??_C@_0N@MHABCBNB@?$CKNODE_PARENT?$AA@ 0047b7bc     ssg_vs2008_32:ssgLoadASE.obj
 0002:000087cc       ??_C@_0BD@BEPKFJAL@invalid?5?$CFs?5version?$AA@ 0047b7cc     ssg_vs2008_32:ssgLoadASE.obj
 0002:000087e0       ??_C@_0P@EOBOMNAF@not?5ASE?5format?$AA@ 0047b7e0     ssg_vs2008_32:ssgLoadASE.obj
 0002:000087f0       ??_C@_0O@KEBLPMNH@?$CKCAMERAOBJECT?$AA@ 0047b7f0     ssg_vs2008_32:ssgLoadASE.obj
 0002:00008800       ??_C@_0O@HKEIPEBH@?$CKHELPEROBJECT?$AA@ 0047b800     ssg_vs2008_32:ssgLoadASE.obj
 0002:00008810       ??_C@_0M@KACODMLC@?$CKGEOMOBJECT?$AA@ 0047b810     ssg_vs2008_32:ssgLoadASE.obj
 0002:0000881c       ??_C@_0P@FGHKIKPJ@?$CKMATERIAL_LIST?$AA@ 0047b81c     ssg_vs2008_32:ssgLoadASE.obj
 0002:0000882c       ??_C@_0BA@NGKELPPO@TICKSPERFRAME?5?$CD?$AA@ 0047b82c     ssg_vs2008_32:ssgLoadASE.obj
 0002:0000883c       ??_C@_0BF@LOLEDIGM@?$CKSCENE_TICKSPERFRAME?$AA@ 0047b83c     ssg_vs2008_32:ssgLoadASE.obj
 0002:00008854       ??_C@_0N@HAEMJAHA@FRAMESPEED?5?$CD?$AA@ 0047b854     ssg_vs2008_32:ssgLoadASE.obj
 0002:00008864       ??_C@_0BC@EGNGOPIC@?$CKSCENE_FRAMESPEED?$AA@ 0047b864     ssg_vs2008_32:ssgLoadASE.obj
 0002:00008878       ??_C@_0M@MOOJMHLE@LASTFRAME?5?$CD?$AA@ 0047b878     ssg_vs2008_32:ssgLoadASE.obj
 0002:00008884       ??_C@_0BB@NNBFEFEM@?$CKSCENE_LASTFRAME?$AA@ 0047b884     ssg_vs2008_32:ssgLoadASE.obj
 0002:00008898       ??_C@_0N@IJHNMPF@FIRSTFRAME?5?$CD?$AA@ 0047b898     ssg_vs2008_32:ssgLoadASE.obj
 0002:000088a8       ??_C@_0BC@BFPMGIKM@?$CKSCENE_FIRSTFRAME?$AA@ 0047b8a8     ssg_vs2008_32:ssgLoadASE.obj
 0002:000088bc       ??_C@_06MHNHKNBG@?$CKSCENE?$AA@ 0047b8bc     ssg_vs2008_32:ssgLoadASE.obj
 0002:000088c4       ??_C@_0P@MINEHDOI@version?5number?$AA@ 0047b8c4     ssg_vs2008_32:ssgLoadASE.obj
 0002:000088d4       ??_C@_0BE@CKPGNJKL@?$CK3DSMAX_ASCIIEXPORT?$AA@ 0047b8d4     ssg_vs2008_32:ssgLoadASE.obj
 0002:000088e8       ??_C@_0BC@ENOOLCNF@not?5enough?5memory?$AA@ 0047b8e8     ssg_vs2008_32:ssgLoadASE.obj
 0002:00008900       ??_C@_04POOIJLFB@?5?5?$HN?6?$AA@ 0047b900     ssg_vs2008_32:ssgSaveASE.obj
 0002:00008908       ??_C@_0CA@PIDPODHF@?5?5?5?5?5?5?$CKBITMAP_FILTER?5Pyramidal?6?$AA@ 0047b908     ssg_vs2008_32:ssgSaveASE.obj
 0002:00008928       ??_C@_0BP@BEHAAPDB@?5?5?5?5?5?5?$CKUVW_NOISE_PHASE?50?40000?6?$AA@ 0047b928     ssg_vs2008_32:ssgSaveASE.obj
 0002:00008948       ??_C@_0BK@BNKFLCNO@?5?5?5?5?5?5?$CKUVW_NOISE_LEVEL?51?6?$AA@ 0047b948     ssg_vs2008_32:ssgSaveASE.obj
 0002:00008964       ??_C@_0BO@JNPPKKNM@?5?5?5?5?5?5?$CKUVW_NOISE_SIZE?51?40000?6?$AA@ 0047b964     ssg_vs2008_32:ssgSaveASE.obj
 0002:00008984       ??_C@_0BN@OJDIODHE@?5?5?5?5?5?5?$CKUVW_NOUSE_AMT?51?40000?6?$AA@ 0047b984     ssg_vs2008_32:ssgSaveASE.obj
 0002:000089a4       ??_C@_0BP@INIAKNII@?5?5?5?5?5?5?$CKUVW_BLUR_OFFSET?50?40000?6?$AA@ 0047b9a4     ssg_vs2008_32:ssgSaveASE.obj
 0002:000089c4       ??_C@_0BI@OMHCOND@?5?5?5?5?5?5?$CKUVW_BLUR?51?40000?6?$AA@ 0047b9c4     ssg_vs2008_32:ssgSaveASE.obj
 0002:000089dc       ??_C@_0BJ@BOPMJNDO@?5?5?5?5?5?5?$CKUVW_ANGLE?50?40000?6?$AA@ 0047b9dc     ssg_vs2008_32:ssgSaveASE.obj
 0002:000089f8       ??_C@_0BM@NBFMKJFI@?5?5?5?5?5?5?$CKUVW_V_TILING?51?40000?6?$AA@ 0047b9f8     ssg_vs2008_32:ssgSaveASE.obj
 0002:00008a14       ??_C@_0BM@ICMGPCNM@?5?5?5?5?5?5?$CKUVW_U_TILING?51?40000?6?$AA@ 0047ba14     ssg_vs2008_32:ssgSaveASE.obj
 0002:00008a30       ??_C@_0BM@OCDMPKJF@?5?5?5?5?5?5?$CKUVW_V_OFFSET?50?40000?6?$AA@ 0047ba30     ssg_vs2008_32:ssgSaveASE.obj
 0002:00008a4c       ??_C@_0BM@LBKGKBBB@?5?5?5?5?5?5?$CKUVW_U_OFFSET?50?40000?6?$AA@ 0047ba4c     ssg_vs2008_32:ssgSaveASE.obj
 0002:00008a68       ??_C@_0BL@OEKFEPIO@?5?5?5?5?5?5?$CKMAP_TYPE?5Spherical?6?$AA@ 0047ba68     ssg_vs2008_32:ssgSaveASE.obj
 0002:00008a84       ??_C@_0BE@EELNAIBB@?5?5?5?5?5?5?$CKBITMAP?5?$CC?$CFs?$CC?6?$AA@ 0047ba84     ssg_vs2008_32:ssgSaveASE.obj
 0002:00008a98       ??_C@_0BK@LCHKGAFK@?5?5?5?5?5?5?$CKMAP_AMOUNT?51?40000?6?$AA@ 0047ba98     ssg_vs2008_32:ssgSaveASE.obj
 0002:00008ab4       ??_C@_0BE@ELNAKNHK@?5?5?5?5?5?5?$CKMAP_SUBNO?51?6?$AA@ 0047bab4     ssg_vs2008_32:ssgSaveASE.obj
 0002:00008ac8       ??_C@_0BL@LOGEJEDB@?5?5?5?5?5?5?$CKMAP_CLASS?5?$CCBitmap?$CC?6?$AA@ 0047bac8     ssg_vs2008_32:ssgSaveASE.obj
 0002:00008ae4       ??_C@_0BL@BGCLPFOJ@?5?5?5?5?5?5?$CKMAP_NAME?5?$CCMap?5?$CD?$CFd?$CC?6?$AA@ 0047bae4     ssg_vs2008_32:ssgSaveASE.obj
 0002:00008b00       ??_C@_0BE@NOMELIJJ@?5?5?5?5?$CKMAP_DIFFUSE?5?$HL?6?$AA@ 0047bb00     ssg_vs2008_32:ssgSaveASE.obj
 0002:00008b14       ??_C@_0BO@MNMMOCPE@?5?5?5?5?$CKMATERIAL_XP_TYPE?5Filter?6?$AA@ 0047bb14     ssg_vs2008_32:ssgSaveASE.obj
 0002:00008b34       ??_C@_0BG@JOMFCKJJ@?5?5?5?5?$CKMATERIAL_SOFTEN?6?$AA@ 0047bb34     ssg_vs2008_32:ssgSaveASE.obj
 0002:00008b4c       ??_C@_0BK@NHJBJPLB@?5?5?5?5?$CKMATERIAL_FALLOFF?5In?6?$AA@ 0047bb4c     ssg_vs2008_32:ssgSaveASE.obj
 0002:00008b68       ??_C@_0BI@CHGNOFNC@?5?5?5?5?$CKMATERIAL_TWOSIDED?6?$AA@ 0047bb68     ssg_vs2008_32:ssgSaveASE.obj
 0002:00008b80       ??_C@_0CA@GJLLLGAI@?5?5?5?5?$CKMATERIAL_SELFILLUM?50?40000?6?$AA@ 0047bb80     ssg_vs2008_32:ssgSaveASE.obj
 0002:00008ba0       ??_C@_0CB@NNKKGDPA@?5?5?5?5?$CKMATERIAL_XP_FALLOFF?50?40000?6@ 0047bba0     ssg_vs2008_32:ssgSaveASE.obj
 0002:00008bc4       ??_C@_0BN@DDMFIBPL@?5?5?5?5?$CKMATERIAL_SHADING?5Blinn?6?$AA@ 0047bbc4     ssg_vs2008_32:ssgSaveASE.obj
 0002:00008be4       ??_C@_0BP@BNEEHMKA@?5?5?5?5?$CKMATERIAL_WIRESIZE?51?40000?6?$AA@ 0047bbe4     ssg_vs2008_32:ssgSaveASE.obj
 0002:00008c04       ??_C@_0BP@PIBJKEOC@?5?5?5?5?$CKMATERIAL_TRANSPARENCY?5?$CFf?6?$AA@ 0047bc04     ssg_vs2008_32:ssgSaveASE.obj
 0002:00008c24       ??_C@_0CA@LFOEIIGH@?5?5?5?5?$CKMATERIAL_SHINESTRENGTH?5?$CFf?6?$AA@ 0047bc24     ssg_vs2008_32:ssgSaveASE.obj
 0002:00008c44       ??_C@_0BI@GNDBPDPJ@?5?5?5?5?$CKMATERIAL_SHINE?5?$CFf?6?$AA@ 0047bc44     ssg_vs2008_32:ssgSaveASE.obj
 0002:00008c5c       ??_C@_0CB@NHLIGADN@?5?5?5?5?$CKMATERIAL_SPECULAR?5?$CFf?5?$CFf?5?$CFf?6@ 0047bc5c     ssg_vs2008_32:ssgSaveASE.obj
 0002:00008c80       ??_C@_0CA@KOLEPKJI@?5?5?5?5?$CKMATERIAL_DIFFUSE?5?$CFf?5?$CFf?5?$CFf?6?$AA@ 0047bc80     ssg_vs2008_32:ssgSaveASE.obj
 0002:00008ca0       ??_C@_0CA@LLNLGIPB@?5?5?5?5?$CKMATERIAL_AMBIENT?5?$CFf?5?$CFf?5?$CFf?6?$AA@ 0047bca0     ssg_vs2008_32:ssgSaveASE.obj
 0002:00008cc0       ??_C@_0CA@BCOPLHLC@?5?5?5?5?$CKMATERIAL_CLASS?5?$CCStandard?$CC?6?$AA@ 0047bcc0     ssg_vs2008_32:ssgSaveASE.obj
 0002:00008ce0       ??_C@_0CD@BJDDMGJN@?5?5?5?5?$CKMATERIAL_NAME?5?$CCMaterial?5?$CD?$CFd@ 0047bce0     ssg_vs2008_32:ssgSaveASE.obj
 0002:00008d04       ??_C@_0BC@IAIMMNCA@?5?5?$CKMATERIAL?5?$CFd?5?$HL?6?$AA@ 0047bd04     ssg_vs2008_32:ssgSaveASE.obj
 0002:00008d18       ??_C@_0BG@DJDPLHMO@?5?5?$CKMATERIAL_COUNT?5?$CFd?6?$AA@ 0047bd18     ssg_vs2008_32:ssgSaveASE.obj
 0002:00008d30       ??_C@_0BC@MJNAGAOP@?$CKMATERIAL_LIST?5?$HL?6?$AA@ 0047bd30     ssg_vs2008_32:ssgSaveASE.obj
 0002:00008d44       ??_C@_0BE@EMBKJKAF@?5?5?$CKMATERIAL_REF?5?$CFd?6?$AA@ 0047bd44     ssg_vs2008_32:ssgSaveASE.obj
 0002:00008d58       ??_C@_0BG@JLDGBDNB@?5?5?$CKPROP_RECVSHADOW?51?6?$AA@ 0047bd58     ssg_vs2008_32:ssgSaveASE.obj
 0002:00008d70       ??_C@_0BG@PEEGPAGA@?5?5?$CKPROP_CASTSHADOW?51?6?$AA@ 0047bd70     ssg_vs2008_32:ssgSaveASE.obj
 0002:00008d88       ??_C@_0BG@EMEGFMMB@?5?5?$CKPROP_MOTIONBLUR?50?6?$AA@ 0047bd88     ssg_vs2008_32:ssgSaveASE.obj
 0002:00008da0       ??_C@_0BI@POCBNPNO@?5?5?5?5?$CKMESH_NUMCVERTEX?50?6?$AA@ 0047bda0     ssg_vs2008_32:ssgSaveASE.obj
 0002:00008db8       ??_C@_05KJDAJCPN@done?6?$AA@ 0047bdb8     ssg_vs2008_32:ssgSaveASE.obj
 0002:00008dc0       ??_C@_0BI@HJOMAOJG@?5?5?5?5?$CKMESH_NUMTVERTEX?50?6?$AA@ 0047bdc0     ssg_vs2008_32:ssgSaveASE.obj
 0002:00008dd8       ??_C@_0BP@FKJDLMCK@?5?5?5?5?5?5?$CKMESH_TFACE?5?$CFd?5?$CFd?5?$CFd?5?$CFd?6?$AA@ 0047bdd8     ssg_vs2008_32:ssgSaveASE.obj
 0002:00008df8       ??_C@_0BH@KOEAJIML@?5?5?5?5?$CKMESH_TFACELIST?5?$HL?6?$AA@ 0047bdf8     ssg_vs2008_32:ssgSaveASE.obj
 0002:00008e10       ??_C@_0BJ@KELHHODE@?5?5?5?5?$CKMESH_NUMTVFACES?5?$CFd?6?$AA@ 0047be10     ssg_vs2008_32:ssgSaveASE.obj
 0002:00008e2c       ??_C@_0BP@NCFEHBLG@?5?5?5?5?5?5?$CKMESH_TVERT?5?$CFd?5?$CFf?5?$CFf?5?$CFf?6?$AA@ 0047be2c     ssg_vs2008_32:ssgSaveASE.obj
 0002:00008e4c       ??_C@_0BH@GBFGLKFB@?5?5?5?5?$CKMESH_TVERTLIST?5?$HL?6?$AA@ 0047be4c     ssg_vs2008_32:ssgSaveASE.obj
 0002:00008e64       ??_C@_0BJ@MGHEHDHC@?5?5?5?5?$CKMESH_NUMTVERTEX?5?$CFd?6?$AA@ 0047be64     ssg_vs2008_32:ssgSaveASE.obj
 0002:00008e80       ??_C@_0DC@MPCNBBPM@?5AB?3?51?5BC?3?51?5CA?3?51?5?$CKMESH_SMOOTHI@ 0047be80     ssg_vs2008_32:ssgSaveASE.obj
 0002:00008eb4       ??_C@_0CH@KJNKLJC@?5?5?5?5?5?5?$CKMESH_FACE?5?$CFd?3?5A?3?5?$CFd?5B?3?5?$CFd@ 0047beb4     ssg_vs2008_32:ssgSaveASE.obj
 0002:00008edc       ??_C@_0BH@GCBPGDLM@?5?5?5?5?$CKMESH_FACE_LIST?5?$HL?6?$AA@ 0047bedc     ssg_vs2008_32:ssgSaveASE.obj
 0002:00008ef4       ??_C@_0CA@NBMHDLIL@?5?5?5?5?5?5?$CKMESH_VERTEX?5?$CFd?5?$CFf?5?$CFf?5?$CFf?6?$AA@ 0047bef4     ssg_vs2008_32:ssgSaveASE.obj
 0002:00008f14       ??_C@_0BJ@ICJOMCKF@?5?5?5?5?$CKMESH_VERTEX_LIST?5?$HL?6?$AA@ 0047bf14     ssg_vs2008_32:ssgSaveASE.obj
 0002:00008f30       ??_C@_0BH@NIDHEFBM@?5?5?5?5?$CKMESH_NUMFACES?5?$CFd?6?$AA@ 0047bf30     ssg_vs2008_32:ssgSaveASE.obj
 0002:00008f48       ??_C@_0BI@IPPPAOM@?5?5?5?5?$CKMESH_NUMVERTEX?5?$CFd?6?$AA@ 0047bf48     ssg_vs2008_32:ssgSaveASE.obj
 0002:00008f60       ??_C@_0BC@LPCMBMIJ@?5?5?5?5?$CKTIMEVALUE?50?6?$AA@ 0047bf60     ssg_vs2008_32:ssgSaveASE.obj
 0002:00008f74       ??_C@_0L@OCNOOBP@?5?5?$CKMESH?5?$HL?6?$AA@ 0047bf74     ssg_vs2008_32:ssgSaveASE.obj
 0002:00008f80       ??_C@_0BN@CLAECPOP@?5?5?5?5?$CKTM_SCALEAXISANG?50?40000?6?$AA@ 0047bf80     ssg_vs2008_32:ssgSaveASE.obj
 0002:00008fa0       ??_C@_0CI@HADIKFCI@?5?5?5?5?$CKTM_SCALEAXIS?50?40000?50?40000?5@ 0047bfa0     ssg_vs2008_32:ssgSaveASE.obj
 0002:00008fc8       ??_C@_0CE@LDFOCNAM@?5?5?5?5?$CKTM_SCALE?51?40000?51?40000?51?400@ 0047bfc8     ssg_vs2008_32:ssgSaveASE.obj
 0002:00008fec       ??_C@_0BJ@FFBKNBEM@?5?5?5?5?$CKTM_ROTANGLE?50?40000?6?$AA@ 0047bfec     ssg_vs2008_32:ssgSaveASE.obj
 0002:00009008       ??_C@_0CG@OCHJGDIN@?5?5?5?5?$CKTM_ROTAXIS?50?40000?50?40000?50?4@ 0047c008     ssg_vs2008_32:ssgSaveASE.obj
 0002:00009030       ??_C@_0CC@GEKDPLBK@?5?5?5?5?$CKTM_POS?50?40000?50?40000?50?40000@ 0047c030     ssg_vs2008_32:ssgSaveASE.obj
 0002:00009054       ??_C@_0CD@PECJJING@?5?5?5?5?$CKTM_ROW3?50?40000?50?40000?50?4000@ 0047c054     ssg_vs2008_32:ssgSaveASE.obj
 0002:00009078       ??_C@_0CD@LJKGPNGP@?5?5?5?5?$CKTM_ROW2?50?40000?50?40000?51?4000@ 0047c078     ssg_vs2008_32:ssgSaveASE.obj
 0002:0000909c       ??_C@_0CD@JEOJIPDB@?5?5?5?5?$CKTM_ROW1?50?40000?51?40000?50?4000@ 0047c09c     ssg_vs2008_32:ssgSaveASE.obj
 0002:000090c0       ??_C@_0CD@LLBPFFDO@?5?5?5?5?$CKTM_ROW0?51?40000?50?40000?50?4000@ 0047c0c0     ssg_vs2008_32:ssgSaveASE.obj
 0002:000090e4       ??_C@_0BI@EGFMHIAE@?5?5?5?5?$CKINHERIT_SCL?50?50?50?6?$AA@ 0047c0e4     ssg_vs2008_32:ssgSaveASE.obj
 0002:000090fc       ??_C@_0BI@IKPGKHCD@?5?5?5?5?$CKINHERIT_ROT?50?50?50?6?$AA@ 0047c0fc     ssg_vs2008_32:ssgSaveASE.obj
 0002:00009114       ??_C@_0BI@LGPLHDCL@?5?5?5?5?$CKINHERIT_POS?50?50?50?6?$AA@ 0047c114     ssg_vs2008_32:ssgSaveASE.obj
 0002:0000912c       ??_C@_0BF@PNOHHFLD@?5?5?5?5?$CKNODE_NAME?5?$CC?$CFs?$CC?6?$AA@ 0047c12c     ssg_vs2008_32:ssgSaveASE.obj
 0002:00009144       ??_C@_0O@ELEMPJII@?5?5?$CKNODE_TM?5?$HL?6?$AA@ 0047c144     ssg_vs2008_32:ssgSaveASE.obj
 0002:00009154       ??_C@_0BD@OLNPAMIE@?5?5?$CKNODE_NAME?5?$CC?$CFs?$CC?6?$AA@ 0047c154     ssg_vs2008_32:ssgSaveASE.obj
 0002:00009168       ??_C@_0P@GLIGJOOL@?$CKGEOMOBJECT?5?$HL?6?$AA@ 0047c168     ssg_vs2008_32:ssgSaveASE.obj
 0002:00009178       ??_C@_0CO@HABAOFHH@?5?5?$CKSCENE_AMBIENT_STATIC?50?40431?50@ 0047c178     ssg_vs2008_32:ssgSaveASE.obj
 0002:000091a8       ??_C@_0DB@NHEOGFBM@?5?5?$CKSCENE_BACKGROUND_STATIC?50?4000@ 0047c1a8     ssg_vs2008_32:ssgSaveASE.obj
 0002:000091dc       ??_C@_0BM@OEKPJNEO@?5?5?$CKSCENE_TICKSPERFRAME?5160?6?$AA@ 0047c1dc     ssg_vs2008_32:ssgSaveASE.obj
 0002:000091f8       ??_C@_0BI@KHDDJDGC@?5?5?$CKSCENE_FRAMESPEED?530?6?$AA@ 0047c1f8     ssg_vs2008_32:ssgSaveASE.obj
 0002:00009210       ??_C@_0BI@FNCLCPBH@?5?5?$CKSCENE_LASTFRAME?5100?6?$AA@ 0047c210     ssg_vs2008_32:ssgSaveASE.obj
 0002:00009228       ??_C@_0BH@OCFCGDJ@?5?5?$CKSCENE_FIRSTFRAME?50?6?$AA@ 0047c228     ssg_vs2008_32:ssgSaveASE.obj
 0002:00009240       ??_C@_0BG@BABJOFOC@?5?5?$CKSCENE_FILENAME?5?$CC?$CC?6?$AA@ 0047c240     ssg_vs2008_32:ssgSaveASE.obj
 0002:00009258       ??_C@_09BJMMJKND@?$CKSCENE?5?$HL?6?$AA@ 0047c258     ssg_vs2008_32:ssgSaveASE.obj
 0002:00009264       ??_C@_0BM@HLKMHDKC@?$CKCOMMENT?5?$CCcreated?5by?5SSG?4?$CC?6?$AA@ 0047c264     ssg_vs2008_32:ssgSaveASE.obj
 0002:00009280       ??_C@_0BJ@HAGLIALF@?$CK3DSMAX_ASCIIEXPORT?5200?6?$AA@ 0047c280     ssg_vs2008_32:ssgSaveASE.obj
 0002:0000929c       ??_C@_0CM@FEPAJBPF@ssgSaveASE?3?5Failed?5to?5open?5?8?$CFs?8?5@ 0047c29c     ssg_vs2008_32:ssgSaveASE.obj
 0002:000092cc       ??_C@_07IPFNGGAE@mat?5?$CFd?6?$AA@ 0047c2cc     ssg_vs2008_32:ssgSaveAC.obj
 0002:000092d4       ??_C@_0M@PGOLJCLC@SURF?50x0?$CFx?6?$AA@ 0047c2d4     ssg_vs2008_32:ssgSaveAC.obj
 0002:000092e0       ??_C@_07FLBBIKAN@kids?51?6?$AA@ 0047c2e0     ssg_vs2008_32:ssgSaveAC.obj
 0002:000092e8       ??_C@_0FG@JCOGOAAL@MATERIAL?5?$CC?$CFs?$CC?5rgb?5?$CFf?5?$CFf?5?$CFf?5amb?5?$CF@ 0047c2e8     ssg_vs2008_32:ssgSaveAC.obj
 0002:00009340       ??_C@_0CL@JOIGNOCA@ssgSaveAC?3?5Failed?5to?5open?5?8?$CFs?8?5f@ 0047c340     ssg_vs2008_32:ssgSaveAC.obj
 0002:0000936c       ??_C@_0BM@MFNBPNFH@ssgLoad3ds?5default?5material?$AA@ 0047c36c     ssg_vs2008_32:ssgLoad3ds.obj
 0002:00009390       __real@4059000000000000    0047c390     ssg_vs2008_32:ssgLoad3ds.obj
 0002:00009398       __real@4060000000000000    0047c398     ssg_vs2008_32:ssgLoad3ds.obj
 0002:000093a0       ??_C@_0CE@GKCGFNBD@ssgLoad3ds?3?5Texture?5coords?5missi@ 0047c3a0     ssg_vs2008_32:ssgLoad3ds.obj
 0002:000093c4       ??_C@_0CM@FIKKFPNK@?7geometry?5objects?5?8?$CFs?8?5split?5int@ 0047c3c4     ssg_vs2008_32:ssgLoad3ds.obj
 0002:000093f0       __real@40c5550000000000    0047c3f0     ssg_vs2008_32:ssgLoad3ds.obj
 0002:000093f8       ??_C@_0DI@LGFMGPBJ@ssgLoad3ds?3?5Undefined?5reference?5@ 0047c3f8     ssg_vs2008_32:ssgLoad3ds.obj
 0002:00009430       ??_C@_0EF@EMGIHCLA@ssgLoad3ds?3?5Hierarchy?5entry?5?$CC?$CFd?$CC@ 0047c430     ssg_vs2008_32:ssgLoad3ds.obj
 0002:00009478       ??_C@_05LFHGFJK@?$CFs_?$CFd?$AA@ 0047c478     ssg_vs2008_32:ssgLoad3ds.obj
 0002:00009480       ??_C@_08JOFKDJHC@$$$DUMMY?$AA@ 0047c480     ssg_vs2008_32:ssgLoad3ds.obj
 0002:00009490       ??_C@_0EO@OPCJBPCG@ssgLoad3ds?3?5Illegal?5chunk?5?$CFX?5of?5@ 0047c490     ssg_vs2008_32:ssgLoad3ds.obj
 0002:000094e0       ??_C@_0CM@IENCHPOE@ssgLoad3ds?3?5Failed?5to?5open?5?8?$CFs?8?5@ 0047c4e0     ssg_vs2008_32:ssgLoad3ds.obj
 0002:00009510       ??_C@_0N@MPLPFLEF@Material?5?$CD?$CFd?$AA@ 0047c510     ssg_vs2008_32:ssgSave3ds.obj
 0002:00009520       ??_C@_0CA@MOGGMIKE@ssgSave3ds?3?5Material?5not?5found?4?$AA@ 0047c520     ssg_vs2008_32:ssgSave3ds.obj
 0002:00009560       __real@3f80000000000000    0047c560     ssg_vs2008_32:ssgSave3ds.obj
 0002:00009568       ??_C@_0GD@IMCMIGGJ@State?5?$CC?$CFs?$CC?5has?5GL_COLOR_MATERIAL@ 0047c568     ssg_vs2008_32:ssgSave3ds.obj
 0002:000095cc       ??_C@_0CM@MDHOBNJK@ssgSave3ds?3?5Failed?5to?5open?5?8?$CFs?8?5@ 0047c5cc     ssg_vs2008_32:ssgSave3ds.obj
 0002:00009600       ??_7_ssgBaseList@@6B@      0047c600     ssg_vs2008_32:ssgLoadSSG.obj
 0002:00009634       ??_C@_0BL@GOJFBFCG@ssgLoadObject?3?5Read?5error?4?$AA@ 0047c634     ssg_vs2008_32:ssgLoadSSG.obj
 0002:00009650       ??_C@_0DB@PAIIAGPB@ssgLoadObject?3?5Failed?5to?5load?5ob@ 0047c650     ssg_vs2008_32:ssgLoadSSG.obj
 0002:00009684       ??_C@_0CL@IEIPOBB@ssgLoadObject?3?5Bad?5type?5?$CF?$CDx?0?5exp@ 0047c684     ssg_vs2008_32:ssgLoadSSG.obj
 0002:000096b0       ??_C@_0DA@FLGOOEMI@ssgLoadObject?3?5Bad?5type?5?$CF?$CDx?5?$CI?$CFs?$CJ@ 0047c6b0     ssg_vs2008_32:ssgLoadSSG.obj
 0002:000096e0       ??_C@_0DC@MNPFFNIE@ssgLoadObject?3?5Unexpected?5null?5o@ 0047c6e0     ssg_vs2008_32:ssgLoadSSG.obj
 0002:00009714       ??_C@_0BM@JBJNLBJA@ssgSaveObject?3?5Write?5error?4?$AA@ 0047c714     ssg_vs2008_32:ssgLoadSSG.obj
 0002:00009730       ??_C@_0DB@JCCEHPOL@ssgSaveObject?3?5Failed?5to?5save?5ob@ 0047c730     ssg_vs2008_32:ssgLoadSSG.obj
 0002:00009764       ??_C@_0CD@KMCHDOII@ssgLoadSSG?3?5Failed?5to?5load?5objec@ 0047c764     ssg_vs2008_32:ssgLoadSSG.obj
 0002:00009788       ??_C@_0DO@BPFFCOGD@ssgLoadSSG?3?5This?5version?5of?5SSG?5@ 0047c788     ssg_vs2008_32:ssgLoadSSG.obj
 0002:000097c8       ??_C@_0GA@MBJDEGPD@ssgLoadSSG?3?5SSG?5file?5format?5vers@ 0047c7c8     ssg_vs2008_32:ssgLoadSSG.obj
 0002:00009828       ??_C@_0CN@FLANAKFO@ssgLoadSSG?3?5File?5has?5incorrect?5m@ 0047c828     ssg_vs2008_32:ssgLoadSSG.obj
 0002:00009858       ??_C@_0CN@DJBGKFJL@ssgLoadSSG?3?5File?5appears?5to?5be?5b@ 0047c858     ssg_vs2008_32:ssgLoadSSG.obj
 0002:00009888       ??_C@_0CN@PFDMKOPE@ssgLoadSSG?3?5Failed?5to?5open?5?8?$CFs?8?5@ 0047c888     ssg_vs2008_32:ssgLoadSSG.obj
 0002:000098b8       ??_C@_0CE@PMDDCJFH@ssgSaveSSG?3?5Failed?5to?5write?5obje@ 0047c8b8     ssg_vs2008_32:ssgLoadSSG.obj
 0002:000098dc       ??_C@_0CN@ECMGFOKN@ssgSaveSSG?3?5Failed?5to?5open?5?8?$CFs?8?5@ 0047c8dc     ssg_vs2008_32:ssgLoadSSG.obj
 0002:00009910       ??_C@_0BG@JJALKCAL@DList?5stack?5overflow?$CB?$AA@ 0047c910     ssg_vs2008_32:ssgDList.obj
 0002:00009934       ??_7ssgState@@6B@          0047c934     ssg_vs2008_32:ssgState.obj
 0002:0000997c       ??_C@_0BH@JEIMEPHK@?$CFs?5?5ExternalProp?5?$DN?5?$CFd?6?$AA@ 0047c97c     ssg_vs2008_32:ssgState.obj
 0002:00009994       ??_C@_0BH@KDEHDPDE@?$CFs?5?5Translucent?5?5?$DN?5?$CFs?6?$AA@ 0047c994     ssg_vs2008_32:ssgState.obj
 0002:000099ac       ??_C@_05MKDOIIA@False?$AA@ 0047c9ac     ssg_vs2008_32:ssgState.obj
 0002:000099b4       ??_C@_04HPMIDMKH@True?$AA@ 0047c9b4     ssg_vs2008_32:ssgState.obj
 0002:000099c0       __real@ff7fffff            0047c9c0     ssg_vs2008_32:ssgVTable.obj
 0002:000099cc       ??_7ssgVTable@@6B@         0047c9cc     ssg_vs2008_32:ssgVTable.obj
 0002:00009aa8       __real@3ff028f5c28f5c29    0047caa8     ssg_vs2008_32:ssgVTable.obj
 0002:00009ab0       __real@3e7ad7f29abcaf48    0047cab0     ssg_vs2008_32:ssgVTable.obj
 0002:00009ab8       __real@be7ad7f29abcaf48    0047cab8     ssg_vs2008_32:ssgVTable.obj
 0002:00009acc       ??_7ssgVtxTable@@6B@       0047cacc     ssg_vs2008_32:ssgVtxTable.obj
 0002:00009bb8       ??_C@_0DK@OCALKHDP@ssgVtxTable?3?5Projection?5matrices@ 0047cbb8     ssg_vs2008_32:ssgVtxTable.obj
 0002:00009bf4       __real@40800000            0047cbf4     ssg_vs2008_32:ssgVtxTable.obj
 0002:00009bf8       __real@3fa47ae140000000    0047cbf8     ssg_vs2008_32:ssgVtxTable.obj
 0002:00009c00       ??_C@_0BB@KKNJOPPA@?$CFs?5?5No?5Colours?$CB?6?$AA@ 0047cc00     ssg_vs2008_32:ssgVtxTable.obj
 0002:00009c14       ??_C@_0BD@BDDNMFMG@?$CFs?5?5No?5Texcoords?$CB?6?$AA@ 0047cc14     ssg_vs2008_32:ssgVtxTable.obj
 0002:00009c28       ??_C@_0BB@OGBODPBO@?$CFs?5?5No?5Normals?$CB?6?$AA@ 0047cc28     ssg_vs2008_32:ssgVtxTable.obj
 0002:00009c3c       ??_C@_0BC@BIOAKECJ@?$CFs?5?5No?5Vertices?$CB?6?$AA@ 0047cc3c     ssg_vs2008_32:ssgVtxTable.obj
 0002:00009c5c       ??_7ssgVtxArray@@6B@       0047cc5c     ssg_vs2008_32:ssgVtxArray.obj
 0002:00009d4c       ??_C@_0BB@GFBLGEEH@indices?5?$DN?$DN?5NULL?6?$AA@ 0047cd4c     ssg_vs2008_32:ssgVtxArray.obj
 0002:00009d64       ??_C@_08NJGBMOLE@ssgTween?$AA@ 0047cd64     ssg_vs2008_32:ssgTween.obj
 0002:00009d74       ??_7ssgTween@@6B@          0047cd74     ssg_vs2008_32:ssgTween.obj
 0002:00009e6c       ??_7ssgTransform@@6B@      0047ce6c     ssg_vs2008_32:ssgTransform.obj
 0002:00009f0c       ??_7ssgTexTrans@@6B@       0047cf0c     ssg_vs2008_32:ssgTexTrans.obj
 0002:00009fa4       ??_C@_0BB@POHCHCJH@ssgAnimTransform?$AA@ 0047cfa4     ssg_vs2008_32:ssgAnimTransform.obj
 0002:00009fbc       ??_7ssgAnimTransform@@6B@  0047cfbc     ssg_vs2008_32:ssgAnimTransform.obj
 0002:0000a054       ??_C@_0N@DNPPLBGM@?$CFsMode?5?$DN?5?$CFd?6?$AA@ 0047d054     ssg_vs2008_32:ssgAnimTransform.obj
 0002:0000a064       ??_C@_0BF@IFJKBOPE@?$CFsCurrent?5Bank?5?$DN?5?$CFf?6?$AA@ 0047d064     ssg_vs2008_32:ssgAnimTransform.obj
 0002:0000a084       ??_7ssgAxisTransform@@6B@  0047d084     ssg_vs2008_32:ssgAxisTransform.obj
 0002:0000a144       ??_7ssgSelector@@6B@       0047d144     ssg_vs2008_32:ssgSelector.obj
 0002:0000a1cc       ??_7ssgRangeSelector@@6B@  0047d1cc     ssg_vs2008_32:ssgRangeSelector.obj
 0002:0000a258       __real@3fc999999999999a    0047d258     ssg_vs2008_32:ssgAnimation.obj
 0002:0000a264       ??_7ssgTimedSelector@@6B@  0047d264     ssg_vs2008_32:ssgAnimation.obj
 0002:0000a2ec       ??_C@_0BD@PKINEMKA@ssgTweenController?$AA@ 0047d2ec     ssg_vs2008_32:ssgTweenController.obj
 0002:0000a304       ??_7ssgTweenController@@6B@ 0047d304     ssg_vs2008_32:ssgTweenController.obj
 0002:0000a38c       ??_7ssgCutout@@6B@         0047d38c     ssg_vs2008_32:ssgCutout.obj
 0002:0000a414       ??_7ssgInvisible@@6B@      0047d414     ssg_vs2008_32:ssgInvisible.obj
 0002:0000a49c       ??_7ssgStateSelector@@6B@  0047d49c     ssg_vs2008_32:ssgStateSelector.obj
 0002:0000a55c       ??_7ssgLeaf@@6B@           0047d55c     ssg_vs2008_32:ssgLeaf.obj
 0002:0000a634       ??_C@_0CE@FKILABNJ@?$CFs?5?5No?5State?5assigned?5to?5this?5no@ 0047d634     ssg_vs2008_32:ssgLeaf.obj
 0002:0000a658       ??_C@_0M@JPBAFCGE@?$CFs?5?5?$CFs?3?5?$CFp?6?$AA@ 0047d658     ssg_vs2008_32:ssgLeaf.obj
 0002:0000a664       ??_C@_0DH@BKAPLKCI@?$CK?$CK?$CK?$CK?$CK?$CK?5WARNING?3?5Ref?5count?5doesn?8@ 0047d664     ssg_vs2008_32:ssgLeaf.obj
 0002:0000a6a4       ??_7ssgVertSplitter@@6B@   0047d6a4     ssg_vs2008_32:ssgVertSplitter.obj
 0002:0000a6b0       ??_7ssgList@@6B@           0047d6b0     ssg_vs2008_32:ssgList.obj
 0002:0000a6c4       ??_7ssgKidList@@6B@        0047d6c4     ssg_vs2008_32:ssgList.obj
 0002:0000a6dc       ??_7ssgEntity@@6B@         0047d6dc     ssg_vs2008_32:ssgEntity.obj
 0002:0000a754       ??_C@_0BE@LIKKIKOL@?$CFs?5?5Num?5Parents?$DN?$CFd?6?$AA@ 0047d754     ssg_vs2008_32:ssgEntity.obj
 0002:0000a768       ??_C@_0CK@PLIBMFJD@getCallback?$CI?$CJ?5ignored?5for?5non?9le@ 0047d768     ssg_vs2008_32:ssgEntity.obj
 0002:0000a794       ??_C@_0CK@BMCLFIG@setCallback?$CI?$CJ?5ignored?5for?5non?9le@ 0047d794     ssg_vs2008_32:ssgEntity.obj
 0002:0000a7c0       ??_C@_0M@PEPDCNJN@EOL?5reached?$AA@ 0047d7c0     ssg_vs2008_32:ssgParser.obj
 0002:0000a7cc       ??_C@_0M@ODNBLNFE@EOF?5reached?$AA@ 0047d7cc     ssg_vs2008_32:ssgParser.obj
 0002:0000a7dc       ??_C@_0O@NKFPBKFB@?$CFs?0?5line?5?$CFd?3?5?$AA@ 0047d7dc     ssg_vs2008_32:ssgParser.obj
 0002:0000a7ec       ??_C@_0BF@MDDLFAAB@cannot?5open?5file?3?5?$CFs?$AA@ 0047d7ec     ssg_vs2008_32:ssgParser.obj
 0002:0000a804       ??_C@_0L@FEFPBOLE@missing?5?$CFs?$AA@ 0047d804     ssg_vs2008_32:ssgParser.obj
 0002:0000a810       ??_C@_0EE@HMOJPDGJ@The?5field?5?$CFs?5should?5contain?5a?5fl@ 0047d810     ssg_vs2008_32:ssgParser.obj
 0002:0000a858       ??_C@_0EH@IEFLOAOK@The?5field?5?$CFs?5should?5contain?5an?5U@ 0047d858     ssg_vs2008_32:ssgParser.obj
 0002:0000a8a0       ??_C@_0BP@IHAODFPH@Expected?5?$CFs?5but?5got?5?$CFs?5instead?$AA@ 0047d8a0     ssg_vs2008_32:ssgParser.obj
 0002:0000a8c8       ??_7ssgListOfLists@@6B@    0047d8c8     ssg_vs2008_32:ssgLoaderWriterStuff.obj
 0002:0000a8fc       ??_C@_0CL@JPPMFABJ@ssgTriangulate?3?5Self?9intersectin@ 0047d8fc     ssg_vs2008_32:ssgLoaderWriterStuff.obj
 0002:0000a928       ??_C@_0DB@CONFINM@ssgTriangulate?3?5Invalid?5number?5o@ 0047d928     ssg_vs2008_32:ssgLoaderWriterStuff.obj
 0002:0000a960       ??_C@_0LP@HAMHEDOO@LoaderWriterMesh?3?3checkMe?$CI?$CJ?3?5Fac@ 0047d960     ssg_vs2008_32:ssgLoaderWriterStuff.obj
 0002:0000aa20       ??_C@_0EH@FNDGKFPJ@LoaderWriterMesh?3?3checkMe?$CI?$CJ?3?5the@ 0047da20     ssg_vs2008_32:ssgLoaderWriterStuff.obj
 0002:0000aa68       ??_C@_0JD@KKKPNIDI@LoaderWriterMesh?3?3checkMe?$CI?$CJ?3?5The@ 0047da68     ssg_vs2008_32:ssgLoaderWriterStuff.obj
 0002:0000ab00       ??_C@_0GE@NMECJDCJ@LoaderWriterMesh?3?3checkMe?$CI?$CJ?3?5Mat@ 0047db00     ssg_vs2008_32:ssgLoaderWriterStuff.obj
 0002:0000ab64       ??_C@_0DP@GIJPDECO@LoaderWriterMesh?3?3checkMe?$CI?$CJ?3?5The@ 0047db64     ssg_vs2008_32:ssgLoaderWriterStuff.obj
 0002:0000aba8       ??_C@_0GG@CEJKCGLD@LoaderWriterMesh?3?3checkMe?$CI?$CJ?3?5One@ 0047dba8     ssg_vs2008_32:ssgLoaderWriterStuff.obj
 0002:0000ac10       ??_C@_0EI@BACHJMKE@LoaderWriterMesh?3?3checkMe?$CI?$CJ?3?5No?5@ 0047dc10     ssg_vs2008_32:ssgLoaderWriterStuff.obj
 0002:0000ac58       ??_C@_0DA@OPMKJILN@LoaderWriterMesh?3?3checkMe?$CI?$CJ?3?5The@ 0047dc58     ssg_vs2008_32:ssgLoaderWriterStuff.obj
 0002:0000ac88       __real@3f847ae147ae147b    0047dc88     ssg_vs2008_32:ssgLoaderWriterStuff.obj
 0002:0000ac90       __real@c7c34f80            0047dc90     ssg_vs2008_32:ssgLoaderWriterStuff.obj
 0002:0000aca4       ??_7ssgBaseTransform@@6B@  0047dca4     ssg_vs2008_32:ssgBaseTransform.obj
 0002:0000ad34       ??_C@_0CA@JHGOMDIG@?$CFs?5?5Transform?$FL?$CFd?$FN?$DN?5?$CFf?0?$CFf?0?$CFf?0?$CFf?6?$AA@ 0047dd34     ssg_vs2008_32:ssgBaseTransform.obj
 0002:0000ad54       ??_C@_05JLFELJNP@FATAL?$AA@ 0047dd54     ul_vs2008_32:ulError.obj
 0002:0000ad5c       ??_C@_07KCOHIFOP@WARNING?$AA@ 0047dd5c     ul_vs2008_32:ulError.obj
 0002:0000ad64       ??_C@_05KOLFGEDA@DEBUG?$AA@ 0047dd64     ul_vs2008_32:ulError.obj
 0002:0000ad74       ??_C@_04OIHLFIKP@?1?$CK?4?$CK?$AA@ 0047dd74     ul_vs2008_32:ul.obj
 0002:0000ad7c       ??_C@_02CFKBDFGI@?1?2?$AA@ 0047dd7c     ul_vs2008_32:ul.obj
 0002:0000ad80       ??_C@_06PKBHAHDM@$?$CI?4?4?4?$CJ?$AA@ 0047dd80     ul_vs2008_32:ul.obj
 0002:0000ad88       ??_C@_07BINHOENA@$?$CIAPOM?$CJ?$AA@ 0047dd88     ul_vs2008_32:ul.obj
 0002:0000ad98       __real@3f50624dd2f1a9fc    0047dd98     ul_vs2008_32:ulClock.obj
 0002:0000ada0       __real@41f0000000000000    0047dda0     ul_vs2008_32:ulClock.obj
 0002:0000adb0       ??_7ulList@@6B@            0047ddb0     ul_vs2008_32:ulList.obj
 0002:0000adc8       ??_7bad_alloc@std@@6B@     0047ddc8     libcpmt:xthrow.obj
 0002:0000add0       ??_C@_0P@GHFPNOJB@bad?5allocation?$AA@ 0047ddd0     libcpmt:xthrow.obj
 0002:0000ade4       ??_7logic_error@std@@6B@   0047dde4     libcpmt:xthrow.obj
 0002:0000adf0       ??_7length_error@std@@6B@  0047ddf0     libcpmt:xthrow.obj
 0002:0000adfc       ??_7out_of_range@std@@6B@  0047ddfc     libcpmt:xthrow.obj
 0002:0000b2d8       ??_C@_0BC@CIJDGCDI@permission?5denied?$AA@ 0047e2d8     libcpmt:syserror.obj
 0002:0000b2ec       ??_C@_0M@MIDIAGJP@file?5exists?$AA@ 0047e2ec     libcpmt:syserror.obj
 0002:0000b2f8       ??_C@_0P@FDINDDOK@no?5such?5device?$AA@ 0047e2f8     libcpmt:syserror.obj
 0002:0000b308       ??_C@_0BC@EJHOMAAK@filename?5too?5long?$AA@ 0047e308     libcpmt:syserror.obj
 0002:0000b31c       ??_C@_0BI@NGCEHDD@device?5or?5resource?5busy?$AA@ 0047e31c     libcpmt:syserror.obj
 0002:0000b334       ??_C@_08GLNPIFBN@io?5error?$AA@ 0047e334     libcpmt:syserror.obj
 0002:0000b340       ??_C@_0BE@JIDOCPHM@directory?5not?5empty?$AA@ 0047e340     libcpmt:syserror.obj
 0002:0000b354       ??_C@_0BB@FCMFBGOM@invalid?5argument?$AA@ 0047e354     libcpmt:syserror.obj
 0002:0000b368       ??_C@_0BD@IJDJKDEA@no?5space?5on?5device?$AA@ 0047e368     libcpmt:syserror.obj
 0002:0000b37c       ??_C@_0BK@NDOCBPGE@no?5such?5file?5or?5directory?$AA@ 0047e37c     libcpmt:syserror.obj
 0002:0000b398       ??_C@_0BH@KEFGLDAF@function?5not?5supported?$AA@ 0047e398     libcpmt:syserror.obj
 0002:0000b3b0       ??_C@_0BC@NJECKMKE@no?5lock?5available?$AA@ 0047e3b0     libcpmt:syserror.obj
 0002:0000b3c4       ??_C@_0BP@LKNGHENJ@resource?5unavailable?5try?5again?$AA@ 0047e3c4     libcpmt:syserror.obj
 0002:0000b3e4       ??_C@_0BC@PPHBOELF@cross?5device?5link?$AA@ 0047e3e4     libcpmt:syserror.obj
 0002:0000b3f8       ??_C@_0BD@MOLBPMEA@operation?5canceled?$AA@ 0047e3f8     libcpmt:syserror.obj
 0002:0000b40c       ??_C@_0BE@GHAFMPAH@too?5many?5files?5open?$AA@ 0047e40c     libcpmt:syserror.obj
 0002:0000b420       ??_C@_0BC@FNODOBAE@permission_denied?$AA@ 0047e420     libcpmt:syserror.obj
 0002:0000b434       ??_C@_0P@LNDJPBFK@address_in_use?$AA@ 0047e434     libcpmt:syserror.obj
 0002:0000b444       ??_C@_0BG@IPMGOJF@address_not_available?$AA@ 0047e444     libcpmt:syserror.obj
 0002:0000b45c       ??_C@_0BN@LCBDHODA@address_family_not_supported?$AA@ 0047e45c     libcpmt:syserror.obj
 0002:0000b47c       ??_C@_0BP@FOJJHMCC@connection_already_in_progress?$AA@ 0047e47c     libcpmt:syserror.obj
 0002:0000b49c       ??_C@_0BE@DLHHIBGN@bad_file_descriptor?$AA@ 0047e49c     libcpmt:syserror.obj
 0002:0000b4b0       ??_C@_0BD@OJMJDIGI@connection_aborted?$AA@ 0047e4b0     libcpmt:syserror.obj
 0002:0000b4c4       ??_C@_0BD@NGKCIFEP@connection_refused?$AA@ 0047e4c4     libcpmt:syserror.obj
 0002:0000b4d8       ??_C@_0BB@JOANDNCK@connection_reset?$AA@ 0047e4d8     libcpmt:syserror.obj
 0002:0000b4ec       ??_C@_0BN@JLJNLKLK@destination_address_required?$AA@ 0047e4ec     libcpmt:syserror.obj
 0002:0000b50c       ??_C@_0M@IJGMGFGP@bad_address?$AA@ 0047e50c     libcpmt:syserror.obj
 0002:0000b518       ??_C@_0BB@KKNHPPIN@host_unreachable?$AA@ 0047e518     libcpmt:syserror.obj
 0002:0000b52c       ??_C@_0BG@DJGBJIIK@operation_in_progress?$AA@ 0047e52c     libcpmt:syserror.obj
 0002:0000b544       ??_C@_0M@EGEKIIMP@interrupted?$AA@ 0047e544     libcpmt:syserror.obj
 0002:0000b550       ??_C@_0BB@FFIHMIPJ@invalid_argument?$AA@ 0047e550     libcpmt:syserror.obj
 0002:0000b564       ??_C@_0BC@FIFLCHLO@already_connected?$AA@ 0047e564     libcpmt:syserror.obj
 0002:0000b578       ??_C@_0BE@GJJJJDDA@too_many_files_open?$AA@ 0047e578     libcpmt:syserror.obj
 0002:0000b58c       ??_C@_0N@HPMLKHPL@message_size?$AA@ 0047e58c     libcpmt:syserror.obj
 0002:0000b59c       ??_C@_0BC@LEEIKBAL@filename_too_long?$AA@ 0047e59c     libcpmt:syserror.obj
 0002:0000b5b0       ??_C@_0N@FCPALPJK@network_down?$AA@ 0047e5b0     libcpmt:syserror.obj
 0002:0000b5c0       ??_C@_0O@EHNDLHIG@network_reset?$AA@ 0047e5c0     libcpmt:syserror.obj
 0002:0000b5d0       ??_C@_0BE@JFNJIDNF@network_unreachable?$AA@ 0047e5d0     libcpmt:syserror.obj
 0002:0000b5e4       ??_C@_0BA@FDIJKJCL@no_buffer_space?$AA@ 0047e5e4     libcpmt:syserror.obj
 0002:0000b5f4       ??_C@_0BD@JHIHCGKP@no_protocol_option?$AA@ 0047e5f4     libcpmt:syserror.obj
 0002:0000b608       ??_C@_0O@GBCLHHD@not_connected?$AA@ 0047e608     libcpmt:syserror.obj
 0002:0000b618       ??_C@_0N@IMHKKLEM@not_a_socket?$AA@ 0047e618     libcpmt:syserror.obj
 0002:0000b628       ??_C@_0BI@ICEIDKLJ@operation_not_supported?$AA@ 0047e628     libcpmt:syserror.obj
 0002:0000b640       ??_C@_0BH@KAPBAIJF@protocol_not_supported?$AA@ 0047e640     libcpmt:syserror.obj
 0002:0000b658       ??_C@_0BE@GAOJJFPC@wrong_protocol_type?$AA@ 0047e658     libcpmt:syserror.obj
 0002:0000b66c       ??_C@_09NCHNLHPG@timed_out?$AA@ 0047e66c     libcpmt:syserror.obj
 0002:0000b678       ??_C@_0BG@GDGHKFDH@operation_would_block?$AA@ 0047e678     libcpmt:syserror.obj
 0002:0000b690       ??_C@_0BN@LKKBCCDB@address?5family?5not?5supported?$AA@ 0047e690     libcpmt:syserror.obj
 0002:0000b6b0       ??_C@_0P@LDMLAFHI@address?5in?5use?$AA@ 0047e6b0     libcpmt:syserror.obj
 0002:0000b6c0       ??_C@_0BG@DHPCNBJB@address?5not?5available?$AA@ 0047e6c0     libcpmt:syserror.obj
 0002:0000b6d8       ??_C@_0BC@DFIBIBIL@already?5connected?$AA@ 0047e6d8     libcpmt:syserror.obj
 0002:0000b6ec       ??_C@_0BH@CAKOHOMI@argument?5list?5too?5long?$AA@ 0047e6ec     libcpmt:syserror.obj
 0002:0000b704       ??_C@_0BH@CGIMPKIM@argument?5out?5of?5domain?$AA@ 0047e704     libcpmt:syserror.obj
 0002:0000b71c       ??_C@_0M@KGHGGJGL@bad?5address?$AA@ 0047e71c     libcpmt:syserror.obj
 0002:0000b728       ??_C@_0BE@MPJPGCEO@bad?5file?5descriptor?$AA@ 0047e728     libcpmt:syserror.obj
 0002:0000b73c       ??_C@_0M@PMMIEFCP@bad?5message?$AA@ 0047e73c     libcpmt:syserror.obj
 0002:0000b748       ??_C@_0M@KPHOFDBE@broken?5pipe?$AA@ 0047e748     libcpmt:syserror.obj
 0002:0000b754       ??_C@_0BD@MGNDDEGM@connection?5aborted?$AA@ 0047e754     libcpmt:syserror.obj
 0002:0000b768       ??_C@_0BP@KAIHPOGN@connection?5already?5in?5progress?$AA@ 0047e768     libcpmt:syserror.obj
 0002:0000b788       ??_C@_0BD@PJLIIJEL@connection?5refused?$AA@ 0047e788     libcpmt:syserror.obj
 0002:0000b79c       ??_C@_0BB@IECNJNOI@connection?5reset?$AA@ 0047e79c     libcpmt:syserror.obj
 0002:0000b7b0       ??_C@_0BN@KDMIFEIP@destination?5address?5required?$AA@ 0047e7b0     libcpmt:syserror.obj
 0002:0000b7d0       ??_C@_0BI@BNCLIGPB@executable?5format?5error?$AA@ 0047e7d0     libcpmt:syserror.obj
 0002:0000b7e8       ??_C@_0P@DNAJLBJK@file?5too?5large?$AA@ 0047e7e8     libcpmt:syserror.obj
 0002:0000b7f8       ??_C@_0BB@DHFDFGDM@host?5unreachable?$AA@ 0047e7f8     libcpmt:syserror.obj
 0002:0000b80c       ??_C@_0BD@JPHBMONG@identifier?5removed?$AA@ 0047e80c     libcpmt:syserror.obj
 0002:0000b820       ??_C@_0BG@CDNPAGJK@illegal?5byte?5sequence?$AA@ 0047e820     libcpmt:syserror.obj
 0002:0000b838       ??_C@_0CD@BNPLBMNA@inappropriate?5io?5control?5operati@ 0047e838     libcpmt:syserror.obj
 0002:0000b85c       ??_C@_0N@OHAFKDEK@invalid?5seek?$AA@ 0047e85c     libcpmt:syserror.obj
 0002:0000b86c       ??_C@_0P@FLLDBIDK@is?5a?5directory?$AA@ 0047e86c     libcpmt:syserror.obj
 0002:0000b87c       ??_C@_0N@IFLPBIOP@message?5size?$AA@ 0047e87c     libcpmt:syserror.obj
 0002:0000b88c       ??_C@_0N@KIIEAAIO@network?5down?$AA@ 0047e88c     libcpmt:syserror.obj
 0002:0000b89c       ??_C@_0O@FNPDBHEE@network?5reset?$AA@ 0047e89c     libcpmt:syserror.obj
 0002:0000b8ac       ??_C@_0BE@IFNCKGE@network?5unreachable?$AA@ 0047e8ac     libcpmt:syserror.obj
 0002:0000b8c0       ??_C@_0BA@PFFCAOFK@no?5buffer?5space?$AA@ 0047e8c0     libcpmt:syserror.obj
 0002:0000b8d0       ??_C@_0BB@IEPBLJHK@no?5child?5process?$AA@ 0047e8d0     libcpmt:syserror.obj
 0002:0000b8e4       ??_C@_07PLECNNKG@no?5link?$AA@ 0047e8e4     libcpmt:syserror.obj
 0002:0000b8ec       ??_C@_0BF@PBGGPKKE@no?5message?5available?$AA@ 0047e8ec     libcpmt:syserror.obj
 0002:0000b904       ??_C@_0L@EDOLMPAK@no?5message?$AA@ 0047e904     libcpmt:syserror.obj
 0002:0000b910       ??_C@_0BD@EAMBFIDF@no?5protocol?5option?$AA@ 0047e910     libcpmt:syserror.obj
 0002:0000b924       ??_C@_0BE@MKFDAFMP@no?5stream?5resources?$AA@ 0047e924     libcpmt:syserror.obj
 0002:0000b938       ??_C@_0BK@IMCPHCBI@no?5such?5device?5or?5address?$AA@ 0047e938     libcpmt:syserror.obj
 0002:0000b954       ??_C@_0BA@ENLPPKBN@no?5such?5process?$AA@ 0047e954     libcpmt:syserror.obj
 0002:0000b964       ??_C@_0BA@DOCPFFJG@not?5a?5directory?$AA@ 0047e964     libcpmt:syserror.obj
 0002:0000b974       ??_C@_0N@POEIPGGF@not?5a?5socket?$AA@ 0047e974     libcpmt:syserror.obj
 0002:0000b984       ??_C@_0N@LGAPMMPI@not?5a?5stream?$AA@ 0047e984     libcpmt:syserror.obj
 0002:0000b994       ??_C@_0O@GLMIBBEG@not?5connected?$AA@ 0047e994     libcpmt:syserror.obj
 0002:0000b9a4       ??_C@_0O@NHEDABJP@not?5supported?$AA@ 0047e9a4     libcpmt:syserror.obj
 0002:0000b9b4       ??_C@_0BG@KDKHOPCO@operation?5in?5progress?$AA@ 0047e9b4     libcpmt:syserror.obj
 0002:0000b9cc       ??_C@_0BI@OHIEJAAB@operation?5not?5permitted?$AA@ 0047e9cc     libcpmt:syserror.obj
 0002:0000b9e4       ??_C@_0BI@LNEGIFLN@operation?5not?5supported?$AA@ 0047e9e4     libcpmt:syserror.obj
 0002:0000b9fc       ??_C@_0BG@OEMDKMEE@operation?5would?5block?$AA@ 0047e9fc     libcpmt:syserror.obj
 0002:0000ba14       ??_C@_0L@BLPOFLNJ@owner?5dead?$AA@ 0047ea14     libcpmt:syserror.obj
 0002:0000ba20       ??_C@_0P@FNPOCJBE@protocol?5error?$AA@ 0047ea20     libcpmt:syserror.obj
 0002:0000ba30       ??_C@_0BH@JPPPLHJB@protocol?5not?5supported?$AA@ 0047ea30     libcpmt:syserror.obj
 0002:0000ba48       ??_C@_0BG@EICBIHDP@read?5only?5file?5system?$AA@ 0047ea48     libcpmt:syserror.obj
 0002:0000ba60       ??_C@_0BO@BJBOMOEJ@resource?5deadlock?5would?5occur?$AA@ 0047ea60     libcpmt:syserror.obj
 0002:0000ba80       ??_C@_0BE@GOIPJJHG@result?5out?5of?5range?$AA@ 0047ea80     libcpmt:syserror.obj
 0002:0000ba94       ??_C@_0BG@MPLKFPAE@state?5not?5recoverable?$AA@ 0047ea94     libcpmt:syserror.obj
 0002:0000baac       ??_C@_0P@DIIFGFCG@stream?5timeout?$AA@ 0047eaac     libcpmt:syserror.obj
 0002:0000babc       ??_C@_0P@IPFDMIFL@text?5file?5busy?$AA@ 0047eabc     libcpmt:syserror.obj
 0002:0000bacc       ??_C@_09KJPPMAOI@timed?5out?$AA@ 0047eacc     libcpmt:syserror.obj
 0002:0000bad8       ??_C@_0BO@HACHBEKI@too?5many?5files?5open?5in?5system?$AA@ 0047ead8     libcpmt:syserror.obj
 0002:0000baf8       ??_C@_0P@HCOMKFCC@too?5many?5links?$AA@ 0047eaf8     libcpmt:syserror.obj
 0002:0000bb08       ??_C@_0BO@EFGOJEF@too?5many?5symbolic?5link?5levels?$AA@ 0047eb08     libcpmt:syserror.obj
 0002:0000bb28       ??_C@_0BA@KGKGOOJA@value?5too?5large?$AA@ 0047eb28     libcpmt:syserror.obj
 0002:0000bb38       ??_C@_0BE@MIEJDDNH@wrong?5protocol?5type?$AA@ 0047eb38     libcpmt:syserror.obj
 0002:0000bb98       ??_C@_1BI@BGOHAHKC@?$AAm?$AAs?$AAc?$AAo?$AAr?$AAe?$AAe?$AA?4?$AAd?$AAl?$AAl?$AA?$AA@ 0047eb98     LIBCMT:crt0dat.obj
 0002:0000bbb0       ??_C@_0P@MIGLKIOC@CorExitProcess?$AA@ 0047ebb0     LIBCMT:crt0dat.obj
 0002:0000bbc0       __FPinit                   0047ebc0     LIBCMT:fpinit.obj
 0002:0000bc24       ??_7type_info@@6B@         0047ec24     LIBCMT:typinfo.obj
 0002:0000cda0       ??_C@_02LMMGGCAJ@?3?5?$AA@ 0047fda0     LIBCMT:perror.obj
 0002:0000cda4       ??_C@_07CFPBBAOO@COMSPEC?$AA@ 0047fda4     LIBCMT:system.obj
 0002:0000cdac       ??_C@_02HNHPBPFE@?1c?$AA@  0047fdac     LIBCMT:system.obj
 0002:0000cdb0       ??_C@_07INNMNHPJ@cmd?4exe?$AA@ 0047fdb0     LIBCMT:system.obj
 0002:0000cdbc       ??_7exception@std@@6B@     0047fdbc     LIBCMT:stdexcpt.obj
 0002:0000cdc4       ??_C@_0BC@EOODALEL@Unknown?5exception?$AA@ 0047fdc4     LIBCMT:stdexcpt.obj
 0002:0000cdf8       ??_C@_06OJHGLDPL@?$CInull?$CJ?$AA@ 0047fdf8     LIBCMT:output.obj
 0002:0000ce00       ??_C@_1O@CEDCILHN@?$AA?$CI?$AAn?$AAu?$AAl?$AAl?$AA?$CJ?$AA?$AA@ 0047fe00     LIBCMT:output.obj
 0002:0000ce10       ___lookuptable             0047fe10     LIBCMT:output.obj
 0002:0000ced8       ??_C@_03MGHMBJCF@log?$AA@  0047fed8     LIBCMT:libm_error.obj
 0002:0000cedc       ??_C@_05HGHHAHAP@log10?$AA@ 0047fedc     LIBCMT:libm_error.obj
 0002:0000cee4       ??_C@_03KHJOGHMM@exp?$AA@  0047fee4     LIBCMT:libm_error.obj
 0002:0000cee8       ??_C@_03JGHBODFD@pow?$AA@  0047fee8     LIBCMT:libm_error.obj
 0002:0000ceec       ??_C@_04FIHNOPOL@asin?$AA@ 0047feec     LIBCMT:libm_error.obj
 0002:0000cef4       ??_C@_04PDIFKINK@acos?$AA@ 0047fef4     LIBCMT:libm_error.obj
 0002:0000cefc       ??_C@_05EOHGHCHD@exp10?$AA@ 0047fefc     LIBCMT:libm_error.obj
 0002:0000cf04       ??_C@_04MLLJIGOK@atan?$AA@ 0047ff04     LIBCMT:libm_error.obj
 0002:0000cf0c       ??_C@_04GFPJNGEK@ceil?$AA@ 0047ff0c     LIBCMT:libm_error.obj
 0002:0000cf14       ??_C@_05PBJFFIGL@floor?$AA@ 0047ff14     LIBCMT:libm_error.obj
 0002:0000cf1c       ??_C@_04EHEDPDJG@modf?$AA@ 0047ff1c     LIBCMT:libm_error.obj
 0002:0000cf24       ??_C@_03BLEJJJBH@sin?$AA@  0047ff24     LIBCMT:libm_error.obj
 0002:0000cf28       ??_C@_03LALBNOCG@cos?$AA@  0047ff28     LIBCMT:libm_error.obj
 0002:0000cf2c       ??_C@_03IIINPABG@tan?$AA@  0047ff2c     LIBCMT:libm_error.obj
 0002:0000cf30       ??_C@_04EIAKFFMI@sqrt?$AA@ 0047ff30     LIBCMT:libm_error.obj
 0002:0000cf38       ??_C@_1BK@MGMFAEKH@?$AAk?$AAe?$AAr?$AAn?$AAe?$AAl?$AA3?$AA2?$AA?4?$AAd?$AAl?$AAl?$AA?$AA@ 0047ff38     LIBCMT:winapisupp.obj
 0002:0000cf54       ??_C@_08KNHFBNJ@FlsAlloc?$AA@ 0047ff54     LIBCMT:winapisupp.obj
 0002:0000cf60       ??_C@_07PEJMOBNF@FlsFree?$AA@ 0047ff60     LIBCMT:winapisupp.obj
 0002:0000cf68       ??_C@_0M@GDNOONDI@FlsGetValue?$AA@ 0047ff68     LIBCMT:winapisupp.obj
 0002:0000cf74       ??_C@_0M@JCPCPOEF@FlsSetValue?$AA@ 0047ff74     LIBCMT:winapisupp.obj
 0002:0000cf80       ??_C@_0BM@HCFOFFN@InitializeCriticalSectionEx?$AA@ 0047ff80     LIBCMT:winapisupp.obj
 0002:0000cf9c       ??_C@_0BD@KIEEOEEH@CreateSemaphoreExW?$AA@ 0047ff9c     LIBCMT:winapisupp.obj
 0002:0000cfb0       ??_C@_0BI@BKLFFAPO@SetThreadStackGuarantee?$AA@ 0047ffb0     LIBCMT:winapisupp.obj
 0002:0000cfc8       ??_C@_0BG@OGFAJCKC@CreateThreadpoolTimer?$AA@ 0047ffc8     LIBCMT:winapisupp.obj
 0002:0000cfe0       ??_C@_0BD@LPLEMMDI@SetThreadpoolTimer?$AA@ 0047ffe0     LIBCMT:winapisupp.obj
 0002:0000cff4       ??_C@_0CA@FMNJENH@WaitForThreadpoolTimerCallbacks?$AA@ 0047fff4     LIBCMT:winapisupp.obj
 0002:0000d014       ??_C@_0BF@DCFCCNOC@CloseThreadpoolTimer?$AA@ 00480014     LIBCMT:winapisupp.obj
 0002:0000d02c       ??_C@_0BF@FLABGKKM@CreateThreadpoolWait?$AA@ 0048002c     LIBCMT:winapisupp.obj
 0002:0000d044       ??_C@_0BC@MGCOHNA@SetThreadpoolWait?$AA@ 00480044     LIBCMT:winapisupp.obj
 0002:0000d058       ??_C@_0BE@OCIOMIMP@CloseThreadpoolWait?$AA@ 00480058     LIBCMT:winapisupp.obj
 0002:0000d06c       ??_C@_0BJ@LKGHFHBO@FlushProcessWriteBuffers?$AA@ 0048006c     LIBCMT:winapisupp.obj
 0002:0000d088       ??_C@_0BP@KALKKPMO@FreeLibraryWhenCallbackReturns?$AA@ 00480088     LIBCMT:winapisupp.obj
 0002:0000d0a8       ??_C@_0BK@DFNBACLA@GetCurrentProcessorNumber?$AA@ 004800a8     LIBCMT:winapisupp.obj
 0002:0000d0c4       ??_C@_0BP@KHGALBC@GetLogicalProcessorInformation?$AA@ 004800c4     LIBCMT:winapisupp.obj
 0002:0000d0e4       ??_C@_0BE@FKKLLFLM@CreateSymbolicLinkW?$AA@ 004800e4     LIBCMT:winapisupp.obj
 0002:0000d0f8       ??_C@_0BJ@OHNKDLIJ@SetDefaultDllDirectories?$AA@ 004800f8     LIBCMT:winapisupp.obj
 0002:0000d114       ??_C@_0BE@LJANKFHF@EnumSystemLocalesEx?$AA@ 00480114     LIBCMT:winapisupp.obj
 0002:0000d128       ??_C@_0BA@IHGNDAEB@CompareStringEx?$AA@ 00480128     LIBCMT:winapisupp.obj
 0002:0000d138       ??_C@_0BA@EPCJIIPD@GetDateFormatEx?$AA@ 00480138     LIBCMT:winapisupp.obj
 0002:0000d148       ??_C@_0BA@ONOKGCMP@GetLocaleInfoEx?$AA@ 00480148     LIBCMT:winapisupp.obj
 0002:0000d158       ??_C@_0BA@CIJJKCJJ@GetTimeFormatEx?$AA@ 00480158     LIBCMT:winapisupp.obj
 0002:0000d168       ??_C@_0BJ@PBCCBIPI@GetUserDefaultLocaleName?$AA@ 00480168     LIBCMT:winapisupp.obj
 0002:0000d184       ??_C@_0BC@CELBKLLA@IsValidLocaleName?$AA@ 00480184     LIBCMT:winapisupp.obj
 0002:0000d198       ??_C@_0O@KKBNKAPF@LCMapStringEx?$AA@ 00480198     LIBCMT:winapisupp.obj
 0002:0000d1a8       ??_C@_0BE@JOGNEJCI@GetCurrentPackageId?$AA@ 004801a8     LIBCMT:winapisupp.obj
 0002:0000d1c0       ??_C@_1FE@LLNEDJMD@?$AAR?$AA6?$AA0?$AA0?$AA8?$AA?$AN?$AA?6?$AA?9?$AA?5?$AAn?$AAo?$AAt?$AA?5?$AAe?$AAn?$AAo?$AAu?$AAg?$AAh?$AA?5?$AAs?$AAp?$AAa?$AAc?$AAe?$AA?5?$AAf?$AAo?$AAr?$AA?5?$AAa?$AAr@ 004801c0     LIBCMT:crt0msg.obj
 0002:0000d218       ??_C@_1FI@HONFMGBI@?$AAR?$AA6?$AA0?$AA0?$AA9?$AA?$AN?$AA?6?$AA?9?$AA?5?$AAn?$AAo?$AAt?$AA?5?$AAe?$AAn?$AAo?$AAu?$AAg?$AAh?$AA?5?$AAs?$AAp?$AAa?$AAc?$AAe?$AA?5?$AAf?$AAo?$AAr?$AA?5?$AAe?$AAn@ 00480218     LIBCMT:crt0msg.obj
 0002:0000d270       ??_C@_1EG@BEHAGFJD@?$AAR?$AA6?$AA0?$AA1?$AA0?$AA?$AN?$AA?6?$AA?9?$AA?5?$AAa?$AAb?$AAo?$AAr?$AAt?$AA?$CI?$AA?$CJ?$AA?5?$AAh?$AAa?$AAs?$AA?5?$AAb?$AAe?$AAe?$AAn?$AA?5?$AAc?$AAa?$AAl?$AAl?$AAe?$AAd@ 00480270     LIBCMT:crt0msg.obj
 0002:0000d2b8       ??_C@_1FI@LOGNIKDM@?$AAR?$AA6?$AA0?$AA1?$AA6?$AA?$AN?$AA?6?$AA?9?$AA?5?$AAn?$AAo?$AAt?$AA?5?$AAe?$AAn?$AAo?$AAu?$AAg?$AAh?$AA?5?$AAs?$AAp?$AAa?$AAc?$AAe?$AA?5?$AAf?$AAo?$AAr?$AA?5?$AAt?$AAh@ 004802b8     LIBCMT:crt0msg.obj
 0002:0000d310       ??_C@_1FK@BEOGODMC@?$AAR?$AA6?$AA0?$AA1?$AA7?$AA?$AN?$AA?6?$AA?9?$AA?5?$AAu?$AAn?$AAe?$AAx?$AAp?$AAe?$AAc?$AAt?$AAe?$AAd?$AA?5?$AAm?$AAu?$AAl?$AAt?$AAi?$AAt?$AAh?$AAr?$AAe?$AAa?$AAd?$AA?5@ 00480310     LIBCMT:crt0msg.obj
 0002:0000d370       ??_C@_1EC@JIBHAOPH@?$AAR?$AA6?$AA0?$AA1?$AA8?$AA?$AN?$AA?6?$AA?9?$AA?5?$AAu?$AAn?$AAe?$AAx?$AAp?$AAe?$AAc?$AAt?$AAe?$AAd?$AA?5?$AAh?$AAe?$AAa?$AAp?$AA?5?$AAe?$AAr?$AAr?$AAo?$AAr?$AA?$AN?$AA?6@ 00480370     LIBCMT:crt0msg.obj
 0002:0000d3b8       ??_C@_1FC@ECHBIFBC@?$AAR?$AA6?$AA0?$AA1?$AA9?$AA?$AN?$AA?6?$AA?9?$AA?5?$AAu?$AAn?$AAa?$AAb?$AAl?$AAe?$AA?5?$AAt?$AAo?$AA?5?$AAo?$AAp?$AAe?$AAn?$AA?5?$AAc?$AAo?$AAn?$AAs?$AAo?$AAl?$AAe?$AA?5@ 004803b8     LIBCMT:crt0msg.obj
 0002:0000d410       ??_C@_1GK@FHCKBEFA@?$AAR?$AA6?$AA0?$AA2?$AA4?$AA?$AN?$AA?6?$AA?9?$AA?5?$AAn?$AAo?$AAt?$AA?5?$AAe?$AAn?$AAo?$AAu?$AAg?$AAh?$AA?5?$AAs?$AAp?$AAa?$AAc?$AAe?$AA?5?$AAf?$AAo?$AAr?$AA?5?$AA_?$AAo@ 00480410     LIBCMT:crt0msg.obj
 0002:0000d480       ??_C@_1EM@MAADIHMB@?$AAR?$AA6?$AA0?$AA2?$AA5?$AA?$AN?$AA?6?$AA?9?$AA?5?$AAp?$AAu?$AAr?$AAe?$AA?5?$AAv?$AAi?$AAr?$AAt?$AAu?$AAa?$AAl?$AA?5?$AAf?$AAu?$AAn?$AAc?$AAt?$AAi?$AAo?$AAn?$AA?5?$AAc@ 00480480     LIBCMT:crt0msg.obj
 0002:0000d4d0       ??_C@_1GK@MCAAGJMO@?$AAR?$AA6?$AA0?$AA2?$AA6?$AA?$AN?$AA?6?$AA?9?$AA?5?$AAn?$AAo?$AAt?$AA?5?$AAe?$AAn?$AAo?$AAu?$AAg?$AAh?$AA?5?$AAs?$AAp?$AAa?$AAc?$AAe?$AA?5?$AAf?$AAo?$AAr?$AA?5?$AAs?$AAt@ 004804d0     LIBCMT:crt0msg.obj
 0002:0000d540       ??_C@_1GK@MFGOKLAG@?$AAR?$AA6?$AA0?$AA2?$AA7?$AA?$AN?$AA?6?$AA?9?$AA?5?$AAn?$AAo?$AAt?$AA?5?$AAe?$AAn?$AAo?$AAu?$AAg?$AAh?$AA?5?$AAs?$AAp?$AAa?$AAc?$AAe?$AA?5?$AAf?$AAo?$AAr?$AA?5?$AAl?$AAo@ 00480540     LIBCMT:crt0msg.obj
 0002:0000d5b0       ??_C@_1EK@HHFLMAOL@?$AAR?$AA6?$AA0?$AA2?$AA8?$AA?$AN?$AA?6?$AA?9?$AA?5?$AAu?$AAn?$AAa?$AAb?$AAl?$AAe?$AA?5?$AAt?$AAo?$AA?5?$AAi?$AAn?$AAi?$AAt?$AAi?$AAa?$AAl?$AAi?$AAz?$AAe?$AA?5?$AAh?$AAe@ 004805b0     LIBCMT:crt0msg.obj
 0002:0000d5fc       ??_C@_1DO@BMFCDCD@?$AAR?$AA6?$AA0?$AA3?$AA0?$AA?$AN?$AA?6?$AA?9?$AA?5?$AAC?$AAR?$AAT?$AA?5?$AAn?$AAo?$AAt?$AA?5?$AAi?$AAn?$AAi?$AAt?$AAi?$AAa?$AAl?$AAi?$AAz?$AAe?$AAd?$AA?$AN?$AA?6?$AA?$AA@ 004805fc     LIBCMT:crt0msg.obj
 0002:0000d640       ??_C@_1MG@ENCOOIDF@?$AAR?$AA6?$AA0?$AA3?$AA1?$AA?$AN?$AA?6?$AA?9?$AA?5?$AAA?$AAt?$AAt?$AAe?$AAm?$AAp?$AAt?$AA?5?$AAt?$AAo?$AA?5?$AAi?$AAn?$AAi?$AAt?$AAi?$AAa?$AAl?$AAi?$AAz?$AAe?$AA?5?$AAt@ 00480640     LIBCMT:crt0msg.obj
 0002:0000d708       ??_C@_1GG@GOPILAJP@?$AAR?$AA6?$AA0?$AA3?$AA2?$AA?$AN?$AA?6?$AA?9?$AA?5?$AAn?$AAo?$AAt?$AA?5?$AAe?$AAn?$AAo?$AAu?$AAg?$AAh?$AA?5?$AAs?$AAp?$AAa?$AAc?$AAe?$AA?5?$AAf?$AAo?$AAr?$AA?5?$AAl?$AAo@ 00480708     LIBCMT:crt0msg.obj
 0002:0000d770       ??_C@_1BOO@KGEDBGAJ@?$AAR?$AA6?$AA0?$AA3?$AA3?$AA?$AN?$AA?6?$AA?9?$AA?5?$AAA?$AAt?$AAt?$AAe?$AAm?$AAp?$AAt?$AA?5?$AAt?$AAo?$AA?5?$AAu?$AAs?$AAe?$AA?5?$AAM?$AAS?$AAI?$AAL?$AA?5?$AAc?$AAo?$AAd@ 00480770     LIBCMT:crt0msg.obj
 0002:0000d960       ??_C@_1GG@MKFPEKFO@?$AAR?$AA6?$AA0?$AA3?$AA4?$AA?$AN?$AA?6?$AA?9?$AA?5?$AAi?$AAn?$AAc?$AAo?$AAn?$AAs?$AAi?$AAs?$AAt?$AAe?$AAn?$AAt?$AA?5?$AAo?$AAn?$AAe?$AAx?$AAi?$AAt?$AA?5?$AAb?$AAe?$AAg@ 00480960     LIBCMT:crt0msg.obj
 0002:0000d9c8       ??_C@_1BO@BFCDCGC@?$AAD?$AAO?$AAM?$AAA?$AAI?$AAN?$AA?5?$AAe?$AAr?$AAr?$AAo?$AAr?$AA?$AN?$AA?6?$AA?$AA@ 004809c8     LIBCMT:crt0msg.obj
 0002:0000d9e8       ??_C@_1BK@KMOMNAAI@?$AAS?$AAI?$AAN?$AAG?$AA?5?$AAe?$AAr?$AAr?$AAo?$AAr?$AA?$AN?$AA?6?$AA?$AA@ 004809e8     LIBCMT:crt0msg.obj
 0002:0000da04       ??_C@_1BM@JBBEPPHI@?$AAT?$AAL?$AAO?$AAS?$AAS?$AA?5?$AAe?$AAr?$AAr?$AAo?$AAr?$AA?$AN?$AA?6?$AA?$AA@ 00480a04     LIBCMT:crt0msg.obj
 0002:0000da20       ??_C@_15JNBOKNOG@?$AA?$AN?$AA?6?$AA?$AA@ 00480a20     LIBCMT:crt0msg.obj
 0002:0000da28       ??_C@_1BO@BKOMIGKJ@?$AAr?$AAu?$AAn?$AAt?$AAi?$AAm?$AAe?$AA?5?$AAe?$AAr?$AAr?$AAo?$AAr?$AA?5?$AA?$AA@ 00480a28     LIBCMT:crt0msg.obj
 0002:0000db00       ??_C@_1FK@PGACCAFB@?$AAR?$AA6?$AA0?$AA0?$AA2?$AA?$AN?$AA?6?$AA?9?$AA?5?$AAf?$AAl?$AAo?$AAa?$AAt?$AAi?$AAn?$AAg?$AA?5?$AAp?$AAo?$AAi?$AAn?$AAt?$AA?5?$AAs?$AAu?$AAp?$AAp?$AAo?$AAr?$AAt?$AA?5@ 00480b00     LIBCMT:crt0msg.obj
 0002:0000db5c       ??_C@_1DE@JNGNBFGO@?$AAR?$AAu?$AAn?$AAt?$AAi?$AAm?$AAe?$AA?5?$AAE?$AAr?$AAr?$AAo?$AAr?$AA?$CB?$AA?6?$AA?6?$AAP?$AAr?$AAo?$AAg?$AAr?$AAa?$AAm?$AA?3?$AA?5?$AA?$AA@ 00480b5c     LIBCMT:crt0msg.obj
 0002:0000db90       ??_C@_1CO@EAEJAADC@?$AA?$DM?$AAp?$AAr?$AAo?$AAg?$AAr?$AAa?$AAm?$AA?5?$AAn?$AAa?$AAm?$AAe?$AA?5?$AAu?$AAn?$AAk?$AAn?$AAo?$AAw?$AAn?$AA?$DO?$AA?$AA@ 00480b90     LIBCMT:crt0msg.obj
 0002:0000dbc0       ??_C@_17LGKOMLJ@?$AA?4?$AA?4?$AA?4?$AA?$AA@ 00480bc0     LIBCMT:crt0msg.obj
 0002:0000dbc8       ??_C@_15IABLJNFO@?$AA?6?$AA?6?$AA?$AA@ 00480bc8     LIBCMT:crt0msg.obj
 0002:0000dbd0       ??_C@_1EK@MBDPDCGA@?$AAM?$AAi?$AAc?$AAr?$AAo?$AAs?$AAo?$AAf?$AAt?$AA?5?$AAV?$AAi?$AAs?$AAu?$AAa?$AAl?$AA?5?$AAC?$AA?$CL?$AA?$CL?$AA?5?$AAR?$AAu?$AAn?$AAt?$AAi?$AAm?$AAe?$AA?5?$AAL?$AAi?$AAb@ 00480bd0     LIBCMT:crt0msg.obj
 0002:0000dc2c       ??_C@_1M@HPNHIDJI@?$AAj?$AAa?$AA?9?$AAJ?$AAP?$AA?$AA@ 00480c2c     LIBCMT:mbctype.obj
 0002:0000dc38       ??_C@_1M@BIBDDEMK@?$AAz?$AAh?$AA?9?$AAC?$AAN?$AA?$AA@ 00480c38     LIBCMT:mbctype.obj
 0002:0000dc44       ??_C@_1M@JLOOOEGK@?$AAk?$AAo?$AA?9?$AAK?$AAR?$AA?$AA@ 00480c44     LIBCMT:mbctype.obj
 0002:0000dc50       ??_C@_1M@CLNBBOPM@?$AAz?$AAh?$AA?9?$AAT?$AAW?$AA?$AA@ 00480c50     LIBCMT:mbctype.obj
 0002:0000dc5c       ??_C@_05KLBDPFGC@e?$CL000?$AA@ 00480c5c     LIBCMT:cvt.obj
 0002:0000dc64       ??_C@_03KOEHGMDN@Sun?$AA@  00480c64     LIBCMT:nlsdata.obj
 0002:0000dc68       ??_C@_03PDAGKDH@Mon?$AA@   00480c68     LIBCMT:nlsdata.obj
 0002:0000dc6c       ??_C@_03NAGEINEP@Tue?$AA@  00480c6c     LIBCMT:nlsdata.obj
 0002:0000dc70       ??_C@_03MHOMLAJA@Wed?$AA@  00480c70     LIBCMT:nlsdata.obj
 0002:0000dc74       ??_C@_03IOFIKPDN@Thu?$AA@  00480c74     LIBCMT:nlsdata.obj
 0002:0000dc78       ??_C@_03IDIOELNC@Fri?$AA@  00480c78     LIBCMT:nlsdata.obj
 0002:0000dc7c       ??_C@_03FEFJNEK@Sat?$AA@   00480c7c     LIBCMT:nlsdata.obj
 0002:0000dc80       ??_C@_06OOPIFAJ@Sunday?$AA@ 00480c80     LIBCMT:nlsdata.obj
 0002:0000dc88       ??_C@_06JLEDEDGH@Monday?$AA@ 00480c88     LIBCMT:nlsdata.obj
 0002:0000dc90       ??_C@_07BAAGCFCM@Tuesday?$AA@ 00480c90     LIBCMT:nlsdata.obj
 0002:0000dc98       ??_C@_09DLIGFAKA@Wednesday?$AA@ 00480c98     LIBCMT:nlsdata.obj
 0002:0000dca4       ??_C@_08HACCIKIA@Thursday?$AA@ 00480ca4     LIBCMT:nlsdata.obj
 0002:0000dcb0       ??_C@_06JECMNKMI@Friday?$AA@ 00480cb0     LIBCMT:nlsdata.obj
 0002:0000dcb8       ??_C@_08INBOOONO@Saturday?$AA@ 00480cb8     LIBCMT:nlsdata.obj
 0002:0000dcc4       ??_C@_03JIHJHPIE@Jan?$AA@  00480cc4     LIBCMT:nlsdata.obj
 0002:0000dcc8       ??_C@_03HJBDCHOM@Feb?$AA@  00480cc8     LIBCMT:nlsdata.obj
 0002:0000dccc       ??_C@_03ODNJBKGA@Mar?$AA@  00480ccc     LIBCMT:nlsdata.obj
 0002:0000dcd0       ??_C@_03LEOLGMJP@Apr?$AA@  00480cd0     LIBCMT:nlsdata.obj
 0002:0000dcd4       ??_C@_03CNMDKL@May?$AA@    00480cd4     LIBCMT:nlsdata.obj
 0002:0000dcd8       ??_C@_03IDFGHECI@Jun?$AA@  00480cd8     LIBCMT:nlsdata.obj
 0002:0000dcdc       ??_C@_03LBGABGKK@Jul?$AA@  00480cdc     LIBCMT:nlsdata.obj
 0002:0000dce0       ??_C@_03IFJFEIGA@Aug?$AA@  00480ce0     LIBCMT:nlsdata.obj
 0002:0000dce4       ??_C@_03GGCAPAJC@Sep?$AA@  00480ce4     LIBCMT:nlsdata.obj
 0002:0000dce8       ??_C@_03BMAOKBAD@Oct?$AA@  00480ce8     LIBCMT:nlsdata.obj
 0002:0000dcec       ??_C@_03JPJOFNIA@Nov?$AA@  00480cec     LIBCMT:nlsdata.obj
 0002:0000dcf0       ??_C@_03MKABNOCG@Dec?$AA@  00480cf0     LIBCMT:nlsdata.obj
 0002:0000dcf4       ??_C@_07CGJPFGJA@January?$AA@ 00480cf4     LIBCMT:nlsdata.obj
 0002:0000dcfc       ??_C@_08GNJGEPFN@February?$AA@ 00480cfc     LIBCMT:nlsdata.obj
 0002:0000dd08       ??_C@_05HPCKOFNC@March?$AA@ 00480d08     LIBCMT:nlsdata.obj
 0002:0000dd10       ??_C@_05DMJDNLEJ@April?$AA@ 00480d10     LIBCMT:nlsdata.obj
 0002:0000dd18       ??_C@_04CNLMGBGM@June?$AA@ 00480d18     LIBCMT:nlsdata.obj
 0002:0000dd20       ??_C@_04MIEPOIFP@July?$AA@ 00480d20     LIBCMT:nlsdata.obj
 0002:0000dd28       ??_C@_06LBBHFDDG@August?$AA@ 00480d28     LIBCMT:nlsdata.obj
 0002:0000dd30       ??_C@_09BHHEALKD@September?$AA@ 00480d30     LIBCMT:nlsdata.obj
 0002:0000dd3c       ??_C@_07JJNFCEND@October?$AA@ 00480d3c     LIBCMT:nlsdata.obj
 0002:0000dd44       ??_C@_08HCHEGEOA@November?$AA@ 00480d44     LIBCMT:nlsdata.obj
 0002:0000dd50       ??_C@_08EDHMEBNP@December?$AA@ 00480d50     LIBCMT:nlsdata.obj
 0002:0000dd5c       ??_C@_02DEDBPAFC@AM?$AA@   00480d5c     LIBCMT:nlsdata.obj
 0002:0000dd60       ??_C@_02CJNFDJBF@PM?$AA@   00480d60     LIBCMT:nlsdata.obj
 0002:0000dd64       ??_C@_08BPBNCDIB@MM?1dd?1yy?$AA@ 00480d64     LIBCMT:nlsdata.obj
 0002:0000dd70       ??_C@_0BE@CKGJFCPC@dddd?0?5MMMM?5dd?0?5yyyy?$AA@ 00480d70     LIBCMT:nlsdata.obj
 0002:0000dd84       ??_C@_08JCCMCCIL@HH?3mm?3ss?$AA@ 00480d84     LIBCMT:nlsdata.obj
 0002:0000dd90       ??_C@_17MBGCMIPB@?$AAS?$AAu?$AAn?$AA?$AA@ 00480d90     LIBCMT:nlsdata.obj
 0002:0000dd98       ??_C@_17KBOMKBF@?$AAM?$AAo?$AAn?$AA?$AA@ 00480d98     LIBCMT:nlsdata.obj
 0002:0000dda0       ??_C@_17BMKGEGOJ@?$AAT?$AAu?$AAe?$AA?$AA@ 00480da0     LIBCMT:nlsdata.obj
 0002:0000dda8       ??_C@_17CJEDCEPE@?$AAW?$AAe?$AAd?$AA?$AA@ 00480da8     LIBCMT:nlsdata.obj
 0002:0000ddb0       ??_C@_17PDPHAADD@?$AAT?$AAh?$AAu?$AA?$AA@ 00480db0     LIBCMT:nlsdata.obj
 0002:0000ddb8       ??_C@_17HFOLPPLP@?$AAF?$AAr?$AAi?$AA?$AA@ 00480db8     LIBCMT:nlsdata.obj
 0002:0000ddc0       ??_C@_17GGIBDPIH@?$AAS?$AAa?$AAt?$AA?$AA@ 00480dc0     LIBCMT:nlsdata.obj
 0002:0000ddc8       ??_C@_1O@IHNHDHPB@?$AAS?$AAu?$AAn?$AAd?$AAa?$AAy?$AA?$AA@ 00480dc8     LIBCMT:nlsdata.obj
 0002:0000ddd8       ??_C@_1O@MMNBFLIA@?$AAM?$AAo?$AAn?$AAd?$AAa?$AAy?$AA?$AA@ 00480dd8     LIBCMT:nlsdata.obj
 0002:0000dde8       ??_C@_1BA@ENFBFFEK@?$AAT?$AAu?$AAe?$AAs?$AAd?$AAa?$AAy?$AA?$AA@ 00480de8     LIBCMT:nlsdata.obj
 0002:0000ddf8       ??_C@_1BE@EBOGMDOH@?$AAW?$AAe?$AAd?$AAn?$AAe?$AAs?$AAd?$AAa?$AAy?$AA?$AA@ 00480df8     LIBCMT:nlsdata.obj
 0002:0000de0c       ??_C@_1BC@HHMNLIHE@?$AAT?$AAh?$AAu?$AAr?$AAs?$AAd?$AAa?$AAy?$AA?$AA@ 00480e0c     LIBCMT:nlsdata.obj
 0002:0000de20       ??_C@_1O@PDICJHAG@?$AAF?$AAr?$AAi?$AAd?$AAa?$AAy?$AA?$AA@ 00480e20     LIBCMT:nlsdata.obj
 0002:0000de30       ??_C@_1BC@ENMNNPAJ@?$AAS?$AAa?$AAt?$AAu?$AAr?$AAd?$AAa?$AAy?$AA?$AA@ 00480e30     LIBCMT:nlsdata.obj
 0002:0000de44       ??_C@_17DKNBKCHM@?$AAJ?$AAa?$AAn?$AA?$AA@ 00480e44     LIBCMT:nlsdata.obj
 0002:0000de4c       ??_C@_17LMDJEKJN@?$AAF?$AAe?$AAb?$AA?$AA@ 00480e4c     LIBCMT:nlsdata.obj
 0002:0000de54       ??_C@_17CKNLEDEC@?$AAM?$AAa?$AAr?$AA?$AA@ 00480e54     LIBCMT:nlsdata.obj
 0002:0000de5c       ??_C@_17LFPOIHDD@?$AAA?$AAp?$AAr?$AA?$AA@ 00480e5c     LIBCMT:nlsdata.obj
 0002:0000de64       ??_C@_17PNNKMEED@?$AAM?$AAa?$AAy?$AA?$AA@ 00480e64     LIBCMT:nlsdata.obj
 0002:0000de6c       ??_C@_17KCJGOCPB@?$AAJ?$AAu?$AAn?$AA?$AA@ 00480e6c     LIBCMT:nlsdata.obj
 0002:0000de74       ??_C@_17IJPCKHK@?$AAJ?$AAu?$AAl?$AA?$AA@ 00480e74     LIBCMT:nlsdata.obj
 0002:0000de7c       ??_C@_17ICPELBCN@?$AAA?$AAu?$AAg?$AA?$AA@ 00480e7c     LIBCMT:nlsdata.obj
 0002:0000de84       ??_C@_17HCHCOKMG@?$AAS?$AAe?$AAp?$AA?$AA@ 00480e84     LIBCMT:nlsdata.obj
 0002:0000de8c       ??_C@_17FNLKOI@?$AAO?$AAc?$AAt?$AA?$AA@ 00480e8c     LIBCMT:nlsdata.obj
 0002:0000de94       ??_C@_17BBDMLCIG@?$AAN?$AAo?$AAv?$AA?$AA@ 00480e94     LIBCMT:nlsdata.obj
 0002:0000de9c       ??_C@_17EGKACKIF@?$AAD?$AAe?$AAc?$AA?$AA@ 00480e9c     LIBCMT:nlsdata.obj
 0002:0000dea4       ??_C@_1BA@EFMEIEBA@?$AAJ?$AAa?$AAn?$AAu?$AAa?$AAr?$AAy?$AA?$AA@ 00480ea4     LIBCMT:nlsdata.obj
 0002:0000deb4       ??_C@_1BC@JGDDFFAM@?$AAF?$AAe?$AAb?$AAr?$AAu?$AAa?$AAr?$AAy?$AA?$AA@ 00480eb4     LIBCMT:nlsdata.obj
 0002:0000dec8       ??_C@_1M@IKEENEDF@?$AAM?$AAa?$AAr?$AAc?$AAh?$AA?$AA@ 00480ec8     LIBCMT:nlsdata.obj
 0002:0000ded4       ??_C@_1M@GJNLMHFD@?$AAA?$AAp?$AAr?$AAi?$AAl?$AA?$AA@ 00480ed4     LIBCMT:nlsdata.obj
 0002:0000dee0       ??_C@_19EPFLPGAP@?$AAJ?$AAu?$AAn?$AAe?$AA?$AA@ 00480ee0     LIBCMT:nlsdata.obj
 0002:0000deec       ??_C@_19BIFMLPCD@?$AAJ?$AAu?$AAl?$AAy?$AA?$AA@ 00480eec     LIBCMT:nlsdata.obj
 0002:0000def8       ??_C@_1O@PAHLKOAC@?$AAA?$AAu?$AAg?$AAu?$AAs?$AAt?$AA?$AA@ 00480ef8     LIBCMT:nlsdata.obj
 0002:0000df08       ??_C@_1BE@DKAAMBJL@?$AAS?$AAe?$AAp?$AAt?$AAe?$AAm?$AAb?$AAe?$AAr?$AA?$AA@ 00480f08     LIBCMT:nlsdata.obj
 0002:0000df1c       ??_C@_1BA@EPANDLNG@?$AAO?$AAc?$AAt?$AAo?$AAb?$AAe?$AAr?$AA?$AA@ 00480f1c     LIBCMT:nlsdata.obj
 0002:0000df2c       ??_C@_1BC@BGLIFPF@?$AAN?$AAo?$AAv?$AAe?$AAm?$AAb?$AAe?$AAr?$AA?$AA@ 00480f2c     LIBCMT:nlsdata.obj
 0002:0000df40       ??_C@_1BC@FEMKIFH@?$AAD?$AAe?$AAc?$AAe?$AAm?$AAb?$AAe?$AAr?$AA?$AA@ 00480f40     LIBCMT:nlsdata.obj
 0002:0000df54       ??_C@_15ODEHAHHF@?$AAA?$AAM?$AA?$AA@ 00480f54     LIBCMT:nlsdata.obj
 0002:0000df5c       ??_C@_15CLMNNGEL@?$AAP?$AAM?$AA?$AA@ 00480f5c     LIBCMT:nlsdata.obj
 0002:0000df64       ??_C@_1BC@IEBCMHCM@?$AAM?$AAM?$AA?1?$AAd?$AAd?$AA?1?$AAy?$AAy?$AA?$AA@ 00480f64     LIBCMT:nlsdata.obj
 0002:0000df78       ??_C@_1CI@KNAKOEBC@?$AAd?$AAd?$AAd?$AAd?$AA?0?$AA?5?$AAM?$AAM?$AAM?$AAM?$AA?5?$AAd?$AAd?$AA?0?$AA?5?$AAy?$AAy?$AAy?$AAy?$AA?$AA@ 00480f78     LIBCMT:nlsdata.obj
 0002:0000dfa0       ??_C@_1BC@GDGBMEMK@?$AAH?$AAH?$AA?3?$AAm?$AAm?$AA?3?$AAs?$AAs?$AA?$AA@ 00480fa0     LIBCMT:nlsdata.obj
 0002:0000dfb4       ??_C@_1M@BMHNFIME@?$AAe?$AAn?$AA?9?$AAU?$AAS?$AA?$AA@ 00480fb4     LIBCMT:nlsdata.obj
 0002:0000e040       __pDestructExceptionObject 00481040     LIBCMT:frame.obj
 0002:0000e048       ??_7bad_exception@std@@6B@ 00481048     LIBCMT:frame.obj
 0002:0000e050       ??_C@_0O@DPKOEFFH@bad?5exception?$AA@ 00481050     LIBCMT:frame.obj
 0002:0000e060       __XcptActTab               00481060     LIBCMT:winxfltr.obj
 0002:0000e0f0       __XcptActTabCount          004810f0     LIBCMT:winxfltr.obj
 0002:0000e0f4       __XcptActTabSize           004810f4     LIBCMT:winxfltr.obj
 0002:0000e0f8       __First_FPE_Indx           004810f8     LIBCMT:winxfltr.obj
 0002:0000e0fc       __Num_FPE                  004810fc     LIBCMT:winxfltr.obj
 0002:0000e100       __indefinite               00481100     LIBCMT:87disp.obj
 0002:0000e10a       __piby2                    0048110a     LIBCMT:87disp.obj
 0002:0000e138       __DEFAULT_CW_in_mem        00481138     LIBCMT:common.obj
 0002:0000e13a       __pi_by_2_to_61            0048113a     LIBCMT:common.obj
 0002:00011180       __OP_ATAN2jmptab           00484180     LIBCMT:87triga.obj
 0002:000139f0       __sys_errlist              004869f0     LIBCMT:syserr.obj
 0002:00013aa0       ??_C@_08INEPGKHH@No?5error?$AA@ 00486aa0     LIBCMT:syserr.obj
 0002:00013aac       ??_C@_0BI@BJFCGOHL@Operation?5not?5permitted?$AA@ 00486aac     LIBCMT:syserr.obj
 0002:00013ac4       ??_C@_0BK@FMDHKPNF@No?5such?5file?5or?5directory?$AA@ 00486ac4     LIBCMT:syserr.obj
 0002:00013ae0       ??_C@_0BA@FKIAIBGA@No?5such?5process?$AA@ 00486ae0     LIBCMT:syserr.obj
 0002:00013af0       ??_C@_0BK@FJBOAFDK@Interrupted?5function?5call?$AA@ 00486af0     LIBCMT:syserr.obj
 0002:00013b0c       ??_C@_0BD@KKNFOBBD@Input?1output?5error?$AA@ 00486b0c     LIBCMT:syserr.obj
 0002:00013b20       ??_C@_0BK@DPKMCKJ@No?5such?5device?5or?5address?$AA@ 00486b20     LIBCMT:syserr.obj
 0002:00013b3c       ??_C@_0BC@MFFGCDFL@Arg?5list?5too?5long?$AA@ 00486b3c     LIBCMT:syserr.obj
 0002:00013b50       ??_C@_0BC@HKPNECK@Exec?5format?5error?$AA@ 00486b50     LIBCMT:syserr.obj
 0002:00013b64       ??_C@_0BE@NFGDDCEF@Bad?5file?5descriptor?$AA@ 00486b64     LIBCMT:syserr.obj
 0002:00013b78       ??_C@_0BD@LOHELEP@No?5child?5processes?$AA@ 00486b78     LIBCMT:syserr.obj
 0002:00013b8c       ??_C@_0CB@EPFKGNAK@Resource?5temporarily?5unavailable@ 00486b8c     LIBCMT:syserr.obj
 0002:00013bb0       ??_C@_0BB@IMDKMPFB@Not?5enough?5space?$AA@ 00486bb0     LIBCMT:syserr.obj
 0002:00013bc4       ??_C@_0BC@HFNFNKAI@Permission?5denied?$AA@ 00486bc4     LIBCMT:syserr.obj
 0002:00013bd8       ??_C@_0M@LOEHLCJD@Bad?5address?$AA@ 00486bd8     LIBCMT:syserr.obj
 0002:00013be4       ??_C@_0O@NIPGCINC@Unknown?5error?$AA@ 00486be4     LIBCMT:syserr.obj
 0002:00013bf4       ??_C@_0BA@BIBLIOEK@Resource?5device?$AA@ 00486bf4     LIBCMT:syserr.obj
 0002:00013c04       ??_C@_0M@NAAJNNGH@File?5exists?$AA@ 00486c04     LIBCMT:syserr.obj
 0002:00013c10       ??_C@_0O@OAMDNOCP@Improper?5link?$AA@ 00486c10     LIBCMT:syserr.obj
 0002:00013c20       ??_C@_0P@NLEIANHE@No?5such?5device?$AA@ 00486c20     LIBCMT:syserr.obj
 0002:00013c30       ??_C@_0BA@CJBACOOL@Not?5a?5directory?$AA@ 00486c30     LIBCMT:syserr.obj
 0002:00013c40       ??_C@_0P@NDHGCGKE@Is?5a?5directory?$AA@ 00486c40     LIBCMT:syserr.obj
 0002:00013c50       ??_C@_0BB@HMGGCEBG@Invalid?5argument?$AA@ 00486c50     LIBCMT:syserr.obj
 0002:00013c64       ??_C@_0BO@IIFBODJE@Too?5many?5open?5files?5in?5system?$AA@ 00486c64     LIBCMT:syserr.obj
 0002:00013c84       ??_C@_0BE@INBJMKGG@Too?5many?5open?5files?$AA@ 00486c84     LIBCMT:syserr.obj
 0002:00013c98       ??_C@_0CE@ONOKNLPF@Inappropriate?5I?1O?5control?5operat@ 00486c98     LIBCMT:syserr.obj
 0002:00013cbc       ??_C@_0P@LFMMIPAE@File?5too?5large?$AA@ 00486cbc     LIBCMT:syserr.obj
 0002:00013ccc       ??_C@_0BI@FEALHKLD@No?5space?5left?5on?5device?$AA@ 00486ccc     LIBCMT:syserr.obj
 0002:00013ce4       ??_C@_0N@FEHLOILP@Invalid?5seek?$AA@ 00486ce4     LIBCMT:syserr.obj
 0002:00013cf4       ??_C@_0BG@DDBFNKBH@Read?9only?5file?5system?$AA@ 00486cf4     LIBCMT:syserr.obj
 0002:00013d0c       ??_C@_0P@PKCJJLLM@Too?5many?5links?$AA@ 00486d0c     LIBCMT:syserr.obj
 0002:00013d1c       ??_C@_0M@LHEPIIOM@Broken?5pipe?$AA@ 00486d1c     LIBCMT:syserr.obj
 0002:00013d28       ??_C@_0N@MMJPGLJK@Domain?5error?$AA@ 00486d28     LIBCMT:syserr.obj
 0002:00013d38       ??_C@_0BB@FCBJFCAJ@Result?5too?5large?$AA@ 00486d38     LIBCMT:syserr.obj
 0002:00013d4c       ??_C@_0BK@JAEBMJJM@Resource?5deadlock?5avoided?$AA@ 00486d4c     LIBCMT:syserr.obj
 0002:00013d68       ??_C@_0BC@BEDIHIDK@Filename?5too?5long?$AA@ 00486d68     LIBCMT:syserr.obj
 0002:00013d7c       ??_C@_0BD@CLHBCGPB@No?5locks?5available?$AA@ 00486d7c     LIBCMT:syserr.obj
 0002:00013d90       ??_C@_0BJ@IHEHINLI@Function?5not?5implemented?$AA@ 00486d90     LIBCMT:syserr.obj
 0002:00013dac       ??_C@_0BE@ICMCHPHH@Directory?5not?5empty?$AA@ 00486dac     LIBCMT:syserr.obj
 0002:00013dc0       ??_C@_0BG@KLEAJEFJ@Illegal?5byte?5sequence?$AA@ 00486dc0     LIBCMT:syserr.obj
 0002:00013dd8       ??_C@_15HEJOKEHO@?$AA?$DP?$AA?$CK?$AA?$AA@ 00486dd8     LIBCMT:wstati32.obj
 0002:00013de0       ??_C@_17BAAFHAL@?$AA?4?$AA?1?$AA?2?$AA?$AA@ 00486de0     LIBCMT:wstati32.obj
 0002:00013de8       ??_C@_04CPCBDHLK@?4cmd?$AA@ 00486de8     LIBCMT:spawnve.obj
 0002:00013df0       ??_C@_04NEEFLLOK@?4bat?$AA@ 00486df0     LIBCMT:spawnve.obj
 0002:00013df8       ??_C@_04JLMDILM@?4exe?$AA@ 00486df8     LIBCMT:spawnve.obj
 0002:00013e00       ??_C@_04PNGHFIJN@?4com?$AA@ 00486e00     LIBCMT:spawnve.obj
 0002:00013e08       ??_C@_02CEGDFPFP@?4?2?$AA@ 00486e08     LIBCMT:spawnve.obj
 0002:00013e0c       ??_C@_04HBHDLLBA@PATH?$AA@ 00486e0c     LIBCMT:spawnvpe.obj
 0002:00013e20       ___lookuptable_s           00486e20     LIBCMT:outputs.obj
 0002:00013e7c       ??_C@_04COOMCNPB@sinh?$AA@ 00486e7c     LIBCMT:fpexcept.obj
 0002:00013e84       ??_C@_04HPJJNFIM@cosh?$AA@ 00486e84     LIBCMT:fpexcept.obj
 0002:00013e8c       ??_C@_04FJHINJAO@tanh?$AA@ 00486e8c     LIBCMT:fpexcept.obj
 0002:00013e94       ??_C@_05KNGEOGJB@atan2?$AA@ 00486e94     LIBCMT:fpexcept.obj
 0002:00013e9c       ??_C@_04ODHECPBC@fabs?$AA@ 00486e9c     LIBCMT:fpexcept.obj
 0002:00013ea4       ??_C@_05CEJMAHNP@ldexp?$AA@ 00486ea4     LIBCMT:fpexcept.obj
 0002:00013eac       ??_C@_05KBKMEMPO@_cabs?$AA@ 00486eac     LIBCMT:fpexcept.obj
 0002:00013eb4       ??_C@_06MEIMCGCF@_hypot?$AA@ 00486eb4     LIBCMT:fpexcept.obj
 0002:00013ebc       ??_C@_04KEPJIHGP@fmod?$AA@ 00486ebc     LIBCMT:fpexcept.obj
 0002:00013ec4       ??_C@_05GKKHEGJL@frexp?$AA@ 00486ec4     LIBCMT:fpexcept.obj
 0002:00013ecc       ??_C@_03MJLDFKDL@_y0?$AA@  00486ecc     LIBCMT:fpexcept.obj
 0002:00013ed0       ??_C@_03NAKIGLHK@_y1?$AA@  00486ed0     LIBCMT:fpexcept.obj
 0002:00013ed4       ??_C@_03ONILCKOB@_yn?$AA@  00486ed4     LIBCMT:fpexcept.obj
 0002:00013ed8       ??_C@_05JGDBENOH@_logb?$AA@ 00486ed8     LIBCMT:fpexcept.obj
 0002:00013ee0       ??_C@_0L@KDOEJCKC@_nextafter?$AA@ 00486ee0     LIBCMT:fpexcept.obj
 0002:00013eec       ??_C@_1BG@GOEBHBDC@?$AAU?$AAS?$AAE?$AAR?$AA3?$AA2?$AA?4?$AAD?$AAL?$AAL?$AA?$AA@ 00486eec     LIBCMT:crtmboxw.obj
 0002:00013f04       ??_C@_0M@DLDCCGNP@MessageBoxW?$AA@ 00486f04     LIBCMT:crtmboxw.obj
 0002:00013f10       ??_C@_0BA@HNOPNCHB@GetActiveWindow?$AA@ 00486f10     LIBCMT:crtmboxw.obj
 0002:00013f20       ??_C@_0BD@HHGDFDBJ@GetLastActivePopup?$AA@ 00486f20     LIBCMT:crtmboxw.obj
 0002:00013f34       ??_C@_0BK@DEKFELLI@GetUserObjectInformationW?$AA@ 00486f34     LIBCMT:crtmboxw.obj
 0002:00013f50       ??_C@_0BI@DFKBFLJE@GetProcessWindowStation?$AA@ 00486f50     LIBCMT:crtmboxw.obj
 0002:00013f68       _LcidToLocaleNameTable     00486f68     LIBCMT:winapinls.obj
 0002:00014688       _LocaleNameToIndexTable    00487688     LIBCMT:winapinls.obj
 0002:00014da8       ??_C@_15EMKDOKLE@?$AAa?$AAr?$AA?$AA@ 00487da8     LIBCMT:winapinls.obj
 0002:00014db0       ??_C@_15KNPADPLH@?$AAb?$AAg?$AA?$AA@ 00487db0     LIBCMT:winapinls.obj
 0002:00014db8       ??_C@_15EDMHLDMO@?$AAc?$AAa?$AA?$AA@ 00487db8     LIBCMT:winapinls.obj
 0002:00014dc0       ??_C@_1O@BPEAJADD@?$AAz?$AAh?$AA?9?$AAC?$AAH?$AAS?$AA?$AA@ 00487dc0     LIBCMT:winapinls.obj
 0002:00014dd0       ??_C@_15LJNHCMNK@?$AAc?$AAs?$AA?$AA@ 00487dd0     LIBCMT:winapinls.obj
 0002:00014dd8       ??_C@_15FOMCIDHG@?$AAd?$AAa?$AA?$AA@ 00487dd8     LIBCMT:winapinls.obj
 0002:00014de0       ??_C@_15NBKABECB@?$AAd?$AAe?$AA?$AA@ 00487de0     LIBCMT:winapinls.obj
 0002:00014de8       ??_C@_15GHPEIIAO@?$AAe?$AAl?$AA?$AA@ 00487de8     LIBCMT:winapinls.obj
 0002:00014df0       ??_C@_15MNPNEAIF@?$AAe?$AAn?$AA?$AA@ 00487df0     LIBCMT:winapinls.obj
 0002:00014df8       ??_C@_15GPIOMPMH@?$AAe?$AAs?$AA?$AA@ 00487df8     LIBCMT:winapinls.obj
 0002:00014e00       ??_C@_15NGLOAKJC@?$AAf?$AAi?$AA?$AA@ 00487e00     LIBCMT:winapinls.obj
 0002:00014e08       ??_C@_15FBKGNKAM@?$AAf?$AAr?$AA?$AA@ 00487e08     LIBCMT:winapinls.obj
 0002:00014e10       ??_C@_15KGGCNEFK@?$AAh?$AAe?$AA?$AA@ 00487e10     LIBCMT:winapinls.obj
 0002:00014e18       ??_C@_15PGHLIDMF@?$AAh?$AAu?$AA?$AA@ 00487e18     LIBCMT:winapinls.obj
 0002:00014e20       ??_C@_15BIEMAPLM@?$AAi?$AAs?$AA?$AA@ 00487e20     LIBCMT:winapinls.obj
 0002:00014e28       ??_C@_15IFJLDHAF@?$AAi?$AAt?$AA?$AA@ 00487e28     LIBCMT:winapinls.obj
 0002:00014e30       ??_C@_15GEMIOCAG@?$AAj?$AAa?$AA?$AA@ 00487e30     LIBCMT:winapinls.obj
 0002:00014e38       ??_C@_15EPELEGJA@?$AAk?$AAo?$AA?$AA@ 00487e38     LIBCMT:winapinls.obj
 0002:00014e40       ??_C@_15NDDHIMN@?$AAn?$AAl?$AA?$AA@ 00487e40     LIBCMT:winapinls.obj
 0002:00014e48       ??_C@_15BPIGNHCD@?$AAn?$AAo?$AA?$AA@ 00487e48     LIBCMT:winapinls.obj
 0002:00014e50       ??_C@_15DEOPBLCG@?$AAp?$AAl?$AA?$AA@ 00487e50     LIBCMT:winapinls.obj
 0002:00014e58       ??_C@_15KBECGEFG@?$AAp?$AAt?$AA?$AA@ 00487e58     LIBCMT:winapinls.obj
 0002:00014e60       ??_C@_15GLJCBFMD@?$AAr?$AAo?$AA?$AA@ 00487e60     LIBCMT:winapinls.obj
 0002:00014e68       ??_C@_15FEDGKCDI@?$AAr?$AAu?$AA?$AA@ 00487e68     LIBCMT:winapinls.obj
 0002:00014e70       ??_C@_15GLKMLLHM@?$AAh?$AAr?$AA?$AA@ 00487e70     LIBCMT:winapinls.obj
 0002:00014e78       ??_C@_15CPKMFBDB@?$AAs?$AAk?$AA?$AA@ 00487e78     LIBCMT:winapinls.obj
 0002:00014e80       ??_C@_15BAAIOGMK@?$AAs?$AAq?$AA?$AA@ 00487e80     LIBCMT:winapinls.obj
 0002:00014e88       ??_C@_15INNPNOHD@?$AAs?$AAv?$AA?$AA@ 00487e88     LIBCMT:winapinls.obj
 0002:00014e90       ??_C@_15CABMMOGH@?$AAt?$AAh?$AA?$AA@ 00487e90     LIBCMT:winapinls.obj
 0002:00014e98       ??_C@_15BPLIHJJM@?$AAt?$AAr?$AA?$AA@ 00487e98     LIBCMT:winapinls.obj
 0002:00014ea0       ??_C@_15NEOEKKDJ@?$AAu?$AAr?$AA?$AA@ 00487ea0     LIBCMT:winapinls.obj
 0002:00014ea8       ??_C@_15NFICGAJK@?$AAi?$AAd?$AA?$AA@ 00487ea8     LIBCMT:winapinls.obj
 0002:00014eb0       ??_C@_15PJPFLCCM@?$AAu?$AAk?$AA?$AA@ 00487eb0     LIBCMT:winapinls.obj
 0002:00014eb8       ??_C@_15HPJPHDM@?$AAb?$AAe?$AA?$AA@ 00487eb8     LIBCMT:winapinls.obj
 0002:00014ec0       ??_C@_15LCHLGJII@?$AAs?$AAl?$AA?$AA@ 00487ec0     LIBCMT:winapinls.obj
 0002:00014ec8       ??_C@_15PCFJPHHO@?$AAe?$AAt?$AA?$AA@ 00487ec8     LIBCMT:winapinls.obj
 0002:00014ed0       ??_C@_15HPFPGODN@?$AAl?$AAv?$AA?$AA@ 00487ed0     LIBCMT:winapinls.obj
 0002:00014ed8       ??_C@_15NFFGKGLG@?$AAl?$AAt?$AA?$AA@ 00487ed8     LIBCMT:winapinls.obj
 0002:00014ee0       ??_C@_15BDAKCCHN@?$AAf?$AAa?$AA?$AA@ 00487ee0     LIBCMT:winapinls.obj
 0002:00014ee8       ??_C@_15NFGIAIAJ@?$AAv?$AAi?$AA?$AA@ 00487ee8     LIBCMT:winapinls.obj
 0002:00014ef0       ??_C@_15LMKNDMHN@?$AAh?$AAy?$AA?$AA@ 00487ef0     LIBCMT:winapinls.obj
 0002:00014ef8       ??_C@_15IJBHMCFL@?$AAa?$AAz?$AA?$AA@ 00487ef8     LIBCMT:winapinls.obj
 0002:00014f00       ??_C@_15EKOFJABL@?$AAe?$AAu?$AA?$AA@ 00487f00     LIBCMT:winapinls.obj
 0002:00014f08       ??_C@_15BGHADCNK@?$AAm?$AAk?$AA?$AA@ 00487f08     LIBCMT:winapinls.obj
 0002:00014f10       ??_C@_15JDNICKHM@?$AAa?$AAf?$AA?$AA@ 00487f10     LIBCMT:winapinls.obj
 0002:00014f18       ??_C@_15KPJEDBKD@?$AAk?$AAa?$AA?$AA@ 00487f18     LIBCMT:winapinls.obj
 0002:00014f20       ??_C@_15PDNFFFEO@?$AAf?$AAo?$AA?$AA@ 00487f20     LIBCMT:winapinls.obj
 0002:00014f28       ??_C@_15OMLEGLOC@?$AAh?$AAi?$AA?$AA@ 00487f28     LIBCMT:winapinls.obj
 0002:00014f30       ??_C@_15IDNNENKK@?$AAm?$AAs?$AA?$AA@ 00487f30     LIBCMT:winapinls.obj
 0002:00014f38       ??_C@_15MACJNBMH@?$AAk?$AAk?$AA?$AA@ 00487f38     LIBCMT:winapinls.obj
 0002:00014f40       ??_C@_15DKDJEOND@?$AAk?$AAy?$AA?$AA@ 00487f40     LIBCMT:winapinls.obj
 0002:00014f48       ??_C@_15DFGDLJBG@?$AAs?$AAw?$AA?$AA@ 00487f48     LIBCMT:winapinls.obj
 0002:00014f50       ??_C@_15BBFAICNG@?$AAu?$AAz?$AA?$AA@ 00487f50     LIBCMT:winapinls.obj
 0002:00014f58       ??_C@_15DKNDCGEA@?$AAt?$AAt?$AA?$AA@ 00487f58     LIBCMT:winapinls.obj
 0002:00014f60       ??_C@_15MGIFMDPL@?$AAp?$AAa?$AA?$AA@ 00487f60     LIBCMT:winapinls.obj
 0002:00014f68       ??_C@_15HCNDBBA@?$AAg?$AAu?$AA?$AA@ 00487f68     LIBCMT:winapinls.obj
 0002:00014f70       ??_C@_15FNBEIBON@?$AAt?$AAa?$AA?$AA@ 00487f70     LIBCMT:winapinls.obj
 0002:00014f78       ??_C@_15NCHGBGLK@?$AAt?$AAe?$AA?$AA@ 00487f78     LIBCMT:winapinls.obj
 0002:00014f80       ??_C@_15PHPHCBPF@?$AAk?$AAn?$AA?$AA@ 00487f80     LIBCMT:winapinls.obj
 0002:00014f88       ??_C@_15DLGBCKMP@?$AAm?$AAr?$AA?$AA@ 00487f88     LIBCMT:winapinls.obj
 0002:00014f90       ??_C@_15EABBLBFF@?$AAs?$AAa?$AA?$AA@ 00487f90     LIBCMT:winapinls.obj
 0002:00014f98       ??_C@_15CBKOMCOI@?$AAm?$AAn?$AA?$AA@ 00487f98     LIBCMT:winapinls.obj
 0002:00014fa0       ??_C@_15CKDMCJAF@?$AAg?$AAl?$AA?$AA@ 00487fa0     LIBCMT:winapinls.obj
 0002:00014fa8       ??_C@_17CNJFBPG@?$AAk?$AAo?$AAk?$AA?$AA@ 00487fa8     LIBCMT:winapinls.obj
 0002:00014fb0       ??_C@_17FFBJICPL@?$AAs?$AAy?$AAr?$AA?$AA@ 00487fb0     LIBCMT:winapinls.obj
 0002:00014fb8       ??_C@_17KPNDCPAF@?$AAd?$AAi?$AAv?$AA?$AA@ 00487fb8     LIBCMT:winapinls.obj
 0002:00014fc0       ??_C@_11LOCGONAA@?$AA?$AA@ 00487fc0     LIBCMT:winapinls.obj
 0002:00014fc4       ??_C@_1M@OKAHONE@?$AAa?$AAr?$AA?9?$AAS?$AAA?$AA?$AA@ 00487fc4     LIBCMT:winapinls.obj
 0002:00014fd0       ??_C@_1M@FFFIGIGK@?$AAb?$AAg?$AA?9?$AAB?$AAG?$AA?$AA@ 00487fd0     LIBCMT:winapinls.obj
 0002:00014fdc       ??_C@_1M@BJNKEDC@?$AAc?$AAa?$AA?9?$AAE?$AAS?$AA?$AA@ 00487fdc     LIBCMT:winapinls.obj
 0002:00014fe8       ??_C@_1M@IJJHFJHA@?$AAc?$AAs?$AA?9?$AAC?$AAZ?$AA?$AA@ 00487fe8     LIBCMT:winapinls.obj
 0002:00014ff4       ??_C@_1M@CLPEOBGI@?$AAd?$AAa?$AA?9?$AAD?$AAK?$AA?$AA@ 00487ff4     LIBCMT:winapinls.obj
 0002:00015000       ??_C@_1M@MCMADGCB@?$AAd?$AAe?$AA?9?$AAD?$AAE?$AA?$AA@ 00488000     LIBCMT:winapinls.obj
 0002:0001500c       ??_C@_1M@OOCKEMAM@?$AAe?$AAl?$AA?9?$AAG?$AAR?$AA?$AA@ 0048800c     LIBCMT:winapinls.obj
 0002:00015018       ??_C@_1M@DDNJFGID@?$AAf?$AAi?$AA?9?$AAF?$AAI?$AA?$AA@ 00488018     LIBCMT:winapinls.obj
 0002:00015024       ??_C@_1M@GLIPPMAC@?$AAf?$AAr?$AA?9?$AAF?$AAR?$AA?$AA@ 00488024     LIBCMT:winapinls.obj
 0002:00015030       ??_C@_1M@GFMCHPE@?$AAh?$AAe?$AA?9?$AAI?$AAL?$AA?$AA@ 00488030     LIBCMT:winapinls.obj
 0002:0001503c       ??_C@_1M@MHLPGNKM@?$AAh?$AAu?$AA?9?$AAH?$AAU?$AA?$AA@ 0048803c     LIBCMT:winapinls.obj
 0002:00015048       ??_C@_1M@LPDDNNPN@?$AAi?$AAs?$AA?9?$AAI?$AAS?$AA?$AA@ 00488048     LIBCMT:winapinls.obj
 0002:00015054       ??_C@_1M@MADIPODN@?$AAi?$AAt?$AA?9?$AAI?$AAT?$AA?$AA@ 00488054     LIBCMT:winapinls.obj
 0002:00015060       ??_C@_1M@IHBJJGG@?$AAn?$AAl?$AA?9?$AAN?$AAL?$AA?$AA@ 00488060     LIBCMT:winapinls.obj
 0002:0001506c       ??_C@_1M@EANAGDL@?$AAn?$AAb?$AA?9?$AAN?$AAO?$AA?$AA@ 0048806c     LIBCMT:winapinls.obj
 0002:00015078       ??_C@_1M@NEIEMEGP@?$AAp?$AAl?$AA?9?$AAP?$AAL?$AA?$AA@ 00488078     LIBCMT:winapinls.obj
 0002:00015084       ??_C@_1M@BOCFIGEP@?$AAp?$AAt?$AA?9?$AAB?$AAR?$AA?$AA@ 00488084     LIBCMT:winapinls.obj
 0002:00015090       ??_C@_1M@IMPFOPBG@?$AAr?$AAo?$AA?9?$AAR?$AAO?$AA?$AA@ 00488090     LIBCMT:winapinls.obj
 0002:0001509c       ??_C@_1M@IDNNEJMM@?$AAr?$AAu?$AA?9?$AAR?$AAU?$AA?$AA@ 0048809c     LIBCMT:winapinls.obj
 0002:000150a8       ??_C@_1M@LILEEOGM@?$AAh?$AAr?$AA?9?$AAH?$AAR?$AA?$AA@ 004880a8     LIBCMT:winapinls.obj
 0002:000150b4       ??_C@_1M@FKIFEHPB@?$AAs?$AAk?$AA?9?$AAS?$AAK?$AA?$AA@ 004880b4     LIBCMT:winapinls.obj
 0002:000150c0       ??_C@_1M@LJMAMNPJ@?$AAs?$AAq?$AA?9?$AAA?$AAL?$AA?$AA@ 004880c0     LIBCMT:winapinls.obj
 0002:000150cc       ??_C@_1M@GIAKDKJK@?$AAs?$AAv?$AA?9?$AAS?$AAE?$AA?$AA@ 004880cc     LIBCMT:winapinls.obj
 0002:000150d8       ??_C@_1M@MKJKIKCL@?$AAt?$AAh?$AA?9?$AAT?$AAH?$AA?$AA@ 004880d8     LIBCMT:winapinls.obj
 0002:000150e4       ??_C@_1M@MFLCCMPB@?$AAt?$AAr?$AA?9?$AAT?$AAR?$AA?$AA@ 004880e4     LIBCMT:winapinls.obj
 0002:000150f0       ??_C@_1M@OIJHDKJN@?$AAu?$AAr?$AA?9?$AAP?$AAK?$AA?$AA@ 004880f0     LIBCMT:winapinls.obj
 0002:000150fc       ??_C@_1M@LHIPCIEK@?$AAi?$AAd?$AA?9?$AAI?$AAD?$AA?$AA@ 004880fc     LIBCMT:winapinls.obj
 0002:00015108       ??_C@_1M@MFMOBGI@?$AAu?$AAk?$AA?9?$AAU?$AAA?$AA?$AA@ 00488108     LIBCMT:winapinls.obj
 0002:00015114       ??_C@_1M@OBGLJIPL@?$AAb?$AAe?$AA?9?$AAB?$AAY?$AA?$AA@ 00488114     LIBCMT:winapinls.obj
 0002:00015120       ??_C@_1M@BCFAJEAD@?$AAs?$AAl?$AA?9?$AAS?$AAI?$AA?$AA@ 00488120     LIBCMT:winapinls.obj
 0002:0001512c       ??_C@_1M@FKFFEDDN@?$AAe?$AAt?$AA?9?$AAE?$AAE?$AA?$AA@ 0048812c     LIBCMT:winapinls.obj
 0002:00015138       ??_C@_1M@KGKKAACI@?$AAl?$AAv?$AA?9?$AAL?$AAV?$AA?$AA@ 00488138     LIBCMT:winapinls.obj
 0002:00015144       ??_C@_1M@IFGBIJO@?$AAl?$AAt?$AA?9?$AAL?$AAT?$AA?$AA@ 00488144     LIBCMT:winapinls.obj
 0002:00015150       ??_C@_1M@FGEAHEDM@?$AAf?$AAa?$AA?9?$AAI?$AAR?$AA?$AA@ 00488150     LIBCMT:winapinls.obj
 0002:0001515c       ??_C@_1M@KBMAIBFN@?$AAv?$AAi?$AA?9?$AAV?$AAN?$AA?$AA@ 0048815c     LIBCMT:winapinls.obj
 0002:00015168       ??_C@_1M@GPCBKDJK@?$AAh?$AAy?$AA?9?$AAA?$AAM?$AA?$AA@ 00488168     LIBCMT:winapinls.obj
 0002:00015174       ??_C@_1BG@BECMDDJB@?$AAa?$AAz?$AA?9?$AAA?$AAZ?$AA?9?$AAL?$AAa?$AAt?$AAn?$AA?$AA@ 00488174     LIBCMT:winapinls.obj
 0002:0001518c       ??_C@_1M@MAOFCAEA@?$AAe?$AAu?$AA?9?$AAE?$AAS?$AA?$AA@ 0048818c     LIBCMT:winapinls.obj
 0002:00015198       ??_C@_1M@IGHABKPI@?$AAm?$AAk?$AA?9?$AAM?$AAK?$AA?$AA@ 00488198     LIBCMT:winapinls.obj
 0002:000151a4       ??_C@_1M@IAIGNEJG@?$AAt?$AAn?$AA?9?$AAZ?$AAA?$AA?$AA@ 004881a4     LIBCMT:winapinls.obj
 0002:000151b0       ??_C@_1M@IIJCOJFA@?$AAx?$AAh?$AA?9?$AAZ?$AAA?$AA?$AA@ 004881b0     LIBCMT:winapinls.obj
 0002:000151bc       ??_C@_1M@LGPJHNJH@?$AAz?$AAu?$AA?9?$AAZ?$AAA?$AA?$AA@ 004881bc     LIBCMT:winapinls.obj
 0002:000151c8       ??_C@_1M@HOKAOIO@?$AAa?$AAf?$AA?9?$AAZ?$AAA?$AA?$AA@ 004881c8     LIBCMT:winapinls.obj
 0002:000151d4       ??_C@_1M@DPCLHLIE@?$AAk?$AAa?$AA?9?$AAG?$AAE?$AA?$AA@ 004881d4     LIBCMT:winapinls.obj
 0002:000151e0       ??_C@_1M@BLKMHJBI@?$AAf?$AAo?$AA?9?$AAF?$AAO?$AA?$AA@ 004881e0     LIBCMT:winapinls.obj
 0002:000151ec       ??_C@_1M@LGGJAPPB@?$AAh?$AAi?$AA?9?$AAI?$AAN?$AA?$AA@ 004881ec     LIBCMT:winapinls.obj
 0002:000151f8       ??_C@_1M@FIKPIHFE@?$AAm?$AAt?$AA?9?$AAM?$AAT?$AA?$AA@ 004881f8     LIBCMT:winapinls.obj
 0002:00015204       ??_C@_1M@HEGGPBFA@?$AAs?$AAe?$AA?9?$AAN?$AAO?$AA?$AA@ 00488204     LIBCMT:winapinls.obj
 0002:00015210       ??_C@_1M@EIBJEEPA@?$AAm?$AAs?$AA?9?$AAM?$AAY?$AA?$AA@ 00488210     LIBCMT:winapinls.obj
 0002:0001521c       ??_C@_1M@FHLBGMPP@?$AAk?$AAk?$AA?9?$AAK?$AAZ?$AA?$AA@ 0048821c     LIBCMT:winapinls.obj
 0002:00015228       ??_C@_1M@NGJJLCGI@?$AAk?$AAy?$AA?9?$AAK?$AAG?$AA?$AA@ 00488228     LIBCMT:winapinls.obj
 0002:00015234       ??_C@_1M@GIENNBFC@?$AAs?$AAw?$AA?9?$AAK?$AAE?$AA?$AA@ 00488234     LIBCMT:winapinls.obj
 0002:00015240       ??_C@_1BG@NDGMJIMJ@?$AAu?$AAz?$AA?9?$AAU?$AAZ?$AA?9?$AAL?$AAa?$AAt?$AAn?$AA?$AA@ 00488240     LIBCMT:winapinls.obj
 0002:00015258       ??_C@_1M@IDCCIHBC@?$AAt?$AAt?$AA?9?$AAR?$AAU?$AA?$AA@ 00488258     LIBCMT:winapinls.obj
 0002:00015264       ??_C@_1M@LOICPMOJ@?$AAb?$AAn?$AA?9?$AAI?$AAN?$AA?$AA@ 00488264     LIBCMT:winapinls.obj
 0002:00015270       ??_C@_1M@KPKKNEAH@?$AAp?$AAa?$AA?9?$AAI?$AAN?$AA?$AA@ 00488270     LIBCMT:winapinls.obj
 0002:0001527c       ??_C@_1M@PJGPPBOG@?$AAg?$AAu?$AA?9?$AAI?$AAN?$AA?$AA@ 0048827c     LIBCMT:winapinls.obj
 0002:00015288       ??_C@_1M@KMKMOPHI@?$AAt?$AAa?$AA?9?$AAI?$AAN?$AA?$AA@ 00488288     LIBCMT:winapinls.obj
 0002:00015294       ??_C@_1M@KFEHEPAC@?$AAt?$AAe?$AA?9?$AAI?$AAN?$AA?$AA@ 00488294     LIBCMT:winapinls.obj
 0002:000152a0       ??_C@_1M@CDCLMGHI@?$AAk?$AAn?$AA?9?$AAI?$AAN?$AA?$AA@ 004882a0     LIBCMT:winapinls.obj
 0002:000152ac       ??_C@_1M@MIODLDKF@?$AAm?$AAl?$AA?9?$AAI?$AAN?$AA?$AA@ 004882ac     LIBCMT:winapinls.obj
 0002:000152b8       ??_C@_1M@PBIEACPO@?$AAm?$AAr?$AA?9?$AAI?$AAN?$AA?$AA@ 004882b8     LIBCMT:winapinls.obj
 0002:000152c4       ??_C@_1M@NIDEAGPH@?$AAs?$AAa?$AA?9?$AAI?$AAN?$AA?$AA@ 004882c4     LIBCMT:winapinls.obj
 0002:000152d0       ??_C@_1M@FHIHCBIO@?$AAm?$AAn?$AA?9?$AAM?$AAN?$AA?$AA@ 004882d0     LIBCMT:winapinls.obj
 0002:000152dc       ??_C@_1M@JAIJPENP@?$AAc?$AAy?$AA?9?$AAG?$AAB?$AA?$AA@ 004882dc     LIBCMT:winapinls.obj
 0002:000152e8       ??_C@_1M@PHGFBEPN@?$AAg?$AAl?$AA?9?$AAE?$AAS?$AA?$AA@ 004882e8     LIBCMT:winapinls.obj
 0002:000152f4       ??_C@_1O@KPIPDNCP@?$AAk?$AAo?$AAk?$AA?9?$AAI?$AAN?$AA?$AA@ 004882f4     LIBCMT:winapinls.obj
 0002:00015304       ??_C@_1O@KNHJLDJA@?$AAs?$AAy?$AAr?$AA?9?$AAS?$AAY?$AA?$AA@ 00488304     LIBCMT:winapinls.obj
 0002:00015314       ??_C@_1O@MKEKBLAH@?$AAd?$AAi?$AAv?$AA?9?$AAM?$AAV?$AA?$AA@ 00488314     LIBCMT:winapinls.obj
 0002:00015324       ??_C@_1O@OHDCKDDF@?$AAq?$AAu?$AAz?$AA?9?$AAB?$AAO?$AA?$AA@ 00488324     LIBCMT:winapinls.obj
 0002:00015334       ??_C@_1M@LEPJNLFD@?$AAn?$AAs?$AA?9?$AAZ?$AAA?$AA?$AA@ 00488334     LIBCMT:winapinls.obj
 0002:00015340       ??_C@_1M@OMLEIIJB@?$AAm?$AAi?$AA?9?$AAN?$AAZ?$AA?$AA@ 00488340     LIBCMT:winapinls.obj
 0002:0001534c       ??_C@_1M@PMPEAILG@?$AAa?$AAr?$AA?9?$AAI?$AAQ?$AA?$AA@ 0048834c     LIBCMT:winapinls.obj
 0002:00015358       ??_C@_1M@CNKPNOEE@?$AAd?$AAe?$AA?9?$AAC?$AAH?$AA?$AA@ 00488358     LIBCMT:winapinls.obj
 0002:00015364       ??_C@_1M@LKMGMLKO@?$AAe?$AAn?$AA?9?$AAG?$AAB?$AA?$AA@ 00488364     LIBCMT:winapinls.obj
 0002:00015370       ??_C@_1M@PGKJFFGL@?$AAe?$AAs?$AA?9?$AAM?$AAX?$AA?$AA@ 00488370     LIBCMT:winapinls.obj
 0002:0001537c       ??_C@_1M@DNNANBDC@?$AAf?$AAr?$AA?9?$AAB?$AAE?$AA?$AA@ 0048837c     LIBCMT:winapinls.obj
 0002:00015388       ??_C@_1M@HLGMDFHM@?$AAi?$AAt?$AA?9?$AAC?$AAH?$AA?$AA@ 00488388     LIBCMT:winapinls.obj
 0002:00015394       ??_C@_1M@CLLBGJH@?$AAn?$AAl?$AA?9?$AAB?$AAE?$AA?$AA@ 00488394     LIBCMT:winapinls.obj
 0002:000153a0       ??_C@_1M@BODBOGLF@?$AAn?$AAn?$AA?9?$AAN?$AAO?$AA?$AA@ 004883a0     LIBCMT:winapinls.obj
 0002:000153ac       ??_C@_1M@HFFAHKAD@?$AAp?$AAt?$AA?9?$AAP?$AAT?$AA?$AA@ 004883ac     LIBCMT:winapinls.obj
 0002:000153b8       ??_C@_1BG@LNOAKHIE@?$AAs?$AAr?$AA?9?$AAS?$AAP?$AA?9?$AAL?$AAa?$AAt?$AAn?$AA?$AA@ 004883b8     LIBCMT:winapinls.obj
 0002:000153d0       ??_C@_1M@HBMHBGAK@?$AAs?$AAv?$AA?9?$AAF?$AAI?$AA?$AA@ 004883d0     LIBCMT:winapinls.obj
 0002:000153dc       ??_C@_1BG@DGCJGJBE@?$AAa?$AAz?$AA?9?$AAA?$AAZ?$AA?9?$AAC?$AAy?$AAr?$AAl?$AA?$AA@ 004883dc     LIBCMT:winapinls.obj
 0002:000153f4       ??_C@_1M@KEJDAAHB@?$AAs?$AAe?$AA?9?$AAS?$AAE?$AA?$AA@ 004883f4     LIBCMT:winapinls.obj
 0002:00015400       ??_C@_1M@HEIBJJAD@?$AAm?$AAs?$AA?9?$AAB?$AAN?$AA?$AA@ 00488400     LIBCMT:winapinls.obj
 0002:0001540c       ??_C@_1BG@PBGJMCEM@?$AAu?$AAz?$AA?9?$AAU?$AAZ?$AA?9?$AAC?$AAy?$AAr?$AAl?$AA?$AA@ 0048840c     LIBCMT:winapinls.obj
 0002:00015424       ??_C@_1O@LAOBCMDF@?$AAq?$AAu?$AAz?$AA?9?$AAE?$AAC?$AA?$AA@ 00488424     LIBCMT:winapinls.obj
 0002:00015434       ??_C@_1M@POEEMAIO@?$AAa?$AAr?$AA?9?$AAE?$AAG?$AA?$AA@ 00488434     LIBCMT:winapinls.obj
 0002:00015440       ??_C@_1M@EFAKDEDL@?$AAz?$AAh?$AA?9?$AAH?$AAK?$AA?$AA@ 00488440     LIBCMT:winapinls.obj
 0002:0001544c       ??_C@_1M@HKKIJHGI@?$AAd?$AAe?$AA?9?$AAA?$AAT?$AA?$AA@ 0048844c     LIBCMT:winapinls.obj
 0002:00015458       ??_C@_1M@KBFBEHJF@?$AAe?$AAn?$AA?9?$AAA?$AAU?$AA?$AA@ 00488458     LIBCMT:winapinls.obj
 0002:00015464       ??_C@_1M@MNPLFAAH@?$AAe?$AAs?$AA?9?$AAE?$AAS?$AA?$AA@ 00488464     LIBCMT:winapinls.obj
 0002:00015470       ??_C@_1M@HJOOJFMA@?$AAf?$AAr?$AA?9?$AAC?$AAA?$AA?$AA@ 00488470     LIBCMT:winapinls.obj
 0002:0001547c       ??_C@_1BG@JPOFPNAB@?$AAs?$AAr?$AA?9?$AAS?$AAP?$AA?9?$AAC?$AAy?$AAr?$AAl?$AA?$AA@ 0048847c     LIBCMT:winapinls.obj
 0002:00015494       ??_C@_1M@LNFOCMOB@?$AAs?$AAe?$AA?9?$AAF?$AAI?$AA?$AA@ 00488494     LIBCMT:winapinls.obj
 0002:000154a0       ??_C@_1O@MGJBOAMB@?$AAq?$AAu?$AAz?$AA?9?$AAP?$AAE?$AA?$AA@ 004884a0     LIBCMT:winapinls.obj
 0002:000154b0       ??_C@_1M@GJINLBOK@?$AAa?$AAr?$AA?9?$AAL?$AAY?$AA?$AA@ 004884b0     LIBCMT:winapinls.obj
 0002:000154bc       ??_C@_1M@GGMNHJNL@?$AAz?$AAh?$AA?9?$AAS?$AAG?$AA?$AA@ 004884bc     LIBCMT:winapinls.obj
 0002:000154c8       ??_C@_1M@HOIKODND@?$AAd?$AAe?$AA?9?$AAL?$AAU?$AA?$AA@ 004884c8     LIBCMT:winapinls.obj
 0002:000154d4       ??_C@_1M@DDOCCGFG@?$AAe?$AAn?$AA?9?$AAC?$AAA?$AA?$AA@ 004884d4     LIBCMT:winapinls.obj
 0002:000154e0       ??_C@_1M@BNOEMJLF@?$AAe?$AAs?$AA?9?$AAG?$AAT?$AA?$AA@ 004884e0     LIBCMT:winapinls.obj
 0002:000154ec       ??_C@_1M@EOGNKEK@?$AAf?$AAr?$AA?9?$AAC?$AAH?$AA?$AA@ 004884ec     LIBCMT:winapinls.obj
 0002:000154f8       ??_C@_1M@FLIDJFHL@?$AAh?$AAr?$AA?9?$AAB?$AAA?$AA?$AA@ 004884f8     LIBCMT:winapinls.obj
 0002:00015504       ??_C@_1O@FMCELNAJ@?$AAs?$AAm?$AAj?$AA?9?$AAN?$AAO?$AA?$AA@ 00488504     LIBCMT:winapinls.obj
 0002:00015514       ??_C@_1M@JHGLJMGJ@?$AAa?$AAr?$AA?9?$AAD?$AAZ?$AA?$AA@ 00488514     LIBCMT:winapinls.obj
 0002:00015520       ??_C@_1M@JKKFDCNP@?$AAz?$AAh?$AA?9?$AAM?$AAO?$AA?$AA@ 00488520     LIBCMT:winapinls.obj
 0002:0001552c       ??_C@_1M@GEEFALPE@?$AAd?$AAe?$AA?9?$AAL?$AAI?$AA?$AA@ 0048852c     LIBCMT:winapinls.obj
 0002:00015538       ??_C@_1M@IGEOFBG@?$AAe?$AAn?$AA?9?$AAN?$AAZ?$AA?$AA@ 00488538     LIBCMT:winapinls.obj
 0002:00015544       ??_C@_1M@KDBONEHP@?$AAe?$AAs?$AA?9?$AAC?$AAR?$AA?$AA@ 00488544     LIBCMT:winapinls.obj
 0002:00015550       ??_C@_1M@FHMDOHNN@?$AAf?$AAr?$AA?9?$AAL?$AAU?$AA?$AA@ 00488550     LIBCMT:winapinls.obj
 0002:0001555c       ??_C@_1BG@NFKKMAFG@?$AAb?$AAs?$AA?9?$AAB?$AAA?$AA?9?$AAL?$AAa?$AAt?$AAn?$AA?$AA@ 0048855c     LIBCMT:winapinls.obj
 0002:00015574       ??_C@_1O@IMNBEMCI@?$AAs?$AAm?$AAj?$AA?9?$AAS?$AAE?$AA?$AA@ 00488574     LIBCMT:winapinls.obj
 0002:00015584       ??_C@_1M@DHHMBNDP@?$AAa?$AAr?$AA?9?$AAM?$AAA?$AA?$AA@ 00488584     LIBCMT:winapinls.obj
 0002:00015590       ??_C@_1M@BNBLJCGH@?$AAe?$AAn?$AA?9?$AAI?$AAE?$AA?$AA@ 00488590     LIBCMT:winapinls.obj
 0002:0001559c       ??_C@_1M@GEPAFMDL@?$AAe?$AAs?$AA?9?$AAP?$AAA?$AA?$AA@ 0048859c     LIBCMT:winapinls.obj
 0002:000155a8       ??_C@_1M@OJONDMDL@?$AAf?$AAr?$AA?9?$AAM?$AAC?$AA?$AA@ 004885a8     LIBCMT:winapinls.obj
 0002:000155b4       ??_C@_1BG@OBCNFJB@?$AAs?$AAr?$AA?9?$AAB?$AAA?$AA?9?$AAL?$AAa?$AAt?$AAn?$AA?$AA@ 004885b4     LIBCMT:winapinls.obj
 0002:000155cc       ??_C@_1O@KEMEEGPO@?$AAs?$AAm?$AAa?$AA?9?$AAN?$AAO?$AA?$AA@ 004885cc     LIBCMT:winapinls.obj
 0002:000155dc       ??_C@_1M@ELMGFODK@?$AAa?$AAr?$AA?9?$AAT?$AAN?$AA?$AA@ 004885dc     LIBCMT:winapinls.obj
 0002:000155e8       ??_C@_1M@BHDLHFAF@?$AAe?$AAn?$AA?9?$AAZ?$AAA?$AA?$AA@ 004885e8     LIBCMT:winapinls.obj
 0002:000155f4       ??_C@_1M@BMGIGLIF@?$AAe?$AAs?$AA?9?$AAD?$AAO?$AA?$AA@ 004885f4     LIBCMT:winapinls.obj
 0002:00015600       ??_C@_1BG@CMBHIPBE@?$AAs?$AAr?$AA?9?$AAB?$AAA?$AA?9?$AAC?$AAy?$AAr?$AAl?$AA?$AA@ 00488600     LIBCMT:winapinls.obj
 0002:00015618       ??_C@_1O@HEDBLHNP@?$AAs?$AAm?$AAa?$AA?9?$AAS?$AAE?$AA?$AA@ 00488618     LIBCMT:winapinls.obj
 0002:00015628       ??_C@_1M@DAGCADIM@?$AAa?$AAr?$AA?9?$AAO?$AAM?$AA?$AA@ 00488628     LIBCMT:winapinls.obj
 0002:00015634       ??_C@_1M@FODLMICG@?$AAe?$AAn?$AA?9?$AAJ?$AAM?$AA?$AA@ 00488634     LIBCMT:winapinls.obj
 0002:00015640       ??_C@_1M@DNMLCIHB@?$AAe?$AAs?$AA?9?$AAV?$AAE?$AA?$AA@ 00488640     LIBCMT:winapinls.obj
 0002:0001564c       ??_C@_1O@EOKHMKJK@?$AAs?$AAm?$AAs?$AA?9?$AAF?$AAI?$AA?$AA@ 0048864c     LIBCMT:winapinls.obj
 0002:0001565c       ??_C@_1M@CAFJMKOF@?$AAa?$AAr?$AA?9?$AAY?$AAE?$AA?$AA@ 0048865c     LIBCMT:winapinls.obj
 0002:00015668       ??_C@_1M@CBFHIJLI@?$AAe?$AAn?$AA?9?$AAC?$AAB?$AA?$AA@ 00488668     LIBCMT:winapinls.obj
 0002:00015674       ??_C@_1M@BGNFLDN@?$AAe?$AAs?$AA?9?$AAC?$AAO?$AA?$AA@ 00488674     LIBCMT:winapinls.obj
 0002:00015680       ??_C@_1O@JMPHMAMC@?$AAs?$AAm?$AAn?$AA?9?$AAF?$AAI?$AA?$AA@ 00488680     LIBCMT:winapinls.obj
 0002:00015690       ??_C@_1M@JLANABKE@?$AAa?$AAr?$AA?9?$AAS?$AAY?$AA?$AA@ 00488690     LIBCMT:winapinls.obj
 0002:0001569c       ??_C@_1M@HPKGCFGN@?$AAe?$AAn?$AA?9?$AAB?$AAZ?$AA?$AA@ 0048869c     LIBCMT:winapinls.obj
 0002:000156a8       ??_C@_1M@OLJCMLGM@?$AAe?$AAs?$AA?9?$AAP?$AAE?$AA?$AA@ 004886a8     LIBCMT:winapinls.obj
 0002:000156b4       ??_C@_1M@MKKGFKLE@?$AAa?$AAr?$AA?9?$AAJ?$AAO?$AA?$AA@ 004886b4     LIBCMT:winapinls.obj
 0002:000156c0       ??_C@_1M@EKPGLDNI@?$AAe?$AAn?$AA?9?$AAT?$AAT?$AA?$AA@ 004886c0     LIBCMT:winapinls.obj
 0002:000156cc       ??_C@_1M@OONGHFHE@?$AAe?$AAs?$AA?9?$AAA?$AAR?$AA?$AA@ 004886cc     LIBCMT:winapinls.obj
 0002:000156d8       ??_C@_1M@OOJFGBHE@?$AAa?$AAr?$AA?9?$AAL?$AAB?$AA?$AA@ 004886d8     LIBCMT:winapinls.obj
 0002:000156e4       ??_C@_1M@GCEJHNEG@?$AAe?$AAn?$AA?9?$AAZ?$AAW?$AA?$AA@ 004886e4     LIBCMT:winapinls.obj
 0002:000156f0       ??_C@_1M@JNOCAHJI@?$AAe?$AAs?$AA?9?$AAE?$AAC?$AA?$AA@ 004886f0     LIBCMT:winapinls.obj
 0002:000156fc       ??_C@_1M@JEFHPGGB@?$AAa?$AAr?$AA?9?$AAK?$AAW?$AA?$AA@ 004886fc     LIBCMT:winapinls.obj
 0002:00015708       ??_C@_1M@MLKIBJOJ@?$AAe?$AAn?$AA?9?$AAP?$AAH?$AA?$AA@ 00488708     LIBCMT:winapinls.obj
 0002:00015714       ??_C@_1M@BDNIPEND@?$AAe?$AAs?$AA?9?$AAC?$AAL?$AA?$AA@ 00488714     LIBCMT:winapinls.obj
 0002:00015720       ??_C@_1M@MPNMEKBD@?$AAa?$AAr?$AA?9?$AAA?$AAE?$AA?$AA@ 00488720     LIBCMT:winapinls.obj
 0002:0001572c       ??_C@_1M@KBJALCPI@?$AAe?$AAs?$AA?9?$AAU?$AAY?$AA?$AA@ 0048872c     LIBCMT:winapinls.obj
 0002:00015738       ??_C@_1M@LLCCOAGA@?$AAa?$AAr?$AA?9?$AAB?$AAH?$AA?$AA@ 00488738     LIBCMT:winapinls.obj
 0002:00015744       ??_C@_1M@PBFNCDEL@?$AAe?$AAs?$AA?9?$AAP?$AAY?$AA?$AA@ 00488744     LIBCMT:winapinls.obj
 0002:00015750       ??_C@_1M@EDGINPNP@?$AAa?$AAr?$AA?9?$AAQ?$AAA?$AA?$AA@ 00488750     LIBCMT:winapinls.obj
 0002:0001575c       ??_C@_1M@MKDBIIJI@?$AAe?$AAs?$AA?9?$AAB?$AAO?$AA?$AA@ 0048875c     LIBCMT:winapinls.obj
 0002:00015768       ??_C@_1M@CPKKEBLD@?$AAe?$AAs?$AA?9?$AAS?$AAV?$AA?$AA@ 00488768     LIBCMT:winapinls.obj
 0002:00015774       ??_C@_1M@NDBGMMJL@?$AAe?$AAs?$AA?9?$AAH?$AAN?$AA?$AA@ 00488774     LIBCMT:winapinls.obj
 0002:00015780       ??_C@_1M@JIJIBHDP@?$AAe?$AAs?$AA?9?$AAN?$AAI?$AA?$AA@ 00488780     LIBCMT:winapinls.obj
 0002:0001578c       ??_C@_1M@CGFMKEEK@?$AAe?$AAs?$AA?9?$AAP?$AAR?$AA?$AA@ 0048878c     LIBCMT:winapinls.obj
 0002:00015798       ??_C@_1O@ICJHKIIK@?$AAz?$AAh?$AA?9?$AAC?$AAH?$AAT?$AA?$AA@ 00488798     LIBCMT:winapinls.obj
 0002:000157a8       ??_C@_15CLNEJCE@?$AAs?$AAr?$AA?$AA@ 004887a8     LIBCMT:winapinls.obj
 0002:000157b0       ??_C@_1M@KAHEKEIG@?$AAa?$AAf?$AA?9?$AAz?$AAa?$AA?$AA@ 004887b0     LIBCMT:winapinls.obj
 0002:000157bc       ??_C@_1M@GIECOABL@?$AAa?$AAr?$AA?9?$AAa?$AAe?$AA?$AA@ 004887bc     LIBCMT:winapinls.obj
 0002:000157c8       ??_C@_1M@BMLMEKGI@?$AAa?$AAr?$AA?9?$AAb?$AAh?$AA?$AA@ 004887c8     LIBCMT:winapinls.obj
 0002:000157d4       ??_C@_1M@DAPFDGGB@?$AAa?$AAr?$AA?9?$AAd?$AAz?$AA?$AA@ 004887d4     LIBCMT:winapinls.obj
 0002:000157e0       ??_C@_1M@FJNKGKIG@?$AAa?$AAr?$AA?9?$AAe?$AAg?$AA?$AA@ 004887e0     LIBCMT:winapinls.obj
 0002:000157ec       ??_C@_1M@FLGKKCLO@?$AAa?$AAr?$AA?9?$AAi?$AAq?$AA?$AA@ 004887ec     LIBCMT:winapinls.obj
 0002:000157f8       ??_C@_1M@GNDIPALM@?$AAa?$AAr?$AA?9?$AAj?$AAo?$AA?$AA@ 004887f8     LIBCMT:winapinls.obj
 0002:00015804       ??_C@_1M@DDMJFMGJ@?$AAa?$AAr?$AA?9?$AAk?$AAw?$AA?$AA@ 00488804     LIBCMT:winapinls.obj
 0002:00015810       ??_C@_1M@EJALMLHM@?$AAa?$AAr?$AA?9?$AAl?$AAb?$AA?$AA@ 00488810     LIBCMT:winapinls.obj
 0002:0001581c       ??_C@_1M@MOBDBLOC@?$AAa?$AAr?$AA?9?$AAl?$AAy?$AA?$AA@ 0048881c     LIBCMT:winapinls.obj
 0002:00015828       ??_C@_1M@JAOCLHDH@?$AAa?$AAr?$AA?9?$AAm?$AAa?$AA?$AA@ 00488828     LIBCMT:winapinls.obj
 0002:00015834       ??_C@_1M@JHPMKJIE@?$AAa?$AAr?$AA?9?$AAo?$AAm?$AA?$AA@ 00488834     LIBCMT:winapinls.obj
 0002:00015840       ??_C@_1M@OEPGHFNH@?$AAa?$AAr?$AA?9?$AAq?$AAa?$AA?$AA@ 00488840     LIBCMT:winapinls.obj
 0002:0001584c       ??_C@_1M@KJDONENM@?$AAa?$AAr?$AA?9?$AAs?$AAa?$AA?$AA@ 0048884c     LIBCMT:winapinls.obj
 0002:00015858       ??_C@_1M@DMJDKLKM@?$AAa?$AAr?$AA?9?$AAs?$AAy?$AA?$AA@ 00488858     LIBCMT:winapinls.obj
 0002:00015864       ??_C@_1M@OMFIPEDC@?$AAa?$AAr?$AA?9?$AAt?$AAn?$AA?$AA@ 00488864     LIBCMT:winapinls.obj
 0002:00015870       ??_C@_1M@IHMHGAON@?$AAa?$AAr?$AA?9?$AAy?$AAe?$AA?$AA@ 00488870     LIBCMT:winapinls.obj
 0002:0001587c       ??_C@_1BG@KDCPGJGB@?$AAa?$AAz?$AA?9?$AAa?$AAz?$AA?9?$AAc?$AAy?$AAr?$AAl?$AA?$AA@ 0048887c     LIBCMT:winapinls.obj
 0002:00015894       ??_C@_1BG@IBCKDDOE@?$AAa?$AAz?$AA?9?$AAa?$AAz?$AA?9?$AAl?$AAa?$AAt?$AAn?$AA?$AA@ 00488894     LIBCMT:winapinls.obj
 0002:000158ac       ??_C@_1M@EGPFDCPD@?$AAb?$AAe?$AA?9?$AAb?$AAy?$AA?$AA@ 004888ac     LIBCMT:winapinls.obj
 0002:000158b8       ??_C@_1M@PCMGMCGC@?$AAb?$AAg?$AA?9?$AAb?$AAg?$AA?$AA@ 004888b8     LIBCMT:winapinls.obj
 0002:000158c4       ??_C@_1M@BJBMFGOB@?$AAb?$AAn?$AA?9?$AAi?$AAn?$AA?$AA@ 004888c4     LIBCMT:winapinls.obj
 0002:000158d0       ??_C@_1BG@EAKMMACD@?$AAb?$AAs?$AA?9?$AAb?$AAa?$AA?9?$AAl?$AAa?$AAt?$AAn?$AA?$AA@ 004888d0     LIBCMT:winapinls.obj
 0002:000158e8       ??_C@_1M@KGADAODK@?$AAc?$AAa?$AA?9?$AAe?$AAs?$AA?$AA@ 004888e8     LIBCMT:winapinls.obj
 0002:000158f4       ??_C@_1M@COAJPDHI@?$AAc?$AAs?$AA?9?$AAc?$AAz?$AA?$AA@ 004888f4     LIBCMT:winapinls.obj
 0002:00015900       ??_C@_1M@DHBHFONH@?$AAc?$AAy?$AA?9?$AAg?$AAb?$AA?$AA@ 00488900     LIBCMT:winapinls.obj
 0002:0001590c       ??_C@_1M@IMGKELGA@?$AAd?$AAa?$AA?9?$AAd?$AAk?$AA?$AA@ 0048890c     LIBCMT:winapinls.obj
 0002:00015918       ??_C@_1M@NNDGDNGA@?$AAd?$AAe?$AA?9?$AAa?$AAt?$AA?$AA@ 00488918     LIBCMT:winapinls.obj
 0002:00015924       ??_C@_1M@IKDBHEEM@?$AAd?$AAe?$AA?9?$AAc?$AAh?$AA?$AA@ 00488924     LIBCMT:winapinls.obj
 0002:00015930       ??_C@_1M@GFFOJMCJ@?$AAd?$AAe?$AA?9?$AAd?$AAe?$AA?$AA@ 00488930     LIBCMT:winapinls.obj
 0002:0001593c       ??_C@_1M@MDNLKBPM@?$AAd?$AAe?$AA?9?$AAl?$AAi?$AA?$AA@ 0048893c     LIBCMT:winapinls.obj
 0002:00015948       ??_C@_1M@NJBEEJNL@?$AAd?$AAe?$AA?9?$AAl?$AAu?$AA?$AA@ 00488948     LIBCMT:winapinls.obj
 0002:00015954       ??_C@_1O@GNNELBAP@?$AAd?$AAi?$AAv?$AA?9?$AAm?$AAv?$AA?$AA@ 00488954     LIBCMT:winapinls.obj
 0002:00015964       ??_C@_1M@EJLEOGAE@?$AAe?$AAl?$AA?9?$AAg?$AAr?$AA?$AA@ 00488964     LIBCMT:winapinls.obj
 0002:00015970       ??_C@_1M@GMPONJN@?$AAe?$AAn?$AA?9?$AAa?$AAu?$AA?$AA@ 00488970     LIBCMT:winapinls.obj
 0002:0001597c       ??_C@_1M@NIDIIPGF@?$AAe?$AAn?$AA?9?$AAb?$AAz?$AA?$AA@ 0048897c     LIBCMT:winapinls.obj
 0002:00015988       ??_C@_1M@JEHMIMFO@?$AAe?$AAn?$AA?9?$AAc?$AAa?$AA?$AA@ 00488988     LIBCMT:winapinls.obj
 0002:00015994       ??_C@_1M@IGMJCDLA@?$AAe?$AAn?$AA?9?$AAc?$AAb?$AA?$AA@ 00488994     LIBCMT:winapinls.obj
 0002:000159a0       ??_C@_1M@BNFIGBKG@?$AAe?$AAn?$AA?9?$AAg?$AAb?$AA?$AA@ 004889a0     LIBCMT:winapinls.obj
 0002:000159ac       ??_C@_1M@LKIFDIGP@?$AAe?$AAn?$AA?9?$AAi?$AAe?$AA?$AA@ 004889ac     LIBCMT:winapinls.obj
 0002:000159b8       ??_C@_1M@PJKFGCCO@?$AAe?$AAn?$AA?9?$AAj?$AAm?$AA?$AA@ 004889b8     LIBCMT:winapinls.obj
 0002:000159c4       ??_C@_1M@KPPKEPBO@?$AAe?$AAn?$AA?9?$AAn?$AAz?$AA?$AA@ 004889c4     LIBCMT:winapinls.obj
 0002:000159d0       ??_C@_1M@GMDGLDOB@?$AAe?$AAn?$AA?9?$AAp?$AAh?$AA?$AA@ 004889d0     LIBCMT:winapinls.obj
 0002:000159dc       ??_C@_1M@ONGIBJNA@?$AAe?$AAn?$AA?9?$AAt?$AAt?$AA?$AA@ 004889dc     LIBCMT:winapinls.obj
 0002:000159e8       ??_C@_1M@LLODPCMM@?$AAe?$AAn?$AA?9?$AAu?$AAs?$AA?$AA@ 004889e8     LIBCMT:winapinls.obj
 0002:000159f4       ??_C@_1M@LAKFNPAN@?$AAe?$AAn?$AA?9?$AAz?$AAa?$AA?$AA@ 004889f4     LIBCMT:winapinls.obj
 0002:00015a00       ??_C@_1M@MFNHNHEO@?$AAe?$AAn?$AA?9?$AAz?$AAw?$AA?$AA@ 00488a00     LIBCMT:winapinls.obj
 0002:00015a0c       ??_C@_1M@EJEINPHM@?$AAe?$AAs?$AA?9?$AAa?$AAr?$AA?$AA@ 00488a0c     LIBCMT:winapinls.obj
 0002:00015a18       ??_C@_1M@GNKPCCJA@?$AAe?$AAs?$AA?9?$AAb?$AAo?$AA?$AA@ 00488a18     LIBCMT:winapinls.obj
 0002:00015a24       ??_C@_1M@LEEGFONL@?$AAe?$AAs?$AA?9?$AAc?$AAl?$AA?$AA@ 00488a24     LIBCMT:winapinls.obj
 0002:00015a30       ??_C@_1M@KGPDPBDF@?$AAe?$AAs?$AA?9?$AAc?$AAo?$AA?$AA@ 00488a30     LIBCMT:winapinls.obj
 0002:00015a3c       ??_C@_1M@EIAHOHH@?$AAe?$AAs?$AA?9?$AAc?$AAr?$AA?$AA@ 00488a3c     LIBCMT:winapinls.obj
 0002:00015a48       ??_C@_1M@LLPGMBIN@?$AAe?$AAs?$AA?9?$AAd?$AAo?$AA?$AA@ 00488a48     LIBCMT:winapinls.obj
 0002:00015a54       ??_C@_1M@DKHMKNJA@?$AAe?$AAs?$AA?9?$AAe?$AAc?$AA?$AA@ 00488a54     LIBCMT:winapinls.obj
 0002:00015a60       ??_C@_1M@GKGFPKAP@?$AAe?$AAs?$AA?9?$AAe?$AAs?$AA?$AA@ 00488a60     LIBCMT:winapinls.obj
 0002:00015a6c       ??_C@_1M@LKHKGDLN@?$AAe?$AAs?$AA?9?$AAg?$AAt?$AA?$AA@ 00488a6c     LIBCMT:winapinls.obj
 0002:00015a78       ??_C@_1M@HEIIGGJD@?$AAe?$AAs?$AA?9?$AAh?$AAn?$AA?$AA@ 00488a78     LIBCMT:winapinls.obj
 0002:00015a84       ??_C@_1M@FBDHPPGD@?$AAe?$AAs?$AA?9?$AAm?$AAx?$AA?$AA@ 00488a84     LIBCMT:winapinls.obj
 0002:00015a90       ??_C@_1M@DPAGLNDH@?$AAe?$AAs?$AA?9?$AAn?$AAi?$AA?$AA@ 00488a90     LIBCMT:winapinls.obj
 0002:00015a9c       ??_C@_1M@MDGOPGDD@?$AAe?$AAs?$AA?9?$AAp?$AAa?$AA?$AA@ 00488a9c     LIBCMT:winapinls.obj
 0002:00015aa8       ??_C@_1M@EMAMGBGE@?$AAe?$AAs?$AA?9?$AAp?$AAe?$AA?$AA@ 00488aa8     LIBCMT:winapinls.obj
 0002:00015ab4       ??_C@_1M@IBMCAOEC@?$AAe?$AAs?$AA?9?$AAp?$AAr?$AA?$AA@ 00488ab4     LIBCMT:winapinls.obj
 0002:00015ac0       ??_C@_1M@FGMDIJED@?$AAe?$AAs?$AA?9?$AAp?$AAy?$AA?$AA@ 00488ac0     LIBCMT:winapinls.obj
 0002:00015acc       ??_C@_1M@IIDEOLLL@?$AAe?$AAs?$AA?9?$AAs?$AAv?$AA?$AA@ 00488acc     LIBCMT:winapinls.obj
 0002:00015ad8       ??_C@_1M@GAOBIPA@?$AAe?$AAs?$AA?9?$AAu?$AAy?$AA?$AA@ 00488ad8     LIBCMT:winapinls.obj
 0002:00015ae4       ??_C@_1M@JKFFICHJ@?$AAe?$AAs?$AA?9?$AAv?$AAe?$AA?$AA@ 00488ae4     LIBCMT:winapinls.obj
 0002:00015af0       ??_C@_1M@PNMLOJDF@?$AAe?$AAt?$AA?9?$AAe?$AAe?$AA?$AA@ 00488af0     LIBCMT:winapinls.obj
 0002:00015afc       ??_C@_1M@GHHLIKEI@?$AAe?$AAu?$AA?9?$AAe?$AAs?$AA?$AA@ 00488afc     LIBCMT:winapinls.obj
 0002:00015b08       ??_C@_1M@PBNONODE@?$AAf?$AAa?$AA?9?$AAi?$AAr?$AA?$AA@ 00488b08     LIBCMT:winapinls.obj
 0002:00015b14       ??_C@_1M@JEEHPMIL@?$AAf?$AAi?$AA?9?$AAf?$AAi?$AA?$AA@ 00488b14     LIBCMT:winapinls.obj
 0002:00015b20       ??_C@_1M@LMDCNDBA@?$AAf?$AAo?$AA?9?$AAf?$AAo?$AA?$AA@ 00488b20     LIBCMT:winapinls.obj
 0002:00015b2c       ??_C@_1M@JKEOHLDK@?$AAf?$AAr?$AA?9?$AAb?$AAe?$AA?$AA@ 00488b2c     LIBCMT:winapinls.obj
 0002:00015b38       ??_C@_1M@NOHADPMI@?$AAf?$AAr?$AA?9?$AAc?$AAa?$AA?$AA@ 00488b38     LIBCMT:winapinls.obj
 0002:00015b44       ??_C@_1M@KDHIHAEC@?$AAf?$AAr?$AA?9?$AAc?$AAh?$AA?$AA@ 00488b44     LIBCMT:winapinls.obj
 0002:00015b50       ??_C@_1M@MMBBFGAK@?$AAf?$AAr?$AA?9?$AAf?$AAr?$AA?$AA@ 00488b50     LIBCMT:winapinls.obj
 0002:00015b5c       ??_C@_1M@PAFNENNF@?$AAf?$AAr?$AA?9?$AAl?$AAu?$AA?$AA@ 00488b5c     LIBCMT:winapinls.obj
 0002:00015b68       ??_C@_1M@EOHDJGDD@?$AAf?$AAr?$AA?9?$AAm?$AAc?$AA?$AA@ 00488b68     LIBCMT:winapinls.obj
 0002:00015b74       ??_C@_1M@FAPLLOPF@?$AAg?$AAl?$AA?9?$AAe?$AAs?$AA?$AA@ 00488b74     LIBCMT:winapinls.obj
 0002:00015b80       ??_C@_1M@FOPBFLOO@?$AAg?$AAu?$AA?9?$AAi?$AAn?$AA?$AA@ 00488b80     LIBCMT:winapinls.obj
 0002:00015b8c       ??_C@_1M@KBMCINPM@?$AAh?$AAe?$AA?9?$AAi?$AAl?$AA?$AA@ 00488b8c     LIBCMT:winapinls.obj
 0002:00015b98       ??_C@_1M@BBPHKFPJ@?$AAh?$AAi?$AA?9?$AAi?$AAn?$AA?$AA@ 00488b98     LIBCMT:winapinls.obj
 0002:00015ba4       ??_C@_1M@PMBNDPHD@?$AAh?$AAr?$AA?9?$AAb?$AAa?$AA?$AA@ 00488ba4     LIBCMT:winapinls.obj
 0002:00015bb0       ??_C@_1M@BPCKOEGE@?$AAh?$AAr?$AA?9?$AAh?$AAr?$AA?$AA@ 00488bb0     LIBCMT:winapinls.obj
 0002:00015bbc       ??_C@_1M@GACBMHKE@?$AAh?$AAu?$AA?9?$AAh?$AAu?$AA?$AA@ 00488bbc     LIBCMT:winapinls.obj
 0002:00015bc8       ??_C@_1M@MILPAJJC@?$AAh?$AAy?$AA?9?$AAa?$AAm?$AA?$AA@ 00488bc8     LIBCMT:winapinls.obj
 0002:00015bd4       ??_C@_1M@BABBICEC@?$AAi?$AAd?$AA?9?$AAi?$AAd?$AA?$AA@ 00488bd4     LIBCMT:winapinls.obj
 0002:00015be0       ??_C@_1M@BIKNHHPF@?$AAi?$AAs?$AA?9?$AAi?$AAs?$AA?$AA@ 00488be0     LIBCMT:winapinls.obj
 0002:00015bec       ??_C@_1M@NMPCJPHE@?$AAi?$AAt?$AA?9?$AAc?$AAh?$AA?$AA@ 00488bec     LIBCMT:winapinls.obj
 0002:00015bf8       ??_C@_1M@GHKGFEDF@?$AAi?$AAt?$AA?9?$AAi?$AAt?$AA?$AA@ 00488bf8     LIBCMT:winapinls.obj
 0002:00015c04       ??_C@_1M@NIEJCJJA@?$AAj?$AAa?$AA?9?$AAj?$AAp?$AA?$AA@ 00488c04     LIBCMT:winapinls.obj
 0002:00015c10       ??_C@_1M@JILFNBIM@?$AAk?$AAa?$AA?9?$AAg?$AAe?$AA?$AA@ 00488c10     LIBCMT:winapinls.obj
 0002:00015c1c       ??_C@_1M@PACPMGPH@?$AAk?$AAk?$AA?9?$AAk?$AAz?$AA?$AA@ 00488c1c     LIBCMT:winapinls.obj
 0002:00015c28       ??_C@_1M@IELFGMHA@?$AAk?$AAn?$AA?9?$AAi?$AAn?$AA?$AA@ 00488c28     LIBCMT:winapinls.obj
 0002:00015c34       ??_C@_1O@IBBJHCH@?$AAk?$AAo?$AAk?$AA?9?$AAi?$AAn?$AA?$AA@ 00488c34     LIBCMT:winapinls.obj
 0002:00015c44       ??_C@_1M@DMHAEOGC@?$AAk?$AAo?$AA?9?$AAk?$AAr?$AA?$AA@ 00488c44     LIBCMT:winapinls.obj
 0002:00015c50       ??_C@_1M@HBAHBIGA@?$AAk?$AAy?$AA?9?$AAk?$AAg?$AA?$AA@ 00488c50     LIBCMT:winapinls.obj
 0002:00015c5c       ??_C@_1M@KPMILCJG@?$AAl?$AAt?$AA?9?$AAl?$AAt?$AA?$AA@ 00488c5c     LIBCMT:winapinls.obj
 0002:00015c68       ??_C@_1M@BDEKKCA@?$AAl?$AAv?$AA?9?$AAl?$AAv?$AA?$AA@ 00488c68     LIBCMT:winapinls.obj
 0002:00015c74       ??_C@_1M@ELCKCCJJ@?$AAm?$AAi?$AA?9?$AAn?$AAz?$AA?$AA@ 00488c74     LIBCMT:winapinls.obj
 0002:00015c80       ??_C@_1M@CBOOLAPA@?$AAm?$AAk?$AA?9?$AAm?$AAk?$AA?$AA@ 00488c80     LIBCMT:winapinls.obj
 0002:00015c8c       ??_C@_1M@GPHNBJKN@?$AAm?$AAl?$AA?9?$AAi?$AAn?$AA?$AA@ 00488c8c     LIBCMT:winapinls.obj
 0002:00015c98       ??_C@_1M@PABJILIG@?$AAm?$AAn?$AA?9?$AAm?$AAn?$AA?$AA@ 00488c98     LIBCMT:winapinls.obj
 0002:00015ca4       ??_C@_1M@FGBKKIPG@?$AAm?$AAr?$AA?9?$AAi?$AAn?$AA?$AA@ 00488ca4     LIBCMT:winapinls.obj
 0002:00015cb0       ??_C@_1M@NDBPDDAL@?$AAm?$AAs?$AA?9?$AAb?$AAn?$AA?$AA@ 00488cb0     LIBCMT:winapinls.obj
 0002:00015cbc       ??_C@_1M@OPIHOOPI@?$AAm?$AAs?$AA?9?$AAm?$AAy?$AA?$AA@ 00488cbc     LIBCMT:winapinls.obj
 0002:00015cc8       ??_C@_1M@PPDBCNFM@?$AAm?$AAt?$AA?9?$AAm?$AAt?$AA?$AA@ 00488cc8     LIBCMT:winapinls.obj
 0002:00015cd4       ??_C@_1M@KDJDKMDD@?$AAn?$AAb?$AA?9?$AAn?$AAo?$AA?$AA@ 00488cd4     LIBCMT:winapinls.obj
 0002:00015ce0       ??_C@_1M@KFCFLMJP@?$AAn?$AAl?$AA?9?$AAb?$AAe?$AA?$AA@ 00488ce0     LIBCMT:winapinls.obj
 0002:00015cec       ??_C@_1M@KPOPDDGO@?$AAn?$AAl?$AA?9?$AAn?$AAl?$AA?$AA@ 00488cec     LIBCMT:winapinls.obj
 0002:00015cf8       ??_C@_1M@LJKPEMLN@?$AAn?$AAn?$AA?9?$AAn?$AAo?$AA?$AA@ 00488cf8     LIBCMT:winapinls.obj
 0002:00015d04       ??_C@_1M@BDGHHBFL@?$AAn?$AAs?$AA?9?$AAz?$AAa?$AA?$AA@ 00488d04     LIBCMT:winapinls.obj
 0002:00015d10       ??_C@_1M@IDEHOAP@?$AAp?$AAa?$AA?9?$AAi?$AAn?$AA?$AA@ 00488d10     LIBCMT:winapinls.obj
 0002:00015d1c       ??_C@_1M@HDBKGOGH@?$AAp?$AAl?$AA?9?$AAp?$AAl?$AA?$AA@ 00488d1c     LIBCMT:winapinls.obj
 0002:00015d28       ??_C@_1M@LJLLCMEH@?$AAp?$AAt?$AA?9?$AAb?$AAr?$AA?$AA@ 00488d28     LIBCMT:winapinls.obj
 0002:00015d34       ??_C@_1M@NCMONAAL@?$AAp?$AAt?$AA?9?$AAp?$AAt?$AA?$AA@ 00488d34     LIBCMT:winapinls.obj
 0002:00015d40       ??_C@_1O@EAKMAJDN@?$AAq?$AAu?$AAz?$AA?9?$AAb?$AAo?$AA?$AA@ 00488d40     LIBCMT:winapinls.obj
 0002:00015d50       ??_C@_1O@BHHPIGDN@?$AAq?$AAu?$AAz?$AA?9?$AAe?$AAc?$AA?$AA@ 00488d50     LIBCMT:winapinls.obj
 0002:00015d60       ??_C@_1O@GBAPEKMJ@?$AAq?$AAu?$AAz?$AA?9?$AAp?$AAe?$AA?$AA@ 00488d60     LIBCMT:winapinls.obj
 0002:00015d70       ??_C@_1M@CLGLEFBO@?$AAr?$AAo?$AA?9?$AAr?$AAo?$AA?$AA@ 00488d70     LIBCMT:winapinls.obj
 0002:00015d7c       ??_C@_1M@CEEDODME@?$AAr?$AAu?$AA?9?$AAr?$AAu?$AA?$AA@ 00488d7c     LIBCMT:winapinls.obj
 0002:00015d88       ??_C@_1M@HPKKKMPP@?$AAs?$AAa?$AA?9?$AAi?$AAn?$AA?$AA@ 00488d88     LIBCMT:winapinls.obj
 0002:00015d94       ??_C@_1M@BKMAIGOJ@?$AAs?$AAe?$AA?9?$AAf?$AAi?$AA?$AA@ 00488d94     LIBCMT:winapinls.obj
 0002:00015da0       ??_C@_1M@NDPIFLFI@?$AAs?$AAe?$AA?9?$AAn?$AAo?$AA?$AA@ 00488da0     LIBCMT:winapinls.obj
 0002:00015dac       ??_C@_1M@DANKKHJ@?$AAs?$AAe?$AA?9?$AAs?$AAe?$AA?$AA@ 00488dac     LIBCMT:winapinls.obj
 0002:00015db8       ??_C@_1M@PNBLONPJ@?$AAs?$AAk?$AA?9?$AAs?$AAk?$AA?$AA@ 00488db8     LIBCMT:winapinls.obj
 0002:00015dc4       ??_C@_1M@LFMODOAL@?$AAs?$AAl?$AA?9?$AAs?$AAi?$AA?$AA@ 00488dc4     LIBCMT:winapinls.obj
 0002:00015dd0       ??_C@_1O@DFKOMPG@?$AAs?$AAm?$AAa?$AA?9?$AAn?$AAo?$AA?$AA@ 00488dd0     LIBCMT:winapinls.obj
 0002:00015de0       ??_C@_1O@NDKPBNNH@?$AAs?$AAm?$AAa?$AA?9?$AAs?$AAe?$AA?$AA@ 00488de0     LIBCMT:winapinls.obj
 0002:00015df0       ??_C@_1O@PLLKBHAB@?$AAs?$AAm?$AAj?$AA?9?$AAn?$AAo?$AA?$AA@ 00488df0     LIBCMT:winapinls.obj
 0002:00015e00       ??_C@_1O@CLEPOGCA@?$AAs?$AAm?$AAj?$AA?9?$AAs?$AAe?$AA?$AA@ 00488e00     LIBCMT:winapinls.obj
 0002:00015e10       ??_C@_1O@DLGJGKMK@?$AAs?$AAm?$AAn?$AA?9?$AAf?$AAi?$AA?$AA@ 00488e10     LIBCMT:winapinls.obj
 0002:00015e20       ??_C@_1O@OJDJGAJC@?$AAs?$AAm?$AAs?$AA?9?$AAf?$AAi?$AA?$AA@ 00488e20     LIBCMT:winapinls.obj
 0002:00015e30       ??_C@_1M@BOFOGHPB@?$AAs?$AAq?$AA?9?$AAa?$AAl?$AA?$AA@ 00488e30     LIBCMT:winapinls.obj
 0002:00015e3c       ??_C@_1BG@LJBBIPGB@?$AAs?$AAr?$AA?9?$AAb?$AAa?$AA?9?$AAc?$AAy?$AAr?$AAl?$AA?$AA@ 00488e3c     LIBCMT:winapinls.obj
 0002:00015e54       ??_C@_1BG@JLBENFOE@?$AAs?$AAr?$AA?9?$AAb?$AAa?$AA?9?$AAl?$AAa?$AAt?$AAn?$AA?$AA@ 00488e54     LIBCMT:winapinls.obj
 0002:00015e6c       ??_C@_1BG@KODPNHE@?$AAs?$AAr?$AA?9?$AAs?$AAp?$AA?9?$AAc?$AAy?$AAr?$AAl?$AA?$AA@ 00488e6c     LIBCMT:winapinls.obj
 0002:00015e84       ??_C@_1BG@CIOGKHPB@?$AAs?$AAr?$AA?9?$AAs?$AAp?$AA?9?$AAl?$AAa?$AAt?$AAn?$AA?$AA@ 00488e84     LIBCMT:winapinls.obj
 0002:00015e9c       ??_C@_1M@NGFJLMAC@?$AAs?$AAv?$AA?9?$AAf?$AAi?$AA?$AA@ 00488e9c     LIBCMT:winapinls.obj
 0002:00015ea8       ??_C@_1M@MPJEJAJC@?$AAs?$AAv?$AA?9?$AAs?$AAe?$AA?$AA@ 00488ea8     LIBCMT:winapinls.obj
 0002:00015eb4       ??_C@_1M@MPNDHLFK@?$AAs?$AAw?$AA?9?$AAk?$AAe?$AA?$AA@ 00488eb4     LIBCMT:winapinls.obj
 0002:00015ec0       ??_C@_1O@KOHBJJI@?$AAs?$AAy?$AAr?$AA?9?$AAs?$AAy?$AA?$AA@ 00488ec0     LIBCMT:winapinls.obj
 0002:00015ed0       ??_C@_1M@LDCEFHA@?$AAt?$AAa?$AA?9?$AAi?$AAn?$AA?$AA@ 00488ed0     LIBCMT:winapinls.obj
 0002:00015edc       ??_C@_1M@CNJOFAK@?$AAt?$AAe?$AA?9?$AAi?$AAn?$AA?$AA@ 00488edc     LIBCMT:winapinls.obj
 0002:00015ee8       ??_C@_1M@GNAECACD@?$AAt?$AAh?$AA?9?$AAt?$AAh?$AA?$AA@ 00488ee8     LIBCMT:winapinls.obj
 0002:00015ef4       ??_C@_1M@CHBIHOJO@?$AAt?$AAn?$AA?9?$AAz?$AAa?$AA?$AA@ 00488ef4     LIBCMT:winapinls.obj
 0002:00015f00       ??_C@_1M@GCCMIGPJ@?$AAt?$AAr?$AA?9?$AAt?$AAr?$AA?$AA@ 00488f00     LIBCMT:winapinls.obj
 0002:00015f0c       ??_C@_1M@CELMCNBK@?$AAt?$AAt?$AA?9?$AAr?$AAu?$AA?$AA@ 00488f0c     LIBCMT:winapinls.obj
 0002:00015f18       ??_C@_1M@KLMCELGA@?$AAu?$AAk?$AA?9?$AAu?$AAa?$AA?$AA@ 00488f18     LIBCMT:winapinls.obj
 0002:00015f24       ??_C@_1M@EPAJJAJF@?$AAu?$AAr?$AA?9?$AAp?$AAk?$AA?$AA@ 00488f24     LIBCMT:winapinls.obj
 0002:00015f30       ??_C@_1BG@GEGPMCDJ@?$AAu?$AAz?$AA?9?$AAu?$AAz?$AA?9?$AAc?$AAy?$AAr?$AAl?$AA?$AA@ 00488f30     LIBCMT:winapinls.obj
 0002:00015f48       ??_C@_1BG@EGGKJILM@?$AAu?$AAz?$AA?9?$AAu?$AAz?$AA?9?$AAl?$AAa?$AAt?$AAn?$AA?$AA@ 00488f48     LIBCMT:winapinls.obj
 0002:00015f60       ??_C@_1M@GFOCLFF@?$AAv?$AAi?$AA?9?$AAv?$AAn?$AA?$AA@ 00488f60     LIBCMT:winapinls.obj
 0002:00015f6c       ??_C@_1M@CPAMEDFI@?$AAx?$AAh?$AA?9?$AAz?$AAa?$AA?$AA@ 00488f6c     LIBCMT:winapinls.obj
 0002:00015f78       ??_C@_1O@EBKIFIGN@?$AAz?$AAh?$AA?9?$AAc?$AAh?$AAs?$AA?$AA@ 00488f78     LIBCMT:winapinls.obj
 0002:00015f88       ??_C@_1O@NMHPGANE@?$AAz?$AAh?$AA?9?$AAc?$AAh?$AAt?$AA?$AA@ 00488f88     LIBCMT:winapinls.obj
 0002:00015f98       ??_C@_1M@LPINJOMC@?$AAz?$AAh?$AA?9?$AAc?$AAn?$AA?$AA@ 00488f98     LIBCMT:winapinls.obj
 0002:00015fa4       ??_C@_1M@OCJEJODD@?$AAz?$AAh?$AA?9?$AAh?$AAk?$AA?$AA@ 00488fa4     LIBCMT:winapinls.obj
 0002:00015fb0       ??_C@_1M@DNDLJINH@?$AAz?$AAh?$AA?9?$AAm?$AAo?$AA?$AA@ 00488fb0     LIBCMT:winapinls.obj
 0002:00015fbc       ??_C@_1M@MBFDNDND@?$AAz?$AAh?$AA?9?$AAs?$AAg?$AA?$AA@ 00488fbc     LIBCMT:winapinls.obj
 0002:00015fc8       ??_C@_1M@IMEPLEPE@?$AAz?$AAh?$AA?9?$AAt?$AAw?$AA?$AA@ 00488fc8     LIBCMT:winapinls.obj
 0002:00015fd4       ??_C@_1M@BBGHNHJP@?$AAz?$AAu?$AA?9?$AAz?$AAa?$AA?$AA@ 00488fd4     LIBCMT:winapinls.obj
 0002:00015fe0       ___newctype                00488fe0     LIBCMT:ctype.obj
 0002:000162e0       __wctype                   004892e0     LIBCMT:ctype.obj
 0002:000164e8       ___newclmap                004894e8     LIBCMT:ctype.obj
 0002:00016668       ___newcumap                00489668     LIBCMT:ctype.obj
 0002:000167e8       ___rg_language_count       004897e8     LIBCMT:getqloc.obj
 0002:000167ec       ___rg_country_count        004897ec     LIBCMT:getqloc.obj
 0002:00016978       ??_C@_08EHJDFFNH@__based?$CI?$AA@ 00489978     LIBCMT:undname.obj
 0002:00016984       ??_C@_07KOLFKCDI@__cdecl?$AA@ 00489984     LIBCMT:undname.obj
 0002:0001698c       ??_C@_08GHMPAG@__pascal?$AA@ 0048998c     LIBCMT:undname.obj
 0002:00016998       ??_C@_09IFJBGAPI@__stdcall?$AA@ 00489998     LIBCMT:undname.obj
 0002:000169a4       ??_C@_0L@NPHFGOKO@__thiscall?$AA@ 004899a4     LIBCMT:undname.obj
 0002:000169b0       ??_C@_0L@JMKHOMEK@__fastcall?$AA@ 004899b0     LIBCMT:undname.obj
 0002:000169bc       ??_C@_09HIJEGCPM@__clrcall?$AA@ 004899bc     LIBCMT:undname.obj
 0002:000169c8       ??_C@_06GHPCKEAG@__eabi?$AA@ 004899c8     LIBCMT:undname.obj
 0002:000169d0       ??_C@_07JOMMBBKO@__ptr64?$AA@ 004899d0     LIBCMT:undname.obj
 0002:000169d8       ??_C@_0L@PILCLIHE@__restrict?$AA@ 004899d8     LIBCMT:undname.obj
 0002:000169e4       ??_C@_0M@GFIIJFMG@__unaligned?$AA@ 004899e4     LIBCMT:undname.obj
 0002:000169f0       ??_C@_09DHDLOLLB@restrict?$CI?$AA@ 004899f0     LIBCMT:undname.obj
 0002:000169fc       ??_C@_04NIHEBCM@?5new?$AA@ 004899fc     LIBCMT:undname.obj
 0002:00016a04       ??_C@_07FPCDHGMM@?5delete?$AA@ 00489a04     LIBCMT:undname.obj
 0002:00016a0c       ??_C@_02GPIOPFAK@?$DO?$DO?$AA@ 00489a0c     LIBCMT:undname.obj
 0002:00016a10       ??_C@_02FODMEDOG@?$DM?$DM?$AA@ 00489a10     LIBCMT:undname.obj
 0002:00016a14       ??_C@_01DCLJPIOD@?$CB?$AA@ 00489a14     LIBCMT:undname.obj
 0002:00016a18       ??_C@_02EGOFBIJA@?$DN?$DN?$AA@ 00489a18     LIBCMT:undname.obj
 0002:00016a1c       ??_C@_02FDNJECIE@?$CB?$DN?$AA@ 00489a1c     LIBCMT:undname.obj
 0002:00016a20       ??_C@_02GPECMEKF@?$FL?$FN?$AA@ 00489a20     LIBCMT:undname.obj
 0002:00016a24       ??_C@_08LHJFAFGD@operator?$AA@ 00489a24     LIBCMT:undname.obj
 0002:00016a30       ??_C@_02HBOOOICD@?9?$DO?$AA@ 00489a30     LIBCMT:undname.obj
 0002:00016a34       ??_C@_01NBENCBCI@?$CK?$AA@ 00489a34     LIBCMT:undname.obj
 0002:00016a38       ??_C@_02ECNGHCIF@?$CL?$CL?$AA@ 00489a38     LIBCMT:undname.obj
 0002:00016a3c       ??_C@_02BAABKJLB@?9?9?$AA@ 00489a3c     LIBCMT:undname.obj
 0002:00016a40       ??_C@_01JOAMLHOP@?9?$AA@   00489a40     LIBCMT:undname.obj
 0002:00016a44       ??_C@_01MIFGBAGJ@?$CL?$AA@ 00489a44     LIBCMT:undname.obj
 0002:00016a48       ??_C@_01HNPIGOCE@?$CG?$AA@ 00489a48     LIBCMT:undname.obj
 0002:00016a4c       ??_C@_03MNHNFDLC@?9?$DO?$CK?$AA@ 00489a4c     LIBCMT:undname.obj
 0002:00016a50       ??_C@_01MNNFJEPP@?$DM?$AA@ 00489a50     LIBCMT:undname.obj
 0002:00016a54       ??_C@_02EHCHHCKH@?$DM?$DN?$AA@ 00489a54     LIBCMT:undname.obj
 0002:00016a58       ??_C@_01PPODPGHN@?$DO?$AA@ 00489a58     LIBCMT:undname.obj
 0002:00016a5c       ??_C@_02EEKDKGMJ@?$DO?$DN?$AA@ 00489a5c     LIBCMT:undname.obj
 0002:00016a60       ??_C@_02HCKGKOFO@?$CI?$CJ?$AA@ 00489a60     LIBCMT:undname.obj
 0002:00016a64       ??_C@_01PJKLJHI@?$HO?$AA@  00489a64     LIBCMT:undname.obj
 0002:00016a68       ??_C@_01JKBOJNNK@?$FO?$AA@ 00489a68     LIBCMT:undname.obj
 0002:00016a6c       ??_C@_01DNKMNLPK@?$HM?$AA@ 00489a6c     LIBCMT:undname.obj
 0002:00016a70       ??_C@_02PPKAJPJL@?$CG?$CG?$AA@ 00489a70     LIBCMT:undname.obj
 0002:00016a74       ??_C@_02NONPIBCD@?$HM?$HM?$AA@ 00489a74     LIBCMT:undname.obj
 0002:00016a78       ??_C@_02FPIMKNGF@?$CK?$DN?$AA@ 00489a78     LIBCMT:undname.obj
 0002:00016a7c       ??_C@_02FOEOMHFC@?$CL?$DN?$AA@ 00489a7c     LIBCMT:undname.obj
 0002:00016a80       ??_C@_02FKMDLLOA@?9?$DN?$AA@ 00489a80     LIBCMT:undname.obj
 0002:00016a84       ??_C@_02FJEHGPIO@?1?$DN?$AA@ 00489a84     LIBCMT:undname.obj
 0002:00016a88       ??_C@_02FENAOKFI@?$CF?$DN?$AA@ 00489a88     LIBCMT:undname.obj
 0002:00016a8c       ??_C@_03IKFCCPFF@?$DO?$DO?$DN?$AA@ 00489a8c     LIBCMT:undname.obj
 0002:00016a90       ??_C@_03CDNPDDLA@?$DM?$DM?$DN?$AA@ 00489a90     LIBCMT:undname.obj
 0002:00016a94       ??_C@_02FGJGFEAB@?$CG?$DN?$AA@ 00489a94     LIBCMT:undname.obj
 0002:00016a98       ??_C@_02DHLNPPGH@?$HM?$DN?$AA@ 00489a98     LIBCMT:undname.obj
 0002:00016a9c       ??_C@_02MHEGNOJ@?$FO?$DN?$AA@ 00489a9c     LIBCMT:undname.obj
 0002:00016aa0       ??_C@_09IFPLHPGF@?$GAvftable?8?$AA@ 00489aa0     LIBCMT:undname.obj
 0002:00016aac       ??_C@_09BLBHBJP@?$GAvbtable?8?$AA@ 00489aac     LIBCMT:undname.obj
 0002:00016ab8       ??_C@_07FEEIOKP@?$GAvcall?8?$AA@ 00489ab8     LIBCMT:undname.obj
 0002:00016ac0       ??_C@_08LLFFHHDJ@?$GAtypeof?8?$AA@ 00489ac0     LIBCMT:undname.obj
 0002:00016acc       ??_C@_0BF@KDPPACIK@?$GAlocal?5static?5guard?8?$AA@ 00489acc     LIBCMT:undname.obj
 0002:00016ae4       ??_C@_08OBABFOLI@?$GAstring?8?$AA@ 00489ae4     LIBCMT:undname.obj
 0002:00016af0       ??_C@_0BD@JDLKDPAB@?$GAvbase?5destructor?8?$AA@ 00489af0     LIBCMT:undname.obj
 0002:00016b04       ??_C@_0BN@DEGPLNFK@?$GAvector?5deleting?5destructor?8?$AA@ 00489b04     LIBCMT:undname.obj
 0002:00016b24       ??_C@_0BO@OBMKPJIG@?$GAdefault?5constructor?5closure?8?$AA@ 00489b24     LIBCMT:undname.obj
 0002:00016b44       ??_C@_0BN@IMDCHIKM@?$GAscalar?5deleting?5destructor?8?$AA@ 00489b44     LIBCMT:undname.obj
 0002:00016b64       ??_C@_0BO@PFGOCPJJ@?$GAvector?5constructor?5iterator?8?$AA@ 00489b64     LIBCMT:undname.obj
 0002:00016b84       ??_C@_0BN@LFPFMEDL@?$GAvector?5destructor?5iterator?8?$AA@ 00489b84     LIBCMT:undname.obj
 0002:00016ba4       ??_C@_0CE@IKBNEHA@?$GAvector?5vbase?5constructor?5iterat@ 00489ba4     LIBCMT:undname.obj
 0002:00016bc8       ??_C@_0BL@NILFHHPC@?$GAvirtual?5displacement?5map?8?$AA@ 00489bc8     LIBCMT:undname.obj
 0002:00016be4       ??_C@_0CB@JONCMFFK@?$GAeh?5vector?5constructor?5iterator?8@ 00489be4     LIBCMT:undname.obj
 0002:00016c08       ??_C@_0CA@GCEOPDGL@?$GAeh?5vector?5destructor?5iterator?8?$AA@ 00489c08     LIBCMT:undname.obj
 0002:00016c28       ??_C@_0CH@OOJPLCPH@?$GAeh?5vector?5vbase?5constructor?5ite@ 00489c28     LIBCMT:undname.obj
 0002:00016c50       ??_C@_0BL@LLKPOHJI@?$GAcopy?5constructor?5closure?8?$AA@ 00489c50     LIBCMT:undname.obj
 0002:00016c6c       ??_C@_0BA@KBCDOMBN@?$GAudt?5returning?8?$AA@ 00489c6c     LIBCMT:undname.obj
 0002:00016c7c       ??_C@_03KLGMFNMG@?$GAEH?$AA@ 00489c7c     LIBCMT:undname.obj
 0002:00016c80       ??_C@_05KHLCHHI@?$GARTTI?$AA@ 00489c80     LIBCMT:undname.obj
 0002:00016c88       ??_C@_0BA@KKLDJDLB@?$GAlocal?5vftable?8?$AA@ 00489c88     LIBCMT:undname.obj
 0002:00016c98       ??_C@_0CE@IIHCMGGL@?$GAlocal?5vftable?5constructor?5closu@ 00489c98     LIBCMT:undname.obj
 0002:00016cbc       ??_C@_06FHBGPFGH@?5new?$FL?$FN?$AA@ 00489cbc     LIBCMT:undname.obj
 0002:00016cc4       ??_C@_09LBNFPBCA@?5delete?$FL?$FN?$AA@ 00489cc4     LIBCMT:undname.obj
 0002:00016cd0       ??_C@_0P@HJKNJFNN@?$GAomni?5callsig?8?$AA@ 00489cd0     LIBCMT:undname.obj
 0002:00016ce0       ??_C@_0BL@CNOONJFP@?$GAplacement?5delete?5closure?8?$AA@ 00489ce0     LIBCMT:undname.obj
 0002:00016cfc       ??_C@_0BN@CKNJLHMB@?$GAplacement?5delete?$FL?$FN?5closure?8?$AA@ 00489cfc     LIBCMT:undname.obj
 0002:00016d1c       ??_C@_0CG@CFDHKGGD@?$GAmanaged?5vector?5constructor?5iter@ 00489d1c     LIBCMT:undname.obj
 0002:00016d44       ??_C@_0CF@IMGKMJNO@?$GAmanaged?5vector?5destructor?5itera@ 00489d44     LIBCMT:undname.obj
 0002:00016d6c       ??_C@_0CG@HLDDJMAG@?$GAeh?5vector?5copy?5constructor?5iter@ 00489d6c     LIBCMT:undname.obj
 0002:00016d94       ??_C@_0CM@FCBBDIGB@?$GAeh?5vector?5vbase?5copy?5constructo@ 00489d94     LIBCMT:undname.obj
 0002:00016dc0       ??_C@_0BL@CLIPGLGB@?$GAdynamic?5initializer?5for?5?8?$AA@ 00489dc0     LIBCMT:undname.obj
 0002:00016ddc       ??_C@_0CB@PDBIFEP@?$GAdynamic?5atexit?5destructor?5for?5?8@ 00489ddc     LIBCMT:undname.obj
 0002:00016e00       ??_C@_0CD@CGAJBKEJ@?$GAvector?5copy?5constructor?5iterato@ 00489e00     LIBCMT:undname.obj
 0002:00016e24       ??_C@_0CJ@GJELGAMM@?$GAvector?5vbase?5copy?5constructor?5i@ 00489e24     LIBCMT:undname.obj
 0002:00016e50       ??_C@_0CL@FGIJHLCE@?$GAmanaged?5vector?5copy?5constructor@ 00489e50     LIBCMT:undname.obj
 0002:00016e7c       ??_C@_0BM@PMGGMLDN@?$GAlocal?5static?5thread?5guard?8?$AA@ 00489e7c     LIBCMT:undname.obj
 0002:00016e98       ??_C@_0BC@DAFEJGAK@?5Type?5Descriptor?8?$AA@ 00489e98     LIBCMT:undname.obj
 0002:00016eac       ??_C@_0BM@LDKODKLH@?5Base?5Class?5Descriptor?5at?5?$CI?$AA@ 00489eac     LIBCMT:undname.obj
 0002:00016ec8       ??_C@_0BD@LGICGFMM@?5Base?5Class?5Array?8?$AA@ 00489ec8     LIBCMT:undname.obj
 0002:00016edc       ??_C@_0BN@MECKDCOJ@?5Class?5Hierarchy?5Descriptor?8?$AA@ 00489edc     LIBCMT:undname.obj
 0002:00016efc       ??_C@_0BK@CFCOFLF@?5Complete?5Object?5Locator?8?$AA@ 00489efc     LIBCMT:undname.obj
 0002:00016f18       ___dnames                  00489f18     LIBCMT:timeset.obj
 0002:00016f30       ___mnames                  00489f30     LIBCMT:timeset.obj
 0002:00016f58       ??_C@_02CLFPBFFP@TZ?$AA@   00489f58     LIBCMT:tzset.obj
 0002:00016f5c       ??_C@_0M@HHGEPIBF@CreateFile2?$AA@ 00489f5c     LIBCMT:wopen.obj
 0002:00016f68       ??_C@_19DOGDICKI@?$AA?4?$AAe?$AAx?$AAe?$AA?$AA@ 00489f68     LIBCMT:wstat.obj
 0002:00016f74       ??_C@_19BDKLHPGC@?$AA?4?$AAc?$AAm?$AAd?$AA?$AA@ 00489f74     LIBCMT:wstat.obj
 0002:00016f80       ??_C@_19PINKOIBI@?$AA?4?$AAb?$AAa?$AAt?$AA?$AA@ 00489f80     LIBCMT:wstat.obj
 0002:00016f8c       ??_C@_19CDGLJBOD@?$AA?4?$AAc?$AAo?$AAm?$AA?$AA@ 00489f8c     LIBCMT:wstat.obj
 0002:00016f98       ??_C@_0L@NKOGAPMJ@SystemRoot?$AA@ 00489f98     LIBCMT:cenvarg.obj
 0002:00016fa4       ??_C@_1BA@BALFACEM@?$AAC?$AAO?$AAN?$AAO?$AAU?$AAT?$AA$?$AA?$AA@ 00489fa4     LIBCMT:initcon.obj
 0002:00016fb4       ??_C@_06PGGFOGJG@1?$CDSNAN?$AA@ 00489fb4     LIBCMT:x10fout.obj
 0002:00016fbc       ??_C@_05PHHOCPM@1?$CDIND?$AA@ 00489fbc     LIBCMT:x10fout.obj
 0002:00016fc4       ??_C@_05DNEBIAHO@1?$CDINF?$AA@ 00489fc4     LIBCMT:x10fout.obj
 0002:00016fcc       ??_C@_06IMKFLFPG@1?$CDQNAN?$AA@ 00489fcc     LIBCMT:x10fout.obj
 0002:00016fd8       __load_config_used         00489fd8     LIBCMT:loadcfg.obj
 0002:00017020       ??_R4ssgSimpleList@@6B@    0048a020     elevation.obj
 0002:00017034       ??_R3ssgSimpleList@@8      0048a034     elevation.obj
 0002:00017044       ??_R2ssgSimpleList@@8      0048a044     elevation.obj
 0002:00017050       ??_R1A@?0A@EA@ssgSimpleList@@8 0048a050     elevation.obj
 0002:0001706c       ??_R1A@?0A@EA@ssgBase@@8   0048a06c     elevation.obj
 0002:00017088       ??_R3ssgBase@@8            0048a088     elevation.obj
 0002:00017098       ??_R2ssgBase@@8            0048a098     elevation.obj
 0002:000170a0       ??_R4ssgTextureArray@@6B@  0048a0a0     elevation.obj
 0002:000170b4       ??_R3ssgTextureArray@@8    0048a0b4     elevation.obj
 0002:000170c4       ??_R2ssgTextureArray@@8    0048a0c4     elevation.obj
 0002:000170d4       ??_R1A@?0A@EA@ssgTextureArray@@8 0048a0d4     elevation.obj
 0002:000170f0       ??_R1A@?0A@EN@ssgSimpleList@@8 0048a0f0     elevation.obj
 0002:0001710c       ??_R1A@?0A@EJ@ssgBase@@8   0048a10c     elevation.obj
 0002:00017128       ??_R4ssgSimpleStateArray@@6B@ 0048a128     elevation.obj
 0002:0001713c       ??_R3ssgSimpleStateArray@@8 0048a13c     elevation.obj
 0002:0001714c       ??_R2ssgSimpleStateArray@@8 0048a14c     elevation.obj
 0002:0001715c       ??_R1A@?0A@EA@ssgSimpleStateArray@@8 0048a15c     elevation.obj
 0002:00017178       ??_R4ssgLoaderOptions@@6B@ 0048a178     elevation.obj
 0002:0001718c       ??_R3ssgLoaderOptions@@8   0048a18c     elevation.obj
 0002:0001719c       ??_R2ssgLoaderOptions@@8   0048a19c     elevation.obj
 0002:000171a4       ??_R1A@?0A@EA@ssgLoaderOptions@@8 0048a1a4     elevation.obj
 0002:000171c0       ??_R4ssgLoaderOptionsEx@@6B@ 0048a1c0     elevation.obj
 0002:000171d4       ??_R3ssgLoaderOptionsEx@@8 0048a1d4     elevation.obj
 0002:000171e4       ??_R2ssgLoaderOptionsEx@@8 0048a1e4     elevation.obj
 0002:000171f0       ??_R1A@?0A@EA@ssgLoaderOptionsEx@@8 0048a1f0     elevation.obj
 0002:0001720c       ??_R4myLoaderOptions@@6B@  0048a20c     objects.obj
 0002:00017220       ??_R3myLoaderOptions@@8    0048a220     objects.obj
 0002:00017230       ??_R2myLoaderOptions@@8    0048a230     objects.obj
 0002:0001723c       ??_R1A@?0A@EA@myLoaderOptions@@8 0048a23c     objects.obj
 0002:00017258       ??_R4error_category@std@@6B@ 0048a258     windowsspec.obj
 0002:0001726c       ??_R3error_category@std@@8 0048a26c     windowsspec.obj
 0002:0001727c       ??_R2error_category@std@@8 0048a27c     windowsspec.obj
 0002:00017284       ??_R1A@?0A@EA@error_category@std@@8 0048a284     windowsspec.obj
 0002:000172a0       ??_R4_Generic_error_category@std@@6B@ 0048a2a0     windowsspec.obj
 0002:000172b4       ??_R3_Generic_error_category@std@@8 0048a2b4     windowsspec.obj
 0002:000172c4       ??_R2_Generic_error_category@std@@8 0048a2c4     windowsspec.obj
 0002:000172d0       ??_R1A@?0A@EA@_Generic_error_category@std@@8 0048a2d0     windowsspec.obj
 0002:000172ec       ??_R4_Iostream_error_category@std@@6B@ 0048a2ec     windowsspec.obj
 0002:00017300       ??_R3_Iostream_error_category@std@@8 0048a300     windowsspec.obj
 0002:00017310       ??_R2_Iostream_error_category@std@@8 0048a310     windowsspec.obj
 0002:00017320       ??_R1A@?0A@EA@_Iostream_error_category@std@@8 0048a320     windowsspec.obj
 0002:0001733c       ??_R4_System_error_category@std@@6B@ 0048a33c     windowsspec.obj
 0002:00017350       ??_R3_System_error_category@std@@8 0048a350     windowsspec.obj
 0002:00017360       ??_R2_System_error_category@std@@8 0048a360     windowsspec.obj
 0002:00017370       ??_R1A@?0A@EA@_System_error_category@std@@8 0048a370     windowsspec.obj
 0002:0001738c       ??_R4ssgBase@@6B@          0048a38c     ssg_vs2008_32:ssgBase.obj
 0002:000173a0       ??_R4ssgVertexArray@@6B@   0048a3a0     ssg_vs2008_32:ssgSimpleList.obj
 0002:000173b4       ??_R3ssgVertexArray@@8     0048a3b4     ssg_vs2008_32:ssgSimpleList.obj
 0002:000173c4       ??_R2ssgVertexArray@@8     0048a3c4     ssg_vs2008_32:ssgSimpleList.obj
 0002:000173d4       ??_R1A@?0A@EA@ssgVertexArray@@8 0048a3d4     ssg_vs2008_32:ssgSimpleList.obj
 0002:000173f0       ??_R4ssgNormalArray@@6B@   0048a3f0     ssg_vs2008_32:ssgSimpleList.obj
 0002:00017404       ??_R3ssgNormalArray@@8     0048a404     ssg_vs2008_32:ssgSimpleList.obj
 0002:00017414       ??_R2ssgNormalArray@@8     0048a414     ssg_vs2008_32:ssgSimpleList.obj
 0002:00017424       ??_R1A@?0A@EA@ssgNormalArray@@8 0048a424     ssg_vs2008_32:ssgSimpleList.obj
 0002:00017440       ??_R4ssgTexCoordArray@@6B@ 0048a440     ssg_vs2008_32:ssgSimpleList.obj
 0002:00017454       ??_R3ssgTexCoordArray@@8   0048a454     ssg_vs2008_32:ssgSimpleList.obj
 0002:00017464       ??_R2ssgTexCoordArray@@8   0048a464     ssg_vs2008_32:ssgSimpleList.obj
 0002:00017474       ??_R1A@?0A@EA@ssgTexCoordArray@@8 0048a474     ssg_vs2008_32:ssgSimpleList.obj
 0002:00017490       ??_R4ssgColourArray@@6B@   0048a490     ssg_vs2008_32:ssgSimpleList.obj
 0002:000174a4       ??_R3ssgColourArray@@8     0048a4a4     ssg_vs2008_32:ssgSimpleList.obj
 0002:000174b4       ??_R2ssgColourArray@@8     0048a4b4     ssg_vs2008_32:ssgSimpleList.obj
 0002:000174c4       ??_R1A@?0A@EA@ssgColourArray@@8 0048a4c4     ssg_vs2008_32:ssgSimpleList.obj
 0002:000174e0       ??_R4ssgIndexArray@@6B@    0048a4e0     ssg_vs2008_32:ssgSimpleList.obj
 0002:000174f4       ??_R3ssgIndexArray@@8      0048a4f4     ssg_vs2008_32:ssgSimpleList.obj
 0002:00017504       ??_R2ssgIndexArray@@8      0048a504     ssg_vs2008_32:ssgSimpleList.obj
 0002:00017514       ??_R1A@?0A@EA@ssgIndexArray@@8 0048a514     ssg_vs2008_32:ssgSimpleList.obj
 0002:00017530       ??_R4ssgTransformArray@@6B@ 0048a530     ssg_vs2008_32:ssg.obj
 0002:00017544       ??_R3ssgTransformArray@@8  0048a544     ssg_vs2008_32:ssg.obj
 0002:00017554       ??_R2ssgTransformArray@@8  0048a554     ssg_vs2008_32:ssg.obj
 0002:00017564       ??_R1A@?0A@EA@ssgTransformArray@@8 0048a564     ssg_vs2008_32:ssg.obj
 0002:00017580       ??_R4ssgInterleavedArray@@6B@ 0048a580     ssg_vs2008_32:ssg.obj
 0002:00017594       ??_R3ssgInterleavedArray@@8 0048a594     ssg_vs2008_32:ssg.obj
 0002:000175a4       ??_R2ssgInterleavedArray@@8 0048a5a4     ssg_vs2008_32:ssg.obj
 0002:000175b4       ??_R1A@?0A@EA@ssgInterleavedArray@@8 0048a5b4     ssg_vs2008_32:ssg.obj
 0002:000175d0       ??_R4ssgTexture@@6B@       0048a5d0     ssg_vs2008_32:ssgTexture.obj
 0002:000175e4       ??_R3ssgTexture@@8         0048a5e4     ssg_vs2008_32:ssgTexture.obj
 0002:000175f4       ??_R2ssgTexture@@8         0048a5f4     ssg_vs2008_32:ssgTexture.obj
 0002:00017600       ??_R1A@?0A@EA@ssgTexture@@8 0048a600     ssg_vs2008_32:ssgTexture.obj
 0002:0001761c       ??_R4ssgSimpleState@@6B@   0048a61c     ssg_vs2008_32:ssgSimpleState.obj
 0002:00017630       ??_R3ssgSimpleState@@8     0048a630     ssg_vs2008_32:ssgSimpleState.obj
 0002:00017640       ??_R2ssgSimpleState@@8     0048a640     ssg_vs2008_32:ssgSimpleState.obj
 0002:00017650       ??_R1A@?0A@EA@ssgSimpleState@@8 0048a650     ssg_vs2008_32:ssgSimpleState.obj
 0002:0001766c       ??_R1A@?0A@EA@ssgState@@8  0048a66c     ssg_vs2008_32:ssgSimpleState.obj
 0002:00017688       ??_R3ssgState@@8           0048a688     ssg_vs2008_32:ssgSimpleState.obj
 0002:00017698       ??_R2ssgState@@8           0048a698     ssg_vs2008_32:ssgSimpleState.obj
 0002:000176a4       ??_R4ssgBranch@@6B@        0048a6a4     ssg_vs2008_32:ssgBranch.obj
 0002:000176b8       ??_R3ssgBranch@@8          0048a6b8     ssg_vs2008_32:ssgBranch.obj
 0002:000176c8       ??_R2ssgBranch@@8          0048a6c8     ssg_vs2008_32:ssgBranch.obj
 0002:000176d8       ??_R1A@?0A@EA@ssgBranch@@8 0048a6d8     ssg_vs2008_32:ssgBranch.obj
 0002:000176f4       ??_R1A@?0A@EA@ssgEntity@@8 0048a6f4     ssg_vs2008_32:ssgBranch.obj
 0002:00017710       ??_R3ssgEntity@@8          0048a710     ssg_vs2008_32:ssgBranch.obj
 0002:00017720       ??_R2ssgEntity@@8          0048a720     ssg_vs2008_32:ssgBranch.obj
 0002:0001772c       ??_R4ssgRoot@@6B@          0048a72c     ssg_vs2008_32:ssgRoot.obj
 0002:00017740       ??_R3ssgRoot@@8            0048a740     ssg_vs2008_32:ssgRoot.obj
 0002:00017750       ??_R2ssgRoot@@8            0048a750     ssg_vs2008_32:ssgRoot.obj
 0002:00017764       ??_R1A@?0A@EA@ssgRoot@@8   0048a764     ssg_vs2008_32:ssgRoot.obj
 0002:00017780       ??_R4ssgListOfNodes@@6B@   0048a780     ssg_vs2008_32:ssgLoadIV.obj
 0002:00017794       ??_R3ssgListOfNodes@@8     0048a794     ssg_vs2008_32:ssgLoadIV.obj
 0002:000177a4       ??_R2ssgListOfNodes@@8     0048a7a4     ssg_vs2008_32:ssgLoadIV.obj
 0002:000177b4       ??_R1A@?0A@EA@ssgListOfNodes@@8 0048a7b4     ssg_vs2008_32:ssgLoadIV.obj
 0002:000177d0       ??_R4ssgSimpleStateList@@6B@ 0048a7d0     ssg_vs2008_32:ssgLoadX.obj
 0002:000177e4       ??_R3ssgSimpleStateList@@8 0048a7e4     ssg_vs2008_32:ssgLoadX.obj
 0002:000177f4       ??_R2ssgSimpleStateList@@8 0048a7f4     ssg_vs2008_32:ssgLoadX.obj
 0002:00017804       ??_R1A@?0A@EA@ssgSimpleStateList@@8 0048a804     ssg_vs2008_32:ssgLoadX.obj
 0002:00017820       ??_R4dxfVertArray@@6B@     0048a820     ssg_vs2008_32:ssgLoadDXF.obj
 0002:00017834       ??_R3dxfVertArray@@8       0048a834     ssg_vs2008_32:ssgLoadDXF.obj
 0002:00017844       ??_R2dxfVertArray@@8       0048a844     ssg_vs2008_32:ssgLoadDXF.obj
 0002:00017854       ??_R1A@?0A@EA@dxfVertArray@@8 0048a854     ssg_vs2008_32:ssgLoadDXF.obj
 0002:00017870       ??_R4_ssgBaseList@@6B@     0048a870     ssg_vs2008_32:ssgLoadSSG.obj
 0002:00017884       ??_R3_ssgBaseList@@8       0048a884     ssg_vs2008_32:ssgLoadSSG.obj
 0002:00017894       ??_R2_ssgBaseList@@8       0048a894     ssg_vs2008_32:ssgLoadSSG.obj
 0002:000178a4       ??_R1A@?0A@EA@_ssgBaseList@@8 0048a8a4     ssg_vs2008_32:ssgLoadSSG.obj
 0002:000178c0       ??_R4ssgState@@6B@         0048a8c0     ssg_vs2008_32:ssgState.obj
 0002:000178d4       ??_R4ssgVTable@@6B@        0048a8d4     ssg_vs2008_32:ssgVTable.obj
 0002:000178e8       ??_R3ssgVTable@@8          0048a8e8     ssg_vs2008_32:ssgVTable.obj
 0002:000178f8       ??_R2ssgVTable@@8          0048a8f8     ssg_vs2008_32:ssgVTable.obj
 0002:0001790c       ??_R1A@?0A@EA@ssgVTable@@8 0048a90c     ssg_vs2008_32:ssgVTable.obj
 0002:00017928       ??_R1A@?0A@EA@ssgLeaf@@8   0048a928     ssg_vs2008_32:ssgVTable.obj
 0002:00017944       ??_R3ssgLeaf@@8            0048a944     ssg_vs2008_32:ssgVTable.obj
 0002:00017954       ??_R2ssgLeaf@@8            0048a954     ssg_vs2008_32:ssgVTable.obj
 0002:00017964       ??_R4ssgVtxTable@@6B@      0048a964     ssg_vs2008_32:ssgVtxTable.obj
 0002:00017978       ??_R3ssgVtxTable@@8        0048a978     ssg_vs2008_32:ssgVtxTable.obj
 0002:00017988       ??_R2ssgVtxTable@@8        0048a988     ssg_vs2008_32:ssgVtxTable.obj
 0002:0001799c       ??_R1A@?0A@EA@ssgVtxTable@@8 0048a99c     ssg_vs2008_32:ssgVtxTable.obj
 0002:000179b8       ??_R4ssgVtxArray@@6B@      0048a9b8     ssg_vs2008_32:ssgVtxArray.obj
 0002:000179cc       ??_R3ssgVtxArray@@8        0048a9cc     ssg_vs2008_32:ssgVtxArray.obj
 0002:000179dc       ??_R2ssgVtxArray@@8        0048a9dc     ssg_vs2008_32:ssgVtxArray.obj
 0002:000179f4       ??_R1A@?0A@EA@ssgVtxArray@@8 0048a9f4     ssg_vs2008_32:ssgVtxArray.obj
 0002:00017a10       ??_R4ssgTween@@6B@         0048aa10     ssg_vs2008_32:ssgTween.obj
 0002:00017a24       ??_R3ssgTween@@8           0048aa24     ssg_vs2008_32:ssgTween.obj
 0002:00017a34       ??_R2ssgTween@@8           0048aa34     ssg_vs2008_32:ssgTween.obj
 0002:00017a4c       ??_R1A@?0A@EA@ssgTween@@8  0048aa4c     ssg_vs2008_32:ssgTween.obj
 0002:00017a68       ??_R4ssgTransform@@6B@     0048aa68     ssg_vs2008_32:ssgTransform.obj
 0002:00017a7c       ??_R3ssgTransform@@8       0048aa7c     ssg_vs2008_32:ssgTransform.obj
 0002:00017a8c       ??_R2ssgTransform@@8       0048aa8c     ssg_vs2008_32:ssgTransform.obj
 0002:00017aa4       ??_R1A@?0A@EA@ssgTransform@@8 0048aaa4     ssg_vs2008_32:ssgTransform.obj
 0002:00017ac0       ??_R1A@?0A@EA@ssgBaseTransform@@8 0048aac0     ssg_vs2008_32:ssgTransform.obj
 0002:00017adc       ??_R3ssgBaseTransform@@8   0048aadc     ssg_vs2008_32:ssgTransform.obj
 0002:00017aec       ??_R2ssgBaseTransform@@8   0048aaec     ssg_vs2008_32:ssgTransform.obj
 0002:00017b00       ??_R4ssgTexTrans@@6B@      0048ab00     ssg_vs2008_32:ssgTexTrans.obj
 0002:00017b14       ??_R3ssgTexTrans@@8        0048ab14     ssg_vs2008_32:ssgTexTrans.obj
 0002:00017b24       ??_R2ssgTexTrans@@8        0048ab24     ssg_vs2008_32:ssgTexTrans.obj
 0002:00017b3c       ??_R1A@?0A@EA@ssgTexTrans@@8 0048ab3c     ssg_vs2008_32:ssgTexTrans.obj
 0002:00017b58       ??_R4ssgAnimTransform@@6B@ 0048ab58     ssg_vs2008_32:ssgAnimTransform.obj
 0002:00017b6c       ??_R3ssgAnimTransform@@8   0048ab6c     ssg_vs2008_32:ssgAnimTransform.obj
 0002:00017b7c       ??_R2ssgAnimTransform@@8   0048ab7c     ssg_vs2008_32:ssgAnimTransform.obj
 0002:00017b98       ??_R1A@?0A@EA@ssgAnimTransform@@8 0048ab98     ssg_vs2008_32:ssgAnimTransform.obj
 0002:00017bb4       ??_R4ssgAxisTransform@@6B@ 0048abb4     ssg_vs2008_32:ssgAxisTransform.obj
 0002:00017bc8       ??_R3ssgAxisTransform@@8   0048abc8     ssg_vs2008_32:ssgAxisTransform.obj
 0002:00017bd8       ??_R2ssgAxisTransform@@8   0048abd8     ssg_vs2008_32:ssgAxisTransform.obj
 0002:00017bf4       ??_R1A@?0A@EA@ssgAxisTransform@@8 0048abf4     ssg_vs2008_32:ssgAxisTransform.obj
 0002:00017c10       ??_R4ssgSelector@@6B@      0048ac10     ssg_vs2008_32:ssgSelector.obj
 0002:00017c24       ??_R3ssgSelector@@8        0048ac24     ssg_vs2008_32:ssgSelector.obj
 0002:00017c34       ??_R2ssgSelector@@8        0048ac34     ssg_vs2008_32:ssgSelector.obj
 0002:00017c48       ??_R1A@?0A@EA@ssgSelector@@8 0048ac48     ssg_vs2008_32:ssgSelector.obj
 0002:00017c64       ??_R4ssgRangeSelector@@6B@ 0048ac64     ssg_vs2008_32:ssgRangeSelector.obj
 0002:00017c78       ??_R3ssgRangeSelector@@8   0048ac78     ssg_vs2008_32:ssgRangeSelector.obj
 0002:00017c88       ??_R2ssgRangeSelector@@8   0048ac88     ssg_vs2008_32:ssgRangeSelector.obj
 0002:00017ca0       ??_R1A@?0A@EA@ssgRangeSelector@@8 0048aca0     ssg_vs2008_32:ssgRangeSelector.obj
 0002:00017cbc       ??_R4ssgTimedSelector@@6B@ 0048acbc     ssg_vs2008_32:ssgAnimation.obj
 0002:00017cd0       ??_R3ssgTimedSelector@@8   0048acd0     ssg_vs2008_32:ssgAnimation.obj
 0002:00017ce0       ??_R2ssgTimedSelector@@8   0048ace0     ssg_vs2008_32:ssgAnimation.obj
 0002:00017cf8       ??_R1A@?0A@EA@ssgTimedSelector@@8 0048acf8     ssg_vs2008_32:ssgAnimation.obj
 0002:00017d14       ??_R4ssgTweenController@@6B@ 0048ad14     ssg_vs2008_32:ssgTweenController.obj
 0002:00017d28       ??_R3ssgTweenController@@8 0048ad28     ssg_vs2008_32:ssgTweenController.obj
 0002:00017d38       ??_R2ssgTweenController@@8 0048ad38     ssg_vs2008_32:ssgTweenController.obj
 0002:00017d4c       ??_R1A@?0A@EA@ssgTweenController@@8 0048ad4c     ssg_vs2008_32:ssgTweenController.obj
 0002:00017d68       ??_R4ssgCutout@@6B@        0048ad68     ssg_vs2008_32:ssgCutout.obj
 0002:00017d7c       ??_R3ssgCutout@@8          0048ad7c     ssg_vs2008_32:ssgCutout.obj
 0002:00017d8c       ??_R2ssgCutout@@8          0048ad8c     ssg_vs2008_32:ssgCutout.obj
 0002:00017da0       ??_R1A@?0A@EA@ssgCutout@@8 0048ada0     ssg_vs2008_32:ssgCutout.obj
 0002:00017dbc       ??_R4ssgInvisible@@6B@     0048adbc     ssg_vs2008_32:ssgInvisible.obj
 0002:00017dd0       ??_R3ssgInvisible@@8       0048add0     ssg_vs2008_32:ssgInvisible.obj
 0002:00017de0       ??_R2ssgInvisible@@8       0048ade0     ssg_vs2008_32:ssgInvisible.obj
 0002:00017df4       ??_R1A@?0A@EA@ssgInvisible@@8 0048adf4     ssg_vs2008_32:ssgInvisible.obj
 0002:00017e10       ??_R4ssgStateSelector@@6B@ 0048ae10     ssg_vs2008_32:ssgStateSelector.obj
 0002:00017e24       ??_R3ssgStateSelector@@8   0048ae24     ssg_vs2008_32:ssgStateSelector.obj
 0002:00017e34       ??_R2ssgStateSelector@@8   0048ae34     ssg_vs2008_32:ssgStateSelector.obj
 0002:00017e48       ??_R1A@?0A@EA@ssgStateSelector@@8 0048ae48     ssg_vs2008_32:ssgStateSelector.obj
 0002:00017e64       ??_R4ssgLeaf@@6B@          0048ae64     ssg_vs2008_32:ssgLeaf.obj
 0002:00017e78       ??_R4ssgVertSplitter@@6B@  0048ae78     ssg_vs2008_32:ssgVertSplitter.obj
 0002:00017e8c       ??_R3ssgVertSplitter@@8    0048ae8c     ssg_vs2008_32:ssgVertSplitter.obj
 0002:00017e9c       ??_R2ssgVertSplitter@@8    0048ae9c     ssg_vs2008_32:ssgVertSplitter.obj
 0002:00017ea4       ??_R1A@?0A@EA@ssgVertSplitter@@8 0048aea4     ssg_vs2008_32:ssgVertSplitter.obj
 0002:00017ec0       ??_R4ssgList@@6B@          0048aec0     ssg_vs2008_32:ssgList.obj
 0002:00017ed4       ??_R3ssgList@@8            0048aed4     ssg_vs2008_32:ssgList.obj
 0002:00017ee4       ??_R2ssgList@@8            0048aee4     ssg_vs2008_32:ssgList.obj
 0002:00017eec       ??_R1A@?0A@EA@ssgList@@8   0048aeec     ssg_vs2008_32:ssgList.obj
 0002:00017f08       ??_R4ssgKidList@@6B@       0048af08     ssg_vs2008_32:ssgList.obj
 0002:00017f1c       ??_R3ssgKidList@@8         0048af1c     ssg_vs2008_32:ssgList.obj
 0002:00017f2c       ??_R2ssgKidList@@8         0048af2c     ssg_vs2008_32:ssgList.obj
 0002:00017f38       ??_R1A@?0A@EA@ssgKidList@@8 0048af38     ssg_vs2008_32:ssgList.obj
 0002:00017f54       ??_R4ssgEntity@@6B@        0048af54     ssg_vs2008_32:ssgEntity.obj
 0002:00017f68       ??_R4ssgListOfLists@@6B@   0048af68     ssg_vs2008_32:ssgLoaderWriterStuff.obj
 0002:00017f7c       ??_R3ssgListOfLists@@8     0048af7c     ssg_vs2008_32:ssgLoaderWriterStuff.obj
 0002:00017f8c       ??_R2ssgListOfLists@@8     0048af8c     ssg_vs2008_32:ssgLoaderWriterStuff.obj
 0002:00017f9c       ??_R1A@?0A@EA@ssgListOfLists@@8 0048af9c     ssg_vs2008_32:ssgLoaderWriterStuff.obj
 0002:00017fb8       ??_R4ssgBaseTransform@@6B@ 0048afb8     ssg_vs2008_32:ssgBaseTransform.obj
 0002:00017fcc       ??_R4ulList@@6B@           0048afcc     ul_vs2008_32:ulList.obj
 0002:00017fe0       ??_R3ulList@@8             0048afe0     ul_vs2008_32:ulList.obj
 0002:00017ff0       ??_R2ulList@@8             0048aff0     ul_vs2008_32:ulList.obj
 0002:00017ff8       ??_R1A@?0A@EA@ulList@@8    0048aff8     ul_vs2008_32:ulList.obj
 0002:00018014       ??_R1A@?0A@EA@exception@std@@8 0048b014     libcpmt:xthrow.obj
 0002:00018030       ??_R3exception@std@@8      0048b030     libcpmt:xthrow.obj
 0002:00018040       ??_R2exception@std@@8      0048b040     libcpmt:xthrow.obj
 0002:00018048       ??_R4bad_alloc@std@@6B@    0048b048     libcpmt:xthrow.obj
 0002:0001805c       ??_R3bad_alloc@std@@8      0048b05c     libcpmt:xthrow.obj
 0002:0001806c       ??_R2bad_alloc@std@@8      0048b06c     libcpmt:xthrow.obj
 0002:00018078       ??_R1A@?0A@EA@bad_alloc@std@@8 0048b078     libcpmt:xthrow.obj
 0002:00018094       ??_R4logic_error@std@@6B@  0048b094     libcpmt:xthrow.obj
 0002:000180a8       ??_R3logic_error@std@@8    0048b0a8     libcpmt:xthrow.obj
 0002:000180b8       ??_R2logic_error@std@@8    0048b0b8     libcpmt:xthrow.obj
 0002:000180c4       ??_R1A@?0A@EA@logic_error@std@@8 0048b0c4     libcpmt:xthrow.obj
 0002:000180e0       ??_R4length_error@std@@6B@ 0048b0e0     libcpmt:xthrow.obj
 0002:000180f4       ??_R3length_error@std@@8   0048b0f4     libcpmt:xthrow.obj
 0002:00018104       ??_R2length_error@std@@8   0048b104     libcpmt:xthrow.obj
 0002:00018114       ??_R1A@?0A@EA@length_error@std@@8 0048b114     libcpmt:xthrow.obj
 0002:00018130       ??_R4out_of_range@std@@6B@ 0048b130     libcpmt:xthrow.obj
 0002:00018144       ??_R3out_of_range@std@@8   0048b144     libcpmt:xthrow.obj
 0002:00018154       ??_R2out_of_range@std@@8   0048b154     libcpmt:xthrow.obj
 0002:00018164       ??_R1A@?0A@EA@out_of_range@std@@8 0048b164     libcpmt:xthrow.obj
 0002:00018180       ??_R4type_info@@6B@        0048b180     LIBCMT:typinfo.obj
 0002:00018194       ??_R3type_info@@8          0048b194     LIBCMT:typinfo.obj
 0002:000181a4       ??_R2type_info@@8          0048b1a4     LIBCMT:typinfo.obj
 0002:000181ac       ??_R1A@?0A@EA@type_info@@8 0048b1ac     LIBCMT:typinfo.obj
 0002:000181c8       ??_R4exception@std@@6B@    0048b1c8     LIBCMT:stdexcpt.obj
 0002:000181dc       ??_R4bad_exception@std@@6B@ 0048b1dc     LIBCMT:frame.obj
 0002:000181f0       ??_R3bad_exception@std@@8  0048b1f0     LIBCMT:frame.obj
 0002:00018200       ??_R2bad_exception@std@@8  0048b200     LIBCMT:frame.obj
 0002:0001820c       ??_R1A@?0A@EA@bad_exception@std@@8 0048b20c     LIBCMT:frame.obj
 0002:00018230       ___safe_se_handler_table   0048b230     <linker-defined>
 0002:000183e4       ___rtc_iaa                 0048b3e4     LIBCMT:initsect.obj
 0002:000183e8       ___rtc_izz                 0048b3e8     LIBCMT:initsect.obj
 0002:000183ec       ___rtc_taa                 0048b3ec     LIBCMT:initsect.obj
 0002:000183f0       ___rtc_tzz                 0048b3f0     LIBCMT:initsect.obj
 0002:00019f44       __TI2?AVbad_alloc@std@@    0048cf44     libcpmt:xthrow.obj
 0002:00019f54       __CTA2?AVbad_alloc@std@@   0048cf54     libcpmt:xthrow.obj
 0002:00019f60       __CT??_R0?AVbad_alloc@std@@@8??0bad_alloc@std@@QAE@ABV01@@Z12 0048cf60     libcpmt:xthrow.obj
 0002:00019f7c       __CT??_R0?AVexception@std@@@8??0exception@std@@QAE@ABV01@@Z12 0048cf7c     libcpmt:xthrow.obj
 0002:00019f98       __CT??_R0?AVlogic_error@std@@@8??0logic_error@std@@QAE@ABV01@@Z12 0048cf98     libcpmt:xthrow.obj
 0002:00019fb4       __TI3?AVlength_error@std@@ 0048cfb4     libcpmt:xthrow.obj
 0002:00019fc4       __CTA3?AVlength_error@std@@ 0048cfc4     libcpmt:xthrow.obj
 0002:00019fd4       __CT??_R0?AVlength_error@std@@@8??0length_error@std@@QAE@ABV01@@Z12 0048cfd4     libcpmt:xthrow.obj
 0002:00019ff0       __TI3?AVout_of_range@std@@ 0048cff0     libcpmt:xthrow.obj
 0002:0001a000       __CTA3?AVout_of_range@std@@ 0048d000     libcpmt:xthrow.obj
 0002:0001a010       __CT??_R0?AVout_of_range@std@@@8??0out_of_range@std@@QAE@ABV01@@Z12 0048d010     libcpmt:xthrow.obj
 0002:0001a62c       __TI2?AVbad_exception@std@@ 0048d62c     LIBCMT:frame.obj
 0002:0001a63c       __CTA2?AVbad_exception@std@@ 0048d63c     LIBCMT:frame.obj
 0002:0001a648       __CT??_R0?AVbad_exception@std@@@8??0bad_exception@std@@QAE@ABV01@@Z12 0048d648     LIBCMT:frame.obj
 0002:0001a80c       __IMPORT_DESCRIPTOR_client 0048d80c     client:client.dll
 0002:0001a820       __IMPORT_DESCRIPTOR_robottools 0048d820     robottools:robottools.dll
 0002:0001a834       __IMPORT_DESCRIPTOR_tgf    0048d834     tgf:tgf.dll
 0002:0001a848       __IMPORT_DESCRIPTOR_KERNEL32 0048d848     kernel32:KERNEL32.dll
 0002:0001a85c       __IMPORT_DESCRIPTOR_WINMM  0048d85c     winmm:WINMM.dll
 0002:0001a870       __IMPORT_DESCRIPTOR_OPENGL32 0048d870     opengl32:OPENGL32.dll
 0002:0001a884       __IMPORT_DESCRIPTOR_glut32 0048d884     glut32:glut32.dll
 0002:0001a898       __NULL_IMPORT_DESCRIPTOR   0048d898     client:client.dll
 0003:00000000       ??_R0?AVssgSimpleList@@@8  0048f000     elevation.obj
 0003:0000001c       ??_R0?AVssgBase@@@8        0048f01c     elevation.obj
 0003:00000034       ??_R0?AVssgTextureArray@@@8 0048f034     elevation.obj
 0003:00000054       ??_R0?AVssgSimpleStateArray@@@8 0048f054     elevation.obj
 0003:00000078       ??_R0?AVssgLoaderOptions@@@8 0048f078     elevation.obj
 0003:00000098       ??_R0?AVssgLoaderOptionsEx@@@8 0048f098     elevation.obj
 0003:000000bc       ?HeightSteps@@3HA          0048f0bc     maintrackgen.obj
 0003:000000c0       ?UseBorder@@3HA            0048f0c0     maintrackgen.obj
 0003:000000c4       ?GridStep@@3MA             0048f0c4     maintrackgen.obj
 0003:000000c8       ?TrackStep@@3MA            0048f0c8     maintrackgen.obj
 0003:000000cc       ?Margin@@3MA               0048f0cc     maintrackgen.obj
 0003:000000d0       ?ExtHeight@@3MA            0048f0d0     maintrackgen.obj
 0003:000000d4       ??_R0?AVmyLoaderOptions@@@8 0048f0d4     objects.obj
 0003:0000010c       ?_Generic_object@?$_Error_objects@H@std@@2V_Generic_error_category@2@A 0048f10c     windowsspec.obj
 0003:00000110       ?_Iostream_object@?$_Error_objects@H@std@@2V_Iostream_error_category@2@A 0048f110     windowsspec.obj
 0003:00000114       ?_System_object@?$_Error_objects@H@std@@2V_System_error_category@2@A 0048f114     windowsspec.obj
 0003:00000118       ??_R0?AVerror_category@std@@@8 0048f118     windowsspec.obj
 0003:0000013c       ??_R0?AV_Generic_error_category@std@@@8 0048f13c     windowsspec.obj
 0003:00000168       ??_R0?AV_Iostream_error_category@std@@@8 0048f168     windowsspec.obj
 0003:00000194       ??_R0?AV_System_error_category@std@@@8 0048f194     windowsspec.obj
 0003:000001c0       ?_sgdGravity@@3PANA        0048f1c0     sg_vs2008_32:sgd.obj
 0003:000001d8       ?_sgGravity@@3PAMA         0048f1d8     sg_vs2008_32:sg.obj
 0003:000001e8       ??_R0?AVssgVertexArray@@@8 0048f1e8     ssg_vs2008_32:ssgSimpleList.obj
 0003:00000208       ??_R0?AVssgNormalArray@@@8 0048f208     ssg_vs2008_32:ssgSimpleList.obj
 0003:00000228       ??_R0?AVssgTexCoordArray@@@8 0048f228     ssg_vs2008_32:ssgSimpleList.obj
 0003:00000248       ??_R0?AVssgColourArray@@@8 0048f248     ssg_vs2008_32:ssgSimpleList.obj
 0003:00000268       ??_R0?AVssgIndexArray@@@8  0048f268     ssg_vs2008_32:ssgSimpleList.obj
 0003:00000288       ?_ssgOpenGLAxisSwapMatrix@@3PAY03MA 0048f288     ssg_vs2008_32:ssg.obj
 0003:000002c8       ?_ssgColourWhite@@3PAMA    0048f2c8     ssg_vs2008_32:ssg.obj
 0003:000002d8       ?_ssgNormalUp@@3PAMA       0048f2d8     ssg_vs2008_32:ssg.obj
 0003:00000ae8       ??_R0?AVssgTransformArray@@@8 0048fae8     ssg_vs2008_32:ssg.obj
 0003:00000b08       ??_R0?AVssgInterleavedArray@@@8 0048fb08     ssg_vs2008_32:ssg.obj
 0003:00000b2c       ??_R0?AVssgTexture@@@8     0048fb2c     ssg_vs2008_32:ssgTexture.obj
 0003:00000b48       ??_R0?AVssgSimpleState@@@8 0048fb48     ssg_vs2008_32:ssgSimpleState.obj
 0003:00000b68       ??_R0?AVssgState@@@8       0048fb68     ssg_vs2008_32:ssgSimpleState.obj
 0003:00000b80       ?_ssgCurrentOptions@@3PAVssgLoaderOptions@@A 0048fb80     ssg_vs2008_32:ssgLoad.obj
 0003:00000cbc       ?maxTriangles@@3HA         0048fcbc     ssg_vs2008_32:ssgBranch.obj
 0003:00000cc0       ?maxVertices@@3HA          0048fcc0     ssg_vs2008_32:ssgBranch.obj
 0003:00000cc4       ??_R0?AVssgBranch@@@8      0048fcc4     ssg_vs2008_32:ssgBranch.obj
 0003:00000cdc       ??_R0?AVssgEntity@@@8      0048fcdc     ssg_vs2008_32:ssgBranch.obj
 0003:00000cf4       ??_R0?AVssgRoot@@@8        0048fcf4     ssg_vs2008_32:ssgRoot.obj
 0003:00000d18       ?g_noLoDs@@3HA             0048fd18     ssg_vs2008_32:ssgLoadMDL.obj
 0003:00000e44       ?save_scale@@3MA           0048fe44     ssg_vs2008_32:ssgSaveASC.obj
 0003:00000e48       ?calledByTheHuman@@3HA     0048fe48     ssg_vs2008_32:ssgSaveASC.obj
 0003:00000ed0       ??_R0?AVssgListOfNodes@@@8 0048fed0     ssg_vs2008_32:ssgLoadIV.obj
 0003:00001184       ??_R0?AVssgSimpleStateList@@@8 00490184     ssg_vs2008_32:ssgLoadX.obj
 0003:00001e00       ??_R0?AVdxfVertArray@@@8   00490e00     ssg_vs2008_32:ssgLoadDXF.obj
 0003:00001ee8       ?_ssg_smooth_threshold@@3MA 00490ee8     ssg_vs2008_32:ssgLoad3ds.obj
 0003:000021a0       ??_R0?AV_ssgBaseList@@@8   004911a0     ssg_vs2008_32:ssgLoadSSG.obj
 0003:000021bc       ??_R0?AVssgVTable@@@8      004911bc     ssg_vs2008_32:ssgVTable.obj
 0003:000021d4       ??_R0?AVssgLeaf@@@8        004911d4     ssg_vs2008_32:ssgVTable.obj
 0003:000021ec       ??_R0?AVssgVtxTable@@@8    004911ec     ssg_vs2008_32:ssgVtxTable.obj
 0003:00002208       ??_R0?AVssgVtxArray@@@8    00491208     ssg_vs2008_32:ssgVtxArray.obj
 0003:00002224       ??_R0?AVssgTween@@@8       00491224     ssg_vs2008_32:ssgTween.obj
 0003:0000223c       ??_R0?AVssgTransform@@@8   0049123c     ssg_vs2008_32:ssgTransform.obj
 0003:00002258       ??_R0?AVssgBaseTransform@@@8 00491258     ssg_vs2008_32:ssgTransform.obj
 0003:00002278       ??_R0?AVssgTexTrans@@@8    00491278     ssg_vs2008_32:ssgTexTrans.obj
 0003:00002294       ??_R0?AVssgAnimTransform@@@8 00491294     ssg_vs2008_32:ssgAnimTransform.obj
 0003:000022b4       ??_R0?AVssgAxisTransform@@@8 004912b4     ssg_vs2008_32:ssgAxisTransform.obj
 0003:000022d4       ??_R0?AVssgSelector@@@8    004912d4     ssg_vs2008_32:ssgSelector.obj
 0003:000022f0       ??_R0?AVssgRangeSelector@@@8 004912f0     ssg_vs2008_32:ssgRangeSelector.obj
 0003:00002310       ??_R0?AVssgTimedSelector@@@8 00491310     ssg_vs2008_32:ssgAnimation.obj
 0003:00002330       ??_R0?AVssgTweenController@@@8 00491330     ssg_vs2008_32:ssgTweenController.obj
 0003:00002354       ??_R0?AVssgCutout@@@8      00491354     ssg_vs2008_32:ssgCutout.obj
 0003:0000236c       ??_R0?AVssgInvisible@@@8   0049136c     ssg_vs2008_32:ssgInvisible.obj
 0003:00002388       ??_R0?AVssgStateSelector@@@8 00491388     ssg_vs2008_32:ssgStateSelector.obj
 0003:000023a8       ?__ssgEnableTable@@3PAP6AXXZA 004913a8     ssg_vs2008_32:ssgStateTables.obj
 0003:000024a8       ?__ssgDisableTable@@3PAP6AXXZA 004914a8     ssg_vs2008_32:ssgStateTables.obj
 0003:000025a8       ??_R0?AVssgVertSplitter@@@8 004915a8     ssg_vs2008_32:ssgVertSplitter.obj
 0003:000025c8       ??_R0?AVssgList@@@8        004915c8     ssg_vs2008_32:ssgList.obj
 0003:000025e0       ??_R0?AVssgKidList@@@8     004915e0     ssg_vs2008_32:ssgList.obj
 0003:00002620       ??_R0?AVssgListOfLists@@@8 00491620     ssg_vs2008_32:ssgLoaderWriterStuff.obj
 0003:0000264c       ?perf_timer@ulClock@@0HA   0049164c     ul_vs2008_32:ulClock.obj
 0003:00002650       ??_R0?AVulList@@@8         00491650     ul_vs2008_32:ulList.obj
 0003:00002668       ??_R0?AVbad_alloc@std@@@8  00491668     libcpmt:xthrow.obj
 0003:00002684       ??_R0?AVexception@std@@@8  00491684     libcpmt:xthrow.obj
 0003:000026a0       ??_R0?AVlogic_error@std@@@8 004916a0     libcpmt:xthrow.obj
 0003:000026c0       ??_R0?AVlength_error@std@@@8 004916c0     libcpmt:xthrow.obj
 0003:000026e0       ??_R0?AVout_of_range@std@@@8 004916e0     libcpmt:xthrow.obj
 0003:00002700       __iob                      00491700     LIBCMT:_file.obj
 0003:00002980       __fltused                  00491980     LIBCMT:fpinit.obj
 0003:00002984       __ldused                   00491984     LIBCMT:fpinit.obj
 0003:00002990       ??_R0?AVtype_info@@@8      00491990     LIBCMT:typinfo.obj
 0003:00002b80       ___security_cookie         00491b80     LIBCMT:gs_cookie.obj
 0003:00002b84       ___security_cookie_complement 00491b84     LIBCMT:gs_cookie.obj
 0003:00002b88       ___nullstring              00491b88     LIBCMT:output.obj
 0003:00002b8c       ___wnullstring             00491b8c     LIBCMT:output.obj
 0003:00002b90       ___badioinfo               00491b90     LIBCMT:ioinit.obj
 0003:00002cfc       __cfltcvt_tab              00491cfc     LIBCMT:cmiscdat.obj
 0003:00002d28       ___ptmbcinfo               00491d28     LIBCMT:mbctype.obj
 0003:00002e20       __mbctype                  00491e20     LIBCMT:mbctype.obj
 0003:00002f28       __mbcasemap                00491f28     LIBCMT:mbctype.obj
 0003:00003028       ___initialmbcinfo          00492028     LIBCMT:mbctype.obj
 0003:00003248       ___isa_enabled             00492248     LIBCMT:cpu_disp.obj
 0003:0000324c       ___flsindex                0049224c     LIBCMT:tidtable.obj
 0003:00003250       ___wclocalestr             00492250     LIBCMT:nlsdata.obj
 0003:00003258       ___lc_time_c               00492258     LIBCMT:nlsdata.obj
 0003:000033bc       ___ptlocinfo               004923bc     LIBCMT:nlsdata.obj
 0003:000033c0       ___initiallocinfo          004923c0     LIBCMT:nlsdata.obj
 0003:00003478       ___initiallocalestructinfo 00492478     LIBCMT:nlsdata.obj
 0003:00003480       ___mb_cur_max              00492480     LIBCMT:nlsdata.obj
 0003:00003484       ___globallocalestatus      00492484     LIBCMT:glstatus.obj
 0003:00003490       ??_R0?AVbad_exception@std@@@8 00492490     LIBCMT:frame.obj
 0003:000034b4       ___abort_behavior          004924b4     LIBCMT:abort.obj
 0003:000034c0       __lookuptrailbytes         004924c0     LIBCMT:read.obj
 0003:000035c0       __sys_nerr                 004925c0     LIBCMT:syserr.obj
 0003:000035e0       __HUGE                     004925e0     LIBCMT:huge.obj
 0003:000035f0       __NLG_Destination          004925f0     LIBCMT:exsup.obj
 0003:00003600       __matherr_flag             00492600     LIBCMT:matherr.obj
 0003:000036f0       __d_inf                    004926f0     LIBCMT:util.obj
 0003:000036f8       __d_ind                    004926f8     LIBCMT:util.obj
 0003:00003700       __d_max                    00492700     LIBCMT:util.obj
 0003:00003708       __d_min                    00492708     LIBCMT:util.obj
 0003:00003710       __d_mzero                  00492710     LIBCMT:util.obj
 0003:00003740       ___lconv                   00492740     LIBCMT:lconv.obj
 0003:00003744       ___lconv_static_decimal    00492744     LIBCMT:lconv.obj
 0003:00003748       ___lconv_c                 00492748     LIBCMT:lconv.obj
 0003:00003798       ___lconv_static_W_decimal  00492798     LIBCMT:lconv.obj
 0003:0000379c       __pctype                   0049279c     LIBCMT:ctype.obj
 0003:000037a0       __pwctype                  004927a0     LIBCMT:ctype.obj
 0003:000037a8       __timezone                 004927a8     LIBCMT:timeset.obj
 0003:000037ac       __daylight                 004927ac     LIBCMT:timeset.obj
 0003:000037b0       __dstbias                  004927b0     LIBCMT:timeset.obj
 0003:00003838       __tzname                   00492838     LIBCMT:timeset.obj
 0003:00003858       __days                     00492858     LIBCMT:days.obj
 0003:0000388c       __lpdays                   0049288c     LIBCMT:days.obj
 0003:000038c0       __p_overlay                004928c0     LIBCMT:dospawn.obj
 0003:00003900       __pow10pos                 00492900     LIBCMT:constpow.obj
 0003:00003a60       __pow10neg                 00492a60     LIBCMT:constpow.obj
 0003:00003bbc       __confh                    00492bbc     LIBCMT:initcon.obj
 0003:00003bc0       ?point@@3PAUnod@@A         00492bc0     easymesh.obj
 0003:00003bc4       ?segment@@3PAUseg@@A       00492bc4     easymesh.obj
 0003:00003bc8       ?Nc@@3HA                   00492bc8     easymesh.obj
 0003:00003bcc       ?Fl@@3HA                   00492bcc     easymesh.obj
 0003:00003bd0       ?elem@@3PAUele@@A          00492bd0     easymesh.obj
 0003:003380d0       ?side@@3PAUsid@@A          007c70d0     easymesh.obj
 0003:00547650       ?node@@3PAUnod@@A          009d6650     easymesh.obj
 0003:0064f110       ?chain@@3PAUchai@@A        00ade110     easymesh.obj
 0003:0064f114       ?Ne@@3HA                   00ade114     easymesh.obj
 0003:0064f118       ?Nn@@3HA                   00ade118     easymesh.obj
 0003:0064f11c       ?Ns@@3HA                   00ade11c     easymesh.obj
 0003:0064f120       ?ugly@@3HA                 00ade120     easymesh.obj
 0003:0064f128       ?xmax@@3NA                 00ade128     easymesh.obj
 0003:0064f130       ?xmin@@3NA                 00ade130     easymesh.obj
 0003:0064f138       ?ymax@@3NA                 00ade138     easymesh.obj
 0003:0064f140       ?ymin@@3NA                 00ade140     easymesh.obj
 0003:0064f5b0       ?OutputFileName@@3PADA     00ade5b0     maintrackgen.obj
 0003:0064f5b4       ?bump@@3HA                 00ade5b4     maintrackgen.obj
 0003:0064f5b8       ?raceline@@3HA             00ade5b8     maintrackgen.obj
 0003:0064f5bc       ?TrackName@@3PADA          00ade5bc     maintrackgen.obj
 0003:0064f5c0       ?TrackCategory@@3PADA      00ade5c0     maintrackgen.obj
 0003:0064f5c4       ?TrackHandle@@3PAXA        00ade5c4     maintrackgen.obj
 0003:0064f5c8       ?CfgHandle@@3PAXA          00ade5c8     maintrackgen.obj
 0003:0064f5cc       ?Track@@3PAUtTrack@@A      00ade5cc     maintrackgen.obj
 0003:0064f5d0       ?TrackItf@@3UtTrackItf@@A  00ade5d0     maintrackgen.obj
 0003:0064f5f4       ?TrackOnly@@3HA            00ade5f4     maintrackgen.obj
 0003:0064f5f8       ?JustCalculate@@3HA        00ade5f8     maintrackgen.obj
 0003:0064f5fc       ?MergeAll@@3HA             00ade5fc     maintrackgen.obj
 0003:0064f600       ?MergeTerrain@@3HA         00ade600     maintrackgen.obj
 0003:0064f604       ?OutTrackName@@3PADA       00ade604     maintrackgen.obj
 0003:0064f608       ?OutMeshName@@3PADA        00ade608     maintrackgen.obj
 0003:0064f60c       ?modlist@@3PAUModList@@A   00ade60c     maintrackgen.obj
 0003:0064f610       ?saveElevation@@3HA        00ade610     maintrackgen.obj
 0003:0064f614       ?ElevationFile@@3PADA      00ade614     maintrackgen.obj
 0003:0064f628       ?objhead@@3Uobjlist@@A     00ade628     objects.obj
 0003:0064f668       ?InteriorList@@3URingListHead@@A 00ade668     relief.obj
 0003:0064f670       ?ExteriorList@@3URingListHead@@A 00ade670     relief.obj
 0003:0064f6a0       ?id@?$num_put@DV?$back_insert_iterator@V?$basic_string@DU?$char_traits@D@std@@V?$allocator@D@2@@std@@@std@@@std@@2V0locale@2@A 00ade6a0     windowsspec.obj
 0003:0064f6a4       ?id@?$num_put@_WV?$back_insert_iterator@V?$basic_string@_WU?$char_traits@_W@std@@V?$allocator@_W@2@@std@@@std@@@std@@2V0locale@2@A 00ade6a4     windowsspec.obj
 0003:0064f6a8       ?id@?$numpunct@D@std@@2V0locale@2@A 00ade6a8     windowsspec.obj
 0003:0064f6ac       ?id@?$numpunct@_W@std@@2V0locale@2@A 00ade6ac     windowsspec.obj
 0003:0064f6b0       ?_ssgVertex000@@3PAMA      00ade6b0     ssg_vs2008_32:ssg.obj
 0003:0064f6bc       ?_ssgTexCoord00@@3PAMA     00ade6bc     ssg_vs2008_32:ssg.obj
 0003:0064f6c4       ?_ssgIndex0@@3FA           00ade6c4     ssg_vs2008_32:ssg.obj
 0003:0064f6c6       ?_ssgBackFaceCollisions@@3_NA 00ade6c6     ssg_vs2008_32:ssg.obj
 0003:00650ff0       ?_ssgIsHotTest@@3HA        00adfff0     ssg_vs2008_32:ssgIsect.obj
 0003:00650ff4       ?_ssgIsLosTest@@3HA        00adfff4     ssg_vs2008_32:ssgIsect.obj
 0003:00658210       ?_ssgCurrentContext@@3PAVssgContext@@A 00ae7210     ssg_vs2008_32:ssgContext.obj
 0003:00658764       ?TheTextureList@@3PAUoneTexture@@A 00ae7764     ssg_vs2008_32:ssgLoadMDL.obj
 0003:00658b0c       ?TheVertexList@@3PAUoneVertex@@A 00ae7b0c     ssg_vs2008_32:ssgLoadMDL.obj
 0003:00658b10       ?noGT@@3HA                 00ae7b10     ssg_vs2008_32:ssgLoadMDL.obj
 0003:00658b14       ?noLT@@3HA                 00ae7b14     ssg_vs2008_32:ssgLoadMDL.obj
 0003:00658b18       ?no0@@3HA                  00ae7b18     ssg_vs2008_32:ssgLoadMDL.obj
 0003:00658bf4       ?MeshStatus@@3UMeshStatusType@@A 00ae7bf4     ssg_vs2008_32:ssgLoadASC.obj
 0003:006af810       ?AscMaterials@@3PAUAscMaterialType@@A 00b3e810     ssg_vs2008_32:ssgLoadASC.obj
 0003:006b1840       ?bUseSpare@@3HA            00b40840     ssg_vs2008_32:ssgSaveASC.obj
 0003:006b1880       ?vrmlParser@@3V_ssgParser@@A 00b40880     ssg_vs2008_32:ssgLoadVRML1.obj
 0003:0086c078       ?_3DS_use_smoothing_groups@@3HA 00cfb078     ssg_vs2008_32:ssgLoad3ds.obj
 0003:0086c29c       ?_ssgFileVersionNumber@@3HA 00cfb29c     ssg_vs2008_32:ssgLoadSSG.obj
 0003:0090c2b8       ?_ssgGlobTime@@3MA         00d9b2b8     ssg_vs2008_32:ssgAnimTransform.obj
 0003:0090c2c0       ?ck@ssgTimedSelector@@1VulClock@@A 00d9b2c0     ssg_vs2008_32:ssgAnimation.obj
 0003:0090c6e8       ?stats_num_vertices@@3HA   00d9b6e8     ssg_vs2008_32:ssgStats.obj
 0003:0090c6ec       ?stats_isect_triangles@@3HA 00d9b6ec     ssg_vs2008_32:ssgStats.obj
 0003:0090c6f0       ?stats_isect_test@@3HA     00d9b6f0     ssg_vs2008_32:ssgStats.obj
 0003:0090c6f4       ?stats_cull_test@@3HA      00d9b6f4     ssg_vs2008_32:ssgStats.obj
 0003:0090c6f8       ?stats_bind_textures@@3HA  00d9b6f8     ssg_vs2008_32:ssgStats.obj
 0003:0090c6fc       ?stats_num_leaves@@3HA     00d9b6fc     ssg_vs2008_32:ssgStats.obj
 0003:0090c700       ?stats_hot_triangles@@3HA  00d9b700     ssg_vs2008_32:ssgStats.obj
 0003:0090c704       ?stats_hot_test@@3HA       00d9b704     ssg_vs2008_32:ssgStats.obj
 0003:0090c708       ?stats_hot_no_trav@@3HA    00d9b708     ssg_vs2008_32:ssgStats.obj
 0003:0090c70c       ?stats_hot_radius_reject@@3HA 00d9b70c     ssg_vs2008_32:ssgStats.obj
 0003:0090c710       ?stats_hot_triv_accept@@3HA 00d9b710     ssg_vs2008_32:ssgStats.obj
 0003:0090c714       ?stats_hot_straddle@@3HA   00d9b714     ssg_vs2008_32:ssgStats.obj
 0003:0090c718       ?stats_los_triangles@@3HA  00d9b718     ssg_vs2008_32:ssgStats.obj
 0003:0090c71c       ?stats_los_test@@3HA       00d9b71c     ssg_vs2008_32:ssgStats.obj
 0003:0090c720       ?stats_los_no_trav@@3HA    00d9b720     ssg_vs2008_32:ssgStats.obj
 0003:0090c724       ?stats_los_radius_reject@@3HA 00d9b724     ssg_vs2008_32:ssgStats.obj
 0003:0090c728       ?stats_los_triv_accept@@3HA 00d9b728     ssg_vs2008_32:ssgStats.obj
 0003:0090c72c       ?stats_los_straddle@@3HA   00d9b72c     ssg_vs2008_32:ssgStats.obj
 0003:0090c730       ?currentDiffuse@@3PAMA     00d9b730     ssg_vs2008_32:ssgLoaderWriterStuff.obj
 0003:0090c740       ?_ssgCurrStatistics@@3VssgStatistics@@A 00d9b740     ssg_vs2008_32:ssgStatistics.obj
 0003:0090cb50       ?res@ulClock@@0NA          00d9bb50     ul_vs2008_32:ulClock.obj
 0003:0090cb60       __cflush                   00d9bb60     LIBCMT:_file.obj
 0003:0090cb68       __umaskval                 00d9bb68     LIBCMT:crt0dat.obj
 0003:0090cb6c       __exitflag                 00d9bb6c     LIBCMT:crt0dat.obj
 0003:0090cb70       __C_Termination_Done       00d9bb70     LIBCMT:crt0dat.obj
 0003:0090cb74       ___winitenv                00d9bb74     LIBCMT:crt0dat.obj
 0003:0090cb78       ___initenv                 00d9bb78     LIBCMT:crt0dat.obj
 0003:0090cb7c       __C_Exit_Done              00d9bb7c     LIBCMT:crt0dat.obj
 0003:0090cb80       ___argc                    00d9bb80     LIBCMT:crt0dat.obj
 0003:0090cb84       ___argv                    00d9bb84     LIBCMT:crt0dat.obj
 0003:0090cb88       ___wargv                   00d9bb88     LIBCMT:crt0dat.obj
 0003:0090cb8c       __environ                  00d9bb8c     LIBCMT:crt0dat.obj
 0003:0090cb90       __wenviron                 00d9bb90     LIBCMT:crt0dat.obj
 0003:0090cb94       __pgmptr                   00d9bb94     LIBCMT:crt0dat.obj
 0003:0090cb98       __wpgmptr                  00d9bb98     LIBCMT:crt0dat.obj
 0003:0090cb9c       ___fastflag                00d9bb9c     LIBCMT:fpinit.obj
 0003:0090cba0       __aenvptr                  00d9bba0     LIBCMT:crt0.obj
 0003:0090cba4       __wenvptr                  00d9bba4     LIBCMT:crt0.obj
 0003:0090cba8       ___pInvalidArgHandler      00d9bba8     LIBCMT:invarg.obj
 0003:0090cbac       __stdbuf                   00d9bbac     LIBCMT:_sftbuf.obj
 0003:0090cbb8       ___pioinfo                 00d9bbb8     LIBCMT:ioinit.obj
 0003:0090ce10       __maxwait                  00d9be10     LIBCMT:crtheap.obj
 0003:0090ce18       ___app_type                00d9be18     LIBCMT:crt0msg.obj
 0003:0090d448       ?__pInconsistency@@3P6AXXZA 00d9c448     LIBCMT:hooks.obj
 0003:0090d44c       ?_pnhHeap@@3P6AHI@ZA       00d9c44c     LIBCMT:handler.obj
 0003:0090d450       ___pPurecall               00d9c450     LIBCMT:inithelp.obj
 0003:0090d46c       ___mblocalename            00d9c46c     LIBCMT:mbctype.obj
 0003:0090d470       ___mbcodepage              00d9c470     LIBCMT:mbctype.obj
 0003:0090d474       ___ismbcodepage            00d9c474     LIBCMT:mbctype.obj
 0003:0090d478       ___mbulinfo                00d9c478     LIBCMT:mbctype.obj
 0003:0090d488       ___isa_available           00d9c488     LIBCMT:cpu_disp.obj
 0003:0090d48c       ___favor                   00d9c48c     LIBCMT:cpu_disp.obj
 0003:0090d490       ___locale_changed          00d9c490     LIBCMT:wsetloca.obj
 0003:0090d49c       __crtheap                  00d9c49c     LIBCMT:heapinit.obj
 0003:0090d5a8       ___error_mode              00d9c5a8     LIBCMT:errmode.obj
 0003:0090d5ac       __newmode                  00d9c5ac     LIBCMT:_newmode.obj
 0003:0090d8d0       __commode                  00d9c8d0     LIBCMT:ncommode.obj
 0003:0090d8ec       __outputformat             00d9c8ec     LIBCMT:outputformat.obj
 0003:0090d8f0       ___lconv_static_null       00d9c8f0     LIBCMT:lconv.obj
 0003:0090d8f4       ___lconv_static_W_null     00d9c8f4     LIBCMT:lconv.obj
 0003:0090d8f8       ?pArgList@UnDecorator@@0PAVReplicator@@A 00d9c8f8     LIBCMT:undname.obj
 0003:0090d8fc       ?pZNameList@UnDecorator@@0PAVReplicator@@A 00d9c8fc     LIBCMT:undname.obj
 0003:0090d900       ?pTemplateArgList@UnDecorator@@0PAVReplicator@@A 00d9c900     LIBCMT:undname.obj
 0003:0090d904       ?gName@UnDecorator@@0PBDB  00d9c904     LIBCMT:undname.obj
 0003:0090d908       ?name@UnDecorator@@0PBDB   00d9c908     LIBCMT:undname.obj
 0003:0090d90c       ?outputString@UnDecorator@@0PADA 00d9c90c     LIBCMT:undname.obj
 0003:0090d910       ?maxStringLength@UnDecorator@@0HA 00d9c910     LIBCMT:undname.obj
 0003:0090d914       ?disableFlags@UnDecorator@@0KA 00d9c914     LIBCMT:undname.obj
 0003:0090d918       ?fExplicitTemplateParams@UnDecorator@@0_NA 00d9c918     LIBCMT:undname.obj
 0003:0090d919       ?fGetTemplateArgumentList@UnDecorator@@0_NA 00d9c919     LIBCMT:undname.obj
 0003:0090d91c       ?m_pGetParameter@UnDecorator@@0P6APADJ@ZA 00d9c91c     LIBCMT:undname.obj
 0003:0090d9f4       __fmode                    00d9c9f4     LIBCMT:txtmode.obj
 0003:0090d9f8       __debugger_hook_dummy      00d9c9f8     <common>
 0003:0090da00       _encodedKERNEL32Functions  00d9ca00     <common>
 0003:0090da74       ___use_sse2_mathfcns       00d9ca74     <common>
 0003:0090da78       __pmatherr                 00d9ca78     <common>
 0003:0090da7c       __nhandle                  00d9ca7c     <common>
 0003:0090da80       __acmdln                   00d9ca80     <common>
 0003:0090da84       ___dyn_tls_init_callback   00d9ca84     <common>
 0003:0090da88       ___onexitend               00d9ca88     <common>
 0003:0090da8c       ___onexitbegin             00d9ca8c     <common>
 0003:0090da90       ___mbctype_initialized     00d9ca90     <common>
 0003:0090da94       ___env_initialized         00d9ca94     <common>
 0003:0090da98       ___piob                    00d9ca98     <common>
 0003:0090da9c       __nstream                  00d9ca9c     <common>
 0003:0090daa0       __bufin                    00d9caa0     <common>

 entry point at        0001:00059c9f

 Static symbols

 0001:00000000       ?GfOut@@YAXPBDZZ           00401000 f   ac3d.obj
 0001:000000d0       ?GfOut@@YAXPBDZZ           004010d0 f   easymesh.obj
 0001:000032c0       ?insert_node_in_group@@YAHPAUnod@@PAUgroup@@@Z 004042c0 f   easymesh.obj
 0001:00003380       ?insert_elem_in_group@@YAXPAUele@@PAUnod@@@Z 00404380 f   easymesh.obj
 0001:00003570       ?groups@@YAXXZ             00404570 f   easymesh.obj
 0001:00003960       ?draw_ac@@YAXPAU_iobuf@@PBD@Z 00404960 f   easymesh.obj
 0001:00003b50       ?generate_mesh@@YAXXZ      00404b50 f   easymesh.obj
 0001:00003bd0       ?GetTrackOrientation@@YAHPAUtTrack@@@Z 00404bd0 f   easymesh.obj
 0001:00003c20       ?GenerateMesh@@YAXPAUtTrack@@HHH@Z 00404c20 f   easymesh.obj
 0001:00005e10       ?Generate@@YAXXZ           00406e10 f   maintrackgen.obj
 0001:000062f4       $LN38                      004072f4     maintrackgen.obj
 0001:000067d0       ?GfOut@@YAXPBDZZ           004077d0 f   objects.obj
 0001:00006bf0       ?ApplyTransform@@YAXQAY03MPAVssgBase@@@Z 00407bf0 f   objects.obj
 0001:00006c60       ?InitObjects@@YAXPAUtTrack@@PAX@Z 00407c60 f   objects.obj
 0001:00006fe0       ?AddToRoot@@YAXPAVssgEntity@@@Z 00407fe0 f   objects.obj
 0001:00007040       ?AddObject@@YAXIMM@Z       00408040 f   objects.obj
 0001:000071d0       ?ssgSaveLeaf@@YAHPAVssgEntity@@PAU_iobuf@@@Z 004081d0 f   objects.obj
 0001:000075b0       ?ssgSaveACInner@@YAHPAVssgEntity@@PAU_iobuf@@@Z 004085b0 f   objects.obj
 0001:00007680       ?InsertInGroup@@YAXPAVssgEntity@@@Z 00408680 f   objects.obj
 0001:00007750       ?InsertInner@@YAXPAVssgEntity@@@Z 00408750 f   objects.obj
 0001:000077b0       ?Group@@YAXPAUtTrack@@PAXPAVssgEntity@@@Z 004087b0 f   objects.obj
 0001:000079b0       ?SplitTrack@@YAXPAUtTrack@@@Z 004089b0 f   raceline.obj
 0001:00007df0       ?GetRInverse@@YANHV?$v2t@N@@H@Z 00408df0 f   raceline.obj
 0001:00007ed0       ?UpdateTxTy@@YAXH@Z        00408ed0 f   raceline.obj
 0001:00007f40       ?AdjustRadius@@YAXHHHNN@Z  00408f40 f   raceline.obj
 0001:000081a0       ?Smooth@@YAXH@Z            004091a0 f   raceline.obj
 0001:000083a0       ?StepInterpolate@@YAXHHH@Z 004093a0 f   raceline.obj
 0001:000084e0       ?Interpolate@@YAXH@Z       004094e0 f   raceline.obj
 0001:00008840       ?hookNode@@YAPAVssgBranch@@PAD@Z 00409840 f   relief.obj
 0001:00008900       ?countRec@@YAXPAVssgEntity@@PAH1@Z 00409900 f   relief.obj
 0001:00008980       ?genRec@@YAXPAVssgEntity@@@Z 00409980 f   relief.obj
 0001:00008b30       ?GfOut@@YAXPBDZZ           00409b30 f   track.obj
 0001:00008c30       ?initPits@@YAXPAUtTrackPitInfo@@@Z 00409c30 f   track.obj
 0001:000146e0       ?saveObject@@YAXPAU_iobuf@@HHPAD1@Z 004156e0 f   track.obj
 0001:000149d0       ?SaveMainTrack@@YAXPAU_iobuf@@HH@Z 004159d0 f   track.obj
 0001:00014dd0       ?GfOut@@YAXPBDZZ           00415dd0 f   windowsspec.obj
 0001:00014de0       ?windowsModLoad@@YAHIPADPAPAUModList@@@Z 00415de0 f   windowsspec.obj
 0001:00014ff0       ?windowsModInfo@@YAHIPADPAPAUModList@@@Z 00415ff0 f   windowsspec.obj
 0001:000151c0       ?windowsModLoadDir@@YAHIPADPAPAUModList@@@Z 004161c0 f   windowsspec.obj
 0001:000153d0       ?windowsModInfoDir@@YAHIPADHPAPAUModList@@@Z 004163d0 f   windowsspec.obj
 0001:00015680       ?windowsModUnloadList@@YAHPAPAUModList@@@Z 00416680 f   windowsspec.obj
 0001:00015720       ?windowsModFreeInfoList@@YAHPAPAUModList@@@Z 00416720 f   windowsspec.obj
 0001:00015790       ?windowsDirGetList@@YAPAUFList@@PBD@Z 00416790 f   windowsspec.obj
 0001:00015920       ?windowsDirGetListFiltered@@YAPAUFList@@PBD0@Z 00416920 f   windowsspec.obj
 0001:00015ae0       ?windowsTimeClock@@YANXZ   00416ae0 f   windowsspec.obj
 0001:00015cab       __catch$?_Copy@?$basic_string@DU?$char_traits@D@std@@V?$allocator@D@2@@std@@QAEXII@Z$0 00416cab f i windowsspec.obj
 0001:00015ce8       __catch$?_Copy@?$basic_string@DU?$char_traits@D@std@@V?$allocator@D@2@@std@@QAEXII@Z$1 00416ce8 f i windowsspec.obj
 0001:000184b0       ?glIsValidContext@@YA_NXZ  004194b0 f   ssg_vs2008_32:ssg.obj
 0001:00018b80       ?createBase@@YAPAVssgBase@@XZ 00419b80 f   ssg_vs2008_32:ssg.obj
 0001:00018be0       ?createVTable@@YAPAVssgBase@@XZ 00419be0 f   ssg_vs2008_32:ssg.obj
 0001:00018c40       ?createVtxTable@@YAPAVssgBase@@XZ 00419c40 f   ssg_vs2008_32:ssg.obj
 0001:00018ca0       ?createVtxArray@@YAPAVssgBase@@XZ 00419ca0 f   ssg_vs2008_32:ssg.obj
 0001:00018d00       ?createTween@@YAPAVssgBase@@XZ 00419d00 f   ssg_vs2008_32:ssg.obj
 0001:00018d60       ?createBranch@@YAPAVssgBase@@XZ 00419d60 f   ssg_vs2008_32:ssg.obj
 0001:00018dc0       ?createTransform@@YAPAVssgBase@@XZ 00419dc0 f   ssg_vs2008_32:ssg.obj
 0001:00018e20       ?createTexTrans@@YAPAVssgBase@@XZ 00419e20 f   ssg_vs2008_32:ssg.obj
 0001:00018e80       ?createAnimTransform@@YAPAVssgBase@@XZ 00419e80 f   ssg_vs2008_32:ssg.obj
 0001:00018ee0       ?createAxisTransform@@YAPAVssgBase@@XZ 00419ee0 f   ssg_vs2008_32:ssg.obj
 0001:00018f40       ?createSelector@@YAPAVssgBase@@XZ 00419f40 f   ssg_vs2008_32:ssg.obj
 0001:00018fa0       ?createRangeSelector@@YAPAVssgBase@@XZ 00419fa0 f   ssg_vs2008_32:ssg.obj
 0001:00019000       ?createTimedSelector@@YAPAVssgBase@@XZ 0041a000 f   ssg_vs2008_32:ssg.obj
 0001:00019060       ?createTweenController@@YAPAVssgBase@@XZ 0041a060 f   ssg_vs2008_32:ssg.obj
 0001:000190c0       ?createRoot@@YAPAVssgBase@@XZ 0041a0c0 f   ssg_vs2008_32:ssg.obj
 0001:00019120       ?createCutout@@YAPAVssgBase@@XZ 0041a120 f   ssg_vs2008_32:ssg.obj
 0001:00019180       ?createInvisible@@YAPAVssgBase@@XZ 0041a180 f   ssg_vs2008_32:ssg.obj
 0001:000191e0       ?createSimpleState@@YAPAVssgBase@@XZ 0041a1e0 f   ssg_vs2008_32:ssg.obj
 0001:00019240       ?createStateSelector@@YAPAVssgBase@@XZ 0041a240 f   ssg_vs2008_32:ssg.obj
 0001:000192a0       ?createSimpleList@@YAPAVssgBase@@XZ 0041a2a0 f   ssg_vs2008_32:ssg.obj
 0001:00019320       ?createVertexArray@@YAPAVssgBase@@XZ 0041a320 f   ssg_vs2008_32:ssg.obj
 0001:000193d0       ?createNormalArray@@YAPAVssgBase@@XZ 0041a3d0 f   ssg_vs2008_32:ssg.obj
 0001:00019480       ?createTexCoordArray@@YAPAVssgBase@@XZ 0041a480 f   ssg_vs2008_32:ssg.obj
 0001:00019530       ?createColourArray@@YAPAVssgBase@@XZ 0041a530 f   ssg_vs2008_32:ssg.obj
 0001:000195e0       ?createIndexArray@@YAPAVssgBase@@XZ 0041a5e0 f   ssg_vs2008_32:ssg.obj
 0001:00019690       ?createTransformArray@@YAPAVssgBase@@XZ 0041a690 f   ssg_vs2008_32:ssg.obj
 0001:00019740       ?createInterleavedArray@@YAPAVssgBase@@XZ 0041a740 f   ssg_vs2008_32:ssg.obj
 0001:000197f0       ?createTexture@@YAPAVssgBase@@XZ 0041a7f0 f   ssg_vs2008_32:ssg.obj
 0001:000198e0       ?ssgSearchExtensionString@@YA_NPAD0@Z 0041a8e0 f   ssg_vs2008_32:ssg.obj
 0001:0001b110       ?printStateString@@YAXPAU_iobuf@@I@Z 0041c110 f   ssg_vs2008_32:ssgSimpleState.obj
 0001:0001bb50       ?file_extension@@YAPBDPBD@Z 0041cb50 f   ssg_vs2008_32:ssgLoad.obj
 0001:0001bd40       ?skip_spaces@@YAXPAPAD@Z   0041cd40 f   ssg_vs2008_32:ssgLoadAC.obj
 0001:0001bd60       ?skip_quotes@@YAXPAPAD@Z   0041cd60 f   ssg_vs2008_32:ssgLoadAC.obj
 0001:0001bdb0       ?search@@YAHPAUTag@@PAD@Z  0041cdb0 f   ssg_vs2008_32:ssgLoadAC.obj
 0001:0001be40       ?get_state@@YAPAVssgState@@PAU_ssgMaterial@@@Z 0041ce40 f   ssg_vs2008_32:ssgLoadAC.obj
 0001:0001c000       ?do_material@@YAHPAD@Z     0041d000 f   ssg_vs2008_32:ssgLoadAC.obj
 0001:0001c170       ?do_object@@YAHPAD@Z       0041d170 f   ssg_vs2008_32:ssgLoadAC.obj
 0001:0001d1c0       ?do_name@@YAHPAD@Z         0041e1c0 f   ssg_vs2008_32:ssgLoadAC.obj
 0001:0001d1e0       ?do_data@@YAHPAD@Z         0041e1e0 f   ssg_vs2008_32:ssgLoadAC.obj
 0001:0001d2b0       ?do_texture@@YAHPAD@Z      0041e2b0 f   ssg_vs2008_32:ssgLoadAC.obj
 0001:0001d300       ?do_texrep@@YAHPAD@Z       0041e300 f   ssg_vs2008_32:ssgLoadAC.obj
 0001:0001d340       ?do_texoff@@YAHPAD@Z       0041e340 f   ssg_vs2008_32:ssgLoadAC.obj
 0001:0001d380       ?do_crease@@YAHPAD@Z       0041e380 f   ssg_vs2008_32:ssgLoadAC.obj
 0001:0001d3b0       ?do_rot@@YAHPAD@Z          0041e3b0 f   ssg_vs2008_32:ssgLoadAC.obj
 0001:0001d450       ?do_loc@@YAHPAD@Z          0041e450 f   ssg_vs2008_32:ssgLoadAC.obj
 0001:0001d4c0       ?do_url@@YAHPAD@Z          0041e4c0 f   ssg_vs2008_32:ssgLoadAC.obj
 0001:0001d4d0       ?do_numvert@@YAHPAD@Z      0041e4d0 f   ssg_vs2008_32:ssgLoadAC.obj
 0001:0001d5d0       ?do_numsurf@@YAHPAD@Z      0041e5d0 f   ssg_vs2008_32:ssgLoadAC.obj
 0001:0001d630       ?do_surf@@YAHPAD@Z         0041e630 f   ssg_vs2008_32:ssgLoadAC.obj
 0001:0001d6c0       ?do_mat@@YAHPAD@Z          0041e6c0 f   ssg_vs2008_32:ssgLoadAC.obj
 0001:0001d6e0       ?add_textured_vertex_edge@@YAXFQAM@Z 0041e6e0 f   ssg_vs2008_32:ssgLoadAC.obj
 0001:0001d960       ?do_refs@@YAHPAD@Z         0041e960 f   ssg_vs2008_32:ssgLoadAC.obj
 0001:0001ddb0       ?do_kids@@YAHPAD@Z         0041edb0 f   ssg_vs2008_32:ssgLoadAC.obj
 0001:0001ee20       ?safe_replace_kid@@YAXPAVssgBranch@@PAVssgEntity@@1@Z 0041fe20 f   ssg_vs2008_32:ssgOptimiser.obj
 0001:0001ef20       ?strip@@YAXPAVssgEntity@@@Z 0041ff20 f   ssg_vs2008_32:ssgOptimiser.obj
 0001:00020878       $LN156                     00421878     ssg_vs2008_32:ssgLoadXPlaneObj.obj
 0001:00020890       $LN130                     00421890     ssg_vs2008_32:ssgLoadXPlaneObj.obj
 0001:00021440       $LN49                      00422440     ssg_vs2008_32:ssgLoadSGI.obj
 0001:000214d0       ?ReadPCXBody@@YAHAAPAEPAUpcxHeaderType@@PAE@Z 004224d0 f   ssg_vs2008_32:ssgLoadPCX.obj
 0001:00021960       ?swab_short@@YAXPAG@Z      00422960 f   ssg_vs2008_32:ssgLoadBMP.obj
 0001:00021980       ?swab_int@@YAXPAI@Z        00422980 f   ssg_vs2008_32:ssgLoadBMP.obj
 0001:000219c0       ?readByte@@YAEXZ           004229c0 f   ssg_vs2008_32:ssgLoadBMP.obj
 0001:000219e0       ?readShort@@YAGXZ          004229e0 f   ssg_vs2008_32:ssgLoadBMP.obj
 0001:00021a10       ?readInt@@YAIXZ            00422a10 f   ssg_vs2008_32:ssgLoadBMP.obj
 0001:00021f50       $LN81                      00422f50     ssg_vs2008_32:ssgLoadBMP.obj
 0001:00022410       ?ssgLoadDummyTexture@@YAXPAUssgTextureInfo@@@Z 00423410 f   ssg_vs2008_32:ssgLoadTexture.obj
 0001:000224f0       ?fileMTimeCmp@@YAHPBD0@Z   004234f0 f   ssg_vs2008_32:ssgLoadTexture.obj
 0001:00022e00       $LN104                     00423e00     ssg_vs2008_32:ssgLoadTGA.obj
 0001:00022e14       $LN80                      00423e14     ssg_vs2008_32:ssgLoadTGA.obj
 0001:00022e90       ?newPart@@YAXXZ            00423e90 f   ssg_vs2008_32:ssgLoadMDL.obj
 0001:00023010       ?push_stack@@YAXJF@Z       00424010 f   ssg_vs2008_32:ssgLoadMDL.obj
 0001:00023030       ?pop_stack@@YAJAAF@Z       00424030 f   ssg_vs2008_32:ssgLoadMDL.obj
 0001:00023050       ?recalcNormals@@YAXXZ      00424050 f   ssg_vs2008_32:ssgLoadMDL.obj
 0001:000231c0       ?readPoint@@YAXPAU_iobuf@@QAM@Z 004241c0 f   ssg_vs2008_32:ssgLoadMDL.obj
 0001:00023240       ?readVector@@YAXPAU_iobuf@@QAM@Z 00424240 f   ssg_vs2008_32:ssgLoadMDL.obj
 0001:000232b0       ?createTriangIndices@@YAXPAVssgIndexArray@@HQBMJ@Z 004242b0 f   ssg_vs2008_32:ssgLoadMDL.obj
 0001:00023760       ?readTexIndices@@YA_NPAU_iobuf@@HQBM_NJ@Z 00424760 f   ssg_vs2008_32:ssgLoadMDL.obj
 0001:00023be0       ?readIndices@@YA_NPAU_iobuf@@HQBMJ@Z 00424be0 f   ssg_vs2008_32:ssgLoadMDL.obj
 0001:00023d20       ?setColor@@YAXHH@Z         00424d20 f   ssg_vs2008_32:ssgLoadMDL.obj
 0001:00023de0       ?setColor@@YAXHHHH@Z       00424de0 f   ssg_vs2008_32:ssgLoadMDL.obj
 0001:00023e30       ?setTexture@@YA_NPAD@Z     00424e30 f   ssg_vs2008_32:ssgLoadMDL.obj
 0001:00023e40       ?createState@@YAPAVssgSimpleState@@_N@Z 00424e40 f   ssg_vs2008_32:ssgLoadMDL.obj
 0001:00024080       ?getCurrGroup@@YAPAVssgBranch@@XZ 00425080 f   ssg_vs2008_32:ssgLoadMDL.obj
 0001:00024090       ?CreateAndAddLeaf1@@YAXIPAVssgTexCoordArray@@_N@Z 00425090 f   ssg_vs2008_32:ssgLoadMDL.obj
 0001:000241d0       ?CreateAndAddLeaf2@@YAXXZ  004251d0 f   ssg_vs2008_32:ssgLoadMDL.obj
 0001:00024210       ?getMPGroup@@YAPAVssgBranch@@H@Z 00425210 f   ssg_vs2008_32:ssgLoadMDL.obj
 0001:00024548       $LN43                      00425548     ssg_vs2008_32:ssgLoadMDL.obj
 0001:00024568       $LN41                      00425568     ssg_vs2008_32:ssgLoadMDL.obj
 0001:000245a0       ?getMPLimits@@YAXHPAM0@Z   004255a0 f   ssg_vs2008_32:ssgLoadMDL.obj
 0001:000245fc       $LN14                      004255fc     ssg_vs2008_32:ssgLoadMDL.obj
 0001:00024614       $LN12                      00425614     ssg_vs2008_32:ssgLoadMDL.obj
 0001:00025dfc       $LN624                     00426dfc     ssg_vs2008_32:ssgLoadMDL.obj
 0001:00025e98       $LN568                     00426e98     ssg_vs2008_32:ssgLoadMDL.obj
 0001:000267f0       ?HandleDirect@@YAHXZ       004277f0 f   ssg_vs2008_32:ssgLoadASC.obj
 0001:00026810       ?HandleTarget@@YAHXZ       00427810 f   ssg_vs2008_32:ssgLoadASC.obj
 0001:000268d0       ?HandleBank@@YAHXZ         004278d0 f   ssg_vs2008_32:ssgLoadASC.obj
 0001:00026920       ?HandleNear@@YAHXZ         00427920 f   ssg_vs2008_32:ssgLoadASC.obj
 0001:00026970       ?HandlePosition@@YAHXZ     00427970 f   ssg_vs2008_32:ssgLoadASC.obj
 0001:00026a30       ?HandleSpotlight@@YAHXZ    00427a30 f   ssg_vs2008_32:ssgLoadASC.obj
 0001:00026b00       ?HandleHotspot@@YAHXZ      00427b00 f   ssg_vs2008_32:ssgLoadASC.obj
 0001:00026b50       ?HandleFalloff@@YAHXZ      00427b50 f   ssg_vs2008_32:ssgLoadASC.obj
 0001:00026ba0       ?HandleGlobal@@YAHXZ       00427ba0 f   ssg_vs2008_32:ssgLoadASC.obj
 0001:00026bc0       ?HandleLight@@YAHXZ        00427bc0 f   ssg_vs2008_32:ssgLoadASC.obj
 0001:00026c90       ?HandleAmbient@@YAHXZ      00427c90 f   ssg_vs2008_32:ssgLoadASC.obj
 0001:00026d70       ?HandleSolid@@YAHXZ        00427d70 f   ssg_vs2008_32:ssgLoadASC.obj
 0001:00026e50       ?HandleNamed@@YAHXZ        00427e50 f   ssg_vs2008_32:ssgLoadASC.obj
 0001:00026ed0       ?HandleTriMesh@@YAHXZ      00427ed0 f   ssg_vs2008_32:ssgLoadASC.obj
 0001:00026fe0       ?HandleHidden@@YAHXZ       00427fe0 f   ssg_vs2008_32:ssgLoadASC.obj
 0001:00026ff0       ?HandleMapped@@YAHXZ       00427ff0 f   ssg_vs2008_32:ssgLoadASC.obj
 0001:00027030       ?HandleSmoothing@@YAHXZ    00428030 f   ssg_vs2008_32:ssgLoadASC.obj
 0001:00027320       ?HandleMaterial@@YAHXZ     00428320 f   ssg_vs2008_32:ssgLoadASC.obj
 0001:00027390       ?HandleVertex@@YAHXZ       00428390 f   ssg_vs2008_32:ssgLoadASC.obj
 0001:00027560       ?HandleFace@@YAHXZ         00428560 f   ssg_vs2008_32:ssgLoadASC.obj
 0001:000279a0       ?ParseEntity@@YAHPAD@Z     004289a0 f   ssg_vs2008_32:ssgLoadASC.obj
 0001:00027a70       ?parse@@YAHXZ              00428a70 f   ssg_vs2008_32:ssgLoadASC.obj
 0001:00027d50       ?save_vtx_table@@YAXPAVssgVtxTable@@@Z 00428d50 f   ssg_vs2008_32:ssgSaveASC.obj
 0001:000280b0       ?save_geom@@YAXPAVssgEntity@@@Z 004290b0 f   ssg_vs2008_32:ssgSaveASC.obj
 0001:00028420       ?iv_parseSeparator@@YA_NPAVssgBranch@@PAV_traversalState@@PAD@Z 00429420 f   ssg_vs2008_32:ssgLoadIV.obj
 0001:00028640       ?iv_parseSwitch@@YA_NPAVssgBranch@@PAV_traversalState@@PAD@Z 00429640 f   ssg_vs2008_32:ssgLoadIV.obj
 0001:00028860       ?iv_parseTexture2@@YA_NPAVssgBranch@@PAV_traversalState@@PAD@Z 00429860 f   ssg_vs2008_32:ssgLoadIV.obj
 0001:00028ca0       ?iv_parseIndexedFaceSet@@YA_NPAVssgBranch@@PAV_traversalState@@PAD@Z 00429ca0 f   ssg_vs2008_32:ssgLoadIV.obj
 0001:000290d0       ?indent@@YAXPAU_iobuf@@@Z  0042a0d0 f   ssg_vs2008_32:ssgSaveIV.obj
 0001:00029100       ?writeTransform@@YAXPAVssgTransform@@PAU_iobuf@@@Z 0042a100 f   ssg_vs2008_32:ssgSaveIV.obj
 0001:000291f0       ?writeLeaf@@YAXPAVssgLeaf@@PAU_iobuf@@@Z 0042a1f0 f   ssg_vs2008_32:ssgSaveIV.obj
 0001:000296c0       ?preHandle@@YAXPAVssgEntity@@PAU_iobuf@@@Z 0042a6c0 f   ssg_vs2008_32:ssgSaveIV.obj
 0001:00029740       ?postHandle@@YAXPAVssgEntity@@PAU_iobuf@@@Z 0042a740 f   ssg_vs2008_32:ssgSaveIV.obj
 0001:00029770       ?walkTree@@YAXPAVssgEntity@@PAU_iobuf@@@Z 0042a770 f   ssg_vs2008_32:ssgSaveIV.obj
 0001:0002a070       ?vrml1_parseTexture2@@YA_NPAVssgBranch@@PAV_traversalState@@PAD@Z 0042b070 f   ssg_vs2008_32:ssgLoadVRML1.obj
 0001:0002ab00       ?vrml1_parseSeparator@@YA_NPAVssgBranch@@PAV_traversalState@@PAD@Z 0042bb00 f   ssg_vs2008_32:ssgLoadVRML1.obj
 0001:0002ae40       ?vrml1_parseSwitch@@YA_NPAVssgBranch@@PAV_traversalState@@PAD@Z 0042be40 f   ssg_vs2008_32:ssgLoadVRML1.obj
 0001:0002b1a0       ?vrml1_parseIndexedFaceSet@@YA_NPAVssgBranch@@PAV_traversalState@@PAD@Z 0042c1a0 f   ssg_vs2008_32:ssgLoadVRML1.obj
 0001:0002bd20       ?SaveVRML1MaterialNode@@YAXPAU_iobuf@@PAVssgIndexArray@@PAVssgSimpleStateArray@@PAD_N444@Z 0042cd20 f   ssg_vs2008_32:ssgSaveVRML1.obj
 0001:0002cd20       ?Ascii2Int@@YAHAAHPBD1@Z   0042dd20 f   ssg_vs2008_32:ssgLoadATG.obj
 0001:0002cd70       ?parser_getLine@@YAPADXZ   0042dd70 f   ssg_vs2008_32:ssgLoadATG.obj
 0001:0002ce90       ?parse@@YAHXZ              0042de90 f   ssg_vs2008_32:ssgLoadATG.obj
 0001:0002e3d0       ?Ascii2UInt@@YAHAAIPBD1@Z  0042f3d0 f   ssg_vs2008_32:ssgLoadOFF.obj
 0001:0002e420       ?Ascii2Float@@YAHAAMPBD1@Z 0042f420 f   ssg_vs2008_32:ssgLoadOFF.obj
 0001:0002e470       ?parse@@YAHXZ              0042f470 f   ssg_vs2008_32:ssgLoadOFF.obj
 0001:0002f7ec       $LN229                     004307ec     ssg_vs2008_32:ssgLoadM.obj
 0001:0002f7fc       $LN221                     004307fc     ssg_vs2008_32:ssgLoadM.obj
 0001:00030380       ?_swab32@@YAXPBXPAXH@Z     00431380 f   ssg_vs2008_32:ssgLoadFLT.obj
 0001:000303d0       ?_swab64@@YAXPBXPAXH@Z     004313d0 f   ssg_vs2008_32:ssgLoadFLT.obj
 0001:00030480       ?splay@@YAPAUsnode@@PAU1@PBXP6AH11@Z@Z 00431480 f   ssg_vs2008_32:ssgLoadFLT.obj
 0001:00030570       ?sinsert@@YAPAUsnode@@PAU1@PAXIP6AHPBX2@Z@Z 00431570 f   ssg_vs2008_32:ssgLoadFLT.obj
 0001:00030620       ?deltree@@YAXPAVssgEntity@@@Z 00431620 f   ssg_vs2008_32:ssgLoadFLT.obj
 0001:00030680       ?sfree@@YAXPAUsnode@@H@Z   00431680 f   ssg_vs2008_32:ssgLoadFLT.obj
 0001:000306f0       ?ptrcmp@@YAHPBX0@Z         004316f0 f   ssg_vs2008_32:ssgLoadFLT.obj
 0001:00030700       ?hexdump@@YAXW4ulSeverity@@PBEHH@Z 00431700 f   ssg_vs2008_32:ssgLoadFLT.obj
 0001:000308a0       ?LoadTex@@YAPAUfltTexture@@PAD@Z 004318a0 f   ssg_vs2008_32:ssgLoadFLT.obj
 0001:00030950       ?StateCompare@@YAHPBX0@Z   00431950 f   ssg_vs2008_32:ssgLoadFLT.obj
 0001:00030b50       ?ConstructState@@YAPAVssgSimpleState@@PAUStateInfo@@@Z 00431b50 f   ssg_vs2008_32:ssgLoadFLT.obj
 0001:00030dc0       ?tricmp@@YAHPBX0@Z         00431dc0 f   ssg_vs2008_32:ssgLoadFLT.obj
 0001:00030df0       ?PreDrawSubface@@YAHPAVssgEntity@@@Z 00431df0 f   ssg_vs2008_32:ssgLoadFLT.obj
 0001:00030e20       ?PostDrawSubface@@YAHPAVssgEntity@@@Z 00431e20 f   ssg_vs2008_32:ssgLoadFLT.obj
 0001:00030e40       ?Build@@YAPAVssgEntity@@PAUfltState@@@Z 00431e40 f   ssg_vs2008_32:ssgLoadFLT.obj
 0001:00032280       ?AddTri@@YAXPAUfltState@@HHH@Z 00433280 f   ssg_vs2008_32:ssgLoadFLT.obj
 0001:00032300       ?Triangulate@@YAXPAHHPAUfltState@@@Z 00433300 f   ssg_vs2008_32:ssgLoadFLT.obj
 0001:000323a0       ?Obsolete@@YAXH@Z          004333a0 f   ssg_vs2008_32:ssgLoadFLT.obj
 0001:000323d0       ?NotImplemented@@YAXH@Z    004333d0 f   ssg_vs2008_32:ssgLoadFLT.obj
 0001:00032400       ?ReportBadChunk@@YAXPBEPBD@Z 00433400 f   ssg_vs2008_32:ssgLoadFLT.obj
 0001:00032470       ?intcmp@@YAHPBX0@Z         00433470 f   ssg_vs2008_32:ssgLoadFLT.obj
 0001:00032480       ?GeomChunks@@YAHPAE0PAUfltState@@PAPAVssgEntity@@HH@Z 00433480 f   ssg_vs2008_32:ssgLoadFLT.obj
 0001:00032c78       $LN129                     00433c78     ssg_vs2008_32:ssgLoadFLT.obj
 0001:00032ca0       $LN115                     00433ca0     ssg_vs2008_32:ssgLoadFLT.obj
 0001:00032d20       ?LODCompare@@YAHPBX0@Z     00433d20 f   ssg_vs2008_32:ssgLoadFLT.obj
 0001:00032d70       ?MergeLODs@@YAXPAVssgBranch@@@Z 00433d70 f   ssg_vs2008_32:ssgLoadFLT.obj
 0001:000332c0       ?AttrChunks@@YAHPAE0PAPAUfltNodeAttr@@@Z 004342c0 f   ssg_vs2008_32:ssgLoadFLT.obj
 0001:000334d4       $LN122                     004344d4     ssg_vs2008_32:ssgLoadFLT.obj
 0001:000334ec       $LN66                      004344ec     ssg_vs2008_32:ssgLoadFLT.obj
 0001:00033560       ?VertexTable@@YAHPAE0PAUfltState@@@Z 00434560 f   ssg_vs2008_32:ssgLoadFLT.obj
 0001:00033a60       ?TableChunks@@YAHPAE0PAUfltState@@@Z 00434a60 f   ssg_vs2008_32:ssgLoadFLT.obj
 0001:000340b4       $LN288                     004350b4     ssg_vs2008_32:ssgLoadFLT.obj
 0001:000340d4       $LN140                     004350d4     ssg_vs2008_32:ssgLoadFLT.obj
 0001:00034130       ?CheckHeader@@YAHPAE0PAUfltState@@@Z 00435130 f   ssg_vs2008_32:ssgLoadFLT.obj
 0001:00034240       ?FindFile@@YAPBDPBD@Z      00435240 f   ssg_vs2008_32:ssgLoadFLT.obj
 0001:00034290       ?win32_perror@@YAXPBD@Z    00435290 f   ssg_vs2008_32:ssgLoadFLT.obj
 0001:000342e0       ?Init@@YAXXZ               004352e0 f   ssg_vs2008_32:ssgLoadFLT.obj
 0001:00034360       ?PostClean@@YAPAVssgEntity@@PAV1@PAUfltNodeAttr@@@Z 00435360 f   ssg_vs2008_32:ssgLoadFLT.obj
 0001:00034a80       ?PostLink@@YAXPAPAVssgEntity@@PAPAUfltNodeAttr@@HPAUfltState@@@Z 00435a80 f   ssg_vs2008_32:ssgLoadFLT.obj
 0001:00034c20       ?HierChunks@@YAPAVssgEntity@@PAE0PAUfltState@@@Z 00435c20 f   ssg_vs2008_32:ssgLoadFLT.obj
 0001:000353cc       $LN141                     004363cc     ssg_vs2008_32:ssgLoadFLT.obj
 0001:000353f8       $LN131                     004363f8     ssg_vs2008_32:ssgLoadFLT.obj
 0001:00035474       $LN142                     00436474     ssg_vs2008_32:ssgLoadFLT.obj
 0001:00035488       $LN132                     00436488     ssg_vs2008_32:ssgLoadFLT.obj
 0001:000354f0       ?LoadFLT@@YAPAVssgEntity@@PBD@Z 004364f0 f   ssg_vs2008_32:ssgLoadFLT.obj
 0001:000357e0       ?addToTexturePool@@YAHPAD@Z 004367e0 f   ssg_vs2008_32:ssgSaveFLT.obj
 0001:000358a0       ?addToVertexPool@@YAHPAUFLT_vertex@@@Z 004368a0 f   ssg_vs2008_32:ssgSaveFLT.obj
 0001:00035930       ?writeChar@@YAHD@Z         00436930 f   ssg_vs2008_32:ssgSaveFLT.obj
 0001:00035950       ?writeShort@@YAHF@Z        00436950 f   ssg_vs2008_32:ssgSaveFLT.obj
 0001:00035970       ?writeInt@@YAHH@Z          00436970 f   ssg_vs2008_32:ssgSaveFLT.obj
 0001:000359a0       ?swabInt@@YAXPAH@Z         004369a0 f   ssg_vs2008_32:ssgSaveFLT.obj
 0001:000359d0       ?swabFloat@@YAXPAM@Z       004369d0 f   ssg_vs2008_32:ssgSaveFLT.obj
 0001:000359e0       ?swabDouble@@YAXPAN@Z      004369e0 f   ssg_vs2008_32:ssgSaveFLT.obj
 0001:00035a00       ?writeFloat@@YAHM@Z        00436a00 f   ssg_vs2008_32:ssgSaveFLT.obj
 0001:00035a30       ?writeDouble@@YAHN@Z       00436a30 f   ssg_vs2008_32:ssgSaveFLT.obj
 0001:00035a60       ?writeString@@YAHPADH@Z    00436a60 f   ssg_vs2008_32:ssgSaveFLT.obj
 0001:00035a80       ?writeHeader@@YAXXZ        00436a80 f   ssg_vs2008_32:ssgSaveFLT.obj
 0001:00035c60       ?writePush@@YAXXZ          00436c60 f   ssg_vs2008_32:ssgSaveFLT.obj
