 olethros

 Timestamp is 5183046f (Fri May 03 02:27:27 2013)

 Preferred load address is 10000000

 Start         Length     Name                   Class
 0001:00000000 000788f4H .text                   CODE
 0001:00078900 00000fb3H .text$x                 CODE
 0001:000798c0 000003edH .text$yc                CODE
 0001:00079cb0 0000006fH .text$yd                CODE
 0002:00000000 000001a4H .idata$5                DATA
 0002:000001a4 00000004H .CRT$XCA                DATA
 0002:000001a8 00000004H .CRT$XCC                DATA
 0002:000001ac 00000078H .CRT$XCU                DATA
 0002:00000224 00000004H .CRT$XCZ                DATA
 0002:00000228 00000004H .CRT$XIA                DATA
 0002:0000022c 00000018H .CRT$XIC                DATA
 0002:00000244 00000004H .CRT$XIZ                DATA
 0002:00000248 00000004H .CRT$XPA                DATA
 0002:0000024c 00000008H .CRT$XPX                DATA
 0002:00000254 00000004H .CRT$XPXA               DATA
 0002:00000258 00000004H .CRT$XPZ                DATA
 0002:0000025c 00000004H .CRT$XTA                DATA
 0002:00000260 00000004H .CRT$XTZ                DATA
 0002:00000270 0001e418H .rdata                  DATA
 0002:0001e688 00000088H .rdata$debug            DATA
 0002:0001e710 00000860H .rdata$r                DATA
 0002:0001ef70 0000014cH .rdata$sxdata           DATA
 0002:0001f0bc 00000004H .rtc$IAA                DATA
 0002:0001f0c0 00000030H .rtc$IMZ                DATA
 0002:0001f0f0 00000004H .rtc$IZZ                DATA
 0002:0001f0f4 00000004H .rtc$TAA                DATA
 0002:0001f0f8 00000030H .rtc$TMZ                DATA
 0002:0001f128 00000004H .rtc$TZZ                DATA
 0002:0001f130 00001f6cH .xdata$x                DATA
 0002:0002109c 00000050H .idata$2                DATA
 0002:000210ec 00000014H .idata$3                DATA
 0002:00021100 000001a4H .idata$4                DATA
 0002:000212a4 00000774H .idata$6                DATA
 0002:00021a20 00000048H .edata                  DATA
 0003:00000000 00001810H .data                   DATA
 0003:00001820 00002480H .bss                    DATA

  Address         Publics by Value              Rva+Base       Lib:Object

 0000:00000000       __except_list              00000000     <absolute>
 0000:00000053       ___safe_se_handler_count   00000053     <absolute>
 0000:00000000       ___ImageBase               10000000     <linker-defined>
 0001:00000000       ?update@SingleCardata@@QAEXXZ 10001000 f   cardata.obj
 0001:00000190       ?getSpeed@SingleCardata@@KAMPAUCarElt@@M@Z 10001190 f   cardata.obj
 0001:00000270       ??0Cardata@@QAE@PAUSituation@@@Z 10001270 f   cardata.obj
 0001:00000390       ??1Cardata@@QAE@XZ         10001390 f   cardata.obj
 0001:000003d0       ?update@Cardata@@QAEXXZ    100013d0 f   cardata.obj
 0001:00000430       ?findCar@Cardata@@QAEPAVSingleCardata@@PAUCarElt@@@Z 10001430 f   cardata.obj
 0001:000004a0       ??0SingleCardata@@QAE@XZ   100014a0 f i cardata.obj
 0001:00000500       ??0v2d@@QAE@XZ             10001500 f i cardata.obj
 0001:00000520       ??Dv2d@@QBEMABV0@@Z        10001520 f i cardata.obj
 0001:00000570       ??_H@YGXPAXIHP6EPAX0@Z@Z   10001570 f i cardata.obj
 0001:000005b0       ?cos@@YAMM@Z               100015b0 f i cardata.obj
 0001:000005d0       ?init@SingleCardata@@QAEXPAUCarElt@@@Z 100015d0 f i cardata.obj
 0001:000005f0       ?sgdMakeCoordMat4@@YAXQAY03NPBUsgdCoord@@@Z 100015f0 f i cardata.obj
 0001:00000620       ?sgdMakeCoordMat4@@YAXQAY03NQBN1@Z 10001620 f i cardata.obj
 0001:000006d0       ?sin@@YAMM@Z               100016d0 f i cardata.obj
 0001:000006f0       ?thisCar@SingleCardata@@QAE_NPAUCarElt@@@Z 100016f0 f i cardata.obj
 0001:00000730       _cosf                      10001730 f i cardata.obj
 0001:00000790       _sinf                      10001790 f i cardata.obj
 0001:000007f0       ??0Driver@@QAE@H@Z         100017f0 f   driver.obj
 0001:000008b0       ??1Driver@@QAE@XZ          100018b0 f   driver.obj
 0001:00000bc0       ?initTrack@Driver@@QAEXPAUtTrack@@PAXPAPAXPAUSituation@@@Z 10001bc0 f   driver.obj
 0001:00000eb0       ?newRace@Driver@@QAEXPAUCarElt@@PAUSituation@@@Z 10001eb0 f   driver.obj
 0001:000014b0       ?drive@Driver@@QAEXPAUSituation@@@Z 100024b0 f   driver.obj
 0001:00001c10       ?pitCommand@Driver@@QAEHPAUSituation@@@Z 10002c10 f   driver.obj
 0001:00001cb0       ?endRace@Driver@@QAEXPAUSituation@@@Z 10002cb0 f   driver.obj
 0001:00001cd0       ?isStuck@Driver@@IAE_NXZ   10002cd0 f   driver.obj
 0001:00001de0       ?update@Driver@@IAEXPAUSituation@@@Z 10002de0 f   driver.obj
 0001:00002180       ?prepareTrack@Driver@@IAEXXZ 10003180 f   driver.obj
 0001:00002d80       ?getAllowedSpeed@Driver@@IAEMPAUtrackSeg@@@Z 10003d80 f   driver.obj
 0001:000033d0       ?getAccel@Driver@@IAEMXZ   100043d0 f   driver.obj
 0001:00003770       ?getDistToSegEnd@Driver@@IAEMXZ 10004770 f   driver.obj
 0001:00003810       ?getBrake@Driver@@IAEMXZ   10004810 f   driver.obj
 0001:000039f0       ?getGear@Driver@@IAEHXZ    100049f0 f   driver.obj
 0001:00003cb0       ?EstimateTorque@Driver@@IAEMM@Z 10004cb0 f   driver.obj
 0001:00003ee0       ?getSteer@Driver@@IAEMXZ   10004ee0 f   driver.obj
 0001:00004190       ?getClutch@Driver@@IAEMXZ  10005190 f   driver.obj
 0001:00004490       ?getTargetPoint@Driver@@IAE?AVv2d@@XZ 10005490 f   driver.obj
 0001:000050b0       ?getOffset@Driver@@IAEMXZ  100060b0 f   driver.obj
 0001:000058b0       ?brakedist@Driver@@IAEMMM@Z 100068b0 f   driver.obj
 0001:00005a10       ?filterOverlap@Driver@@IAEMM@Z 10006a10 f   driver.obj
 0001:00005ac0       ?filterBColl@Driver@@IAEMM@Z 10006ac0 f   driver.obj
 0001:00005d00       ?filterABS@Driver@@IAEMM@Z 10006d00 f   driver.obj
 0001:00005e30       ?filterBPit@Driver@@IAEMM@Z 10006e30 f   driver.obj
 0001:00006240       ?filterBrakeSpeed@Driver@@IAEMM@Z 10007240 f   driver.obj
 0001:000062f0       ?filterTCL@Driver@@IAEMM@Z 100072f0 f   driver.obj
 0001:00006430       ?filterTrk@Driver@@IAEMPAUSituation@@M@Z 10007430 f   driver.obj
 0001:000071d0       ?filterAPit@Driver@@IAEMM@Z 100081d0 f   driver.obj
 0001:000073f0       ?filterSColl@Driver@@IAEMM@Z 100083f0 f   driver.obj
 0001:00007ab0       ?filterTCL_RWD@Driver@@IAEMXZ 10008ab0 f   driver.obj
 0001:00007b30       ?filterTCL_FWD@Driver@@IAEMXZ 10008b30 f   driver.obj
 0001:00007bb0       ?filterTCL_4WD@Driver@@IAEMXZ 10008bb0 f   driver.obj
 0001:00007c80       ?initTCLfilter@Driver@@IAEXXZ 10008c80 f   driver.obj
 0001:00007d50       ?initCa@Driver@@IAEXXZ     10008d50 f   driver.obj
 0001:00007ff0       ?initCw@Driver@@IAEXXZ     10008ff0 f   driver.obj
 0001:000080b0       ?initTireMu@Driver@@IAEXXZ 100090b0 f   driver.obj
 0001:000081f0       ?computeRadius@Driver@@IAEXPAM@Z 100091f0 f   driver.obj
 0001:00008540       ?isAlone@Driver@@IAEHXZ    10009540 f   driver.obj
 0001:000085f0       ?EstimateRadius2@Driver@@IAEMPAUtrackSeg@@@Z 100095f0 f   driver.obj
 0001:000087f0       ?EstimateRadius@Driver@@IAEMPAUtrackSeg@@00@Z 100097f0 f   driver.obj
 0001:00008a50       ?FindCurveTarget@Driver@@IAEMPAUtrackSeg@@PAVVector@@M@Z 10009a50 f   driver.obj
 0001:00008dd0       ?FindStraightTarget@Driver@@IAEMPAUtrackSeg@@0PAVVector@@MAA_N@Z 10009dd0 f   driver.obj
 0001:000090e0       ?AdjustRadi@Driver@@IAEXPAUtrackSeg@@0PAM@Z 1000a0e0 f   driver.obj
 0001:00009380       ?ShowPaths@Driver@@IAEXXZ  1000a380 f   driver.obj
 0001:00009590       ??$_Allocate@M@std@@YAPAMIPAM@Z 1000a590 f i driver.obj
 0001:000095f0       ??$_Allocate@U_Container_proxy@std@@@std@@YAPAU_Container_proxy@0@IPAU10@@Z 1000a5f0 f i driver.obj
 0001:00009650       ??$_Allocate@VSegment@@@std@@YAPAVSegment@@IPAV1@@Z 1000a650 f i driver.obj
 0001:000096b0       ??$_Allocate@VVector@@@std@@YAPAVVector@@IPAV1@@Z 1000a6b0 f i driver.obj
 0001:00009710       ??$_Debug_pointer@M@std@@YAXPAMPB_WI@Z 1000a710 f i driver.obj
 0001:00009740       ??$_Debug_pointer@V?$_Vector_const_iterator@V?$_Vector_val@U?$_Simple_types@VSegment@@@std@@@std@@@std@@@std@@YAXAAV?$_Vector_const_iterator@V?$_Vector_val@U?$_Simple_types@VSegment@@@std@@@std@@@0@PB_WI@Z 1000a740 f i driver.obj
 0001:00009750       ??$_Debug_pointer@V?$_Vector_const_iterator@V?$_Vector_val@U?$_Simple_types@VVector@@@std@@@std@@@std@@@std@@YAXAAV?$_Vector_const_iterator@V?$_Vector_val@U?$_Simple_types@VVector@@@std@@@std@@@0@PB_WI@Z 1000a750 f i driver.obj
 0001:00009760       ??$_Debug_pointer@VSegment@@@std@@YAXPAVSegment@@PB_WI@Z 1000a760 f i driver.obj
 0001:00009790       ??$_Debug_pointer@VVector@@@std@@YAXPAVVector@@PB_WI@Z 1000a790 f i driver.obj
 0001:000097c0       ??$_Debug_range2@PAM@std@@YAXPAM0PB_WIUrandom_access_iterator_tag@0@@Z 1000a7c0 f i driver.obj
 0001:00009820       ??$_Debug_range2@PAVSegment@@@std@@YAXPAVSegment@@0PB_WIUrandom_access_iterator_tag@0@@Z 1000a820 f i driver.obj
 0001:00009880       ??$_Debug_range2@PAVVector@@@std@@YAXPAVVector@@0PB_WIUrandom_access_iterator_tag@0@@Z 1000a880 f i driver.obj
 0001:000098e0       ??$_Debug_range2@V?$_Vector_const_iterator@V?$_Vector_val@U?$_Simple_types@VSegment@@@std@@@std@@@std@@@std@@YAXV?$_Vector_const_iterator@V?$_Vector_val@U?$_Simple_types@VSegment@@@std@@@std@@@0@0PB_WIUrandom_access_iterator_tag@0@@Z 1000a8e0 f i driver.obj
 0001:000099a0       ??$_Debug_range2@V?$_Vector_const_iterator@V?$_Vector_val@U?$_Simple_types@VVector@@@std@@@std@@@std@@@std@@YAXV?$_Vector_const_iterator@V?$_Vector_val@U?$_Simple_types@VVector@@@std@@@std@@@0@0PB_WIUrandom_access_iterator_tag@0@@Z 1000a9a0 f i driver.obj
 0001:00009a60       ??$_Debug_range@PAM@std@@YAXPAM0PB_WI@Z 1000aa60 f i driver.obj
 0001:00009ab0       ??$_Debug_range@PAVSegment@@@std@@YAXPAVSegment@@0PB_WI@Z 1000aab0 f i driver.obj
 0001:00009b00       ??$_Debug_range@PAVVector@@@std@@YAXPAVVector@@0PB_WI@Z 1000ab00 f i driver.obj
 0001:00009b50       ??$_Debug_range@V?$_Vector_const_iterator@V?$_Vector_val@U?$_Simple_types@VSegment@@@std@@@std@@@std@@@std@@YAXV?$_Vector_const_iterator@V?$_Vector_val@U?$_Simple_types@VSegment@@@std@@@std@@@0@0PB_WI@Z 1000ab50 f i driver.obj
 0001:00009c30       ??$_Debug_range@V?$_Vector_const_iterator@V?$_Vector_val@U?$_Simple_types@VVector@@@std@@@std@@@std@@@std@@YAXV?$_Vector_const_iterator@V?$_Vector_val@U?$_Simple_types@VVector@@@std@@@std@@@0@0PB_WI@Z 1000ac30 f i driver.obj
 0001:00009d10       ??$_Destroy_range@U?$_Wrap_alloc@V?$allocator@H@std@@@std@@@std@@YAXPAH0AAU?$_Wrap_alloc@V?$allocator@H@std@@@0@@Z 1000ad10 f i driver.obj
 0001:00009d60       ??$_Destroy_range@U?$_Wrap_alloc@V?$allocator@H@std@@@std@@@std@@YAXPAH0AAU?$_Wrap_alloc@V?$allocator@H@std@@@0@U_Scalar_ptr_iterator_tag@0@@Z 1000ad60 f i driver.obj
 0001:00009d70       ??$_Destroy_range@U?$_Wrap_alloc@V?$allocator@M@std@@@std@@@std@@YAXPAM0AAU?$_Wrap_alloc@V?$allocator@M@std@@@0@@Z 1000ad70 f i driver.obj
 0001:00009dc0       ??$_Destroy_range@U?$_Wrap_alloc@V?$allocator@M@std@@@std@@@std@@YAXPAM0AAU?$_Wrap_alloc@V?$allocator@M@std@@@0@U_Scalar_ptr_iterator_tag@0@@Z 1000adc0 f i driver.obj
 0001:00009dd0       ??$_Destroy_range@U?$_Wrap_alloc@V?$allocator@VSegment@@@std@@@std@@@std@@YAXPAVSegment@@0AAU?$_Wrap_alloc@V?$allocator@VSegment@@@std@@@0@@Z 1000add0 f i driver.obj
 0001:00009e20       ??$_Destroy_range@U?$_Wrap_alloc@V?$allocator@VSegment@@@std@@@std@@@std@@YAXPAVSegment@@0AAU?$_Wrap_alloc@V?$allocator@VSegment@@@std@@@0@U_Nonscalar_ptr_iterator_tag@0@@Z 1000ae20 f i driver.obj
 0001:00009e50       ??$_Destroy_range@U?$_Wrap_alloc@V?$allocator@VVector@@@std@@@std@@@std@@YAXPAVVector@@0AAU?$_Wrap_alloc@V?$allocator@VVector@@@std@@@0@@Z 1000ae50 f i driver.obj
 0001:00009ea0       ??$_Destroy_range@U?$_Wrap_alloc@V?$allocator@VVector@@@std@@@std@@@std@@YAXPAVVector@@0AAU?$_Wrap_alloc@V?$allocator@VVector@@@std@@@0@U_Nonscalar_ptr_iterator_tag@0@@Z 1000aea0 f i driver.obj
 0001:00009ed0       ??$_Fill_n@PAMIM@std@@YAPAMPAMIABM@Z 1000aed0 f i driver.obj
 0001:00009f00       ??$_Iter_cat@PAM@std@@YA?AUrandom_access_iterator_tag@0@ABQAM@Z 1000af00 f i driver.obj
 0001:00009f60       ??$_Iter_cat@PAVSegment@@@std@@YA?AUrandom_access_iterator_tag@0@ABQAVSegment@@@Z 1000af60 f i driver.obj
 0001:00009fc0       ??$_Iter_cat@PAVVector@@@std@@YA?AUrandom_access_iterator_tag@0@ABQAVVector@@@Z 1000afc0 f i driver.obj
 0001:0000a020       ??$_Iter_cat@V?$_Vector_const_iterator@V?$_Vector_val@U?$_Simple_types@VSegment@@@std@@@std@@@std@@@std@@YA?AUrandom_access_iterator_tag@0@ABV?$_Vector_const_iterator@V?$_Vector_val@U?$_Simple_types@VSegment@@@std@@@std@@@0@@Z 1000b020 f i driver.obj
 0001:0000a080       ??$_Iter_cat@V?$_Vector_const_iterator@V?$_Vector_val@U?$_Simple_types@VVector@@@std@@@std@@@std@@@std@@YA?AUrandom_access_iterator_tag@0@ABV?$_Vector_const_iterator@V?$_Vector_val@U?$_Simple_types@VVector@@@std@@@std@@@0@@Z 1000b080 f i driver.obj
 0001:0000a0e0       ??$_Move@PAMPAM@std@@YAPAMPAM00@Z 1000b0e0 f i driver.obj
 0001:0000a130       ??$_Move@PAMPAM@std@@YAPAMPAM00U_Scalar_ptr_iterator_tag@0@@Z 1000b130 f i driver.obj
 0001:0000a180       ??$_Ptr_cat@HH@std@@YA?AU_Scalar_ptr_iterator_tag@0@PAH0@Z 1000b180 f i driver.obj
 0001:0000a1d0       ??$_Ptr_cat@MM@std@@YA?AU_Scalar_ptr_iterator_tag@0@PAM0@Z 1000b1d0 f i driver.obj
 0001:0000a220       ??$_Ptr_cat@V?$_Vector_const_iterator@V?$_Vector_val@U?$_Simple_types@VSegment@@@std@@@std@@@std@@PAVSegment@@@std@@YA?AU_Nonscalar_ptr_iterator_tag@0@AAV?$_Vector_const_iterator@V?$_Vector_val@U?$_Simple_types@VSegment@@@std@@@std@@@0@AAPAVSegment@@@Z 1000b220 f i driver.obj
 0001:0000a270       ??$_Ptr_cat@V?$_Vector_const_iterator@V?$_Vector_val@U?$_Simple_types@VVector@@@std@@@std@@@std@@PAVVector@@@std@@YA?AU_Nonscalar_ptr_iterator_tag@0@AAV?$_Vector_const_iterator@V?$_Vector_val@U?$_Simple_types@VVector@@@std@@@std@@@0@AAPAVVector@@@Z 1000b270 f i driver.obj
 0001:0000a2c0       ??$_Ptr_cat@VSegment@@V1@@std@@YA?AU_Nonscalar_ptr_iterator_tag@0@PAVSegment@@0@Z 1000b2c0 f i driver.obj
 0001:0000a310       ??$_Ptr_cat@VVector@@V1@@std@@YA?AU_Nonscalar_ptr_iterator_tag@0@PAVVector@@0@Z 1000b310 f i driver.obj
 0001:0000a360       ??$_Ucopy@V?$_Vector_const_iterator@V?$_Vector_val@U?$_Simple_types@VSegment@@@std@@@std@@@std@@@?$vector@VSegment@@V?$allocator@VSegment@@@std@@@std@@IAEPAVSegment@@V?$_Vector_const_iterator@V?$_Vector_val@U?$_Simple_types@VSegment@@@std@@@std@@@1@0PAV2@@Z 1000b360 f i driver.obj
 0001:0000a470       ??$_Ucopy@V?$_Vector_const_iterator@V?$_Vector_val@U?$_Simple_types@VVector@@@std@@@std@@@std@@@?$vector@VVector@@V?$allocator@VVector@@@std@@@std@@IAEPAVVector@@V?$_Vector_const_iterator@V?$_Vector_val@U?$_Simple_types@VVector@@@std@@@std@@@1@0PAV2@@Z 1000b470 f i driver.obj
 0001:0000a580       ??$_Umove@PAM@?$vector@MV?$allocator@M@std@@@std@@IAEPAMPAM00@Z 1000b580 f i driver.obj
 0001:0000a600       ??$_Umove@PAVSegment@@@?$vector@VSegment@@V?$allocator@VSegment@@@std@@@std@@IAEPAVSegment@@PAV2@00@Z 1000b600 f i driver.obj
 0001:0000a680       ??$_Umove@PAVVector@@@?$vector@VVector@@V?$allocator@VVector@@@std@@@std@@IAEPAVVector@@PAV2@00@Z 1000b680 f i driver.obj
 0001:0000a700       ??$_Uninit_copy@V?$_Vector_const_iterator@V?$_Vector_val@U?$_Simple_types@VSegment@@@std@@@std@@@std@@PAVSegment@@V?$allocator@VSegment@@@2@@std@@YAPAVSegment@@V?$_Vector_const_iterator@V?$_Vector_val@U?$_Simple_types@VSegment@@@std@@@std@@@0@0PAV1@AAU?$_Wrap_alloc@V?$allocator@VSegment@@@std@@@0@U_Nonscalar_ptr_iterator_tag@0@@Z 1000b700 f i driver.obj
 0001:0000a890       ??$_Uninit_copy@V?$_Vector_const_iterator@V?$_Vector_val@U?$_Simple_types@VVector@@@std@@@std@@@std@@PAVVector@@V?$allocator@VVector@@@2@@std@@YAPAVVector@@V?$_Vector_const_iterator@V?$_Vector_val@U?$_Simple_types@VVector@@@std@@@std@@@0@0PAV1@AAU?$_Wrap_alloc@V?$allocator@VVector@@@std@@@0@U_Nonscalar_ptr_iterator_tag@0@@Z 1000b890 f i driver.obj
 0001:0000aa20       ??$_Uninit_def_fill_n@MIM@std@@YAXPAMIAAU?$_Wrap_alloc@V?$allocator@M@std@@@0@0U_Scalar_ptr_iterator_tag@0@@Z 1000ba20 f i driver.obj
 0001:0000aa60       ??$_Uninit_move@MMM@std@@YAPAMPAM00AAU?$_Wrap_alloc@V?$allocator@M@std@@@0@0U_Scalar_ptr_iterator_tag@0@@Z 1000ba60 f i driver.obj
 0001:0000aae0       ??$_Uninit_move@PAVSegment@@PAV1@V?$allocator@VSegment@@@std@@V1@@std@@YAPAVSegment@@PAV1@00AAU?$_Wrap_alloc@V?$allocator@VSegment@@@std@@@0@0U_Nonscalar_ptr_iterator_tag@0@@Z 1000bae0 f i driver.obj
 0001:0000abe0       ??$_Uninit_move@PAVVector@@PAV1@V?$allocator@VVector@@@std@@V1@@std@@YAPAVVector@@PAV1@00AAU?$_Wrap_alloc@V?$allocator@VVector@@@std@@@0@0U_Nonscalar_ptr_iterator_tag@0@@Z 1000bbe0 f i driver.obj
 0001:0000ace0       ??$_Uninitialized_copy@V?$_Vector_const_iterator@V?$_Vector_val@U?$_Simple_types@VSegment@@@std@@@std@@@std@@PAVSegment@@U?$_Wrap_alloc@V?$allocator@VSegment@@@std@@@2@@std@@YAPAVSegment@@V?$_Vector_const_iterator@V?$_Vector_val@U?$_Simple_types@VSegment@@@std@@@std@@@0@0PAV1@AAU?$_Wrap_alloc@V?$allocator@VSegment@@@std@@@0@@Z 1000bce0 f i driver.obj
 0001:0000add0       ??$_Uninitialized_copy@V?$_Vector_const_iterator@V?$_Vector_val@U?$_Simple_types@VVector@@@std@@@std@@@std@@PAVVector@@U?$_Wrap_alloc@V?$allocator@VVector@@@std@@@2@@std@@YAPAVVector@@V?$_Vector_const_iterator@V?$_Vector_val@U?$_Simple_types@VVector@@@std@@@std@@@0@0PAV1@AAU?$_Wrap_alloc@V?$allocator@VVector@@@std@@@0@@Z 1000bdd0 f i driver.obj
 0001:0000aec0       ??$_Uninitialized_default_fill_n@PAMIU?$_Wrap_alloc@V?$allocator@M@std@@@std@@@std@@YAXPAMIAAU?$_Wrap_alloc@V?$allocator@M@std@@@0@@Z 1000bec0 f i driver.obj
 0001:0000af20       ??$_Uninitialized_move@PAMPAMU?$_Wrap_alloc@V?$allocator@M@std@@@std@@@std@@YAPAMPAM00AAU?$_Wrap_alloc@V?$allocator@M@std@@@0@@Z 1000bf20 f i driver.obj
 0001:0000af80       ??$_Uninitialized_move@PAVSegment@@PAV1@U?$_Wrap_alloc@V?$allocator@VSegment@@@std@@@std@@@std@@YAPAVSegment@@PAV1@00AAU?$_Wrap_alloc@V?$allocator@VSegment@@@std@@@0@@Z 1000bf80 f i driver.obj
 0001:0000afe0       ??$_Uninitialized_move@PAVVector@@PAV1@U?$_Wrap_alloc@V?$allocator@VVector@@@std@@@std@@@std@@YAPAVVector@@PAV1@00AAU?$_Wrap_alloc@V?$allocator@VVector@@@std@@@0@@Z 1000bfe0 f i driver.obj
 0001:0000b040       ??$_Val_type@PAM@std@@YAPAMPAM@Z 1000c040 f i driver.obj
 0001:0000b050       ??$_Val_type@PAVSegment@@@std@@YAPAVSegment@@PAV1@@Z 1000c050 f i driver.obj
 0001:0000b060       ??$_Val_type@PAVVector@@@std@@YAPAVVector@@PAV1@@Z 1000c060 f i driver.obj
 0001:0000b070       ??$addressof@$$CBVSegment@@@std@@YAPBVSegment@@ABV1@@Z 1000c070 f i driver.obj
 0001:0000b080       ??$addressof@$$CBVVector@@@std@@YAPBVVector@@ABV1@@Z 1000c080 f i driver.obj
 0001:0000b090       ??$construct@U_Container_proxy@std@@U12@@?$allocator@U_Container_proxy@std@@@std@@QAEXPAU_Container_proxy@1@$$QAU21@@Z 1000c090 f i driver.obj
 0001:0000b140       ??$construct@VSegment@@AAV1@@?$_Wrap_alloc@V?$allocator@VSegment@@@std@@@std@@QAEXPAVSegment@@AAV2@@Z 1000c140 f i driver.obj
 0001:0000b180       ??$construct@VSegment@@AAV1@@?$allocator@VSegment@@@std@@QAEXPAVSegment@@AAV2@@Z 1000c180 f i driver.obj
 0001:0000b230       ??$construct@VSegment@@AAV1@@?$allocator_traits@V?$allocator@VSegment@@@std@@@std@@SAXAAV?$allocator@VSegment@@@1@PAVSegment@@AAV3@@Z 1000c230 f i driver.obj
 0001:0000b260       ??$construct@VSegment@@ABV1@@?$_Wrap_alloc@V?$allocator@VSegment@@@std@@@std@@QAEXPAVSegment@@ABV2@@Z 1000c260 f i driver.obj
 0001:0000b2a0       ??$construct@VSegment@@ABV1@@?$allocator_traits@V?$allocator@VSegment@@@std@@@std@@SAXAAV?$allocator@VSegment@@@1@PAVSegment@@ABV3@@Z 1000c2a0 f i driver.obj
 0001:0000b2d0       ??$construct@VSegment@@V1@@?$_Wrap_alloc@V?$allocator@VSegment@@@std@@@std@@QAEXPAVSegment@@$$QAV2@@Z 1000c2d0 f i driver.obj
 0001:0000b310       ??$construct@VSegment@@V1@@?$allocator@VSegment@@@std@@QAEXPAVSegment@@$$QAV2@@Z 1000c310 f i driver.obj
 0001:0000b3c0       ??$construct@VSegment@@V1@@?$allocator_traits@V?$allocator@VSegment@@@std@@@std@@SAXAAV?$allocator@VSegment@@@1@PAVSegment@@$$QAV3@@Z 1000c3c0 f i driver.obj
 0001:0000b3f0       ??$construct@VVector@@AAV1@@?$_Wrap_alloc@V?$allocator@VVector@@@std@@@std@@QAEXPAVVector@@AAV2@@Z 1000c3f0 f i driver.obj
 0001:0000b430       ??$construct@VVector@@AAV1@@?$allocator@VVector@@@std@@QAEXPAVVector@@AAV2@@Z 1000c430 f i driver.obj
 0001:0000b4d0       ??$construct@VVector@@AAV1@@?$allocator_traits@V?$allocator@VVector@@@std@@@std@@SAXAAV?$allocator@VVector@@@1@PAVVector@@AAV3@@Z 1000c4d0 f i driver.obj
 0001:0000b500       ??$construct@VVector@@ABV1@@?$_Wrap_alloc@V?$allocator@VVector@@@std@@@std@@QAEXPAVVector@@ABV2@@Z 1000c500 f i driver.obj
 0001:0000b540       ??$construct@VVector@@ABV1@@?$allocator_traits@V?$allocator@VVector@@@std@@@std@@SAXAAV?$allocator@VVector@@@1@PAVVector@@ABV3@@Z 1000c540 f i driver.obj
 0001:0000b570       ??$construct@VVector@@V1@@?$_Wrap_alloc@V?$allocator@VVector@@@std@@@std@@QAEXPAVVector@@$$QAV2@@Z 1000c570 f i driver.obj
 0001:0000b5b0       ??$construct@VVector@@V1@@?$allocator@VVector@@@std@@QAEXPAVVector@@$$QAV2@@Z 1000c5b0 f i driver.obj
 0001:0000b650       ??$construct@VVector@@V1@@?$allocator_traits@V?$allocator@VVector@@@std@@@std@@SAXAAV?$allocator@VVector@@@1@PAVVector@@$$QAV3@@Z 1000c650 f i driver.obj
 0001:0000b680       ??$destroy@U_Container_proxy@std@@@?$allocator@U_Container_proxy@std@@@std@@QAEXPAU_Container_proxy@1@@Z 1000c680 f i driver.obj
 0001:0000b6a0       ??$destroy@VSegment@@@?$_Wrap_alloc@V?$allocator@VSegment@@@std@@@std@@QAEXPAVSegment@@@Z 1000c6a0 f i driver.obj
 0001:0000b6d0       ??$destroy@VSegment@@@?$allocator@VSegment@@@std@@QAEXPAVSegment@@@Z 1000c6d0 f i driver.obj
 0001:0000b6f0       ??$destroy@VSegment@@@?$allocator_traits@V?$allocator@VSegment@@@std@@@std@@SAXAAV?$allocator@VSegment@@@1@PAVSegment@@@Z 1000c6f0 f i driver.obj
 0001:0000b710       ??$destroy@VVector@@@?$_Wrap_alloc@V?$allocator@VVector@@@std@@@std@@QAEXPAVVector@@@Z 1000c710 f i driver.obj
 0001:0000b740       ??$destroy@VVector@@@?$allocator@VVector@@@std@@QAEXPAVVector@@@Z 1000c740 f i driver.obj
 0001:0000b770       ??$destroy@VVector@@@?$allocator_traits@V?$allocator@VVector@@@std@@@std@@SAXAAV?$allocator@VVector@@@1@PAVVector@@@Z 1000c770 f i driver.obj
 0001:0000b790       ??$forward@AAVSegment@@@std@@YAAAVSegment@@AAV1@@Z 1000c790 f i driver.obj
 0001:0000b7a0       ??$forward@AAVVector@@@std@@YAAAVVector@@AAV1@@Z 1000c7a0 f i driver.obj
 0001:0000b7b0       ??$forward@ABVSegment@@@std@@YAABVSegment@@ABV1@@Z 1000c7b0 f i driver.obj
 0001:0000b7c0       ??$forward@ABVVector@@@std@@YAABVVector@@ABV1@@Z 1000c7c0 f i driver.obj
 0001:0000b7d0       ??$forward@U_Container_proxy@std@@@std@@YA$$QAU_Container_proxy@0@AAU10@@Z 1000c7d0 f i driver.obj
 0001:0000b7e0       ??$forward@VSegment@@@std@@YA$$QAVSegment@@AAV1@@Z 1000c7e0 f i driver.obj
 0001:0000b7f0       ??$forward@VVector@@@std@@YA$$QAVVector@@AAV1@@Z 1000c7f0 f i driver.obj
 0001:0000b800       ??0?$_Iterator012@Urandom_access_iterator_tag@std@@MHPBMABMU_Iterator_base12@2@@std@@QAE@ABU01@@Z 1000c800 f i driver.obj
 0001:0000b830       ??0?$_Iterator012@Urandom_access_iterator_tag@std@@MHPBMABMU_Iterator_base12@2@@std@@QAE@XZ 1000c830 f i driver.obj
 0001:0000b860       ??0?$_Iterator012@Urandom_access_iterator_tag@std@@VSegment@@HPBV3@ABV3@U_Iterator_base12@2@@std@@QAE@ABU01@@Z 1000c860 f i driver.obj
 0001:0000b890       ??0?$_Iterator012@Urandom_access_iterator_tag@std@@VSegment@@HPBV3@ABV3@U_Iterator_base12@2@@std@@QAE@XZ 1000c890 f i driver.obj
 0001:0000b8c0       ??0?$_Iterator012@Urandom_access_iterator_tag@std@@VVector@@HPBV3@ABV3@U_Iterator_base12@2@@std@@QAE@ABU01@@Z 1000c8c0 f i driver.obj
 0001:0000b8f0       ??0?$_Iterator012@Urandom_access_iterator_tag@std@@VVector@@HPBV3@ABV3@U_Iterator_base12@2@@std@@QAE@XZ 1000c8f0 f i driver.obj
 0001:0000b920       ??0?$_Vector_alloc@$0A@U?$_Vec_base_types@HV?$allocator@H@std@@@std@@@std@@QAE@ABV?$allocator@H@1@@Z 1000c920 f i driver.obj
 0001:0000b990       ??0?$_Vector_alloc@$0A@U?$_Vec_base_types@MV?$allocator@M@std@@@std@@@std@@QAE@ABV?$allocator@M@1@@Z 1000c990 f i driver.obj
 0001:0000ba00       ??0?$_Vector_alloc@$0A@U?$_Vec_base_types@VSegment@@V?$allocator@VSegment@@@std@@@std@@@std@@QAE@ABV?$allocator@VSegment@@@1@@Z 1000ca00 f i driver.obj
 0001:0000ba70       ??0?$_Vector_alloc@$0A@U?$_Vec_base_types@VVector@@V?$allocator@VVector@@@std@@@std@@@std@@QAE@ABV?$allocator@VVector@@@1@@Z 1000ca70 f i driver.obj
 0001:0000bae0       ??0?$_Vector_const_iterator@V?$_Vector_val@U?$_Simple_types@M@std@@@std@@@std@@QAE@ABV01@@Z 1000cae0 f i driver.obj
 0001:0000bb20       ??0?$_Vector_const_iterator@V?$_Vector_val@U?$_Simple_types@M@std@@@std@@@std@@QAE@PAMPBU_Container_base12@1@@Z 1000cb20 f i driver.obj
 0001:0000bba0       ??0?$_Vector_const_iterator@V?$_Vector_val@U?$_Simple_types@VSegment@@@std@@@std@@@std@@QAE@ABV01@@Z 1000cba0 f i driver.obj
 0001:0000bbe0       ??0?$_Vector_const_iterator@V?$_Vector_val@U?$_Simple_types@VSegment@@@std@@@std@@@std@@QAE@PAVSegment@@PBU_Container_base12@1@@Z 1000cbe0 f i driver.obj
 0001:0000bc60       ??0?$_Vector_const_iterator@V?$_Vector_val@U?$_Simple_types@VVector@@@std@@@std@@@std@@QAE@ABV01@@Z 1000cc60 f i driver.obj
 0001:0000bca0       ??0?$_Vector_const_iterator@V?$_Vector_val@U?$_Simple_types@VVector@@@std@@@std@@@std@@QAE@PAVVector@@PBU_Container_base12@1@@Z 1000cca0 f i driver.obj
 0001:0000bd20       ??0?$_Vector_iterator@V?$_Vector_val@U?$_Simple_types@M@std@@@std@@@std@@QAE@ABV01@@Z 1000cd20 f i driver.obj
 0001:0000bd50       ??0?$_Vector_iterator@V?$_Vector_val@U?$_Simple_types@M@std@@@std@@@std@@QAE@PAMPBU_Container_base12@1@@Z 1000cd50 f i driver.obj
 0001:0000bd90       ??0?$_Vector_val@U?$_Simple_types@H@std@@@std@@QAE@XZ 1000cd90 f i driver.obj
 0001:0000bde0       ??0?$_Vector_val@U?$_Simple_types@M@std@@@std@@QAE@XZ 1000cde0 f i driver.obj
 0001:0000be30       ??0?$_Vector_val@U?$_Simple_types@VSegment@@@std@@@std@@QAE@XZ 1000ce30 f i driver.obj
 0001:0000be80       ??0?$_Vector_val@U?$_Simple_types@VVector@@@std@@@std@@QAE@XZ 1000ce80 f i driver.obj
 0001:0000bed0       ??0?$_Wrap_alloc@V?$allocator@H@std@@@std@@QAE@XZ 1000ced0 f i driver.obj
 0001:0000bf00       ??0?$_Wrap_alloc@V?$allocator@M@std@@@std@@QAE@XZ 1000cf00 f i driver.obj
 0001:0000bf30       ??0?$_Wrap_alloc@V?$allocator@VSegment@@@std@@@std@@QAE@ABV?$allocator@VSegment@@@1@@Z 1000cf30 f i driver.obj
 0001:0000bf60       ??0?$_Wrap_alloc@V?$allocator@VSegment@@@std@@@std@@QAE@XZ 1000cf60 f i driver.obj
 0001:0000bf90       ??0?$_Wrap_alloc@V?$allocator@VVector@@@std@@@std@@QAE@ABV?$allocator@VVector@@@1@@Z 1000cf90 f i driver.obj
 0001:0000bfc0       ??0?$_Wrap_alloc@V?$allocator@VVector@@@std@@@std@@QAE@XZ 1000cfc0 f i driver.obj
 0001:0000bff0       ??0?$allocator@H@std@@QAE@XZ 1000cff0 f i driver.obj
 0001:0000c010       ??0?$allocator@M@std@@QAE@XZ 1000d010 f i driver.obj
 0001:0000c030       ??0?$allocator@U_Container_proxy@std@@@std@@QAE@XZ 1000d030 f i driver.obj
 0001:0000c050       ??0?$allocator@VSegment@@@std@@QAE@ABV01@@Z 1000d050 f i driver.obj
 0001:0000c070       ??0?$allocator@VSegment@@@std@@QAE@XZ 1000d070 f i driver.obj
 0001:0000c090       ??0?$allocator@VVector@@@std@@QAE@ABV01@@Z 1000d090 f i driver.obj
 0001:0000c0b0       ??0?$allocator@VVector@@@std@@QAE@XZ 1000d0b0 f i driver.obj
 0001:0000c0d0       ??0?$vector@HV?$allocator@H@std@@@std@@QAE@XZ 1000d0d0 f i driver.obj
 0001:0000c110       ??0?$vector@MV?$allocator@M@std@@@std@@QAE@XZ 1000d110 f i driver.obj
 0001:0000c150       ??0?$vector@VSegment@@V?$allocator@VSegment@@@std@@@std@@QAE@ABV01@@Z 1000d150 f i driver.obj
 0001:0000c270       ??0?$vector@VSegment@@V?$allocator@VSegment@@@std@@@std@@QAE@XZ 1000d270 f i driver.obj
 0001:0000c2b0       ??0?$vector@VVector@@V?$allocator@VVector@@@std@@@std@@QAE@ABV01@@Z 1000d2b0 f i driver.obj
 0001:0000c3d0       ??0?$vector@VVector@@V?$allocator@VVector@@@std@@@std@@QAE@XZ 1000d3d0 f i driver.obj
 0001:0000c410       ??0Point@@QAE@MMM@Z        1000d410 f i driver.obj
 0001:0000c460       ??0Point@@QAE@XZ           1000d460 f i driver.obj
 0001:0000c490       ??0Segment@@QAE@VPoint@@0@Z 1000d490 f i driver.obj
 0001:0000c4e0       ??0SegmentList@@QAE@ABV0@@Z 1000d4e0 f i driver.obj
 0001:0000c510       ??0SegmentList@@QAE@XZ     1000d510 f i driver.obj
 0001:0000c540       ??0Trajectory@@QAE@XZ      1000d540 f i driver.obj
 0001:0000c5e0       ??0_Container_base12@std@@QAE@XZ 1000d5e0 f i driver.obj
 0001:0000c600       ??0_Container_proxy@std@@QAE@XZ 1000d600 f i driver.obj
 0001:0000c630       ??0_Iterator_base12@std@@QAE@ABU01@@Z 1000d630 f i driver.obj
 0001:0000c670       ??0_Iterator_base12@std@@QAE@XZ 1000d670 f i driver.obj
 0001:0000c6a0       ??0v2d@@QAE@MM@Z           1000d6a0 f i driver.obj
 0001:0000c6d0       ??1?$_Iterator012@Urandom_access_iterator_tag@std@@MHPBMABMU_Iterator_base12@2@@std@@QAE@XZ 1000d6d0 f i driver.obj
 0001:0000c700       ??1?$_Iterator012@Urandom_access_iterator_tag@std@@VSegment@@HPBV3@ABV3@U_Iterator_base12@2@@std@@QAE@XZ 1000d700 f i driver.obj
 0001:0000c730       ??1?$_Iterator012@Urandom_access_iterator_tag@std@@VVector@@HPBV3@ABV3@U_Iterator_base12@2@@std@@QAE@XZ 1000d730 f i driver.obj
 0001:0000c760       ??1?$_Vector_alloc@$0A@U?$_Vec_base_types@HV?$allocator@H@std@@@std@@@std@@QAE@XZ 1000d760 f i driver.obj
 0001:0000c790       ??1?$_Vector_alloc@$0A@U?$_Vec_base_types@MV?$allocator@M@std@@@std@@@std@@QAE@XZ 1000d790 f i driver.obj
 0001:0000c7c0       ??1?$_Vector_alloc@$0A@U?$_Vec_base_types@VSegment@@V?$allocator@VSegment@@@std@@@std@@@std@@QAE@XZ 1000d7c0 f i driver.obj
 0001:0000c7f0       ??1?$_Vector_alloc@$0A@U?$_Vec_base_types@VVector@@V?$allocator@VVector@@@std@@@std@@@std@@QAE@XZ 1000d7f0 f i driver.obj
 0001:0000c820       ??1?$_Vector_const_iterator@V?$_Vector_val@U?$_Simple_types@M@std@@@std@@@std@@QAE@XZ 1000d820 f i driver.obj
 0001:0000c850       ??1?$_Vector_const_iterator@V?$_Vector_val@U?$_Simple_types@VSegment@@@std@@@std@@@std@@QAE@XZ 1000d850 f i driver.obj
 0001:0000c880       ??1?$_Vector_const_iterator@V?$_Vector_val@U?$_Simple_types@VVector@@@std@@@std@@@std@@QAE@XZ 1000d880 f i driver.obj
 0001:0000c8b0       ??1?$_Vector_iterator@V?$_Vector_val@U?$_Simple_types@M@std@@@std@@@std@@QAE@XZ 1000d8b0 f i driver.obj
 0001:0000c8e0       ??1?$_Vector_val@U?$_Simple_types@H@std@@@std@@QAE@XZ 1000d8e0 f i driver.obj
 0001:0000c910       ??1?$_Vector_val@U?$_Simple_types@M@std@@@std@@QAE@XZ 1000d910 f i driver.obj
 0001:0000c940       ??1?$_Vector_val@U?$_Simple_types@VSegment@@@std@@@std@@QAE@XZ 1000d940 f i driver.obj
 0001:0000c970       ??1?$_Vector_val@U?$_Simple_types@VVector@@@std@@@std@@QAE@XZ 1000d970 f i driver.obj
 0001:0000c9a0       ??1?$vector@HV?$allocator@H@std@@@std@@QAE@XZ 1000d9a0 f i driver.obj
 0001:0000c9d0       ??1?$vector@MV?$allocator@M@std@@@std@@QAE@XZ 1000d9d0 f i driver.obj
 0001:0000ca00       ??1?$vector@VSegment@@V?$allocator@VSegment@@@std@@@std@@QAE@XZ 1000da00 f i driver.obj
 0001:0000ca30       ??1?$vector@VVector@@V?$allocator@VVector@@@std@@@std@@QAE@XZ 1000da30 f i driver.obj
 0001:0000ca60       ??1SegmentList@@QAE@XZ     1000da60 f i driver.obj
 0001:0000ca90       ??1Trajectory@@QAE@XZ      1000da90 f i driver.obj
 0001:0000cae0       ??1_Container_base12@std@@QAE@XZ 1000dae0 f i driver.obj
 0001:0000cb10       ??1_Iterator_base12@std@@QAE@XZ 1000db10 f i driver.obj
 0001:0000cb80       ??2@YAPAXIPAX@Z            1000db80 f i driver.obj
 0001:0000cb90       ??3@YAXPAX0@Z              1000db90 f i driver.obj
 0001:0000cba0       ??4Point@@QAEAAV0@ABV0@@Z  1000dba0 f i driver.obj
 0001:0000cbe0       ??4_Iterator_base12@std@@QAEAAU01@ABU01@@Z 1000dbe0 f i driver.obj
 0001:0000ccc0       ??4v2d@@QAEAAV0@ABV0@@Z    1000dcc0 f i driver.obj
 0001:0000ccf0       ??8?$_Vector_const_iterator@V?$_Vector_val@U?$_Simple_types@M@std@@@std@@@std@@QBE_NABV01@@Z 1000dcf0 f i driver.obj
 0001:0000cd50       ??8?$_Vector_const_iterator@V?$_Vector_val@U?$_Simple_types@VSegment@@@std@@@std@@@std@@QBE_NABV01@@Z 1000dd50 f i driver.obj
 0001:0000cdb0       ??8?$_Vector_const_iterator@V?$_Vector_val@U?$_Simple_types@VVector@@@std@@@std@@@std@@QBE_NABV01@@Z 1000ddb0 f i driver.obj
 0001:0000ce10       ??9?$_Vector_const_iterator@V?$_Vector_val@U?$_Simple_types@M@std@@@std@@@std@@QBE_NABV01@@Z 1000de10 f i driver.obj
 0001:0000ce60       ??9?$_Vector_const_iterator@V?$_Vector_val@U?$_Simple_types@VSegment@@@std@@@std@@@std@@QBE_NABV01@@Z 1000de60 f i driver.obj
 0001:0000ceb0       ??9?$_Vector_const_iterator@V?$_Vector_val@U?$_Simple_types@VVector@@@std@@@std@@@std@@QBE_NABV01@@Z 1000deb0 f i driver.obj
 0001:0000cf00       ??A?$vector@MV?$allocator@M@std@@@std@@QAEAAMI@Z 1000df00 f i driver.obj
 0001:0000cfa0       ??D?$_Vector_const_iterator@V?$_Vector_val@U?$_Simple_types@VSegment@@@std@@@std@@@std@@QBEABVSegment@@XZ 1000dfa0 f i driver.obj
 0001:0000d060       ??D?$_Vector_const_iterator@V?$_Vector_val@U?$_Simple_types@VVector@@@std@@@std@@@std@@QBEABVVector@@XZ 1000e060 f i driver.obj
 0001:0000d120       ??D@YA?AVv2d@@MABV0@@Z     1000e120 f i driver.obj
 0001:0000d160       ??Dv2d@@QBE?AV0@M@Z        1000e160 f i driver.obj
 0001:0000d1b0       ??E?$_Vector_const_iterator@V?$_Vector_val@U?$_Simple_types@VSegment@@@std@@@std@@@std@@QAEAAV01@XZ 1000e1b0 f i driver.obj
 0001:0000d270       ??E?$_Vector_const_iterator@V?$_Vector_val@U?$_Simple_types@VVector@@@std@@@std@@@std@@QAEAAV01@XZ 1000e270 f i driver.obj
 0001:0000d330       ??Gv2d@@QBE?AV0@ABV0@@Z    1000e330 f i driver.obj
 0001:0000d390       ??H?$_Vector_iterator@V?$_Vector_val@U?$_Simple_types@M@std@@@std@@@std@@QBE?AV01@H@Z 1000e390 f i driver.obj
 0001:0000d470       ??Hv2d@@QBE?AV0@ABV0@@Z    1000e470 f i driver.obj
 0001:0000d4d0       ??M?$_Vector_const_iterator@V?$_Vector_val@U?$_Simple_types@M@std@@@std@@@std@@QBE_NABV01@@Z 1000e4d0 f i driver.obj
 0001:0000d530       ??M?$_Vector_const_iterator@V?$_Vector_val@U?$_Simple_types@VSegment@@@std@@@std@@@std@@QBE_NABV01@@Z 1000e530 f i driver.obj
 0001:0000d590       ??M?$_Vector_const_iterator@V?$_Vector_val@U?$_Simple_types@VVector@@@std@@@std@@@std@@QBE_NABV01@@Z 1000e590 f i driver.obj
 0001:0000d5f0       ??Y?$_Vector_const_iterator@V?$_Vector_val@U?$_Simple_types@M@std@@@std@@@std@@QAEAAV01@H@Z 1000e5f0 f i driver.obj
 0001:0000d6d0       ??Y?$_Vector_iterator@V?$_Vector_val@U?$_Simple_types@M@std@@@std@@@std@@QAEAAV01@H@Z 1000e6d0 f i driver.obj
 0001:0000d700       ??_GCardata@@QAEPAXI@Z     1000e700 f i driver.obj
 0001:0000d740       ??_GOpponents@@QAEPAXI@Z   1000e740 f i driver.obj
 0001:0000d780       ??_GPit@@QAEPAXI@Z         1000e780 f i driver.obj
 0001:0000d7c0       ??_GSegLearn@@QAEPAXI@Z    1000e7c0 f i driver.obj
 0001:0000d800       ??_GVector@@QAEPAXI@Z      1000e800 f i driver.obj
 0001:0000d840       ?Add@SegmentList@@QAEXVSegment@@@Z 1000e840 f i driver.obj
 0001:0000d870       ?GetFrictionDm@SegLearn@@QAEMPAUtrackSeg@@@Z 1000e870 f i driver.obj
 0001:0000d8b0       ?SetSafetyThreshold@SegLearn@@QAEXM@Z 1000e8b0 f i driver.obj
 0001:0000d8d0       ?Size@Vector@@QAEHXZ       1000e8d0 f i driver.obj
 0001:0000d8f0       ?_Adopt@_Iterator_base12@std@@QAEXPBU_Container_base12@2@@Z 1000e8f0 f i driver.obj
 0001:0000da20       ?_Alloc_proxy@?$_Vector_alloc@$0A@U?$_Vec_base_types@HV?$allocator@H@std@@@std@@@std@@QAEXXZ 1000ea20 f i driver.obj
 0001:0000dac0       ?_Alloc_proxy@?$_Vector_alloc@$0A@U?$_Vec_base_types@MV?$allocator@M@std@@@std@@@std@@QAEXXZ 1000eac0 f i driver.obj
 0001:0000db60       ?_Alloc_proxy@?$_Vector_alloc@$0A@U?$_Vec_base_types@VSegment@@V?$allocator@VSegment@@@std@@@std@@@std@@QAEXXZ 1000eb60 f i driver.obj
 0001:0000dc00       ?_Alloc_proxy@?$_Vector_alloc@$0A@U?$_Vec_base_types@VVector@@V?$allocator@VVector@@@std@@@std@@@std@@QAEXXZ 1000ec00 f i driver.obj
 0001:0000dca0       ?_Buy@?$vector@VSegment@@V?$allocator@VSegment@@@std@@@std@@IAE_NI@Z 1000eca0 f i driver.obj
 0001:0000dd50       ?_Buy@?$vector@VVector@@V?$allocator@VVector@@@std@@@std@@IAE_NI@Z 1000ed50 f i driver.obj
 0001:0000de00       ?_Clrcont@_Iterator_base12@std@@QAEXXZ 1000ee00 f i driver.obj
 0001:0000de20       ?_Compat@?$_Vector_const_iterator@V?$_Vector_val@U?$_Simple_types@M@std@@@std@@@std@@QBEXABV12@@Z 1000ee20 f i driver.obj
 0001:0000ded0       ?_Compat@?$_Vector_const_iterator@V?$_Vector_val@U?$_Simple_types@VSegment@@@std@@@std@@@std@@QBEXABV12@@Z 1000eed0 f i driver.obj
 0001:0000df80       ?_Compat@?$_Vector_const_iterator@V?$_Vector_val@U?$_Simple_types@VVector@@@std@@@std@@@std@@QBEXABV12@@Z 1000ef80 f i driver.obj
 0001:0000e030       ?_Destroy@?$vector@HV?$allocator@H@std@@@std@@IAEXPAH0@Z 1000f030 f i driver.obj
 0001:0000e0b0       ?_Destroy@?$vector@MV?$allocator@M@std@@@std@@IAEXPAM0@Z 1000f0b0 f i driver.obj
 0001:0000e130       ?_Destroy@?$vector@VSegment@@V?$allocator@VSegment@@@std@@@std@@IAEXPAVSegment@@0@Z 1000f130 f i driver.obj
 0001:0000e1b0       ?_Destroy@?$vector@VVector@@V?$allocator@VVector@@@std@@@std@@IAEXPAVVector@@0@Z 1000f1b0 f i driver.obj
 0001:0000e230       ?_Free_proxy@?$_Vector_alloc@$0A@U?$_Vec_base_types@HV?$allocator@H@std@@@std@@@std@@QAEXXZ 1000f230 f i driver.obj
 0001:0000e2c0       ?_Free_proxy@?$_Vector_alloc@$0A@U?$_Vec_base_types@MV?$allocator@M@std@@@std@@@std@@QAEXXZ 1000f2c0 f i driver.obj
 0001:0000e350       ?_Free_proxy@?$_Vector_alloc@$0A@U?$_Vec_base_types@VSegment@@V?$allocator@VSegment@@@std@@@std@@@std@@QAEXXZ 1000f350 f i driver.obj
 0001:0000e3e0       ?_Free_proxy@?$_Vector_alloc@$0A@U?$_Vec_base_types@VVector@@V?$allocator@VVector@@@std@@@std@@@std@@QAEXXZ 1000f3e0 f i driver.obj
 0001:0000e470       ?_Getal@?$_Vector_alloc@$0A@U?$_Vec_base_types@HV?$allocator@H@std@@@std@@@std@@QBE?AU?$_Wrap_alloc@V?$allocator@H@std@@@2@XZ 1000f470 f i driver.obj
 0001:0000e4a0       ?_Getal@?$_Vector_alloc@$0A@U?$_Vec_base_types@MV?$allocator@M@std@@@std@@@std@@QBE?AU?$_Wrap_alloc@V?$allocator@M@std@@@2@XZ 1000f4a0 f i driver.obj
 0001:0000e4d0       ?_Getal@?$_Vector_alloc@$0A@U?$_Vec_base_types@VSegment@@V?$allocator@VSegment@@@std@@@std@@@std@@QBE?AU?$_Wrap_alloc@V?$allocator@VSegment@@@std@@@2@XZ 1000f4d0 f i driver.obj
 0001:0000e500       ?_Getal@?$_Vector_alloc@$0A@U?$_Vec_base_types@VVector@@V?$allocator@VVector@@@std@@@std@@@std@@QBE?AU?$_Wrap_alloc@V?$allocator@VVector@@@std@@@2@XZ 1000f500 f i driver.obj
 0001:0000e530       ?_Getcont@_Iterator_base12@std@@QBEPBU_Container_base12@2@XZ 1000f530 f i driver.obj
 0001:0000e570       ?_Getpfirst@_Container_base12@std@@QBEPAPAU_Iterator_base12@2@XZ 1000f570 f i driver.obj
 0001:0000e5b0       ?_Getpnext@_Iterator_base12@std@@QAEPAPAU12@XZ 1000f5b0 f i driver.obj
 0001:0000e5d0       ?_Grow_to@?$vector@MV?$allocator@M@std@@@std@@IBEII@Z 1000f5d0 f i driver.obj
 0001:0000e650       ?_Grow_to@?$vector@VSegment@@V?$allocator@VSegment@@@std@@@std@@IBEII@Z 1000f650 f i driver.obj
 0001:0000e6d0       ?_Grow_to@?$vector@VVector@@V?$allocator@VVector@@@std@@@std@@IBEII@Z 1000f6d0 f i driver.obj
 0001:0000e750       ?_Inside@?$vector@VSegment@@V?$allocator@VSegment@@@std@@@std@@IBE_NPBVSegment@@@Z 1000f750 f i driver.obj
 0001:0000e7a0       ?_Inside@?$vector@VVector@@V?$allocator@VVector@@@std@@@std@@IBE_NPBVVector@@@Z 1000f7a0 f i driver.obj
 0001:0000e7f0       ?_Make_iter@?$vector@MV?$allocator@M@std@@@std@@QBE?AV?$_Vector_iterator@V?$_Vector_val@U?$_Simple_types@M@std@@@std@@@2@V?$_Vector_const_iterator@V?$_Vector_val@U?$_Simple_types@M@std@@@std@@@2@@Z 1000f7f0 f i driver.obj
 0001:0000e880       ?_Orphan_all@_Container_base12@std@@QAEXXZ 1000f880 f i driver.obj
 0001:0000e930       ?_Orphan_me@_Iterator_base12@std@@QAEXXZ 1000f930 f i driver.obj
 0001:0000e9c0       ?_Orphan_range@?$vector@MV?$allocator@M@std@@@std@@IBEXPAM0@Z 1000f9c0 f i driver.obj
 0001:0000ead0       ?_Orphan_range@?$vector@VSegment@@V?$allocator@VSegment@@@std@@@std@@IBEXPAVSegment@@0@Z 1000fad0 f i driver.obj
 0001:0000ebe0       ?_Orphan_range@?$vector@VVector@@V?$allocator@VVector@@@std@@@std@@IBEXPAVVector@@0@Z 1000fbe0 f i driver.obj
 0001:0000ecf0       ?_Reallocate@?$vector@MV?$allocator@M@std@@@std@@IAEXI@Z 1000fcf0 f i driver.obj
 0001:0000ee50       ?_Reallocate@?$vector@VSegment@@V?$allocator@VSegment@@@std@@@std@@IAEXI@Z 1000fe50 f i driver.obj
 0001:0000efb0       ?_Reallocate@?$vector@VVector@@V?$allocator@VVector@@@std@@@std@@IAEXI@Z 1000ffb0 f i driver.obj
 0001:0000f110       ?_Reserve@?$vector@MV?$allocator@M@std@@@std@@IAEXI@Z 10010110 f i driver.obj
 0001:0000f180       ?_Reserve@?$vector@VSegment@@V?$allocator@VSegment@@@std@@@std@@IAEXI@Z 10010180 f i driver.obj
 0001:0000f1f0       ?_Reserve@?$vector@VVector@@V?$allocator@VVector@@@std@@@std@@IAEXI@Z 100101f0 f i driver.obj
 0001:0000f260       ?_Tidy@?$vector@HV?$allocator@H@std@@@std@@IAEXXZ 10010260 f i driver.obj
 0001:0000f300       ?_Tidy@?$vector@MV?$allocator@M@std@@@std@@IAEXXZ 10010300 f i driver.obj
 0001:0000f3a0       ?_Tidy@?$vector@VSegment@@V?$allocator@VSegment@@@std@@@std@@IAEXXZ 100103a0 f i driver.obj
 0001:0000f440       ?_Tidy@?$vector@VVector@@V?$allocator@VVector@@@std@@@std@@IAEXXZ 10010440 f i driver.obj
 0001:0000f4e0       ?_Unused_capacity@?$vector@MV?$allocator@M@std@@@std@@QBEIXZ 100104e0 f i driver.obj
 0001:0000f510       ?_Unused_capacity@?$vector@VSegment@@V?$allocator@VSegment@@@std@@@std@@QBEIXZ 10010510 f i driver.obj
 0001:0000f540       ?_Unused_capacity@?$vector@VVector@@V?$allocator@VVector@@@std@@@std@@QBEIXZ 10010540 f i driver.obj
 0001:0000f570       ?_Xlen@?$vector@MV?$allocator@M@std@@@std@@IBEXXZ 10010570 f i driver.obj
 0001:0000f5a0       ?_Xlen@?$vector@VSegment@@V?$allocator@VSegment@@@std@@@std@@IBEXXZ 100105a0 f i driver.obj
 0001:0000f5d0       ?_Xlen@?$vector@VVector@@V?$allocator@VVector@@@std@@@std@@IBEXXZ 100105d0 f i driver.obj
 0001:0000f600       ?allocate@?$_Wrap_alloc@V?$allocator@M@std@@@std@@QAEPAMI@Z 10010600 f i driver.obj
 0001:0000f630       ?allocate@?$_Wrap_alloc@V?$allocator@VSegment@@@std@@@std@@QAEPAVSegment@@I@Z 10010630 f i driver.obj
 0001:0000f660       ?allocate@?$_Wrap_alloc@V?$allocator@VVector@@@std@@@std@@QAEPAVVector@@I@Z 10010660 f i driver.obj
 0001:0000f690       ?allocate@?$allocator@M@std@@QAEPAMI@Z 10010690 f i driver.obj
 0001:0000f6c0       ?allocate@?$allocator@U_Container_proxy@std@@@std@@QAEPAU_Container_proxy@2@I@Z 100106c0 f i driver.obj
 0001:0000f6f0       ?allocate@?$allocator@VSegment@@@std@@QAEPAVSegment@@I@Z 100106f0 f i driver.obj
 0001:0000f720       ?allocate@?$allocator@VVector@@@std@@QAEPAVVector@@I@Z 10010720 f i driver.obj
 0001:0000f750       ?atan2@@YAMMM@Z            10010750 f i driver.obj
 0001:0000f780       ?begin@?$vector@MV?$allocator@M@std@@@std@@QAE?AV?$_Vector_iterator@V?$_Vector_val@U?$_Simple_types@M@std@@@std@@@2@XZ 10010780 f i driver.obj
 0001:0000f7c0       ?begin@?$vector@VSegment@@V?$allocator@VSegment@@@std@@@std@@QBE?AV?$_Vector_const_iterator@V?$_Vector_val@U?$_Simple_types@VSegment@@@std@@@std@@@2@XZ 100107c0 f i driver.obj
 0001:0000f800       ?begin@?$vector@VVector@@V?$allocator@VVector@@@std@@@std@@QBE?AV?$_Vector_const_iterator@V?$_Vector_val@U?$_Simple_types@VVector@@@std@@@std@@@2@XZ 10010800 f i driver.obj
 0001:0000f840       ?brakeForCollision@Opponent@@QAEXXZ 10010840 f i driver.obj
 0001:0000f870       ?capacity@?$vector@MV?$allocator@M@std@@@std@@QBEIXZ 10010870 f i driver.obj
 0001:0000f8a0       ?capacity@?$vector@VSegment@@V?$allocator@VSegment@@@std@@@std@@QBEIXZ 100108a0 f i driver.obj
 0001:0000f8d0       ?capacity@?$vector@VVector@@V?$allocator@VVector@@@std@@@std@@QBEIXZ 100108d0 f i driver.obj
 0001:0000f900       ?clear@?$vector@MV?$allocator@M@std@@@std@@QAEXXZ 10010900 f i driver.obj
 0001:0000f950       ?construct@?$allocator@VSegment@@@std@@QAEXPAVSegment@@ABV3@@Z 10010950 f i driver.obj
 0001:0000f9c0       ?construct@?$allocator@VVector@@@std@@QAEXPAVVector@@ABV3@@Z 100109c0 f i driver.obj
 0001:0000fa60       ?deallocate@?$_Wrap_alloc@V?$allocator@H@std@@@std@@QAEXPAHI@Z 10010a60 f i driver.obj
 0001:0000fa90       ?deallocate@?$_Wrap_alloc@V?$allocator@M@std@@@std@@QAEXPAMI@Z 10010a90 f i driver.obj
 0001:0000fac0       ?deallocate@?$_Wrap_alloc@V?$allocator@VSegment@@@std@@@std@@QAEXPAVSegment@@I@Z 10010ac0 f i driver.obj
 0001:0000faf0       ?deallocate@?$_Wrap_alloc@V?$allocator@VVector@@@std@@@std@@QAEXPAVVector@@I@Z 10010af0 f i driver.obj
 0001:0000fb20       ?deallocate@?$allocator@H@std@@QAEXPAHI@Z 10010b20 f i driver.obj
 0001:0000fb50       ?deallocate@?$allocator@M@std@@QAEXPAMI@Z 10010b50 f i driver.obj
 0001:0000fb80       ?deallocate@?$allocator@U_Container_proxy@std@@@std@@QAEXPAU_Container_proxy@2@I@Z 10010b80 f i driver.obj
 0001:0000fbb0       ?deallocate@?$allocator@VSegment@@@std@@QAEXPAVSegment@@I@Z 10010bb0 f i driver.obj
 0001:0000fbe0       ?deallocate@?$allocator@VVector@@@std@@QAEXPAVVector@@I@Z 10010be0 f i driver.obj
 0001:0000fc10       ?end@?$vector@MV?$allocator@M@std@@@std@@QAE?AV?$_Vector_iterator@V?$_Vector_val@U?$_Simple_types@M@std@@@std@@@2@XZ 10010c10 f i driver.obj
 0001:0000fc50       ?end@?$vector@VSegment@@V?$allocator@VSegment@@@std@@@std@@QBE?AV?$_Vector_const_iterator@V?$_Vector_val@U?$_Simple_types@VSegment@@@std@@@std@@@2@XZ 10010c50 f i driver.obj
 0001:0000fc90       ?end@?$vector@VVector@@V?$allocator@VVector@@@std@@@std@@QBE?AV?$_Vector_const_iterator@V?$_Vector_val@U?$_Simple_types@VVector@@@std@@@std@@@2@XZ 10010c90 f i driver.obj
 0001:0000fcd0       ?erase@?$vector@MV?$allocator@M@std@@@std@@QAE?AV?$_Vector_iterator@V?$_Vector_val@U?$_Simple_types@M@std@@@std@@@2@V?$_Vector_const_iterator@V?$_Vector_val@U?$_Simple_types@M@std@@@std@@@2@0@Z 10010cd0 f i driver.obj
 0001:0000ffd0       ?fabs@@YAMM@Z              10010fd0 f i driver.obj
 0001:0000fff0       ?getBrakeOvertake@Opponent@@QAEMXZ 10010ff0 f i driver.obj
 0001:00010010       ?getCarAngle@SingleCardata@@QAEMXZ 10011010 f i driver.obj
 0001:00010030       ?getCarPtr@Opponent@@QAEPAUCarElt@@XZ 10011030 f i driver.obj
 0001:00010050       ?getCatchDist@Opponent@@QAEMXZ 10011050 f i driver.obj
 0001:00010070       ?getDistance@Opponent@@QAEMXZ 10011070 f i driver.obj
 0001:00010090       ?getInPit@Pit@@QAE_NXZ     10011090 f i driver.obj
 0001:000100b0       ?getNOpponents@Opponents@@QAEHXZ 100110b0 f i driver.obj
 0001:000100d0       ?getNPitEnd@Pit@@QAEMXZ    100110d0 f i driver.obj
 0001:00010100       ?getNPitLoc@Pit@@QAEMXZ    10011100 f i driver.obj
 0001:00010130       ?getNPitStart@Pit@@QAEMXZ  10011130 f i driver.obj
 0001:00010160       ?getOpponentPtr@Opponents@@QAEPAVOpponent@@XZ 10011160 f i driver.obj
 0001:00010180       ?getPitstop@Pit@@QAE_NXZ   10011180 f i driver.obj
 0001:000101a0       ?getRadius@SegLearn@@QAEMPAUtrackSeg@@@Z 100111a0 f i driver.obj
 0001:000101d0       ?getSideDist@Opponent@@QAEMXZ 100111d0 f i driver.obj
 0001:000101f0       ?getSpeed@Driver@@QAEMXZ   100111f0 f i driver.obj
 0001:00010220       ?getSpeed@Opponent@@QAEMXZ 10011220 f i driver.obj
 0001:00010250       ?getSpeedInTrackDirection@SingleCardata@@QAEMXZ 10011250 f i driver.obj
 0001:00010270       ?getSpeedlimit@Pit@@QAEMXZ 10011270 f i driver.obj
 0001:00010290       ?getSpeedlimitSqr@Pit@@QAEMXZ 10011290 f i driver.obj
 0001:000102b0       ?getState@Opponent@@QAEHXZ 100112b0 f i driver.obj
 0001:000102d0       ?getState@Pit@@QAE?AW4PitState@@XZ 100112d0 f i driver.obj
 0001:000102f0       ?getTrackangle@SingleCardata@@QAEMXZ 100112f0 f i driver.obj
 0001:00010310       ?getWidth@Opponent@@QAEMXZ 10011310 f i driver.obj
 0001:00010340       ?getWidthOnTrack@SingleCardata@@QAEMXZ 10011340 f i driver.obj
 0001:00010360       ?len@v2d@@QBEMXZ           10011360 f i driver.obj
 0001:000103b0       ?log@@YAMM@Z               100113b0 f i driver.obj
 0001:000103d0       ?max_size@?$_Wrap_alloc@V?$allocator@M@std@@@std@@QBEIXZ 100113d0 f i driver.obj
 0001:00010400       ?max_size@?$_Wrap_alloc@V?$allocator@VSegment@@@std@@@std@@QBEIXZ 10011400 f i driver.obj
 0001:00010430       ?max_size@?$_Wrap_alloc@V?$allocator@VVector@@@std@@@std@@QBEIXZ 10011430 f i driver.obj
 0001:00010460       ?max_size@?$allocator@M@std@@QBEIXZ 10011460 f i driver.obj
 0001:00010480       ?max_size@?$allocator@VSegment@@@std@@QBEIXZ 10011480 f i driver.obj
 0001:000104a0       ?max_size@?$allocator@VVector@@@std@@QBEIXZ 100114a0 f i driver.obj
 0001:000104c0       ?max_size@?$allocator_traits@V?$allocator@M@std@@@std@@SAIABV?$allocator@M@2@@Z 100114c0 f i driver.obj
 0001:000104e0       ?max_size@?$allocator_traits@V?$allocator@VSegment@@@std@@@std@@SAIABV?$allocator@VSegment@@@2@@Z 100114e0 f i driver.obj
 0001:00010500       ?max_size@?$allocator_traits@V?$allocator@VVector@@@std@@@std@@SAIABV?$allocator@VVector@@@2@@Z 10011500 f i driver.obj
 0001:00010520       ?max_size@?$vector@MV?$allocator@M@std@@@std@@QBEIXZ 10011520 f i driver.obj
 0001:00010560       ?max_size@?$vector@VSegment@@V?$allocator@VSegment@@@std@@@std@@QBEIXZ 10011560 f i driver.obj
 0001:000105a0       ?max_size@?$vector@VVector@@V?$allocator@VVector@@@std@@@std@@QBEIXZ 100115a0 f i driver.obj
 0001:000105e0       ?normalize@v2d@@QAEXXZ     100115e0 f i driver.obj
 0001:00010640       ?push_back@?$vector@VSegment@@V?$allocator@VSegment@@@std@@@std@@QAEXABVSegment@@@Z 10011640 f i driver.obj
 0001:00010770       ?push_back@?$vector@VVector@@V?$allocator@VVector@@@std@@@std@@QAEXABVVector@@@Z 10011770 f i driver.obj
 0001:000108a0       ?resize@?$vector@MV?$allocator@M@std@@@std@@QAEXI@Z 100118a0 f i driver.obj
 0001:00010ab0       ?rotate@v2d@@QBE?AV1@ABV1@M@Z 10011ab0 f i driver.obj
 0001:00010bb0       ?select_on_container_copy_construction@?$_Wrap_alloc@V?$allocator@VSegment@@@std@@@std@@QBE?AU12@XZ 10011bb0 f i driver.obj
 0001:00010c00       ?select_on_container_copy_construction@?$_Wrap_alloc@V?$allocator@VVector@@@std@@@std@@QBE?AU12@XZ 10011c00 f i driver.obj
 0001:00010c50       ?select_on_container_copy_construction@?$allocator@VSegment@@@std@@QBE?AV12@XZ 10011c50 f i driver.obj
 0001:00010c80       ?select_on_container_copy_construction@?$allocator@VVector@@@std@@QBE?AV12@XZ 10011c80 f i driver.obj
 0001:00010cb0       ?select_on_container_copy_construction@?$allocator_traits@V?$allocator@VSegment@@@std@@@std@@SA?AV?$allocator@VSegment@@@2@ABV32@@Z 10011cb0 f i driver.obj
 0001:00010cd0       ?select_on_container_copy_construction@?$allocator_traits@V?$allocator@VVector@@@std@@@std@@SA?AV?$allocator@VVector@@@2@ABV32@@Z 10011cd0 f i driver.obj
 0001:00010cf0       ?setState@Pit@@QAEXW4PitState@@@Z 10011cf0 f i driver.obj
 0001:00010d10       ?size@?$vector@MV?$allocator@M@std@@@std@@QBEIXZ 10011d10 f i driver.obj
 0001:00010d40       ?size@?$vector@VSegment@@V?$allocator@VSegment@@@std@@@std@@QBEIXZ 10011d40 f i driver.obj
 0001:00010d70       ?size@?$vector@VVector@@V?$allocator@VVector@@@std@@@std@@QBEIXZ 10011d70 f i driver.obj
 0001:00010da0       ?sqrt@@YAMM@Z              10011da0 f i driver.obj
 0001:00010dc0       ?strrchr@@YAPADPADH@Z      10011dc0 f i driver.obj
 0001:00010de0       ?tanh@@YAMM@Z              10011de0 f i driver.obj
 0001:00010e00       _atan2f                    10011e00 f i driver.obj
 0001:00010e60       _fabsf                     10011e60 f i driver.obj
 0001:00010ec0       _logf                      10011ec0 f i driver.obj
 0001:00010f20       _sqrtf                     10011f20 f i driver.obj
 0001:00010f80       _tanhf                     10011f80 f i driver.obj
 0001:00010fe0       ??0Vector@@QAE@HW4BoundsCheckingStatus@0@@Z 10011fe0 f   geometry.obj
 0001:00011090       ??0Vector@@QAE@ABV0@@Z     10012090 f   geometry.obj
 0001:00011150       ??1Vector@@QAE@XZ          10012150 f   geometry.obj
 0001:00011190       ??4Vector@@QAEAAV0@ABV0@@Z 10012190 f   geometry.obj
 0001:00011210       ?Resize@Vector@@QAEXH@Z    10012210 f   geometry.obj
 0001:00011290       ??AVector@@QAEAAMH@Z       10012290 f   geometry.obj
 0001:00011300       ??AVector@@QBEABMH@Z       10012300 f   geometry.obj
 0001:00011370       ?DotProd@@YAMPAVVector@@0@Z 10012370 f   geometry.obj
 0001:000113f0       ?Sub@@YAXPAVVector@@00@Z   100123f0 f   geometry.obj
 0001:00011450       ??0ParametricLine@@QAE@PAVVector@@0@Z 10012450 f   geometry.obj
 0001:000115c0       ??1ParametricLine@@QAE@XZ  100125c0 f   geometry.obj
 0001:00011650       ?PointCoords@ParametricLine@@QAEXMPAVVector@@@Z 10012650 f   geometry.obj
 0001:000116c0       ??0ParametricSphere@@QAE@PAVVector@@M@Z 100126c0 f   geometry.obj
 0001:000117c0       ??0ParametricSphere@@QAE@H@Z 100127c0 f   geometry.obj
 0001:00011870       ??1ParametricSphere@@QAE@XZ 10012870 f   geometry.obj
 0001:000118d0       ?GetNormalToLine@@YAPAVVector@@PAV1@@Z 100128d0 f   geometry.obj
 0001:00011ac0       ?IntersectLineLine@@YAMPAVParametricLine@@0@Z 10012ac0 f   geometry.obj
 0001:00011d70       ?CalculateRadiusPoints@@YAMV?$vector@VVector@@V?$allocator@VVector@@@std@@@std@@@Z 10012d70 f   geometry.obj
 0001:000121e0       ?IntersectSphereLine@@YAPAVVector@@PAVParametricLine@@PAV1@M@Z 100131e0 f   geometry.obj
 0001:000124c0       ?EstimateSphere@@YAXV?$vector@VVector@@V?$allocator@VVector@@@std@@@std@@PAVParametricSphere@@@Z 100134c0 f   geometry.obj
 0001:00012cf0       ??0invalid_argument@std@@QAE@ABV01@@Z 10013cf0 f i geometry.obj
 0001:00012d30       ??0invalid_argument@std@@QAE@PBD@Z 10013d30 f i geometry.obj
 0001:00012d70       ??0logic_error@std@@QAE@ABV01@@Z 10013d70 f i geometry.obj
 0001:00012db0       ??0logic_error@std@@QAE@PBD@Z 10013db0 f i geometry.obj
 0001:00012df0       ??0out_of_range@std@@QAE@ABV01@@Z 10013df0 f i geometry.obj
 0001:00012e30       ??0out_of_range@std@@QAE@PBD@Z 10013e30 f i geometry.obj
 0001:00012e70       ??1invalid_argument@std@@UAE@XZ 10013e70 f i geometry.obj
 0001:00012ea0       ??1logic_error@std@@UAE@XZ 10013ea0 f i geometry.obj
 0001:00012ed0       ??1out_of_range@std@@UAE@XZ 10013ed0 f i geometry.obj
 0001:00012f00       ??A?$vector@VVector@@V?$allocator@VVector@@@std@@@std@@QAEAAVVector@@I@Z 10013f00 f i geometry.obj
 0001:00012fa0       ??_Einvalid_argument@std@@UAEPAXI@Z 10013fa0 f i geometry.obj
 0001:00012fa0       ??_Ginvalid_argument@std@@UAEPAXI@Z 10013fa0 f i geometry.obj
 0001:00012fe0       ??_Elogic_error@std@@UAEPAXI@Z 10013fe0 f i geometry.obj
 0001:00012fe0       ??_Glogic_error@std@@UAEPAXI@Z 10013fe0 f i geometry.obj
 0001:00013020       ??_Eout_of_range@std@@UAEPAXI@Z 10014020 f i geometry.obj
 0001:00013020       ??_Gout_of_range@std@@UAEPAXI@Z 10014020 f i geometry.obj
 0001:00013060       ??0SegLearn@@QAE@PAUtTrack@@@Z 10014060 f   learn.obj
 0001:00013540       ??1SegLearn@@QAE@XZ        10014540 f   learn.obj
 0001:00013620       ?update@SegLearn@@QAEXPAUSituation@@PAUtTrack@@PAUCarElt@@HMMPAMMMM@Z 10014620 f   learn.obj
 0001:000141a0       ?updateAccel@SegLearn@@QAEMPAUSituation@@PAUCarElt@@MMM@Z 100151a0 f   learn.obj
 0001:00014570       ?predictedError@SegLearn@@QAEMPAUCarElt@@@Z 10015570 f   learn.obj
 0001:000145c0       ?predictedAccel@SegLearn@@QAEMPAUtrackSeg@@@Z 100155c0 f   learn.obj
 0001:000145e0       ?AdjustFriction@SegLearn@@QAEXPAUtrackSeg@@MMMMMMM@Z 100155e0 f   learn.obj
 0001:00014970       ?loadParameters@SegLearn@@QAEXPAD@Z 10015970 f   learn.obj
 0001:00014bd0       ?saveParameters@SegLearn@@QAEXPAD@Z 10015bd0 f   learn.obj
 0001:00014da0       ?LoadParameter@SegLearn@@AAE_NPAMHPAU_iobuf@@@Z 10015da0 f   learn.obj
 0001:00014e70       ?PropagateUpdateBackwards@SegLearn@@AAEXPAUtrackSeg@@MMM@Z 10015e70 f   learn.obj
 0001:00014f50       ?segQuantum@SegLearn@@AAEHH@Z 10015f50 f   learn.obj
 0001:00014f80       ??0Averages@SegLearn@@QAE@XZ 10015f80 f i learn.obj
 0001:00014fd0       ?CheckMatchingToken@@YA_NPBDPAUStringBuffer_@@PAU_iobuf@@@Z 10015fd0 f i learn.obj
 0001:00015080       ?Measure@Averages@SegLearn@@QAEXMMM@Z 10016080 f i learn.obj
 0001:00015140       ?WriteToken@@YAXPBDPAU_iobuf@@@Z 10016140 f i learn.obj
 0001:00015170       ?exp@@YAMM@Z               10016170 f i learn.obj
 0001:00015190       ?tand@SegLearn@@AAEMM@Z    10016190 f i learn.obj
 0001:000151e0       ?tand_der@SegLearn@@AAEMM@Z 100161e0 f i learn.obj
 0001:00015230       _expf                      10016230 f i learn.obj
 0001:00015290       ?ArgMin@@YAHHPAM@Z         10016290 f   MathFunctions.obj
 0001:00015320       ?ArgMax@@YAHHPAM@Z         10016320 f   MathFunctions.obj
 0001:000153b0       ?SmoothMaxGamma@@YAMMMMM@Z 100163b0 f   MathFunctions.obj
 0001:00015520       ?SmoothMaxPNorm@@YAMMMM@Z  10016520 f   MathFunctions.obj
 0001:000155f0       ?SoftMax@@YAXHPAM0M@Z      100165f0 f   MathFunctions.obj
 0001:000156c0       ?SoftMin@@YAXHPAM0M@Z      100166c0 f   MathFunctions.obj
 0001:000157a0       ?Normalise@@YAXPAM0H@Z     100167a0 f   MathFunctions.obj
 0001:000158a0       ?EuclideanNorm@@YAMPAM0H@Z 100168a0 f   MathFunctions.obj
 0001:00015940       ?SquareNorm@@YAMPAM0H@Z    10016940 f   MathFunctions.obj
 0001:000159d0       ?LNorm@@YAMPAM0HM@Z        100169d0 f   MathFunctions.obj
 0001:00015ab0       ?Sum@@YAMPAMH@Z            10016ab0 f   MathFunctions.obj
 0001:00015b10       ?pow@@YAMMM@Z              10016b10 f i MathFunctions.obj
 0001:00015b40       _powf                      10016b40 f i MathFunctions.obj
 0001:00015db0       _olethros                  10016db0 f   olethros.obj
 0001:00015e70       ??_GDriver@@QAEPAXI@Z      10016e70 f i olethros.obj
 0001:00015eb0       ??0Opponent@@QAE@XZ        10016eb0 f   opponent.obj
 0001:00015ee0       ?update@Opponent@@QAEXPAUSituation@@PAVDriver@@@Z 10016ee0 f   opponent.obj
 0001:00016740       ?getDistToSegStart@Opponent@@AAEMXZ 10017740 f   opponent.obj
 0001:000167b0       ?updateOverlapTimer@Opponent@@AAEXPAUSituation@@PAUCarElt@@@Z 100177b0 f   opponent.obj
 0001:00016900       ??0Opponents@@QAE@PAUSituation@@PAVDriver@@PAVCardata@@@Z 10017900 f   opponent.obj
 0001:00016a80       ??1Opponents@@QAE@XZ       10017a80 f   opponent.obj
 0001:00016ac0       ?update@Opponents@@QAEXPAUSituation@@PAVDriver@@@Z 10017ac0 f   opponent.obj
 0001:00016b90       ??0Straight@@QAE@MMMM@Z    10017b90 f i opponent.obj
 0001:00016c10       ?dist@Straight@@QBEMABVv2d@@@Z 10017c10 f i opponent.obj
 0001:00016cc0       ?getCarPtr@Driver@@QAEPAUCarElt@@XZ 10017cc0 f i opponent.obj
 0001:00016ce0       ?getTrackPtr@Driver@@QAEPAUtTrack@@XZ 10017ce0 f i opponent.obj
 0001:00016d00       ?setCarDataPtr@Opponent@@QAEXPAVSingleCardata@@@Z 10017d00 f i opponent.obj
 0001:00016d20       ?setCarPtr@Opponent@@QAEXPAUCarElt@@@Z 10017d20 f i opponent.obj
 0001:00016d40       ?setTrackPtr@Opponent@@SAXPAUtTrack@@@Z 10017d40 f i opponent.obj
 0001:00016d50       ??0Pit@@QAE@PAUSituation@@PAVDriver@@@Z 10017d50 f   pit.obj
 0001:00017250       ??1Pit@@QAE@XZ             10018250 f   pit.obj
 0001:000172a0       ?setPitstop@Pit@@QAEX_N@Z  100182a0 f   pit.obj
 0001:00017330       ?getPitOffset@Pit@@QAEMMM@Z 10018330 f   pit.obj
 0001:000173c0       ?isBetween@Pit@@QAE_NM@Z   100183c0 f   pit.obj
 0001:00017440       ?isTimeout@Pit@@QAE_NM@Z   10018440 f   pit.obj
 0001:00017500       ?toSplineCoord@Pit@@QAEMM@Z 10018500 f   pit.obj
 0001:00017560       ?getSpeedLimitBrake@Pit@@QAEMM@Z 10018560 f   pit.obj
 0001:000175b0       ?update@Pit@@QAEXXZ        100185b0 f   pit.obj
 0001:00017640       ?setInPit@Pit@@QAEX_N@Z    10018640 f i pit.obj
 0001:00017660       ??0Spline@@QAE@HPAVSplinePoint@@@Z 10018660 f   spline.obj
 0001:00017690       ?evaluate@Spline@@QAEMM@Z  10018690 f   spline.obj
 0001:00017820       ??0SimpleStrategy@@QAE@XZ  10018820 f   strategy.obj
 0001:00017880       ??1SimpleStrategy@@UAE@XZ  10018880 f   strategy.obj
 0001:000178b0       ?setFuelAtRaceStart@SimpleStrategy@@UAEXPAUtTrack@@PAPAXPAUSituation@@@Z 100188b0 f   strategy.obj
 0001:000179f0       ?update@SimpleStrategy@@UAEXPAUCarElt@@PAUSituation@@@Z 100189f0 f   strategy.obj
 0001:00017af0       ?needPitstop@SimpleStrategy@@UAE_NPAUCarElt@@PAUSituation@@PAVOpponents@@@Z 10018af0 f   strategy.obj
 0001:00017bc0       ?pitRefuel@SimpleStrategy@@UAEMPAUCarElt@@PAUSituation@@@Z 10018bc0 f   strategy.obj
 0001:00017da0       ?pitRepair@SimpleStrategy@@UAEHPAUCarElt@@PAUSituation@@@Z 10018da0 f   strategy.obj
 0001:00017dc0       ?getSpeedFactor@SimpleStrategy@@UAEMPAUCarElt@@PAUSituation@@PAVOpponents@@@Z 10018dc0 f   strategy.obj
 0001:00017de0       ??0ManagedStrategy@@QAE@XZ 10018de0 f   strategy.obj
 0001:00017e20       ??1ManagedStrategy@@UAE@XZ 10018e20 f   strategy.obj
 0001:00017e50       ?needPitstop@ManagedStrategy@@UAE_NPAUCarElt@@PAUSituation@@PAVOpponents@@@Z 10018e50 f   strategy.obj
 0001:00017f30       ?getSpeedFactor@ManagedStrategy@@UAEMPAUCarElt@@PAUSituation@@PAVOpponents@@@Z 10018f30 f   strategy.obj
 0001:00018050       ?RepairDamage@ManagedStrategy@@MAE_NPAUCarElt@@PAVOpponents@@@Z 10019050 f   strategy.obj
 0001:00018360       ??0AbstractStrategy@@QAE@XZ 10019360 f i strategy.obj
 0001:00018380       ??1AbstractStrategy@@UAE@XZ 10019380 f i strategy.obj
 0001:000183a0       ??_EAbstractStrategy@@UAEPAXI@Z 100193a0 f i strategy.obj
 0001:000183a0       ??_GAbstractStrategy@@UAEPAXI@Z 100193a0 f i strategy.obj
 0001:000183e0       ??_EManagedStrategy@@UAEPAXI@Z 100193e0 f i strategy.obj
 0001:000183e0       ??_GManagedStrategy@@UAEPAXI@Z 100193e0 f i strategy.obj
 0001:00018420       ??_ESimpleStrategy@@UAEPAXI@Z 10019420 f i strategy.obj
 0001:00018420       ??_GSimpleStrategy@@UAEPAXI@Z 10019420 f i strategy.obj
 0001:00018460       ?floor@@YAMM@Z             10019460 f i strategy.obj
 0001:00018480       ?getNOpponentsBehind@Opponents@@QAEHXZ 10019480 f i strategy.obj
 0001:000184a0       _floorf                    100194a0 f i strategy.obj
 0001:00018500       ??0TrackData@@QAE@XZ       10019500 f   TrackData.obj
 0001:000185a0       ?setWidth@TrackData@@QAEXM@Z 100195a0 f   TrackData.obj
 0001:00018630       ?setLeftWidth@TrackData@@QAEXM@Z 10019630 f   TrackData.obj
 0001:00018690       ?setRightWidth@TrackData@@QAEXM@Z 10019690 f   TrackData.obj
 0001:000186f0       ?setStep@TrackData@@QAEXM@Z 100196f0 f   TrackData.obj
 0001:00018740       ?AddStraight@TrackData@@QAEXAAVSegmentList@@MMM@Z 10019740 f   TrackData.obj
 0001:00018a80       ?AddCurve@TrackData@@QAEXAAVSegmentList@@MMMM@Z 10019a80 f   TrackData.obj
 0001:00018e60       ?GetPoint@Trajectory@@SA?AVPoint@@AAVSegment@@M@Z 10019e60 f   Trajectory.obj
 0001:00018f10       ?Optimise@Trajectory@@QAEXVSegmentList@@HMPBD_N@Z 10019f10 f   Trajectory.obj
 0001:0001a2a0       ??$_Allocate@H@std@@YAPAHIPAH@Z 1001b2a0 f i Trajectory.obj
 0001:0001a300       ??$_Debug_pointer@H@std@@YAXPAHPB_WI@Z 1001b300 f i Trajectory.obj
 0001:0001a330       ??$_Debug_range2@PAH@std@@YAXPAH0PB_WIUrandom_access_iterator_tag@0@@Z 1001b330 f i Trajectory.obj
 0001:0001a390       ??$_Debug_range@PAH@std@@YAXPAH0PB_WI@Z 1001b390 f i Trajectory.obj
 0001:0001a3e0       ??$_Fill_n@PAHIH@std@@YAPAHPAHIABH@Z 1001b3e0 f i Trajectory.obj
 0001:0001a410       ??$_Iter_cat@PAH@std@@YA?AUrandom_access_iterator_tag@0@ABQAH@Z 1001b410 f i Trajectory.obj
 0001:0001a470       ??$_Move@PAHPAH@std@@YAPAHPAH00@Z 1001b470 f i Trajectory.obj
 0001:0001a4c0       ??$_Move@PAHPAH@std@@YAPAHPAH00U_Scalar_ptr_iterator_tag@0@@Z 1001b4c0 f i Trajectory.obj
 0001:0001a510       ??$_Umove@PAH@?$vector@HV?$allocator@H@std@@@std@@IAEPAHPAH00@Z 1001b510 f i Trajectory.obj
 0001:0001a590       ??$_Uninit_def_fill_n@HIH@std@@YAXPAHIAAU?$_Wrap_alloc@V?$allocator@H@std@@@0@0U_Scalar_ptr_iterator_tag@0@@Z 1001b590 f i Trajectory.obj
 0001:0001a5d0       ??$_Uninit_move@HHH@std@@YAPAHPAH00AAU?$_Wrap_alloc@V?$allocator@H@std@@@0@0U_Scalar_ptr_iterator_tag@0@@Z 1001b5d0 f i Trajectory.obj
 0001:0001a650       ??$_Uninitialized_default_fill_n@PAHIU?$_Wrap_alloc@V?$allocator@H@std@@@std@@@std@@YAXPAHIAAU?$_Wrap_alloc@V?$allocator@H@std@@@0@@Z 1001b650 f i Trajectory.obj
 0001:0001a6b0       ??$_Uninitialized_move@PAHPAHU?$_Wrap_alloc@V?$allocator@H@std@@@std@@@std@@YAPAHPAH00AAU?$_Wrap_alloc@V?$allocator@H@std@@@0@@Z 1001b6b0 f i Trajectory.obj
 0001:0001a710       ??$_Val_type@PAH@std@@YAPAHPAH@Z 1001b710 f i Trajectory.obj
 0001:0001a720       ??0?$_Iterator012@Urandom_access_iterator_tag@std@@HHPBHABHU_Iterator_base12@2@@std@@QAE@ABU01@@Z 1001b720 f i Trajectory.obj
 0001:0001a750       ??0?$_Iterator012@Urandom_access_iterator_tag@std@@HHPBHABHU_Iterator_base12@2@@std@@QAE@XZ 1001b750 f i Trajectory.obj
 0001:0001a780       ??0?$_Vector_const_iterator@V?$_Vector_val@U?$_Simple_types@H@std@@@std@@@std@@QAE@ABV01@@Z 1001b780 f i Trajectory.obj
 0001:0001a7c0       ??0?$_Vector_const_iterator@V?$_Vector_val@U?$_Simple_types@H@std@@@std@@@std@@QAE@PAHPBU_Container_base12@1@@Z 1001b7c0 f i Trajectory.obj
 0001:0001a840       ??0?$_Vector_iterator@V?$_Vector_val@U?$_Simple_types@H@std@@@std@@@std@@QAE@ABV01@@Z 1001b840 f i Trajectory.obj
 0001:0001a870       ??0?$_Vector_iterator@V?$_Vector_val@U?$_Simple_types@H@std@@@std@@@std@@QAE@PAHPBU_Container_base12@1@@Z 1001b870 f i Trajectory.obj
 0001:0001a8b0       ??1?$_Iterator012@Urandom_access_iterator_tag@std@@HHPBHABHU_Iterator_base12@2@@std@@QAE@XZ 1001b8b0 f i Trajectory.obj
 0001:0001a8e0       ??1?$_Vector_const_iterator@V?$_Vector_val@U?$_Simple_types@H@std@@@std@@@std@@QAE@XZ 1001b8e0 f i Trajectory.obj
 0001:0001a910       ??1?$_Vector_iterator@V?$_Vector_val@U?$_Simple_types@H@std@@@std@@@std@@QAE@XZ 1001b910 f i Trajectory.obj
 0001:0001a940       ??8?$_Vector_const_iterator@V?$_Vector_val@U?$_Simple_types@H@std@@@std@@@std@@QBE_NABV01@@Z 1001b940 f i Trajectory.obj
 0001:0001a9a0       ??9?$_Vector_const_iterator@V?$_Vector_val@U?$_Simple_types@H@std@@@std@@@std@@QBE_NABV01@@Z 1001b9a0 f i Trajectory.obj
 0001:0001a9f0       ??A?$vector@HV?$allocator@H@std@@@std@@QAEAAHI@Z 1001b9f0 f i Trajectory.obj
 0001:0001aa90       ??A?$vector@VSegment@@V?$allocator@VSegment@@@std@@@std@@QAEAAVSegment@@I@Z 1001ba90 f i Trajectory.obj
 0001:0001ab30       ??ASegmentList@@QAEAAVSegment@@H@Z 1001bb30 f i Trajectory.obj
 0001:0001ab60       ??GPoint@@QAE?AV0@ABV0@@Z  1001bb60 f i Trajectory.obj
 0001:0001ac20       ??H?$_Vector_iterator@V?$_Vector_val@U?$_Simple_types@H@std@@@std@@@std@@QBE?AV01@H@Z 1001bc20 f i Trajectory.obj
 0001:0001ad00       ??KPoint@@QAE?AV0@ABM@Z    1001bd00 f i Trajectory.obj
 0001:0001adc0       ??M?$_Vector_const_iterator@V?$_Vector_val@U?$_Simple_types@H@std@@@std@@@std@@QBE_NABV01@@Z 1001bdc0 f i Trajectory.obj
 0001:0001ae20       ??Y?$_Vector_const_iterator@V?$_Vector_val@U?$_Simple_types@H@std@@@std@@@std@@QAEAAV01@H@Z 1001be20 f i Trajectory.obj
 0001:0001af00       ??Y?$_Vector_iterator@V?$_Vector_val@U?$_Simple_types@H@std@@@std@@@std@@QAEAAV01@H@Z 1001bf00 f i Trajectory.obj
 0001:0001af30       ?Length@Point@@QAEMXZ      1001bf30 f i Trajectory.obj
 0001:0001afb0       ?Normalise@Point@@QAEXXZ   1001bfb0 f i Trajectory.obj
 0001:0001b050       ?_Compat@?$_Vector_const_iterator@V?$_Vector_val@U?$_Simple_types@H@std@@@std@@@std@@QBEXABV12@@Z 1001c050 f i Trajectory.obj
 0001:0001b100       ?_Grow_to@?$vector@HV?$allocator@H@std@@@std@@IBEII@Z 1001c100 f i Trajectory.obj
 0001:0001b180       ?_Make_iter@?$vector@HV?$allocator@H@std@@@std@@QBE?AV?$_Vector_iterator@V?$_Vector_val@U?$_Simple_types@H@std@@@std@@@2@V?$_Vector_const_iterator@V?$_Vector_val@U?$_Simple_types@H@std@@@std@@@2@@Z 1001c180 f i Trajectory.obj
 0001:0001b210       ?_Orphan_range@?$vector@HV?$allocator@H@std@@@std@@IBEXPAH0@Z 1001c210 f i Trajectory.obj
 0001:0001b320       ?_Reallocate@?$vector@HV?$allocator@H@std@@@std@@IAEXI@Z 1001c320 f i Trajectory.obj
 0001:0001b480       ?_Reserve@?$vector@HV?$allocator@H@std@@@std@@IAEXI@Z 1001c480 f i Trajectory.obj
 0001:0001b4f0       ?_Unused_capacity@?$vector@HV?$allocator@H@std@@@std@@QBEIXZ 1001c4f0 f i Trajectory.obj
 0001:0001b520       ?_Xlen@?$vector@HV?$allocator@H@std@@@std@@IBEXXZ 1001c520 f i Trajectory.obj
 0001:0001b550       ?allocate@?$_Wrap_alloc@V?$allocator@H@std@@@std@@QAEPAHI@Z 1001c550 f i Trajectory.obj
 0001:0001b580       ?allocate@?$allocator@H@std@@QAEPAHI@Z 1001c580 f i Trajectory.obj
 0001:0001b5b0       ?begin@?$vector@HV?$allocator@H@std@@@std@@QAE?AV?$_Vector_iterator@V?$_Vector_val@U?$_Simple_types@H@std@@@std@@@2@XZ 1001c5b0 f i Trajectory.obj
 0001:0001b5f0       ?capacity@?$vector@HV?$allocator@H@std@@@std@@QBEIXZ 1001c5f0 f i Trajectory.obj
 0001:0001b620       ?clear@?$vector@HV?$allocator@H@std@@@std@@QAEXXZ 1001c620 f i Trajectory.obj
 0001:0001b670       ?end@?$vector@HV?$allocator@H@std@@@std@@QAE?AV?$_Vector_iterator@V?$_Vector_val@U?$_Simple_types@H@std@@@std@@@2@XZ 1001c670 f i Trajectory.obj
 0001:0001b6b0       ?erase@?$vector@HV?$allocator@H@std@@@std@@QAE?AV?$_Vector_iterator@V?$_Vector_val@U?$_Simple_types@H@std@@@std@@@2@V?$_Vector_const_iterator@V?$_Vector_val@U?$_Simple_types@H@std@@@std@@@2@0@Z 1001c6b0 f i Trajectory.obj
 0001:0001b9b0       ?max_size@?$_Wrap_alloc@V?$allocator@H@std@@@std@@QBEIXZ 1001c9b0 f i Trajectory.obj
 0001:0001b9e0       ?max_size@?$allocator@H@std@@QBEIXZ 1001c9e0 f i Trajectory.obj
 0001:0001ba00       ?max_size@?$allocator_traits@V?$allocator@H@std@@@std@@SAIABV?$allocator@H@2@@Z 1001ca00 f i Trajectory.obj
 0001:0001ba20       ?max_size@?$vector@HV?$allocator@H@std@@@std@@QBEIXZ 1001ca20 f i Trajectory.obj
 0001:0001ba60       ?resize@?$vector@HV?$allocator@H@std@@@std@@QAEXI@Z 1001ca60 f i Trajectory.obj
 0001:0001bc70       ?size@?$vector@HV?$allocator@H@std@@@std@@QBEIXZ 1001cc70 f i Trajectory.obj
 0001:0001bca0       ?size@SegmentList@@QAEHXZ  1001cca0 f i Trajectory.obj
 0001:0001bcc4       ?GfParmReadFile@@YAPAXPBDH@Z 1001ccc4 f   tgf:tgf.dll
 0001:0001bcca       ?GfParmGetStr@@YAPBDPAXPBD11@Z 1001ccca f   tgf:tgf.dll
 0001:0001bcd0       ?GfParmGetNum@@YAMPAXPBD11M@Z 1001ccd0 f   tgf:tgf.dll
 0001:0001bcd6       ?GetLocalDir@@YAPADXZ      1001ccd6 f   tgf:tgf.dll
 0001:0001bcdc       ?GfCreateDir@@YAHPAD@Z     1001ccdc f   tgf:tgf.dll
 0001:0001bce2       ?_tgf_win_strdup@@YAPADPBD@Z 1001cce2 f   tgf:tgf.dll
 0001:0001bce8       ?GfParmSetNum@@YAHPAXPBD11M@Z 1001cce8 f   tgf:tgf.dll
 0001:0001bcee       ?RtTrackSideTgAngleL@@YAMPAUtTrkLocPos@@@Z 1001ccee f   robottools:robottools.dll
 0001:0001bcf4       ?RtDistToPit@@YAHPAUCarElt@@PAUtTrack@@PAM2@Z 1001ccf4 f   robottools:robottools.dll
 0001:0001bd00       ?sgdSqrt@@YANN@Z           1001cd00 f i sg_vs2008_32:sgd.obj
 0001:0001bd10       ?sgdSquare@@YANN@Z         1001cd10 f i sg_vs2008_32:sgd.obj
 0001:0001bd20       ?sgdAbs@@YANN@Z            1001cd20 f i sg_vs2008_32:sgd.obj
 0001:0001bd40       ?sgdASin@@YANN@Z           1001cd40 f i sg_vs2008_32:sgd.obj
 0001:0001bd50       ?sgdACos@@YANN@Z           1001cd50 f i sg_vs2008_32:sgd.obj
 0001:0001bd60       ?sgdATan2@@YANNN@Z         1001cd60 f i sg_vs2008_32:sgd.obj
 0001:0001bd80       ?sgdSin@@YANN@Z            1001cd80 f i sg_vs2008_32:sgd.obj
 0001:0001bd90       ?sgdCos@@YANN@Z            1001cd90 f i sg_vs2008_32:sgd.obj
 0001:0001bda0       ?sgdZeroVec3@@YAXQAN@Z     1001cda0 f i sg_vs2008_32:sgd.obj
 0001:0001bdb0       ?sgdSetVec3@@YAXQANNNN@Z   1001cdb0 f i sg_vs2008_32:sgd.obj
 0001:0001bdd0       ?sgdSetVec4@@YAXQANNNNN@Z  1001cdd0 f i sg_vs2008_32:sgd.obj
 0001:0001bdf0       ?sgdCopyVec3@@YAXQANQBN@Z  1001cdf0 f i sg_vs2008_32:sgd.obj
 0001:0001be10       ?sgdCopyVec4@@YAXQANQBN@Z  1001ce10 f i sg_vs2008_32:sgd.obj
 0001:0001be30       ?sgdAddVec3@@YAXQANQBN1@Z  1001ce30 f i sg_vs2008_32:sgd.obj
 0001:0001be60       ?sgdSubVec2@@YAXQANQBN1@Z  1001ce60 f i sg_vs2008_32:sgd.obj
 0001:0001be80       ?sgdSubVec3@@YAXQANQBN1@Z  1001ce80 f i sg_vs2008_32:sgd.obj
 0001:0001beb0       ?sgdNegateVec3@@YAXQAN@Z   1001ceb0 f i sg_vs2008_32:sgd.obj
 0001:0001bed0       ?sgdScaleVec2@@YAXQANN@Z   1001ced0 f i sg_vs2008_32:sgd.obj
 0001:0001bef0       ?sgdScaleVec3@@YAXQANN@Z   1001cef0 f i sg_vs2008_32:sgd.obj
 0001:0001bf10       ?sgdScaleVec3@@YAXQANQBNN@Z 1001cf10 f i sg_vs2008_32:sgd.obj
 0001:0001bf40       ?sgdScaleVec4@@YAXQANQBNN@Z 1001cf40 f i sg_vs2008_32:sgd.obj
 0001:0001bf70       ?sgdAddScaledVec3@@YAXQANQBN1N@Z 1001cf70 f i sg_vs2008_32:sgd.obj
 0001:0001bfa0       ?sgdScalarProductVec2@@YANQBN0@Z 1001cfa0 f i sg_vs2008_32:sgd.obj
 0001:0001bfc0       ?sgdScalarProductVec3@@YANQBN0@Z 1001cfc0 f i sg_vs2008_32:sgd.obj
 0001:0001bfe0       ?sgdScalarProductVec4@@YANQBN0@Z 1001cfe0 f i sg_vs2008_32:sgd.obj
 0001:0001c010       ?sgdDistanceSquaredVec3@@YANQBN0@Z 1001d010 f i sg_vs2008_32:sgd.obj
 0001:0001c040       ?sgdDistanceVec3@@YANQBN0@Z 1001d040 f i sg_vs2008_32:sgd.obj
 0001:0001c070       ?sgdLengthVec2@@YANQBN@Z   1001d070 f i sg_vs2008_32:sgd.obj
 0001:0001c090       ?sgdLengthVec3@@YANQBN@Z   1001d090 f i sg_vs2008_32:sgd.obj
 0001:0001c0c0       ?sgdNormaliseVec2@@YAXQAN@Z 1001d0c0 f i sg_vs2008_32:sgd.obj
 0001:0001c0f0       ?sgdNormaliseVec3@@YAXQAN@Z 1001d0f0 f i sg_vs2008_32:sgd.obj
 0001:0001c130       ?sgdNormaliseVec3@@YAXQANQBN@Z 1001d130 f i sg_vs2008_32:sgd.obj
 0001:0001c170       ?sgdCopyMat4@@YAXQAY03NQAY03$$CBN@Z 1001d170 f i sg_vs2008_32:sgd.obj
 0001:0001c1e0       ?sgdScaleMat4@@YAXQAY03NQAY03$$CBNN@Z 1001d1e0 f i sg_vs2008_32:sgd.obj
 0001:0001c270       ?sgdMakeIdentMat4@@YAXQAY03N@Z 1001d270 f i sg_vs2008_32:sgd.obj
 0001:0001c2b0       ?sgdLineSegment3ToLine3@@YAXPAUsgdLine3@@UsgdLineSegment3@@@Z 1001d2b0 f i sg_vs2008_32:sgd.obj
 0001:0001c320       ?sgdAngleBetweenNormalizedVec3@@YANQAN0@Z 1001d320 f i sg_vs2008_32:sgd.obj
 0001:0001c390       ?getCenter@sgdSphere@@QBEPBNXZ 1001d390 f i sg_vs2008_32:sgd.obj
 0001:0001c3a0       ?getRadius@sgdSphere@@QBENXZ 1001d3a0 f i sg_vs2008_32:sgd.obj
 0001:0001c3b0       ?isEmpty@sgdSphere@@QBEHXZ 1001d3b0 f i sg_vs2008_32:sgd.obj
 0001:0001c3d0       ?getMin@sgdBox@@QBEPBNXZ   1001d3d0 f i sg_vs2008_32:sgd.obj
 0001:0001c3e0       ?getMax@sgdBox@@QBEPBNXZ   1001d3e0 f i sg_vs2008_32:sgd.obj
 0001:0001c3f0       ?isEmpty@sgdBox@@QBEHXZ    1001d3f0 f i sg_vs2008_32:sgd.obj
 0001:0001c420       ?sgdVectorProductVec3@@YAXQANQBN1@Z 1001d420 f   sg_vs2008_32:sgd.obj
 0001:0001c460       ?_sgdClampToUnity@@YANN@Z  1001d460 f i sg_vs2008_32:sgd.obj
 0001:0001c490       ?sgdCompare3DSqdDist@@YAHQBN0N@Z 1001d490 f   sg_vs2008_32:sgd.obj
 0001:0001c4f0       ?sgdMakeRotMat4@@YAXQAY03NNQBN@Z 1001d4f0 f   sg_vs2008_32:sgd.obj
 0001:0001c620       ?sgdMakePickMatrix@@YAXQAY03NNNNNQAN@Z 1001d620 f   sg_vs2008_32:sgd.obj
 0001:0001c6a0       ?sgdMakeLookAtMat4@@YAXQAY03NQBN11@Z 1001d6a0 f   sg_vs2008_32:sgd.obj
 0001:0001c820       ?sgdAngleBetweenVec3@@YANQAN0@Z 1001d820 f   sg_vs2008_32:sgd.obj
 0001:0001c8c0       ?sgdAngleBetweenNormalizedVec3@@YANQAN00@Z 1001d8c0 f   sg_vs2008_32:sgd.obj
 0001:0001ca50       ?sgdAngleBetweenVec3@@YANQAN00@Z 1001da50 f   sg_vs2008_32:sgd.obj
 0001:0001caf0       ?extend@sgdBox@@QAEXQBN@Z  1001daf0 f   sg_vs2008_32:sgd.obj
 0001:0001cbc0       ?extend@sgdBox@@QAEXPBV1@@Z 1001dbc0 f   sg_vs2008_32:sgd.obj
 0001:0001cc50       ?extend@sgdBox@@QAEXPBVsgdSphere@@@Z 1001dc50 f   sg_vs2008_32:sgd.obj
 0001:0001ccc0       ?intersects@sgdBox@@QBEHQBN@Z 1001dcc0 f   sg_vs2008_32:sgd.obj
 0001:0001ce00       ?extend@sgdSphere@@QAEXQBN@Z 1001de00 f   sg_vs2008_32:sgd.obj
 0001:0001ceb0       ?extend@sgdSphere@@QAEXPBVsgdBox@@@Z 1001deb0 f   sg_vs2008_32:sgd.obj
 0001:0001d040       ?extend@sgdSphere@@QAEXPBV1@@Z 1001e040 f   sg_vs2008_32:sgd.obj
 0001:0001d110       ?intersects@sgdSphere@@QBEHPBVsgdBox@@@Z 1001e110 f   sg_vs2008_32:sgd.obj
 0001:0001d1c0       ?update@sgdFrustum@@AAEXXZ 1001e1c0 f   sg_vs2008_32:sgd.obj
 0001:0001d5c0       ?contains@sgdFrustum@@QBEHPBVsgdSphere@@@Z 1001e5c0 f   sg_vs2008_32:sgd.obj
 0001:0001d730       ?sgdDistSquaredToLineVec3@@YANUsgdLine3@@QBN@Z 1001e730 f   sg_vs2008_32:sgd.obj
 0001:0001d770       ?sgdDistSquaredToLineSegmentVec3@@YANUsgdLineSegment3@@QBN@Z 1001e770 f   sg_vs2008_32:sgd.obj
 0001:0001d880       ?sgdMakeCoordMat4@@YAXQAY03NNNNNNN@Z 1001e880 f   sg_vs2008_32:sgd.obj
 0001:0001da40       ?sgdMakeTransMat4@@YAXQAY03NQBN@Z 1001ea40 f   sg_vs2008_32:sgd.obj
 0001:0001da90       ?sgdMakeTransMat4@@YAXQAY03NNNN@Z 1001ea90 f   sg_vs2008_32:sgd.obj
 0001:0001dae0       ?sgdSetCoord@@YAXPAUsgdCoord@@QAY03$$CBN@Z 1001eae0 f   sg_vs2008_32:sgd.obj
 0001:0001dde0       ?sgdMakeNormal@@YAXQANQBN1@Z 1001ede0 f   sg_vs2008_32:sgd.obj
 0001:0001de30       ?sgdMakeNormal@@YAXQANQBN11@Z 1001ee30 f   sg_vs2008_32:sgd.obj
 0001:0001ded0       ?sgdMultMat4@@YAXQAY03NQAY03$$CBN1@Z 1001eed0 f   sg_vs2008_32:sgd.obj
 0001:0001df80       ?sgdTransposeNegateMat4@@YAXQAY03NQAY03$$CBN@Z 1001ef80 f   sg_vs2008_32:sgd.obj
 0001:0001e020       ?sgdTransposeNegateMat4@@YAXQAY03N@Z 1001f020 f   sg_vs2008_32:sgd.obj
 0001:0001e050       ?sgdInvertMat4@@YAXQAY03NQAY03$$CBN@Z 1001f050 f   sg_vs2008_32:sgd.obj
 0001:0001e270       ?sgdXformVec3@@YAXQANQBNQAY03$$CBN@Z 1001f270 f   sg_vs2008_32:sgd.obj
 0001:0001e2d0       ?sgdXformPnt3@@YAXQANQBNQAY03$$CBN@Z 1001f2d0 f   sg_vs2008_32:sgd.obj
 0001:0001e330       ?sgdXformPnt4@@YAXQANQBNQAY03$$CBN@Z 1001f330 f   sg_vs2008_32:sgd.obj
 0001:0001e3c0       ?sgdFullXformPnt3@@YAXQANQBNQAY03$$CBN@Z 1001f3c0 f   sg_vs2008_32:sgd.obj
 0001:0001e420       ?sgdHPRfromVec3@@YAXQAN0@Z 1001f420 f   sg_vs2008_32:sgd.obj
 0001:0001e4c0       ?sgdQuatToAngleAxis@@YAXPANQANQBN@Z 1001f4c0 f   sg_vs2008_32:sgd.obj
 0001:0001e540       ?sgdAngleAxisToQuat@@YAXQANNQBN@Z 1001f540 f   sg_vs2008_32:sgd.obj
 0001:0001e5e0       ?sgdMatrixToQuat@@YAXQANQAY03$$CBN@Z 1001f5e0 f   sg_vs2008_32:sgd.obj
 0001:0001e740       ?sgdMultQuat@@YAXQANQBN1@Z 1001f740 f   sg_vs2008_32:sgd.obj
 0001:0001e810       ?sgdMultQuat2@@YAXQANQBN1@Z 1001f810 f   sg_vs2008_32:sgd.obj
 0001:0001e8e0       ?sgdEulerToQuat@@YAXQANQBN@Z 1001f8e0 f   sg_vs2008_32:sgd.obj
 0001:0001e9d0       ?sgdQuatToEuler@@YAXQANQBN@Z 1001f9d0 f   sg_vs2008_32:sgd.obj
 0001:0001eb30       ?sgdQuatToMatrix@@YAXQAY03NQBN@Z 1001fb30 f   sg_vs2008_32:sgd.obj
 0001:0001ec00       ?sgdMakeRotMat42@@YAXQAY03NQAN@Z 1001fc00 f   sg_vs2008_32:sgd.obj
 0001:0001ecd0       ?sgdSlerpQuat2@@YAXQANQBN1N@Z 1001fcd0 f   sg_vs2008_32:sgd.obj
 0001:0001edf0       ?sgdSlerpQuat@@YAXQANQBN1N@Z 1001fdf0 f   sg_vs2008_32:sgd.obj
 0001:0001eee0       ?sgdRotateVecQuat@@YAXQAN0@Z 1001fee0 f   sg_vs2008_32:sgd.obj
 0001:0001efd0       ?sgdRotateCoordQuat@@YAXQAN0@Z 1001ffd0 f   sg_vs2008_32:sgd.obj
 0001:0001f0c0       ?sgdDistSquaredToLineLineSegment@@YANUsgdLineSegment3@@UsgdLine3@@@Z 100200c0 f   sg_vs2008_32:sgd.obj
 0001:0001f2d0       ?sgdReflectInPlaneVec3@@YAXQANQBN1@Z 100202d0 f   sg_vs2008_32:sgd.obj
 0001:0001f320       ?sgdClassifyMat4@@YAHQAY03$$CBN@Z 10020320 f   sg_vs2008_32:sgd.obj
 0001:0001f5e0       ?sgdTriangleSolver_SAStoArea@@YANNNN@Z 100205e0 f   sg_vs2008_32:sgd.obj
 0001:0001f600       ?sgdTriangleSolver_SSStoArea@@YANNNN@Z 10020600 f   sg_vs2008_32:sgd.obj
 0001:0001f650       ?sgdTriangleSolver_SSStoAAA@@YAXNNNPAN00@Z 10020650 f   sg_vs2008_32:sgd.obj
 0001:0001f7f0       ?sgdTriangleSolver_SAStoASA@@YAXNNNPAN00@Z 100207f0 f   sg_vs2008_32:sgd.obj
 0001:0001f870       ?sgdTriangleSolver_ASAtoSAS@@YAXNNNPAN00@Z 10020870 f   sg_vs2008_32:sgd.obj
 0001:0001f920       ?sgdTriangleSolver_ASStoSAA@@YAXNNNHPAN00@Z 10020920 f   sg_vs2008_32:sgd.obj
 0001:0001f9b0       ?sgdTriangleSolver_SAAtoASS@@YAXNNNPAN00@Z 100209b0 f   sg_vs2008_32:sgd.obj
 0001:0001fa00       ?sgdTriArea@@YANQAN00@Z    10020a00 f   sg_vs2008_32:sgd.obj
 0001:0001fae0       ?getOutcode@sgdFrustum@@ABEHQBN@Z 10020ae0 f   sg_vs2008_32:sgd.obj
 0001:0001fbc0       ?contains@sgdFrustum@@QBEHQBN@Z 10020bc0 f   sg_vs2008_32:sgd.obj
 0001:0001fbe0       ?contains@sgdFrustum@@QBEHPBVsgdBox@@@Z 10020be0 f   sg_vs2008_32:sgd.obj
 0001:0001fd00       ?sgdPreMultMat4@@YAXQAY03NQAY03$$CBN@Z 10020d00 f   sg_vs2008_32:sgd.obj
 0001:0001fd40       ?sgdPostMultMat4@@YAXQAY03NQAY03$$CBN@Z 10020d40 f   sg_vs2008_32:sgd.obj
 0001:0001fd80       ?sgdQuatToAngleAxis@@YAXPAN000QBN@Z 10020d80 f   sg_vs2008_32:sgd.obj
 0001:0001fdc0       ?sgdAngleAxisToQuat@@YAXQANNNNN@Z 10020dc0 f   sg_vs2008_32:sgd.obj
 0001:0001fe00       ?sgdTriangleSolver_ASAtoArea@@YANNNN@Z 10020e00 f   sg_vs2008_32:sgd.obj
 0001:0001fe70       ?sgdTriangleSolver_ASStoArea@@YANNNNH@Z 10020e70 f   sg_vs2008_32:sgd.obj
 0001:0001fed0       ?sgdTriangleSolver_SAAtoArea@@YANNNN@Z 10020ed0 f   sg_vs2008_32:sgd.obj
 0001:0001ff30       ?ulSetError@@YAXW4ulSeverity@@PBDZZ 10020f30 f   ul_vs2008_32:ulError.obj
 0001:0001ffa0       ?ulGetError@@YAPADXZ       10020fa0 f   ul_vs2008_32:ulError.obj
 0001:0001ffb0       ?ulClearError@@YAXXZ       10020fb0 f   ul_vs2008_32:ulError.obj
 0001:0001ffc0       ?ulGetErrorCallback@@YAP6AXW4ulSeverity@@PAD@ZXZ 10020fc0 f   ul_vs2008_32:ulError.obj
 0001:0001ffd0       ?ulSetErrorCallback@@YAXP6AXW4ulSeverity@@PAD@Z@Z 10020fd0 f   ul_vs2008_32:ulError.obj
 0001:0001ffda       ?NewStringBuffer@@YAPAUStringBuffer_@@H@Z 10020fda f   learning:learning.dll
 0001:0001ffe0       ?FreeStringBuffer@@YAXPAPAUStringBuffer_@@@Z 10020fe0 f   learning:learning.dll
 0001:0001ffe6       ?SetStringBufferLength@@YAPAUStringBuffer_@@PAU1@I@Z 10020fe6 f   learning:learning.dll
 0001:0001fff0       ??0_Init_locks@std@@QAE@XZ 10020ff0 f   libcpmtd:xlock.obj
 0001:00020040       ??0_Lockit@std@@QAE@H@Z    10021040 f   libcpmtd:xlock.obj
 0001:00020090       ??0_Lockit@std@@QAE@XZ     10021090 f   libcpmtd:xlock.obj
 0001:000200e0       ??1_Init_locks@std@@QAE@XZ 100210e0 f   libcpmtd:xlock.obj
 0001:00020130       ??1_Lockit@std@@QAE@XZ     10021130 f   libcpmtd:xlock.obj
 0001:00020170       ?_Init_locks_ctor@_Init_locks@std@@CAXPAV12@@Z 10021170 f   libcpmtd:xlock.obj
 0001:000201c0       ?_Init_locks_dtor@_Init_locks@std@@CAXPAV12@@Z 100211c0 f   libcpmtd:xlock.obj
 0001:00020210       ?_Lockit_ctor@_Lockit@std@@CAXPAV12@@Z 10021210 f   libcpmtd:xlock.obj
 0001:00020230       ?_Lockit_ctor@_Lockit@std@@CAXPAV12@H@Z 10021230 f   libcpmtd:xlock.obj
 0001:00020270       ?_Lockit_ctor@_Lockit@std@@SAXH@Z 10021270 f   libcpmtd:xlock.obj
 0001:000202a0       ?_Lockit_dtor@_Lockit@std@@CAXPAV12@@Z 100212a0 f   libcpmtd:xlock.obj
 0001:000202c0       ?_Lockit_dtor@_Lockit@std@@SAXH@Z 100212c0 f   libcpmtd:xlock.obj
 0001:000202f0       ??_U@YAPAXI@Z              100212f0 f   libcpmtd:newaop.obj
 0001:00020310       ?_Debug_message@std@@YAXPBG0I@Z 10021310 f   libcpmtd:stdthrow.obj
 0001:00020330       ?_Debug_message@std@@YAXPB_W0I@Z 10021330 f   libcpmtd:stdthrow.obj
 0001:00020360       ??$_Allocate@D@std@@YAPADIPAD@Z 10021360 f i libcpmtd:xthrow.obj
 0001:000203a0       ??$_Debug_pointer@D@std@@YAXPBDPB_WI@Z 100213a0 f i libcpmtd:xthrow.obj
 0001:000203c0       ??$addressof@D@std@@YAPADAAD@Z 100213c0 f i libcpmtd:xthrow.obj
 0001:000203d0       ??$construct@PADAAPAD@?$_Wrap_alloc@V?$allocator@D@std@@@std@@QAEXPAPADAAPAD@Z 100213d0 f i libcpmtd:xthrow.obj
 0001:00020400       ??$construct@PADAAPAD@?$allocator@D@std@@QAEXPAPADAAPAD@Z 10021400 f i libcpmtd:xthrow.obj
 0001:00020490       ??$construct@PADAAPAD@?$allocator_traits@V?$allocator@D@std@@@std@@SAXAAV?$allocator@D@1@PAPADAAPAD@Z 10021490 f i libcpmtd:xthrow.obj
 0001:000204b0       ??$destroy@PAD@?$_Wrap_alloc@V?$allocator@D@std@@@std@@QAEXPAPAD@Z 100214b0 f i libcpmtd:xthrow.obj
 0001:000204d0       ??$destroy@PAD@?$allocator@D@std@@QAEXPAPAD@Z 100214d0 f i libcpmtd:xthrow.obj
 0001:000204e0       ??$destroy@PAD@?$allocator_traits@V?$allocator@D@std@@@std@@SAXAAV?$allocator@D@1@PAPAD@Z 100214e0 f i libcpmtd:xthrow.obj
 0001:00020500       ??$forward@AAPAD@std@@YAAAPADAAPAD@Z 10021500 f i libcpmtd:xthrow.obj
 0001:00020510       ??0?$_String_alloc@$0A@U?$_String_base_types@DV?$allocator@D@std@@@std@@@std@@QAE@ABV?$allocator@D@1@@Z 10021510 f i libcpmtd:xthrow.obj
 0001:00020570       ??0?$_String_val@U?$_Simple_types@D@std@@@std@@QAE@XZ 10021570 f i libcpmtd:xthrow.obj
 0001:000205a0       ??0?$_Wrap_alloc@V?$allocator@D@std@@@std@@QAE@XZ 100215a0 f i libcpmtd:xthrow.obj
 0001:000205c0       ??0?$allocator@D@std@@QAE@XZ 100215c0 f i libcpmtd:xthrow.obj
 0001:000205d0       ??0?$basic_string@DU?$char_traits@D@std@@V?$allocator@D@2@@std@@QAE@PBD@Z 100215d0 f i libcpmtd:xthrow.obj
 0001:00020650       ??0_Generic_error_category@std@@QAE@XZ 10021650 f i libcpmtd:xthrow.obj
 0001:00020670       ??0_Ignore@std@@QAE@XZ     10021670 f i libcpmtd:xthrow.obj
 0001:00020680       ??0_Iostream_error_category@std@@QAE@XZ 10021680 f i libcpmtd:xthrow.obj
 0001:000206a0       ??0_System_error_category@std@@QAE@XZ 100216a0 f i libcpmtd:xthrow.obj
 0001:000206c0       ??0bad_alloc@std@@QAE@ABV01@@Z 100216c0 f i libcpmtd:xthrow.obj
 0001:000206f0       ??0bad_alloc@std@@QAE@XZ   100216f0 f i libcpmtd:xthrow.obj
 0001:00020720       ??0bad_function_call@std@@QAE@ABV01@@Z 10021720 f i libcpmtd:xthrow.obj
 0001:00020750       ??0bad_function_call@std@@QAE@PBD@Z 10021750 f i libcpmtd:xthrow.obj
 0001:00020780       ??0error_category@std@@QAE@XZ 10021780 f i libcpmtd:xthrow.obj
 0001:000207a0       ??0error_condition@std@@QAE@HABVerror_category@1@@Z 100217a0 f i libcpmtd:xthrow.obj
 0001:000207d0       ??0id@locale@std@@QAE@I@Z  100217d0 f i libcpmtd:xthrow.obj
 0001:000207f0       ??0length_error@std@@QAE@ABV01@@Z 100217f0 f i libcpmtd:xthrow.obj
 0001:00020820       ??0length_error@std@@QAE@PBD@Z 10021820 f i libcpmtd:xthrow.obj
 0001:00020850       ??0overflow_error@std@@QAE@ABV01@@Z 10021850 f i libcpmtd:xthrow.obj
 0001:00020880       ??0overflow_error@std@@QAE@PBD@Z 10021880 f i libcpmtd:xthrow.obj
 0001:000208b0       ??0regex_error@std@@QAE@ABV01@@Z 100218b0 f i libcpmtd:xthrow.obj
 0001:000208f0       ??0regex_error@std@@QAE@W4error_type@regex_constants@1@@Z 100218f0 f i libcpmtd:xthrow.obj
 0001:00020930       ??0runtime_error@std@@QAE@ABV01@@Z 10021930 f i libcpmtd:xthrow.obj
 0001:00020960       ??0runtime_error@std@@QAE@PBD@Z 10021960 f i libcpmtd:xthrow.obj
 0001:00020990       ??1?$_String_alloc@$0A@U?$_String_base_types@DV?$allocator@D@std@@@std@@@std@@QAE@XZ 10021990 f i libcpmtd:xthrow.obj
 0001:000209b0       ??1?$_String_val@U?$_Simple_types@D@std@@@std@@QAE@XZ 100219b0 f i libcpmtd:xthrow.obj
 0001:000209d0       ??1_Generic_error_category@std@@UAE@XZ 100219d0 f i libcpmtd:xthrow.obj
 0001:000209f0       ??1_Iostream_error_category@std@@UAE@XZ 100219f0 f i libcpmtd:xthrow.obj
 0001:00020a10       ??1_System_error_category@std@@UAE@XZ 10021a10 f i libcpmtd:xthrow.obj
 0001:00020a30       ??1bad_alloc@std@@UAE@XZ   10021a30 f i libcpmtd:xthrow.obj
 0001:00020a50       ??1bad_function_call@std@@UAE@XZ 10021a50 f i libcpmtd:xthrow.obj
 0001:00020a70       ??1error_category@std@@UAE@XZ 10021a70 f i libcpmtd:xthrow.obj
 0001:00020a90       ??1length_error@std@@UAE@XZ 10021a90 f i libcpmtd:xthrow.obj
 0001:00020ab0       ??1overflow_error@std@@UAE@XZ 10021ab0 f i libcpmtd:xthrow.obj
 0001:00020ad0       ??1regex_error@std@@UAE@XZ 10021ad0 f i libcpmtd:xthrow.obj
 0001:00020af0       ??1runtime_error@std@@UAE@XZ 10021af0 f i libcpmtd:xthrow.obj
 0001:00020b10       ??8error_category@std@@QBE_NABV01@@Z 10021b10 f i libcpmtd:xthrow.obj
 0001:00020b40       ??8error_condition@std@@QBE_NABV01@@Z 10021b40 f i libcpmtd:xthrow.obj
 0001:00020ba0       ??_E_Generic_error_category@std@@UAEPAXI@Z 10021ba0 f i libcpmtd:xthrow.obj
 0001:00020ba0       ??_G_Generic_error_category@std@@UAEPAXI@Z 10021ba0 f i libcpmtd:xthrow.obj
 0001:00020bd0       ??_G_Iostream_error_category@std@@UAEPAXI@Z 10021bd0 f i libcpmtd:xthrow.obj
 0001:00020bd0       ??_E_Iostream_error_category@std@@UAEPAXI@Z 10021bd0 f i libcpmtd:xthrow.obj
 0001:00020c00       ??_G_System_error_category@std@@UAEPAXI@Z 10021c00 f i libcpmtd:xthrow.obj
 0001:00020c00       ??_E_System_error_category@std@@UAEPAXI@Z 10021c00 f i libcpmtd:xthrow.obj
 0001:00020c30       ??_Gbad_alloc@std@@UAEPAXI@Z 10021c30 f i libcpmtd:xthrow.obj
 0001:00020c30       ??_Ebad_alloc@std@@UAEPAXI@Z 10021c30 f i libcpmtd:xthrow.obj
 0001:00020c60       ??_Ebad_function_call@std@@UAEPAXI@Z 10021c60 f i libcpmtd:xthrow.obj
 0001:00020c60       ??_Gbad_function_call@std@@UAEPAXI@Z 10021c60 f i libcpmtd:xthrow.obj
 0001:00020c90       ??_Eerror_category@std@@UAEPAXI@Z 10021c90 f i libcpmtd:xthrow.obj
 0001:00020c90       ??_Gerror_category@std@@UAEPAXI@Z 10021c90 f i libcpmtd:xthrow.obj
 0001:00020cc0       ??_Glength_error@std@@UAEPAXI@Z 10021cc0 f i libcpmtd:xthrow.obj
 0001:00020cc0       ??_Elength_error@std@@UAEPAXI@Z 10021cc0 f i libcpmtd:xthrow.obj
 0001:00020cf0       ??_Eoverflow_error@std@@UAEPAXI@Z 10021cf0 f i libcpmtd:xthrow.obj
 0001:00020cf0       ??_Goverflow_error@std@@UAEPAXI@Z 10021cf0 f i libcpmtd:xthrow.obj
 0001:00020d20       ??_Eregex_error@std@@UAEPAXI@Z 10021d20 f i libcpmtd:xthrow.obj
 0001:00020d20       ??_Gregex_error@std@@UAEPAXI@Z 10021d20 f i libcpmtd:xthrow.obj
 0001:00020d50       ??_Eruntime_error@std@@UAEPAXI@Z 10021d50 f i libcpmtd:xthrow.obj
 0001:00020d50       ??_Gruntime_error@std@@UAEPAXI@Z 10021d50 f i libcpmtd:xthrow.obj
 0001:00020d80       ?_Alloc_proxy@?$_String_alloc@$0A@U?$_String_base_types@DV?$allocator@D@std@@@std@@@std@@QAEXXZ 10021d80 f i libcpmtd:xthrow.obj
 0001:00020dd0       ?_Copy@?$basic_string@DU?$char_traits@D@std@@V?$allocator@D@2@@std@@QAEXII@Z 10021dd0 f i libcpmtd:xthrow.obj
 0001:00020f90       ?_Eos@?$basic_string@DU?$char_traits@D@std@@V?$allocator@D@2@@std@@QAEXI@Z 10021f90 f i libcpmtd:xthrow.obj
 0001:00020fd0       ?_Free_proxy@?$_String_alloc@$0A@U?$_String_base_types@DV?$allocator@D@std@@@std@@@std@@QAEXXZ 10021fd0 f i libcpmtd:xthrow.obj
 0001:00021020       ?_Getal@?$_String_alloc@$0A@U?$_String_base_types@DV?$allocator@D@std@@@std@@@std@@QBE?AU?$_Wrap_alloc@V?$allocator@D@std@@@2@XZ 10022020 f i libcpmtd:xthrow.obj
 0001:00021040       ?_Grow@?$basic_string@DU?$char_traits@D@std@@V?$allocator@D@2@@std@@QAE_NI_N@Z 10022040 f i libcpmtd:xthrow.obj
 0001:000210f0       ?_Inside@?$basic_string@DU?$char_traits@D@std@@V?$allocator@D@2@@std@@QAE_NPBD@Z 100220f0 f i libcpmtd:xthrow.obj
 0001:00021130       ?_Myptr@?$_String_val@U?$_Simple_types@D@std@@@std@@QAEPADXZ 10022130 f i libcpmtd:xthrow.obj
 0001:00021170       ?_Myptr@?$_String_val@U?$_Simple_types@D@std@@@std@@QBEPBDXZ 10022170 f i libcpmtd:xthrow.obj
 0001:000211b0       ?_Stringify@regex_error@std@@CAPBDW4error_type@regex_constants@2@@Z 100221b0 f i libcpmtd:xthrow.obj
 0001:00021280       ?_Tidy@?$basic_string@DU?$char_traits@D@std@@V?$allocator@D@2@@std@@QAEX_NI@Z 10022280 f i libcpmtd:xthrow.obj
 0001:00021330       ?_Xbad_alloc@std@@YAXXZ    10022330 f   libcpmtd:xthrow.obj
 0001:00021350       ?_Xbad_function_call@std@@YAXXZ 10022350 f   libcpmtd:xthrow.obj
 0001:00021380       ?_Xinvalid_argument@std@@YAXPBD@Z 10022380 f   libcpmtd:xthrow.obj
 0001:000213b0       ?_Xlen@?$basic_string@DU?$char_traits@D@std@@V?$allocator@D@2@@std@@QBEXXZ 100223b0 f i libcpmtd:xthrow.obj
 0001:000213d0       ?_Xlength_error@std@@YAXPBD@Z 100223d0 f   libcpmtd:xthrow.obj
 0001:00021400       ?_Xout_of_range@std@@YAXPBD@Z 10022400 f   libcpmtd:xthrow.obj
 0001:00021430       ?_Xoverflow_error@std@@YAXPBD@Z 10022430 f   libcpmtd:xthrow.obj
 0001:00021460       ?_Xran@?$basic_string@DU?$char_traits@D@std@@V?$allocator@D@2@@std@@QBEXXZ 10022460 f i libcpmtd:xthrow.obj
 0001:00021480       ?_Xregex_error@std@@YAXW4error_type@regex_constants@1@@Z 10022480 f   libcpmtd:xthrow.obj
 0001:000214b0       ?_Xruntime_error@std@@YAXPBD@Z 100224b0 f   libcpmtd:xthrow.obj
 0001:000214e0       ?allocate@?$_Wrap_alloc@V?$allocator@D@std@@@std@@QAEPADI@Z 100224e0 f i libcpmtd:xthrow.obj
 0001:00021500       ?allocate@?$allocator@D@std@@QAEPADI@Z 10022500 f i libcpmtd:xthrow.obj
 0001:00021520       ?assign@?$basic_string@DU?$char_traits@D@std@@V?$allocator@D@2@@std@@QAEAAV12@ABV12@II@Z 10022520 f i libcpmtd:xthrow.obj
 0001:000215d0       ?assign@?$basic_string@DU?$char_traits@D@std@@V?$allocator@D@2@@std@@QAEAAV12@PBD@Z 100225d0 f i libcpmtd:xthrow.obj
 0001:00021610       ?assign@?$basic_string@DU?$char_traits@D@std@@V?$allocator@D@2@@std@@QAEAAV12@PBDI@Z 10022610 f i libcpmtd:xthrow.obj
 0001:000216b0       ?assign@?$char_traits@D@std@@SAXAADABD@Z 100226b0 f i libcpmtd:xthrow.obj
 0001:000216c0       ?category@error_code@std@@QBEABVerror_category@2@XZ 100226c0 f i libcpmtd:xthrow.obj
 0001:000216e0       ?category@error_condition@std@@QBEABVerror_category@2@XZ 100226e0 f i libcpmtd:xthrow.obj
 0001:00021700       ?copy@?$char_traits@D@std@@SAPADPADPBDI@Z 10022700 f i libcpmtd:xthrow.obj
 0001:00021730       ?deallocate@?$_Wrap_alloc@V?$allocator@D@std@@@std@@QAEXPADI@Z 10022730 f i libcpmtd:xthrow.obj
 0001:00021750       ?deallocate@?$allocator@D@std@@QAEXPADI@Z 10022750 f i libcpmtd:xthrow.obj
 0001:00021770       ?default_error_condition@_System_error_category@std@@UBE?AVerror_condition@2@H@Z 10022770 f i libcpmtd:xthrow.obj
 0001:000217c0       ?default_error_condition@error_category@std@@UBE?AVerror_condition@2@H@Z 100227c0 f i libcpmtd:xthrow.obj
 0001:000217e0       ?equivalent@error_category@std@@UBE_NABVerror_code@2@H@Z 100227e0 f i libcpmtd:xthrow.obj
 0001:00021830       ?equivalent@error_category@std@@UBE_NHABVerror_condition@2@@Z 10022830 f i libcpmtd:xthrow.obj
 0001:00021860       ?erase@?$basic_string@DU?$char_traits@D@std@@V?$allocator@D@2@@std@@QAEAAV12@I@Z 10022860 f i libcpmtd:xthrow.obj
 0001:00021890       ?erase@?$basic_string@DU?$char_traits@D@std@@V?$allocator@D@2@@std@@QAEAAV12@II@Z 10022890 f i libcpmtd:xthrow.obj
 0001:00021920       ?generic_category@std@@YAABVerror_category@1@XZ 10022920 f i libcpmtd:xthrow.obj
 0001:00021930       ?length@?$char_traits@D@std@@SAIPBD@Z 10022930 f i libcpmtd:xthrow.obj
 0001:00021960       ?max_size@?$_Wrap_alloc@V?$allocator@D@std@@@std@@QBEIXZ 10022960 f i libcpmtd:xthrow.obj
 0001:00021980       ?max_size@?$allocator@D@std@@QBEIXZ 10022980 f i libcpmtd:xthrow.obj
 0001:00021990       ?max_size@?$allocator_traits@V?$allocator@D@std@@@std@@SAIABV?$allocator@D@2@@Z 10022990 f i libcpmtd:xthrow.obj
 0001:000219a0       ?max_size@?$basic_string@DU?$char_traits@D@std@@V?$allocator@D@2@@std@@QBEIXZ 100229a0 f i libcpmtd:xthrow.obj
 0001:000219e0       ?message@_Generic_error_category@std@@UBE?AV?$basic_string@DU?$char_traits@D@std@@V?$allocator@D@2@@2@H@Z 100229e0 f i libcpmtd:xthrow.obj
 0001:00021a40       ?message@_Iostream_error_category@std@@UBE?AV?$basic_string@DU?$char_traits@D@std@@V?$allocator@D@2@@2@H@Z 10022a40 f i libcpmtd:xthrow.obj
 0001:00021aa0       ?message@_System_error_category@std@@UBE?AV?$basic_string@DU?$char_traits@D@std@@V?$allocator@D@2@@2@H@Z 10022aa0 f i libcpmtd:xthrow.obj
 0001:00021b00       ?move@?$char_traits@D@std@@SAPADPADPBDI@Z 10022b00 f i libcpmtd:xthrow.obj
 0001:00021b30       ?name@_Generic_error_category@std@@UBEPBDXZ 10022b30 f i libcpmtd:xthrow.obj
 0001:00021b40       ?name@_Iostream_error_category@std@@UBEPBDXZ 10022b40 f i libcpmtd:xthrow.obj
 0001:00021b50       ?name@_System_error_category@std@@UBEPBDXZ 10022b50 f i libcpmtd:xthrow.obj
 0001:00021b60       ?size@?$basic_string@DU?$char_traits@D@std@@V?$allocator@D@2@@std@@QBEIXZ 10022b60 f i libcpmtd:xthrow.obj
 0001:00021b80       ?system_category@std@@YAABVerror_category@1@XZ 10022b80 f i libcpmtd:xthrow.obj
 0001:00021b90       ?value@error_code@std@@QBEHXZ 10022b90 f i libcpmtd:xthrow.obj
 0001:00021ba0       ?value@error_condition@std@@QBEHXZ 10022ba0 f i libcpmtd:xthrow.obj
 0001:00021bb0       ?what@bad_function_call@std@@UBEPBDXZ 10022bb0 f i libcpmtd:xthrow.obj
 0001:00021bc0       __Mtxdst                   10022bc0 f   libcpmtd:xmtx.obj
 0001:00021bd0       __Mtxinit                  10022bd0 f   libcpmtd:xmtx.obj
 0001:00021bf0       __Mtxlock                  10022bf0 f   libcpmtd:xmtx.obj
 0001:00021c00       __Mtxunlock                10022c00 f   libcpmtd:xmtx.obj
 0001:00021c10       __Once                     10022c10 f   libcpmtd:xmtx.obj
 0001:00021c70       ?_Syserror_map@std@@YAPBDH@Z 10022c70 f   libcpmtd:syserror.obj
 0001:00021cc0       ?_Winerror_map@std@@YAPBDH@Z 10022cc0 f   libcpmtd:syserror.obj
 0001:00021d10       ??2@YAPAXI@Z               10022d10 f   LIBCMTD:new.obj
 0001:00021d60       ??3@YAXPAX@Z               10022d60 f   LIBCMTD:dbgdel.obj
 0001:00021e50       _cos                       10022e50 f   LIBCMTD:cos.obj
 0001:00021e90       __CIcos                    10022e90 f   LIBCMTD:cos.obj
 0001:00021ecb       __CIcos_default            10022ecb f   LIBCMTD:cos.obj
 0001:00021edf       __cos_default              10022edf     LIBCMTD:cos.obj
 0001:00021f80       _sin                       10022f80 f   LIBCMTD:sin.obj
 0001:00021fc0       __CIsin                    10022fc0 f   LIBCMTD:sin.obj
 0001:00021ffb       __CIsin_default            10022ffb f   LIBCMTD:sin.obj
 0001:0002200f       __sin_default              1002300f     LIBCMTD:sin.obj
 0001:000220b0       @_RTC_AllocaHelper@12      100230b0 f   LIBCMTD:stack.obj
 0001:000220f0       @_RTC_CheckStackVars2@12   100230f0 f   LIBCMTD:stack.obj
 0001:000221d0       @_RTC_CheckStackVars@8     100231d0 f   LIBCMTD:stack.obj
 0001:00022230       __RTC_CheckEsp             10023230 f   LIBCMTD:stack.obj
 0001:00022260       @__security_check_cookie@4 10023260 f   LIBCMTD:secchk.obj
 0001:00022270       __RTC_InitBase             10023270 f   LIBCMTD:init.obj
 0001:000222a0       __RTC_Shutdown             100232a0 f   LIBCMTD:init.obj
 0001:000223c0       ?_CallCatchBlock2@@YAPAXPAUEHRegistrationNode@@PBU_s_FuncInfo@@PAXHK@Z 100233c0 f   LIBCMTD:_trnsctrl_.obj
 0001:00022430       ?_CallMemberFunction0@@YGXPAX0@Z 10023430 f   LIBCMTD:_trnsctrl_.obj
 0001:00022440       ?_CallMemberFunction1@@YGXPAX00@Z 10023440 f   LIBCMTD:_trnsctrl_.obj
 0001:00022450       ?_CallMemberFunction2@@YGXPAX00H@Z 10023450 f   LIBCMTD:_trnsctrl_.obj
 0001:00022460       ?_CallSETranslator@@YAHPAUEHExceptionRecord@@PAUEHRegistrationNode@@PAX2PBU_s_FuncInfo@@H1@Z 10023460 f   LIBCMTD:_trnsctrl_.obj
 0001:00022550       ?_GetRangeOfTrysToCheck@@YAPBU_s_TryBlockMapEntry@@PBU_s_FuncInfo@@HHPAI1@Z 10023550 f   LIBCMTD:_trnsctrl_.obj
 0001:000225e0       ?_JumpToContinuation@@YGXPAXPAUEHRegistrationNode@@@Z 100235e0 f   LIBCMTD:_trnsctrl_.obj
 0001:00022620       ?_UnwindNestedFrames@@YGXPAUEHRegistrationNode@@PAUEHExceptionRecord@@@Z 10023620 f   LIBCMTD:_trnsctrl_.obj
 0001:00022680       __CreateFrameInfo          10023680 f   LIBCMTD:_trnsctrl_.obj
 0001:000226b0       __FindAndUnlinkFrame       100236b0 f   LIBCMTD:_trnsctrl_.obj
 0001:00022710       __IsExceptionObjectToBeDestroyed 10023710 f   LIBCMTD:_trnsctrl_.obj
 0001:00022740       ___CxxFrameHandler         10023740 f   LIBCMTD:_trnsctrl_.obj
 0001:00022780       ___CxxFrameHandler2        10023780 f   LIBCMTD:_trnsctrl_.obj
 0001:000227c0       ___CxxFrameHandler3        100237c0 f   LIBCMTD:_trnsctrl_.obj
 0001:00022800       ___CxxLongjmpUnwind@4      10023800 f   LIBCMTD:_trnsctrl_.obj
 0001:00022830       __fpmath                   10023830 f   LIBCMTD:fpinit.obj
 0001:00022850       ___setfflag                10023850 f   LIBCMTD:fpinit.obj
 0001:00022870       __cfltcvt_init             10023870 f   LIBCMTD:fpinit.obj
 0001:00022930       ?_invalid_parameter@@YAXPBG00II@Z 10023930 f   LIBCMTD:invarg.obj
 0001:00022960       ?_invoke_watson@@YAXPBG00II@Z 10023960 f   LIBCMTD:invarg.obj
 0001:00022980       __call_reportfault         10023980 f   LIBCMTD:invarg.obj
 0001:00022ae0       __get_invalid_parameter_handler 10023ae0 f   LIBCMTD:invarg.obj
 0001:00022b10       __initp_misc_invarg        10023b10 f   LIBCMTD:invarg.obj
 0001:00022b20       __invalid_parameter        10023b20 f   LIBCMTD:invarg.obj
 0001:00022b80       __invoke_watson            10023b80 f   LIBCMTD:invarg.obj
 0001:00022bc0       __set_invalid_parameter_handler 10023bc0 f   LIBCMTD:invarg.obj
 0001:00022c00       __fclose_nolock            10023c00 f   LIBCMTD:fclose.obj
 0001:00022d10       _fclose                    10023d10 f   LIBCMTD:fclose.obj
 0001:00022e30       __fsopen                   10023e30 f   LIBCMTD:fopen.obj
 0001:00023080       _fopen                     10024080 f   LIBCMTD:fopen.obj
 0001:000230a0       _fopen_s                   100240a0 f   LIBCMTD:fopen.obj
 0001:00023160       __fprintf_l                10024160 f   LIBCMTD:fprintf.obj
 0001:00023190       __fprintf_p                10024190 f   LIBCMTD:fprintf.obj
 0001:000231c0       __fprintf_p_l              100241c0 f   LIBCMTD:fprintf.obj
 0001:000231f0       __fprintf_s_l              100241f0 f   LIBCMTD:fprintf.obj
 0001:00023220       _fprintf                   10024220 f   LIBCMTD:fprintf.obj
 0001:000234f0       _fprintf_s                 100244f0 f   LIBCMTD:fprintf.obj
 0001:00023520       __get_printf_count_output  10024520 f   LIBCMTD:printf.obj
 0001:00023550       __printf_l                 10024550 f   LIBCMTD:printf.obj
 0001:00023580       __printf_p                 10024580 f   LIBCMTD:printf.obj
 0001:000235a0       __printf_p_l               100245a0 f   LIBCMTD:printf.obj
 0001:000235d0       __printf_s_l               100245d0 f   LIBCMTD:printf.obj
 0001:00023600       __set_printf_count_output  10024600 f   LIBCMTD:printf.obj
 0001:00023660       _printf                    10024660 f   LIBCMTD:printf.obj
 0001:000237d0       _printf_s                  100247d0 f   LIBCMTD:printf.obj
 0001:000237f0       __snprintf                 100247f0 f   LIBCMTD:snprintf.obj
 0001:000239d0       __snprintf_l               100249d0 f   LIBCMTD:snprintf.obj
 0001:00023a00       _atan2                     10024a00 f   LIBCMTD:87ctriga.obj
 0001:00023a0a       __CIatan2                  10024a0a f   LIBCMTD:87ctriga.obj
 0001:00023a20       _exp                       10024a20 f   LIBCMTD:87ctran.obj
 0001:00023a5c       __CIexp                    10024a5c f   LIBCMTD:87ctran.obj
 0001:00023a97       __exp_default              10024a97 f   LIBCMTD:87ctran.obj
 0001:00023aa1       __CIexp_default            10024aa1 f   LIBCMTD:87ctran.obj
 0001:00023ab0       _fabs                      10024ab0 f   LIBCMTD:fabs.obj
 0001:00023bb0       _log                       10024bb0 f   LIBCMTD:log.obj
 0001:00023bf0       __CIlog                    10024bf0 f   LIBCMTD:log.obj
 0001:00023c2b       __CIlog_default            10024c2b f   LIBCMTD:log.obj
 0001:00023c3f       __log_default              10024c3f     LIBCMTD:log.obj
 0001:00023d00       _sinh                      10024d00 f   LIBCMTD:87ctrigh.obj
 0001:00023d0a       _cosh                      10024d0a f   LIBCMTD:87ctrigh.obj
 0001:00023d11       _tanh                      10024d11 f   LIBCMTD:87ctrigh.obj
 0001:00023d18       __CIsinh                   10024d18 f   LIBCMTD:87ctrigh.obj
 0001:00023d22       __CIcosh                   10024d22 f   LIBCMTD:87ctrigh.obj
 0001:00023d29       __CItanh                   10024d29 f   LIBCMTD:87ctrigh.obj
 0001:00023d30       __CIsqrt                   10024d30 f   LIBCMTD:sqrt.obj
 0001:00023d44       _sqrt                      10024d44     LIBCMTD:sqrt.obj
 0001:00023df0       _memset                    10024df0 f   LIBCMTD:memset.obj
 0001:00023e80       _strcmp                    10024e80 f   LIBCMTD:strcmp.obj
 0001:00023f10       _memmove                   10024f10 f   LIBCMTD:memmove.obj
 0001:00024560       _strrchr                   10025560 f   LIBCMTD:strrchr.obj
 0001:000246a0       __chgsign                  100256a0 f   LIBCMTD:ieeemisc.obj
 0001:000246e0       __copysign                 100256e0 f   LIBCMTD:ieeemisc.obj
 0001:00024710       __finite                   10025710 f   LIBCMTD:ieeemisc.obj
 0001:00024730       __fpclass                  10025730 f   LIBCMTD:ieeemisc.obj
 0001:00024820       __isnan                    10025820 f   LIBCMTD:ieeemisc.obj
 0001:00024860       __logb                     10025860 f   LIBCMTD:ieeemisc.obj
 0001:00024990       __nextafter                10025990 f   LIBCMTD:ieeemisc.obj
 0001:00024cb0       __scalb                    10025cb0 f   LIBCMTD:ieeemisc.obj
 0001:00024cd0       ??_V@YAXPAX@Z              10025cd0 f   LIBCMTD:delete2.obj
 0001:00024cf0       ?_CrtDbgReportW@@YAHHPBGH00ZZ 10025cf0 f   LIBCMTD:dbgrptw.obj
 0001:00024d40       __CrtDbgReportW            10025d40 f   LIBCMTD:dbgrptw.obj
 0001:00024d90       __CrtDbgReportWV           10025d90 f i LIBCMTD:dbgrptw.obj
 0001:00024dc0       __CrtSetReportHookW2       10025dc0 f   LIBCMTD:dbgrptw.obj
 0001:00025110       ___crtMessageWindowW       10026110 f   LIBCMTD:dbgrptw.obj
 0001:000255c0       __invoke_watson_if_error   100265c0 f i LIBCMTD:dbgrptw.obj
 0001:000255f0       __invoke_watson_if_oneof   100265f0 f i LIBCMTD:dbgrptw.obj
 0001:00025630       __CxxThrowException@8      10026630 f   LIBCMTD:throw.obj
 0001:000256c0       _free                      100266c0 f   LIBCMTD:dbgfree.obj
 0001:000256e0       _malloc                    100266e0 f   LIBCMTD:dbgmalloc.obj
 0001:00025710       _realloc                   10026710 f   LIBCMTD:dbgrealloc.obj
 0001:00025740       ??0__non_rtti_object@std@@QAE@ABV01@@Z 10026740 f   LIBCMTD:stdexcpt.obj
 0001:00025770       ??0__non_rtti_object@std@@QAE@PBD@Z 10026770 f   LIBCMTD:stdexcpt.obj
 0001:000257a0       ??0bad_cast@std@@QAE@ABV01@@Z 100267a0 f   LIBCMTD:stdexcpt.obj
 0001:000257d0       ??0bad_cast@std@@QAE@PBD@Z 100267d0 f   LIBCMTD:stdexcpt.obj
 0001:00025800       ??0bad_typeid@std@@QAE@ABV01@@Z 10026800 f   LIBCMTD:stdexcpt.obj
 0001:00025830       ??0bad_typeid@std@@QAE@PBD@Z 10026830 f   LIBCMTD:stdexcpt.obj
 0001:00025860       ??0exception@std@@QAE@ABQBD@Z 10026860 f   LIBCMTD:stdexcpt.obj
 0001:000258a0       ??0exception@std@@QAE@ABQBDH@Z 100268a0 f   LIBCMTD:stdexcpt.obj
 0001:000258d0       ??0exception@std@@QAE@ABV01@@Z 100268d0 f   LIBCMTD:stdexcpt.obj
 0001:00025910       ??0exception@std@@QAE@XZ   10026910 f   LIBCMTD:stdexcpt.obj
 0001:00025940       ??1__non_rtti_object@std@@UAE@XZ 10026940 f   LIBCMTD:stdexcpt.obj
 0001:00025960       ??1bad_cast@std@@UAE@XZ    10026960 f   LIBCMTD:stdexcpt.obj
 0001:00025980       ??1bad_typeid@std@@UAE@XZ  10026980 f   LIBCMTD:stdexcpt.obj
 0001:000259a0       ??1exception@std@@UAE@XZ   100269a0 f   LIBCMTD:stdexcpt.obj
 0001:000259c0       ??4exception@std@@QAEAAV01@ABV01@@Z 100269c0 f   LIBCMTD:stdexcpt.obj
 0001:00025a10       ??_E__non_rtti_object@std@@UAEPAXI@Z 10026a10 f i LIBCMTD:stdexcpt.obj
 0001:00025a10       ??_G__non_rtti_object@std@@UAEPAXI@Z 10026a10 f i LIBCMTD:stdexcpt.obj
 0001:00025a40       ??_Ebad_cast@std@@UAEPAXI@Z 10026a40 f i LIBCMTD:stdexcpt.obj
 0001:00025a40       ??_Gbad_cast@std@@UAEPAXI@Z 10026a40 f i LIBCMTD:stdexcpt.obj
 0001:00025a70       ??_Gbad_typeid@std@@UAEPAXI@Z 10026a70 f i LIBCMTD:stdexcpt.obj
 0001:00025a70       ??_Ebad_typeid@std@@UAEPAXI@Z 10026a70 f i LIBCMTD:stdexcpt.obj
 0001:00025aa0       ??_Gexception@std@@UAEPAXI@Z 10026aa0 f i LIBCMTD:stdexcpt.obj
 0001:00025aa0       ??_Eexception@std@@UAEPAXI@Z 10026aa0 f i LIBCMTD:stdexcpt.obj
 0001:00025ad0       ?_Copy_str@exception@std@@AAEXPBD@Z 10026ad0 f   LIBCMTD:stdexcpt.obj
 0001:00025b30       ?_Tidy@exception@std@@AAEXXZ 10026b30 f   LIBCMTD:stdexcpt.obj
 0001:00025b70       ?what@exception@std@@UBEPBDXZ 10026b70 f   LIBCMTD:stdexcpt.obj
 0001:00025ba0       ??0type_info@@AAE@ABV0@@Z  10026ba0 f   LIBCMTD:typinfo.obj
 0001:00025bc0       ??1type_info@@UAE@XZ       10026bc0 f   LIBCMTD:typinfo.obj
 0001:00025be0       ??4type_info@@AAEAAV0@ABV0@@Z 10026be0 f   LIBCMTD:typinfo.obj
 0001:00025bf0       ??8type_info@@QBE_NABV0@@Z 10026bf0 f   LIBCMTD:typinfo.obj
 0001:00025c30       ??9type_info@@QBE_NABV0@@Z 10026c30 f   LIBCMTD:typinfo.obj
 0001:00025c70       ??_Gtype_info@@UAEPAXI@Z   10026c70 f i LIBCMTD:typinfo.obj
 0001:00025c70       ??_Etype_info@@UAEPAXI@Z   10026c70 f i LIBCMTD:typinfo.obj
 0001:00025ca0       ?_name_internal_method@type_info@@QBEPBDPAU__type_info_node@@@Z 10026ca0 f   LIBCMTD:typinfo.obj
 0001:00025cc0       ?_type_info_dtor_internal_method@type_info@@QAEXXZ 10026cc0 f   LIBCMTD:typinfo.obj
 0001:00025ce0       ?before@type_info@@QBE_NABV1@@Z 10026ce0 f   LIBCMTD:typinfo.obj
 0001:00025d20       ?name@type_info@@QBEPBDPAU__type_info_node@@@Z 10026d20 f   LIBCMTD:typinfo.obj
 0001:00025d40       ?raw_name@type_info@@QBEPBDXZ 10026d40 f   LIBCMTD:typinfo.obj
 0001:00025d60       ___initstdio               10026d60 f   LIBCMTD:_file.obj
 0001:00025e30       ___endstdio                10026e30 f   LIBCMTD:_file.obj
 0001:00025e70       ___iob_func                10026e70 f   LIBCMTD:_file.obj
 0001:00025e80       __lock_file                10026e80 f   LIBCMTD:_file.obj
 0001:00025ee0       __lock_file2               10026ee0 f   LIBCMTD:_file.obj
 0001:00025f20       __unlock_file              10026f20 f   LIBCMTD:_file.obj
 0001:00025f80       __unlock_file2             10026f80 f   LIBCMTD:_file.obj
 0001:00025fc0       __fread_nolock             10026fc0 f   LIBCMTD:fread.obj
 0001:00025fe0       __fread_nolock_s           10026fe0 f   LIBCMTD:fread.obj
 0001:00026610       _fread                     10027610 f   LIBCMTD:fread.obj
 0001:00026630       _fread_s                   10027630 f   LIBCMTD:fread.obj
 0001:00026780       __fwrite_nolock            10027780 f   LIBCMTD:fwrite.obj
 0001:00026b90       _fwrite                    10027b90 f   LIBCMTD:fwrite.obj
 0001:00026cb0       _strlen                    10027cb0 f   LIBCMTD:strlen.obj
 0001:00026d40       _pow                       10027d40 f   LIBCMTD:pow.obj
 0001:00026d80       __CIpow                    10027d80 f   LIBCMTD:pow.obj
 0001:00026dbb       __CIpow_default            10027dbb f   LIBCMTD:pow.obj
 0001:00026dd4       __pow_default              10027dd4     LIBCMTD:pow.obj
 0001:00026fd0       __wassert                  10027fd0 f   LIBCMTD:wassert.obj
 0001:00027c10       __get_purecall_handler     10028c10 f   LIBCMTD:purevirt.obj
 0001:00027c30       __purecall                 10028c30 f   LIBCMTD:purevirt.obj
 0001:00027c70       __set_purecall_handler     10028c70 f   LIBCMTD:purevirt.obj
 0001:00027ca0       _floor                     10028ca0 f   LIBCMTD:floor_pentium4.obj
 0001:00027ce0       __floor_pentium4           10028ce0 f   LIBCMTD:floor_pentium4.obj
 0001:00027dd0       _rand                      10028dd0 f   LIBCMTD:rand.obj
 0001:00027e10       _srand                     10028e10 f   LIBCMTD:rand.obj
 0001:00027e20       ___inittime                10028e20 f   LIBCMTD:clock.obj
 0001:00027e60       _clock                     10028e60 f   LIBCMTD:clock.obj
 0001:00027ec0       __CRT_INIT@12              10028ec0 f   LIBCMTD:dllcrt0.obj
 0001:000280f0       __DllMainCRTStartup@12     100290f0 f   LIBCMTD:dllcrt0.obj
 0001:000282e0       ___DllXcptFilter           100292e0 f   LIBCMTD:dllcrt0.obj
 0001:00028310       _asin                      10029310 f   LIBCMTD:asin.obj
 0001:00028350       __CIasin                   10029350 f   LIBCMTD:asin.obj
 0001:0002838b       __CIasin_default           1002938b f   LIBCMTD:asin.obj
 0001:0002839f       __asin_default             1002939f     LIBCMTD:asin.obj
 0001:00028460       _acos                      10029460 f   LIBCMTD:acos.obj
 0001:000284a0       __CIacos                   100294a0 f   LIBCMTD:acos.obj
 0001:000284db       __CIacos_default           100294db f   LIBCMTD:acos.obj
 0001:000284ef       __acos_default             100294ef     LIBCMTD:acos.obj
 0001:000285b0       _tan                       100295b0 f   LIBCMTD:tan.obj
 0001:000285f0       __CItan                    100295f0 f   LIBCMTD:tan.obj
 0001:0002862b       __CItan_default            1002962b f   LIBCMTD:tan.obj
 0001:0002863f       __tan_default              1002963f     LIBCMTD:tan.obj
 0001:000286e0       ___copy_path_to_wide_string 100296e0 f   LIBCMTD:crt0dat.obj
 0001:000288d0       ___crtCorExitProcess       100298d0 f   LIBCMTD:crt0dat.obj
 0001:00028910       ___crtExitProcess          10029910 f   LIBCMTD:crt0dat.obj
 0001:00028930       ___freeCrtMemory           10029930 f   LIBCMTD:crt0dat.obj
 0001:00028b00       __amsg_exit                10029b00 f   LIBCMTD:crt0dat.obj
 0001:00028b20       __c_exit                   10029b20 f   LIBCMTD:crt0dat.obj
 0001:00028b40       __cexit                    10029b40 f   LIBCMTD:crt0dat.obj
 0001:00028b60       __cinit                    10029b60 f   LIBCMTD:crt0dat.obj
 0001:00028c00       __exit                     10029c00 f   LIBCMTD:crt0dat.obj
 0001:00028c20       __get_pgmptr               10029c20 f   LIBCMTD:crt0dat.obj
 0001:00028d40       __get_wpgmptr              10029d40 f   LIBCMTD:crt0dat.obj
 0001:00028e60       __init_pointers            10029e60 f   LIBCMTD:crt0dat.obj
 0001:00028ef0       __initterm_e               10029ef0 f   LIBCMTD:crt0dat.obj
 0001:00028f30       __lockexit                 10029f30 f   LIBCMTD:crt0dat.obj
 0001:00028f40       __unlockexit               10029f40 f   LIBCMTD:crt0dat.obj
 0001:00029150       _exit                      1002a150 f   LIBCMTD:crt0dat.obj
 0001:00029170       __vscprintf                1002a170 f   LIBCMTD:vsprintf.obj
 0001:00029190       __vscprintf_helper         1002a190 f   LIBCMTD:vsprintf.obj
 0001:00029280       __vscprintf_l              1002a280 f   LIBCMTD:vsprintf.obj
 0001:000292a0       __vscprintf_p              1002a2a0 f   LIBCMTD:vsprintf.obj
 0001:000292c0       __vscprintf_p_l            1002a2c0 f   LIBCMTD:vsprintf.obj
 0001:000292e0       __vsprintf_l               1002a2e0 f   LIBCMTD:vsprintf.obj
 0001:000294a0       _vsprintf                  1002a4a0 f   LIBCMTD:vsprintf.obj
 0001:000294c0       ___onexitinit              1002a4c0 f   LIBCMTD:onexit.obj
 0001:00029520       __onexit                   1002a520 f   LIBCMTD:onexit.obj
 0001:000296e0       _atexit                    1002a6e0 f   LIBCMTD:onexit.obj
 0001:00029710       __lock                     1002a710 f   LIBCMTD:mlock.obj
 0001:00029750       __lockerr_exit             1002a750 f   LIBCMTD:mlock.obj
 0001:00029780       __mtdeletelocks            1002a780 f   LIBCMTD:mlock.obj
 0001:00029840       __mtinitlocknum            1002a840 f   LIBCMTD:mlock.obj
 0001:00029960       __mtinitlocks              1002a960 f   LIBCMTD:mlock.obj
 0001:000299e0       __unlock                   1002a9e0 f   LIBCMTD:mlock.obj
 0001:00029a00       _memcpy                    1002aa00 f   LIBCMTD:memcpy.obj
 0001:0002a0a0       ___crtCloseThreadpoolTimer 1002b0a0 f   LIBCMTD:winapisupp.obj
 0001:0002a0d0       ___crtCloseThreadpoolWait  1002b0d0 f   LIBCMTD:winapisupp.obj
 0001:0002a100       ___crtCreateSemaphoreExW@24 1002b100 f   LIBCMTD:winapisupp.obj
 0001:0002a160       ___crtCreateSymbolicLinkW  1002b160 f   LIBCMTD:winapisupp.obj
 0001:0002a1a0       ___crtCreateThreadpoolTimer 1002b1a0 f   LIBCMTD:winapisupp.obj
 0001:0002a1e0       ___crtCreateThreadpoolWait 1002b1e0 f   LIBCMTD:winapisupp.obj
 0001:0002a220       ___crtFlsAlloc             1002b220 f   LIBCMTD:winapisupp.obj
 0001:0002a250       ___crtFlsFree              1002b250 f   LIBCMTD:winapisupp.obj
 0001:0002a290       ___crtFlsGetValue          1002b290 f   LIBCMTD:winapisupp.obj
 0001:0002a2d0       ___crtFlsSetValue          1002b2d0 f   LIBCMTD:winapisupp.obj
 0001:0002a310       ___crtFlushProcessWriteBuffers 1002b310 f   LIBCMTD:winapisupp.obj
 0001:0002a340       ___crtFreeLibraryWhenCallbackReturns 1002b340 f   LIBCMTD:winapisupp.obj
 0001:0002a370       ___crtGetCurrentProcessorNumber 1002b370 f   LIBCMTD:winapisupp.obj
 0001:0002a3a0       ___crtGetLogicalProcessorInformation 1002b3a0 f   LIBCMTD:winapisupp.obj
 0001:0002a3e0       ___crtGetShowWindowMode    1002b3e0 f   LIBCMTD:winapisupp.obj
 0001:0002a410       ___crtInitializeCriticalSectionEx 1002b410 f   LIBCMTD:winapisupp.obj
 0001:0002a460       ___crtIsPackagedApp        1002b460 f   LIBCMTD:winapisupp.obj
 0001:0002a4a0       ___crtLoadWinApiPointers   1002b4a0 f   LIBCMTD:winapisupp.obj
 0001:0002a8b0       ___crtSetThreadStackGuarantee 1002b8b0 f   LIBCMTD:winapisupp.obj
 0001:0002a8e0       ___crtSetThreadpoolTimer   1002b8e0 f   LIBCMTD:winapisupp.obj
 0001:0002a920       ___crtSetThreadpoolWait    1002b920 f   LIBCMTD:winapisupp.obj
 0001:0002a950       ___crtSetUnhandledExceptionFilter 1002b950 f   LIBCMTD:winapisupp.obj
 0001:0002a960       ___crtTerminateProcess     1002b960 f   LIBCMTD:winapisupp.obj
 0001:0002a980       ___crtUnhandledException   1002b980 f   LIBCMTD:winapisupp.obj
 0001:0002a9a0       ___crtWaitForThreadpoolTimerCallbacks 1002b9a0 f   LIBCMTD:winapisupp.obj
 0001:0002a9d0       ?_query_new_handler@@YAP6AHI@ZXZ 1002b9d0 f   LIBCMTD:handler.obj
 0001:0002a9f0       ?_set_new_handler@@YAP6AHI@ZH@Z 1002b9f0 f   LIBCMTD:handler.obj
 0001:0002aa30       ?_set_new_handler@@YAP6AHI@ZP6AHI@Z@Z 1002ba30 f   LIBCMTD:handler.obj
 0001:0002aa70       __callnewh                 1002ba70 f   LIBCMTD:handler.obj
 0001:0002aab0       __initp_heap_handler       1002bab0 f   LIBCMTD:handler.obj
 0001:0002aac0       ??0_LocaleUpdate@@QAE@PAUlocaleinfo_struct@@@Z 1002bac0 f i LIBCMTD:dbgheap.obj
 0001:0002aba0       ??1_LocaleUpdate@@QAE@XZ   1002bba0 f i LIBCMTD:dbgheap.obj
 0001:0002abd0       ?GetLocaleT@_LocaleUpdate@@QAEPAUlocaleinfo_struct@@XZ 1002bbd0 f i LIBCMTD:dbgheap.obj
 0001:0002b070       __CrtCheckMemory           1002c070 f   LIBCMTD:dbgheap.obj
 0001:0002b4d0       __CrtDoForAllClientObjects 1002c4d0 f   LIBCMTD:dbgheap.obj
 0001:0002b600       __CrtDumpMemoryLeaks       1002c600 f   LIBCMTD:dbgheap.obj
 0001:0002b6a0       __CrtGetAllocHook          1002c6a0 f   LIBCMTD:dbgheap.obj
 0001:0002b6b0       __CrtGetCheckCount         1002c6b0 f   LIBCMTD:dbgheap.obj
 0001:0002b6c0       __CrtGetDumpClient         1002c6c0 f   LIBCMTD:dbgheap.obj
 0001:0002b6d0       __CrtIsMemoryBlock         1002c6d0 f   LIBCMTD:dbgheap.obj
 0001:0002b840       __CrtIsValidHeapPointer    1002c840 f   LIBCMTD:dbgheap.obj
 0001:0002b880       __CrtIsValidPointer        1002c880 f   LIBCMTD:dbgheap.obj
 0001:0002b8b0       __CrtMemCheckpoint         1002c8b0 f   LIBCMTD:dbgheap.obj
 0001:0002bae0       __CrtMemDifference         1002cae0 f   LIBCMTD:dbgheap.obj
 0001:0002bd40       __CrtMemDumpAllObjectsSince 1002cd40 f   LIBCMTD:dbgheap.obj
 0001:0002bd80       __CrtMemDumpStatistics     1002cd80 f   LIBCMTD:dbgheap.obj
 0001:0002bea0       __CrtReportBlockType       1002cea0 f   LIBCMTD:dbgheap.obj
 0001:0002bed0       __CrtSetAllocHook          1002ced0 f   LIBCMTD:dbgheap.obj
 0001:0002bef0       __CrtSetBreakAlloc         1002cef0 f   LIBCMTD:dbgheap.obj
 0001:0002bf10       __CrtSetCheckCount         1002cf10 f   LIBCMTD:dbgheap.obj
 0001:0002bf30       __CrtSetDbgBlockType       1002cf30 f   LIBCMTD:dbgheap.obj
 0001:0002c020       __CrtSetDbgFlag            1002d020 f   LIBCMTD:dbgheap.obj
 0001:0002c170       __CrtSetDebugFillThreshold 1002d170 f   LIBCMTD:dbgheap.obj
 0001:0002c190       __CrtSetDumpClient         1002d190 f   LIBCMTD:dbgheap.obj
 0001:0002c1b0       __aligned_free             1002d1b0 f   LIBCMTD:dbgheap.obj
 0001:0002c1d0       __aligned_free_dbg         1002d1d0 f   LIBCMTD:dbgheap.obj
 0001:0002c280       __aligned_malloc           1002d280 f   LIBCMTD:dbgheap.obj
 0001:0002c2a0       __aligned_malloc_dbg       1002d2a0 f   LIBCMTD:dbgheap.obj
 0001:0002c2c0       __aligned_msize            1002d2c0 f   LIBCMTD:dbgheap.obj
 0001:0002c2e0       __aligned_msize_dbg        1002d2e0 f   LIBCMTD:dbgheap.obj
 0001:0002c400       __aligned_offset_malloc    1002d400 f   LIBCMTD:dbgheap.obj
 0001:0002c420       __aligned_offset_malloc_dbg 1002d420 f   LIBCMTD:dbgheap.obj
 0001:0002c600       __aligned_offset_realloc   1002d600 f   LIBCMTD:dbgheap.obj
 0001:0002c630       __aligned_offset_realloc_dbg 1002d630 f   LIBCMTD:dbgheap.obj
 0001:0002c940       __aligned_offset_recalloc  1002d940 f   LIBCMTD:dbgheap.obj
 0001:0002c970       __aligned_offset_recalloc_dbg 1002d970 f   LIBCMTD:dbgheap.obj
 0001:0002ca30       __aligned_realloc          1002da30 f   LIBCMTD:dbgheap.obj
 0001:0002ca50       __aligned_realloc_dbg      1002da50 f   LIBCMTD:dbgheap.obj
 0001:0002ca80       __aligned_recalloc         1002da80 f   LIBCMTD:dbgheap.obj
 0001:0002cab0       __aligned_recalloc_dbg     1002dab0 f   LIBCMTD:dbgheap.obj
 0001:0002cae0       __calloc_dbg               1002dae0 f   LIBCMTD:dbgheap.obj
 0001:0002cb40       __calloc_dbg_impl          1002db40 f   LIBCMTD:dbgheap.obj
 0001:0002cbc0       __expand                   1002dbc0 f   LIBCMTD:dbgheap.obj
 0001:0002cbf0       __expand_dbg               1002dbf0 f   LIBCMTD:dbgheap.obj
 0001:0002cd10       __free_dbg                 1002dd10 f   LIBCMTD:dbgheap.obj
 0001:0002cd90       __free_dbg_nolock          1002dd90 f   LIBCMTD:dbgheap.obj
 0001:0002d290       __free_nolock              1002e290 f   LIBCMTD:dbgheap.obj
 0001:0002d2b0       __heap_alloc               1002e2b0 f   LIBCMTD:dbgheap.obj
 0001:0002d2d0       __heap_alloc_dbg           1002e2d0 f   LIBCMTD:dbgheap.obj
 0001:0002d6f0       __malloc_dbg               1002e6f0 f   LIBCMTD:dbgheap.obj
 0001:0002d720       __msize                    1002e720 f   LIBCMTD:dbgheap.obj
 0001:0002d740       __msize_dbg                1002e740 f   LIBCMTD:dbgheap.obj
 0001:0002d950       __nh_malloc                1002e950 f   LIBCMTD:dbgheap.obj
 0001:0002d970       __nh_malloc_dbg            1002e970 f   LIBCMTD:dbgheap.obj
 0001:0002dc00       __realloc_dbg              1002ec00 f   LIBCMTD:dbgheap.obj
 0001:0002dc90       __recalloc                 1002ec90 f   LIBCMTD:dbgheap.obj
 0001:0002dcc0       __recalloc_dbg             1002ecc0 f   LIBCMTD:dbgheap.obj
 0001:0002e3e0       __except_handler4          1002f3e0 f   LIBCMTD:chandler4.obj
 0001:0002e5a0       __sse2_mathfcns_init       1002f5a0 f   LIBCMTD:mathfcns.obj
 0001:0002e5c0       __set_SSE2_enable          1002f5c0 f   LIBCMTD:mathfcns.obj
 0001:0002e610       __CIcos_pentium4           1002f610 f   LIBCMTD:cos_pentium4.obj
 0001:0002e628       __cos_pentium4             1002f628     LIBCMTD:cos_pentium4.obj
 0001:0002e7c0       __trandisp1                1002f7c0 f   LIBCMTD:87disp.obj
 0001:0002e827       __trandisp2                1002f827 f   LIBCMTD:87disp.obj
 0001:0002e8b3       __rttospopde               1002f8b3     LIBCMTD:87disp.obj
 0001:0002e8b8       __rttospop                 1002f8b8     LIBCMTD:87disp.obj
 0001:0002e8ba       __rtnospop                 1002f8ba     LIBCMTD:87disp.obj
 0001:0002e8bc       __rttosnpop                1002f8bc     LIBCMTD:87disp.obj
 0001:0002e8bd       __rtnospopde               1002f8bd     LIBCMTD:87disp.obj
 0001:0002e8c4       __rtzeropop                1002f8c4     LIBCMTD:87disp.obj
 0001:0002e8c6       __rtzeronpop               1002f8c6     LIBCMTD:87disp.obj
 0001:0002e8cb       __rtonepop                 1002f8cb     LIBCMTD:87disp.obj
 0001:0002e8cd       __rtonenpop                1002f8cd     LIBCMTD:87disp.obj
 0001:0002e8d2       __tosnan1                  1002f8d2     LIBCMTD:87disp.obj
 0001:0002e8fd       __nosnan2                  1002f8fd     LIBCMTD:87disp.obj
 0001:0002e8ff       __tosnan2                  1002f8ff     LIBCMTD:87disp.obj
 0001:0002e927       __nan2                     1002f927     LIBCMTD:87disp.obj
 0001:0002e966       __rtindfpop                1002f966     LIBCMTD:87disp.obj
 0001:0002e968       __rtindfnpop               1002f968     LIBCMTD:87disp.obj
 0001:0002e979       __rttosnpopde              1002f979     LIBCMTD:87disp.obj
 0001:0002e983       __rtchsifneg               1002f983     LIBCMTD:87disp.obj
 0001:0002e990       __twoToTOS                 1002f990 f   LIBCMTD:common.obj
 0001:0002e9a5       __load_CW                  1002f9a5 f   LIBCMTD:common.obj
 0001:0002e9bc       __convertTOStoQNaN         1002f9bc f   LIBCMTD:common.obj
 0001:0002e9d5       __fload_withFB             1002f9d5 f   LIBCMTD:common.obj
 0001:0002ea18       __checkTOS_withFB          1002fa18 f   LIBCMTD:common.obj
 0001:0002ea2e       __fast_exit                1002fa2e f   LIBCMTD:common.obj
 0001:0002ea3b       __math_exit                1002fa3b f   LIBCMTD:common.obj
 0001:0002ea65       __check_overflow_exit      1002fa65 f   LIBCMTD:common.obj
 0001:0002ea79       __check_range_exit         1002fa79 f   LIBCMTD:common.obj
 0001:0002eb20       __startTwoArgErrorHandling 1002fb20 f   LIBCMTD:genexcep.obj
 0001:0002eb37       __startOneArgErrorHandling 1002fb37 f   LIBCMTD:genexcep.obj
 0001:0002eb80       __CIsin_pentium4           1002fb80 f   LIBCMTD:sin_pentium4.obj
 0001:0002eb98       __sin_pentium4             1002fb98     LIBCMTD:sin_pentium4.obj
 0001:0002eea0       ?_RTC_AllocaFailure@@YAXPAXPAU_RTC_ALLOCA_NODE@@H@Z 1002fea0 f   LIBCMTD:error.obj
 0001:0002f010       ?_RTC_Failure@@YAXPAXH@Z   10030010 f   LIBCMTD:error.obj
 0001:0002f060       ?_RTC_StackFailure@@YAXPAXPBD@Z 10030060 f   LIBCMTD:error.obj
 0001:0002f3c0       __RTC_UninitUse            100303c0 f   LIBCMTD:error.obj
 0001:0002f4c0       ___raise_securityfailure   100304c0 f   LIBCMTD:gs_report.obj
 0001:0002f510       ___report_gsfailure        10030510 f   LIBCMTD:gs_report.obj
 0001:0002f620       ___report_rangecheckfailure 10030620 f   LIBCMTD:gs_report.obj
 0001:0002f630       ___report_securityfailure  10030630 f   LIBCMTD:gs_report.obj
 0001:0002f710       ___report_securityfailureEx 10030710 f   LIBCMTD:gs_report.obj
 0001:0002f840       ?_RTC_GetErrorFunc@@YAP6AHHPBDH00ZZPBX@Z 10030840 f   LIBCMTD:userapi.obj
 0001:0002f850       ?_RTC_GetErrorFuncW@@YAP6AHHPB_WH00ZZPBX@Z 10030850 f   LIBCMTD:userapi.obj
 0001:0002f860       __RTC_GetErrDesc           10030860 f   LIBCMTD:userapi.obj
 0001:0002f880       __RTC_NumErrors            10030880 f   LIBCMTD:userapi.obj
 0001:0002f890       __RTC_SetErrorFunc         10030890 f   LIBCMTD:userapi.obj
 0001:0002f8b0       __RTC_SetErrorFuncW        100308b0 f   LIBCMTD:userapi.obj
 0001:0002f8d0       __RTC_SetErrorType         100308d0 f   LIBCMTD:userapi.obj
 0001:0002f900       __CRT_RTC_INIT             10030900 f   LIBCMTD:chkesp.obj
 0001:0002f910       __CRT_RTC_INITW            10030910 f   LIBCMTD:chkesp.obj
 0001:0002f920       __chkesp                   10030920 f   LIBCMTD:chkesp.obj
 0001:0002f960       ___get_flsindex            10030960 f   LIBCMTD:tidtable.obj
 0001:0002f970       ___threadhandle            10030970 f   LIBCMTD:tidtable.obj
 0001:0002f980       ___threadid                10030980 f   LIBCMTD:tidtable.obj
 0001:0002f990       __freefls@4                10030990 f   LIBCMTD:tidtable.obj
 0001:0002fb90       __freeptd                  10030b90 f   LIBCMTD:tidtable.obj
 0001:0002fbd0       __getptd                   10030bd0 f   LIBCMTD:tidtable.obj
 0001:0002fc00       __getptd_noexit            10030c00 f   LIBCMTD:tidtable.obj
 0001:0002fcb0       __initptd                  10030cb0 f   LIBCMTD:tidtable.obj
 0001:0002fdf0       __mtinit                   10030df0 f   LIBCMTD:tidtable.obj
 0001:0002fea0       __mtterm                   10030ea0 f   LIBCMTD:tidtable.obj
 0001:0002fed0       __CallSettingFrame@12      10030ed0 f   LIBCMTD:lowhelpr.obj
 0001:0002fef7       __NLG_Return               10030ef7     LIBCMTD:lowhelpr.obj
 0001:0002ff20       ?_inconsistency@@YAXXZ     10030f20 f   LIBCMTD:hooks.obj
 0001:0002ffb0       ?terminate@@YAXXZ          10030fb0 f   LIBCMTD:hooks.obj
 0001:00030030       ?unexpected@@YAXXZ         10031030 f   LIBCMTD:hooks.obj
 0001:00030060       __initp_eh_hooks           10031060 f   LIBCMTD:hooks.obj
 0001:00030080       ___DestructExceptionObject 10031080 f   LIBCMTD:frame.obj
 0001:000301a0       ??0bad_exception@std@@QAE@ABV01@@Z 100311a0 f i LIBCMTD:frame.obj
 0001:000301d0       ??0bad_exception@std@@QAE@PBD@Z 100311d0 f i LIBCMTD:frame.obj
 0001:00030200       ??1bad_exception@std@@UAE@XZ 10031200 f i LIBCMTD:frame.obj
 0001:00030220       ??_Ebad_exception@std@@UAEPAXI@Z 10031220 f i LIBCMTD:frame.obj
 0001:00030220       ??_Gbad_exception@std@@UAEPAXI@Z 10031220 f i LIBCMTD:frame.obj
 0001:00030e20       ?__uncaught_exception@@YA_NXZ 10031e20 f   LIBCMTD:frame.obj
 0001:00030e50       ?_is_exception_typeof@@YAHABVtype_info@@PAU_EXCEPTION_POINTERS@@@Z 10031e50 f   LIBCMTD:frame.obj
 0001:00030f30       ___AdjustPointer           10031f30 f   LIBCMTD:frame.obj
 0001:00030f80       ___BuildCatchObject        10031f80 f   LIBCMTD:frame.obj
 0001:00031090       ___BuildCatchObjectHelper  10032090 f   LIBCMTD:frame.obj
 0001:00031310       ___CxxDetectRethrow        10032310 f   LIBCMTD:frame.obj
 0001:00031390       ___CxxExceptionFilter      10032390 f   LIBCMTD:frame.obj
 0001:00031590       ___CxxQueryExceptionSize   10032590 f   LIBCMTD:frame.obj
 0001:000315a0       ___CxxRegisterExceptionObject 100325a0 f   LIBCMTD:frame.obj
 0001:000316e0       ___CxxUnregisterExceptionObject 100326e0 f   LIBCMTD:frame.obj
 0001:00031860       ___FrameUnwindFilter       10032860 f   LIBCMTD:frame.obj
 0001:000318e0       ___FrameUnwindToState      100328e0 f   LIBCMTD:frame.obj
 0001:00031a60       ___InternalCxxFrameHandler 10032a60 f   LIBCMTD:frame.obj
 0001:00031bd0       ___TypeMatch               10032bd0 f   LIBCMTD:frame.obj
 0001:00031c90       __cfltcvt                  10032c90 f   LIBCMTD:cvt.obj
 0001:00031cc0       __cfltcvt_l                10032cc0 f   LIBCMTD:cvt.obj
 0001:00031d80       __cftoa                    10032d80 f   LIBCMTD:cvt.obj
 0001:00031db0       __cftoa_l                  10032db0 f   LIBCMTD:cvt.obj
 0001:00032620       __cftoe                    10033620 f   LIBCMTD:cvt.obj
 0001:00032a60       __cftoe_l                  10033a60 f   LIBCMTD:cvt.obj
 0001:00032c90       __cftof                    10033c90 f   LIBCMTD:cvt.obj
 0001:00032f40       __cftof_l                  10033f40 f   LIBCMTD:cvt.obj
 0001:00033140       __cftog                    10034140 f   LIBCMTD:cvt.obj
 0001:00033170       __cftog_l                  10034170 f   LIBCMTD:cvt.obj
 0001:00033400       __cropzeros                10034400 f   LIBCMTD:cvt.obj
 0001:00033420       __cropzeros_l              10034420 f   LIBCMTD:cvt.obj
 0001:00033540       __fassign                  10034540 f   LIBCMTD:cvt.obj
 0001:00033560       __fassign_l                10034560 f   LIBCMTD:cvt.obj
 0001:000335b0       __forcdecpt                100345b0 f   LIBCMTD:cvt.obj
 0001:000335d0       __forcdecpt_l              100345d0 f   LIBCMTD:cvt.obj
 0001:000336a0       __positive                 100346a0 f   LIBCMTD:cvt.obj
 0001:00033700       __setdefaultprecision      10034700 f   LIBCMTD:fp8.obj
 0001:00033740       __initp_misc_cfltcvt_tab   10034740 f   LIBCMTD:cmiscdat.obj
 0001:00033780       __CrtDefaultAllocHook      10034780 f   LIBCMTD:dbghook.obj
 0001:00033790       __crt_debugger_hook        10034790 f   LIBCMTD:dbghook.obj
 0001:000337a0       __fileno                   100347a0 f   LIBCMTD:fileno.obj
 0001:00033830       __close                    10034830 f   LIBCMTD:close.obj
 0001:00033a60       __close_nolock             10034a60 f   LIBCMTD:close.obj
 0001:00033b40       ___doserrno                10034b40 f   LIBCMTD:dosmap.obj
 0001:00033b70       __dosmaperr                10034b70 f   LIBCMTD:dosmap.obj
 0001:00033ba0       __errno                    10034ba0 f   LIBCMTD:dosmap.obj
 0001:00033bd0       __get_doserrno             10034bd0 f   LIBCMTD:dosmap.obj
 0001:00033c60       __get_errno                10034c60 f   LIBCMTD:dosmap.obj
 0001:00033cf0       __get_errno_from_oserr     10034cf0 f   LIBCMTD:dosmap.obj
 0001:00033d70       __set_doserrno             10034d70 f   LIBCMTD:dosmap.obj
 0001:00033da0       __set_errno                10034da0 f   LIBCMTD:dosmap.obj
 0001:00033dd0       __freebuf                  10034dd0 f   LIBCMTD:_freebuf.obj
 0001:00033e60       __fflush_nolock            10034e60 f   LIBCMTD:fflush.obj
 0001:00033ed0       __flush                    10034ed0 f   LIBCMTD:fflush.obj
 0001:00033f90       __flushall                 10034f90 f   LIBCMTD:fflush.obj
 0001:00033fa0       _fflush                    10034fa0 f   LIBCMTD:fflush.obj
 0001:000341e0       __getstream                100351e0 f   LIBCMTD:stream.obj
 0001:00034410       __openfile                 10035410 f   LIBCMTD:_open.obj
 0001:00034c10       __local_unwind4            10035c10 f   LIBCMTD:exsup4.obj
 0001:00034ce6       __seh_longjmp_unwind4@4    10035ce6 f   LIBCMTD:exsup4.obj
 0001:00034d02       @_EH4_CallFilterFunc@8     10035d02 f   LIBCMTD:exsup4.obj
 0001:00034d19       @_EH4_TransferToHandler@8  10035d19 f   LIBCMTD:exsup4.obj
 0001:00034d32       @_EH4_GlobalUnwind2@8      10035d32 f   LIBCMTD:exsup4.obj
 0001:00034d4b       @_EH4_LocalUnwind@16       10035d4b f   LIBCMTD:exsup4.obj
 0001:00034d70       __vfprintf_l               10035d70 f   LIBCMTD:vfprintf.obj
 0001:00034da0       __vfprintf_p               10035da0 f   LIBCMTD:vfprintf.obj
 0001:00034dc0       __vfprintf_p_l             10035dc0 f   LIBCMTD:vfprintf.obj
 0001:00034df0       __vfprintf_s_l             10035df0 f   LIBCMTD:vfprintf.obj
 0001:00034e20       _vfprintf                  10035e20 f   LIBCMTD:vfprintf.obj
 0001:00034e40       _vfprintf_helper           10035e40 f   LIBCMTD:vfprintf.obj
 0001:00035110       _vfprintf_s                10036110 f   LIBCMTD:vfprintf.obj
 0001:00035130       __ftbuf                    10036130 f   LIBCMTD:_sftbuf.obj
 0001:000351c0       __stbuf                    100361c0 f   LIBCMTD:_sftbuf.obj
 0001:00035330       __output_l                 10036330 f   LIBCMTD:output.obj
 0001:000369d0       _get_int64_arg             100379d0 f i LIBCMTD:output.obj
 0001:000369f0       _get_int_arg               100379f0 f i LIBCMTD:output.obj
 0001:00036a10       _get_short_arg             10037a10 f i LIBCMTD:output.obj
 0001:00036bd0       __ioinit                   10037bd0 f   LIBCMTD:ioinit.obj
 0001:000370b0       __ioterm                   100380b0 f   LIBCMTD:ioinit.obj
 0001:00037150       __vprintf_l                10038150 f   LIBCMTD:vprintf.obj
 0001:00037170       __vprintf_p                10038170 f   LIBCMTD:vprintf.obj
 0001:00037190       __vprintf_p_l              10038190 f   LIBCMTD:vprintf.obj
 0001:000371b0       __vprintf_s_l              100381b0 f   LIBCMTD:vprintf.obj
 0001:000371d0       _vprintf                   100381d0 f   LIBCMTD:vprintf.obj
 0001:000371f0       _vprintf_helper            100381f0 f   LIBCMTD:vprintf.obj
 0001:00037330       _vprintf_s                 10038330 f   LIBCMTD:vprintf.obj
 0001:00037350       __flsbuf                   10038350 f   LIBCMTD:_flsbuf.obj
 0001:00037620       __vsnprintf                10038620 f   LIBCMTD:vsnprint.obj
 0001:00037640       __vsnprintf_l              10038640 f   LIBCMTD:vsnprint.obj
 0001:0003783c       __fFATN2                   1003883c     LIBCMTD:87triga.obj
 0001:0003788c       __rtpiby2                  1003888c     LIBCMTD:87triga.obj
 0001:000378d0       __cintrindisp2             100388d0 f   LIBCMTD:87cdisp.obj
 0001:0003790e       __cintrindisp1             1003890e f   LIBCMTD:87cdisp.obj
 0001:0003794b       __ctrandisp2               1003894b f   LIBCMTD:87cdisp.obj
 0001:00037ada       __ctrandisp1               10038ada f   LIBCMTD:87cdisp.obj
 0001:00037b0d       __fload                    10038b0d f   LIBCMTD:87cdisp.obj
 0001:00037b50       __CIexp_pentium4           10038b50 f   LIBCMTD:exp_pentium4.obj
 0001:00037b68       __exp_pentium4             10038b68     LIBCMTD:exp_pentium4.obj
 0001:00037e21       __fFEXP                    10038e21     LIBCMTD:87tran.obj
 0001:00037e78       __rtinfpopse               10038e78     LIBCMTD:87tran.obj
 0001:00037e7a       __rtinfnpopse              10038e7a     LIBCMTD:87tran.obj
 0001:00037e8a       __fFLN                     10038e8a     LIBCMTD:87tran.obj
 0001:00037f3f       __rtinfpop                 10038f3f     LIBCMTD:87tran.obj
 0001:00037f41       __rtinfnpop                10038f41     LIBCMTD:87tran.obj
 0001:00037f5e       __ffexpm1                  10038f5e     LIBCMTD:87tran.obj
 0001:00038010       __errcode                  10039010 f   LIBCMTD:fpexcept.obj
 0001:00038080       __except1                  10039080 f   LIBCMTD:fpexcept.obj
 0001:00038180       __except2                  10039180 f   LIBCMTD:fpexcept.obj
 0001:000382d0       __handle_exc               100392d0 f   LIBCMTD:fpexcept.obj
 0001:000385f0       __handle_qnan1             100395f0 f   LIBCMTD:fpexcept.obj
 0001:00038650       __handle_qnan2             10039650 f   LIBCMTD:fpexcept.obj
 0001:000386c0       __raise_exc                100396c0 f   LIBCMTD:fpexcept.obj
 0001:000386f0       __raise_exc_ex             100396f0 f   LIBCMTD:fpexcept.obj
 0001:00038c60       __raise_excf               10039c60 f   LIBCMTD:fpexcept.obj
 0001:00038c90       __set_errno_from_matherr   10039c90 f   LIBCMTD:fpexcept.obj
 0001:00038cd0       __umatherr                 10039cd0 f   LIBCMTD:fpexcept.obj
 0001:00038d70       __add_exp                  10039d70 f   LIBCMTD:util.obj
 0001:00038da0       __decomp                   10039da0 f   LIBCMTD:util.obj
 0001:00038ec0       __get_exp                  10039ec0 f   LIBCMTD:util.obj
 0001:00038ef0       __set_bexp                 10039ef0 f   LIBCMTD:util.obj
 0001:00038f20       __set_exp                  10039f20 f   LIBCMTD:util.obj
 0001:00038f60       __sptype                   10039f60 f   LIBCMTD:util.obj
 0001:00038fe0       ___clrfp_sse2              10039fe0 f   LIBCMTD:fpctrl.obj
 0001:00039020       ___ctrlfp_sse2             1003a020 f   LIBCMTD:fpctrl.obj
 0001:00039080       ___fclrf_sse2              1003a080 f   LIBCMTD:fpctrl.obj
 0001:000390a0       ___get_fpsr_sse2           1003a0a0 f   LIBCMTD:fpctrl.obj
 0001:000390d0       ___set_fpsr_sse2           1003a0d0 f   LIBCMTD:fpctrl.obj
 0001:000391b0       ___set_statfp_sse2         1003a1b0 f   LIBCMTD:fpctrl.obj
 0001:000391e0       ___statfp_sse2             1003a1e0 f   LIBCMTD:fpctrl.obj
 0001:00039210       __clrfp                    1003a210 f   LIBCMTD:fpctrl.obj
 0001:00039230       __ctrlfp                   1003a230 f   LIBCMTD:fpctrl.obj
 0001:00039260       __set_statfp               1003a260 f   LIBCMTD:fpctrl.obj
 0001:000392d0       __statfp                   1003a2d0 f   LIBCMTD:fpctrl.obj
 0001:000392e0       __CIlog_pentium4           1003a2e0 f   LIBCMTD:log_pentium4.obj
 0001:000392f8       __log_pentium4             1003a2f8     LIBCMTD:log_pentium4.obj
 0001:00039550       __fFSINH                   1003a550     LIBCMTD:87trigh.obj
 0001:000395a2       __fFCOSH                   1003a5a2     LIBCMTD:87trigh.obj
 0001:00039650       __VEC_memset               1003a650 f   LIBCMTD:p4_memset.obj
 0001:00039720       ___isa_available_init      1003a720 f   LIBCMTD:cpu_disp.obj
 0001:00039920       _ldexp                     1003a920 f   LIBCMTD:ldexp.obj
 0001:00039c00       _memcpy_s                  1003ac00 f   LIBCMTD:memcpy_s.obj
 0001:00039dd0       _wcscpy_s                  1003add0 f   LIBCMTD:wcscpy_s.obj
 0001:0003a0e0       _wcslen                    1003b0e0 f   LIBCMTD:wcslen.obj
 0001:0003a120       ___swprintf_l              1003b120 f   LIBCMTD:swprintf.obj
 0001:0003a150       __scwprintf                1003b150 f   LIBCMTD:swprintf.obj
 0001:0003a170       __scwprintf_l              1003b170 f   LIBCMTD:swprintf.obj
 0001:0003a1a0       __scwprintf_p              1003b1a0 f   LIBCMTD:swprintf.obj
 0001:0003a1c0       __scwprintf_p_l            1003b1c0 f   LIBCMTD:swprintf.obj
 0001:0003a1f0       __snwprintf_s              1003b1f0 f   LIBCMTD:swprintf.obj
 0001:0003a220       __snwprintf_s_l            1003b220 f   LIBCMTD:swprintf.obj
 0001:0003a250       __swprintf                 1003b250 f   LIBCMTD:swprintf.obj
 0001:0003a470       __swprintf_p               1003b470 f   LIBCMTD:swprintf.obj
 0001:0003a4a0       __swprintf_p_l             1003b4a0 f   LIBCMTD:swprintf.obj
 0001:0003a4d0       __swprintf_s_l             1003b4d0 f   LIBCMTD:swprintf.obj
 0001:0003a500       _swprintf_s                1003b500 f   LIBCMTD:swprintf.obj
 0001:0003a530       ___fpecode                 1003b530 f   LIBCMTD:winsig.obj
 0001:0003a540       ___get_sigabrt             1003b540 f   LIBCMTD:winsig.obj
 0001:0003a560       ___pxcptinfoptrs           1003b560 f   LIBCMTD:winsig.obj
 0001:0003a570       __initp_misc_winsig        1003b570 f   LIBCMTD:winsig.obj
 0001:0003a690       _raise                     1003b690 f   LIBCMTD:winsig.obj
 0001:0003aa00       _signal                    1003ba00 f   LIBCMTD:winsig.obj
 0001:0003adb0       ___crtMessageBoxW          1003bdb0 f   LIBCMTD:crtmboxw.obj
 0001:0003b0c0       ___crtMessageBoxWaitThreadW@4 1003c0c0 f   LIBCMTD:crtmboxw.obj
 0001:0003b100       __CrtDbgBreak              1003c100 f   LIBCMTD:dbgrptt.obj
 0001:0003b110       __CrtGetReportHook         1003c110 f   LIBCMTD:dbgrptt.obj
 0001:0003b120       __CrtSetReportFile         1003c120 f   LIBCMTD:dbgrptt.obj
 0001:0003b220       __CrtSetReportHook         1003c220 f   LIBCMTD:dbgrptt.obj
 0001:0003b240       __CrtSetReportMode         1003c240 f   LIBCMTD:dbgrptt.obj
 0001:0003b380       __VCrtDbgReportA           1003c380 f   LIBCMTD:dbgrptt.obj
 0001:0003bbf0       __VCrtDbgReportW           1003cbf0 f   LIBCMTD:dbgrptt.obj
 0001:0003c560       __chkstk                   1003d560 f   LIBCMTD:chkstk.obj
 0001:0003c560       __alloca_probe             1003d560     LIBCMTD:chkstk.obj
 0001:0003c590       _strcpy_s                  1003d590 f   LIBCMTD:strcpy_s.obj
 0001:0003c890       ?_Name_base@type_info@@CAPBDPBV1@PAU__type_info_node@@@Z 1003d890 f   LIBCMTD:typname.obj
 0001:0003ca40       ?_Name_base_internal@type_info@@CAPBDPBV1@PAU__type_info_node@@@Z 1003da40 f   LIBCMTD:typname.obj
 0001:0003cc00       ?_Type_info_dtor@type_info@@CAXPAV1@@Z 1003dc00 f   LIBCMTD:typname.obj
 0001:0003cd10       ?_Type_info_dtor_internal@type_info@@CAXPAV1@@Z 1003dd10 f   LIBCMTD:typname.obj
 0001:0003ce20       ___clean_type_info_names_internal 1003de20 f   LIBCMTD:typname.obj
 0001:0003ced0       ___unDNameHelper           1003ded0 f   LIBCMTD:typname.obj
 0001:0003cf10       __fcloseall                1003df10 f   LIBCMTD:closeall.obj
 0001:0003d040       __filbuf                   1003e040 f   LIBCMTD:_filbuf.obj
 0001:0003d2b0       __read                     1003e2b0 f   LIBCMTD:read.obj
 0001:0003d580       __read_nolock              1003e580 f   LIBCMTD:read.obj
 0001:0003e7c0       __write                    1003f7c0 f   LIBCMTD:write.obj
 0001:0003ea10       __write_nolock             1003fa10 f   LIBCMTD:write.obj
 0001:0003f7a0       __CIpow_pentium4           100407a0 f   LIBCMTD:pow_pentium4.obj
 0001:0003f7b9       __pow_pentium4             100407b9     LIBCMTD:pow_pentium4.obj
 0001:00040300       __d_inttype                10041300 f   LIBCMTD:powhlp.obj
 0001:00040390       __powhlp                   10041390 f   LIBCMTD:powhlp.obj
 0001:00040540       _wcscat_s                  10041540 f   LIBCMTD:wcscat_s.obj
 0001:00040950       _wcsncat_s                 10041950 f   LIBCMTD:wcsncat_s.obj
 0001:00040e40       __set_abort_behavior       10041e40 f   LIBCMTD:abort.obj
 0001:00040e70       _abort                     10041e70 f   LIBCMTD:abort.obj
 0001:00040ee0       ___set_app_type            10041ee0 f   LIBCMTD:errmode.obj
 0001:00040ef0       __set_error_mode           10041ef0 f   LIBCMTD:errmode.obj
 0001:000413f0       __i64tow_s                 100423f0 f   LIBCMTD:xtows.obj
 0001:00041440       __itow_s                   10042440 f   LIBCMTD:xtows.obj
 0001:000414a0       __ltow_s                   100424a0 f   LIBCMTD:xtows.obj
 0001:000414e0       __ui64tow_s                100424e0 f   LIBCMTD:xtows.obj
 0001:00041500       __ultow_s                  10042500 f   LIBCMTD:xtows.obj
 0001:00041920       _setvbuf                   10042920 f   LIBCMTD:setvbuf.obj
 0001:00041c20       __fwprintf_l               10042c20 f   LIBCMTD:fwprintf.obj
 0001:00041c50       __fwprintf_p               10042c50 f   LIBCMTD:fwprintf.obj
 0001:00041c80       __fwprintf_p_l             10042c80 f   LIBCMTD:fwprintf.obj
 0001:00041cb0       __fwprintf_s_l             10042cb0 f   LIBCMTD:fwprintf.obj
 0001:00041ce0       _fwprintf                  10042ce0 f   LIBCMTD:fwprintf.obj
 0001:00041e90       _fwprintf_s                10042e90 f   LIBCMTD:fwprintf.obj
 0001:00041ec0       __vsnwprintf_s             10042ec0 f   LIBCMTD:vswprnc.obj
 0001:00041ef0       __vsnwprintf_s_l           10042ef0 f   LIBCMTD:vswprnc.obj
 0001:000422d0       __vswprintf_c              100432d0 f   LIBCMTD:vswprnc.obj
 0001:00042320       __vswprintf_c_l            10043320 f   LIBCMTD:vswprnc.obj
 0001:00042370       __vswprintf_helper         10043370 f   LIBCMTD:vswprnc.obj
 0001:000425e0       __vswprintf_p              100435e0 f   LIBCMTD:vswprnc.obj
 0001:00042630       __vswprintf_p_l            10043630 f   LIBCMTD:vswprnc.obj
 0001:00042680       __vswprintf_s_l            10043680 f   LIBCMTD:vswprnc.obj
 0001:00042910       _vswprintf_s               10043910 f   LIBCMTD:vswprnc.obj
 0001:00042930       __FF_MSGBANNER             10043930 f   LIBCMTD:crt0msg.obj
 0001:00042980       __GET_RTERRMSG             10043980 f   LIBCMTD:crt0msg.obj
 0001:000429c0       __NMSG_WRITE               100439c0 f   LIBCMTD:crt0msg.obj
 0001:00042d80       ___getlocaleinfo           10043d80 f   LIBCMTD:inithelp.obj
 0001:00043080       __initp_misc_purevirt      10044080 f   LIBCMTD:inithelp.obj
 0001:00043090       ___libm_error_support      10044090 f   LIBCMTD:libm_error.obj
 0001:00043c60       ___libm_setusermatherr     10044c60 f   LIBCMTD:libm_error.obj
 0001:00043c90       __floor_default            10044c90 f   LIBCMTD:floor.obj
 0001:00043dd0       __allshl                   10044dd0 f   LIBCMTD:llshl.obj
 0001:00043df0       __aulldiv                  10044df0 f   LIBCMTD:ulldiv.obj
 0001:00043e60       __XcptFilter               10044e60 f   LIBCMTD:winxfltr.obj
 0001:00044060       ___CppXcptFilter           10045060 f   LIBCMTD:winxfltr.obj
 0001:000440f0       __get_heap_handle          100450f0 f   LIBCMTD:heapinit.obj
 0001:00044130       __heap_init                10045130 f   LIBCMTD:heapinit.obj
 0001:00044160       __heap_term                10045160 f   LIBCMTD:heapinit.obj
 0001:00044170       __set_pgmptr               10045170 f i LIBCMTD:stdargv.obj
 0001:00044180       __setargv                  10045180 f   LIBCMTD:stdargv.obj
 0001:00044650       __setenvp                  10045650 f   LIBCMTD:stdenvp.obj
 0001:000447f0       ___security_init_cookie    100457f0 f   LIBCMTD:gs_support.obj
 0001:000448d0       _DllMain@12                100458d0 f   LIBCMTD:dllmain.obj
 0001:000448e0       ___crtGetEnvironmentStringsA 100458e0 f   LIBCMTD:a_env.obj
 0001:000449e0       __RTC_Initialize           100459e0 f   LIBCMTD:initsect.obj
 0001:00044a10       __RTC_Terminate            10045a10 f   LIBCMTD:initsect.obj
 0001:00044a40       __CIasin_pentium4          10045a40 f   LIBCMTD:asin_pentium4.obj
 0001:00044a58       __asin_pentium4            10045a58     LIBCMTD:asin_pentium4.obj
 0001:00044fc0       __CIacos_pentium4          10045fc0 f   LIBCMTD:acos_pentium4.obj
 0001:00044fd8       __acos_pentium4            10045fd8     LIBCMTD:acos_pentium4.obj
 0001:00045520       __CItan_pentium4           10046520 f   LIBCMTD:tan_pentium4.obj
 0001:00045538       __tan_pentium4             10046538     LIBCMTD:tan_pentium4.obj
 0001:00045780       __FindPESection            10046780 f   LIBCMTD:pesect.obj
 0001:00045800       __IsNonwritableInCurrentImage 10046800 f   LIBCMTD:pesect.obj
 0001:00045930       __ValidateImageBase        10046930 f   LIBCMTD:pesect.obj
 0001:00045990       __initp_misc_rand_s        10046990 f   LIBCMTD:rand_s.obj
 0001:000459a0       _rand_s                    100469a0 f   LIBCMTD:rand_s.obj
 0001:00045c10       ___initmbctable            10046c10 f   LIBCMTD:mbctype.obj
 0001:00046230       ___updatetmbcinfo          10047230 f   LIBCMTD:mbctype.obj
 0001:00046340       __getmbcp                  10047340 f   LIBCMTD:mbctype.obj
 0001:000463b0       __setmbcp                  100473b0 f   LIBCMTD:mbctype.obj
 0001:00046650       __setmbcp_nolock           10047650 f   LIBCMTD:mbctype.obj
 0001:000469d0       __output_p_l               100479d0 f   LIBCMTD:outputp.obj
 0001:0004a7c0       __validate_param_reuseA    1004b7c0 f   LIBCMTD:outputp.obj
 0001:0004aab0       _get_crtdouble_arg         1004bab0 f i LIBCMTD:outputp.obj
 0001:0004ac70       ___addlocaleref            1004bc70 f   LIBCMTD:localref.obj
 0001:0004ad90       ___freetlocinfo            1004bd90 f   LIBCMTD:localref.obj
 0001:0004b080       ___removelocaleref         1004c080 f   LIBCMTD:localref.obj
 0001:0004b1a0       ___updatetlocinfo          1004c1a0 f   LIBCMTD:localref.obj
 0001:0004b270       __updatetlocinfoEx_nolock  1004c270 f   LIBCMTD:localref.obj
 0001:0004b2f0       __chvalidator              1004c2f0 f   LIBCMTD:isctype.obj
 0001:0004b340       __chvalidator_l            1004c340 f   LIBCMTD:isctype.obj
 0001:0004b400       __isctype                  1004c400 f   LIBCMTD:isctype.obj
 0001:0004b440       __isctype_l                1004c440 f   LIBCMTD:isctype.obj
 0001:0004b590       __free_base                1004c590 f   LIBCMTD:free.obj
 0001:0004b5e0       __realloc_base             1004c5e0 f   LIBCMTD:realloc.obj
 0001:0004b6e0       __expand_base              1004c6e0 f   LIBCMTD:expand.obj
 0001:0004b850       __CrtDbgReport             1004c850 f   LIBCMTD:dbgrpt.obj
 0001:0004b8a0       __CrtDbgReportV            1004c8a0 f i LIBCMTD:dbgrpt.obj
 0001:0004b8d0       __CrtSetReportHook2        1004c8d0 f   LIBCMTD:dbgrpt.obj
 0001:0004bc20       ___crtMessageWindowA       1004cc20 f   LIBCMTD:dbgrpt.obj
 0001:0004c0c0       __heapchk                  1004d0c0 f   LIBCMTD:heapchk.obj
 0001:0004c0f0       __heapset                  1004d0f0 f   LIBCMTD:heapchk.obj
 0001:0004c100       __scprintf                 1004d100 f   LIBCMTD:sprintf.obj
 0001:0004c120       __scprintf_l               1004d120 f   LIBCMTD:sprintf.obj
 0001:0004c150       __scprintf_p               1004d150 f   LIBCMTD:sprintf.obj
 0001:0004c170       __scprintf_p_l             1004d170 f   LIBCMTD:sprintf.obj
 0001:0004c1a0       __snprintf_s               1004d1a0 f   LIBCMTD:sprintf.obj
 0001:0004c1d0       __snprintf_s_l             1004d1d0 f   LIBCMTD:sprintf.obj
 0001:0004c200       __sprintf_l                1004d200 f   LIBCMTD:sprintf.obj
 0001:0004c230       __sprintf_p                1004d230 f   LIBCMTD:sprintf.obj
 0001:0004c260       __sprintf_p_l              1004d260 f   LIBCMTD:sprintf.obj
 0001:0004c290       __sprintf_s_l              1004d290 f   LIBCMTD:sprintf.obj
 0001:0004c2c0       _sprintf                   1004d2c0 f   LIBCMTD:sprintf.obj
 0001:0004c480       _sprintf_s                 1004d480 f   LIBCMTD:sprintf.obj
 0001:0004c4b0       __heap_alloc_base          1004d4b0 f i LIBCMTD:malloc.obj
 0001:0004c510       __malloc_base              1004d510 f   LIBCMTD:malloc.obj
 0001:0004c5a0       __87except                 1004d5a0 f   LIBCMTD:87except.obj
 0001:0004cbd0       ?_RTC_GetSrcLine@@YAHPAEPA_WKPAH1K@Z 1004dbd0 f   LIBCMTD:pdblkup.obj
 0001:0004ce80       __global_unwind2           1004de80 f   LIBCMTD:exsup.obj
 0001:0004cee5       __local_unwind2            1004dee5 f   LIBCMTD:exsup.obj
 0001:0004cf69       __abnormal_termination     1004df69 f   LIBCMTD:exsup.obj
 0001:0004cf8c       __NLG_Notify1              1004df8c f   LIBCMTD:exsup.obj
 0001:0004cf95       __NLG_Notify               1004df95 f   LIBCMTD:exsup.obj
 0001:0004cfac       __NLG_Dispatch2            1004dfac     LIBCMTD:exsup.obj
 0001:0004cfac       __NLG_Dispatch             1004dfac     LIBCMTD:exsup.obj
 0001:0004cfb4       __NLG_Call                 1004dfb4 f   LIBCMTD:exsup.obj
 0001:0004cfb6       __NLG_Return2              1004dfb6     LIBCMTD:exsup.obj
 0001:0004cfc0       ?_ValidateExecute@@YAHP6GHXZ@Z 1004dfc0 f   LIBCMTD:validate.obj
 0001:0004cfe0       ?_ValidateRead@@YAHPBXI@Z  1004dfe0 f   LIBCMTD:validate.obj
 0001:0004d000       ?_ValidateWrite@@YAHPAXI@Z 1004e000 f   LIBCMTD:validate.obj
 0001:0004d020       ___isascii                 1004e020 f i LIBCMTD:_ctype.obj
 0001:0004d050       ___iscsym                  1004e050 f i LIBCMTD:_ctype.obj
 0001:0004d090       ___iscsymf                 1004e090 f i LIBCMTD:_ctype.obj
 0001:0004d0d0       ___toascii                 1004e0d0 f i LIBCMTD:_ctype.obj
 0001:0004d0e0       __isalnum_l                1004e0e0 f i LIBCMTD:_ctype.obj
 0001:0004d160       __isalpha_l                1004e160 f i LIBCMTD:_ctype.obj
 0001:0004d1e0       __iscntrl_l                1004e1e0 f i LIBCMTD:_ctype.obj
 0001:0004d260       __iscsym_l                 1004e260 f i LIBCMTD:_ctype.obj
 0001:0004d2a0       __iscsymf_l                1004e2a0 f i LIBCMTD:_ctype.obj
 0001:0004d2e0       __isdigit_l                1004e2e0 f i LIBCMTD:_ctype.obj
 0001:0004d360       __isgraph_l                1004e360 f i LIBCMTD:_ctype.obj
 0001:0004d3e0       __islower_l                1004e3e0 f i LIBCMTD:_ctype.obj
 0001:0004d460       __isprint_l                1004e460 f i LIBCMTD:_ctype.obj
 0001:0004d4e0       __ispunct_l                1004e4e0 f i LIBCMTD:_ctype.obj
 0001:0004d560       __isspace_l                1004e560 f i LIBCMTD:_ctype.obj
 0001:0004d5e0       __isupper_l                1004e5e0 f i LIBCMTD:_ctype.obj
 0001:0004d660       __isxdigit_l               1004e660 f i LIBCMTD:_ctype.obj
 0001:0004d6e0       _isalnum                   1004e6e0 f i LIBCMTD:_ctype.obj
 0001:0004d720       _isalpha                   1004e720 f i LIBCMTD:_ctype.obj
 0001:0004d760       _iscntrl                   1004e760 f i LIBCMTD:_ctype.obj
 0001:0004d790       _isdigit                   1004e790 f i LIBCMTD:_ctype.obj
 0001:0004d7c0       _isgraph                   1004e7c0 f i LIBCMTD:_ctype.obj
 0001:0004d800       _islower                   1004e800 f i LIBCMTD:_ctype.obj
 0001:0004d830       _isprint                   1004e830 f i LIBCMTD:_ctype.obj
 0001:0004d870       _ispunct                   1004e870 f i LIBCMTD:_ctype.obj
 0001:0004d8a0       _isspace                   1004e8a0 f i LIBCMTD:_ctype.obj
 0001:0004d8d0       _isupper                   1004e8d0 f i LIBCMTD:_ctype.obj
 0001:0004d900       _isxdigit                  1004e900 f i LIBCMTD:_ctype.obj
 0001:0004d940       __tolower                  1004e940 f   LIBCMTD:tolower.obj
 0001:0004d950       __tolower_l                1004e950 f   LIBCMTD:tolower.obj
 0001:0004db90       _tolower                   1004eb90 f   LIBCMTD:tolower.obj
 0001:0004dbe0       __fptostr                  1004ebe0 f   LIBCMTD:_fptostr.obj
 0001:0004df00       __atodbl                   1004ef00 f   LIBCMTD:atodbl.obj
 0001:0004df20       __atodbl_l                 1004ef20 f   LIBCMTD:atodbl.obj
 0001:0004e020       __atoflt                   1004f020 f   LIBCMTD:atodbl.obj
 0001:0004e040       __atoflt_l                 1004f040 f   LIBCMTD:atodbl.obj
 0001:0004e140       __atoldbl                  1004f140 f   LIBCMTD:atodbl.obj
 0001:0004e160       __atoldbl_l                1004f160 f   LIBCMTD:atodbl.obj
 0001:0004e260       ___dtold                   1004f260 f   LIBCMTD:cfout.obj
 0001:0004e3c0       __fltout2                  1004f3c0 f   LIBCMTD:cfout.obj
 0001:0004e470       __alldiv                   1004f470 f   LIBCMTD:lldiv.obj
 0001:0004e520       __allrem                   1004f520 f   LIBCMTD:llrem.obj
 0001:0004e5e0       __aullshr                  1004f5e0 f   LIBCMTD:ullshr.obj
 0001:0004e600       __get_output_format        1004f600 f   LIBCMTD:outputformat.obj
 0001:0004e610       __set_output_format        1004f610 f   LIBCMTD:outputformat.obj
 0001:0004e6b0       __controlfp_s              1004f6b0 f   LIBCMTD:contrlfp.obj
 0001:0004e7a0       __fptrap                   1004f7a0 f   LIBCMTD:crt0fp.obj
 0001:0004e7b0       ___lock_fhandle            1004f7b0 f   LIBCMTD:osfinfo.obj
 0001:0004e8a0       __alloc_osfhnd             1004f8a0 f   LIBCMTD:osfinfo.obj
 0001:0004eb40       __free_osfhnd              1004fb40 f   LIBCMTD:osfinfo.obj
 0001:0004ec30       __get_osfhandle            1004fc30 f   LIBCMTD:osfinfo.obj
 0001:0004edb0       __open_osfhandle           1004fdb0 f   LIBCMTD:osfinfo.obj
 0001:0004efe0       __set_osfhnd               1004ffe0 f   LIBCMTD:osfinfo.obj
 0001:0004f0b0       __unlock_fhandle           100500b0 f   LIBCMTD:osfinfo.obj
 0001:0004f0e0       __commit                   100500e0 f   LIBCMTD:commit.obj
 0001:0004f320       __open                     10050320 f   LIBCMTD:open.obj
 0001:0004f4b0       __sopen                    100504b0 f   LIBCMTD:open.obj
 0001:0004f520       __sopen_helper             10050520 f   LIBCMTD:open.obj
 0001:0004f7b0       __sopen_nolock             100507b0 f   LIBCMTD:open.obj
 0001:0004f820       __sopen_s                  10050820 f   LIBCMTD:open.obj
 0001:0004f850       __mbsnbcmp                 10050850 f   LIBCMTD:mbsnbcmp.obj
 0001:0004f870       __mbsnbcmp_l               10050870 f   LIBCMTD:mbsnbcmp.obj
 0001:0004fb90       __mbsnbicmp                10050b90 f   LIBCMTD:mbsnbicm.obj
 0001:0004fbb0       __mbsnbicmp_l              10050bb0 f   LIBCMTD:mbsnbicm.obj
 0001:000500f0       __output_s_l               100510f0 f   LIBCMTD:outputs.obj
 0001:00051a90       __isatty                   10052a90 f   LIBCMTD:isatty.obj
 0001:00051b50       ___iswcsym                 10052b50 f i LIBCMTD:_wctype.obj
 0001:00051b90       ___iswcsymf                10052b90 f i LIBCMTD:_wctype.obj
 0001:00051bd0       __isleadbyte_l             10052bd0 f i LIBCMTD:_wctype.obj
 0001:00051c20       __iswalnum_l               10052c20 f i LIBCMTD:_wctype.obj
 0001:00051c40       __iswalpha_l               10052c40 f i LIBCMTD:_wctype.obj
 0001:00051c60       __iswcntrl_l               10052c60 f i LIBCMTD:_wctype.obj
 0001:00051c80       __iswcsym_l                10052c80 f i LIBCMTD:_wctype.obj
 0001:00051cc0       __iswcsymf_l               10052cc0 f i LIBCMTD:_wctype.obj
 0001:00051d00       __iswdigit_l               10052d00 f i LIBCMTD:_wctype.obj
 0001:00051d20       __iswgraph_l               10052d20 f i LIBCMTD:_wctype.obj
 0001:00051d40       __iswlower_l               10052d40 f i LIBCMTD:_wctype.obj
 0001:00051d60       __iswprint_l               10052d60 f i LIBCMTD:_wctype.obj
 0001:00051d80       __iswpunct_l               10052d80 f i LIBCMTD:_wctype.obj
 0001:00051da0       __iswspace_l               10052da0 f i LIBCMTD:_wctype.obj
 0001:00051dc0       __iswupper_l               10052dc0 f i LIBCMTD:_wctype.obj
 0001:00051de0       __iswxdigit_l              10052de0 f i LIBCMTD:_wctype.obj
 0001:00051e00       _isleadbyte                10052e00 f i LIBCMTD:_wctype.obj
 0001:00051e20       _iswalnum                  10052e20 f i LIBCMTD:_wctype.obj
 0001:00051e40       _iswalpha                  10052e40 f i LIBCMTD:_wctype.obj
 0001:00051e60       _iswascii                  10052e60 f i LIBCMTD:_wctype.obj
 0001:00051e90       _iswcntrl                  10052e90 f i LIBCMTD:_wctype.obj
 0001:00051eb0       _iswdigit                  10052eb0 f i LIBCMTD:_wctype.obj
 0001:00051ed0       _iswgraph                  10052ed0 f i LIBCMTD:_wctype.obj
 0001:00051ef0       _iswlower                  10052ef0 f i LIBCMTD:_wctype.obj
 0001:00051f10       _iswprint                  10052f10 f i LIBCMTD:_wctype.obj
 0001:00051f30       _iswpunct                  10052f30 f i LIBCMTD:_wctype.obj
 0001:00051f50       _iswspace                  10052f50 f i LIBCMTD:_wctype.obj
 0001:00051f70       _iswupper                  10052f70 f i LIBCMTD:_wctype.obj
 0001:00051f90       _iswxdigit                 10052f90 f i LIBCMTD:_wctype.obj
 0001:00051fb0       __wctomb_l                 10052fb0 f   LIBCMTD:wctomb.obj
 0001:00052030       __wctomb_s_l               10053030 f   LIBCMTD:wctomb.obj
 0001:00052380       _wctomb                    10053380 f   LIBCMTD:wctomb.obj
 0001:000523d0       _wctomb_s                  100533d0 f   LIBCMTD:wctomb.obj
 0001:000523f0       __aullrem                  100533f0 f   LIBCMTD:ullrem.obj
 0001:00052470       __lseeki64                 10053470 f   LIBCMTD:lseeki64.obj
 0001:000526e0       __lseeki64_nolock          100536e0 f   LIBCMTD:lseeki64.obj
 0001:000527b0       __getbuf                   100537b0 f   LIBCMTD:_getbuf.obj
 0001:00052880       __matherr                  10053880 f   LIBCMTD:matherr.obj
 0001:00052890       ___vswprintf_l             10053890 f   LIBCMTD:vswprint.obj
 0001:000528b0       __vscwprintf               100538b0 f   LIBCMTD:vswprint.obj
 0001:000528d0       __vscwprintf_helper        100538d0 f   LIBCMTD:vswprint.obj
 0001:000529c0       __vscwprintf_l             100539c0 f   LIBCMTD:vswprint.obj
 0001:000529e0       __vscwprintf_p             100539e0 f   LIBCMTD:vswprint.obj
 0001:00052a00       __vscwprintf_p_l           10053a00 f   LIBCMTD:vswprint.obj
 0001:00052a20       __vswprintf                10053a20 f   LIBCMTD:vswprint.obj
 0001:00052a40       __vswprintf_l              10053a40 f   LIBCMTD:vswprint.obj
 0001:00052c60       __woutput_l                10053c60 f   LIBCMTD:woutput.obj
 0001:00054240       _strcat_s                  10055240 f   LIBCMTD:strcat_s.obj
 0001:00054a70       __i64toa_s                 10055a70 f   LIBCMTD:xtoas.obj
 0001:00054ac0       __itoa_s                   10055ac0 f   LIBCMTD:xtoas.obj
 0001:00054b20       __ltoa_s                   10055b20 f   LIBCMTD:xtoas.obj
 0001:00054b60       __ui64toa_s                10055b60 f   LIBCMTD:xtoas.obj
 0001:00054b80       __ultoa_s                  10055b80 f   LIBCMTD:xtoas.obj
 0001:00054f80       __mbstowcs_l               10055f80 f   LIBCMTD:mbstowcs.obj
 0001:00054fa0       __mbstowcs_l_helper        10055fa0 f   LIBCMTD:mbstowcs.obj
 0001:00055330       __mbstowcs_s_l             10056330 f   LIBCMTD:mbstowcs.obj
 0001:000556f0       _mbstowcs                  100566f0 f   LIBCMTD:mbstowcs.obj
 0001:00055740       _mbstowcs_s                10056740 f   LIBCMTD:mbstowcs.obj
 0001:000557d0       __wcstombs_l               100567d0 f   LIBCMTD:wcstombs.obj
 0001:000557f0       __wcstombs_l_helper        100567f0 f   LIBCMTD:wcstombs.obj
 0001:00055d00       __wcstombs_s_l             10056d00 f   LIBCMTD:wcstombs.obj
 0001:00056060       _wcstombs                  10057060 f   LIBCMTD:wcstombs.obj
 0001:00056080       _wcstombs_s                10057080 f   LIBCMTD:wcstombs.obj
 0001:000560b0       __vsnprintf_c              100570b0 f   LIBCMTD:vsnprnc.obj
 0001:00056100       __vsnprintf_c_l            10057100 f   LIBCMTD:vsnprnc.obj
 0001:00056150       __vsnprintf_helper         10057150 f   LIBCMTD:vsnprnc.obj
 0001:00056350       __vsnprintf_s              10057350 f   LIBCMTD:vsnprnc.obj
 0001:00056380       __vsnprintf_s_l            10057380 f   LIBCMTD:vsnprnc.obj
 0001:00056740       __vsprintf_p               10057740 f   LIBCMTD:vsnprnc.obj
 0001:00056790       __vsprintf_p_l             10057790 f   LIBCMTD:vsnprnc.obj
 0001:000567e0       __vsprintf_s_l             100577e0 f   LIBCMTD:vsnprnc.obj
 0001:00056a70       _vsprintf_s                10057a70 f   LIBCMTD:vsnprnc.obj
 0001:00056a90       ??0Block@_HeapManager@@QAE@XZ 10057a90 f i LIBCMTD:undname.obj
 0001:00056ab0       ??0DName@@QAE@AAPBDD@Z     10057ab0 f   LIBCMTD:undname.obj
 0001:00056d70       ??0DName@@QAE@ABV0@@Z      10057d70 f i LIBCMTD:undname.obj
 0001:00056d90       ??0DName@@QAE@D@Z          10057d90 f   LIBCMTD:undname.obj
 0001:00056e70       ??0DName@@QAE@PAV0@@Z      10057e70 f   LIBCMTD:undname.obj
 0001:00056fb0       ??0DName@@QAE@PBD@Z        10057fb0 f   LIBCMTD:undname.obj
 0001:000570a0       ??0DName@@QAE@W4DNameStatus@@@Z 100580a0 f   LIBCMTD:undname.obj
 0001:000571c0       ??0DName@@QAE@XZ           100581c0 f i LIBCMTD:undname.obj
 0001:00057280       ??0DName@@QAE@_J@Z         10058280 f   LIBCMTD:undname.obj
 0001:00057400       ??0DName@@QAE@_K@Z         10058400 f   LIBCMTD:undname.obj
 0001:00057540       ??0DNameNode@@IAE@XZ       10058540 f   LIBCMTD:undname.obj
 0001:00057560       ??0DNameStatusNode@@AAE@W4DNameStatus@@@Z 10058560 f   LIBCMTD:undname.obj
 0001:000575b0       ??0Replicator@@QAE@XZ      100585b0 f i LIBCMTD:undname.obj
 0001:000575d0       ??0UnDecorator@@QAE@PADPBDHP6APADJ@ZK@Z 100585d0 f i LIBCMTD:undname.obj
 0001:00057670       ??0charNode@@QAE@D@Z       10058670 f   LIBCMTD:undname.obj
 0001:000576a0       ??0pDNameNode@@QAE@PAVDName@@@Z 100586a0 f   LIBCMTD:undname.obj
 0001:00057700       ??0pairNode@@QAE@PAVDNameNode@@0@Z 10058700 f   LIBCMTD:undname.obj
 0001:00057740       ??0pcharNode@@QAE@PBDH@Z   10058740 f   LIBCMTD:undname.obj
 0001:000577e0       ??2@YAPAXIAAV_HeapManager@@H@Z 100587e0 f i LIBCMTD:undname.obj
 0001:00057800       ??4DName@@QAEAAV0@ABV0@@Z  10058800 f   LIBCMTD:undname.obj
 0001:00057820       ??4DName@@QAEAAV0@D@Z      10058820 f i LIBCMTD:undname.obj
 0001:00057900       ??4DName@@QAEAAV0@PAV0@@Z  10058900 f   LIBCMTD:undname.obj
 0001:00057a30       ??4DName@@QAEAAV0@PBD@Z    10058a30 f   LIBCMTD:undname.obj
 0001:00057b10       ??4DName@@QAEAAV0@W4DNameStatus@@@Z 10058b10 f   LIBCMTD:undname.obj
 0001:00057c10       ??AReplicator@@QBE?AVDName@@H@Z 10058c10 f   LIBCMTD:undname.obj
 0001:00057c80       ??BUnDecorator@@QAEPADXZ   10058c80 f i LIBCMTD:undname.obj
 0001:00057f10       ??H@YA?AVDName@@DABV0@@Z   10058f10 f i LIBCMTD:undname.obj
 0001:00057f40       ??H@YA?AVDName@@PBDABV0@@Z 10058f40 f i LIBCMTD:undname.obj
 0001:00057f70       ??H@YA?AVDName@@W4DNameStatus@@ABV0@@Z 10058f70 f i LIBCMTD:undname.obj
 0001:00057fa0       ??HDName@@QBE?AV0@ABV0@@Z  10058fa0 f   LIBCMTD:undname.obj
 0001:00057fe0       ??HDName@@QBE?AV0@D@Z      10058fe0 f   LIBCMTD:undname.obj
 0001:00058020       ??HDName@@QBE?AV0@PAV0@@Z  10059020 f   LIBCMTD:undname.obj
 0001:00058060       ??HDName@@QBE?AV0@PBD@Z    10059060 f   LIBCMTD:undname.obj
 0001:000580a0       ??HDName@@QBE?AV0@W4DNameStatus@@@Z 100590a0 f   LIBCMTD:undname.obj
 0001:000580e0       ??YDName@@QAEAAV0@ABV0@@Z  100590e0 f   LIBCMTD:undname.obj
 0001:00058150       ??YDName@@QAEAAV0@D@Z      10059150 f   LIBCMTD:undname.obj
 0001:000581d0       ??YDName@@QAEAAV0@PAV0@@Z  100591d0 f   LIBCMTD:undname.obj
 0001:00058280       ??YDName@@QAEAAV0@PBD@Z    10059280 f   LIBCMTD:undname.obj
 0001:00058320       ??YDName@@QAEAAV0@W4DNameStatus@@@Z 10059320 f   LIBCMTD:undname.obj
 0001:00058380       ??YReplicator@@QAEAAV0@ABVDName@@@Z 10059380 f   LIBCMTD:undname.obj
 0001:00058410       ??_5DName@@QAEAAV0@ABV0@@Z 10059410 f   LIBCMTD:undname.obj
 0001:00058470       ?Constructor@_HeapManager@@QAEXP6APAXI@ZP6AXPAX@Z@Z 10059470 f i LIBCMTD:undname.obj
 0001:000584b0       ?Destructor@_HeapManager@@QAEXXZ 100594b0 f i LIBCMTD:undname.obj
 0001:00058500       ?UScore@UnDecorator@@SAPBDW4Tokens@@@Z 10059500 f   LIBCMTD:undname.obj
 0001:00058530       ?append@DName@@AAEXPAVDNameNode@@@Z 10059530 f   LIBCMTD:undname.obj
 0001:000585c0       ?composeDeclaration@UnDecorator@@CA?AVDName@@ABV2@@Z 100595c0 f i LIBCMTD:undname.obj
 0001:0005a240       ?dbGetString@DName@@QBEPADXZ 1005b240 f   LIBCMTD:undname.obj
 0001:0005a260       ?doAccessSpecifiers@UnDecorator@@SAHXZ 1005b260 f i LIBCMTD:undname.obj
 0001:0005a290       ?doAllocationLanguage@UnDecorator@@SAHXZ 1005b290 f i LIBCMTD:undname.obj
 0001:0005a2c0       ?doAllocationModel@UnDecorator@@SAHXZ 1005b2c0 f i LIBCMTD:undname.obj
 0001:0005a2f0       ?doEcsu@UnDecorator@@SAHXZ 1005b2f0 f i LIBCMTD:undname.obj
 0001:0005a320       ?doEllipsis@UnDecorator@@SAHXZ 1005b320 f i LIBCMTD:undname.obj
 0001:0005a350       ?doFunctionReturns@UnDecorator@@SAHXZ 1005b350 f i LIBCMTD:undname.obj
 0001:0005a380       ?doMSKeywords@UnDecorator@@SAHXZ 1005b380 f i LIBCMTD:undname.obj
 0001:0005a3b0       ?doMemberTypes@UnDecorator@@SAHXZ 1005b3b0 f i LIBCMTD:undname.obj
 0001:0005a3e0       ?doNameOnly@UnDecorator@@SAHXZ 1005b3e0 f i LIBCMTD:undname.obj
 0001:0005a3f0       ?doNoIdentCharCheck@UnDecorator@@SAHXZ 1005b3f0 f i LIBCMTD:undname.obj
 0001:0005a400       ?doPchar@DName@@AAEXPBDH@Z 1005b400 f   LIBCMTD:undname.obj
 0001:0005a540       ?doPtr64@UnDecorator@@SAHXZ 1005b540 f i LIBCMTD:undname.obj
 0001:0005a570       ?doRestrictionSpec@UnDecorator@@SAHXZ 1005b570 f i LIBCMTD:undname.obj
 0001:0005a5a0       ?doThisTypes@UnDecorator@@SAHXZ 1005b5a0 f i LIBCMTD:undname.obj
 0001:0005a5d0       ?doThrowTypes@UnDecorator@@SAHXZ 1005b5d0 f i LIBCMTD:undname.obj
 0001:0005a600       ?doTypeOnly@UnDecorator@@SAHXZ 1005b600 f i LIBCMTD:undname.obj
 0001:0005a610       ?doUnderScore@UnDecorator@@SAHXZ 1005b610 f i LIBCMTD:undname.obj
 0001:0005a640       ?getArgumentList@UnDecorator@@CA?AVDName@@XZ 1005b640 f   LIBCMTD:undname.obj
 0001:0005a790       ?getArgumentTypes@UnDecorator@@CA?AVDName@@XZ 1005b790 f   LIBCMTD:undname.obj
 0001:0005a8f0       ?getArrayType@UnDecorator@@CA?AVDName@@ABV2@@Z 1005b8f0 f i LIBCMTD:undname.obj
 0001:0005ab30       ?getBasedType@UnDecorator@@CA?AVDName@@XZ 1005bb30 f   LIBCMTD:undname.obj
 0001:0005abf0       ?getBasicDataType@UnDecorator@@CA?AVDName@@ABV2@@Z 1005bbf0 f   LIBCMTD:undname.obj
 0001:0005b1b0       ?getCallIndex@UnDecorator@@CA?AVDName@@XZ 1005c1b0 f i LIBCMTD:undname.obj
 0001:0005b1d0       ?getCallingConvention@UnDecorator@@CA?AVDName@@XZ 1005c1d0 f   LIBCMTD:undname.obj
 0001:0005b340       ?getDataIndirectType@UnDecorator@@CA?AVDName@@ABV2@PBD0H@Z 1005c340 f   LIBCMTD:undname.obj
 0001:0005ba50       ?getDataIndirectType@UnDecorator@@CA?AVDName@@XZ 1005ca50 f i LIBCMTD:undname.obj
 0001:0005ba90       ?getDataType@UnDecorator@@CA?AVDName@@PAV2@@Z 1005ca90 f   LIBCMTD:undname.obj
 0001:0005bbb0       ?getDecoratedName@UnDecorator@@CA?AVDName@@XZ 1005cbb0 f   LIBCMTD:undname.obj
 0001:0005bee0       ?getDimension@UnDecorator@@CA?AVDName@@_N@Z 1005cee0 f   LIBCMTD:undname.obj
 0001:0005c190       ?getDispatchTarget@UnDecorator@@CA?AVDName@@XZ 1005d190 f   LIBCMTD:undname.obj
 0001:0005c230       ?getDisplacement@UnDecorator@@CA?AVDName@@XZ 1005d230 f i LIBCMTD:undname.obj
 0001:0005c250       ?getECSUDataType@UnDecorator@@CA?AVDName@@XZ 1005d250 f   LIBCMTD:undname.obj
 0001:0005c420       ?getECSUName@UnDecorator@@CA?AVDName@@XZ 1005d420 f i LIBCMTD:undname.obj
 0001:0005c440       ?getEnumType@UnDecorator@@CA?AVDName@@XZ 1005d440 f i LIBCMTD:undname.obj
 0001:0005c590       ?getExtendedDataIndirectType@UnDecorator@@CA?AVDName@@AAPBDAA_NH@Z 1005d590 f   LIBCMTD:undname.obj
 0001:0005c7e0       ?getExternalDataType@UnDecorator@@CA?AVDName@@ABV2@@Z 1005d7e0 f i LIBCMTD:undname.obj
 0001:0005c870       ?getFunctionIndirectType@UnDecorator@@CA?AVDName@@ABV2@@Z 1005d870 f   LIBCMTD:undname.obj
 0001:0005cce0       ?getGuardNumber@UnDecorator@@CA?AVDName@@XZ 1005dce0 f i LIBCMTD:undname.obj
 0001:0005cd00       ?getLastChar@DName@@QBEDXZ 1005dd00 f i LIBCMTD:undname.obj
 0001:0005cd30       ?getLastChar@DNameStatusNode@@UBEDXZ 1005dd30 f i LIBCMTD:undname.obj
 0001:0005cd60       ?getLastChar@charNode@@UBEDXZ 1005dd60 f i LIBCMTD:undname.obj
 0001:0005cd80       ?getLastChar@pDNameNode@@UBEDXZ 1005dd80 f i LIBCMTD:undname.obj
 0001:0005cdb0       ?getLastChar@pairNode@@UBEDXZ 1005ddb0 f i LIBCMTD:undname.obj
 0001:0005ce00       ?getLastChar@pcharNode@@UBEDXZ 1005de00 f i LIBCMTD:undname.obj
 0001:0005ce40       ?getLexicalFrame@UnDecorator@@CA?AVDName@@XZ 1005de40 f i LIBCMTD:undname.obj
 0001:0005ce80       ?getMemory@_HeapManager@@QAEPAXIH@Z 1005de80 f   LIBCMTD:undname.obj
 0001:0005cf90       ?getNumberOfDimensions@UnDecorator@@CAHXZ 1005df90 f   LIBCMTD:undname.obj
 0001:0005d090       ?getOperatorName@UnDecorator@@CA?AVDName@@_NPA_N@Z 1005e090 f i LIBCMTD:undname.obj
 0001:0005da20       ?getPointerType@UnDecorator@@CA?AVDName@@ABV2@0@Z 1005ea20 f i LIBCMTD:undname.obj
 0001:0005da50       ?getPointerTypeArray@UnDecorator@@CA?AVDName@@ABV2@0@Z 1005ea50 f i LIBCMTD:undname.obj
 0001:0005da80       ?getPrimaryDataType@UnDecorator@@CA?AVDName@@ABV2@@Z 1005ea80 f   LIBCMTD:undname.obj
 0001:0005de20       ?getPtrRefDataType@UnDecorator@@CA?AVDName@@ABV2@H@Z 1005ee20 f i LIBCMTD:undname.obj
 0001:0005df60       ?getPtrRefType@UnDecorator@@CA?AVDName@@ABV2@0PBD@Z 1005ef60 f   LIBCMTD:undname.obj
 0001:0005e0d0       ?getReferenceType@UnDecorator@@CA?AVDName@@ABV2@0PBD@Z 1005f0d0 f i LIBCMTD:undname.obj
 0001:0005e0f0       ?getRestrictionSpec@UnDecorator@@CA?AVDName@@XZ 1005f0f0 f   LIBCMTD:undname.obj
 0001:0005e240       ?getReturnType@UnDecorator@@CA?AVDName@@PAV2@@Z 1005f240 f   LIBCMTD:undname.obj
 0001:0005e290       ?getScope@UnDecorator@@CA?AVDName@@XZ 1005f290 f   LIBCMTD:undname.obj
 0001:0005e780       ?getScopedName@UnDecorator@@CA?AVDName@@XZ 1005f780 f   LIBCMTD:undname.obj
 0001:0005e8a0       ?getSignedDimension@UnDecorator@@CA?AVDName@@XZ 1005f8a0 f   LIBCMTD:undname.obj
 0001:0005e920       ?getStorageConvention@UnDecorator@@CA?AVDName@@XZ 1005f920 f i LIBCMTD:undname.obj
 0001:0005e940       ?getString@DName@@QBEPADPAD0@Z 1005f940 f i LIBCMTD:undname.obj
 0001:0005e980       ?getString@DName@@QBEPADPADH@Z 1005f980 f i LIBCMTD:undname.obj
 0001:0005ea10       ?getString@DNameStatusNode@@UBEPADPAD0@Z 1005fa10 f i LIBCMTD:undname.obj
 0001:0005ea50       ?getString@charNode@@UBEPADPAD0@Z 1005fa50 f i LIBCMTD:undname.obj
 0001:0005ea80       ?getString@pDNameNode@@UBEPADPAD0@Z 1005fa80 f i LIBCMTD:undname.obj
 0001:0005eac0       ?getString@pairNode@@UBEPADPAD0@Z 1005fac0 f i LIBCMTD:undname.obj
 0001:0005eb20       ?getString@pcharNode@@UBEPADPAD0@Z 1005fb20 f i LIBCMTD:undname.obj
 0001:0005eb50       ?getStringEncoding@UnDecorator@@CA?AVDName@@PADH@Z 1005fb50 f   LIBCMTD:undname.obj
 0001:0005ec60       ?getStringHelper@@YAPADPAD00H@Z 1005fc60 f i LIBCMTD:undname.obj
 0001:0005eca0       ?getSymbolName@UnDecorator@@CA?AVDName@@XZ 1005fca0 f i LIBCMTD:undname.obj
 0001:0005ed30       ?getTemplateArgumentList@UnDecorator@@CA?AVDName@@XZ 1005fd30 f   LIBCMTD:undname.obj
 0001:0005efb0       ?getTemplateConstant@UnDecorator@@CA?AVDName@@XZ 1005ffb0 f   LIBCMTD:undname.obj
 0001:0005f480       ?getTemplateName@UnDecorator@@CA?AVDName@@_N@Z 10060480 f   LIBCMTD:undname.obj
 0001:0005f650       ?getThisType@UnDecorator@@CA?AVDName@@XZ 10060650 f i LIBCMTD:undname.obj
 0001:0005f690       ?getThrowTypes@UnDecorator@@CA?AVDName@@XZ 10060690 f   LIBCMTD:undname.obj
 0001:0005f740       ?getTypeEncoding@UnDecorator@@CAHXZ 10060740 f i LIBCMTD:undname.obj
 0001:00060180       ?getVCallThunkType@UnDecorator@@CA?AVDName@@XZ 10061180 f i LIBCMTD:undname.obj
 0001:000601e0       ?getVbTableType@UnDecorator@@CA?AVDName@@ABV2@@Z 100611e0 f i LIBCMTD:undname.obj
 0001:00060200       ?getVdispMapType@UnDecorator@@CA?AVDName@@ABV2@@Z 10061200 f i LIBCMTD:undname.obj
 0001:00060270       ?getVfTableType@UnDecorator@@CA?AVDName@@ABV2@@Z 10061270 f i LIBCMTD:undname.obj
 0001:00060430       ?getZName@UnDecorator@@CA?AVDName@@_N0@Z 10061430 f   LIBCMTD:undname.obj
 0001:000606e0       ?haveTemplateParameters@UnDecorator@@SAHXZ 100616e0 f i LIBCMTD:undname.obj
 0001:000606f0       ?isArray@DName@@QBEHXZ     100616f0 f i LIBCMTD:undname.obj
 0001:00060710       ?isComArray@DName@@QBEHXZ  10061710 f i LIBCMTD:undname.obj
 0001:00060730       ?isEmpty@DName@@QBEHXZ     10061730 f i LIBCMTD:undname.obj
 0001:00060760       ?isFull@Replicator@@QBEHXZ 10061760 f i LIBCMTD:undname.obj
 0001:00060790       ?isNoTE@DName@@QBEHXZ      10061790 f i LIBCMTD:undname.obj
 0001:000607b0       ?isPinPtr@DName@@QBEHXZ    100617b0 f i LIBCMTD:undname.obj
 0001:000607d0       ?isPtrRef@DName@@QBEHXZ    100617d0 f i LIBCMTD:undname.obj
 0001:000607f0       ?isUDC@DName@@QBEHXZ       100617f0 f i LIBCMTD:undname.obj
 0001:00060830       ?isUDTThunk@DName@@QBEHXZ  10061830 f i LIBCMTD:undname.obj
 0001:00060870       ?isVCallThunk@DName@@QBEHXZ 10061870 f i LIBCMTD:undname.obj
 0001:00060890       ?isValid@DName@@QBEHXZ     10061890 f i LIBCMTD:undname.obj
 0001:000608d0       ?length@DName@@QBEHXZ      100618d0 f i LIBCMTD:undname.obj
 0001:00060900       ?length@DNameStatusNode@@UBEHXZ 10061900 f i LIBCMTD:undname.obj
 0001:00060920       ?length@charNode@@UBEHXZ   10061920 f i LIBCMTD:undname.obj
 0001:00060930       ?length@pDNameNode@@UBEHXZ 10061930 f i LIBCMTD:undname.obj
 0001:00060960       ?length@pairNode@@UBEHXZ   10061960 f i LIBCMTD:undname.obj
 0001:000609b0       ?length@pcharNode@@UBEHXZ  100619b0 f i LIBCMTD:undname.obj
 0001:000609d0       ?make@DNameStatusNode@@SAPAV1@W4DNameStatus@@@Z 100619d0 f i LIBCMTD:undname.obj
 0001:00060a80       ?setIsArray@DName@@QAEXXZ  10061a80 f i LIBCMTD:undname.obj
 0001:00060aa0       ?setIsComArray@DName@@QAEXXZ 10061aa0 f i LIBCMTD:undname.obj
 0001:00060ac0       ?setIsNoTE@DName@@QAEXXZ   10061ac0 f i LIBCMTD:undname.obj
 0001:00060ae0       ?setIsPinPtr@DName@@QAEXXZ 10061ae0 f i LIBCMTD:undname.obj
 0001:00060b00       ?setIsUDC@DName@@QAEXXZ    10061b00 f i LIBCMTD:undname.obj
 0001:00060b30       ?setIsVCallThunk@DName@@QAEXXZ 10061b30 f i LIBCMTD:undname.obj
 0001:00060b50       ?setPtrRef@DName@@QAEAAV1@XZ 10061b50 f i LIBCMTD:undname.obj
 0001:00060b70       ?status@DName@@QBE?AW4DNameStatus@@XZ 10061b70 f i LIBCMTD:undname.obj
 0001:00060c70       ___unDName                 10061c70 f   LIBCMTD:undname.obj
 0001:00060d40       ___unDNameEx               10061d40 f   LIBCMTD:undname.obj
 0001:00060e20       __mbtowc_l                 10061e20 f   LIBCMTD:mbtowc.obj
 0001:00061060       _mbtowc                    10062060 f   LIBCMTD:mbtowc.obj
 0001:00061080       __putwch                   10062080 f   LIBCMTD:putwch.obj
 0001:00061110       __putwch_nolock            10062110 f   LIBCMTD:putwch.obj
 0001:00061160       __frnd                     10062160 f   LIBCMTD:frnd.obj
 0001:00061180       __vfwprintf_l              10062180 f   LIBCMTD:vfwprint.obj
 0001:000611b0       __vfwprintf_p              100621b0 f   LIBCMTD:vfwprint.obj
 0001:000611d0       __vfwprintf_p_l            100621d0 f   LIBCMTD:vfwprint.obj
 0001:00061200       __vfwprintf_s_l            10062200 f   LIBCMTD:vfwprint.obj
 0001:00061230       _vfwprintf                 10062230 f   LIBCMTD:vfwprint.obj
 0001:00061250       _vfwprintf_helper          10062250 f   LIBCMTD:vfwprint.obj
 0001:000613f0       _vfwprintf_s               100623f0 f   LIBCMTD:vfwprint.obj
 0001:00061410       __woutput_s_l              10062410 f   LIBCMTD:woutputs.obj
 0001:00062b50       __validate_param_reuseW    10063b50 f   LIBCMTD:woutputp.obj
 0001:00062e30       __woutput_p_l              10063e30 f   LIBCMTD:woutputp.obj
 0001:00066920       _wcsncpy_s                 10067920 f   LIBCMTD:wcsncpy_s.obj
 0001:00066d50       _strncpy_s                 10067d50 f   LIBCMTD:strncpy_s.obj
 0001:00067280       __MarkAllocaS              10068280 f i LIBCMTD:a_loc.obj
 0001:000672a0       ___crtGetLocaleInfoA       100682a0 f   LIBCMTD:a_loc.obj
 0001:000672f0       __freea                    100682f0 f i LIBCMTD:a_loc.obj
 0001:00067360       _GetTableIndexFromLcid     10068360 f   LIBCMTD:winapinls.obj
 0001:000673d0       _GetTableIndexFromLocaleName 100683d0 f   LIBCMTD:winapinls.obj
 0001:00067460       ___crtCompareStringEx      10068460 f   LIBCMTD:winapinls.obj
 0001:000674d0       ___crtDownlevelLCIDToLocaleName 100684d0 f   LIBCMTD:winapinls.obj
 0001:000675a0       ___crtDownlevelLocaleNameToLCID 100685a0 f   LIBCMTD:winapinls.obj
 0001:00067600       ___crtEnumSystemLocalesEx  10068600 f   LIBCMTD:winapinls.obj
 0001:00067670       ___crtGetDateFormatEx      10068670 f   LIBCMTD:winapinls.obj
 0001:000676e0       ___crtGetLocaleInfoEx      100686e0 f   LIBCMTD:winapinls.obj
 0001:00067740       ___crtGetTimeFormatEx      10068740 f   LIBCMTD:winapinls.obj
 0001:000677b0       ___crtGetUserDefaultLocaleName 100687b0 f   LIBCMTD:winapinls.obj
 0001:00067800       ___crtIsValidLocaleName    10068800 f   LIBCMTD:winapinls.obj
 0001:00067840       ___crtLCMapStringEx        10068840 f   LIBCMTD:winapinls.obj
 0001:000678b0       ___wcsnicmp_ascii          100688b0 f   LIBCMTD:winapinls.obj
 0001:00067a40       __ismbbalnum               10068a40 f   LIBCMTD:ismbbyte.obj
 0001:00067a60       __ismbbalnum_l             10068a60 f   LIBCMTD:ismbbyte.obj
 0001:00067a80       __ismbbalpha               10068a80 f   LIBCMTD:ismbbyte.obj
 0001:00067aa0       __ismbbalpha_l             10068aa0 f   LIBCMTD:ismbbyte.obj
 0001:00067ac0       __ismbbgraph               10068ac0 f   LIBCMTD:ismbbyte.obj
 0001:00067ae0       __ismbbgraph_l             10068ae0 f   LIBCMTD:ismbbyte.obj
 0001:00067b00       __ismbbkalnum              10068b00 f   LIBCMTD:ismbbyte.obj
 0001:00067b20       __ismbbkalnum_l            10068b20 f   LIBCMTD:ismbbyte.obj
 0001:00067b40       __ismbbkana                10068b40 f   LIBCMTD:ismbbyte.obj
 0001:00067b60       __ismbbkana_l              10068b60 f   LIBCMTD:ismbbyte.obj
 0001:00067bd0       __ismbbkprint              10068bd0 f   LIBCMTD:ismbbyte.obj
 0001:00067bf0       __ismbbkprint_l            10068bf0 f   LIBCMTD:ismbbyte.obj
 0001:00067c10       __ismbbkpunct              10068c10 f   LIBCMTD:ismbbyte.obj
 0001:00067c30       __ismbbkpunct_l            10068c30 f   LIBCMTD:ismbbyte.obj
 0001:00067c50       __ismbblead                10068c50 f   LIBCMTD:ismbbyte.obj
 0001:00067c70       __ismbblead_l              10068c70 f   LIBCMTD:ismbbyte.obj
 0001:00067c90       __ismbbprint               10068c90 f   LIBCMTD:ismbbyte.obj
 0001:00067cb0       __ismbbprint_l             10068cb0 f   LIBCMTD:ismbbyte.obj
 0001:00067cd0       __ismbbpunct               10068cd0 f   LIBCMTD:ismbbyte.obj
 0001:00067cf0       __ismbbpunct_l             10068cf0 f   LIBCMTD:ismbbyte.obj
 0001:00067d10       __ismbbtrail               10068d10 f   LIBCMTD:ismbbyte.obj
 0001:00067d30       __ismbbtrail_l             10068d30 f   LIBCMTD:ismbbyte.obj
 0001:00068040       ___crtLCMapStringA         10069040 f   LIBCMTD:a_map.obj
 0001:000681b0       ___crtGetStringTypeA       100691b0 f   LIBCMTD:a_str.obj
 0001:00068700       __strtol_l                 10069700 f   LIBCMTD:strtol.obj
 0001:00068720       __strtoul_l                10069720 f   LIBCMTD:strtol.obj
 0001:00068740       _strtol                    10069740 f   LIBCMTD:strtol.obj
 0001:00068790       _strtoul                   10069790 f   LIBCMTD:strtol.obj
 0001:000687e0       ___free_lconv_mon          100697e0 f   LIBCMTD:initmon.obj
 0001:00068990       ___init_monetary           10069990 f   LIBCMTD:initmon.obj
 0001:00068fa0       ___free_lconv_num          10069fa0 f   LIBCMTD:initnum.obj
 0001:00069050       ___init_numeric            1006a050 f   LIBCMTD:initnum.obj
 0001:00069420       ___free_lc_time            1006a420 f   LIBCMTD:inittime.obj
 0001:00069d50       ___init_time               1006ad50 f   LIBCMTD:inittime.obj
 0001:0006ad50       _localeconv                1006bd50 f   LIBCMTD:lconv.obj
 0001:0006ada0       ___init_dummy              1006bda0 f   LIBCMTD:wsetloca.obj
 0001:0006adb0       __locterm                  1006bdb0 f   LIBCMTD:wsetloca.obj
 0001:0006ae40       ____setlc_active_func      1006be40 f   LIBCMTD:wsetloca.obj
 0001:0006ae50       ____unguarded_readlc_active_add_func 1006be50 f   LIBCMTD:wsetloca.obj
 0001:0006ae60       ___copy_locale_name        1006be60 f   LIBCMTD:wsetloca.obj
 0001:0006af00       ___create_locale           1006bf00 f   LIBCMTD:wsetloca.obj
 0001:0006af20       ___free_locale             1006bf20 f   LIBCMTD:wsetloca.obj
 0001:0006af40       ___get_current_locale      1006bf40 f   LIBCMTD:wsetloca.obj
 0001:0006af50       ___lc_lctowcs              1006bf50 f   LIBCMTD:wsetloca.obj
 0001:0006b000       ___lc_wcstolc              1006c000 f   LIBCMTD:wsetloca.obj
 0001:0006b220       __configthreadlocale       1006c220 f   LIBCMTD:wsetloca.obj
 0001:0006b380       __create_locale            1006c380 f   LIBCMTD:wsetloca.obj
 0001:0006b3f0       __expandlocale             1006c3f0 f   LIBCMTD:wsetloca.obj
 0001:0006b8e0       __free_locale              1006c8e0 f   LIBCMTD:wsetloca.obj
 0001:0006ba10       __get_current_locale       1006ca10 f   LIBCMTD:wsetloca.obj
 0001:0006bb30       __wcreate_locale           1006cb30 f   LIBCMTD:wsetloca.obj
 0001:0006bd10       __wcscats                  1006cd10 f   LIBCMTD:wsetloca.obj
 0001:0006bd90       __wsetlocale               1006cd90 f   LIBCMTD:wsetloca.obj
 0001:0006ce20       ___pctype_func             1006de20 f   LIBCMTD:ctype.obj
 0001:0006ce70       ___pwctype_func            1006de70 f   LIBCMTD:ctype.obj
 0001:0006ce80       __wmakepath_s              1006de80 f   LIBCMTD:wmakepath_s.obj
 0001:0006d240       __wsplitpath_s             1006e240 f   LIBCMTD:wsplitpath_s.obj
 0001:0006d880       __CopyMan                  1006e880 f i LIBCMTD:intrncvt.obj
 0001:0006d8d0       __FillZeroMan              1006e8d0 f i LIBCMTD:intrncvt.obj
 0001:0006d900       __IncMan                   1006e900 f i LIBCMTD:intrncvt.obj
 0001:0006d9b0       __IsZeroMan                1006e9b0 f i LIBCMTD:intrncvt.obj
 0001:0006d9f0       __RoundMan                 1006e9f0 f i LIBCMTD:intrncvt.obj
 0001:0006dad0       __ShrMan                   1006ead0 f i LIBCMTD:intrncvt.obj
 0001:0006dbc0       __ZeroTail                 1006ebc0 f i LIBCMTD:intrncvt.obj
 0001:0006dc50       ___addl                    1006ec50 f i LIBCMTD:intrncvt.obj
 0001:0006dc90       __ld12cvt                  1006ec90 f i LIBCMTD:intrncvt.obj
 0001:0006df50       __ld12tod                  1006ef50 f   LIBCMTD:intrncvt.obj
 0001:0006df70       __ld12tof                  1006ef70 f   LIBCMTD:intrncvt.obj
 0001:0006df90       __ld12told                 1006ef90 f   LIBCMTD:intrncvt.obj
 0001:0006e090       ___STRINGTOLD_L            1006f090 f   LIBCMTD:strgtold.obj
 0001:0006e100       ___ld12mul                 1006f100 f i LIBCMTD:strgtold.obj
 0001:0006e510       ___multtenpow12            1006f510 f i LIBCMTD:strgtold.obj
 0001:0006e5f0       ___shl_12                  1006f5f0 f i LIBCMTD:strgtold.obj
 0001:0006e670       ___shr_12                  1006f670 f i LIBCMTD:strgtold.obj
 0001:0006e6f0       ___strgtold12_l            1006f6f0 f   LIBCMTD:strgtold.obj
 0001:0006f1c0       _$I10_OUTPUT               100701c0 f   LIBCMTD:x10fout.obj
 0001:0006f7d0       ___add_12                  100707d0 f i LIBCMTD:x10fout.obj
 0001:0006fa80       ___control87_2             10070a80 f   LIBCMTD:ieee87.obj
 0001:0006ff20       __clearfp                  10070f20 f   LIBCMTD:ieee87.obj
 0001:0006ff60       __control87                10070f60 f i LIBCMTD:ieee87.obj
 0001:00070010       __controlfp                10071010 f   LIBCMTD:ieee87.obj
 0001:00070030       __fpreset                  10071030 f   LIBCMTD:ieee87.obj
 0001:000701f0       __set_controlfp            100711f0 f   LIBCMTD:ieee87.obj
 0001:00070280       __statusfp                 10071280 f   LIBCMTD:ieee87.obj
 0001:000702c0       __statusfp2                100712c0 f   LIBCMTD:ieee87.obj
 0001:000703b0       __wopen                    100713b0 f   LIBCMTD:wopen.obj
 0001:00070540       __wsopen                   10071540 f   LIBCMTD:wopen.obj
 0001:000705b0       __wsopen_helper            100715b0 f   LIBCMTD:wopen.obj
 0001:00070840       __wsopen_nolock            10071840 f   LIBCMTD:wopen.obj
 0001:000718b0       __wsopen_s                 100728b0 f   LIBCMTD:wopen.obj
 0001:000718e0       _strncmp                   100728e0 f   LIBCMTD:strncmp.obj
 0001:00071960       __strnicmp                 10072960 f   LIBCMTD:strnicmp.obj
 0001:00071b30       __strnicmp_l               10072b30 f   LIBCMTD:strnicmp.obj
 0001:00071dc0       __iswctype_l               10072dc0 f   LIBCMTD:iswctype.obj
 0001:00071de0       _is_wctype                 10072de0 f   LIBCMTD:iswctype.obj
 0001:00071e00       _iswctype                  10072e00 f   LIBCMTD:iswctype.obj
 0001:00071e60       ____lc_codepage_func       10072e60 f   LIBCMTD:initctyp.obj
 0001:00071eb0       ____lc_collate_cp_func     10072eb0 f   LIBCMTD:initctyp.obj
 0001:00071f00       ____lc_locale_name_func    10072f00 f   LIBCMTD:initctyp.obj
 0001:00071f50       ____mb_cur_max_func        10072f50 f   LIBCMTD:initctyp.obj
 0001:00071fa0       ____mb_cur_max_l_func      10072fa0 f   LIBCMTD:initctyp.obj
 0001:00071fd0       ___init_ctype              10072fd0 f   LIBCMTD:initctyp.obj
 0001:00072610       __fputwc_nolock            10073610 f   LIBCMTD:fputwc.obj
 0001:00072900       _fputwc                    10073900 f   LIBCMTD:fputwc.obj
 0001:00072a10       _putwc                     10073a10 f   LIBCMTD:fputwc.obj
 0001:00072a30       __atoi64                   10073a30 f   LIBCMTD:atox.obj
 0001:00072a50       __atoi64_l                 10073a50 f   LIBCMTD:atox.obj
 0001:00072a70       __atoi_l                   10073a70 f   LIBCMTD:atox.obj
 0001:00072a90       __atol_l                   10073a90 f   LIBCMTD:atox.obj
 0001:00072ab0       _atoi                      10073ab0 f   LIBCMTD:atox.obj
 0001:00072ad0       _atol                      10073ad0 f   LIBCMTD:atox.obj
 0001:00072af0       ___termconout              10073af0 f   LIBCMTD:initcon.obj
 0001:00072b20       ___initconout              10073b20 f   LIBCMTD:initcon.obj
 0001:00072f10       __wcstol_l                 10073f10 f   LIBCMTD:wcstol.obj
 0001:00072f30       __wcstoul_l                10073f30 f   LIBCMTD:wcstol.obj
 0001:00072f50       _wcstol                    10073f50 f   LIBCMTD:wcstol.obj
 0001:00072f70       _wcstoul                   10073f70 f   LIBCMTD:wcstol.obj
 0001:00072f90       _wcsnlen                   10073f90 f   LIBCMTD:wcslen_s.obj
 0001:00072fd0       ___init_collate            10073fd0 f   LIBCMTD:initcoll.obj
 0001:00073190       _memcmp                    10074190 f   LIBCMTD:memcmp.obj
 0001:00073a60       _wcscmp                    10074a60 f   LIBCMTD:wcscmp.obj
 0001:00073ac0       _wcscspn                   10074ac0 f   LIBCMTD:wcscspn.obj
 0001:00073b30       _wcsncmp                   10074b30 f   LIBCMTD:wcsncmp.obj
 0001:00073b90       _wcspbrk                   10074b90 f   LIBCMTD:wcspbrk.obj
 0001:00074730       ___get_qualified_locale    10075730 f   LIBCMTD:getqloc.obj
 0001:00075710       ___get_qualified_locale_downlevel 10076710 f   LIBCMTD:getqloc_downlevel.obj
 0001:000759e0       ___mtold12                 100769e0 f   LIBCMTD:mantold.obj
 0001:00075b30       __chsize                   10076b30 f   LIBCMTD:chsize.obj
 0001:00075b70       __chsize_nolock            10076b70 f   LIBCMTD:chsize.obj
 0001:00075e20       __chsize_s                 10076e20 f   LIBCMTD:chsize.obj
 0001:000760e0       __get_fmode                100770e0 f   LIBCMTD:setmode.obj
 0001:00076180       __set_fmode                10077180 f   LIBCMTD:setmode.obj
 0001:00076230       __setmode                  10077230 f   LIBCMTD:setmode.obj
 0001:000764f0       __setmode_nolock           100774f0 f   LIBCMTD:setmode.obj
 0001:00076760       ___ascii_strnicmp          10077760 f   LIBCMTD:_strnicm.obj
 0001:000767d0       __flswbuf                  100777d0 f   LIBCMTD:_flswbuf.obj
 0001:00076ff0       __strtoi64                 10077ff0 f   LIBCMTD:strtoq.obj
 0001:00077040       __strtoi64_l               10078040 f   LIBCMTD:strtoq.obj
 0001:00077060       __strtoui64                10078060 f   LIBCMTD:strtoq.obj
 0001:000770b0       __strtoui64_l              100780b0 f   LIBCMTD:strtoq.obj
 0001:000770d0       __wchartodigit             100780d0 f   LIBCMTD:wchtodig.obj
 0001:000773f0       __wtoi                     100783f0 f   LIBCMTD:wtox.obj
 0001:00077410       __wtoi64                   10078410 f   LIBCMTD:wtox.obj
 0001:00077430       __wtoi64_l                 10078430 f   LIBCMTD:wtox.obj
 0001:00077450       __wtoi_l                   10078450 f   LIBCMTD:wtox.obj
 0001:00077470       __wtol                     10078470 f   LIBCMTD:wtox.obj
 0001:00077490       __wtol_l                   10078490 f   LIBCMTD:wtox.obj
 0001:000774b0       _wcschr                    100784b0 f   LIBCMTD:wcschr.obj
 0001:00077630       __wcsicmp                  10078630 f   LIBCMTD:wcsicmp.obj
 0001:00077800       __wcsicmp_l                10078800 f   LIBCMTD:wcsicmp.obj
 0001:00077a70       __wcsnicmp                 10078a70 f   LIBCMTD:wcsnicmp.obj
 0001:00077c60       __wcsnicmp_l               10078c60 f   LIBCMTD:wcsnicmp.obj
 0001:00077ec0       __allmul                   10078ec0 f   LIBCMTD:llmul.obj
 0001:00078450       __wcstoi64                 10079450 f   LIBCMTD:wcstoq.obj
 0001:000784a0       __wcstoi64_l               100794a0 f   LIBCMTD:wcstoq.obj
 0001:000784c0       __wcstoui64                100794c0 f   LIBCMTD:wcstoq.obj
 0001:00078510       __wcstoui64_l              10079510 f   LIBCMTD:wcstoq.obj
 0001:00078530       __towlower_l               10079530 f   LIBCMTD:towlower.obj
 0001:00078680       _towlower                  10079680 f   LIBCMTD:towlower.obj
 0001:000786a0       ___crtLCMapStringW         100796a0 f   LIBCMTD:w_map.obj
 0001:000786de       _InterlockedIncrement@4    100796de f   kernel32:KERNEL32.dll
 0001:000786e4       _InterlockedDecrement@4    100796e4 f   kernel32:KERNEL32.dll
 0001:000786ea       _EnterCriticalSection@4    100796ea f   kernel32:KERNEL32.dll
 0001:000786f0       _LeaveCriticalSection@4    100796f0 f   kernel32:KERNEL32.dll
 0001:000786f6       _DeleteCriticalSection@4   100796f6 f   kernel32:KERNEL32.dll
 0001:000786fc       _Sleep@4                   100796fc f   kernel32:KERNEL32.dll
 0001:00078702       _InterlockedExchange@8     10079702 f   kernel32:KERNEL32.dll
 0001:00078708       _RtlUnwind@16              10079708 f   kernel32:KERNEL32.dll
 0001:0007870e       _IsDebuggerPresent@0       1007970e f   kernel32:KERNEL32.dll
 0001:00078714       _EncodePointer@4           10079714 f   kernel32:KERNEL32.dll
 0001:0007871a       _DecodePointer@4           1007971a f   kernel32:KERNEL32.dll
 0001:00078720       _IsProcessorFeaturePresent@4 10079720 f   kernel32:KERNEL32.dll
 0001:00078726       _GetModuleFileNameW@12     10079726 f   kernel32:KERNEL32.dll
 0001:0007872c       _GetModuleHandleExW@12     1007972c f   kernel32:KERNEL32.dll
 0001:00078732       _RaiseException@16         10079732 f   kernel32:KERNEL32.dll
 0001:00078738       _GetStdHandle@4            10079738 f   kernel32:KERNEL32.dll
 0001:0007873e       _GetFileType@4             1007973e f   kernel32:KERNEL32.dll
 0001:00078744       _WriteConsoleW@20          10079744 f   kernel32:KERNEL32.dll
 0001:0007874a       _GetSystemTimeAsFileTime@4 1007974a f   kernel32:KERNEL32.dll
 0001:00078750       _GetCommandLineA@0         10079750 f   kernel32:KERNEL32.dll
 0001:00078756       _GetCurrentThreadId@0      10079756 f   kernel32:KERNEL32.dll
 0001:0007875c       _GetLastError@0            1007975c f   kernel32:KERNEL32.dll
 0001:00078762       _ExitProcess@4             10079762 f   kernel32:KERNEL32.dll
 0001:00078768       _GetProcAddress@8          10079768 f   kernel32:KERNEL32.dll
 0001:0007876e       _AreFileApisANSI@0         1007976e f   kernel32:KERNEL32.dll
 0001:00078774       _MultiByteToWideChar@24    10079774 f   kernel32:KERNEL32.dll
 0001:0007877a       _InitializeCriticalSectionAndSpinCount@8 1007977a f   kernel32:KERNEL32.dll
 0001:00078780       _FatalAppExitA@8           10079780 f   kernel32:KERNEL32.dll
 0001:00078786       _UnhandledExceptionFilter@4 10079786 f   kernel32:KERNEL32.dll
 0001:0007878c       _SetUnhandledExceptionFilter@4 1007978c f   kernel32:KERNEL32.dll
 0001:00078792       _SetLastError@4            10079792 f   kernel32:KERNEL32.dll
 0001:00078798       _GetCurrentProcess@0       10079798 f   kernel32:KERNEL32.dll
 0001:0007879e       _TerminateProcess@8        1007979e f   kernel32:KERNEL32.dll
 0001:000787a4       _TlsAlloc@0                100797a4 f   kernel32:KERNEL32.dll
 0001:000787aa       _TlsGetValue@4             100797aa f   kernel32:KERNEL32.dll
 0001:000787b0       _TlsSetValue@8             100797b0 f   kernel32:KERNEL32.dll
 0001:000787b6       _TlsFree@4                 100797b6 f   kernel32:KERNEL32.dll
 0001:000787bc       _GetStartupInfoW@4         100797bc f   kernel32:KERNEL32.dll
 0001:000787c2       _GetModuleHandleW@4        100797c2 f   kernel32:KERNEL32.dll
 0001:000787c8       _CreateSemaphoreW@16       100797c8 f   kernel32:KERNEL32.dll
 0001:000787ce       _HeapValidate@12           100797ce f   kernel32:KERNEL32.dll
 0001:000787d4       _GetSystemInfo@4           100797d4 f   kernel32:KERNEL32.dll
 0001:000787da       _LoadLibraryExW@12         100797da f   kernel32:KERNEL32.dll
 0001:000787e0       _lstrlenA@4                100797e0 f   kernel32:KERNEL32.dll
 0001:000787e6       _LoadLibraryW@4            100797e6 f   kernel32:KERNEL32.dll
 0001:000787ec       _WideCharToMultiByte@32    100797ec f   kernel32:KERNEL32.dll
 0001:000787f2       _GetCurrentThread@0        100797f2 f   kernel32:KERNEL32.dll
 0001:000787f8       _CloseHandle@4             100797f8 f   kernel32:KERNEL32.dll
 0001:000787fe       _SetConsoleCtrlHandler@8   100797fe f   kernel32:KERNEL32.dll
 0001:00078804       _OutputDebugStringW@4      10079804 f   kernel32:KERNEL32.dll
 0001:0007880a       _WaitForSingleObjectEx@12  1007980a f   kernel32:KERNEL32.dll
 0001:00078810       _CreateThread@24           10079810 f   kernel32:KERNEL32.dll
 0001:00078816       _WriteFile@20              10079816 f   kernel32:KERNEL32.dll
 0001:0007881c       _OutputDebugStringA@4      1007981c f   kernel32:KERNEL32.dll
 0001:00078822       _ReadFile@20               10079822 f   kernel32:KERNEL32.dll
 0001:00078828       _GetConsoleMode@8          10079828 f   kernel32:KERNEL32.dll
 0001:0007882e       _ReadConsoleW@20           1007982e f   kernel32:KERNEL32.dll
 0001:00078834       _GetConsoleCP@0            10079834 f   kernel32:KERNEL32.dll
 0001:0007883a       _GetProcessHeap@0          1007983a f   kernel32:KERNEL32.dll
 0001:00078840       _GetModuleFileNameA@12     10079840 f   kernel32:KERNEL32.dll
 0001:00078846       _QueryPerformanceCounter@4 10079846 f   kernel32:KERNEL32.dll
 0001:0007884c       _GetCurrentProcessId@0     1007984c f   kernel32:KERNEL32.dll
 0001:00078852       _GetEnvironmentStringsW@0  10079852 f   kernel32:KERNEL32.dll
 0001:00078858       _FreeEnvironmentStringsW@4 10079858 f   kernel32:KERNEL32.dll
 0001:0007885e       _FreeLibrary@4             1007985e f   kernel32:KERNEL32.dll
 0001:00078864       _IsValidCodePage@4         10079864 f   kernel32:KERNEL32.dll
 0001:0007886a       _GetACP@0                  1007986a f   kernel32:KERNEL32.dll
 0001:00078870       _GetOEMCP@0                10079870 f   kernel32:KERNEL32.dll
 0001:00078876       _GetCPInfo@8               10079876 f   kernel32:KERNEL32.dll
 0001:0007887c       _HeapFree@12               1007987c f   kernel32:KERNEL32.dll
 0001:00078882       _HeapReAlloc@16            10079882 f   kernel32:KERNEL32.dll
 0001:00078888       _HeapSize@12               10079888 f   kernel32:KERNEL32.dll
 0001:0007888e       _HeapQueryInformation@20   1007988e f   kernel32:KERNEL32.dll
 0001:00078894       _HeapAlloc@12              10079894 f   kernel32:KERNEL32.dll
 0001:0007889a       _VirtualQuery@12           1007989a f   kernel32:KERNEL32.dll
 0001:000788a0       _SetStdHandle@8            100798a0 f   kernel32:KERNEL32.dll
 0001:000788a6       _FlushFileBuffers@4        100798a6 f   kernel32:KERNEL32.dll
 0001:000788ac       _SetFilePointerEx@20       100798ac f   kernel32:KERNEL32.dll
 0001:000788b2       _GetDateFormatW@24         100798b2 f   kernel32:KERNEL32.dll
 0001:000788b8       _GetTimeFormatW@24         100798b8 f   kernel32:KERNEL32.dll
 0001:000788be       _CompareStringW@24         100798be f   kernel32:KERNEL32.dll
 0001:000788c4       _LCMapStringW@24           100798c4 f   kernel32:KERNEL32.dll
 0001:000788ca       _GetLocaleInfoW@16         100798ca f   kernel32:KERNEL32.dll
 0001:000788d0       _IsValidLocale@8           100798d0 f   kernel32:KERNEL32.dll
 0001:000788d6       _GetUserDefaultLCID@0      100798d6 f   kernel32:KERNEL32.dll
 0001:000788dc       _EnumSystemLocalesW@8      100798dc f   kernel32:KERNEL32.dll
 0001:000788e2       _GetStringTypeW@16         100798e2 f   kernel32:KERNEL32.dll
 0001:000788e8       _CreateFileW@28            100798e8 f   kernel32:KERNEL32.dll
 0001:000788ee       _SetEndOfFile@4            100798ee f   kernel32:KERNEL32.dll
 0002:00000000       __imp__GetStartupInfoW@4   1007b000     kernel32:KERNEL32.dll
 0002:00000004       __imp__SetEndOfFile@4      1007b004     kernel32:KERNEL32.dll
 0002:00000008       __imp__CreateFileW@28      1007b008     kernel32:KERNEL32.dll
 0002:0000000c       __imp__GetStringTypeW@16   1007b00c     kernel32:KERNEL32.dll
 0002:00000010       __imp__EnumSystemLocalesW@8 1007b010     kernel32:KERNEL32.dll
 0002:00000014       __imp__GetUserDefaultLCID@0 1007b014     kernel32:KERNEL32.dll
 0002:00000018       __imp__IsValidLocale@8     1007b018     kernel32:KERNEL32.dll
 0002:0000001c       __imp__GetLocaleInfoW@16   1007b01c     kernel32:KERNEL32.dll
 0002:00000020       __imp__LCMapStringW@24     1007b020     kernel32:KERNEL32.dll
 0002:00000024       __imp__CompareStringW@24   1007b024     kernel32:KERNEL32.dll
 0002:00000028       __imp__GetTimeFormatW@24   1007b028     kernel32:KERNEL32.dll
 0002:0000002c       __imp__GetDateFormatW@24   1007b02c     kernel32:KERNEL32.dll
 0002:00000030       __imp__SetFilePointerEx@20 1007b030     kernel32:KERNEL32.dll
 0002:00000034       __imp__FlushFileBuffers@4  1007b034     kernel32:KERNEL32.dll
 0002:00000038       __imp__SetStdHandle@8      1007b038     kernel32:KERNEL32.dll
 0002:0000003c       __imp__InterlockedIncrement@4 1007b03c     kernel32:KERNEL32.dll
 0002:00000040       __imp__InterlockedDecrement@4 1007b040     kernel32:KERNEL32.dll
 0002:00000044       __imp__EnterCriticalSection@4 1007b044     kernel32:KERNEL32.dll
 0002:00000048       __imp__LeaveCriticalSection@4 1007b048     kernel32:KERNEL32.dll
 0002:0000004c       __imp__DeleteCriticalSection@4 1007b04c     kernel32:KERNEL32.dll
 0002:00000050       __imp__Sleep@4             1007b050     kernel32:KERNEL32.dll
 0002:00000054       __imp__InterlockedExchange@8 1007b054     kernel32:KERNEL32.dll
 0002:00000058       __imp__RtlUnwind@16        1007b058     kernel32:KERNEL32.dll
 0002:0000005c       __imp__IsDebuggerPresent@0 1007b05c     kernel32:KERNEL32.dll
 0002:00000060       __imp__EncodePointer@4     1007b060     kernel32:KERNEL32.dll
 0002:00000064       __imp__DecodePointer@4     1007b064     kernel32:KERNEL32.dll
 0002:00000068       __imp__IsProcessorFeaturePresent@4 1007b068     kernel32:KERNEL32.dll
 0002:0000006c       __imp__GetModuleFileNameW@12 1007b06c     kernel32:KERNEL32.dll
 0002:00000070       __imp__GetModuleHandleExW@12 1007b070     kernel32:KERNEL32.dll
 0002:00000074       __imp__RaiseException@16   1007b074     kernel32:KERNEL32.dll
 0002:00000078       __imp__GetStdHandle@4      1007b078     kernel32:KERNEL32.dll
 0002:0000007c       __imp__GetFileType@4       1007b07c     kernel32:KERNEL32.dll
 0002:00000080       __imp__WriteConsoleW@20    1007b080     kernel32:KERNEL32.dll
 0002:00000084       __imp__GetSystemTimeAsFileTime@4 1007b084     kernel32:KERNEL32.dll
 0002:00000088       __imp__GetCommandLineA@0   1007b088     kernel32:KERNEL32.dll
 0002:0000008c       __imp__GetCurrentThreadId@0 1007b08c     kernel32:KERNEL32.dll
 0002:00000090       __imp__GetLastError@0      1007b090     kernel32:KERNEL32.dll
 0002:00000094       __imp__ExitProcess@4       1007b094     kernel32:KERNEL32.dll
 0002:00000098       __imp__GetProcAddress@8    1007b098     kernel32:KERNEL32.dll
 0002:0000009c       __imp__AreFileApisANSI@0   1007b09c     kernel32:KERNEL32.dll
 0002:000000a0       __imp__MultiByteToWideChar@24 1007b0a0     kernel32:KERNEL32.dll
 0002:000000a4       __imp__InitializeCriticalSectionAndSpinCount@8 1007b0a4     kernel32:KERNEL32.dll
 0002:000000a8       __imp__FatalAppExitA@8     1007b0a8     kernel32:KERNEL32.dll
 0002:000000ac       __imp__UnhandledExceptionFilter@4 1007b0ac     kernel32:KERNEL32.dll
 0002:000000b0       __imp__SetUnhandledExceptionFilter@4 1007b0b0     kernel32:KERNEL32.dll
 0002:000000b4       __imp__SetLastError@4      1007b0b4     kernel32:KERNEL32.dll
 0002:000000b8       __imp__GetCurrentProcess@0 1007b0b8     kernel32:KERNEL32.dll
 0002:000000bc       __imp__TerminateProcess@8  1007b0bc     kernel32:KERNEL32.dll
 0002:000000c0       __imp__TlsAlloc@0          1007b0c0     kernel32:KERNEL32.dll
 0002:000000c4       __imp__TlsGetValue@4       1007b0c4     kernel32:KERNEL32.dll
 0002:000000c8       __imp__TlsSetValue@8       1007b0c8     kernel32:KERNEL32.dll
 0002:000000cc       __imp__TlsFree@4           1007b0cc     kernel32:KERNEL32.dll
 0002:000000d0       __imp__GetModuleHandleW@4  1007b0d0     kernel32:KERNEL32.dll
 0002:000000d4       __imp__CreateSemaphoreW@16 1007b0d4     kernel32:KERNEL32.dll
 0002:000000d8       __imp__HeapValidate@12     1007b0d8     kernel32:KERNEL32.dll
 0002:000000dc       __imp__GetSystemInfo@4     1007b0dc     kernel32:KERNEL32.dll
 0002:000000e0       __imp__LoadLibraryExW@12   1007b0e0     kernel32:KERNEL32.dll
 0002:000000e4       __imp__lstrlenA@4          1007b0e4     kernel32:KERNEL32.dll
 0002:000000e8       __imp__LoadLibraryW@4      1007b0e8     kernel32:KERNEL32.dll
 0002:000000ec       __imp__WideCharToMultiByte@32 1007b0ec     kernel32:KERNEL32.dll
 0002:000000f0       __imp__GetCurrentThread@0  1007b0f0     kernel32:KERNEL32.dll
 0002:000000f4       __imp__CloseHandle@4       1007b0f4     kernel32:KERNEL32.dll
 0002:000000f8       __imp__SetConsoleCtrlHandler@8 1007b0f8     kernel32:KERNEL32.dll
 0002:000000fc       __imp__OutputDebugStringW@4 1007b0fc     kernel32:KERNEL32.dll
 0002:00000100       __imp__WaitForSingleObjectEx@12 1007b100     kernel32:KERNEL32.dll
 0002:00000104       __imp__CreateThread@24     1007b104     kernel32:KERNEL32.dll
 0002:00000108       __imp__WriteFile@20        1007b108     kernel32:KERNEL32.dll
 0002:0000010c       __imp__OutputDebugStringA@4 1007b10c     kernel32:KERNEL32.dll
 0002:00000110       __imp__ReadFile@20         1007b110     kernel32:KERNEL32.dll
 0002:00000114       __imp__GetConsoleMode@8    1007b114     kernel32:KERNEL32.dll
 0002:00000118       __imp__ReadConsoleW@20     1007b118     kernel32:KERNEL32.dll
 0002:0000011c       __imp__GetConsoleCP@0      1007b11c     kernel32:KERNEL32.dll
 0002:00000120       __imp__GetProcessHeap@0    1007b120     kernel32:KERNEL32.dll
 0002:00000124       __imp__GetModuleFileNameA@12 1007b124     kernel32:KERNEL32.dll
 0002:00000128       __imp__QueryPerformanceCounter@4 1007b128     kernel32:KERNEL32.dll
 0002:0000012c       __imp__GetCurrentProcessId@0 1007b12c     kernel32:KERNEL32.dll
 0002:00000130       __imp__GetEnvironmentStringsW@0 1007b130     kernel32:KERNEL32.dll
 0002:00000134       __imp__FreeEnvironmentStringsW@4 1007b134     kernel32:KERNEL32.dll
 0002:00000138       __imp__FreeLibrary@4       1007b138     kernel32:KERNEL32.dll
 0002:0000013c       __imp__IsValidCodePage@4   1007b13c     kernel32:KERNEL32.dll
 0002:00000140       __imp__GetACP@0            1007b140     kernel32:KERNEL32.dll
 0002:00000144       __imp__GetOEMCP@0          1007b144     kernel32:KERNEL32.dll
 0002:00000148       __imp__GetCPInfo@8         1007b148     kernel32:KERNEL32.dll
 0002:0000014c       __imp__HeapFree@12         1007b14c     kernel32:KERNEL32.dll
 0002:00000150       __imp__HeapReAlloc@16      1007b150     kernel32:KERNEL32.dll
 0002:00000154       __imp__HeapSize@12         1007b154     kernel32:KERNEL32.dll
 0002:00000158       __imp__HeapQueryInformation@20 1007b158     kernel32:KERNEL32.dll
 0002:0000015c       __imp__HeapAlloc@12        1007b15c     kernel32:KERNEL32.dll
 0002:00000160       __imp__VirtualQuery@12     1007b160     kernel32:KERNEL32.dll
 0002:00000164       \177KERNEL32_NULL_THUNK_DATA 1007b164     kernel32:KERNEL32.dll
 0002:00000168       __imp_?SetStringBufferLength@@YAPAUStringBuffer_@@PAU1@I@Z 1007b168     learning:learning.dll
 0002:0000016c       __imp_?FreeStringBuffer@@YAXPAPAUStringBuffer_@@@Z 1007b16c     learning:learning.dll
 0002:00000170       __imp_?NewStringBuffer@@YAPAUStringBuffer_@@H@Z 1007b170     learning:learning.dll
 0002:00000174       \177learning_NULL_THUNK_DATA 1007b174     learning:learning.dll
 0002:00000178       __imp_?RtDistToPit@@YAHPAUCarElt@@PAUtTrack@@PAM2@Z 1007b178     robottools:robottools.dll
 0002:0000017c       __imp_?RtTrackSideTgAngleL@@YAMPAUtTrkLocPos@@@Z 1007b17c     robottools:robottools.dll
 0002:00000180       \177robottools_NULL_THUNK_DATA 1007b180     robottools:robottools.dll
 0002:00000184       __imp_?GfParmSetNum@@YAHPAXPBD11M@Z 1007b184     tgf:tgf.dll
 0002:00000188       __imp_?_tgf_win_strdup@@YAPADPBD@Z 1007b188     tgf:tgf.dll
 0002:0000018c       __imp_?GfCreateDir@@YAHPAD@Z 1007b18c     tgf:tgf.dll
 0002:00000190       __imp_?GetLocalDir@@YAPADXZ 1007b190     tgf:tgf.dll
 0002:00000194       __imp_?GfParmGetNum@@YAMPAXPBD11M@Z 1007b194     tgf:tgf.dll
 0002:00000198       __imp_?GfParmGetStr@@YAPBDPAXPBD11@Z 1007b198     tgf:tgf.dll
 0002:0000019c       __imp_?GfParmReadFile@@YAPAXPBDH@Z 1007b19c     tgf:tgf.dll
 0002:000001a0       \177tgf_NULL_THUNK_DATA    1007b1a0     tgf:tgf.dll
 0002:000001a4       ___xc_a                    1007b1a4     LIBCMTD:crt0init.obj
 0002:00000224       ___xc_z                    1007b224     LIBCMTD:crt0init.obj
 0002:00000228       ___xi_a                    1007b228     LIBCMTD:crt0init.obj
 0002:00000244       ___xi_z                    1007b244     LIBCMTD:crt0init.obj
 0002:00000248       ___xp_a                    1007b248     LIBCMTD:crt0init.obj
 0002:00000258       ___xp_z                    1007b258     LIBCMTD:crt0init.obj
 0002:0000025c       ___xt_a                    1007b25c     LIBCMTD:crt0init.obj
 0002:00000260       ___xt_z                    1007b260     LIBCMTD:crt0init.obj
 0002:000002b8       __real@00000000            1007b2b8     cardata.obj
 0002:000002bc       __real@3f800000            1007b2bc     cardata.obj
 0002:000002c0       __real@4000000000000000    1007b2c0     cardata.obj
 0002:000002d0       __xmm@80000000000000008000000000000000 1007b2d0     cardata.obj
 0002:000002e0       ?is_signed@?$numeric_limits@K@std@@2_NB 1007b2e0     driver.obj
 0002:000002e4       ?digits@?$numeric_limits@K@std@@2HB 1007b2e4     driver.obj
 0002:000002e8       ?digits10@?$numeric_limits@K@std@@2HB 1007b2e8     driver.obj
 0002:000002ec       ?is_signed@?$numeric_limits@_J@std@@2_NB 1007b2ec     driver.obj
 0002:000002f0       ?digits@?$numeric_limits@_J@std@@2HB 1007b2f0     driver.obj
 0002:000002f4       ?digits10@?$numeric_limits@_J@std@@2HB 1007b2f4     driver.obj
 0002:000002f8       ?is_signed@?$numeric_limits@_K@std@@2_NB 1007b2f8     driver.obj
 0002:000002fc       ?digits@?$numeric_limits@_K@std@@2HB 1007b2fc     driver.obj
 0002:00000300       ?digits10@?$numeric_limits@_K@std@@2HB 1007b300     driver.obj
 0002:0000031a       ?USE_NEW_ALPHA@Driver@@1_NB 1007b31a     driver.obj
 0002:0000046c       ?UNSTUCK_TIME_LIMIT@Driver@@1MB 1007b46c     driver.obj
 0002:00000470       ?MAX_UNSTUCK_SPEED@Driver@@1MB 1007b470     driver.obj
 0002:00000474       ?MIN_UNSTUCK_DIST@Driver@@1MB 1007b474     driver.obj
 0002:00000478       ?G@Driver@@1MB             1007b478     driver.obj
 0002:0000047c       ?FULL_ACCEL_MARGIN@Driver@@1MB 1007b47c     driver.obj
 0002:00000480       ?SHIFT@Driver@@1MB         1007b480     driver.obj
 0002:00000484       ?SHIFT_MARGIN@Driver@@1MB  1007b484     driver.obj
 0002:00000488       ?ABS_SLIP@Driver@@1MB      1007b488     driver.obj
 0002:0000048c       ?ABS_RANGE@Driver@@1MB     1007b48c     driver.obj
 0002:00000490       ?ABS_MINSPEED@Driver@@1MB  1007b490     driver.obj
 0002:00000494       ?TCL_SLIP@Driver@@1MB      1007b494     driver.obj
 0002:00000498       ?LOOKAHEAD_CONST@Driver@@1MB 1007b498     driver.obj
 0002:0000049c       ?LOOKAHEAD_FACTOR@Driver@@1MB 1007b49c     driver.obj
 0002:000004a0       ?WIDTHDIV@Driver@@1MB      1007b4a0     driver.obj
 0002:000004a4       ?SIDECOLL_MARGIN@Driver@@1MB 1007b4a4     driver.obj
 0002:000004a8       ?BORDER_OVERTAKE_MARGIN@Driver@@1MB 1007b4a8     driver.obj
 0002:000004ac       ?OVERTAKE_OFFSET_SPEED@Driver@@1MB 1007b4ac     driver.obj
 0002:000004b0       ?OVERTAKE_TIME@Driver@@1MB 1007b4b0     driver.obj
 0002:000004b4       ?PIT_LOOKAHEAD@Driver@@1MB 1007b4b4     driver.obj
 0002:000004b8       ?PIT_BRAKE_AHEAD@Driver@@1MB 1007b4b8     driver.obj
 0002:000004bc       ?PIT_MU@Driver@@1MB        1007b4bc     driver.obj
 0002:000004c0       ?MAX_SPEED@Driver@@1MB     1007b4c0     driver.obj
 0002:000004c4       ?TCL_RANGE@Driver@@1MB     1007b4c4     driver.obj
 0002:000004c8       ?MAX_FUEL_PER_METER@Driver@@1MB 1007b4c8     driver.obj
 0002:000004cc       ?CLUTCH_SPEED@Driver@@1MB  1007b4cc     driver.obj
 0002:000004d0       ?CENTERDIV@Driver@@1MB     1007b4d0     driver.obj
 0002:000004d4       ?DISTCUTOFF@Driver@@1MB    1007b4d4     driver.obj
 0002:000004d8       ?MAX_INC_FACTOR@Driver@@1MB 1007b4d8     driver.obj
 0002:000004dc       ?CATCH_FACTOR@Driver@@1MB  1007b4dc     driver.obj
 0002:000004e0       ?CLUTCH_FULL_MAX_TIME@Driver@@1MB 1007b4e0     driver.obj
 0002:000004e4       ?USE_LEARNED_OFFSET_RANGE@Driver@@1MB 1007b4e4     driver.obj
 0002:000004e8       ?ACCELERATOR_LETGO_TIME@Driver@@1MB 1007b4e8     driver.obj
 0002:000004ec       ?MIN_BRAKE_FOLLOW_DISTANCE@Driver@@1MB 1007b4ec     driver.obj
 0002:000004f0       ?MAX_BRAKE_FOLLOW_DISTANCE@Driver@@1MB 1007b4f0     driver.obj
 0002:000004f4       ?STEER_DIRECTION_GAIN@Driver@@1MB 1007b4f4     driver.obj
 0002:000004f8       ?STEER_PREDICT_GAIN@Driver@@1MB 1007b4f8     driver.obj
 0002:000004fc       ?STEER_DRIFT_GAIN@Driver@@1MB 1007b4fc     driver.obj
 0002:00000500       ?STEER_AVOIDANCE_GAIN@Driver@@1MB 1007b500     driver.obj
 0002:00000504       ?STEER_EMERGENCY_GAIN@Driver@@1MB 1007b504     driver.obj
 0002:00000508       ?FILTER_STEER_FEEDBACK@Driver@@1MB 1007b508     driver.obj
 0002:0000050c       ?FILTER_PREDICT_FEEDBACK@Driver@@1MB 1007b50c     driver.obj
 0002:00000510       ?FILTER_TARGET_FEEDBACK@Driver@@1MB 1007b510     driver.obj
 0002:000006ac       ?digits@?$numeric_limits@M@std@@2HB 1007b6ac     driver.obj
 0002:000006b0       ?digits10@?$numeric_limits@M@std@@2HB 1007b6b0     driver.obj
 0002:000006b4       ?max_digits10@?$numeric_limits@M@std@@2HB 1007b6b4     driver.obj
 0002:000006b8       ?max_exponent@?$numeric_limits@M@std@@2HB 1007b6b8     driver.obj
 0002:000006bc       ?max_exponent10@?$numeric_limits@M@std@@2HB 1007b6bc     driver.obj
 0002:000006c0       ?min_exponent@?$numeric_limits@M@std@@2HB 1007b6c0     driver.obj
 0002:000006c4       ?min_exponent10@?$numeric_limits@M@std@@2HB 1007b6c4     driver.obj
 0002:000006c8       ?value@?$integral_constant@I$0A@@std@@2IB 1007b6c8     driver.obj
 0002:000006cc       ?digits@?$numeric_limits@N@std@@2HB 1007b6cc     driver.obj
 0002:000006d0       ?digits10@?$numeric_limits@N@std@@2HB 1007b6d0     driver.obj
 0002:000006d4       ?max_digits10@?$numeric_limits@N@std@@2HB 1007b6d4     driver.obj
 0002:000006d8       ?max_exponent@?$numeric_limits@N@std@@2HB 1007b6d8     driver.obj
 0002:000006dc       ?max_exponent10@?$numeric_limits@N@std@@2HB 1007b6dc     driver.obj
 0002:000006e0       ?min_exponent@?$numeric_limits@N@std@@2HB 1007b6e0     driver.obj
 0002:000006e4       ?min_exponent10@?$numeric_limits@N@std@@2HB 1007b6e4     driver.obj
 0002:000006e8       ?digits@?$numeric_limits@O@std@@2HB 1007b6e8     driver.obj
 0002:000006ec       ?digits10@?$numeric_limits@O@std@@2HB 1007b6ec     driver.obj
 0002:000006f0       ?max_digits10@?$numeric_limits@O@std@@2HB 1007b6f0     driver.obj
 0002:000006f4       ?max_exponent@?$numeric_limits@O@std@@2HB 1007b6f4     driver.obj
 0002:000006f8       ?max_exponent10@?$numeric_limits@O@std@@2HB 1007b6f8     driver.obj
 0002:000006fc       ?min_exponent@?$numeric_limits@O@std@@2HB 1007b6fc     driver.obj
 0002:00000700       ?min_exponent10@?$numeric_limits@O@std@@2HB 1007b700     driver.obj
 0002:00000704       ?value@?$integral_constant@_N$0A@@std@@2_NB 1007b704     driver.obj
 0002:00000705       ?value@?$integral_constant@_N$00@std@@2_NB 1007b705     driver.obj
 0002:00000708       ?value@?$_Sizeof@U_Nil@std@@U12@U12@U12@U12@U12@U12@U12@@std@@2IB 1007b708     driver.obj
 0002:0000070c       ?has_denorm@_Num_base@std@@2W4float_denorm_style@2@B 1007b70c     driver.obj
 0002:00000710       ?has_denorm_loss@_Num_base@std@@2_NB 1007b710     driver.obj
 0002:00000711       ?has_infinity@_Num_base@std@@2_NB 1007b711     driver.obj
 0002:00000712       ?has_quiet_NaN@_Num_base@std@@2_NB 1007b712     driver.obj
 0002:00000713       ?has_signaling_NaN@_Num_base@std@@2_NB 1007b713     driver.obj
 0002:00000714       ?is_bounded@_Num_base@std@@2_NB 1007b714     driver.obj
 0002:00000715       ?is_exact@_Num_base@std@@2_NB 1007b715     driver.obj
 0002:00000716       ?is_iec559@_Num_base@std@@2_NB 1007b716     driver.obj
 0002:00000717       ?is_integer@_Num_base@std@@2_NB 1007b717     driver.obj
 0002:00000718       ?is_modulo@_Num_base@std@@2_NB 1007b718     driver.obj
 0002:00000719       ?is_signed@_Num_base@std@@2_NB 1007b719     driver.obj
 0002:0000071a       ?is_specialized@_Num_base@std@@2_NB 1007b71a     driver.obj
 0002:0000071b       ?tinyness_before@_Num_base@std@@2_NB 1007b71b     driver.obj
 0002:0000071c       ?traps@_Num_base@std@@2_NB 1007b71c     driver.obj
 0002:00000720       ?round_style@_Num_base@std@@2W4float_round_style@2@B 1007b720     driver.obj
 0002:00000724       ?digits@_Num_base@std@@2HB 1007b724     driver.obj
 0002:00000728       ?digits10@_Num_base@std@@2HB 1007b728     driver.obj
 0002:0000072c       ?max_digits10@_Num_base@std@@2HB 1007b72c     driver.obj
 0002:00000730       ?max_exponent@_Num_base@std@@2HB 1007b730     driver.obj
 0002:00000734       ?max_exponent10@_Num_base@std@@2HB 1007b734     driver.obj
 0002:00000738       ?min_exponent@_Num_base@std@@2HB 1007b738     driver.obj
 0002:0000073c       ?min_exponent10@_Num_base@std@@2HB 1007b73c     driver.obj
 0002:00000740       ?radix@_Num_base@std@@2HB  1007b740     driver.obj
 0002:00000744       ?is_bounded@_Num_int_base@std@@2_NB 1007b744     driver.obj
 0002:00000745       ?is_exact@_Num_int_base@std@@2_NB 1007b745     driver.obj
 0002:00000746       ?is_integer@_Num_int_base@std@@2_NB 1007b746     driver.obj
 0002:00000747       ?is_modulo@_Num_int_base@std@@2_NB 1007b747     driver.obj
 0002:00000748       ?is_specialized@_Num_int_base@std@@2_NB 1007b748     driver.obj
 0002:0000074c       ?radix@_Num_int_base@std@@2HB 1007b74c     driver.obj
 0002:00000750       ?has_denorm@_Num_float_base@std@@2W4float_denorm_style@2@B 1007b750     driver.obj
 0002:00000754       ?value@?$_Sizeof@HU_Nil@std@@U12@U12@U12@U12@U12@U12@@std@@2IB 1007b754     driver.obj
 0002:00000758       ?has_denorm_loss@_Num_float_base@std@@2_NB 1007b758     driver.obj
 0002:00000759       ?has_infinity@_Num_float_base@std@@2_NB 1007b759     driver.obj
 0002:0000075a       ?has_quiet_NaN@_Num_float_base@std@@2_NB 1007b75a     driver.obj
 0002:0000075b       ?has_signaling_NaN@_Num_float_base@std@@2_NB 1007b75b     driver.obj
 0002:0000075c       ?is_bounded@_Num_float_base@std@@2_NB 1007b75c     driver.obj
 0002:0000075d       ?is_exact@_Num_float_base@std@@2_NB 1007b75d     driver.obj
 0002:0000075e       ?is_iec559@_Num_float_base@std@@2_NB 1007b75e     driver.obj
 0002:0000075f       ?is_integer@_Num_float_base@std@@2_NB 1007b75f     driver.obj
 0002:00000760       ?is_modulo@_Num_float_base@std@@2_NB 1007b760     driver.obj
 0002:00000761       ?is_signed@_Num_float_base@std@@2_NB 1007b761     driver.obj
 0002:00000762       ?is_specialized@_Num_float_base@std@@2_NB 1007b762     driver.obj
 0002:00000763       ?tinyness_before@_Num_float_base@std@@2_NB 1007b763     driver.obj
 0002:00000764       ?traps@_Num_float_base@std@@2_NB 1007b764     driver.obj
 0002:00000768       ?round_style@_Num_float_base@std@@2W4float_round_style@2@B 1007b768     driver.obj
 0002:0000076c       ?radix@_Num_float_base@std@@2HB 1007b76c     driver.obj
 0002:00000770       ?is_signed@?$numeric_limits@D@std@@2_NB 1007b770     driver.obj
 0002:00000774       ?digits@?$numeric_limits@D@std@@2HB 1007b774     driver.obj
 0002:00000778       ?digits10@?$numeric_limits@D@std@@2HB 1007b778     driver.obj
 0002:0000077c       ?is_signed@?$numeric_limits@_W@std@@2_NB 1007b77c     driver.obj
 0002:00000780       ?digits@?$numeric_limits@_W@std@@2HB 1007b780     driver.obj
 0002:00000784       ?digits10@?$numeric_limits@_W@std@@2HB 1007b784     driver.obj
 0002:00000788       ?is_modulo@?$numeric_limits@_N@std@@2_NB 1007b788     driver.obj
 0002:00000789       ?is_signed@?$numeric_limits@_N@std@@2_NB 1007b789     driver.obj
 0002:0000078c       ?digits@?$numeric_limits@_N@std@@2HB 1007b78c     driver.obj
 0002:00000790       ?digits10@?$numeric_limits@_N@std@@2HB 1007b790     driver.obj
 0002:00000794       ?is_signed@?$numeric_limits@C@std@@2_NB 1007b794     driver.obj
 0002:00000798       ?digits@?$numeric_limits@C@std@@2HB 1007b798     driver.obj
 0002:0000079c       ?digits10@?$numeric_limits@C@std@@2HB 1007b79c     driver.obj
 0002:000007a0       ?is_signed@?$numeric_limits@E@std@@2_NB 1007b7a0     driver.obj
 0002:000007a4       ?digits@?$numeric_limits@E@std@@2HB 1007b7a4     driver.obj
 0002:000007a8       ?digits10@?$numeric_limits@E@std@@2HB 1007b7a8     driver.obj
 0002:000007ac       ?is_signed@?$numeric_limits@F@std@@2_NB 1007b7ac     driver.obj
 0002:000007b0       ?digits@?$numeric_limits@F@std@@2HB 1007b7b0     driver.obj
 0002:000007b4       ?digits10@?$numeric_limits@F@std@@2HB 1007b7b4     driver.obj
 0002:000007b8       ?is_signed@?$numeric_limits@G@std@@2_NB 1007b7b8     driver.obj
 0002:000007bc       ?digits@?$numeric_limits@G@std@@2HB 1007b7bc     driver.obj
 0002:000007c0       ?digits10@?$numeric_limits@G@std@@2HB 1007b7c0     driver.obj
 0002:000007c4       ?is_signed@?$numeric_limits@H@std@@2_NB 1007b7c4     driver.obj
 0002:000007c8       ?digits@?$numeric_limits@H@std@@2HB 1007b7c8     driver.obj
 0002:000007cc       ?digits10@?$numeric_limits@H@std@@2HB 1007b7cc     driver.obj
 0002:000007d0       ?is_signed@?$numeric_limits@I@std@@2_NB 1007b7d0     driver.obj
 0002:000007d4       ?digits@?$numeric_limits@I@std@@2HB 1007b7d4     driver.obj
 0002:000007d8       ?digits10@?$numeric_limits@I@std@@2HB 1007b7d8     driver.obj
 0002:000007dc       ?is_signed@?$numeric_limits@J@std@@2_NB 1007b7dc     driver.obj
 0002:000007e0       ?digits@?$numeric_limits@J@std@@2HB 1007b7e0     driver.obj
 0002:000007e4       ?digits10@?$numeric_limits@J@std@@2HB 1007b7e4     driver.obj
 0002:000007e8       ??_C@_1HI@INMNAKMP@?$AAD?$AA?3?$AA?2?$AAP?$AAr?$AAo?$AAg?$AAr?$AAa?$AAm?$AA?2?$AAM?$AAi?$AAc?$AAr?$AAo?$AAs?$AAo?$AAf?$AAt?$AA?5?$AAV?$AAi?$AAs?$AAu?$AAa?$AAl?$AA?5?$AAS?$AAt?$AAu?$AAd@ 1007b7e8     driver.obj
 0002:00000860       ??_C@_1DC@POOIKBAO@?$AAI?$AAT?$AAE?$AAR?$AAA?$AAT?$AAO?$AAR?$AA?5?$AAL?$AAI?$AAS?$AAT?$AA?5?$AAC?$AAO?$AAR?$AAR?$AAU?$AAP?$AAT?$AAE?$AAD?$AA?$CB?$AA?$AA@ 1007b860     driver.obj
 0002:00000898       ??_C@_1HE@JKLHPCBN@?$AAD?$AA?3?$AA?2?$AAP?$AAr?$AAo?$AAg?$AAr?$AAa?$AAm?$AA?2?$AAM?$AAi?$AAc?$AAr?$AAo?$AAs?$AAo?$AAf?$AAt?$AA?5?$AAV?$AAi?$AAs?$AAu?$AAa?$AAl?$AA?5?$AAS?$AAt?$AAu?$AAd@ 1007b898     driver.obj
 0002:0000090c       ??_C@_1DM@LHGCHCBA@?$AAv?$AAe?$AAc?$AAt?$AAo?$AAr?$AA?5?$AAs?$AAu?$AAb?$AAs?$AAc?$AAr?$AAi?$AAp?$AAt?$AA?5?$AAo?$AAu?$AAt?$AA?5?$AAo?$AAf?$AA?5?$AAr?$AAa?$AAn?$AAg?$AAe?$AA?$AA@ 1007b90c     driver.obj
 0002:00000948       ??_C@_0CE@OFMIGAMM@Standard?5C?$CL?$CL?5Libraries?5Out?5of?5Ra@ 1007b948     driver.obj
 0002:00000970       ??_C@_1FG@IBPIFFN@?$AA?$CC?$AAS?$AAt?$AAa?$AAn?$AAd?$AAa?$AAr?$AAd?$AA?5?$AAC?$AA?$CL?$AA?$CL?$AA?5?$AAL?$AAi?$AAb?$AAr?$AAa?$AAr?$AAi?$AAe?$AAs?$AA?5?$AAO?$AAu?$AAt?$AA?5?$AAo?$AAf?$AA?5?$AAR@ 1007b970     driver.obj
 0002:000009c8       ??_C@_15GANGMFKL@?$AA?$CF?$AAs?$AA?$AA@ 1007b9c8     driver.obj
 0002:000009d0       ??_C@_1BO@MEPPHOO@?$AA?$CC?$AAo?$AAu?$AAt?$AA?5?$AAo?$AAf?$AA?5?$AAr?$AAa?$AAn?$AAg?$AAe?$AA?$CC?$AA?$AA@ 1007b9d0     driver.obj
 0002:000009f0       ??_C@_1HK@EJDBECKJ@?$AAs?$AAt?$AAd?$AA?3?$AA?3?$AAv?$AAe?$AAc?$AAt?$AAo?$AAr?$AA?$DM?$AAf?$AAl?$AAo?$AAa?$AAt?$AA?0?$AAc?$AAl?$AAa?$AAs?$AAs?$AA?5?$AAs?$AAt?$AAd?$AA?3?$AA?3?$AAa?$AAl?$AAl@ 1007b9f0     driver.obj
 0002:00000a70       ??_C@_1EI@HGIDLLCM@?$AAv?$AAe?$AAc?$AAt?$AAo?$AAr?$AA?5?$AAe?$AAr?$AAa?$AAs?$AAe?$AA?5?$AAi?$AAt?$AAe?$AAr?$AAa?$AAt?$AAo?$AAr?$AA?5?$AAo?$AAu?$AAt?$AAs?$AAi?$AAd?$AAe?$AA?5?$AAr?$AAa@ 1007ba70     driver.obj
 0002:00000ab8       ??_C@_0BD@OLBABOEK@vector?$DMT?$DO?5too?5long?$AA@ 1007bab8     driver.obj
 0002:00000ad0       ??_C@_1EM@FKAOCOMF@?$AAv?$AAe?$AAc?$AAt?$AAo?$AAr?$AA?5?$AAi?$AAt?$AAe?$AAr?$AAa?$AAt?$AAo?$AAr?$AA?5?$AA?$CL?$AA?5?$AAo?$AAf?$AAf?$AAs?$AAe?$AAt?$AA?5?$AAo?$AAu?$AAt?$AA?5?$AAo?$AAf?$AA?5@ 1007bad0     driver.obj
 0002:00000b20       ??_C@_1MK@LOGFPNFK@?$AAs?$AAt?$AAd?$AA?3?$AA?3?$AA_?$AAV?$AAe?$AAc?$AAt?$AAo?$AAr?$AA_?$AAc?$AAo?$AAn?$AAs?$AAt?$AA_?$AAi?$AAt?$AAe?$AAr?$AAa?$AAt?$AAo?$AAr?$AA?$DM?$AAc?$AAl?$AAa?$AAs@ 1007bb20     driver.obj
 0002:00000bec       ??_C@_1DM@HINDPMBP@?$AAv?$AAe?$AAc?$AAt?$AAo?$AAr?$AA?5?$AAi?$AAt?$AAe?$AAr?$AAa?$AAt?$AAo?$AAr?$AAs?$AA?5?$AAi?$AAn?$AAc?$AAo?$AAm?$AAp?$AAa?$AAt?$AAi?$AAb?$AAl?$AAe?$AA?$AA@ 1007bbec     driver.obj
 0002:00000c28       ??_C@_0CI@FNPHFCCM@Standard?5C?$CL?$CL?5Libraries?5Invalid?5A@ 1007bc28     driver.obj
 0002:00000c50       ??_C@_1FO@GJIHNDLM@?$AA?$CC?$AAS?$AAt?$AAa?$AAn?$AAd?$AAa?$AAr?$AAd?$AA?5?$AAC?$AA?$CL?$AA?$CL?$AA?5?$AAL?$AAi?$AAb?$AAr?$AAa?$AAr?$AAi?$AAe?$AAs?$AA?5?$AAI?$AAn?$AAv?$AAa?$AAl?$AAi?$AAd?$AA?5@ 1007bc50     driver.obj
 0002:00000cb0       ??_C@_1MC@ENPOMNPG@?$AAs?$AAt?$AAd?$AA?3?$AA?3?$AA_?$AAV?$AAe?$AAc?$AAt?$AAo?$AAr?$AA_?$AAc?$AAo?$AAn?$AAs?$AAt?$AA_?$AAi?$AAt?$AAe?$AAr?$AAa?$AAt?$AAo?$AAr?$AA?$DM?$AAc?$AAl?$AAa?$AAs@ 1007bcb0     driver.obj
 0002:00000d74       ??_C@_1CG@JNLFBNGN@?$AA?$CC?$AAi?$AAn?$AAv?$AAa?$AAl?$AAi?$AAd?$AA?5?$AAa?$AAr?$AAg?$AAu?$AAm?$AAe?$AAn?$AAt?$AA?$CC?$AA?$AA@ 1007bd74     driver.obj
 0002:00000da0       ??_C@_1HG@JNLFGNNC@?$AAD?$AA?3?$AA?2?$AAP?$AAr?$AAo?$AAg?$AAr?$AAa?$AAm?$AA?2?$AAM?$AAi?$AAc?$AAr?$AAo?$AAs?$AAo?$AAf?$AAt?$AA?5?$AAV?$AAi?$AAs?$AAu?$AAa?$AAl?$AA?5?$AAS?$AAt?$AAu?$AAd@ 1007bda0     driver.obj
 0002:00000e18       ??_C@_1EG@FOHJJHAC@?$AAv?$AAe?$AAc?$AAt?$AAo?$AAr?$AA?5?$AAi?$AAt?$AAe?$AAr?$AAa?$AAt?$AAo?$AAr?$AA?5?$AAn?$AAo?$AAt?$AA?5?$AAd?$AAe?$AAr?$AAe?$AAf?$AAe?$AAr?$AAe?$AAn?$AAc?$AAa?$AAb@ 1007be18     driver.obj
 0002:00000e60       ??_C@_1NI@JNBFFHIB@?$AAs?$AAt?$AAd?$AA?3?$AA?3?$AA_?$AAV?$AAe?$AAc?$AAt?$AAo?$AAr?$AA_?$AAc?$AAo?$AAn?$AAs?$AAt?$AA_?$AAi?$AAt?$AAe?$AAr?$AAa?$AAt?$AAo?$AAr?$AA?$DM?$AAc?$AAl?$AAa?$AAs@ 1007be60     driver.obj
 0002:00000f38       ??_C@_1EE@EJDKCLKB@?$AAv?$AAe?$AAc?$AAt?$AAo?$AAr?$AA?5?$AAi?$AAt?$AAe?$AAr?$AAa?$AAt?$AAo?$AAr?$AA?5?$AAn?$AAo?$AAt?$AA?5?$AAi?$AAn?$AAc?$AAr?$AAe?$AAm?$AAe?$AAn?$AAt?$AAa?$AAb?$AAl@ 1007bf38     driver.obj
 0002:00000f80       ??_C@_1NK@GLPIALNC@?$AAs?$AAt?$AAd?$AA?3?$AA?3?$AA_?$AAV?$AAe?$AAc?$AAt?$AAo?$AAr?$AA_?$AAc?$AAo?$AAn?$AAs?$AAt?$AA_?$AAi?$AAt?$AAe?$AAr?$AAa?$AAt?$AAo?$AAr?$AA?$DM?$AAc?$AAl?$AAa?$AAs@ 1007bf80     driver.obj
 0002:00001060       ??_C@_1NG@OHMHIIPI@?$AAs?$AAt?$AAd?$AA?3?$AA?3?$AA_?$AAV?$AAe?$AAc?$AAt?$AAo?$AAr?$AA_?$AAc?$AAo?$AAn?$AAs?$AAt?$AA_?$AAi?$AAt?$AAe?$AAr?$AAa?$AAt?$AAo?$AAr?$AA?$DM?$AAc?$AAl?$AAa?$AAs@ 1007c060     driver.obj
 0002:00001138       ??_C@_1NI@IDGJHMPK@?$AAs?$AAt?$AAd?$AA?3?$AA?3?$AA_?$AAV?$AAe?$AAc?$AAt?$AAo?$AAr?$AA_?$AAc?$AAo?$AAn?$AAs?$AAt?$AA_?$AAi?$AAt?$AAe?$AAr?$AAa?$AAt?$AAo?$AAr?$AA?$DM?$AAc?$AAl?$AAa?$AAs@ 1007c138     driver.obj
 0002:00001210       ??_C@_1NC@CBKBFBLG@?$AAs?$AAt?$AAd?$AA?3?$AA?3?$AA_?$AAV?$AAe?$AAc?$AAt?$AAo?$AAr?$AA_?$AAc?$AAo?$AAn?$AAs?$AAt?$AA_?$AAi?$AAt?$AAe?$AAr?$AAa?$AAt?$AAo?$AAr?$AA?$DM?$AAc?$AAl?$AAa?$AAs@ 1007c210     driver.obj
 0002:000012e8       ??_C@_1NA@POLOFMHB@?$AAs?$AAt?$AAd?$AA?3?$AA?3?$AA_?$AAV?$AAe?$AAc?$AAt?$AAo?$AAr?$AA_?$AAc?$AAo?$AAn?$AAs?$AAt?$AA_?$AAi?$AAt?$AAe?$AAr?$AAa?$AAt?$AAo?$AAr?$AA?$DM?$AAc?$AAl?$AAa?$AAs@ 1007c2e8     driver.obj
 0002:000013b8       ??_C@_1CK@EOPGIILJ@?$AAi?$AAn?$AAv?$AAa?$AAl?$AAi?$AAd?$AA?5?$AAn?$AAu?$AAl?$AAl?$AA?5?$AAp?$AAo?$AAi?$AAn?$AAt?$AAe?$AAr?$AA?$AA@ 1007c3b8     driver.obj
 0002:000013e4       ??_C@_1CO@DGLIKNHI@?$AAi?$AAn?$AAv?$AAa?$AAl?$AAi?$AAd?$AA?5?$AAi?$AAt?$AAe?$AAr?$AAa?$AAt?$AAo?$AAr?$AA?5?$AAr?$AAa?$AAn?$AAg?$AAe?$AA?$AA@ 1007c3e4     driver.obj
 0002:00001418       __real@0000000000000000    1007c418     driver.obj
 0002:00001420       __real@3a83126f            1007c420     driver.obj
 0002:00001424       __real@3ba3d70a            1007c424     driver.obj
 0002:00001428       __real@3c23d70a            1007c428     driver.obj
 0002:0000142c       __real@3ca3d70a            1007c42c     driver.obj
 0002:00001430       __real@3dcccccd            1007c430     driver.obj
 0002:00001434       __real@3e4ccccd            1007c434     driver.obj
 0002:00001438       __real@3f000000            1007c438     driver.obj
 0002:0000143c       __real@3f30a3d7            1007c43c     driver.obj
 0002:00001440       __real@3f50624dd2f1a9fc    1007c440     driver.obj
 0002:00001448       __real@3f847ae147ae147b    1007c448     driver.obj
 0002:00001450       __real@3f947ae147ae147b    1007c450     driver.obj
 0002:00001458       __real@3f99999a            1007c458     driver.obj
 0002:00001460       __real@3fb5555555555555    1007c460     driver.obj
 0002:00001468       __real@3fb999999999999a    1007c468     driver.obj
 0002:00001470       __real@3fc999999999999a    1007c470     driver.obj
 0002:00001478       __real@3fd0000000000000    1007c478     driver.obj
 0002:00001480       __real@3fe0000000000000    1007c480     driver.obj
 0002:00001488       __real@3fe4a3d70a3d70a4    1007c488     driver.obj
 0002:00001490       __real@3fe8000000000000    1007c490     driver.obj
 0002:00001498       __real@3feccccccccccccd    1007c498     driver.obj
 0002:000014a0       __real@3ff0000000000000    1007c4a0     driver.obj
 0002:000014a8       __real@3ff3ae147ae147ae    1007c4a8     driver.obj
 0002:000014b0       __real@3ff8000000000000    1007c4b0     driver.obj
 0002:000014b8       __real@40000000            1007c4b8     driver.obj
 0002:000014c0       __real@4010000000000000    1007c4c0     driver.obj
 0002:000014c8       __real@4014000000000000    1007c4c8     driver.obj
 0002:000014d0       __real@4024000000000000    1007c4d0     driver.obj
 0002:000014d8       __real@40a00000            1007c4d8     driver.obj
 0002:000014e0       __real@40c3880000000000    1007c4e0     driver.obj
 0002:000014e8       __real@41200000            1007c4e8     driver.obj
 0002:000014ec       __real@42480000            1007c4ec     driver.obj
 0002:000014f0       __real@42c80000            1007c4f0     driver.obj
 0002:000014f4       __real@447a0000            1007c4f4     driver.obj
 0002:000014f8       __real@461c4000            1007c4f8     driver.obj
 0002:000014fc       __real@7f7fffff            1007c4fc     driver.obj
 0002:00001500       __real@bdcccccd            1007c500     driver.obj
 0002:00001504       __real@bf000000            1007c504     driver.obj
 0002:00001508       __real@bf800000            1007c508     driver.obj
 0002:00001510       __real@bfb999999999999a    1007c510     driver.obj
 0002:00001518       __real@bfd0000000000000    1007c518     driver.obj
 0002:00001520       __real@bfe0000000000000    1007c520     driver.obj
 0002:00001528       __real@bff0000000000000    1007c528     driver.obj
 0002:00001530       __real@c0000000            1007c530     driver.obj
 0002:00001538       __real@c000000000000000    1007c538     driver.obj
 0002:00001540       __real@c008000000000000    1007c540     driver.obj
 0002:00001548       __real@c47a0000            1007c548     driver.obj
 0002:00001550       __xmm@80000000800000008000000080000000 1007c550     driver.obj
 0002:000015b4       ??_7logic_error@std@@6B@   1007c5b4     geometry.obj
 0002:000015c0       ??_7invalid_argument@std@@6B@ 1007c5c0     geometry.obj
 0002:000015cc       ??_7out_of_range@std@@6B@  1007c5cc     geometry.obj
 0002:000015d8       ??_C@_1JG@JBCANLMD@?$AAs?$AAt?$AAd?$AA?3?$AA?3?$AAv?$AAe?$AAc?$AAt?$AAo?$AAr?$AA?$DM?$AAc?$AAl?$AAa?$AAs?$AAs?$AA?5?$AAV?$AAe?$AAc?$AAt?$AAo?$AAr?$AA?0?$AAc?$AAl?$AAa?$AAs?$AAs?$AA?5?$AAs@ 1007c5d8     geometry.obj
 0002:00001670       __real@38d1b717            1007c670     geometry.obj
 0002:00001674       __real@40800000            1007c674     geometry.obj
 0002:00001744       ??_C@_0CA@LEKEMFDO@Expected?5tag?5?$DM?$CFs?$DO?0?5found?5?$DM?$CFs?$DO?4?6?$AA@ 1007c744     learn.obj
 0002:00001764       __real@3b03126f            1007c764     learn.obj
 0002:00001768       __real@3d4ccccd            1007c768     learn.obj
 0002:0000176c       __real@3f400000            1007c76c     learn.obj
 0002:00001770       __real@3f947ae140000000    1007c770     learn.obj
 0002:00001778       __real@408f400000000000    1007c778     learn.obj
 0002:00001780       __real@43480000            1007c780     learn.obj
 0002:00001784       __real@43c80000            1007c784     learn.obj
 0002:00001a04       ?FRONTCOLLDIST@Opponent@@0MB 1007ca04     opponent.obj
 0002:00001a08       ?BACKCOLLDIST@Opponent@@0MB 1007ca08     opponent.obj
 0002:00001a0c       ?LENGTH_MARGIN@Opponent@@0MB 1007ca0c     opponent.obj
 0002:00001a10       ?SIDE_MARGIN@Opponent@@0MB 1007ca10     opponent.obj
 0002:00001a14       ?EXACT_DIST@Opponent@@0MB  1007ca14     opponent.obj
 0002:00001a18       ?LAP_BACK_TIME_PENALTY@Opponent@@0MB 1007ca18     opponent.obj
 0002:00001a1c       ?OVERLAP_WAIT_TIME@Opponent@@0MB 1007ca1c     opponent.obj
 0002:00001a20       ?SPEED_PASS_MARGIN@Opponent@@0MB 1007ca20     opponent.obj
 0002:00001a24       ?TIME_MARGIN@Opponent@@0MB 1007ca24     opponent.obj
 0002:00001a2c       ?SPEED_LIMIT_MARGIN@Pit@@0MB 1007ca2c     pit.obj
 0002:00001a30       __real@4008000000000000    1007ca30     pit.obj
 0002:00001a38       __real@40400000            1007ca38     pit.obj
 0002:00001a40       __real@4049000000000000    1007ca40     pit.obj
 0002:00001a4c       ?MAX_FUEL_PER_METER@SimpleStrategy@@1MB 1007ca4c     strategy.obj
 0002:00001a50       ?PIT_DAMMAGE@SimpleStrategy@@1HB 1007ca50     strategy.obj
 0002:00001ac8       ??_7AbstractStrategy@@6B@  1007cac8     strategy.obj
 0002:00001ae8       ??_7SimpleStrategy@@6B@    1007cae8     strategy.obj
 0002:00001b08       ??_7ManagedStrategy@@6B@   1007cb08     strategy.obj
 0002:00001b28       __real@3f666666            1007cb28     strategy.obj
 0002:00001b30       __real@3fb99999a0000000    1007cb30     strategy.obj
 0002:00001b38       __real@403e000000000000    1007cb38     strategy.obj
 0002:00001b40       __real@41f00000            1007cb40     strategy.obj
 0002:00001b48       __real@bfb99999a0000000    1007cb48     strategy.obj
 0002:00001c58       __real@4066800000000000    1007cc58     TrackData.obj
 0002:00001c60       ??_C@_1JK@BJAAMGFH@?$AAs?$AAt?$AAd?$AA?3?$AA?3?$AAv?$AAe?$AAc?$AAt?$AAo?$AAr?$AA?$DM?$AAc?$AAl?$AAa?$AAs?$AAs?$AA?5?$AAS?$AAe?$AAg?$AAm?$AAe?$AAn?$AAt?$AA?0?$AAc?$AAl?$AAa?$AAs?$AAs?$AA?5@ 1007cc60     Trajectory.obj
 0002:00001d00       ??_C@_1HC@HBCEAHKD@?$AAs?$AAt?$AAd?$AA?3?$AA?3?$AAv?$AAe?$AAc?$AAt?$AAo?$AAr?$AA?$DM?$AAi?$AAn?$AAt?$AA?0?$AAc?$AAl?$AAa?$AAs?$AAs?$AA?5?$AAs?$AAt?$AAd?$AA?3?$AA?3?$AAa?$AAl?$AAl?$AAo?$AAc@ 1007cd00     Trajectory.obj
 0002:00001d78       ??_C@_1MG@JKKENLGC@?$AAs?$AAt?$AAd?$AA?3?$AA?3?$AA_?$AAV?$AAe?$AAc?$AAt?$AAo?$AAr?$AA_?$AAc?$AAo?$AAn?$AAs?$AAt?$AA_?$AAi?$AAt?$AAe?$AAr?$AAa?$AAt?$AAo?$AAr?$AA?$DM?$AAc?$AAl?$AAa?$AAs@ 1007cd78     Trajectory.obj
 0002:00001e40       ??_C@_1LO@MGELDLOO@?$AAs?$AAt?$AAd?$AA?3?$AA?3?$AA_?$AAV?$AAe?$AAc?$AAt?$AAo?$AAr?$AA_?$AAc?$AAo?$AAn?$AAs?$AAt?$AA_?$AAi?$AAt?$AAe?$AAr?$AAa?$AAt?$AAo?$AAr?$AA?$DM?$AAc?$AAl?$AAa?$AAs@ 1007ce40     Trajectory.obj
 0002:00001f08       __real@404ca5dc1a63c1f8    1007cf08     sg_vs2008_32:sgd.obj
 0002:00001f10       __real@3f91df46a2529d39    1007cf10     sg_vs2008_32:sgd.obj
 0002:00001f18       __real@4022d97c7f3321d2    1007cf18     sg_vs2008_32:sgd.obj
 0002:00001f20       __real@400921fb54442d18    1007cf20     sg_vs2008_32:sgd.obj
 0002:00001f28       __real@401921fb54442d18    1007cf28     sg_vs2008_32:sgd.obj
 0002:00001f30       __real@3ff921fb54442d18    1007cf30     sg_vs2008_32:sgd.obj
 0002:00001f38       __real@3fefffeb074a771d    1007cf38     sg_vs2008_32:sgd.obj
 0002:00001f40       __real@bff921fb54442d18    1007cf40     sg_vs2008_32:sgd.obj
 0002:00001f48       __real@bfefffeb074a771d    1007cf48     sg_vs2008_32:sgd.obj
 0002:00001f50       ??_C@_0CL@MFADICKC@sgdGetAngleBetweenVectors?3?5Norma@ 1007cf50     sg_vs2008_32:sgd.obj
 0002:00001f80       ??_C@_0ED@LKGOFPEJ@sgFrustum?3?5Can?8t?5support?5fields?5@ 1007cf80     sg_vs2008_32:sgd.obj
 0002:00001fc4       ??_C@_0DF@MFOAFILF@sgFrustum?3?5Can?8t?5support?5width?5o@ 1007cfc4     sg_vs2008_32:sgd.obj
 0002:00001ffc       ??_C@_0DE@FLABMHND@sgdFrustum?3?5Can?8t?5support?5depth?5@ 1007cffc     sg_vs2008_32:sgd.obj
 0002:00002030       __real@bee4f8b588e368f1    1007d030     sg_vs2008_32:sgd.obj
 0002:00002038       ??_C@_0CE@HBHLABFJ@sgdMat4ToCoord?3?5ERROR?5?9?5Bad?5Matr@ 1007d038     sg_vs2008_32:sgd.obj
 0002:00002060       __real@3ee4f8b588e368f1    1007d060     sg_vs2008_32:sgd.obj
 0002:00002068       ??_C@_0CJ@BEEFNIHJ@sg?3?5ERROR?5?9?5Singular?5matrix?0?5no?5@ 1007d068     sg_vs2008_32:sgd.obj
 0002:00002098       __real@3cb0000000000000    1007d098     sg_vs2008_32:sgd.obj
 0002:000020a0       __real@c04ca5dc1a63c1f8    1007d0a0     sg_vs2008_32:sgd.obj
 0002:000020a8       __real@3feffffde7210be9    1007d0a8     sg_vs2008_32:sgd.obj
 0002:000020b0       __real@3eb0c6f7a0b5ed8d    1007d0b0     sg_vs2008_32:sgd.obj
 0002:000020b8       __real@404e000000000000    1007d0b8     sg_vs2008_32:sgd.obj
 0002:000020c0       __real@4056800000000000    1007d0c0     sg_vs2008_32:sgd.obj
 0002:000020c8       ??_C@_05JLFELJNP@FATAL?$AA@ 1007d0c8     ul_vs2008_32:ulError.obj
 0002:000020d0       ??_C@_07KCOHIFOP@WARNING?$AA@ 1007d0d0     ul_vs2008_32:ulError.obj
 0002:000020d8       ??_C@_05KOLFGEDA@DEBUG?$AA@ 1007d0d8     ul_vs2008_32:ulError.obj
 0002:000020e4       ??_C@_07KJFPOMFC@?$CFs?3?5?$CFs?6?$AA@ 1007d0e4     ul_vs2008_32:ulError.obj
 0002:000020ec       ?_VBITS@?$vector@_NV?$allocator@_N@std@@@std@@2HB 1007d0ec     libcpmtd:xthrow.obj
 0002:000020f0       ?skipws@?$_Iosb@H@std@@2W4_Fmtflags@12@B 1007d0f0     libcpmtd:xthrow.obj
 0002:000020f4       ?unitbuf@?$_Iosb@H@std@@2W4_Fmtflags@12@B 1007d0f4     libcpmtd:xthrow.obj
 0002:000020f8       ?uppercase@?$_Iosb@H@std@@2W4_Fmtflags@12@B 1007d0f8     libcpmtd:xthrow.obj
 0002:000020fc       ?showbase@?$_Iosb@H@std@@2W4_Fmtflags@12@B 1007d0fc     libcpmtd:xthrow.obj
 0002:00002100       ?showpoint@?$_Iosb@H@std@@2W4_Fmtflags@12@B 1007d100     libcpmtd:xthrow.obj
 0002:00002104       ?showpos@?$_Iosb@H@std@@2W4_Fmtflags@12@B 1007d104     libcpmtd:xthrow.obj
 0002:00002108       ?left@?$_Iosb@H@std@@2W4_Fmtflags@12@B 1007d108     libcpmtd:xthrow.obj
 0002:0000210c       ?right@?$_Iosb@H@std@@2W4_Fmtflags@12@B 1007d10c     libcpmtd:xthrow.obj
 0002:00002110       ?internal@?$_Iosb@H@std@@2W4_Fmtflags@12@B 1007d110     libcpmtd:xthrow.obj
 0002:00002114       ?dec@?$_Iosb@H@std@@2W4_Fmtflags@12@B 1007d114     libcpmtd:xthrow.obj
 0002:00002118       ?oct@?$_Iosb@H@std@@2W4_Fmtflags@12@B 1007d118     libcpmtd:xthrow.obj
 0002:0000211c       ?hex@?$_Iosb@H@std@@2W4_Fmtflags@12@B 1007d11c     libcpmtd:xthrow.obj
 0002:00002120       ?scientific@?$_Iosb@H@std@@2W4_Fmtflags@12@B 1007d120     libcpmtd:xthrow.obj
 0002:00002124       ?fixed@?$_Iosb@H@std@@2W4_Fmtflags@12@B 1007d124     libcpmtd:xthrow.obj
 0002:00002128       ?hexfloat@?$_Iosb@H@std@@2W4_Fmtflags@12@B 1007d128     libcpmtd:xthrow.obj
 0002:0000212c       ?boolalpha@?$_Iosb@H@std@@2W4_Fmtflags@12@B 1007d12c     libcpmtd:xthrow.obj
 0002:00002130       ?_Stdio@?$_Iosb@H@std@@2W4_Fmtflags@12@B 1007d130     libcpmtd:xthrow.obj
 0002:00002134       ?adjustfield@?$_Iosb@H@std@@2W4_Fmtflags@12@B 1007d134     libcpmtd:xthrow.obj
 0002:00002138       ?value@?$integral_constant@H$0A@@std@@2HB 1007d138     libcpmtd:xthrow.obj
 0002:0000213c       ?basefield@?$_Iosb@H@std@@2W4_Fmtflags@12@B 1007d13c     libcpmtd:xthrow.obj
 0002:00002140       ?floatfield@?$_Iosb@H@std@@2W4_Fmtflags@12@B 1007d140     libcpmtd:xthrow.obj
 0002:00002144       ?goodbit@?$_Iosb@H@std@@2W4_Iostate@12@B 1007d144     libcpmtd:xthrow.obj
 0002:00002148       ?eofbit@?$_Iosb@H@std@@2W4_Iostate@12@B 1007d148     libcpmtd:xthrow.obj
 0002:0000214c       ?failbit@?$_Iosb@H@std@@2W4_Iostate@12@B 1007d14c     libcpmtd:xthrow.obj
 0002:00002150       ?badbit@?$_Iosb@H@std@@2W4_Iostate@12@B 1007d150     libcpmtd:xthrow.obj
 0002:00002154       ?_Hardfail@?$_Iosb@H@std@@2W4_Iostate@12@B 1007d154     libcpmtd:xthrow.obj
 0002:00002158       ?in@?$_Iosb@H@std@@2W4_Openmode@12@B 1007d158     libcpmtd:xthrow.obj
 0002:0000215c       ?out@?$_Iosb@H@std@@2W4_Openmode@12@B 1007d15c     libcpmtd:xthrow.obj
 0002:00002160       ?ate@?$_Iosb@H@std@@2W4_Openmode@12@B 1007d160     libcpmtd:xthrow.obj
 0002:00002164       ?app@?$_Iosb@H@std@@2W4_Openmode@12@B 1007d164     libcpmtd:xthrow.obj
 0002:00002168       ?trunc@?$_Iosb@H@std@@2W4_Openmode@12@B 1007d168     libcpmtd:xthrow.obj
 0002:0000216c       ?_Nocreate@?$_Iosb@H@std@@2W4_Openmode@12@B 1007d16c     libcpmtd:xthrow.obj
 0002:00002170       ?_Noreplace@?$_Iosb@H@std@@2W4_Openmode@12@B 1007d170     libcpmtd:xthrow.obj
 0002:00002174       ?binary@?$_Iosb@H@std@@2W4_Openmode@12@B 1007d174     libcpmtd:xthrow.obj
 0002:00002178       ?beg@?$_Iosb@H@std@@2W4_Seekdir@12@B 1007d178     libcpmtd:xthrow.obj
 0002:0000217c       ?cur@?$_Iosb@H@std@@2W4_Seekdir@12@B 1007d17c     libcpmtd:xthrow.obj
 0002:00002180       ?end@?$_Iosb@H@std@@2W4_Seekdir@12@B 1007d180     libcpmtd:xthrow.obj
 0002:00002184       ?_Stream_err@failure@ios_base@std@@0W4io_errc@43@B 1007d184     libcpmtd:xthrow.obj
 0002:00002188       ?collate@?$_Locbase@H@std@@2HB 1007d188     libcpmtd:xthrow.obj
 0002:0000218c       ?ctype@?$_Locbase@H@std@@2HB 1007d18c     libcpmtd:xthrow.obj
 0002:00002190       ?monetary@?$_Locbase@H@std@@2HB 1007d190     libcpmtd:xthrow.obj
 0002:00002194       ?numeric@?$_Locbase@H@std@@2HB 1007d194     libcpmtd:xthrow.obj
 0002:00002198       ?time@?$_Locbase@H@std@@2HB 1007d198     libcpmtd:xthrow.obj
 0002:0000219c       ?messages@?$_Locbase@H@std@@2HB 1007d19c     libcpmtd:xthrow.obj
 0002:000021a0       ?all@?$_Locbase@H@std@@2HB 1007d1a0     libcpmtd:xthrow.obj
 0002:000021a4       ?none@?$_Locbase@H@std@@2HB 1007d1a4     libcpmtd:xthrow.obj
 0002:000021a8       ?_Names@?$_Regex_traits@D@std@@0QBU?$_Cl_names@D@2@B 1007d1a8     libcpmtd:xthrow.obj
 0002:00002268       ??_C@_05IIMHCHIO@alnum?$AA@ 1007d268     libcpmtd:xthrow.obj
 0002:00002270       ??_C@_05IAEKHIAN@alpha?$AA@ 1007d270     libcpmtd:xthrow.obj
 0002:00002278       ??_C@_05BABJKOGB@blank?$AA@ 1007d278     libcpmtd:xthrow.obj
 0002:00002280       ??_C@_05JMDPEFNK@cntrl?$AA@ 1007d280     libcpmtd:xthrow.obj
 0002:00002288       ??_C@_01LPLHEDKD@d?$AA@    1007d288     libcpmtd:xthrow.obj
 0002:0000228c       ??_C@_05ODNOIFML@digit?$AA@ 1007d28c     libcpmtd:xthrow.obj
 0002:00002294       ??_C@_05KCJBMLII@graph?$AA@ 1007d294     libcpmtd:xthrow.obj
 0002:0000229c       ??_C@_05IPJEPLHL@lower?$AA@ 1007d29c     libcpmtd:xthrow.obj
 0002:000022a4       ??_C@_05IJDJACGD@print?$AA@ 1007d2a4     libcpmtd:xthrow.obj
 0002:000022ac       ??_C@_05KOBGHFJJ@punct?$AA@ 1007d2ac     libcpmtd:xthrow.obj
 0002:000022b4       ??_C@_05OLNILLAB@space?$AA@ 1007d2b4     libcpmtd:xthrow.obj
 0002:000022bc       ??_C@_01LKDEMHDF@s?$AA@    1007d2bc     libcpmtd:xthrow.obj
 0002:000022c0       ??_C@_05NECKJAMC@upper?$AA@ 1007d2c0     libcpmtd:xthrow.obj
 0002:000022c8       ??_C@_01NOFIACDB@w?$AA@    1007d2c8     libcpmtd:xthrow.obj
 0002:000022cc       ??_C@_06BAPHGFFK@xdigit?$AA@ 1007d2cc     libcpmtd:xthrow.obj
 0002:000022d8       ?_Names@?$_Regex_traits@_W@std@@0QBU?$_Cl_names@_W@2@B 1007d2d8     libcpmtd:xthrow.obj
 0002:00002398       ??_C@_1M@KLMEPMCM@?$AAa?$AAl?$AAn?$AAu?$AAm?$AA?$AA@ 1007d398     libcpmtd:xthrow.obj
 0002:000023a4       ??_C@_1M@DHGLHBMI@?$AAa?$AAl?$AAp?$AAh?$AAa?$AA?$AA@ 1007d3a4     libcpmtd:xthrow.obj
 0002:000023b0       ??_C@_1M@EJAAJBPE@?$AAb?$AAl?$AAa?$AAn?$AAk?$AA?$AA@ 1007d3b0     libcpmtd:xthrow.obj
 0002:000023bc       ??_C@_1M@LMIMILA@?$AAc?$AAn?$AAt?$AAr?$AAl?$AA?$AA@ 1007d3bc     libcpmtd:xthrow.obj
 0002:000023c8       ??_C@_13GKPPEALH@?$AAd?$AA?$AA@ 1007d3c8     libcpmtd:xthrow.obj
 0002:000023cc       ??_C@_1M@JDAEIBKG@?$AAd?$AAi?$AAg?$AAi?$AAt?$AA?$AA@ 1007d3cc     libcpmtd:xthrow.obj
 0002:000023d8       ??_C@_1M@MDKNJLLK@?$AAg?$AAr?$AAa?$AAp?$AAh?$AA?$AA@ 1007d3d8     libcpmtd:xthrow.obj
 0002:000023e4       ??_C@_1M@LGAECJJD@?$AAl?$AAo?$AAw?$AAe?$AAr?$AA?$AA@ 1007d3e4     libcpmtd:xthrow.obj
 0002:000023f0       ??_C@_1M@ELNLAPLA@?$AAp?$AAr?$AAi?$AAn?$AAt?$AA?$AA@ 1007d3f0     libcpmtd:xthrow.obj
 0002:000023fc       ??_C@_1M@BPFMAOAO@?$AAp?$AAu?$AAn?$AAc?$AAt?$AA?$AA@ 1007d3fc     libcpmtd:xthrow.obj
 0002:00002408       ??_C@_1M@LPGODFOM@?$AAs?$AAp?$AAa?$AAc?$AAe?$AA?$AA@ 1007d408     libcpmtd:xthrow.obj
 0002:00002414       ?table_size@?$ctype@D@std@@2IB 1007d414     libcpmtd:xthrow.obj
 0002:00002418       ??_C@_13KHDBCPJB@?$AAs?$AA?$AA@ 1007d418     libcpmtd:xthrow.obj
 0002:0000241c       ??_C@_1M@PLNFCNIC@?$AAu?$AAp?$AAp?$AAe?$AAr?$AA?$AA@ 1007d41c     libcpmtd:xthrow.obj
 0002:00002428       ??_C@_13CIFDLIMG@?$AAw?$AA?$AA@ 1007d428     libcpmtd:xthrow.obj
 0002:0000242c       ??_C@_1O@OAFMJDHN@?$AAx?$AAd?$AAi?$AAg?$AAi?$AAt?$AA?$AA@ 1007d42c     libcpmtd:xthrow.obj
 0002:00002440       ??_7bad_alloc@std@@6B@     1007d440     libcpmtd:xthrow.obj
 0002:00002448       ??_C@_0P@GHFPNOJB@bad?5allocation?$AA@ 1007d448     libcpmtd:xthrow.obj
 0002:0000245c       ??_7length_error@std@@6B@  1007d45c     libcpmtd:xthrow.obj
 0002:00002468       ??_7runtime_error@std@@6B@ 1007d468     libcpmtd:xthrow.obj
 0002:00002474       ??_7overflow_error@std@@6B@ 1007d474     libcpmtd:xthrow.obj
 0002:00002480       ??_7bad_function_call@std@@6B@ 1007d480     libcpmtd:xthrow.obj
 0002:00002488       ??_C@_0BC@DPJNKNAF@bad?5function?5call?$AA@ 1007d488     libcpmtd:xthrow.obj
 0002:000024a0       ??_7error_category@std@@6B@ 1007d4a0     libcpmtd:xthrow.obj
 0002:000024bc       ??_7_Generic_error_category@std@@6B@ 1007d4bc     libcpmtd:xthrow.obj
 0002:000024d4       ??_C@_07DCLBNMLN@generic?$AA@ 1007d4d4     libcpmtd:xthrow.obj
 0002:000024dc       ??_C@_0O@BFJCFAAK@unknown?5error?$AA@ 1007d4dc     libcpmtd:xthrow.obj
 0002:000024f0       ??_7_Iostream_error_category@std@@6B@ 1007d4f0     libcpmtd:xthrow.obj
 0002:00002508       ??_C@_08LLGCOLLL@iostream?$AA@ 1007d508     libcpmtd:xthrow.obj
 0002:00002514       ??_C@_0BG@PADBLCHM@iostream?5stream?5error?$AA@ 1007d514     libcpmtd:xthrow.obj
 0002:00002530       ??_7_System_error_category@std@@6B@ 1007d530     libcpmtd:xthrow.obj
 0002:00002548       ??_C@_06FHFOAHML@system?$AA@ 1007d548     libcpmtd:xthrow.obj
 0002:00002554       ??_7regex_error@std@@6B@   1007d554     libcpmtd:xthrow.obj
 0002:00002560       ??_C@_0FI@CMNGHIFF@regex_error?$CIerror_collate?$CJ?3?5The?5@ 1007d560     libcpmtd:xthrow.obj
 0002:000025b8       ??_C@_0FE@LJMHKIOC@regex_error?$CIerror_ctype?$CJ?3?5The?5ex@ 1007d5b8     libcpmtd:xthrow.obj
 0002:00002610       ??_C@_0GI@HEGGMMDL@regex_error?$CIerror_escape?$CJ?3?5The?5e@ 1007d610     libcpmtd:xthrow.obj
 0002:00002678       ??_C@_0FA@HFMLPGNN@regex_error?$CIerror_backref?$CJ?3?5The?5@ 1007d678     libcpmtd:xthrow.obj
 0002:000026c8       ??_C@_0EH@LGEANNAL@regex_error?$CIerror_brack?$CJ?3?5The?5ex@ 1007d6c8     libcpmtd:xthrow.obj
 0002:00002710       ??_C@_0EH@CAGOJGLE@regex_error?$CIerror_paren?$CJ?3?5The?5ex@ 1007d710     libcpmtd:xthrow.obj
 0002:00002758       ??_C@_0EH@DICJJKLO@regex_error?$CIerror_brace?$CJ?3?5The?5ex@ 1007d758     libcpmtd:xthrow.obj
 0002:000027a0       ??_C@_0FM@BLDIHIBB@regex_error?$CIerror_badbrace?$CJ?3?5The@ 1007d7a0     libcpmtd:xthrow.obj
 0002:00002800       ??_C@_0HA@ICNJLCMC@regex_error?$CIerror_range?$CJ?3?5The?5ex@ 1007d800     libcpmtd:xthrow.obj
 0002:00002870       ??_C@_0GP@PICOBCHA@regex_error?$CIerror_space?$CJ?3?5There?5@ 1007d870     libcpmtd:xthrow.obj
 0002:000028e0       ??_C@_0FK@LCHHHEOA@regex_error?$CIerror_badrepeat?$CJ?3?5On@ 1007d8e0     libcpmtd:xthrow.obj
 0002:00002940       ??_C@_0HL@NEKOFBJA@regex_error?$CIerror_complexity?$CJ?3?5T@ 1007d940     libcpmtd:xthrow.obj
 0002:000029c0       ??_C@_0JC@HCDLJLGO@regex_error?$CIerror_stack?$CJ?3?5There?5@ 1007d9c0     libcpmtd:xthrow.obj
 0002:00002a54       ??_C@_0BJ@CHBLKGNM@regex_error?$CIerror_parse?$CJ?$AA@ 1007da54     libcpmtd:xthrow.obj
 0002:00002a70       ??_C@_0BK@DFJCACNI@regex_error?$CIerror_syntax?$CJ?$AA@ 1007da70     libcpmtd:xthrow.obj
 0002:00002a8c       ??_C@_0M@KGKAAGCA@regex_error?$AA@ 1007da8c     libcpmtd:xthrow.obj
 0002:00002a98       ??_C@_1FO@BEGKGBFG@?$AAf?$AA?3?$AA?2?$AAd?$AAd?$AA?2?$AAv?$AAc?$AAt?$AAo?$AAo?$AAl?$AAs?$AA?2?$AAc?$AAr?$AAt?$AA_?$AAb?$AAl?$AAd?$AA?2?$AAs?$AAe?$AAl?$AAf?$AA_?$AAx?$AA8?$AA6?$AA?2?$AAc@ 1007da98     libcpmtd:xthrow.obj
 0002:00002af8       ??_C@_0BI@CFPLBAOH@invalid?5string?5position?$AA@ 1007daf8     libcpmtd:xthrow.obj
 0002:00002b10       ??_C@_0BA@JFNIOLAK@string?5too?5long?$AA@ 1007db10     libcpmtd:xthrow.obj
 0002:00002ff0       ??_C@_0BC@CIJDGCDI@permission?5denied?$AA@ 1007dff0     libcpmtd:syserror.obj
 0002:00003004       ??_C@_0M@MIDIAGJP@file?5exists?$AA@ 1007e004     libcpmtd:syserror.obj
 0002:00003010       ??_C@_0P@FDINDDOK@no?5such?5device?$AA@ 1007e010     libcpmtd:syserror.obj
 0002:00003020       ??_C@_0BC@EJHOMAAK@filename?5too?5long?$AA@ 1007e020     libcpmtd:syserror.obj
 0002:00003034       ??_C@_0BI@NGCEHDD@device?5or?5resource?5busy?$AA@ 1007e034     libcpmtd:syserror.obj
 0002:0000304c       ??_C@_08GLNPIFBN@io?5error?$AA@ 1007e04c     libcpmtd:syserror.obj
 0002:00003058       ??_C@_0BE@JIDOCPHM@directory?5not?5empty?$AA@ 1007e058     libcpmtd:syserror.obj
 0002:0000306c       ??_C@_0BB@FCMFBGOM@invalid?5argument?$AA@ 1007e06c     libcpmtd:syserror.obj
 0002:00003080       ??_C@_0BD@IJDJKDEA@no?5space?5on?5device?$AA@ 1007e080     libcpmtd:syserror.obj
 0002:00003094       ??_C@_0BK@NDOCBPGE@no?5such?5file?5or?5directory?$AA@ 1007e094     libcpmtd:syserror.obj
 0002:000030b0       ??_C@_0BH@KEFGLDAF@function?5not?5supported?$AA@ 1007e0b0     libcpmtd:syserror.obj
 0002:000030c8       ??_C@_0BC@NJECKMKE@no?5lock?5available?$AA@ 1007e0c8     libcpmtd:syserror.obj
 0002:000030dc       ??_C@_0BC@ENOOLCNF@not?5enough?5memory?$AA@ 1007e0dc     libcpmtd:syserror.obj
 0002:000030f0       ??_C@_0BP@LKNGHENJ@resource?5unavailable?5try?5again?$AA@ 1007e0f0     libcpmtd:syserror.obj
 0002:00003110       ??_C@_0BC@PPHBOELF@cross?5device?5link?$AA@ 1007e110     libcpmtd:syserror.obj
 0002:00003124       ??_C@_0BD@MOLBPMEA@operation?5canceled?$AA@ 1007e124     libcpmtd:syserror.obj
 0002:00003138       ??_C@_0BE@GHAFMPAH@too?5many?5files?5open?$AA@ 1007e138     libcpmtd:syserror.obj
 0002:0000314c       ??_C@_0BC@FNODOBAE@permission_denied?$AA@ 1007e14c     libcpmtd:syserror.obj
 0002:00003160       ??_C@_0P@LNDJPBFK@address_in_use?$AA@ 1007e160     libcpmtd:syserror.obj
 0002:00003170       ??_C@_0BG@IPMGOJF@address_not_available?$AA@ 1007e170     libcpmtd:syserror.obj
 0002:00003188       ??_C@_0BN@LCBDHODA@address_family_not_supported?$AA@ 1007e188     libcpmtd:syserror.obj
 0002:000031a8       ??_C@_0BP@FOJJHMCC@connection_already_in_progress?$AA@ 1007e1a8     libcpmtd:syserror.obj
 0002:000031c8       ??_C@_0BE@DLHHIBGN@bad_file_descriptor?$AA@ 1007e1c8     libcpmtd:syserror.obj
 0002:000031dc       ??_C@_0BD@OJMJDIGI@connection_aborted?$AA@ 1007e1dc     libcpmtd:syserror.obj
 0002:000031f0       ??_C@_0BD@NGKCIFEP@connection_refused?$AA@ 1007e1f0     libcpmtd:syserror.obj
 0002:00003204       ??_C@_0BB@JOANDNCK@connection_reset?$AA@ 1007e204     libcpmtd:syserror.obj
 0002:00003218       ??_C@_0BN@JLJNLKLK@destination_address_required?$AA@ 1007e218     libcpmtd:syserror.obj
 0002:00003238       ??_C@_0M@IJGMGFGP@bad_address?$AA@ 1007e238     libcpmtd:syserror.obj
 0002:00003244       ??_C@_0BB@KKNHPPIN@host_unreachable?$AA@ 1007e244     libcpmtd:syserror.obj
 0002:00003258       ??_C@_0BG@DJGBJIIK@operation_in_progress?$AA@ 1007e258     libcpmtd:syserror.obj
 0002:00003270       ??_C@_0M@EGEKIIMP@interrupted?$AA@ 1007e270     libcpmtd:syserror.obj
 0002:0000327c       ??_C@_0BB@FFIHMIPJ@invalid_argument?$AA@ 1007e27c     libcpmtd:syserror.obj
 0002:00003290       ??_C@_0BC@FIFLCHLO@already_connected?$AA@ 1007e290     libcpmtd:syserror.obj
 0002:000032a4       ??_C@_0BE@GJJJJDDA@too_many_files_open?$AA@ 1007e2a4     libcpmtd:syserror.obj
 0002:000032b8       ??_C@_0N@HPMLKHPL@message_size?$AA@ 1007e2b8     libcpmtd:syserror.obj
 0002:000032c8       ??_C@_0BC@LEEIKBAL@filename_too_long?$AA@ 1007e2c8     libcpmtd:syserror.obj
 0002:000032dc       ??_C@_0N@FCPALPJK@network_down?$AA@ 1007e2dc     libcpmtd:syserror.obj
 0002:000032ec       ??_C@_0O@EHNDLHIG@network_reset?$AA@ 1007e2ec     libcpmtd:syserror.obj
 0002:000032fc       ??_C@_0BE@JFNJIDNF@network_unreachable?$AA@ 1007e2fc     libcpmtd:syserror.obj
 0002:00003310       ??_C@_0BA@FDIJKJCL@no_buffer_space?$AA@ 1007e310     libcpmtd:syserror.obj
 0002:00003320       ??_C@_0BD@JHIHCGKP@no_protocol_option?$AA@ 1007e320     libcpmtd:syserror.obj
 0002:00003334       ??_C@_0O@GBCLHHD@not_connected?$AA@ 1007e334     libcpmtd:syserror.obj
 0002:00003344       ??_C@_0N@IMHKKLEM@not_a_socket?$AA@ 1007e344     libcpmtd:syserror.obj
 0002:00003354       ??_C@_0BI@ICEIDKLJ@operation_not_supported?$AA@ 1007e354     libcpmtd:syserror.obj
 0002:0000336c       ??_C@_0BH@KAPBAIJF@protocol_not_supported?$AA@ 1007e36c     libcpmtd:syserror.obj
 0002:00003384       ??_C@_0BE@GAOJJFPC@wrong_protocol_type?$AA@ 1007e384     libcpmtd:syserror.obj
 0002:00003398       ??_C@_09NCHNLHPG@timed_out?$AA@ 1007e398     libcpmtd:syserror.obj
 0002:000033a4       ??_C@_0BG@GDGHKFDH@operation_would_block?$AA@ 1007e3a4     libcpmtd:syserror.obj
 0002:000033bc       ??_C@_0BN@LKKBCCDB@address?5family?5not?5supported?$AA@ 1007e3bc     libcpmtd:syserror.obj
 0002:000033dc       ??_C@_0P@LDMLAFHI@address?5in?5use?$AA@ 1007e3dc     libcpmtd:syserror.obj
 0002:000033ec       ??_C@_0BG@DHPCNBJB@address?5not?5available?$AA@ 1007e3ec     libcpmtd:syserror.obj
 0002:00003404       ??_C@_0BC@DFIBIBIL@already?5connected?$AA@ 1007e404     libcpmtd:syserror.obj
 0002:00003418       ??_C@_0BH@CAKOHOMI@argument?5list?5too?5long?$AA@ 1007e418     libcpmtd:syserror.obj
 0002:00003430       ??_C@_0BH@CGIMPKIM@argument?5out?5of?5domain?$AA@ 1007e430     libcpmtd:syserror.obj
 0002:00003448       ??_C@_0M@KGHGGJGL@bad?5address?$AA@ 1007e448     libcpmtd:syserror.obj
 0002:00003454       ??_C@_0BE@MPJPGCEO@bad?5file?5descriptor?$AA@ 1007e454     libcpmtd:syserror.obj
 0002:00003468       ??_C@_0M@PMMIEFCP@bad?5message?$AA@ 1007e468     libcpmtd:syserror.obj
 0002:00003474       ??_C@_0M@KPHOFDBE@broken?5pipe?$AA@ 1007e474     libcpmtd:syserror.obj
 0002:00003480       ??_C@_0BD@MGNDDEGM@connection?5aborted?$AA@ 1007e480     libcpmtd:syserror.obj
 0002:00003494       ??_C@_0BP@KAIHPOGN@connection?5already?5in?5progress?$AA@ 1007e494     libcpmtd:syserror.obj
 0002:000034b4       ??_C@_0BD@PJLIIJEL@connection?5refused?$AA@ 1007e4b4     libcpmtd:syserror.obj
 0002:000034c8       ??_C@_0BB@IECNJNOI@connection?5reset?$AA@ 1007e4c8     libcpmtd:syserror.obj
 0002:000034dc       ??_C@_0BN@KDMIFEIP@destination?5address?5required?$AA@ 1007e4dc     libcpmtd:syserror.obj
 0002:000034fc       ??_C@_0BI@BNCLIGPB@executable?5format?5error?$AA@ 1007e4fc     libcpmtd:syserror.obj
 0002:00003514       ??_C@_0P@DNAJLBJK@file?5too?5large?$AA@ 1007e514     libcpmtd:syserror.obj
 0002:00003524       ??_C@_0BB@DHFDFGDM@host?5unreachable?$AA@ 1007e524     libcpmtd:syserror.obj
 0002:00003538       ??_C@_0BD@JPHBMONG@identifier?5removed?$AA@ 1007e538     libcpmtd:syserror.obj
 0002:0000354c       ??_C@_0BG@CDNPAGJK@illegal?5byte?5sequence?$AA@ 1007e54c     libcpmtd:syserror.obj
 0002:00003564       ??_C@_0CD@BNPLBMNA@inappropriate?5io?5control?5operati@ 1007e564     libcpmtd:syserror.obj
 0002:00003588       ??_C@_0N@OHAFKDEK@invalid?5seek?$AA@ 1007e588     libcpmtd:syserror.obj
 0002:00003598       ??_C@_0P@FLLDBIDK@is?5a?5directory?$AA@ 1007e598     libcpmtd:syserror.obj
 0002:000035a8       ??_C@_0N@IFLPBIOP@message?5size?$AA@ 1007e5a8     libcpmtd:syserror.obj
 0002:000035b8       ??_C@_0N@KIIEAAIO@network?5down?$AA@ 1007e5b8     libcpmtd:syserror.obj
 0002:000035c8       ??_C@_0O@FNPDBHEE@network?5reset?$AA@ 1007e5c8     libcpmtd:syserror.obj
 0002:000035d8       ??_C@_0BE@IFNCKGE@network?5unreachable?$AA@ 1007e5d8     libcpmtd:syserror.obj
 0002:000035ec       ??_C@_0BA@PFFCAOFK@no?5buffer?5space?$AA@ 1007e5ec     libcpmtd:syserror.obj
 0002:000035fc       ??_C@_0BB@IEPBLJHK@no?5child?5process?$AA@ 1007e5fc     libcpmtd:syserror.obj
 0002:00003610       ??_C@_07PLECNNKG@no?5link?$AA@ 1007e610     libcpmtd:syserror.obj
 0002:00003618       ??_C@_0BF@PBGGPKKE@no?5message?5available?$AA@ 1007e618     libcpmtd:syserror.obj
 0002:00003630       ??_C@_0L@EDOLMPAK@no?5message?$AA@ 1007e630     libcpmtd:syserror.obj
 0002:0000363c       ??_C@_0BD@EAMBFIDF@no?5protocol?5option?$AA@ 1007e63c     libcpmtd:syserror.obj
 0002:00003650       ??_C@_0BE@MKFDAFMP@no?5stream?5resources?$AA@ 1007e650     libcpmtd:syserror.obj
 0002:00003664       ??_C@_0BK@IMCPHCBI@no?5such?5device?5or?5address?$AA@ 1007e664     libcpmtd:syserror.obj
 0002:00003680       ??_C@_0BA@ENLPPKBN@no?5such?5process?$AA@ 1007e680     libcpmtd:syserror.obj
 0002:00003690       ??_C@_0BA@DOCPFFJG@not?5a?5directory?$AA@ 1007e690     libcpmtd:syserror.obj
 0002:000036a0       ??_C@_0N@POEIPGGF@not?5a?5socket?$AA@ 1007e6a0     libcpmtd:syserror.obj
 0002:000036b0       ??_C@_0N@LGAPMMPI@not?5a?5stream?$AA@ 1007e6b0     libcpmtd:syserror.obj
 0002:000036c0       ??_C@_0O@GLMIBBEG@not?5connected?$AA@ 1007e6c0     libcpmtd:syserror.obj
 0002:000036d0       ??_C@_0O@NHEDABJP@not?5supported?$AA@ 1007e6d0     libcpmtd:syserror.obj
 0002:000036e0       ??_C@_0BG@KDKHOPCO@operation?5in?5progress?$AA@ 1007e6e0     libcpmtd:syserror.obj
 0002:000036f8       ??_C@_0BI@OHIEJAAB@operation?5not?5permitted?$AA@ 1007e6f8     libcpmtd:syserror.obj
 0002:00003710       ??_C@_0BI@LNEGIFLN@operation?5not?5supported?$AA@ 1007e710     libcpmtd:syserror.obj
 0002:00003728       ??_C@_0BG@OEMDKMEE@operation?5would?5block?$AA@ 1007e728     libcpmtd:syserror.obj
 0002:00003740       ??_C@_0L@BLPOFLNJ@owner?5dead?$AA@ 1007e740     libcpmtd:syserror.obj
 0002:0000374c       ??_C@_0P@FNPOCJBE@protocol?5error?$AA@ 1007e74c     libcpmtd:syserror.obj
 0002:0000375c       ??_C@_0BH@JPPPLHJB@protocol?5not?5supported?$AA@ 1007e75c     libcpmtd:syserror.obj
 0002:00003774       ??_C@_0BG@EICBIHDP@read?5only?5file?5system?$AA@ 1007e774     libcpmtd:syserror.obj
 0002:0000378c       ??_C@_0BO@BJBOMOEJ@resource?5deadlock?5would?5occur?$AA@ 1007e78c     libcpmtd:syserror.obj
 0002:000037ac       ??_C@_0BE@GOIPJJHG@result?5out?5of?5range?$AA@ 1007e7ac     libcpmtd:syserror.obj
 0002:000037c0       ??_C@_0BG@MPLKFPAE@state?5not?5recoverable?$AA@ 1007e7c0     libcpmtd:syserror.obj
 0002:000037d8       ??_C@_0P@DIIFGFCG@stream?5timeout?$AA@ 1007e7d8     libcpmtd:syserror.obj
 0002:000037e8       ??_C@_0P@IPFDMIFL@text?5file?5busy?$AA@ 1007e7e8     libcpmtd:syserror.obj
 0002:000037f8       ??_C@_09KJPPMAOI@timed?5out?$AA@ 1007e7f8     libcpmtd:syserror.obj
 0002:00003804       ??_C@_0BO@HACHBEKI@too?5many?5files?5open?5in?5system?$AA@ 1007e804     libcpmtd:syserror.obj
 0002:00003824       ??_C@_0P@HCOMKFCC@too?5many?5links?$AA@ 1007e824     libcpmtd:syserror.obj
 0002:00003834       ??_C@_0BO@EFGOJEF@too?5many?5symbolic?5link?5levels?$AA@ 1007e834     libcpmtd:syserror.obj
 0002:00003854       ??_C@_0BA@KGKGOOJA@value?5too?5large?$AA@ 1007e854     libcpmtd:syserror.obj
 0002:00003864       ??_C@_0BE@MIEJDDNH@wrong?5protocol?5type?$AA@ 1007e864     libcpmtd:syserror.obj
 0002:00003878       ??_C@_1EO@LHDAJOCM@?$AA_?$AAB?$AAL?$AAO?$AAC?$AAK?$AA_?$AAT?$AAY?$AAP?$AAE?$AA_?$AAI?$AAS?$AA_?$AAV?$AAA?$AAL?$AAI?$AAD?$AA?$CI?$AAp?$AAH?$AAe?$AAa?$AAd?$AA?9?$AA?$DO?$AAn?$AAB?$AAl?$AAo@ 1007e878     LIBCMTD:dbgdel.obj
 0002:000038c8       ??_C@_1GE@BDAODJCD@?$AAf?$AA?3?$AA?2?$AAd?$AAd?$AA?2?$AAv?$AAc?$AAt?$AAo?$AAo?$AAl?$AAs?$AA?2?$AAc?$AAr?$AAt?$AA_?$AAb?$AAl?$AAd?$AA?2?$AAs?$AAe?$AAl?$AAf?$AA_?$AAx?$AA8?$AA6?$AA?2?$AAc@ 1007e8c8     LIBCMTD:dbgdel.obj
 0002:0000392c       ?ProcessDetach@NativeDll@<CrtImplementationDetails>@@0IB 1007e92c     LIBCMTD:_trnsctrl_.obj
 0002:00003930       ?ProcessAttach@NativeDll@<CrtImplementationDetails>@@0IB 1007e930     LIBCMTD:_trnsctrl_.obj
 0002:00003934       ?ThreadAttach@NativeDll@<CrtImplementationDetails>@@0IB 1007e934     LIBCMTD:_trnsctrl_.obj
 0002:00003938       ?ThreadDetach@NativeDll@<CrtImplementationDetails>@@0IB 1007e938     LIBCMTD:_trnsctrl_.obj
 0002:0000393c       ?ProcessVerifier@NativeDll@<CrtImplementationDetails>@@0IB 1007e93c     LIBCMTD:_trnsctrl_.obj
 0002:00003940       __FPinit                   1007e940     LIBCMTD:fpinit.obj
 0002:00003944       ??_C@_1CC@FADMNIL@?$AA?$CI?$AAs?$AAt?$AAr?$AAe?$AAa?$AAm?$AA?5?$AA?$CB?$AA?$DN?$AA?5?$AAN?$AAU?$AAL?$AAL?$AA?$CJ?$AA?$AA@ 1007e944     LIBCMTD:fclose.obj
 0002:00003968       ??_C@_1GA@KMIDAPAP@?$AAf?$AA?3?$AA?2?$AAd?$AAd?$AA?2?$AAv?$AAc?$AAt?$AAo?$AAo?$AAl?$AAs?$AA?2?$AAc?$AAr?$AAt?$AA_?$AAb?$AAl?$AAd?$AA?2?$AAs?$AAe?$AAl?$AAf?$AA_?$AAx?$AA8?$AA6?$AA?2?$AAc@ 1007e968     LIBCMTD:fclose.obj
 0002:000039c8       ??_C@_1O@EGMJNCOI@?$AAf?$AAc?$AAl?$AAo?$AAs?$AAe?$AA?$AA@ 1007e9c8     LIBCMTD:fclose.obj
 0002:000039d8       ??_C@_1BM@JMKHIAHP@?$AA?$CI?$AAs?$AAt?$AAr?$AA?5?$AA?$CB?$AA?$DN?$AA?5?$AAN?$AAU?$AAL?$AAL?$AA?$CJ?$AA?$AA@ 1007e9d8     LIBCMTD:fclose.obj
 0002:000039f4       ??_C@_1BO@JINCABEC@?$AA_?$AAf?$AAc?$AAl?$AAo?$AAs?$AAe?$AA_?$AAn?$AAo?$AAl?$AAo?$AAc?$AAk?$AA?$AA@ 1007e9f4     LIBCMTD:fclose.obj
 0002:00003a14       ??_C@_1BO@CLGIAEOJ@?$AA?$CI?$AAf?$AAi?$AAl?$AAe?$AA?5?$AA?$CB?$AA?$DN?$AA?5?$AAN?$AAU?$AAL?$AAL?$AA?$CJ?$AA?$AA@ 1007ea14     LIBCMTD:fopen.obj
 0002:00003a38       ??_C@_1FO@NCADDBOO@?$AAf?$AA?3?$AA?2?$AAd?$AAd?$AA?2?$AAv?$AAc?$AAt?$AAo?$AAo?$AAl?$AAs?$AA?2?$AAc?$AAr?$AAt?$AA_?$AAb?$AAl?$AAd?$AA?2?$AAs?$AAe?$AAl?$AAf?$AA_?$AAx?$AA8?$AA6?$AA?2?$AAc@ 1007ea38     LIBCMTD:fopen.obj
 0002:00003a98       ??_C@_1BA@HNEAFMNL@?$AA_?$AAf?$AAs?$AAo?$AAp?$AAe?$AAn?$AA?$AA@ 1007ea98     LIBCMTD:fopen.obj
 0002:00003aa8       ??_C@_1BO@MJMKAKCJ@?$AA?$CI?$AAm?$AAo?$AAd?$AAe?$AA?5?$AA?$CB?$AA?$DN?$AA?5?$AAN?$AAU?$AAL?$AAL?$AA?$CJ?$AA?$AA@ 1007eaa8     LIBCMTD:fopen.obj
 0002:00003ac8       ??_C@_1CI@HBNALCBB@?$AA?$CI?$AA?$CK?$AAm?$AAo?$AAd?$AAe?$AA?5?$AA?$CB?$AA?$DN?$AA?5?$AA_?$AAT?$AA?$CI?$AA?8?$AA?2?$AA0?$AA?8?$AA?$CJ?$AA?$CJ?$AA?$AA@ 1007eac8     LIBCMTD:fopen.obj
 0002:00003af0       ??_C@_1CA@LLJLFCDN@?$AA?$CI?$AAp?$AAf?$AAi?$AAl?$AAe?$AA?5?$AA?$CB?$AA?$DN?$AA?5?$AAN?$AAU?$AAL?$AAL?$AA?$CJ?$AA?$AA@ 1007eaf0     LIBCMTD:fopen.obj
 0002:00003b10       ??_C@_1BA@PBGKCCAP@?$AAf?$AAo?$AAp?$AAe?$AAn?$AA_?$AAs?$AA?$AA@ 1007eb10     LIBCMTD:fopen.obj
 0002:00003b20       ??_C@_1GC@NHJDDBOH@?$AAf?$AA?3?$AA?2?$AAd?$AAd?$AA?2?$AAv?$AAc?$AAt?$AAo?$AAo?$AAl?$AAs?$AA?2?$AAc?$AAr?$AAt?$AA_?$AAb?$AAl?$AAd?$AA?2?$AAs?$AAe?$AAl?$AAf?$AA_?$AAx?$AA8?$AA6?$AA?2?$AAc@ 1007eb20     LIBCMTD:fprintf.obj
 0002:00003b84       ??_C@_1BA@DNOHIGNM@?$AAf?$AAp?$AAr?$AAi?$AAn?$AAt?$AAf?$AA?$AA@ 1007eb84     LIBCMTD:fprintf.obj
 0002:00003b94       ??_C@_1CC@MGIEJOME@?$AA?$CI?$AAf?$AAo?$AAr?$AAm?$AAa?$AAt?$AA?5?$AA?$CB?$AA?$DN?$AA?5?$AAN?$AAU?$AAL?$AAL?$AA?$CJ?$AA?$AA@ 1007eb94     LIBCMTD:fprintf.obj
 0002:00003bb8       ??_C@_1BAA@ODEGEDCK@?$AA?$CI?$AA?5?$AA?$CI?$AA_?$AAS?$AAt?$AAr?$AAe?$AAa?$AAm?$AA?9?$AA?$DO?$AA_?$AAf?$AAl?$AAa?$AAg?$AA?5?$AA?$CG?$AA?5?$AA_?$AAI?$AAO?$AAS?$AAT?$AAR?$AAG?$AA?$CJ?$AA?5?$AA?$HM?$AA?$HM?$AA?5@ 1007ebb8     LIBCMTD:fprintf.obj
 0002:00003cb8       ??_C@_1GA@LHEGHOAF@?$AAf?$AA?3?$AA?2?$AAd?$AAd?$AA?2?$AAv?$AAc?$AAt?$AAo?$AAo?$AAl?$AAs?$AA?2?$AAc?$AAr?$AAt?$AA_?$AAb?$AAl?$AAd?$AA?2?$AAs?$AAe?$AAl?$AAf?$AA_?$AAx?$AA8?$AA6?$AA?2?$AAc@ 1007ecb8     LIBCMTD:printf.obj
 0002:00003d18       ??_C@_1O@GKDHFACN@?$AAp?$AAr?$AAi?$AAn?$AAt?$AAf?$AA?$AA@ 1007ed18     LIBCMTD:printf.obj
 0002:00003d28       ??_C@_1GC@BMNPEKNN@?$AAf?$AA?3?$AA?2?$AAd?$AAd?$AA?2?$AAv?$AAc?$AAt?$AAo?$AAo?$AAl?$AAs?$AA?2?$AAc?$AAr?$AAt?$AA_?$AAb?$AAl?$AAd?$AA?2?$AAs?$AAe?$AAl?$AAf?$AA_?$AAx?$AA8?$AA6?$AA?2?$AAc@ 1007ed28     LIBCMTD:snprintf.obj
 0002:00003d8c       ??_C@_1BE@CHNFPLHD@?$AA_?$AAs?$AAn?$AAp?$AAr?$AAi?$AAn?$AAt?$AAf?$AA?$AA@ 1007ed8c     LIBCMTD:snprintf.obj
 0002:00003da0       ??_C@_1EC@FABAOFFO@?$AA?$CI?$AAc?$AAo?$AAu?$AAn?$AAt?$AA?5?$AA?$DN?$AA?$DN?$AA?5?$AA0?$AA?$CJ?$AA?5?$AA?$HM?$AA?$HM?$AA?5?$AA?$CI?$AAs?$AAt?$AAr?$AAi?$AAn?$AAg?$AA?5?$AA?$CB?$AA?$DN?$AA?5?$AAN?$AAU?$AAL?$AAL?$AA?$CJ@ 1007eda0     LIBCMTD:snprintf.obj
 0002:00003df0       ??_C@_1BA@GLMCNLEM@?$AAW?$AAa?$AAr?$AAn?$AAi?$AAn?$AAg?$AA?$AA@ 1007edf0     LIBCMTD:dbgrptw.obj
 0002:00003e00       ??_C@_1M@ILHOPKA@?$AAE?$AAr?$AAr?$AAo?$AAr?$AA?$AA@ 1007ee00     LIBCMTD:dbgrptw.obj
 0002:00003e0c       ??_C@_1CC@CGHMNGDG@?$AAA?$AAs?$AAs?$AAe?$AAr?$AAt?$AAi?$AAo?$AAn?$AA?5?$AAF?$AAa?$AAi?$AAl?$AAe?$AAd?$AA?$AA@ 1007ee0c     LIBCMTD:dbgrptw.obj
 0002:00003e30       ??_C@_17LGKOMLJ@?$AA?4?$AA?4?$AA?4?$AA?$AA@ 1007ee30     LIBCMTD:dbgrptw.obj
 0002:00003e38       ??_C@_1HI@OFEHGPPC@?$AAm?$AAo?$AAd?$AAe?$AA?5?$AA?$DN?$AA?$DN?$AA?5?$AA_?$AAC?$AAR?$AAT?$AA_?$AAR?$AAP?$AAT?$AAH?$AAO?$AAO?$AAK?$AA_?$AAI?$AAN?$AAS?$AAT?$AAA?$AAL?$AAL?$AA?5?$AA?$HM?$AA?$HM?$AA?5@ 1007ee38     LIBCMTD:dbgrptw.obj
 0002:00003eb0       ??_C@_1GA@IBJGKIFE@?$AAf?$AA?3?$AA?2?$AAd?$AAd?$AA?2?$AAv?$AAc?$AAt?$AAo?$AAo?$AAl?$AAs?$AA?2?$AAc?$AAr?$AAt?$AA_?$AAb?$AAl?$AAd?$AA?2?$AAs?$AAe?$AAl?$AAf?$AA_?$AAx?$AA8?$AA6?$AA?2?$AAc@ 1007eeb0     LIBCMTD:dbgrptw.obj
 0002:00003f10       ??_C@_1CI@IIHEAKEI@?$AA_?$AAC?$AAr?$AAt?$AAS?$AAe?$AAt?$AAR?$AAe?$AAp?$AAo?$AAr?$AAt?$AAH?$AAo?$AAo?$AAk?$AAW?$AA2?$AA?$AA@ 1007ef10     LIBCMTD:dbgrptw.obj
 0002:00003f38       ??_C@_1CG@JBJEFOCM@?$AAp?$AAf?$AAn?$AAN?$AAe?$AAw?$AAH?$AAo?$AAo?$AAk?$AA?5?$AA?$CB?$AA?$DN?$AA?5?$AAN?$AAU?$AAL?$AAL?$AA?$AA@ 1007ef38     LIBCMTD:dbgrptw.obj
 0002:00003f60       ??_C@_1FI@PHIAFFHM@?$AA?$CI?$AA?$CC?$AAT?$AAh?$AAe?$AA?5?$AAh?$AAo?$AAo?$AAk?$AA?5?$AAf?$AAu?$AAn?$AAc?$AAt?$AAi?$AAo?$AAn?$AA?5?$AAi?$AAs?$AA?5?$AAn?$AAo?$AAt?$AA?5?$AAi?$AAn?$AA?5?$AAt?$AAh@ 1007ef60     LIBCMTD:dbgrptw.obj
 0002:00003fb8       ??_C@_0DA@PCCBBBID@f?3?2dd?2vctools?2crt_bld?2self_x86?2c@ 1007efb8     LIBCMTD:dbgrptw.obj
 0002:00003fe8       ??_C@_1CI@PGJIFDEK@?$AA_?$AA_?$AAc?$AAr?$AAt?$AAM?$AAe?$AAs?$AAs?$AAa?$AAg?$AAe?$AAW?$AAi?$AAn?$AAd?$AAo?$AAw?$AAW?$AA?$AA@ 1007efe8     LIBCMTD:dbgrptw.obj
 0002:00004010       ??_C@_1GI@DEDNNLCI@?$AAw?$AAc?$AAs?$AAc?$AAp?$AAy?$AA_?$AAs?$AA?$CI?$AAs?$AAz?$AAE?$AAx?$AAe?$AAN?$AAa?$AAm?$AAe?$AA?0?$AA?5?$AA2?$AA6?$AA0?$AA?0?$AA?5?$AAL?$AA?$CC?$AA?$DM?$AAp?$AAr?$AAo?$AAg@ 1007f010     LIBCMTD:dbgrptw.obj
 0002:00004078       ??_C@_1CO@EAEJAADC@?$AA?$DM?$AAp?$AAr?$AAo?$AAg?$AAr?$AAa?$AAm?$AA?5?$AAn?$AAa?$AAm?$AAe?$AA?5?$AAu?$AAn?$AAk?$AAn?$AAo?$AAw?$AAn?$AA?$DO?$AA?$AA@ 1007f078     LIBCMTD:dbgrptw.obj
 0002:000040a8       ??_C@_1NO@LECLLHOL@?$AAm?$AAe?$AAm?$AAc?$AAp?$AAy?$AA_?$AAs?$AA?$CI?$AAs?$AAz?$AAS?$AAh?$AAo?$AAr?$AAt?$AAP?$AAr?$AAo?$AAg?$AAN?$AAa?$AAm?$AAe?$AA?0?$AA?5?$AAs?$AAi?$AAz?$AAe?$AAo?$AAf@ 1007f0a8     LIBCMTD:dbgrptw.obj
 0002:00004188       ??_C@_1OG@PMPPFHAF@?$AA?6?$AA?6?$AAF?$AAo?$AAr?$AA?5?$AAi?$AAn?$AAf?$AAo?$AAr?$AAm?$AAa?$AAt?$AAi?$AAo?$AAn?$AA?5?$AAo?$AAn?$AA?5?$AAh?$AAo?$AAw?$AA?5?$AAy?$AAo?$AAu?$AAr?$AA?5?$AAp?$AAr@ 1007f188     LIBCMTD:dbgrptw.obj
 0002:00004270       ??_C@_11LOCGONAA@?$AA?$AA@ 1007f270     LIBCMTD:dbgrptw.obj
 0002:00004274       ??_C@_1BK@PEDCIPMA@?$AAE?$AAx?$AAp?$AAr?$AAe?$AAs?$AAs?$AAi?$AAo?$AAn?$AA?3?$AA?5?$AA?$AA@ 1007f274     LIBCMTD:dbgrptw.obj
 0002:00004290       ??_C@_15IABLJNFO@?$AA?6?$AA?6?$AA?$AA@ 1007f290     LIBCMTD:dbgrptw.obj
 0002:00004298       ??_C@_1BA@GLLGCPCK@?$AA?6?$AAL?$AAi?$AAn?$AAe?$AA?3?$AA?5?$AA?$AA@ 1007f298     LIBCMTD:dbgrptw.obj
 0002:000042a8       ??_C@_1BA@LNHECFIM@?$AA?6?$AAF?$AAi?$AAl?$AAe?$AA?3?$AA?5?$AA?$AA@ 1007f2a8     LIBCMTD:dbgrptw.obj
 0002:000042b8       ??_C@_1BE@CGCJKGHI@?$AA?6?$AAM?$AAo?$AAd?$AAu?$AAl?$AAe?$AA?3?$AA?5?$AA?$AA@ 1007f2b8     LIBCMTD:dbgrptw.obj
 0002:000042d0       ??_C@_1KM@HNMIBKJH@?$AAD?$AAe?$AAb?$AAu?$AAg?$AA?5?$AA?$CF?$AAs?$AA?$CB?$AA?6?$AA?6?$AAP?$AAr?$AAo?$AAg?$AAr?$AAa?$AAm?$AA?3?$AA?5?$AA?$CF?$AAs?$AA?$CF?$AAs?$AA?$CF?$AAs?$AA?$CF?$AAs?$AA?$CF?$AAs?$AA?$CF?$AAs@ 1007f2d0     LIBCMTD:dbgrptw.obj
 0002:0000437c       ??_C@_1BI@KALLJECN@?$AA?$CI?$AA?$CK?$AA_?$AAe?$AAr?$AAr?$AAn?$AAo?$AA?$CI?$AA?$CJ?$AA?$CJ?$AA?$AA@ 1007f37c     LIBCMTD:dbgrptw.obj
 0002:00004398       ??_C@_1JI@EACPGHID@?$AAw?$AAc?$AAs?$AAc?$AAp?$AAy?$AA_?$AAs?$AA?$CI?$AAs?$AAz?$AAO?$AAu?$AAt?$AAM?$AAe?$AAs?$AAs?$AAa?$AAg?$AAe?$AA?0?$AA?5?$AA4?$AA0?$AA9?$AA6?$AA?0?$AA?5?$AAL?$AA?$CC?$AA_@ 1007f398     LIBCMTD:dbgrptw.obj
 0002:00004430       ??_C@_1FG@BBOLDHGF@?$AA_?$AAC?$AAr?$AAt?$AAD?$AAb?$AAg?$AAR?$AAe?$AAp?$AAo?$AAr?$AAt?$AA?3?$AA?5?$AAS?$AAt?$AAr?$AAi?$AAn?$AAg?$AA?5?$AAt?$AAo?$AAo?$AA?5?$AAl?$AAo?$AAn?$AAg?$AA?5?$AAo@ 1007f430     LIBCMTD:dbgrptw.obj
 0002:00004488       ??_C@_1EK@MBDPDCGA@?$AAM?$AAi?$AAc?$AAr?$AAo?$AAs?$AAo?$AAf?$AAt?$AA?5?$AAV?$AAi?$AAs?$AAu?$AAa?$AAl?$AA?5?$AAC?$AA?$CL?$AA?$CL?$AA?5?$AAR?$AAu?$AAn?$AAt?$AAi?$AAm?$AAe?$AA?5?$AAL?$AAi?$AAb@ 1007f488     LIBCMTD:dbgrptw.obj
 0002:000044f8       ??_7exception@std@@6B@     1007f4f8     LIBCMTD:stdexcpt.obj
 0002:00004500       ??_C@_0BC@EOODALEL@Unknown?5exception?$AA@ 1007f500     LIBCMTD:stdexcpt.obj
 0002:00004518       ??_7bad_cast@std@@6B@      1007f518     LIBCMTD:stdexcpt.obj
 0002:00004524       ??_7bad_typeid@std@@6B@    1007f524     LIBCMTD:stdexcpt.obj
 0002:00004530       ??_7__non_rtti_object@std@@6B@ 1007f530     LIBCMTD:stdexcpt.obj
 0002:0000453c       ??_7type_info@@6B@         1007f53c     LIBCMTD:typinfo.obj
 0002:00004540       ??_C@_0CP@BNKDODJJ@f?3?2dd?2vctools?2crt_bld?2self_x86?2c@ 1007f540     LIBCMTD:_file.obj
 0002:00004570       ??_C@_1FO@PNLFLIH@?$AAf?$AA?3?$AA?2?$AAd?$AAd?$AA?2?$AAv?$AAc?$AAt?$AAo?$AAo?$AAl?$AAs?$AA?2?$AAc?$AAr?$AAt?$AA_?$AAb?$AAl?$AAd?$AA?2?$AAs?$AAe?$AAl?$AAf?$AA_?$AAx?$AA8?$AA6?$AA?2?$AAc@ 1007f570     LIBCMTD:fread.obj
 0002:000045d0       ??_C@_1BA@CMLCEIGG@?$AAf?$AAr?$AAe?$AAa?$AAd?$AA_?$AAs?$AA?$AA@ 1007f5d0     LIBCMTD:fread.obj
 0002:000045e0       ??_C@_1CC@CGFEEBMC@?$AA?$CI?$AAb?$AAu?$AAf?$AAf?$AAe?$AAr?$AA?5?$AA?$CB?$AA?$DN?$AA?5?$AAN?$AAU?$AAL?$AAL?$AA?$CJ?$AA?$AA@ 1007f5e0     LIBCMTD:fread.obj
 0002:00004604       ??_C@_1CA@IDPOGFL@?$AA_?$AAf?$AAr?$AAe?$AAa?$AAd?$AA_?$AAn?$AAo?$AAl?$AAo?$AAc?$AAk?$AA_?$AAs?$AA?$AA@ 1007f604     LIBCMTD:fread.obj
 0002:00004628       ??_C@_1EA@FAMECDND@?$AAn?$AAu?$AAm?$AA?5?$AA?$DM?$AA?$DN?$AA?5?$AA?$CI?$AAS?$AAI?$AAZ?$AAE?$AA_?$AAM?$AAA?$AAX?$AA?5?$AA?1?$AA?5?$AAe?$AAl?$AAe?$AAm?$AAe?$AAn?$AAt?$AAS?$AAi?$AAz?$AAe?$AA?$CJ?$AA?$AA@ 1007f628     LIBCMTD:fread.obj
 0002:00004668       ??_C@_1LG@DCNDJCHK@?$AA?$CI?$AA?$CC?$AAI?$AAn?$AAc?$AAo?$AAn?$AAs?$AAi?$AAs?$AAt?$AAe?$AAn?$AAt?$AA?5?$AAS?$AAt?$AAr?$AAe?$AAa?$AAm?$AA?5?$AAC?$AAo?$AAu?$AAn?$AAt?$AA?4?$AA?5?$AAF?$AAl?$AAu@ 1007f668     LIBCMTD:fread.obj
 0002:00004720       ??_C@_1DA@DKEFLDMG@?$AA?$CI?$AA?$CC?$AAb?$AAu?$AAf?$AAf?$AAe?$AAr?$AA?5?$AAt?$AAo?$AAo?$AA?5?$AAs?$AAm?$AAa?$AAl?$AAl?$AA?$CC?$AA?0?$AA?5?$AA0?$AA?$CJ?$AA?$AA@ 1007f720     LIBCMTD:fread.obj
 0002:00004750       ??_C@_1GA@DOFNKKGD@?$AAf?$AA?3?$AA?2?$AAd?$AAd?$AA?2?$AAv?$AAc?$AAt?$AAo?$AAo?$AAl?$AAs?$AA?2?$AAc?$AAr?$AAt?$AA_?$AAb?$AAl?$AAd?$AA?2?$AAs?$AAe?$AAl?$AAf?$AA_?$AAx?$AA8?$AA6?$AA?2?$AAc@ 1007f750     LIBCMTD:fwrite.obj
 0002:000047b0       ??_C@_1O@KLNKIMAP@?$AAf?$AAw?$AAr?$AAi?$AAt?$AAe?$AA?$AA@ 1007f7b0     LIBCMTD:fwrite.obj
 0002:000047c0       ??_C@_1BO@JGPKCBCE@?$AA_?$AAf?$AAw?$AAr?$AAi?$AAt?$AAe?$AA_?$AAn?$AAo?$AAl?$AAo?$AAc?$AAk?$AA?$AA@ 1007f7c0     LIBCMTD:fwrite.obj
 0002:000047e0       ??_C@_1DC@FHEPNAPF@?$AAn?$AAu?$AAm?$AA?5?$AA?$DM?$AA?$DN?$AA?5?$AA?$CI?$AAS?$AAI?$AAZ?$AAE?$AA_?$AAM?$AAA?$AAX?$AA?5?$AA?1?$AA?5?$AAs?$AAi?$AAz?$AAe?$AA?$CJ?$AA?$AA@ 1007f7e0     LIBCMTD:fwrite.obj
 0002:00004814       ??_C@_13LBAGMAIH@?$AA?6?$AA?$AA@ 1007f814     LIBCMTD:wassert.obj
 0002:00004818       ??_C@_1GA@COEIABIF@?$AAf?$AA?3?$AA?2?$AAd?$AAd?$AA?2?$AAv?$AAc?$AAt?$AAo?$AAo?$AAl?$AAs?$AA?2?$AAc?$AAr?$AAt?$AA_?$AAb?$AAl?$AAd?$AA?2?$AAs?$AAe?$AAl?$AAf?$AA_?$AAx?$AA8?$AA6?$AA?2?$AAc@ 1007f818     LIBCMTD:wassert.obj
 0002:00004878       ??_C@_1BC@LNOOMFNA@?$AA_?$AAw?$AAa?$AAs?$AAs?$AAe?$AAr?$AAt?$AA?$AA@ 1007f878     LIBCMTD:wassert.obj
 0002:00004890       ??_C@_1GM@PANFFKAD@?$AAw?$AAc?$AAs?$AAc?$AAp?$AAy?$AA_?$AAs?$AA?$CI?$AA?5?$AAa?$AAs?$AAs?$AAe?$AAr?$AAt?$AAb?$AAu?$AAf?$AA?0?$AA?5?$AA?$CI?$AA6?$AA4?$AA?5?$AA?$CK?$AA?5?$AA9?$AA?$CJ?$AA?0?$AA?5?$AAL@ 1007f890     LIBCMTD:wassert.obj
 0002:000048fc       ??_C@_1CE@OJBNHDMO@?$AAA?$AAs?$AAs?$AAe?$AAr?$AAt?$AAi?$AAo?$AAn?$AA?5?$AAf?$AAa?$AAi?$AAl?$AAe?$AAd?$AA?$CB?$AA?$AA@ 1007f8fc     LIBCMTD:wassert.obj
 0002:00004920       ??_C@_1FI@OJONHFCN@?$AAw?$AAc?$AAs?$AAc?$AAa?$AAt?$AA_?$AAs?$AA?$CI?$AA?5?$AAa?$AAs?$AAs?$AAe?$AAr?$AAt?$AAb?$AAu?$AAf?$AA?0?$AA?5?$AA?$CI?$AA6?$AA4?$AA?5?$AA?$CK?$AA?5?$AA9?$AA?$CJ?$AA?0?$AA?5?$AAd@ 1007f920     LIBCMTD:wassert.obj
 0002:00004978       ??_C@_1FM@JONFCKBO@?$AAw?$AAc?$AAs?$AAc?$AAa?$AAt?$AA_?$AAs?$AA?$CI?$AA?5?$AAa?$AAs?$AAs?$AAe?$AAr?$AAt?$AAb?$AAu?$AAf?$AA?0?$AA?5?$AA?$CI?$AA6?$AA4?$AA?5?$AA?$CK?$AA?5?$AA9?$AA?$CJ?$AA?0?$AA?5?$AAL@ 1007f978     LIBCMTD:wassert.obj
 0002:000049d4       ??_C@_1BE@PHKBBGE@?$AAP?$AAr?$AAo?$AAg?$AAr?$AAa?$AAm?$AA?3?$AA?5?$AA?$AA@ 1007f9d4     LIBCMTD:wassert.obj
 0002:000049e8       ??_C@_1HA@EPFCONEE@?$AAw?$AAc?$AAs?$AAc?$AAp?$AAy?$AA_?$AAs?$AA?$CI?$AA?5?$AAp?$AAr?$AAo?$AAg?$AAn?$AAa?$AAm?$AAe?$AA?0?$AA?5?$AA2?$AA6?$AA0?$AA?5?$AA?$CL?$AA?5?$AA1?$AA?0?$AA?5?$AAL?$AA?$CC?$AA?$DM@ 1007f9e8     LIBCMTD:wassert.obj
 0002:00004a58       ??_C@_1LK@LGFOFOMH@?$AAm?$AAe?$AAm?$AAc?$AAp?$AAy?$AA_?$AAs?$AA?$CI?$AAp?$AAc?$AAh?$AA?0?$AA?5?$AAs?$AAi?$AAz?$AAe?$AAo?$AAf?$AA?$CI?$AAT?$AAC?$AAH?$AAA?$AAR?$AA?$CJ?$AA?5?$AA?$CK?$AA?5?$AA?$CI?$AA?$CI@ 1007fa58     LIBCMTD:wassert.obj
 0002:00004b18       ??_C@_1EK@BFAHOLDO@?$AAw?$AAc?$AAs?$AAc?$AAa?$AAt?$AA_?$AAs?$AA?$CI?$AA?5?$AAa?$AAs?$AAs?$AAe?$AAr?$AAt?$AAb?$AAu?$AAf?$AA?0?$AA?5?$AA?$CI?$AA6?$AA4?$AA?5?$AA?$CK?$AA?5?$AA9?$AA?$CJ?$AA?0?$AA?5?$AAp@ 1007fb18     LIBCMTD:wassert.obj
 0002:00004b68       ??_C@_1FC@GNPGDADJ@?$AAw?$AAc?$AAs?$AAc?$AAa?$AAt?$AA_?$AAs?$AA?$CI?$AA?5?$AAa?$AAs?$AAs?$AAe?$AAr?$AAt?$AAb?$AAu?$AAf?$AA?0?$AA?5?$AA?$CI?$AA6?$AA4?$AA?5?$AA?$CK?$AA?5?$AA9?$AA?$CJ?$AA?0?$AA?5?$AAn@ 1007fb68     LIBCMTD:wassert.obj
 0002:00004bc0       ??_C@_1FG@NHACFNEK@?$AAw?$AAc?$AAs?$AAc?$AAa?$AAt?$AA_?$AAs?$AA?$CI?$AA?5?$AAa?$AAs?$AAs?$AAe?$AAr?$AAt?$AAb?$AAu?$AAf?$AA?0?$AA?5?$AA?$CI?$AA6?$AA4?$AA?5?$AA?$CK?$AA?5?$AA9?$AA?$CJ?$AA?0?$AA?5?$AAL@ 1007fbc0     LIBCMTD:wassert.obj
 0002:00004c18       ??_C@_1O@HEMHKNDC@?$AAF?$AAi?$AAl?$AAe?$AA?3?$AA?5?$AA?$AA@ 1007fc18     LIBCMTD:wassert.obj
 0002:00004c28       ??_C@_1GG@PKOIFPHI@?$AAw?$AAc?$AAs?$AAn?$AAc?$AAa?$AAt?$AA_?$AAs?$AA?$CI?$AA?5?$AAa?$AAs?$AAs?$AAe?$AAr?$AAt?$AAb?$AAu?$AAf?$AA?0?$AA?5?$AA?$CI?$AA6?$AA4?$AA?5?$AA?$CK?$AA?5?$AA9?$AA?$CJ?$AA?0?$AA?5@ 1007fc28     LIBCMTD:wassert.obj
 0002:00004c90       ??_C@_1FG@PLMFGJFG@?$AAw?$AAc?$AAs?$AAc?$AAa?$AAt?$AA_?$AAs?$AA?$CI?$AA?5?$AAa?$AAs?$AAs?$AAe?$AAr?$AAt?$AAb?$AAu?$AAf?$AA?0?$AA?5?$AA?$CI?$AA6?$AA4?$AA?5?$AA?$CK?$AA?5?$AA9?$AA?$CJ?$AA?0?$AA?5?$AAd@ 1007fc90     LIBCMTD:wassert.obj
 0002:00004ce8       ??_C@_1FO@HPHMICDB@?$AAw?$AAc?$AAs?$AAc?$AAa?$AAt?$AA_?$AAs?$AA?$CI?$AA?5?$AAa?$AAs?$AAs?$AAe?$AAr?$AAt?$AAb?$AAu?$AAf?$AA?0?$AA?5?$AA?$CI?$AA6?$AA4?$AA?5?$AA?$CK?$AA?5?$AA9?$AA?$CJ?$AA?0?$AA?5?$AAp@ 1007fce8     LIBCMTD:wassert.obj
 0002:00004d48       ??_C@_1GO@KNIHEHNA@?$AAw?$AAc?$AAs?$AAn?$AAc?$AAa?$AAt?$AA_?$AAs?$AA?$CI?$AA?5?$AAa?$AAs?$AAs?$AAe?$AAr?$AAt?$AAb?$AAu?$AAf?$AA?0?$AA?5?$AA?$CI?$AA6?$AA4?$AA?5?$AA?$CK?$AA?5?$AA9?$AA?$CJ?$AA?0?$AA?5@ 1007fd48     LIBCMTD:wassert.obj
 0002:00004db8       ??_C@_1HG@FHHFPPED@?$AAw?$AAc?$AAs?$AAn?$AAc?$AAa?$AAt?$AA_?$AAs?$AA?$CI?$AA?5?$AAa?$AAs?$AAs?$AAe?$AAr?$AAt?$AAb?$AAu?$AAf?$AA?0?$AA?5?$AA?$CI?$AA6?$AA4?$AA?5?$AA?$CK?$AA?5?$AA9?$AA?$CJ?$AA?0?$AA?5@ 1007fdb8     LIBCMTD:wassert.obj
 0002:00004e30       ??_C@_1IC@JGCGJJHO@?$AAw?$AAc?$AAs?$AAc?$AAa?$AAt?$AA_?$AAs?$AA?$CI?$AA?5?$AAa?$AAs?$AAs?$AAe?$AAr?$AAt?$AAb?$AAu?$AAf?$AA?0?$AA?5?$AA?$CI?$AA6?$AA4?$AA?5?$AA?$CK?$AA?5?$AA9?$AA?$CJ?$AA?0?$AA?5?$AAp@ 1007fe30     LIBCMTD:wassert.obj
 0002:00004eb8       ??_C@_1FE@NDOBOCBD@?$AAw?$AAc?$AAs?$AAc?$AAa?$AAt?$AA_?$AAs?$AA?$CI?$AA?5?$AAa?$AAs?$AAs?$AAe?$AAr?$AAt?$AAb?$AAu?$AAf?$AA?0?$AA?5?$AA?$CI?$AA6?$AA4?$AA?5?$AA?$CK?$AA?5?$AA9?$AA?$CJ?$AA?0?$AA?5?$AAf@ 1007feb8     LIBCMTD:wassert.obj
 0002:00004f10       ??_C@_1FG@HLHNIBH@?$AAw?$AAc?$AAs?$AAc?$AAa?$AAt?$AA_?$AAs?$AA?$CI?$AA?5?$AAa?$AAs?$AAs?$AAe?$AAr?$AAt?$AAb?$AAu?$AAf?$AA?0?$AA?5?$AA?$CI?$AA6?$AA4?$AA?5?$AA?$CK?$AA?5?$AA9?$AA?$CJ?$AA?0?$AA?5?$AAL@ 1007ff10     LIBCMTD:wassert.obj
 0002:00004f68       ??_C@_1O@KCAFKHJE@?$AAL?$AAi?$AAn?$AAe?$AA?3?$AA?5?$AA?$AA@ 1007ff68     LIBCMTD:wassert.obj
 0002:00004f78       ??_C@_1KG@NJJPHNOK@?$AA_?$AAi?$AAt?$AAo?$AAw?$AA_?$AAs?$AA?$CI?$AA?5?$AAl?$AAi?$AAn?$AAe?$AAn?$AAo?$AA?0?$AA?5?$AAa?$AAs?$AAs?$AAe?$AAr?$AAt?$AAb?$AAu?$AAf?$AA?5?$AA?$CL?$AA?5?$AAw?$AAc?$AAs@ 1007ff78     LIBCMTD:wassert.obj
 0002:00005020       ??_C@_1GC@CFDADAM@?$AAw?$AAc?$AAs?$AAc?$AAa?$AAt?$AA_?$AAs?$AA?$CI?$AA?5?$AAa?$AAs?$AAs?$AAe?$AAr?$AAt?$AAb?$AAu?$AAf?$AA?0?$AA?5?$AA?$CI?$AA6?$AA4?$AA?5?$AA?$CK?$AA?5?$AA9?$AA?$CJ?$AA?0?$AA?5?$AAL@ 10080020     LIBCMTD:wassert.obj
 0002:00005088       ??_C@_1CHM@HIHGOMKE@?$AAw?$AAc?$AAs?$AAn?$AAc?$AAa?$AAt?$AA_?$AAs?$AA?$CI?$AA?5?$AAa?$AAs?$AAs?$AAe?$AAr?$AAt?$AAb?$AAu?$AAf?$AA?0?$AA?5?$AA?$CI?$AA6?$AA4?$AA?5?$AA?$CK?$AA?5?$AA9?$AA?$CJ?$AA?0?$AA?5@ 10080088     LIBCMTD:wassert.obj
 0002:00005308       ??_C@_1EM@DAMJKKKC@?$AAw?$AAc?$AAs?$AAc?$AAa?$AAt?$AA_?$AAs?$AA?$CI?$AA?5?$AAa?$AAs?$AAs?$AAe?$AAr?$AAt?$AAb?$AAu?$AAf?$AA?0?$AA?5?$AA?$CI?$AA6?$AA4?$AA?5?$AA?$CK?$AA?5?$AA9?$AA?$CJ?$AA?0?$AA?5?$AAe@ 10080308     LIBCMTD:wassert.obj
 0002:00005358       ??_C@_1BCO@GAGHDLIF@?$AAw?$AAc?$AAs?$AAc?$AAa?$AAt?$AA_?$AAs?$AA?$CI?$AAa?$AAs?$AAs?$AAe?$AAr?$AAt?$AAb?$AAu?$AAf?$AA?0?$AA?5?$AA?$CI?$AA6?$AA4?$AA?5?$AA?$CK?$AA?5?$AA9?$AA?$CJ?$AA?0?$AA?5?$AAL?$AA?$CC@ 10080358     LIBCMTD:wassert.obj
 0002:00005488       ??_C@_1OA@EGMLFBHJ@?$AAF?$AAo?$AAr?$AA?5?$AAi?$AAn?$AAf?$AAo?$AAr?$AAm?$AAa?$AAt?$AAi?$AAo?$AAn?$AA?5?$AAo?$AAn?$AA?5?$AAh?$AAo?$AAw?$AA?5?$AAy?$AAo?$AAu?$AAr?$AA?5?$AAp?$AAr?$AAo?$AAg@ 10080488     LIBCMTD:wassert.obj
 0002:00005568       ??_C@_1FG@IFIHHMNM@?$AAw?$AAc?$AAs?$AAc?$AAa?$AAt?$AA_?$AAs?$AA?$CI?$AAa?$AAs?$AAs?$AAe?$AAr?$AAt?$AAb?$AAu?$AAf?$AA?0?$AA?5?$AA?$CI?$AA6?$AA4?$AA?5?$AA?$CK?$AA?5?$AA9?$AA?$CJ?$AA?0?$AA?5?$AAd?$AAb@ 10080568     LIBCMTD:wassert.obj
 0002:000055c0       ??_C@_1LO@CHAFGADE@?$AAw?$AAc?$AAs?$AAc?$AAa?$AAt?$AA_?$AAs?$AA?$CI?$AAa?$AAs?$AAs?$AAe?$AAr?$AAt?$AAb?$AAu?$AAf?$AA?0?$AA?5?$AA?$CI?$AA6?$AA4?$AA?5?$AA?$CK?$AA?5?$AA9?$AA?$CJ?$AA?0?$AA?5?$AAL?$AA?$CC@ 100805c0     LIBCMTD:wassert.obj
 0002:00005680       ??_C@_1HK@POCJMFGK@?$AA?$CI?$AAP?$AAr?$AAe?$AAs?$AAs?$AA?5?$AAR?$AAe?$AAt?$AAr?$AAy?$AA?5?$AAt?$AAo?$AA?5?$AAd?$AAe?$AAb?$AAu?$AAg?$AA?5?$AAt?$AAh?$AAe?$AA?5?$AAa?$AAp?$AAp?$AAl?$AAi?$AAc@ 10080680     LIBCMTD:wassert.obj
 0002:00005750       __pDefaultRawDllMain       10080750     LIBCMTD:dllcrt0.obj
 0002:00005750       __pRawDllMain              10080750     LIBCMTD:dllcrt0.obj
 0002:00005754       ??_C@_0DB@OLNOAEGF@f?3?2dd?2vctools?2crt_bld?2self_x86?2c@ 10080754     LIBCMTD:dllcrt0.obj
 0002:00005788       ??_C@_1BI@BGOHAHKC@?$AAm?$AAs?$AAc?$AAo?$AAr?$AAe?$AAe?$AA?4?$AAd?$AAl?$AAl?$AA?$AA@ 10080788     LIBCMTD:crt0dat.obj
 0002:000057a0       ??_C@_0P@MIGLKIOC@CorExitProcess?$AA@ 100807a0     LIBCMTD:crt0dat.obj
 0002:000057b0       ??_C@_1BO@LKEBEKJP@?$AAp?$AAV?$AAa?$AAl?$AAu?$AAe?$AA?5?$AA?$CB?$AA?$DN?$AA?5?$AAN?$AAU?$AAL?$AAL?$AA?$AA@ 100807b0     LIBCMTD:crt0dat.obj
 0002:000057d0       ??_C@_1GC@DGCPEDNJ@?$AAf?$AA?3?$AA?2?$AAd?$AAd?$AA?2?$AAv?$AAc?$AAt?$AAo?$AAo?$AAl?$AAs?$AA?2?$AAc?$AAr?$AAt?$AA_?$AAb?$AAl?$AAd?$AA?2?$AAs?$AAe?$AAl?$AAf?$AA_?$AAx?$AA8?$AA6?$AA?2?$AAc@ 100807d0     LIBCMTD:crt0dat.obj
 0002:00005834       ??_C@_1BK@PNLDCCDP@?$AA_?$AAg?$AAe?$AAt?$AA_?$AAw?$AAp?$AAg?$AAm?$AAp?$AAt?$AAr?$AA?$AA@ 10080834     LIBCMTD:crt0dat.obj
 0002:00005850       ??_C@_1CC@CDIPMFPD@?$AA_?$AAw?$AAp?$AAg?$AAm?$AAp?$AAt?$AAr?$AA?5?$AA?$CB?$AA?$DN?$AA?5?$AAN?$AAU?$AAL?$AAL?$AA?$AA@ 10080850     LIBCMTD:crt0dat.obj
 0002:00005874       ??_C@_1BI@COAAPHJK@?$AA_?$AAg?$AAe?$AAt?$AA_?$AAp?$AAg?$AAm?$AAp?$AAt?$AAr?$AA?$AA@ 10080874     LIBCMTD:crt0dat.obj
 0002:0000588c       ??_C@_1CA@BBNAFCKO@?$AA_?$AAp?$AAg?$AAm?$AAp?$AAt?$AAr?$AA?5?$AA?$CB?$AA?$DN?$AA?5?$AAN?$AAU?$AAL?$AAL?$AA?$AA@ 1008088c     LIBCMTD:crt0dat.obj
 0002:000058ac       ??_C@_1BK@DJNILIMN@?$AAp?$AAa?$AAt?$AAh?$AA?5?$AA?$CB?$AA?$DN?$AA?5?$AAN?$AAU?$AAL?$AAL?$AA?$AA@ 100808ac     LIBCMTD:crt0dat.obj
 0002:000058c8       ??_C@_1DG@KANBJOCK@?$AA_?$AA_?$AAc?$AAo?$AAp?$AAy?$AA_?$AAp?$AAa?$AAt?$AAh?$AA_?$AAt?$AAo?$AA_?$AAw?$AAi?$AAd?$AAe?$AA_?$AAs?$AAt?$AAr?$AAi?$AAn?$AAg?$AA?$AA@ 100808c8     LIBCMTD:crt0dat.obj
 0002:00005900       ??_C@_1CA@BGODLPHH@?$AAo?$AAu?$AAt?$AAP?$AAa?$AAt?$AAh?$AA?5?$AA?$CB?$AA?$DN?$AA?5?$AAN?$AAU?$AAL?$AAL?$AA?$AA@ 10080900     LIBCMTD:crt0dat.obj
 0002:00005920       ??_C@_0DB@LJJKGJFF@f?3?2dd?2vctools?2crt_bld?2self_x86?2c@ 10080920     LIBCMTD:crt0dat.obj
 0002:00005958       ??_C@_1GE@DPADKNCG@?$AAf?$AA?3?$AA?2?$AAd?$AAd?$AA?2?$AAv?$AAc?$AAt?$AAo?$AAo?$AAl?$AAs?$AA?2?$AAc?$AAr?$AAt?$AA_?$AAb?$AAl?$AAd?$AA?2?$AAs?$AAe?$AAl?$AAf?$AA_?$AAx?$AA8?$AA6?$AA?2?$AAc@ 10080958     LIBCMTD:vsprintf.obj
 0002:000059bc       ??_C@_1BI@IGILPKD@?$AA_?$AAv?$AAs?$AAp?$AAr?$AAi?$AAn?$AAt?$AAf?$AA_?$AAl?$AA?$AA@ 100809bc     LIBCMTD:vsprintf.obj
 0002:000059d4       ??_C@_1CC@OLIJCKA@?$AA?$CI?$AAs?$AAt?$AAr?$AAi?$AAn?$AAg?$AA?5?$AA?$CB?$AA?$DN?$AA?5?$AAN?$AAU?$AAL?$AAL?$AA?$CJ?$AA?$AA@ 100809d4     LIBCMTD:vsprintf.obj
 0002:000059f8       ??_C@_1CE@HMKDJHB@?$AA_?$AAv?$AAs?$AAc?$AAp?$AAr?$AAi?$AAn?$AAt?$AAf?$AA_?$AAh?$AAe?$AAl?$AAp?$AAe?$AAr?$AA?$AA@ 100809f8     LIBCMTD:vsprintf.obj
 0002:00005a1c       ??_C@_0DA@HMCPFNKN@f?3?2dd?2vctools?2crt_bld?2self_x86?2c@ 10080a1c     LIBCMTD:onexit.obj
 0002:00005a4c       ??_C@_0CP@MKONOLCI@f?3?2dd?2vctools?2crt_bld?2self_x86?2c@ 10080a4c     LIBCMTD:mlock.obj
 0002:00005a7c       ??_C@_1BK@MGMFAEKH@?$AAk?$AAe?$AAr?$AAn?$AAe?$AAl?$AA3?$AA2?$AA?4?$AAd?$AAl?$AAl?$AA?$AA@ 10080a7c     LIBCMTD:winapisupp.obj
 0002:00005a98       ??_C@_08KNHFBNJ@FlsAlloc?$AA@ 10080a98     LIBCMTD:winapisupp.obj
 0002:00005aa4       ??_C@_07PEJMOBNF@FlsFree?$AA@ 10080aa4     LIBCMTD:winapisupp.obj
 0002:00005aac       ??_C@_0M@GDNOONDI@FlsGetValue?$AA@ 10080aac     LIBCMTD:winapisupp.obj
 0002:00005ab8       ??_C@_0M@JCPCPOEF@FlsSetValue?$AA@ 10080ab8     LIBCMTD:winapisupp.obj
 0002:00005ac4       ??_C@_0BM@HCFOFFN@InitializeCriticalSectionEx?$AA@ 10080ac4     LIBCMTD:winapisupp.obj
 0002:00005ae0       ??_C@_0BD@KIEEOEEH@CreateSemaphoreExW?$AA@ 10080ae0     LIBCMTD:winapisupp.obj
 0002:00005af4       ??_C@_0BI@BKLFFAPO@SetThreadStackGuarantee?$AA@ 10080af4     LIBCMTD:winapisupp.obj
 0002:00005b0c       ??_C@_0BG@OGFAJCKC@CreateThreadpoolTimer?$AA@ 10080b0c     LIBCMTD:winapisupp.obj
 0002:00005b24       ??_C@_0BD@LPLEMMDI@SetThreadpoolTimer?$AA@ 10080b24     LIBCMTD:winapisupp.obj
 0002:00005b38       ??_C@_0CA@FMNJENH@WaitForThreadpoolTimerCallbacks?$AA@ 10080b38     LIBCMTD:winapisupp.obj
 0002:00005b58       ??_C@_0BF@DCFCCNOC@CloseThreadpoolTimer?$AA@ 10080b58     LIBCMTD:winapisupp.obj
 0002:00005b70       ??_C@_0BF@FLABGKKM@CreateThreadpoolWait?$AA@ 10080b70     LIBCMTD:winapisupp.obj
 0002:00005b88       ??_C@_0BC@MGCOHNA@SetThreadpoolWait?$AA@ 10080b88     LIBCMTD:winapisupp.obj
 0002:00005b9c       ??_C@_0BE@OCIOMIMP@CloseThreadpoolWait?$AA@ 10080b9c     LIBCMTD:winapisupp.obj
 0002:00005bb0       ??_C@_0BJ@LKGHFHBO@FlushProcessWriteBuffers?$AA@ 10080bb0     LIBCMTD:winapisupp.obj
 0002:00005bcc       ??_C@_0BP@KALKKPMO@FreeLibraryWhenCallbackReturns?$AA@ 10080bcc     LIBCMTD:winapisupp.obj
 0002:00005bec       ??_C@_0BK@DFNBACLA@GetCurrentProcessorNumber?$AA@ 10080bec     LIBCMTD:winapisupp.obj
 0002:00005c08       ??_C@_0BP@KHGALBC@GetLogicalProcessorInformation?$AA@ 10080c08     LIBCMTD:winapisupp.obj
 0002:00005c28       ??_C@_0BE@FKKLLFLM@CreateSymbolicLinkW?$AA@ 10080c28     LIBCMTD:winapisupp.obj
 0002:00005c3c       ??_C@_0BJ@OHNKDLIJ@SetDefaultDllDirectories?$AA@ 10080c3c     LIBCMTD:winapisupp.obj
 0002:00005c58       ??_C@_0BE@LJANKFHF@EnumSystemLocalesEx?$AA@ 10080c58     LIBCMTD:winapisupp.obj
 0002:00005c6c       ??_C@_0BA@IHGNDAEB@CompareStringEx?$AA@ 10080c6c     LIBCMTD:winapisupp.obj
 0002:00005c7c       ??_C@_0BA@EPCJIIPD@GetDateFormatEx?$AA@ 10080c7c     LIBCMTD:winapisupp.obj
 0002:00005c8c       ??_C@_0BA@ONOKGCMP@GetLocaleInfoEx?$AA@ 10080c8c     LIBCMTD:winapisupp.obj
 0002:00005c9c       ??_C@_0BA@CIJJKCJJ@GetTimeFormatEx?$AA@ 10080c9c     LIBCMTD:winapisupp.obj
 0002:00005cac       ??_C@_0BJ@PBCCBIPI@GetUserDefaultLocaleName?$AA@ 10080cac     LIBCMTD:winapisupp.obj
 0002:00005cc8       ??_C@_0BC@CELBKLLA@IsValidLocaleName?$AA@ 10080cc8     LIBCMTD:winapisupp.obj
 0002:00005cdc       ??_C@_0O@KKBNKAPF@LCMapStringEx?$AA@ 10080cdc     LIBCMTD:winapisupp.obj
 0002:00005cec       ??_C@_0BE@JOGNEJCI@GetCurrentPackageId?$AA@ 10080cec     LIBCMTD:winapisupp.obj
 0002:00005d00       ??_C@_1BC@JLLICHIC@?$AAp?$AAn?$AAh?$AA?5?$AA?$DN?$AA?$DN?$AA?5?$AA0?$AA?$AA@ 10080d00     LIBCMTD:handler.obj
 0002:00005d18       ??_C@_1GG@CDHAPCGF@?$AAf?$AA?3?$AA?2?$AAd?$AAd?$AA?2?$AAv?$AAc?$AAt?$AAo?$AAo?$AAl?$AAs?$AA?2?$AAc?$AAr?$AAt?$AA_?$AAb?$AAl?$AAd?$AA?2?$AAs?$AAe?$AAl?$AAf?$AA_?$AAx?$AA8?$AA6?$AA?2?$AAc@ 10080d18     LIBCMTD:handler.obj
 0002:00005d94       ??_C@_04HJMOFLDF@Free?$AA@ 10080d94     LIBCMTD:dbgheap.obj
 0002:00005d9c       ??_C@_06EFAGIKOH@Normal?$AA@ 10080d9c     LIBCMTD:dbgheap.obj
 0002:00005da4       ??_C@_03OGPFLFLO@CRT?$AA@  10080da4     LIBCMTD:dbgheap.obj
 0002:00005da8       ??_C@_06KMEJCCGM@Ignore?$AA@ 10080da8     LIBCMTD:dbgheap.obj
 0002:00005db0       ??_C@_06PJIGMIJB@Client?$AA@ 10080db0     LIBCMTD:dbgheap.obj
 0002:00005db8       ??_C@_1CE@LJFEPPMP@?$AA_?$AAC?$AAr?$AAt?$AAC?$AAh?$AAe?$AAc?$AAk?$AAM?$AAe?$AAm?$AAo?$AAr?$AAy?$AA?$CI?$AA?$CJ?$AA?$AA@ 10080db8     LIBCMTD:dbgheap.obj
 0002:00005de0       ??_C@_1GC@DNJKKEAA@?$AAf?$AA?3?$AA?2?$AAd?$AAd?$AA?2?$AAv?$AAc?$AAt?$AAo?$AAo?$AAl?$AAs?$AA?2?$AAc?$AAr?$AAt?$AA_?$AAb?$AAl?$AAd?$AA?2?$AAs?$AAe?$AAl?$AAf?$AA_?$AAx?$AA8?$AA6?$AA?2?$AAc@ 10080de0     LIBCMTD:dbgheap.obj
 0002:00005e44       ??_C@_0DF@BBEGIFEK@Client?5hook?5allocation?5failure?5a@ 10080e44     LIBCMTD:dbgheap.obj
 0002:00005e7c       ??_C@_0CB@CCLOLAHO@Client?5hook?5allocation?5failure?4?6@ 10080e7c     LIBCMTD:dbgheap.obj
 0002:00005ea0       ??_C@_02DKCKIIND@?$CFs?$AA@ 10080ea0     LIBCMTD:dbgheap.obj
 0002:00005ea4       ??_C@_0CF@BICKFLAF@Invalid?5allocation?5size?3?5?$CFIu?5byt@ 10080ea4     LIBCMTD:dbgheap.obj
 0002:00005ecc       ??_C@_0DC@JEMAGEKG@Error?3?5memory?5allocation?3?5bad?5me@ 10080ecc     LIBCMTD:dbgheap.obj
 0002:00005f00       ??_C@_0DI@KKJPDPGM@Client?5hook?5re?9allocation?5failur@ 10080f00     LIBCMTD:dbgheap.obj
 0002:00005f38       ??_C@_0CE@DOFMDOL@Client?5hook?5re?9allocation?5failur@ 10080f38     LIBCMTD:dbgheap.obj
 0002:00005f60       ??_C@_0ED@GPCPBAGP@Invalid?5allocation?5size?3?5?$CFIu?5byt@ 10080f60     LIBCMTD:dbgheap.obj
 0002:00005fa8       ??_C@_0FA@EFEIGJKG@Error?3?5memory?5allocation?3?5bad?5me@ 10080fa8     LIBCMTD:dbgheap.obj
 0002:00005ff8       ??_C@_0EM@LGFLMAGJ@The?5Block?5at?50x?$CFp?5was?5allocated?5@ 10080ff8     LIBCMTD:dbgheap.obj
 0002:00006048       ??_C@_1EE@GFOPCECE@?$AA_?$AAC?$AAr?$AAt?$AAI?$AAs?$AAV?$AAa?$AAl?$AAi?$AAd?$AAH?$AAe?$AAa?$AAp?$AAP?$AAo?$AAi?$AAn?$AAt?$AAe?$AAr?$AA?$CI?$AAp?$AAU?$AAs?$AAe?$AAr?$AAD?$AAa?$AAt?$AAa@ 10081048     LIBCMTD:dbgheap.obj
 0002:00006090       ??_C@_1IK@DCPKDGNH@?$AAp?$AAO?$AAl?$AAd?$AAB?$AAl?$AAo?$AAc?$AAk?$AA?9?$AA?$DO?$AAn?$AAL?$AAi?$AAn?$AAe?$AA?5?$AA?$DN?$AA?$DN?$AA?5?$AAI?$AAG?$AAN?$AAO?$AAR?$AAE?$AA_?$AAL?$AAI?$AAN?$AAE?$AA?5@ 10081090     LIBCMTD:dbgheap.obj
 0002:0000611c       ??_C@_0DA@HFBKENN@Error?3?5possible?5heap?5corruption?5@ 1008111c     LIBCMTD:dbgheap.obj
 0002:00006150       ??_C@_1GE@PCKLOLAO@?$AAf?$AAR?$AAe?$AAa?$AAl?$AAl?$AAo?$AAc?$AA?5?$AA?$HM?$AA?$HM?$AA?5?$AA?$CI?$AA?$CB?$AAf?$AAR?$AAe?$AAa?$AAl?$AAl?$AAo?$AAc?$AA?5?$AA?$CG?$AA?$CG?$AA?5?$AAp?$AAN?$AAe?$AAw?$AAB?$AAl@ 10081150     LIBCMTD:dbgheap.obj
 0002:000061b4       ??_C@_1DC@GEFKNOOL@?$AA_?$AAp?$AAL?$AAa?$AAs?$AAt?$AAB?$AAl?$AAo?$AAc?$AAk?$AA?5?$AA?$DN?$AA?$DN?$AA?5?$AAp?$AAO?$AAl?$AAd?$AAB?$AAl?$AAo?$AAc?$AAk?$AA?$AA@ 100811b4     LIBCMTD:dbgheap.obj
 0002:000061e8       ??_C@_1DE@KOOKLFBB@?$AA_?$AAp?$AAF?$AAi?$AAr?$AAs?$AAt?$AAB?$AAl?$AAo?$AAc?$AAk?$AA?5?$AA?$DN?$AA?$DN?$AA?5?$AAp?$AAO?$AAl?$AAd?$AAB?$AAl?$AAo?$AAc?$AAk?$AA?$AA@ 100811e8     LIBCMTD:dbgheap.obj
 0002:0000621c       ??_C@_1CE@CJACEFBA@?$AAp?$AAU?$AAs?$AAe?$AAr?$AAD?$AAa?$AAt?$AAa?$AA?5?$AA?$CB?$AA?$DN?$AA?5?$AAN?$AAU?$AAL?$AAL?$AA?$AA@ 1008121c     LIBCMTD:dbgheap.obj
 0002:00006240       ??_C@_1BI@HAPNGHDP@?$AA_?$AAe?$AAx?$AAp?$AAa?$AAn?$AAd?$AA_?$AAd?$AAb?$AAg?$AA?$AA@ 10081240     LIBCMTD:dbgheap.obj
 0002:00006258       ??_C@_0EJ@HEIBCIMJ@The?5Block?5at?50x?$CFp?5was?5allocated?5@ 10081258     LIBCMTD:dbgheap.obj
 0002:000062a4       ??_C@_0BL@KEIPLFAC@Client?5hook?5free?5failure?4?6?$AA@ 100812a4     LIBCMTD:dbgheap.obj
 0002:000062c0       ??_C@_0KI@JGFOHMEB@HEAP?5CORRUPTION?5DETECTED?3?5before@ 100812c0     LIBCMTD:dbgheap.obj
 0002:00006368       ??_C@_0IK@PJCGLBOB@HEAP?5CORRUPTION?5DETECTED?3?5before@ 10081368     LIBCMTD:dbgheap.obj
 0002:000063f8       ??_C@_0KE@MBMNHHHN@HEAP?5CORRUPTION?5DETECTED?3?5after?5@ 100813f8     LIBCMTD:dbgheap.obj
 0002:000064a0       ??_C@_0IG@LEMBDCJK@HEAP?5CORRUPTION?5DETECTED?3?5after?5@ 100814a0     LIBCMTD:dbgheap.obj
 0002:00006528       ??_C@_1HK@HPCBMDFG@?$AAp?$AAH?$AAe?$AAa?$AAd?$AA?9?$AA?$DO?$AAn?$AAL?$AAi?$AAn?$AAe?$AA?5?$AA?$DN?$AA?$DN?$AA?5?$AAI?$AAG?$AAN?$AAO?$AAR?$AAE?$AA_?$AAL?$AAI?$AAN?$AAE?$AA?5?$AA?$CG?$AA?$CG?$AA?5?$AAp@ 10081528     LIBCMTD:dbgheap.obj
 0002:000065a4       ??_C@_1DM@ODCJIDCP@?$AAp?$AAH?$AAe?$AAa?$AAd?$AA?9?$AA?$DO?$AAn?$AAB?$AAl?$AAo?$AAc?$AAk?$AAU?$AAs?$AAe?$AA?5?$AA?$DN?$AA?$DN?$AA?5?$AAn?$AAB?$AAl?$AAo?$AAc?$AAk?$AAU?$AAs?$AAe?$AA?$AA@ 100815a4     LIBCMTD:dbgheap.obj
 0002:000065e0       ??_C@_1CK@DMAGEMBG@?$AA_?$AAp?$AAL?$AAa?$AAs?$AAt?$AAB?$AAl?$AAo?$AAc?$AAk?$AA?5?$AA?$DN?$AA?$DN?$AA?5?$AAp?$AAH?$AAe?$AAa?$AAd?$AA?$AA@ 100815e0     LIBCMTD:dbgheap.obj
 0002:0000660c       ??_C@_1CM@MMAADDMD@?$AA_?$AAp?$AAF?$AAi?$AAr?$AAs?$AAt?$AAB?$AAl?$AAo?$AAc?$AAk?$AA?5?$AA?$DN?$AA?$DN?$AA?5?$AAp?$AAH?$AAe?$AAa?$AAd?$AA?$AA@ 1008160c     LIBCMTD:dbgheap.obj
 0002:00006638       ??_C@_1BG@MBKOGDLD@?$AA_?$AAm?$AAs?$AAi?$AAz?$AAe?$AA_?$AAd?$AAb?$AAg?$AA?$AA@ 10081638     LIBCMTD:dbgheap.obj
 0002:00006650       ??_C@_0CE@MKKHMBMK@_heapchk?5fails?5with?5_HEAPBADBEGI@ 10081650     LIBCMTD:dbgheap.obj
 0002:00006674       ??_C@_0CD@CPKEAPBD@_heapchk?5fails?5with?5_HEAPBADNODE@ 10081674     LIBCMTD:dbgheap.obj
 0002:00006698       ??_C@_0CC@MJGLGBDG@_heapchk?5fails?5with?5_HEAPBADEND?4@ 10081698     LIBCMTD:dbgheap.obj
 0002:000066bc       ??_C@_0CC@MFFCHFHO@_heapchk?5fails?5with?5_HEAPBADPTR?4@ 100816bc     LIBCMTD:dbgheap.obj
 0002:000066e0       ??_C@_0CL@HNNNMKMJ@_heapchk?5fails?5with?5unknown?5retu@ 100816e0     LIBCMTD:dbgheap.obj
 0002:0000670c       ??_C@_07OHKEFPKJ@DAMAGED?$AA@ 1008170c     LIBCMTD:dbgheap.obj
 0002:00006718       ??_C@_0KA@IHNJJKPL@HEAP?5CORRUPTION?5DETECTED?3?5on?5top@ 10081718     LIBCMTD:dbgheap.obj
 0002:000067b8       ??_C@_0IC@BBJIOOJH@HEAP?5CORRUPTION?5DETECTED?3?5on?5top@ 100817b8     LIBCMTD:dbgheap.obj
 0002:00006840       ??_C@_0EG@DGJMPDBH@?$CFhs?5located?5at?50x?$CFp?5is?5?$CFIu?5bytes@ 10081840     LIBCMTD:dbgheap.obj
 0002:00006888       ??_C@_0CI@JMLBEDHJ@?$CFhs?5located?5at?50x?$CFp?5is?5?$CFIu?5bytes@ 10081888     LIBCMTD:dbgheap.obj
 0002:000068b0       ??_C@_1BHO@NNANJNF@?$AA?$CI?$AAf?$AAN?$AAe?$AAw?$AAB?$AAi?$AAt?$AAs?$AA?$DN?$AA?$DN?$AA_?$AAC?$AAR?$AAT?$AAD?$AAB?$AAG?$AA_?$AAR?$AAE?$AAP?$AAO?$AAR?$AAT?$AA_?$AAF?$AAL?$AAA?$AAG?$AA?$CJ?$AA?5@ 100818b0     LIBCMTD:dbgheap.obj
 0002:00006a30       ??_C@_1BO@GJFDNMNF@?$AA_?$AAC?$AAr?$AAt?$AAS?$AAe?$AAt?$AAD?$AAb?$AAg?$AAF?$AAl?$AAa?$AAg?$AA?$AA@ 10081a30     LIBCMTD:dbgheap.obj
 0002:00006a50       ??_C@_1BI@CJGCEEDL@?$AAp?$AAf?$AAn?$AA?5?$AA?$CB?$AA?$DN?$AA?5?$AAN?$AAU?$AAL?$AAL?$AA?$AA@ 10081a50     LIBCMTD:dbgheap.obj
 0002:00006a68       ??_C@_1DE@GJCKCKEC@?$AA_?$AAC?$AAr?$AAt?$AAD?$AAo?$AAF?$AAo?$AAr?$AAA?$AAl?$AAl?$AAC?$AAl?$AAi?$AAe?$AAn?$AAt?$AAO?$AAb?$AAj?$AAe?$AAc?$AAt?$AAs?$AA?$AA@ 10081a68     LIBCMTD:dbgheap.obj
 0002:00006a9c       ??_C@_1BM@MIMANDHC@?$AAs?$AAt?$AAa?$AAt?$AAe?$AA?5?$AA?$CB?$AA?$DN?$AA?5?$AAN?$AAU?$AAL?$AAL?$AA?$AA@ 10081a9c     LIBCMTD:dbgheap.obj
 0002:00006ab8       ??_C@_1CE@NJJKELF@?$AA_?$AAC?$AAr?$AAt?$AAM?$AAe?$AAm?$AAC?$AAh?$AAe?$AAc?$AAk?$AAp?$AAo?$AAi?$AAn?$AAt?$AA?$AA@ 10081ab8     LIBCMTD:dbgheap.obj
 0002:00006adc       ??_C@_0DP@LEFMFBOD@Bad?5memory?5block?5found?5at?50x?$CFp?4?6@ 10081adc     LIBCMTD:dbgheap.obj
 0002:00006b1c       ??_C@_0CB@EAAIGELO@Bad?5memory?5block?5found?5at?50x?$CFp?4?6@ 10081b1c     LIBCMTD:dbgheap.obj
 0002:00006b40       ??_C@_1CE@PDIENACM@?$AA_?$AAC?$AAr?$AAt?$AAM?$AAe?$AAm?$AAD?$AAi?$AAf?$AAf?$AAe?$AAr?$AAe?$AAn?$AAc?$AAe?$AA?$AA@ 10081b40     LIBCMTD:dbgheap.obj
 0002:00006b64       ??_C@_1CC@DHPFEMMN@?$AAo?$AAl?$AAd?$AAS?$AAt?$AAa?$AAt?$AAe?$AA?5?$AA?$CB?$AA?$DN?$AA?5?$AAN?$AAU?$AAL?$AAL?$AA?$AA@ 10081b64     LIBCMTD:dbgheap.obj
 0002:00006b88       ??_C@_1CC@DFPEDFBP@?$AAn?$AAe?$AAw?$AAS?$AAt?$AAa?$AAt?$AAe?$AA?5?$AA?$CB?$AA?$DN?$AA?5?$AAN?$AAU?$AAL?$AAL?$AA?$AA@ 10081b88     LIBCMTD:dbgheap.obj
 0002:00006bac       ??_C@_05MKKEDADM@?$CF?42X?5?$AA@ 10081bac     LIBCMTD:dbgheap.obj
 0002:00006bb4       ??_C@_1CG@LPFIACGM@?$AA_?$AAp?$AAr?$AAi?$AAn?$AAt?$AAM?$AAe?$AAm?$AAB?$AAl?$AAo?$AAc?$AAk?$AAD?$AAa?$AAt?$AAa?$AA?$AA@ 10081bb4     LIBCMTD:dbgheap.obj
 0002:00006bdc       ??_C@_0BA@HJBKCELP@?5Data?3?5?$DM?$CFs?$DO?5?$CFs?6?$AA@ 10081bdc     LIBCMTD:dbgheap.obj
 0002:00006bec       ??_C@_0BE@KCIPKCIA@Dumping?5objects?5?9?$DO?6?$AA@ 10081bec     LIBCMTD:dbgheap.obj
 0002:00006c00       ??_C@_0BE@OIEFNFL@?$CDFile?5Error?$CD?$CI?$CFd?$CJ?5?3?5?$AA@ 10081c00     LIBCMTD:dbgheap.obj
 0002:00006c14       ??_C@_0L@JMEFFCCJ@?$CFhs?$CI?$CFd?$CJ?5?3?5?$AA@ 10081c14     LIBCMTD:dbgheap.obj
 0002:00006c20       ??_C@_06PKLGBFGM@?$HL?$CFld?$HN?5?$AA@ 10081c20     LIBCMTD:dbgheap.obj
 0002:00006c28       ??_C@_0DD@GHNAAKBB@client?5block?5at?50x?$CFp?0?5subtype?5?$CFx@ 10081c28     LIBCMTD:dbgheap.obj
 0002:00006c5c       ??_C@_0CH@FAGDDGPN@normal?5block?5at?50x?$CFp?0?5?$CFIu?5bytes?5@ 10081c5c     LIBCMTD:dbgheap.obj
 0002:00006c84       ??_C@_0DA@MDLBNIBM@crt?5block?5at?50x?$CFp?0?5subtype?5?$CFx?0?5?$CF@ 10081c84     LIBCMTD:dbgheap.obj
 0002:00006cb4       ??_C@_0BH@GFGKJDCO@Object?5dump?5complete?4?6?$AA@ 10081cb4     LIBCMTD:dbgheap.obj
 0002:00006ccc       ??_C@_0BI@JBFPOEJA@Detected?5memory?5leaks?$CB?6?$AA@ 10081ccc     LIBCMTD:dbgheap.obj
 0002:00006ce4       ??_C@_1CM@MPNIBKGK@?$AA_?$AAC?$AAr?$AAt?$AAM?$AAe?$AAm?$AAD?$AAu?$AAm?$AAp?$AAS?$AAt?$AAa?$AAt?$AAi?$AAs?$AAt?$AAi?$AAc?$AAs?$AA?$AA@ 10081ce4     LIBCMTD:dbgheap.obj
 0002:00006d10       ??_C@_0BO@DACNIABB@?$CFId?5bytes?5in?5?$CFId?5?$CFhs?5Blocks?4?6?$AA@ 10081d10     LIBCMTD:dbgheap.obj
 0002:00006d30       ??_C@_0CB@BLHDAFNE@Largest?5number?5used?3?5?$CFId?5bytes?4?6@ 10081d30     LIBCMTD:dbgheap.obj
 0002:00006d54       ??_C@_0BP@DEDHGGGI@Total?5allocations?3?5?$CFId?5bytes?4?6?$AA@ 10081d54     LIBCMTD:dbgheap.obj
 0002:00006d74       ??_C@_1CE@NPMGPNNP@?$AAI?$AAS?$AA_?$AA2?$AA_?$AAP?$AAO?$AAW?$AA_?$AAN?$AA?$CI?$AAa?$AAl?$AAi?$AAg?$AAn?$AA?$CJ?$AA?$AA@ 10081d74     LIBCMTD:dbgheap.obj
 0002:00006d98       ??_C@_1DG@DONCJBBJ@?$AA_?$AAa?$AAl?$AAi?$AAg?$AAn?$AAe?$AAd?$AA_?$AAo?$AAf?$AAf?$AAs?$AAe?$AAt?$AA_?$AAm?$AAa?$AAl?$AAl?$AAo?$AAc?$AA_?$AAd?$AAb?$AAg?$AA?$AA@ 10081d98     LIBCMTD:dbgheap.obj
 0002:00006dd0       ??_C@_1DK@LFLKFPDA@?$AAo?$AAf?$AAf?$AAs?$AAe?$AAt?$AA?5?$AA?$DN?$AA?$DN?$AA?5?$AA0?$AA?5?$AA?$HM?$AA?$HM?$AA?5?$AAo?$AAf?$AAf?$AAs?$AAe?$AAt?$AA?5?$AA?$DM?$AA?5?$AAs?$AAi?$AAz?$AAe?$AA?$AA@ 10081dd0     LIBCMTD:dbgheap.obj
 0002:00006e10       ??_C@_0EI@NDNJMAJK@The?5block?5at?50x?$CFp?5was?5not?5alloca@ 10081e10     LIBCMTD:dbgheap.obj
 0002:00006e58       ??_C@_0DL@PGHMMKNE@Damage?5before?50x?$CFp?5which?5was?5all@ 10081e58     LIBCMTD:dbgheap.obj
 0002:00006e94       ??_C@_1DI@NINIKFFK@?$AA_?$AAa?$AAl?$AAi?$AAg?$AAn?$AAe?$AAd?$AA_?$AAo?$AAf?$AAf?$AAs?$AAe?$AAt?$AA_?$AAr?$AAe?$AAa?$AAl?$AAl?$AAo?$AAc?$AA_?$AAd?$AAb?$AAg?$AA?$AA@ 10081e94     LIBCMTD:dbgheap.obj
 0002:00006ed0       ??_C@_0EF@PGELACII@The?5block?5at?50x?$CFp?5was?5not?5alloca@ 10081ed0     LIBCMTD:dbgheap.obj
 0002:00006f18       ??_C@_1CC@MOBIKHH@?$AAm?$AAe?$AAm?$AAb?$AAl?$AAo?$AAc?$AAk?$AA?5?$AA?$CB?$AA?$DN?$AA?5?$AAN?$AAU?$AAL?$AAL?$AA?$AA@ 10081f18     LIBCMTD:dbgheap.obj
 0002:00006f3c       ??_C@_1CG@CEGMHIMN@?$AA_?$AAa?$AAl?$AAi?$AAg?$AAn?$AAe?$AAd?$AA_?$AAm?$AAs?$AAi?$AAz?$AAe?$AA_?$AAd?$AAb?$AAg?$AA?$AA@ 10081f3c     LIBCMTD:dbgheap.obj
 0002:00007820       __indefinite               10082820     LIBCMTD:87disp.obj
 0002:0000782a       __piby2                    1008282a     LIBCMTD:87disp.obj
 0002:00007858       __DEFAULT_CW_in_mem        10082858     LIBCMTD:common.obj
 0002:0000785a       __pi_by_2_to_61            1008285a     LIBCMTD:common.obj
 0002:000081e0       ??_C@_0NN@NGPKDKPD@The?5value?5of?5ESP?5was?5not?5properl@ 100831e0     LIBCMTD:error.obj
 0002:000082c0       ??_C@_0BBN@GPMLNJCF@A?5cast?5to?5a?5smaller?5data?5type?5ha@ 100832c0     LIBCMTD:error.obj
 0002:000083e0       ??_C@_0BN@FFOINMNJ@Stack?5memory?5was?5corrupted?6?$AN?$AA@ 100833e0     LIBCMTD:error.obj
 0002:00008400       ??_C@_0DG@HKJMLLLP@A?5local?5variable?5was?5used?5before@ 10083400     LIBCMTD:error.obj
 0002:00008438       ??_C@_0CM@NGINOKPC@Stack?5memory?5around?5_alloca?5was?5@ 10083438     LIBCMTD:error.obj
 0002:00008464       ??_C@_0BO@GNIAFIKK@Unknown?5Runtime?5Check?5Error?6?$AN?$AA@ 10083464     LIBCMTD:error.obj
 0002:00008488       ??_C@_1GM@OLMCBDMB@?$AAR?$AAu?$AAn?$AAt?$AAi?$AAm?$AAe?$AA?5?$AAC?$AAh?$AAe?$AAc?$AAk?$AA?5?$AAE?$AAr?$AAr?$AAo?$AAr?$AA?4?$AA?6?$AA?$AN?$AA?5?$AAU?$AAn?$AAa?$AAb?$AAl?$AAe?$AA?5?$AAt?$AAo@ 10083488     LIBCMTD:error.obj
 0002:000084f8       ??_C@_1EA@NFKNIFJP@?$AAR?$AAu?$AAn?$AA?9?$AAT?$AAi?$AAm?$AAe?$AA?5?$AAC?$AAh?$AAe?$AAc?$AAk?$AA?5?$AAF?$AAa?$AAi?$AAl?$AAu?$AAr?$AAe?$AA?5?$AA?$CD?$AA?$CF?$AAd?$AA?5?$AA?9?$AA?5?$AA?$CF?$AAs?$AA?$AA@ 100834f8     LIBCMTD:error.obj
 0002:00008538       ??_C@_0BB@PFFGGCJP@Unknown?5Filename?$AA@ 10083538     LIBCMTD:error.obj
 0002:0000854c       ??_C@_0BE@GNBOBNCK@Unknown?5Module?5Name?$AA@ 1008354c     LIBCMTD:error.obj
 0002:00008560       ??_C@_0CA@IODNCDPG@Run?9Time?5Check?5Failure?5?$CD?$CFd?5?9?5?$CFs?$AA@ 10083560     LIBCMTD:error.obj
 0002:00008580       ??_C@_0CG@IAFNJNEE@Stack?5corrupted?5near?5unknown?5var@ 10083580     LIBCMTD:error.obj
 0002:000085a8       ??_C@_1BG@OILDLIOJ@?$AAu?$AAs?$AAe?$AAr?$AA3?$AA2?$AA?4?$AAd?$AAl?$AAl?$AA?$AA@ 100835a8     LIBCMTD:error.obj
 0002:000085c0       ??_C@_09FOPFMPEJ@wsprintfA?$AA@ 100835c0     LIBCMTD:error.obj
 0002:000085d0       ??_C@_0EJ@LJKNEOLN@Stack?5area?5around?5_alloca?5memory@ 100835d0     LIBCMTD:error.obj
 0002:0000861c       ??_C@_08OMAHNMHJ@?6Data?3?5?$DM?$AA@ 1008361c     LIBCMTD:error.obj
 0002:00008628       ??_C@_0CK@DKGBICFE@?6Allocation?5number?5within?5this?5f@ 10083628     LIBCMTD:error.obj
 0002:00008654       ??_C@_07DFDJCKFN@?6Size?3?5?$AA@ 10083654     LIBCMTD:error.obj
 0002:0000865c       ??_C@_0N@MHFFIMFG@?6Address?3?50x?$AA@ 1008365c     LIBCMTD:error.obj
 0002:00008670       ??_C@_0EI@CLEPFNGI@Stack?5area?5around?5_alloca?5memory@ 10083670     LIBCMTD:error.obj
 0002:000086b8       ??_C@_0BC@KIBAILCI@?$CFs?$CFs?$CFp?$CFs?$CFld?$CFs?$CFd?$CFs?$AA@ 100836b8     LIBCMTD:error.obj
 0002:000086cc       ??_C@_01EEMJAFIK@?6?$AA@   100836cc     LIBCMTD:error.obj
 0002:000086d0       ??_C@_02LLMPMKNF@?$DO?5?$AA@ 100836d0     LIBCMTD:error.obj
 0002:000086d4       ??_C@_08KJEDNCKC@?$CFs?$CFs?$CFs?$CFs?$AA@ 100836d4     LIBCMTD:error.obj
 0002:000086e0       ??_C@_0DE@OHJBPMBP@A?5variable?5is?5being?5used?5without@ 100836e0     LIBCMTD:error.obj
 0002:00008730       ??_C@_0BJ@HEGAHDFO@Stack?5pointer?5corruption?$AA@ 10083730     LIBCMTD:userapi.obj
 0002:0000874c       ??_C@_0CK@FEGOIOPB@Cast?5to?5smaller?5type?5causing?5los@ 1008374c     LIBCMTD:userapi.obj
 0002:00008778       ??_C@_0BI@CIGMDCBH@Stack?5memory?5corruption?$AA@ 10083778     LIBCMTD:userapi.obj
 0002:00008790       ??_C@_0CK@CNLNOEPB@Local?5variable?5used?5before?5initi@ 10083790     LIBCMTD:userapi.obj
 0002:000087bc       ??_C@_0BP@OGBCLIBO@Stack?5around?5_alloca?5corrupted?$AA@ 100837bc     LIBCMTD:userapi.obj
 0002:000087e0       ??_C@_0NM@DNEDKLDF@The?5value?5of?5ESP?5was?5not?5properl@ 100837e0     LIBCMTD:chkesp.obj
 0002:000088bc       ??_C@_00CNPNBAHC@?$AA@     100838bc     LIBCMTD:chkesp.obj
 0002:000088c0       ??_C@_0DP@CBBAPGOP@f?3?2dd?2vctools?2crt_bld?2self_x86?2c@ 100838c0     LIBCMTD:chkesp.obj
 0002:00008900       ??_C@_0DC@LMJHGCKC@f?3?2dd?2vctools?2crt_bld?2self_x86?2c@ 10083900     LIBCMTD:tidtable.obj
 0002:00008934       __pDestructExceptionObject 10083934     LIBCMTD:frame.obj
 0002:0000893c       ??_7bad_exception@std@@6B@ 1008393c     LIBCMTD:frame.obj
 0002:00008944       ??_C@_0O@DPKOEFFH@bad?5exception?$AA@ 10083944     LIBCMTD:frame.obj
 0002:00008954       ??_C@_1BI@ICGGMGLK@?$AAb?$AAu?$AAf?$AA?5?$AA?$CB?$AA?$DN?$AA?5?$AAN?$AAU?$AAL?$AAL?$AA?$AA@ 10083954     LIBCMTD:cvt.obj
 0002:00008970       ??_C@_1GO@NCCGBNKI@?$AAf?$AA?3?$AA?2?$AAd?$AAd?$AA?2?$AAv?$AAc?$AAt?$AAo?$AAo?$AAl?$AAs?$AA?2?$AAc?$AAr?$AAt?$AA_?$AAb?$AAl?$AAd?$AA?2?$AAs?$AAe?$AAl?$AAf?$AA_?$AAx?$AA8?$AA6?$AA?2?$AAc@ 10083970     LIBCMTD:cvt.obj
 0002:000089e0       ??_C@_1BE@OLBNEILL@?$AA_?$AAc?$AAf?$AAt?$AAo?$AAe?$AA2?$AA_?$AAl?$AA?$AA@ 100839e0     LIBCMTD:cvt.obj
 0002:000089f4       ??_C@_1CA@CBMNPEO@?$AAs?$AAi?$AAz?$AAe?$AAI?$AAn?$AAB?$AAy?$AAt?$AAe?$AAs?$AA?5?$AA?$DO?$AA?5?$AA0?$AA?$AA@ 100839f4     LIBCMTD:cvt.obj
 0002:00008a18       ??_C@_1HE@NACBNDPP@?$AAs?$AAi?$AAz?$AAe?$AAI?$AAn?$AAB?$AAy?$AAt?$AAe?$AAs?$AA?5?$AA?$DO?$AA?5?$AA?$CI?$AAs?$AAi?$AAz?$AAe?$AA_?$AAt?$AA?$CJ?$AA?$CI?$AA3?$AA?5?$AA?$CL?$AA?5?$AA?$CI?$AAn?$AAd?$AAe?$AAc@ 10083a18     LIBCMTD:cvt.obj
 0002:00008a90       ??_C@_1LE@EOIFGNCJ@?$AAs?$AAt?$AAr?$AAc?$AAp?$AAy?$AA_?$AAs?$AA?$CI?$AAp?$AA?0?$AA?5?$AA?$CI?$AAs?$AAi?$AAz?$AAe?$AAI?$AAn?$AAB?$AAy?$AAt?$AAe?$AAs?$AA?5?$AA?$DN?$AA?$DN?$AA?5?$AA?$CI?$AAs?$AAi?$AAz@ 10083a90     LIBCMTD:cvt.obj
 0002:00008b44       ??_C@_05KLBDPFGC@e?$CL000?$AA@ 10083b44     LIBCMTD:cvt.obj
 0002:00008b4c       ??_C@_1BC@INKAPMHI@?$AA_?$AAc?$AAf?$AAt?$AAo?$AAe?$AA_?$AAl?$AA?$AA@ 10083b4c     LIBCMTD:cvt.obj
 0002:00008b60       ??_C@_1BC@JOKPCIC@?$AA_?$AAc?$AAf?$AAt?$AAo?$AAa?$AA_?$AAl?$AA?$AA@ 10083b60     LIBCMTD:cvt.obj
 0002:00008b78       ??_C@_1FC@IKIMAMJB@?$AAs?$AAi?$AAz?$AAe?$AAI?$AAn?$AAB?$AAy?$AAt?$AAe?$AAs?$AA?5?$AA?$DO?$AA?5?$AA?$CI?$AAs?$AAi?$AAz?$AAe?$AA_?$AAt?$AA?$CJ?$AA?$CI?$AA1?$AA?5?$AA?$CL?$AA?5?$AA4?$AA?5?$AA?$CL?$AA?5?$AAn@ 10083b78     LIBCMTD:cvt.obj
 0002:00008bcc       ??_C@_1BE@CKPDLI@?$AA_?$AAc?$AAf?$AAt?$AAo?$AAf?$AA2?$AA_?$AAl?$AA?$AA@ 10083bcc     LIBCMTD:cvt.obj
 0002:00008be0       ??_C@_1BC@DCPPLJL@?$AA_?$AAc?$AAf?$AAt?$AAo?$AAf?$AA_?$AAl?$AA?$AA@ 10083be0     LIBCMTD:cvt.obj
 0002:00008bf4       ??_C@_1BC@MPIFPLAF@?$AA_?$AAc?$AAf?$AAt?$AAo?$AAg?$AA_?$AAl?$AA?$AA@ 10083bf4     LIBCMTD:cvt.obj
 0002:00008c08       ??_C@_1GG@PHGJJHBC@?$AAf?$AA?3?$AA?2?$AAd?$AAd?$AA?2?$AAv?$AAc?$AAt?$AAo?$AAo?$AAl?$AAs?$AA?2?$AAc?$AAr?$AAt?$AA_?$AAb?$AAl?$AAd?$AA?2?$AAs?$AAe?$AAl?$AAf?$AA_?$AAx?$AA8?$AA6?$AA?2?$AAc@ 10083c08     LIBCMTD:fp8.obj
 0002:00008c70       ??_C@_1CK@JMKHCBEI@?$AA_?$AAs?$AAe?$AAt?$AAd?$AAe?$AAf?$AAa?$AAu?$AAl?$AAt?$AAp?$AAr?$AAe?$AAc?$AAi?$AAs?$AAi?$AAo?$AAn?$AA?$AA@ 10083c70     LIBCMTD:fp8.obj
 0002:00008ca0       ??_C@_1GE@KOCFNGPB@?$AA_?$AAc?$AAo?$AAn?$AAt?$AAr?$AAo?$AAl?$AAf?$AAp?$AA_?$AAs?$AA?$CI?$AA?$CI?$AA?$CI?$AAv?$AAo?$AAi?$AAd?$AA?5?$AA?$CK?$AA?$CJ?$AA0?$AA?$CJ?$AA?0?$AA?5?$AA0?$AAx?$AA0?$AA0?$AA0?$AA1@ 10083ca0     LIBCMTD:fp8.obj
 0002:00008d08       ??_C@_1GA@PBJHELNC@?$AAf?$AA?3?$AA?2?$AAd?$AAd?$AA?2?$AAv?$AAc?$AAt?$AAo?$AAo?$AAl?$AAs?$AA?2?$AAc?$AAr?$AAt?$AA_?$AAb?$AAl?$AAd?$AA?2?$AAs?$AAe?$AAl?$AAf?$AA_?$AAx?$AA8?$AA6?$AA?2?$AAc@ 10083d08     LIBCMTD:fileno.obj
 0002:00008d68       ??_C@_1BA@JGHIEKKM@?$AA_?$AAf?$AAi?$AAl?$AAe?$AAn?$AAo?$AA?$AA@ 10083d68     LIBCMTD:fileno.obj
 0002:00008d78       ??_C@_1FO@LPCLHKGE@?$AA?$CI?$AAf?$AAh?$AA?5?$AA?$DO?$AA?$DN?$AA?5?$AA0?$AA?5?$AA?$CG?$AA?$CG?$AA?5?$AA?$CI?$AAu?$AAn?$AAs?$AAi?$AAg?$AAn?$AAe?$AAd?$AA?$CJ?$AAf?$AAh?$AA?5?$AA?$DM?$AA?5?$AA?$CI?$AAu?$AAn?$AAs?$AAi@ 10083d78     LIBCMTD:close.obj
 0002:00008dd8       ??_C@_1FO@NNGNFGFH@?$AAf?$AA?3?$AA?2?$AAd?$AAd?$AA?2?$AAv?$AAc?$AAt?$AAo?$AAo?$AAl?$AAs?$AA?2?$AAc?$AAr?$AAt?$AA_?$AAb?$AAl?$AAd?$AA?2?$AAs?$AAe?$AAl?$AAf?$AA_?$AAx?$AA8?$AA6?$AA?2?$AAc@ 10083dd8     LIBCMTD:close.obj
 0002:00008e38       ??_C@_1O@EDEJGJBM@?$AA_?$AAc?$AAl?$AAo?$AAs?$AAe?$AA?$AA@ 10083e38     LIBCMTD:close.obj
 0002:00008e48       ??_C@_1CM@OKGMMMDH@?$AA?$CI?$AA_?$AAo?$AAs?$AAf?$AAi?$AAl?$AAe?$AA?$CI?$AAf?$AAh?$AA?$CJ?$AA?5?$AA?$CG?$AA?5?$AAF?$AAO?$AAP?$AAE?$AAN?$AA?$CJ?$AA?$AA@ 10083e48     LIBCMTD:close.obj
 0002:00008e78       ??_C@_1JE@ECKHFIFP@?$AA?$CI?$AA?$CC?$AAI?$AAn?$AAv?$AAa?$AAl?$AAi?$AAd?$AA?5?$AAf?$AAi?$AAl?$AAe?$AA?5?$AAd?$AAe?$AAs?$AAc?$AAr?$AAi?$AAp?$AAt?$AAo?$AAr?$AA?4?$AA?5?$AAF?$AAi?$AAl?$AAe?$AA?5@ 10083e78     LIBCMTD:close.obj
 0002:00008f10       ??_C@_1GA@MFGIMPNL@?$AAf?$AA?3?$AA?2?$AAd?$AAd?$AA?2?$AAv?$AAc?$AAt?$AAo?$AAo?$AAl?$AAs?$AA?2?$AAc?$AAr?$AAt?$AA_?$AAb?$AAl?$AAd?$AA?2?$AAs?$AAe?$AAl?$AAf?$AA_?$AAx?$AA8?$AA6?$AA?2?$AAc@ 10083f10     LIBCMTD:dosmap.obj
 0002:00008f70       ??_C@_1BG@KCMPBBDK@?$AA_?$AAg?$AAe?$AAt?$AA_?$AAe?$AAr?$AAr?$AAn?$AAo?$AA?$AA@ 10083f70     LIBCMTD:dosmap.obj
 0002:00008f88       ??_C@_1BM@INIPHHDD@?$AA_?$AAg?$AAe?$AAt?$AA_?$AAd?$AAo?$AAs?$AAe?$AAr?$AAr?$AAn?$AAo?$AA?$AA@ 10083f88     LIBCMTD:dosmap.obj
 0002:00008fa4       ??_C@_1BO@KIJENGPH@?$AAs?$AAt?$AAr?$AAe?$AAa?$AAm?$AA?5?$AA?$CB?$AA?$DN?$AA?5?$AAN?$AAU?$AAL?$AAL?$AA?$AA@ 10083fa4     LIBCMTD:_freebuf.obj
 0002:00008fc8       ??_C@_1GE@MIMBMOF@?$AAf?$AA?3?$AA?2?$AAd?$AAd?$AA?2?$AAv?$AAc?$AAt?$AAo?$AAo?$AAl?$AAs?$AA?2?$AAc?$AAr?$AAt?$AA_?$AAb?$AAl?$AAd?$AA?2?$AAs?$AAe?$AAl?$AAf?$AA_?$AAx?$AA8?$AA6?$AA?2?$AAc@ 10083fc8     LIBCMTD:_freebuf.obj
 0002:0000902c       ??_C@_0DA@NLPACBPK@f?3?2dd?2vctools?2crt_bld?2self_x86?2c@ 1008402c     LIBCMTD:stream.obj
 0002:0000907c       ??_C@_1CC@JBMDNKJP@?$AAf?$AAi?$AAl?$AAe?$AAn?$AAa?$AAm?$AAe?$AA?5?$AA?$CB?$AA?$DN?$AA?5?$AAN?$AAU?$AAL?$AAL?$AA?$AA@ 1008407c     LIBCMTD:_open.obj
 0002:000090a0       ??_C@_1FO@POGAHKND@?$AAf?$AA?3?$AA?2?$AAd?$AAd?$AA?2?$AAv?$AAc?$AAt?$AAo?$AAo?$AAl?$AAs?$AA?2?$AAc?$AAr?$AAt?$AA_?$AAb?$AAl?$AAd?$AA?2?$AAs?$AAe?$AAl?$AAf?$AA_?$AAx?$AA8?$AA6?$AA?2?$AAc@ 100840a0     LIBCMTD:_open.obj
 0002:00009100       ??_C@_1BK@HGLMNMEC@?$AAm?$AAo?$AAd?$AAe?$AA?5?$AA?$CB?$AA?$DN?$AA?5?$AAN?$AAU?$AAL?$AAL?$AA?$AA@ 10084100     LIBCMTD:_open.obj
 0002:0000911c       ??_C@_1BI@MFCLPIBM@?$AAs?$AAt?$AAr?$AA?5?$AA?$CB?$AA?$DN?$AA?5?$AAN?$AAU?$AAL?$AAL?$AA?$AA@ 1008411c     LIBCMTD:_open.obj
 0002:00009134       ??_C@_1DK@PKMJBLLN@?$AA?$CI?$AA?$CC?$AAI?$AAn?$AAv?$AAa?$AAl?$AAi?$AAd?$AA?5?$AAf?$AAi?$AAl?$AAe?$AA?5?$AAo?$AAp?$AAe?$AAn?$AA?5?$AAm?$AAo?$AAd?$AAe?$AA?$CC?$AA?0?$AA0?$AA?$CJ?$AA?$AA@ 10084134     LIBCMTD:_open.obj
 0002:00009170       ??_C@_1BE@DONHJJKE@?$AA_?$AAo?$AAp?$AAe?$AAn?$AAf?$AAi?$AAl?$AAe?$AA?$AA@ 10084170     LIBCMTD:_open.obj
 0002:00009184       ??_C@_1CI@KEDPFCAL@?$AA?$CI?$AA?$CK?$AAm?$AAo?$AAd?$AAe?$AA?5?$AA?$DN?$AA?$DN?$AA?5?$AA_?$AAT?$AA?$CI?$AA?8?$AA?2?$AA0?$AA?8?$AA?$CJ?$AA?$CJ?$AA?$AA@ 10084184     LIBCMTD:_open.obj
 0002:000091b0       ??_C@_1GE@PEEPNGBM@?$AAf?$AA?3?$AA?2?$AAd?$AAd?$AA?2?$AAv?$AAc?$AAt?$AAo?$AAo?$AAl?$AAs?$AA?2?$AAc?$AAr?$AAt?$AA_?$AAb?$AAl?$AAd?$AA?2?$AAs?$AAe?$AAl?$AAf?$AA_?$AAx?$AA8?$AA6?$AA?2?$AAc@ 100841b0     LIBCMTD:vfprintf.obj
 0002:00009214       ??_C@_1CA@OEHMHBJF@?$AAv?$AAf?$AAp?$AAr?$AAi?$AAn?$AAt?$AAf?$AA_?$AAh?$AAe?$AAl?$AAp?$AAe?$AAr?$AA?$AA@ 10084214     LIBCMTD:vfprintf.obj
 0002:00009238       ??_C@_1GC@DGAFOCMO@?$AAf?$AA?3?$AA?2?$AAd?$AAd?$AA?2?$AAv?$AAc?$AAt?$AAo?$AAo?$AAl?$AAs?$AA?2?$AAc?$AAr?$AAt?$AA_?$AAb?$AAl?$AAd?$AA?2?$AAs?$AAe?$AAl?$AAf?$AA_?$AAx?$AA8?$AA6?$AA?2?$AAc@ 10084238     LIBCMTD:_sftbuf.obj
 0002:0000929c       ??_C@_0DB@OLNNDFNH@f?3?2dd?2vctools?2crt_bld?2self_x86?2c@ 1008429c     LIBCMTD:_sftbuf.obj
 0002:000092d0       ??_C@_1CO@KCKAACMI@?$AAf?$AAl?$AAa?$AAg?$AA?5?$AA?$DN?$AA?$DN?$AA?5?$AA0?$AA?5?$AA?$HM?$AA?$HM?$AA?5?$AAf?$AAl?$AAa?$AAg?$AA?5?$AA?$DN?$AA?$DN?$AA?5?$AA1?$AA?$AA@ 100842d0     LIBCMTD:_sftbuf.obj
 0002:00009300       ??_C@_06OJHGLDPL@?$CInull?$CJ?$AA@ 10084300     LIBCMTD:output.obj
 0002:00009308       ??_C@_1O@CEDCILHN@?$AA?$CI?$AAn?$AAu?$AAl?$AAl?$AA?$CJ?$AA?$AA@ 10084308     LIBCMTD:output.obj
 0002:00009318       ___lookuptable             10084318     LIBCMTD:output.obj
 0002:00009378       ??_C@_1GA@HHFOFBLN@?$AAf?$AA?3?$AA?2?$AAd?$AAd?$AA?2?$AAv?$AAc?$AAt?$AAo?$AAo?$AAl?$AAs?$AA?2?$AAc?$AAr?$AAt?$AA_?$AAb?$AAl?$AAd?$AA?2?$AAs?$AAe?$AAl?$AAf?$AA_?$AAx?$AA8?$AA6?$AA?2?$AAc@ 10084378     LIBCMTD:output.obj
 0002:000093d8       ??_C@_1BE@IONLIDNC@?$AA_?$AAo?$AAu?$AAt?$AAp?$AAu?$AAt?$AA_?$AAl?$AA?$AA@ 100843d8     LIBCMTD:output.obj
 0002:000093ec       ??_C@_1CC@IFFHEMNF@?$AA?$CI?$AAc?$AAh?$AA?5?$AA?$CB?$AA?$DN?$AA?5?$AA_?$AAT?$AA?$CI?$AA?8?$AA?2?$AA0?$AA?8?$AA?$CJ?$AA?$CJ?$AA?$AA@ 100843ec     LIBCMTD:output.obj
 0002:00009410       ??_C@_1EK@PNGFDECN@?$AA?$CI?$AA?$CC?$AA?8?$AAn?$AA?8?$AA?5?$AAf?$AAo?$AAr?$AAm?$AAa?$AAt?$AA?5?$AAs?$AAp?$AAe?$AAc?$AAi?$AAf?$AAi?$AAe?$AAr?$AA?5?$AAd?$AAi?$AAs?$AAa?$AAb?$AAl?$AAe?$AAd?$AA?$CC@ 10084410     LIBCMTD:output.obj
 0002:0000945c       ??_C@_0DA@NFBEBPEE@f?3?2dd?2vctools?2crt_bld?2self_x86?2c@ 1008445c     LIBCMTD:output.obj
 0002:0000948c       ??_C@_0DA@NBLAKPEL@f?3?2dd?2vctools?2crt_bld?2self_x86?2c@ 1008448c     LIBCMTD:ioinit.obj
 0002:000094c0       ??_C@_1GC@DHFFJKMC@?$AAf?$AA?3?$AA?2?$AAd?$AAd?$AA?2?$AAv?$AAc?$AAt?$AAo?$AAo?$AAl?$AAs?$AA?2?$AAc?$AAr?$AAt?$AA_?$AAb?$AAl?$AAd?$AA?2?$AAs?$AAe?$AAl?$AAf?$AA_?$AAx?$AA8?$AA6?$AA?2?$AAc@ 100844c0     LIBCMTD:vprintf.obj
 0002:00009524       ??_C@_1BO@JGFPDJCP@?$AAv?$AAp?$AAr?$AAi?$AAn?$AAt?$AAf?$AA_?$AAh?$AAe?$AAl?$AAp?$AAe?$AAr?$AA?$AA@ 10084524     LIBCMTD:vprintf.obj
 0002:00009548       ??_C@_1GC@GNCCMPNN@?$AAf?$AA?3?$AA?2?$AAd?$AAd?$AA?2?$AAv?$AAc?$AAt?$AAo?$AAo?$AAl?$AAs?$AA?2?$AAc?$AAr?$AAt?$AA_?$AAb?$AAl?$AAd?$AA?2?$AAs?$AAe?$AAl?$AAf?$AA_?$AAx?$AA8?$AA6?$AA?2?$AAc@ 10084548     LIBCMTD:_flsbuf.obj
 0002:000095b0       ??_C@_1HO@MLMGPAFH@?$AA?$CI?$AA?$CC?$AAi?$AAn?$AAc?$AAo?$AAn?$AAs?$AAi?$AAs?$AAt?$AAe?$AAn?$AAt?$AA?5?$AAI?$AAO?$AAB?$AA?5?$AAf?$AAi?$AAe?$AAl?$AAd?$AAs?$AA?$CC?$AA?0?$AA?5?$AAs?$AAt?$AAr?$AAe@ 100845b0     LIBCMTD:_flsbuf.obj
 0002:00009630       ??_C@_1BK@FHMHFMNL@?$AA_?$AAv?$AAs?$AAn?$AAp?$AAr?$AAi?$AAn?$AAt?$AAf?$AA_?$AAl?$AA?$AA@ 10084630     LIBCMTD:vsnprint.obj
 0002:00009650       __OP_ATAN2jmptab           10084650     LIBCMTD:87triga.obj
 0002:00009bd0       __infinity                 10084bd0     LIBCMTD:87tran.obj
 0002:00009bda       __minfinity                10084bda     LIBCMTD:87tran.obj
 0002:00009be4       __logemax                  10084be4     LIBCMTD:87tran.obj
 0002:00009c0a       __OP_EXPjmptab             10084c0a     LIBCMTD:87tran.obj
 0002:00009c2c       ??_C@_03KHJOGHMM@exp?$AA@  10084c2c     LIBCMTD:fpexcept.obj
 0002:00009c30       ??_C@_03JGHBODFD@pow?$AA@  10084c30     LIBCMTD:fpexcept.obj
 0002:00009c34       ??_C@_03MGHMBJCF@log?$AA@  10084c34     LIBCMTD:fpexcept.obj
 0002:00009c38       ??_C@_05HGHHAHAP@log10?$AA@ 10084c38     LIBCMTD:fpexcept.obj
 0002:00009c40       ??_C@_04COOMCNPB@sinh?$AA@ 10084c40     LIBCMTD:fpexcept.obj
 0002:00009c48       ??_C@_04HPJJNFIM@cosh?$AA@ 10084c48     LIBCMTD:fpexcept.obj
 0002:00009c50       ??_C@_04FJHINJAO@tanh?$AA@ 10084c50     LIBCMTD:fpexcept.obj
 0002:00009c58       ??_C@_04FIHNOPOL@asin?$AA@ 10084c58     LIBCMTD:fpexcept.obj
 0002:00009c60       ??_C@_04PDIFKINK@acos?$AA@ 10084c60     LIBCMTD:fpexcept.obj
 0002:00009c68       ??_C@_04MLLJIGOK@atan?$AA@ 10084c68     LIBCMTD:fpexcept.obj
 0002:00009c70       ??_C@_05KNGEOGJB@atan2?$AA@ 10084c70     LIBCMTD:fpexcept.obj
 0002:00009c78       ??_C@_04EIAKFFMI@sqrt?$AA@ 10084c78     LIBCMTD:fpexcept.obj
 0002:00009c80       ??_C@_03BLEJJJBH@sin?$AA@  10084c80     LIBCMTD:fpexcept.obj
 0002:00009c84       ??_C@_03LALBNOCG@cos?$AA@  10084c84     LIBCMTD:fpexcept.obj
 0002:00009c88       ??_C@_03IIINPABG@tan?$AA@  10084c88     LIBCMTD:fpexcept.obj
 0002:00009c8c       ??_C@_04GFPJNGEK@ceil?$AA@ 10084c8c     LIBCMTD:fpexcept.obj
 0002:00009c94       ??_C@_05PBJFFIGL@floor?$AA@ 10084c94     LIBCMTD:fpexcept.obj
 0002:00009c9c       ??_C@_04ODHECPBC@fabs?$AA@ 10084c9c     LIBCMTD:fpexcept.obj
 0002:00009ca4       ??_C@_04EHEDPDJG@modf?$AA@ 10084ca4     LIBCMTD:fpexcept.obj
 0002:00009cac       ??_C@_05CEJMAHNP@ldexp?$AA@ 10084cac     LIBCMTD:fpexcept.obj
 0002:00009cb4       ??_C@_05KBKMEMPO@_cabs?$AA@ 10084cb4     LIBCMTD:fpexcept.obj
 0002:00009cbc       ??_C@_06MEIMCGCF@_hypot?$AA@ 10084cbc     LIBCMTD:fpexcept.obj
 0002:00009cc4       ??_C@_04KEPJIHGP@fmod?$AA@ 10084cc4     LIBCMTD:fpexcept.obj
 0002:00009ccc       ??_C@_05GKKHEGJL@frexp?$AA@ 10084ccc     LIBCMTD:fpexcept.obj
 0002:00009cd4       ??_C@_03MJLDFKDL@_y0?$AA@  10084cd4     LIBCMTD:fpexcept.obj
 0002:00009cd8       ??_C@_03NAKIGLHK@_y1?$AA@  10084cd8     LIBCMTD:fpexcept.obj
 0002:00009cdc       ??_C@_03ONILCKOB@_yn?$AA@  10084cdc     LIBCMTD:fpexcept.obj
 0002:00009ce0       ??_C@_05JGDBENOH@_logb?$AA@ 10084ce0     LIBCMTD:fpexcept.obj
 0002:00009ce8       ??_C@_0L@KDOEJCKC@_nextafter?$AA@ 10084ce8     LIBCMTD:fpexcept.obj
 0002:0000a60a       __OP_SINHjmptab            1008560a     LIBCMTD:87trigh.obj
 0002:0000a62a       __OP_COSHjmptab            1008562a     LIBCMTD:87trigh.obj
 0002:0000a64a       __OP_TANHjmptab            1008564a     LIBCMTD:87trigh.obj
 0002:0000a66c       ??_C@_1BI@GKKCBDMD@?$AAd?$AAs?$AAt?$AA?5?$AA?$CB?$AA?$DN?$AA?5?$AAN?$AAU?$AAL?$AAL?$AA?$AA@ 1008566c     LIBCMTD:memcpy_s.obj
 0002:0000a688       ??_C@_1GE@NEOPGGBM@?$AAf?$AA?3?$AA?2?$AAd?$AAd?$AA?2?$AAv?$AAc?$AAt?$AAo?$AAo?$AAl?$AAs?$AA?2?$AAc?$AAr?$AAt?$AA_?$AAb?$AAl?$AAd?$AA?2?$AAs?$AAe?$AAl?$AAf?$AA_?$AAx?$AA8?$AA6?$AA?2?$AAc@ 10085688     LIBCMTD:memcpy_s.obj
 0002:0000a6ec       ??_C@_1BC@GKHDJMGB@?$AAm?$AAe?$AAm?$AAc?$AAp?$AAy?$AA_?$AAs?$AA?$AA@ 100856ec     LIBCMTD:memcpy_s.obj
 0002:0000a700       ??_C@_1BI@DCHLDCPP@?$AAs?$AAr?$AAc?$AA?5?$AA?$CB?$AA?$DN?$AA?5?$AAN?$AAU?$AAL?$AAL?$AA?$AA@ 10085700     LIBCMTD:memcpy_s.obj
 0002:0000a718       ??_C@_1CK@DDKKOLAN@?$AAs?$AAi?$AAz?$AAe?$AAI?$AAn?$AAB?$AAy?$AAt?$AAe?$AAs?$AA?5?$AA?$DO?$AA?$DN?$AA?5?$AAc?$AAo?$AAu?$AAn?$AAt?$AA?$AA@ 10085718     LIBCMTD:memcpy_s.obj
 0002:0000a748       ??_C@_1FC@PFMLEHKI@?$AA?$CI?$AA?$CI?$AA_?$AAD?$AAs?$AAt?$AA?$CJ?$AA?$CJ?$AA?5?$AA?$CB?$AA?$DN?$AA?5?$AAN?$AAU?$AAL?$AAL?$AA?5?$AA?$CG?$AA?$CG?$AA?5?$AA?$CI?$AA?$CI?$AA_?$AAS?$AAi?$AAz?$AAe?$AAI?$AAn?$AAW?$AAo?$AAr@ 10085748     LIBCMTD:wcscpy_s.obj
 0002:0000a7a0       ??_C@_1GI@BGBNCIMA@?$AAf?$AA?3?$AA?2?$AAd?$AAd?$AA?2?$AAv?$AAc?$AAt?$AAo?$AAo?$AAl?$AAs?$AA?2?$AAc?$AAr?$AAt?$AA_?$AAb?$AAl?$AAd?$AA?2?$AAs?$AAe?$AAl?$AAf?$AA_?$AAx?$AA8?$AA6?$AA?2?$AAc@ 100857a0     LIBCMTD:wcscpy_s.obj
 0002:0000a808       ??_C@_1BC@KIONAFPO@?$AAw?$AAc?$AAs?$AAc?$AAp?$AAy?$AA_?$AAs?$AA?$AA@ 10085808     LIBCMTD:wcscpy_s.obj
 0002:0000a81c       ??_C@_1CG@OFBJMIGJ@?$AA?$CI?$AA?$CI?$AA?$CI?$AA_?$AAS?$AAr?$AAc?$AA?$CJ?$AA?$CJ?$AA?$CJ?$AA?5?$AA?$CB?$AA?$DN?$AA?5?$AAN?$AAU?$AAL?$AAL?$AA?$AA@ 1008581c     LIBCMTD:wcscpy_s.obj
 0002:0000a844       ??_C@_1CI@HCPHDDLE@?$AAB?$AAu?$AAf?$AAf?$AAe?$AAr?$AA?5?$AAi?$AAs?$AA?5?$AAt?$AAo?$AAo?$AA?5?$AAs?$AAm?$AAa?$AAl?$AAl?$AA?$AA@ 10085844     LIBCMTD:wcscpy_s.obj
 0002:0000a86c       ??_C@_1DM@MADKGDLO@?$AA?$CI?$AAL?$AA?$CC?$AAB?$AAu?$AAf?$AAf?$AAe?$AAr?$AA?5?$AAi?$AAs?$AA?5?$AAt?$AAo?$AAo?$AA?5?$AAs?$AAm?$AAa?$AAl?$AAl?$AA?$CC?$AA?5?$AA?$CG?$AA?$CG?$AA?5?$AA0?$AA?$CJ?$AA?$AA@ 1008586c     LIBCMTD:wcscpy_s.obj
 0002:0000a8a8       ??_C@_1GE@DKGHLBLP@?$AAf?$AA?3?$AA?2?$AAd?$AAd?$AA?2?$AAv?$AAc?$AAt?$AAo?$AAo?$AAl?$AAs?$AA?2?$AAc?$AAr?$AAt?$AA_?$AAb?$AAl?$AAd?$AA?2?$AAs?$AAe?$AAl?$AAf?$AA_?$AAx?$AA8?$AA6?$AA?2?$AAc@ 100858a8     LIBCMTD:swprintf.obj
 0002:0000a90c       ??_C@_1BE@BMIJMLDD@?$AA_?$AAs?$AAw?$AAp?$AAr?$AAi?$AAn?$AAt?$AAf?$AA?$AA@ 1008590c     LIBCMTD:swprintf.obj
 0002:0000a920       ??_C@_0DA@ELJOOIJF@f?3?2dd?2vctools?2crt_bld?2self_x86?2c@ 10085920     LIBCMTD:winsig.obj
 0002:0000a950       ??_C@_1DO@MLNEDKGB@?$AA?$CI?$AA?$CC?$AAI?$AAn?$AAv?$AAa?$AAl?$AAi?$AAd?$AA?5?$AAs?$AAi?$AAg?$AAn?$AAa?$AAl?$AA?5?$AAo?$AAr?$AA?5?$AAe?$AAr?$AAr?$AAo?$AAr?$AA?$CC?$AA?0?$AA?5?$AA0?$AA?$CJ?$AA?$AA@ 10085950     LIBCMTD:winsig.obj
 0002:0000a990       ??_C@_1GA@DBECNFG@?$AAf?$AA?3?$AA?2?$AAd?$AAd?$AA?2?$AAv?$AAc?$AAt?$AAo?$AAo?$AAl?$AAs?$AA?2?$AAc?$AAr?$AAt?$AA_?$AAb?$AAl?$AAd?$AA?2?$AAs?$AAe?$AAl?$AAf?$AA_?$AAx?$AA8?$AA6?$AA?2?$AAc@ 10085990     LIBCMTD:winsig.obj
 0002:0000a9f0       ??_C@_1O@EJLDHPPL@?$AAs?$AAi?$AAg?$AAn?$AAa?$AAl?$AA?$AA@ 100859f0     LIBCMTD:winsig.obj
 0002:0000aa00       ??_C@_1M@DMJEIKHL@?$AAr?$AAa?$AAi?$AAs?$AAe?$AA?$AA@ 10085a00     LIBCMTD:winsig.obj
 0002:0000aa0c       ??_C@_1BG@GOEBHBDC@?$AAU?$AAS?$AAE?$AAR?$AA3?$AA2?$AA?4?$AAD?$AAL?$AAL?$AA?$AA@ 10085a0c     LIBCMTD:crtmboxw.obj
 0002:0000aa24       ??_C@_0M@DLDCCGNP@MessageBoxW?$AA@ 10085a24     LIBCMTD:crtmboxw.obj
 0002:0000aa30       ??_C@_0BA@HNOPNCHB@GetActiveWindow?$AA@ 10085a30     LIBCMTD:crtmboxw.obj
 0002:0000aa40       ??_C@_0BD@HHGDFDBJ@GetLastActivePopup?$AA@ 10085a40     LIBCMTD:crtmboxw.obj
 0002:0000aa54       ??_C@_0BK@DEKFELLI@GetUserObjectInformationW?$AA@ 10085a54     LIBCMTD:crtmboxw.obj
 0002:0000aa70       ??_C@_0BI@DFKBFLJE@GetProcessWindowStation?$AA@ 10085a70     LIBCMTD:crtmboxw.obj
 0002:0000aa88       ??_C@_1FA@IFFFOLDJ@?$AAn?$AAR?$AAp?$AAt?$AAT?$AAy?$AAp?$AAe?$AA?5?$AA?$DO?$AA?$DN?$AA?5?$AA0?$AA?5?$AA?$CG?$AA?$CG?$AA?5?$AAn?$AAR?$AAp?$AAt?$AAT?$AAy?$AAp?$AAe?$AA?5?$AA?$DM?$AA?5?$AA_?$AAC?$AAR?$AAT@ 10085a88     LIBCMTD:dbgrptt.obj
 0002:0000aad8       ??_C@_1GC@FIGJJMEN@?$AAf?$AA?3?$AA?2?$AAd?$AAd?$AA?2?$AAv?$AAc?$AAt?$AAo?$AAo?$AAl?$AAs?$AA?2?$AAc?$AAr?$AAt?$AA_?$AAb?$AAl?$AAd?$AA?2?$AAs?$AAe?$AAl?$AAf?$AA_?$AAx?$AA8?$AA6?$AA?2?$AAc@ 10085ad8     LIBCMTD:dbgrptt.obj
 0002:0000ab3c       ??_C@_1CE@FIHIECNJ@?$AA_?$AAC?$AAr?$AAt?$AAS?$AAe?$AAt?$AAR?$AAe?$AAp?$AAo?$AAr?$AAt?$AAM?$AAo?$AAd?$AAe?$AA?$AA@ 10085b3c     LIBCMTD:dbgrptt.obj
 0002:0000ab60       ??_C@_1NK@LOFHIHFC@?$AAf?$AAM?$AAo?$AAd?$AAe?$AA?5?$AA?$DN?$AA?$DN?$AA?5?$AA_?$AAC?$AAR?$AAT?$AAD?$AAB?$AAG?$AA_?$AAR?$AAE?$AAP?$AAO?$AAR?$AAT?$AA_?$AAM?$AAO?$AAD?$AAE?$AA?5?$AA?$HM?$AA?$HM?$AA?5@ 10085b60     LIBCMTD:dbgrptt.obj
 0002:0000ac3c       ??_C@_1CE@IKKEDCME@?$AA_?$AAC?$AAr?$AAt?$AAS?$AAe?$AAt?$AAR?$AAe?$AAp?$AAo?$AAr?$AAt?$AAF?$AAi?$AAl?$AAe?$AA?$AA@ 10085c3c     LIBCMTD:dbgrptt.obj
 0002:0000ac60       ??_C@_1CA@KHJHLKA@?$AA_?$AAV?$AAC?$AAr?$AAt?$AAD?$AAb?$AAg?$AAR?$AAe?$AAp?$AAo?$AAr?$AAt?$AAA?$AA?$AA@ 10085c60     LIBCMTD:dbgrptt.obj
 0002:0000ac80       ??_C@_1FA@JPHJBHEM@?$AA_?$AAi?$AAt?$AAo?$AAa?$AA_?$AAs?$AA?$CI?$AAn?$AAL?$AAi?$AAn?$AAe?$AA?0?$AA?5?$AAs?$AAz?$AAL?$AAi?$AAn?$AAe?$AAM?$AAe?$AAs?$AAs?$AAa?$AAg?$AAe?$AA?0?$AA?5?$AA4?$AA0@ 10085c80     LIBCMTD:dbgrptt.obj
 0002:0000acd0       ??_C@_0CG@BNGLOCEO@Second?5Chance?5Assertion?5Failed?3?5@ 10085cd0     LIBCMTD:dbgrptt.obj
 0002:0000acf8       ??_C@_0P@DFJNDPOP@?$DMfile?5unknown?$DO?$AA@ 10085cf8     LIBCMTD:dbgrptt.obj
 0002:0000ad08       ??_C@_07BHGABMGB@?0?5Line?5?$AA@ 10085d08     LIBCMTD:dbgrptt.obj
 0002:0000ad10       ??_C@_1JI@GAALPGBM@?$AAs?$AAt?$AAr?$AAc?$AAp?$AAy?$AA_?$AAs?$AA?$CI?$AAs?$AAz?$AAU?$AAs?$AAe?$AAr?$AAM?$AAe?$AAs?$AAs?$AAa?$AAg?$AAe?$AA?0?$AA?5?$AA4?$AA0?$AA9?$AA6?$AA?0?$AA?5?$AA?$CC?$AA_@ 10085d10     LIBCMTD:dbgrptt.obj
 0002:0000ada8       ??_C@_0CL@EACFGMNB@_CrtDbgReport?3?5String?5too?5long?5o@ 10085da8     LIBCMTD:dbgrptt.obj
 0002:0000add8       ??_C@_1KK@GIGAEDMO@?$AAs?$AAt?$AAr?$AAc?$AAp?$AAy?$AA_?$AAs?$AA?$CI?$AAs?$AAz?$AAL?$AAi?$AAn?$AAe?$AAM?$AAe?$AAs?$AAs?$AAa?$AAg?$AAe?$AA?0?$AA?5?$AA4?$AA0?$AA9?$AA6?$AA?0?$AA?5?$AAs?$AAz@ 10085dd8     LIBCMTD:dbgrptt.obj
 0002:0000ae84       ??_C@_0BD@CAENFOHP@Assertion?5failed?3?5?$AA@ 10085e84     LIBCMTD:dbgrptt.obj
 0002:0000ae98       ??_C@_0BC@LAIDCHCH@Assertion?5failed?$CB?$AA@ 10085e98     LIBCMTD:dbgrptt.obj
 0002:0000aeb0       ??_C@_1FK@NPGBPOFO@?$AAs?$AAt?$AAr?$AAc?$AAa?$AAt?$AA_?$AAs?$AA?$CI?$AAs?$AAz?$AAL?$AAi?$AAn?$AAe?$AAM?$AAe?$AAs?$AAs?$AAa?$AAg?$AAe?$AA?0?$AA?5?$AA4?$AA0?$AA9?$AA6?$AA?0?$AA?5?$AAs?$AAz@ 10085eb0     LIBCMTD:dbgrptt.obj
 0002:0000af10       ??_C@_1EI@CACDLAFK@?$AAs?$AAt?$AAr?$AAc?$AAa?$AAt?$AA_?$AAs?$AA?$CI?$AAs?$AAz?$AAL?$AAi?$AAn?$AAe?$AAM?$AAe?$AAs?$AAs?$AAa?$AAg?$AAe?$AA?0?$AA?5?$AA4?$AA0?$AA9?$AA6?$AA?0?$AA?5?$AA?$CC?$AA?2@ 10085f10     LIBCMTD:dbgrptt.obj
 0002:0000af58       ??_C@_01LIIJDEN@?$AN?$AA@  10085f58     LIBCMTD:dbgrptt.obj
 0002:0000af60       ??_C@_1EI@LDHJEDO@?$AAs?$AAt?$AAr?$AAc?$AAa?$AAt?$AA_?$AAs?$AA?$CI?$AAs?$AAz?$AAL?$AAi?$AAn?$AAe?$AAM?$AAe?$AAs?$AAs?$AAa?$AAg?$AAe?$AA?0?$AA?5?$AA4?$AA0?$AA9?$AA6?$AA?0?$AA?5?$AA?$CC?$AA?2@ 10085f60     LIBCMTD:dbgrptt.obj
 0002:0000afa8       ??_C@_0M@IPILFDFN@?$CFs?$CI?$CFd?$CJ?5?3?5?$CFs?$AA@ 10085fa8     LIBCMTD:dbgrptt.obj
 0002:0000afb8       ??_C@_1JG@CPKCIOEE@?$AAs?$AAt?$AAr?$AAc?$AAp?$AAy?$AA_?$AAs?$AA?$CI?$AAs?$AAz?$AAO?$AAu?$AAt?$AAM?$AAe?$AAs?$AAs?$AAa?$AAg?$AAe?$AA?0?$AA?5?$AA4?$AA0?$AA9?$AA6?$AA?0?$AA?5?$AA?$CC?$AA_?$AAC@ 10085fb8     LIBCMTD:dbgrptt.obj
 0002:0000b050       ??_C@_1FI@IBIOIHEG@?$AAs?$AAt?$AAr?$AAc?$AAp?$AAy?$AA_?$AAs?$AA?$CI?$AAs?$AAz?$AAO?$AAu?$AAt?$AAM?$AAe?$AAs?$AAs?$AAa?$AAg?$AAe?$AA?0?$AA?5?$AA4?$AA0?$AA9?$AA6?$AA?0?$AA?5?$AAs?$AAz?$AAL@ 10086050     LIBCMTD:dbgrptt.obj
 0002:0000b0a8       ??_C@_1IM@OOKIFKOH@?$AAe?$AA?5?$AA?$DN?$AA?5?$AAm?$AAb?$AAs?$AAt?$AAo?$AAw?$AAc?$AAs?$AA_?$AAs?$AA?$CI?$AA?$CG?$AAr?$AAe?$AAt?$AA?0?$AA?5?$AAs?$AAz?$AAO?$AAu?$AAt?$AAM?$AAe?$AAs?$AAs?$AAa?$AAg@ 100860a8     LIBCMTD:dbgrptt.obj
 0002:0000b138       ??_C@_1MC@IGEECMDB@?$AAw?$AAc?$AAs?$AAc?$AAp?$AAy?$AA_?$AAs?$AA?$CI?$AAs?$AAz?$AAO?$AAu?$AAt?$AAM?$AAe?$AAs?$AAs?$AAa?$AAg?$AAe?$AA2?$AA?0?$AA?5?$AA4?$AA0?$AA9?$AA6?$AA?0?$AA?5?$AAL?$AA?$CC@ 10086138     LIBCMTD:dbgrptt.obj
 0002:0000b200       ??_C@_1HO@PJOFIKFE@?$AA_?$AAC?$AAr?$AAt?$AAD?$AAb?$AAg?$AAR?$AAe?$AAp?$AAo?$AAr?$AAt?$AA?3?$AA?5?$AAS?$AAt?$AAr?$AAi?$AAn?$AAg?$AA?5?$AAt?$AAo?$AAo?$AA?5?$AAl?$AAo?$AAn?$AAg?$AA?5?$AAo@ 10086200     LIBCMTD:dbgrptt.obj
 0002:0000b280       ??_C@_1CA@HPALHDOD@?$AA_?$AAV?$AAC?$AAr?$AAt?$AAD?$AAb?$AAg?$AAR?$AAe?$AAp?$AAo?$AAr?$AAt?$AAW?$AA?$AA@ 10086280     LIBCMTD:dbgrptt.obj
 0002:0000b2a0       ??_C@_1FA@CNLLOMHI@?$AA_?$AAi?$AAt?$AAo?$AAw?$AA_?$AAs?$AA?$CI?$AAn?$AAL?$AAi?$AAn?$AAe?$AA?0?$AA?5?$AAs?$AAz?$AAL?$AAi?$AAn?$AAe?$AAM?$AAe?$AAs?$AAs?$AAa?$AAg?$AAe?$AA?0?$AA?5?$AA4?$AA0@ 100862a0     LIBCMTD:dbgrptt.obj
 0002:0000b2f0       ??_C@_1EM@MJFLEDMB@?$AAS?$AAe?$AAc?$AAo?$AAn?$AAd?$AA?5?$AAC?$AAh?$AAa?$AAn?$AAc?$AAe?$AA?5?$AAA?$AAs?$AAs?$AAe?$AAr?$AAt?$AAi?$AAo?$AAn?$AA?5?$AAF?$AAa?$AAi?$AAl?$AAe?$AAd?$AA?3?$AA?5@ 100862f0     LIBCMTD:dbgrptt.obj
 0002:0000b33c       ??_C@_1BO@OCHMLCAG@?$AA?$DM?$AAf?$AAi?$AAl?$AAe?$AA?5?$AAu?$AAn?$AAk?$AAn?$AAo?$AAw?$AAn?$AA?$DO?$AA?$AA@ 1008633c     LIBCMTD:dbgrptt.obj
 0002:0000b35c       ??_C@_1BA@ELMMDCFC@?$AA?0?$AA?5?$AAL?$AAi?$AAn?$AAe?$AA?5?$AA?$AA@ 1008635c     LIBCMTD:dbgrptt.obj
 0002:0000b370       ??_C@_1JK@KHFABAEO@?$AAw?$AAc?$AAs?$AAc?$AAp?$AAy?$AA_?$AAs?$AA?$CI?$AAs?$AAz?$AAU?$AAs?$AAe?$AAr?$AAM?$AAe?$AAs?$AAs?$AAa?$AAg?$AAe?$AA?0?$AA?5?$AA4?$AA0?$AA9?$AA6?$AA?0?$AA?5?$AAL?$AA?$CC@ 10086370     LIBCMTD:dbgrptt.obj
 0002:0000b410       ??_C@_1KO@DGAHENCH@?$AAw?$AAc?$AAs?$AAc?$AAp?$AAy?$AA_?$AAs?$AA?$CI?$AAs?$AAz?$AAL?$AAi?$AAn?$AAe?$AAM?$AAe?$AAs?$AAs?$AAa?$AAg?$AAe?$AA?0?$AA?5?$AA4?$AA0?$AA9?$AA6?$AA?0?$AA?5?$AAs?$AAz@ 10086410     LIBCMTD:dbgrptt.obj
 0002:0000b4c0       ??_C@_1CG@FFFGGODN@?$AAA?$AAs?$AAs?$AAe?$AAr?$AAt?$AAi?$AAo?$AAn?$AA?5?$AAf?$AAa?$AAi?$AAl?$AAe?$AAd?$AA?3?$AA?5?$AA?$AA@ 100864c0     LIBCMTD:dbgrptt.obj
 0002:0000b4e8       ??_C@_1FK@HPADHBBD@?$AAw?$AAc?$AAs?$AAc?$AAa?$AAt?$AA_?$AAs?$AA?$CI?$AAs?$AAz?$AAL?$AAi?$AAn?$AAe?$AAM?$AAe?$AAs?$AAs?$AAa?$AAg?$AAe?$AA?0?$AA?5?$AA4?$AA0?$AA9?$AA6?$AA?0?$AA?5?$AAs?$AAz@ 100864e8     LIBCMTD:dbgrptt.obj
 0002:0000b548       ??_C@_1EK@NMDFGHMF@?$AAw?$AAc?$AAs?$AAc?$AAa?$AAt?$AA_?$AAs?$AA?$CI?$AAs?$AAz?$AAL?$AAi?$AAn?$AAe?$AAM?$AAe?$AAs?$AAs?$AAa?$AAg?$AAe?$AA?0?$AA?5?$AA4?$AA0?$AA9?$AA6?$AA?0?$AA?5?$AAL?$AA?$CC@ 10086548     LIBCMTD:dbgrptt.obj
 0002:0000b594       ??_C@_13CMNBPIDO@?$AA?$AN?$AA?$AA@ 10086594     LIBCMTD:dbgrptt.obj
 0002:0000b598       ??_C@_1EK@PHCBEDKB@?$AAw?$AAc?$AAs?$AAc?$AAa?$AAt?$AA_?$AAs?$AA?$CI?$AAs?$AAz?$AAL?$AAi?$AAn?$AAe?$AAM?$AAe?$AAs?$AAs?$AAa?$AAg?$AAe?$AA?0?$AA?5?$AA4?$AA0?$AA9?$AA6?$AA?0?$AA?5?$AAL?$AA?$CC@ 10086598     LIBCMTD:dbgrptt.obj
 0002:0000b5e4       ??_C@_1BI@JIDBEPIG@?$AA?$CF?$AAs?$AA?$CI?$AA?$CF?$AAd?$AA?$CJ?$AA?5?$AA?3?$AA?5?$AA?$CF?$AAs?$AA?$AA@ 100865e4     LIBCMTD:dbgrptt.obj
 0002:0000b600       ??_C@_1FI@DBAIJPJE@?$AAw?$AAc?$AAs?$AAc?$AAp?$AAy?$AA_?$AAs?$AA?$CI?$AAs?$AAz?$AAO?$AAu?$AAt?$AAM?$AAe?$AAs?$AAs?$AAa?$AAg?$AAe?$AA?0?$AA?5?$AA4?$AA0?$AA9?$AA6?$AA?0?$AA?5?$AAs?$AAz?$AAL@ 10086600     LIBCMTD:dbgrptt.obj
 0002:0000b658       ??_C@_1JC@EOAPFDLN@?$AAw?$AAc?$AAs?$AAt?$AAo?$AAm?$AAb?$AAs?$AA_?$AAs?$AA?$CI?$AA?$CI?$AA?$CI?$AAv?$AAo?$AAi?$AAd?$AA?5?$AA?$CK?$AA?$CJ?$AA0?$AA?$CJ?$AA?0?$AA?5?$AAs?$AAz?$AAO?$AAu?$AAt?$AAM?$AAe?$AAs@ 10086658     LIBCMTD:dbgrptt.obj
 0002:0000b6f0       ??_C@_1MA@LBAMNNOB@?$AAs?$AAt?$AAr?$AAc?$AAp?$AAy?$AA_?$AAs?$AA?$CI?$AAs?$AAz?$AAO?$AAu?$AAt?$AAM?$AAe?$AAs?$AAs?$AAa?$AAg?$AAe?$AA2?$AA?0?$AA?5?$AA4?$AA0?$AA9?$AA6?$AA?0?$AA?5?$AA?$CC?$AA_@ 100866f0     LIBCMTD:dbgrptt.obj
 0002:0000b7b0       ??_C@_0DP@GNPEPHJD@_CrtDbgReport?3?5String?5too?5long?5o@ 100867b0     LIBCMTD:dbgrptt.obj
 0002:0000b7f0       ??_C@_1IE@CPGKIAGP@?$AAw?$AAc?$AAs?$AAt?$AAo?$AAm?$AAb?$AAs?$AA_?$AAs?$AA?$CI?$AA?$CG?$AAr?$AAe?$AAt?$AA?0?$AA?5?$AAs?$AAz?$AAa?$AAO?$AAu?$AAt?$AAM?$AAe?$AAs?$AAs?$AAa?$AAg?$AAe?$AA?0?$AA?5@ 100867f0     LIBCMTD:dbgrptt.obj
 0002:0000b878       ??_C@_1FC@NCPEPIBI@?$AA?$CI?$AA?$CI?$AA_?$AAD?$AAs?$AAt?$AA?$CJ?$AA?$CJ?$AA?5?$AA?$CB?$AA?$DN?$AA?5?$AAN?$AAU?$AAL?$AAL?$AA?5?$AA?$CG?$AA?$CG?$AA?5?$AA?$CI?$AA?$CI?$AA_?$AAS?$AAi?$AAz?$AAe?$AAI?$AAn?$AAB?$AAy?$AAt@ 10086878     LIBCMTD:strcpy_s.obj
 0002:0000b8cc       ??_C@_1BC@CFJEPFGF@?$AAs?$AAt?$AAr?$AAc?$AAp?$AAy?$AA_?$AAs?$AA?$AA@ 100868cc     LIBCMTD:strcpy_s.obj
 0002:0000b8e0       ??_C@_1CK@GELGGBDK@?$AAp?$AAN?$AAo?$AAd?$AAe?$AA?9?$AA?$DO?$AA_?$AAN?$AAe?$AAx?$AAt?$AA?5?$AA?$CB?$AA?$DN?$AA?5?$AAN?$AAU?$AAL?$AAL?$AA?$AA@ 100868e0     LIBCMTD:typname.obj
 0002:0000b910       ??_C@_1HG@KNCBMCDD@?$AAf?$AA?3?$AA?2?$AAd?$AAd?$AA?2?$AAv?$AAc?$AAt?$AAo?$AAo?$AAl?$AAs?$AA?2?$AAc?$AAr?$AAt?$AA_?$AAb?$AAl?$AAd?$AA?2?$AAs?$AAe?$AAl?$AAf?$AA_?$AAx?$AA8?$AA6?$AA?2?$AAc@ 10086910     LIBCMTD:typname.obj
 0002:0000b988       ??_C@_1CM@OOICDMK@?$AAt?$AAy?$AAp?$AAe?$AA_?$AAi?$AAn?$AAf?$AAo?$AA?3?$AA?3?$AA_?$AAN?$AAa?$AAm?$AAe?$AA_?$AAb?$AAa?$AAs?$AAe?$AA?$AA@ 10086988     LIBCMTD:typname.obj
 0002:0000b9b8       ??_C@_1JK@NAFNEPGC@?$AAs?$AAt?$AAr?$AAc?$AAp?$AAy?$AA_?$AAs?$AA?5?$AA?$CI?$AA?$CI?$AAc?$AAh?$AAa?$AAr?$AA?5?$AA?$CK?$AA?$CJ?$AA?$CI?$AA?$CI?$AAt?$AAy?$AAp?$AAe?$AA_?$AAi?$AAn?$AAf?$AAo?$AA?5?$AA?$CK?$AA?$CJ@ 100869b8     LIBCMTD:typname.obj
 0002:0000ba54       ??_C@_1DO@OJJLFJPE@?$AAt?$AAy?$AAp?$AAe?$AA_?$AAi?$AAn?$AAf?$AAo?$AA?3?$AA?3?$AA_?$AAN?$AAa?$AAm?$AAe?$AA_?$AAb?$AAa?$AAs?$AAe?$AA_?$AAi?$AAn?$AAt?$AAe?$AAr?$AAn?$AAa?$AAl?$AA?$AA@ 10086a54     LIBCMTD:typname.obj
 0002:0000ba98       ??_C@_1GI@EAJKJPED@?$AAs?$AAt?$AAr?$AAc?$AAp?$AAy?$AA_?$AAs?$AA?5?$AA?$CI?$AAp?$AAT?$AAm?$AAp?$AAT?$AAy?$AAp?$AAe?$AAN?$AAa?$AAm?$AAe?$AA?0?$AA?5?$AAl?$AAe?$AAn?$AA?$CL?$AA2?$AA?0?$AA?5?$AA?$CI@ 10086a98     LIBCMTD:typname.obj
 0002:0000bb00       ??_C@_1GC@CHFNJKFB@?$AAf?$AA?3?$AA?2?$AAd?$AAd?$AA?2?$AAv?$AAc?$AAt?$AAo?$AAo?$AAl?$AAs?$AA?2?$AAc?$AAr?$AAt?$AA_?$AAb?$AAl?$AAd?$AA?2?$AAs?$AAe?$AAl?$AAf?$AA_?$AAx?$AA8?$AA6?$AA?2?$AAc@ 10086b00     LIBCMTD:_filbuf.obj
 0002:0000bb64       ??_C@_1BA@IIKEPOGH@?$AA_?$AAf?$AAi?$AAl?$AAb?$AAu?$AAf?$AA?$AA@ 10086b64     LIBCMTD:_filbuf.obj
 0002:0000bb78       ??_C@_1FM@NGICBHLO@?$AAf?$AA?3?$AA?2?$AAd?$AAd?$AA?2?$AAv?$AAc?$AAt?$AAo?$AAo?$AAl?$AAs?$AA?2?$AAc?$AAr?$AAt?$AA_?$AAb?$AAl?$AAd?$AA?2?$AAs?$AAe?$AAl?$AAf?$AA_?$AAx?$AA8?$AA6?$AA?2?$AAc@ 10086b78     LIBCMTD:read.obj
 0002:0000bbd4       ??_C@_1M@NHJOLLDM@?$AA_?$AAr?$AAe?$AAa?$AAd?$AA?$AA@ 10086bd4     LIBCMTD:read.obj
 0002:0000bbe0       ??_C@_1CC@HBLPFNKH@?$AA?$CI?$AAc?$AAn?$AAt?$AA?5?$AA?$DM?$AA?$DN?$AA?5?$AAI?$AAN?$AAT?$AA_?$AAM?$AAA?$AAX?$AA?$CJ?$AA?$AA@ 10086be0     LIBCMTD:read.obj
 0002:0000bc04       ??_C@_1BK@JJBHNDKJ@?$AA_?$AAr?$AAe?$AAa?$AAd?$AA_?$AAn?$AAo?$AAl?$AAo?$AAc?$AAk?$AA?$AA@ 10086c04     LIBCMTD:read.obj
 0002:0000bc20       ??_C@_1CG@OHLJHGGK@?$AA?$CI?$AAi?$AAn?$AAp?$AAu?$AAt?$AAb?$AAu?$AAf?$AA?5?$AA?$CB?$AA?$DN?$AA?5?$AAN?$AAU?$AAL?$AAL?$AA?$CJ?$AA?$AA@ 10086c20     LIBCMTD:read.obj
 0002:0000bc48       ??_C@_1CC@EEOLPHGO@?$AA?$CI?$AA?$CI?$AAc?$AAn?$AAt?$AA?5?$AA?$CG?$AA?5?$AA1?$AA?$CJ?$AA?5?$AA?$DN?$AA?$DN?$AA?5?$AA0?$AA?$CJ?$AA?$AA@ 10086c48     LIBCMTD:read.obj
 0002:0000bc6c       ??_C@_0CO@CEGKNHEH@f?3?2dd?2vctools?2crt_bld?2self_x86?2c@ 10086c6c     LIBCMTD:read.obj
 0002:0000bca0       ??_C@_1FO@EPLDPDDL@?$AAf?$AA?3?$AA?2?$AAd?$AAd?$AA?2?$AAv?$AAc?$AAt?$AAo?$AAo?$AAl?$AAs?$AA?2?$AAc?$AAr?$AAt?$AA_?$AAb?$AAl?$AAd?$AA?2?$AAs?$AAe?$AAl?$AAf?$AA_?$AAx?$AA8?$AA6?$AA?2?$AAc@ 10086ca0     LIBCMTD:write.obj
 0002:0000bd00       ??_C@_1O@KOFKDHPL@?$AA_?$AAw?$AAr?$AAi?$AAt?$AAe?$AA?$AA@ 10086d00     LIBCMTD:write.obj
 0002:0000bd10       ??_C@_1BM@KFJLMBPG@?$AA?$CI?$AAb?$AAu?$AAf?$AA?5?$AA?$CB?$AA?$DN?$AA?5?$AAN?$AAU?$AAL?$AAL?$AA?$CJ?$AA?$AA@ 10086d10     LIBCMTD:write.obj
 0002:0000bd2c       ??_C@_1BM@NCANHCIP@?$AA_?$AAw?$AAr?$AAi?$AAt?$AAe?$AA_?$AAn?$AAo?$AAl?$AAo?$AAc?$AAk?$AA?$AA@ 10086d2c     LIBCMTD:write.obj
 0002:0000bd48       ??_C@_1DI@CNMHHHLG@?$AAi?$AAs?$AAl?$AAe?$AAa?$AAd?$AAb?$AAy?$AAt?$AAe?$AA?$CI?$AA_?$AAd?$AAb?$AAc?$AAs?$AAB?$AAu?$AAf?$AAf?$AAe?$AAr?$AA?$CI?$AAf?$AAh?$AA?$CJ?$AA?$CJ?$AA?$AA@ 10086d48     LIBCMTD:write.obj
 0002:0000f6c0       ??_C@_1GI@NOKGIAGA@?$AAf?$AA?3?$AA?2?$AAd?$AAd?$AA?2?$AAv?$AAc?$AAt?$AAo?$AAo?$AAl?$AAs?$AA?2?$AAc?$AAr?$AAt?$AA_?$AAb?$AAl?$AAd?$AA?2?$AAs?$AAe?$AAl?$AAf?$AA_?$AAx?$AA8?$AA6?$AA?2?$AAc@ 1008a6c0     LIBCMTD:wcscat_s.obj
 0002:0000f728       ??_C@_1BC@PLIEPKPJ@?$AAw?$AAc?$AAs?$AAc?$AAa?$AAt?$AA_?$AAs?$AA?$AA@ 1008a728     LIBCMTD:wcscat_s.obj
 0002:0000f73c       ??_C@_1DM@FHLMIEG@?$AAS?$AAt?$AAr?$AAi?$AAn?$AAg?$AA?5?$AAi?$AAs?$AA?5?$AAn?$AAo?$AAt?$AA?5?$AAn?$AAu?$AAl?$AAl?$AA?5?$AAt?$AAe?$AAr?$AAm?$AAi?$AAn?$AAa?$AAt?$AAe?$AAd?$AA?$AA@ 1008a73c     LIBCMTD:wcscat_s.obj
 0002:0000f778       ??_C@_1FA@MJKDNFFB@?$AA?$CI?$AAL?$AA?$CC?$AAS?$AAt?$AAr?$AAi?$AAn?$AAg?$AA?5?$AAi?$AAs?$AA?5?$AAn?$AAo?$AAt?$AA?5?$AAn?$AAu?$AAl?$AAl?$AA?5?$AAt?$AAe?$AAr?$AAm?$AAi?$AAn?$AAa?$AAt?$AAe?$AAd@ 1008a778     LIBCMTD:wcscat_s.obj
 0002:0000f7c8       ??_C@_1GK@DICCLCDF@?$AAf?$AA?3?$AA?2?$AAd?$AAd?$AA?2?$AAv?$AAc?$AAt?$AAo?$AAo?$AAl?$AAs?$AA?2?$AAc?$AAr?$AAt?$AA_?$AAb?$AAl?$AAd?$AA?2?$AAs?$AAe?$AAl?$AAf?$AA_?$AAx?$AA8?$AA6?$AA?2?$AAc@ 1008a7c8     LIBCMTD:wcsncat_s.obj
 0002:0000f834       ??_C@_1BE@KPKIKKCF@?$AAw?$AAc?$AAs?$AAn?$AAc?$AAa?$AAt?$AA_?$AAs?$AA?$AA@ 1008a834     LIBCMTD:wcsncat_s.obj
 0002:0000f848       ??_C@_1DE@BCNCAIK@?$AA?$CI?$AA?$CC?$AAI?$AAn?$AAv?$AAa?$AAl?$AAi?$AAd?$AA?5?$AAe?$AAr?$AAr?$AAo?$AAr?$AA_?$AAm?$AAo?$AAd?$AAe?$AA?$CC?$AA?0?$AA?5?$AA0?$AA?$CJ?$AA?$AA@ 1008a848     LIBCMTD:errmode.obj
 0002:0000f880       ??_C@_1GC@FGMGFCNB@?$AAf?$AA?3?$AA?2?$AAd?$AAd?$AA?2?$AAv?$AAc?$AAt?$AAo?$AAo?$AAl?$AAs?$AA?2?$AAc?$AAr?$AAt?$AA_?$AAb?$AAl?$AAd?$AA?2?$AAs?$AAe?$AAl?$AAf?$AA_?$AAx?$AA8?$AA6?$AA?2?$AAc@ 1008a880     LIBCMTD:errmode.obj
 0002:0000f8e4       ??_C@_1CA@LFDHAMEM@?$AA_?$AAs?$AAe?$AAt?$AA_?$AAe?$AAr?$AAr?$AAo?$AAr?$AA_?$AAm?$AAo?$AAd?$AAe?$AA?$AA@ 1008a8e4     LIBCMTD:errmode.obj
 0002:0000f908       ??_C@_1FM@MFCBFCGB@?$AAf?$AA?3?$AA?2?$AAd?$AAd?$AA?2?$AAv?$AAc?$AAt?$AAo?$AAo?$AAl?$AAs?$AA?2?$AAc?$AAr?$AAt?$AA_?$AAb?$AAl?$AAd?$AA?2?$AAs?$AAe?$AAl?$AAf?$AA_?$AAx?$AA8?$AA6?$AA?2?$AAc@ 1008a908     LIBCMTD:xtows.obj
 0002:0000f964       ??_C@_1O@NCBFODOE@?$AAx?$AAt?$AAo?$AAw?$AA_?$AAs?$AA?$AA@ 1008a964     LIBCMTD:xtows.obj
 0002:0000f974       ??_C@_1CC@JNJFIMGE@?$AAs?$AAi?$AAz?$AAe?$AAI?$AAn?$AAT?$AAC?$AAh?$AAa?$AAr?$AAs?$AA?5?$AA?$DO?$AA?5?$AA0?$AA?$AA@ 1008a974     LIBCMTD:xtows.obj
 0002:0000f998       ??_C@_1FA@MKGGAGEI@?$AAs?$AAi?$AAz?$AAe?$AAI?$AAn?$AAT?$AAC?$AAh?$AAa?$AAr?$AAs?$AA?5?$AA?$DO?$AA?5?$AA?$CI?$AAs?$AAi?$AAz?$AAe?$AA_?$AAt?$AA?$CJ?$AA?$CI?$AAi?$AAs?$AA_?$AAn?$AAe?$AAg?$AA?5?$AA?$DP@ 1008a998     LIBCMTD:xtows.obj
 0002:0000f9e8       ??_C@_1DE@PCJGDBBD@?$AA2?$AA?5?$AA?$DM?$AA?$DN?$AA?5?$AAr?$AAa?$AAd?$AAi?$AAx?$AA?5?$AA?$CG?$AA?$CG?$AA?5?$AAr?$AAa?$AAd?$AAi?$AAx?$AA?5?$AA?$DM?$AA?$DN?$AA?5?$AA3?$AA6?$AA?$AA@ 1008a9e8     LIBCMTD:xtows.obj
 0002:0000fa1c       ??_C@_1CM@HABGDNLJ@?$AAl?$AAe?$AAn?$AAg?$AAt?$AAh?$AA?5?$AA?$DM?$AA?5?$AAs?$AAi?$AAz?$AAe?$AAI?$AAn?$AAT?$AAC?$AAh?$AAa?$AAr?$AAs?$AA?$AA@ 1008aa1c     LIBCMTD:xtows.obj
 0002:0000fa48       ??_C@_1BC@HDEJCFPB@?$AAx?$AA6?$AA4?$AAt?$AAo?$AAw?$AA_?$AAs?$AA?$AA@ 1008aa48     LIBCMTD:xtows.obj
 0002:0000fa60       ??_C@_1GC@FPPJLAOD@?$AAf?$AA?3?$AA?2?$AAd?$AAd?$AA?2?$AAv?$AAc?$AAt?$AAo?$AAo?$AAl?$AAs?$AA?2?$AAc?$AAr?$AAt?$AA_?$AAb?$AAl?$AAd?$AA?2?$AAs?$AAe?$AAl?$AAf?$AA_?$AAx?$AA8?$AA6?$AA?2?$AAc@ 1008aa60     LIBCMTD:setvbuf.obj
 0002:0000fac4       ??_C@_1BA@OGODIODK@?$AAs?$AAe?$AAt?$AAv?$AAb?$AAu?$AAf?$AA?$AA@ 1008aac4     LIBCMTD:setvbuf.obj
 0002:0000fad8       ??_C@_1HC@CBFEDAGG@?$AA?$CI?$AAt?$AAy?$AAp?$AAe?$AA?5?$AA?$DN?$AA?$DN?$AA?5?$AA_?$AAI?$AAO?$AAN?$AAB?$AAF?$AA?$CJ?$AA?5?$AA?$HM?$AA?$HM?$AA?5?$AA?$CI?$AAt?$AAy?$AAp?$AAe?$AA?5?$AA?$DN?$AA?$DN?$AA?5?$AA_?$AAI?$AAO@ 1008aad8     LIBCMTD:setvbuf.obj
 0002:0000fb50       ??_C@_1EG@IJNJIDNB@?$AA?$CI?$AA?$CI?$AA2?$AA?5?$AA?$DM?$AA?$DN?$AA?5?$AAs?$AAi?$AAz?$AAe?$AA?$CJ?$AA?5?$AA?$CG?$AA?$CG?$AA?5?$AA?$CI?$AAs?$AAi?$AAz?$AAe?$AA?5?$AA?$DM?$AA?$DN?$AA?5?$AAI?$AAN?$AAT?$AA_?$AAM?$AAA?$AAX@ 1008ab50     LIBCMTD:setvbuf.obj
 0002:0000fb98       ??_C@_0DB@MIGHMKAN@f?3?2dd?2vctools?2crt_bld?2self_x86?2c@ 1008ab98     LIBCMTD:setvbuf.obj
 0002:0000fbd0       ??_C@_1GE@NIBJAMDO@?$AAf?$AA?3?$AA?2?$AAd?$AAd?$AA?2?$AAv?$AAc?$AAt?$AAo?$AAo?$AAl?$AAs?$AA?2?$AAc?$AAr?$AAt?$AA_?$AAb?$AAl?$AAd?$AA?2?$AAs?$AAe?$AAl?$AAf?$AA_?$AAx?$AA8?$AA6?$AA?2?$AAc@ 1008abd0     LIBCMTD:fwprintf.obj
 0002:0000fc34       ??_C@_1BC@BHLPNJBO@?$AAf?$AAw?$AAp?$AAr?$AAi?$AAn?$AAt?$AAf?$AA?$AA@ 1008ac34     LIBCMTD:fwprintf.obj
 0002:0000fc48       ??_C@_1GE@KINELFI@?$AAf?$AA?3?$AA?2?$AAd?$AAd?$AA?2?$AAv?$AAc?$AAt?$AAo?$AAo?$AAl?$AAs?$AA?2?$AAc?$AAr?$AAt?$AA_?$AAb?$AAl?$AAd?$AA?2?$AAs?$AAe?$AAl?$AAf?$AA_?$AAx?$AA8?$AA6?$AA?2?$AAc@ 1008ac48     LIBCMTD:vswprnc.obj
 0002:0000fcac       ??_C@_1CE@IGKFIJFD@?$AA_?$AAv?$AAs?$AAw?$AAp?$AAr?$AAi?$AAn?$AAt?$AAf?$AA_?$AAh?$AAe?$AAl?$AAp?$AAe?$AAr?$AA?$AA@ 1008acac     LIBCMTD:vswprnc.obj
 0002:0000fcd0       ??_C@_1BO@MLMCMBKN@?$AAf?$AAo?$AAr?$AAm?$AAa?$AAt?$AA?5?$AA?$CB?$AA?$DN?$AA?5?$AAN?$AAU?$AAL?$AAL?$AA?$AA@ 1008acd0     LIBCMTD:vswprnc.obj
 0002:0000fcf0       ??_C@_1BO@OALHJLCI@?$AA_?$AAv?$AAs?$AAw?$AAp?$AAr?$AAi?$AAn?$AAt?$AAf?$AA_?$AAs?$AA_?$AAl?$AA?$AA@ 1008acf0     LIBCMTD:vswprnc.obj
 0002:0000fd10       ??_C@_1EE@MPCHJFGP@?$AAs?$AAt?$AAr?$AAi?$AAn?$AAg?$AA?5?$AA?$CB?$AA?$DN?$AA?5?$AAN?$AAU?$AAL?$AAL?$AA?5?$AA?$CG?$AA?$CG?$AA?5?$AAs?$AAi?$AAz?$AAe?$AAI?$AAn?$AAW?$AAo?$AAr?$AAd?$AAs?$AA?5?$AA?$DO?$AA?5@ 1008ad10     LIBCMTD:vswprnc.obj
 0002:0000fd54       ??_C@_1DA@HPBFKMEB@?$AA?$CI?$AA?$CC?$AAB?$AAu?$AAf?$AAf?$AAe?$AAr?$AA?5?$AAt?$AAo?$AAo?$AA?5?$AAs?$AAm?$AAa?$AAl?$AAl?$AA?$CC?$AA?0?$AA?5?$AA0?$AA?$CJ?$AA?$AA@ 1008ad54     LIBCMTD:vswprnc.obj
 0002:0000fd84       ??_C@_1CA@BKFKMJFF@?$AA_?$AAv?$AAs?$AAn?$AAw?$AAp?$AAr?$AAi?$AAn?$AAt?$AAf?$AA_?$AAs?$AA_?$AAl?$AA?$AA@ 1008ad84     LIBCMTD:vswprnc.obj
 0002:0000fe60       ??_C@_1FK@PGACCAFB@?$AAR?$AA6?$AA0?$AA0?$AA2?$AA?$AN?$AA?6?$AA?9?$AA?5?$AAf?$AAl?$AAo?$AAa?$AAt?$AAi?$AAn?$AAg?$AA?5?$AAp?$AAo?$AAi?$AAn?$AAt?$AA?5?$AAs?$AAu?$AAp?$AAp?$AAo?$AAr?$AAt?$AA?5@ 1008ae60     LIBCMTD:crt0msg.obj
 0002:0000fec0       ??_C@_1FE@LLNEDJMD@?$AAR?$AA6?$AA0?$AA0?$AA8?$AA?$AN?$AA?6?$AA?9?$AA?5?$AAn?$AAo?$AAt?$AA?5?$AAe?$AAn?$AAo?$AAu?$AAg?$AAh?$AA?5?$AAs?$AAp?$AAa?$AAc?$AAe?$AA?5?$AAf?$AAo?$AAr?$AA?5?$AAa?$AAr@ 1008aec0     LIBCMTD:crt0msg.obj
 0002:0000ff18       ??_C@_1FI@HONFMGBI@?$AAR?$AA6?$AA0?$AA0?$AA9?$AA?$AN?$AA?6?$AA?9?$AA?5?$AAn?$AAo?$AAt?$AA?5?$AAe?$AAn?$AAo?$AAu?$AAg?$AAh?$AA?5?$AAs?$AAp?$AAa?$AAc?$AAe?$AA?5?$AAf?$AAo?$AAr?$AA?5?$AAe?$AAn@ 1008af18     LIBCMTD:crt0msg.obj
 0002:0000ff70       ??_C@_1EG@BEHAGFJD@?$AAR?$AA6?$AA0?$AA1?$AA0?$AA?$AN?$AA?6?$AA?9?$AA?5?$AAa?$AAb?$AAo?$AAr?$AAt?$AA?$CI?$AA?$CJ?$AA?5?$AAh?$AAa?$AAs?$AA?5?$AAb?$AAe?$AAe?$AAn?$AA?5?$AAc?$AAa?$AAl?$AAl?$AAe?$AAd@ 1008af70     LIBCMTD:crt0msg.obj
 0002:0000ffb8       ??_C@_1FI@LOGNIKDM@?$AAR?$AA6?$AA0?$AA1?$AA6?$AA?$AN?$AA?6?$AA?9?$AA?5?$AAn?$AAo?$AAt?$AA?5?$AAe?$AAn?$AAo?$AAu?$AAg?$AAh?$AA?5?$AAs?$AAp?$AAa?$AAc?$AAe?$AA?5?$AAf?$AAo?$AAr?$AA?5?$AAt?$AAh@ 1008afb8     LIBCMTD:crt0msg.obj
 0002:00010010       ??_C@_1FK@BEOGODMC@?$AAR?$AA6?$AA0?$AA1?$AA7?$AA?$AN?$AA?6?$AA?9?$AA?5?$AAu?$AAn?$AAe?$AAx?$AAp?$AAe?$AAc?$AAt?$AAe?$AAd?$AA?5?$AAm?$AAu?$AAl?$AAt?$AAi?$AAt?$AAh?$AAr?$AAe?$AAa?$AAd?$AA?5@ 1008b010     LIBCMTD:crt0msg.obj
 0002:00010070       ??_C@_1EC@JIBHAOPH@?$AAR?$AA6?$AA0?$AA1?$AA8?$AA?$AN?$AA?6?$AA?9?$AA?5?$AAu?$AAn?$AAe?$AAx?$AAp?$AAe?$AAc?$AAt?$AAe?$AAd?$AA?5?$AAh?$AAe?$AAa?$AAp?$AA?5?$AAe?$AAr?$AAr?$AAo?$AAr?$AA?$AN?$AA?6@ 1008b070     LIBCMTD:crt0msg.obj
 0002:000100b8       ??_C@_1FC@ECHBIFBC@?$AAR?$AA6?$AA0?$AA1?$AA9?$AA?$AN?$AA?6?$AA?9?$AA?5?$AAu?$AAn?$AAa?$AAb?$AAl?$AAe?$AA?5?$AAt?$AAo?$AA?5?$AAo?$AAp?$AAe?$AAn?$AA?5?$AAc?$AAo?$AAn?$AAs?$AAo?$AAl?$AAe?$AA?5@ 1008b0b8     LIBCMTD:crt0msg.obj
 0002:00010110       ??_C@_1GK@FHCKBEFA@?$AAR?$AA6?$AA0?$AA2?$AA4?$AA?$AN?$AA?6?$AA?9?$AA?5?$AAn?$AAo?$AAt?$AA?5?$AAe?$AAn?$AAo?$AAu?$AAg?$AAh?$AA?5?$AAs?$AAp?$AAa?$AAc?$AAe?$AA?5?$AAf?$AAo?$AAr?$AA?5?$AA_?$AAo@ 1008b110     LIBCMTD:crt0msg.obj
 0002:00010180       ??_C@_1EM@MAADIHMB@?$AAR?$AA6?$AA0?$AA2?$AA5?$AA?$AN?$AA?6?$AA?9?$AA?5?$AAp?$AAu?$AAr?$AAe?$AA?5?$AAv?$AAi?$AAr?$AAt?$AAu?$AAa?$AAl?$AA?5?$AAf?$AAu?$AAn?$AAc?$AAt?$AAi?$AAo?$AAn?$AA?5?$AAc@ 1008b180     LIBCMTD:crt0msg.obj
 0002:000101d0       ??_C@_1GK@MCAAGJMO@?$AAR?$AA6?$AA0?$AA2?$AA6?$AA?$AN?$AA?6?$AA?9?$AA?5?$AAn?$AAo?$AAt?$AA?5?$AAe?$AAn?$AAo?$AAu?$AAg?$AAh?$AA?5?$AAs?$AAp?$AAa?$AAc?$AAe?$AA?5?$AAf?$AAo?$AAr?$AA?5?$AAs?$AAt@ 1008b1d0     LIBCMTD:crt0msg.obj
 0002:00010240       ??_C@_1GK@MFGOKLAG@?$AAR?$AA6?$AA0?$AA2?$AA7?$AA?$AN?$AA?6?$AA?9?$AA?5?$AAn?$AAo?$AAt?$AA?5?$AAe?$AAn?$AAo?$AAu?$AAg?$AAh?$AA?5?$AAs?$AAp?$AAa?$AAc?$AAe?$AA?5?$AAf?$AAo?$AAr?$AA?5?$AAl?$AAo@ 1008b240     LIBCMTD:crt0msg.obj
 0002:000102b0       ??_C@_1EK@HHFLMAOL@?$AAR?$AA6?$AA0?$AA2?$AA8?$AA?$AN?$AA?6?$AA?9?$AA?5?$AAu?$AAn?$AAa?$AAb?$AAl?$AAe?$AA?5?$AAt?$AAo?$AA?5?$AAi?$AAn?$AAi?$AAt?$AAi?$AAa?$AAl?$AAi?$AAz?$AAe?$AA?5?$AAh?$AAe@ 1008b2b0     LIBCMTD:crt0msg.obj
 0002:000102fc       ??_C@_1DO@BMFCDCD@?$AAR?$AA6?$AA0?$AA3?$AA0?$AA?$AN?$AA?6?$AA?9?$AA?5?$AAC?$AAR?$AAT?$AA?5?$AAn?$AAo?$AAt?$AA?5?$AAi?$AAn?$AAi?$AAt?$AAi?$AAa?$AAl?$AAi?$AAz?$AAe?$AAd?$AA?$AN?$AA?6?$AA?$AA@ 1008b2fc     LIBCMTD:crt0msg.obj
 0002:00010340       ??_C@_1MG@ENCOOIDF@?$AAR?$AA6?$AA0?$AA3?$AA1?$AA?$AN?$AA?6?$AA?9?$AA?5?$AAA?$AAt?$AAt?$AAe?$AAm?$AAp?$AAt?$AA?5?$AAt?$AAo?$AA?5?$AAi?$AAn?$AAi?$AAt?$AAi?$AAa?$AAl?$AAi?$AAz?$AAe?$AA?5?$AAt@ 1008b340     LIBCMTD:crt0msg.obj
 0002:00010408       ??_C@_1GG@GOPILAJP@?$AAR?$AA6?$AA0?$AA3?$AA2?$AA?$AN?$AA?6?$AA?9?$AA?5?$AAn?$AAo?$AAt?$AA?5?$AAe?$AAn?$AAo?$AAu?$AAg?$AAh?$AA?5?$AAs?$AAp?$AAa?$AAc?$AAe?$AA?5?$AAf?$AAo?$AAr?$AA?5?$AAl?$AAo@ 1008b408     LIBCMTD:crt0msg.obj
 0002:00010470       ??_C@_1BOO@KGEDBGAJ@?$AAR?$AA6?$AA0?$AA3?$AA3?$AA?$AN?$AA?6?$AA?9?$AA?5?$AAA?$AAt?$AAt?$AAe?$AAm?$AAp?$AAt?$AA?5?$AAt?$AAo?$AA?5?$AAu?$AAs?$AAe?$AA?5?$AAM?$AAS?$AAI?$AAL?$AA?5?$AAc?$AAo?$AAd@ 1008b470     LIBCMTD:crt0msg.obj
 0002:00010660       ??_C@_1GG@MKFPEKFO@?$AAR?$AA6?$AA0?$AA3?$AA4?$AA?$AN?$AA?6?$AA?9?$AA?5?$AAi?$AAn?$AAc?$AAo?$AAn?$AAs?$AAi?$AAs?$AAt?$AAe?$AAn?$AAt?$AA?5?$AAo?$AAn?$AAe?$AAx?$AAi?$AAt?$AA?5?$AAb?$AAe?$AAg@ 1008b660     LIBCMTD:crt0msg.obj
 0002:000106c8       ??_C@_1BO@BFCDCGC@?$AAD?$AAO?$AAM?$AAA?$AAI?$AAN?$AA?5?$AAe?$AAr?$AAr?$AAo?$AAr?$AA?$AN?$AA?6?$AA?$AA@ 1008b6c8     LIBCMTD:crt0msg.obj
 0002:000106e8       ??_C@_1BK@KMOMNAAI@?$AAS?$AAI?$AAN?$AAG?$AA?5?$AAe?$AAr?$AAr?$AAo?$AAr?$AA?$AN?$AA?6?$AA?$AA@ 1008b6e8     LIBCMTD:crt0msg.obj
 0002:00010704       ??_C@_1BM@JBBEPPHI@?$AAT?$AAL?$AAO?$AAS?$AAS?$AA?5?$AAe?$AAr?$AAr?$AAo?$AAr?$AA?$AN?$AA?6?$AA?$AA@ 1008b704     LIBCMTD:crt0msg.obj
 0002:00010720       ??_C@_15JNBOKNOG@?$AA?$AN?$AA?6?$AA?$AA@ 1008b720     LIBCMTD:crt0msg.obj
 0002:00010728       ??_C@_1BO@BKOMIGKJ@?$AAr?$AAu?$AAn?$AAt?$AAi?$AAm?$AAe?$AA?5?$AAe?$AAr?$AAr?$AAo?$AAr?$AA?5?$AA?$AA@ 1008b728     LIBCMTD:crt0msg.obj
 0002:00010748       ??_C@_1GC@HKOJBOFF@?$AAf?$AA?3?$AA?2?$AAd?$AAd?$AA?2?$AAv?$AAc?$AAt?$AAo?$AAo?$AAl?$AAs?$AA?2?$AAc?$AAr?$AAt?$AA_?$AAb?$AAl?$AAd?$AA?2?$AAs?$AAe?$AAl?$AAf?$AA_?$AAx?$AA8?$AA6?$AA?2?$AAc@ 1008b748     LIBCMTD:crt0msg.obj
 0002:000107ac       ??_C@_1BI@EAHMBMEC@?$AA_?$AAN?$AAM?$AAS?$AAG?$AA_?$AAW?$AAR?$AAI?$AAT?$AAE?$AA?$AA@ 1008b7ac     LIBCMTD:crt0msg.obj
 0002:000107c8       ??_C@_1KO@BKLCKNFL@?$AAw?$AAc?$AAs?$AAc?$AAp?$AAy?$AA_?$AAs?$AA?$CI?$AAo?$AAu?$AAt?$AAm?$AAs?$AAg?$AA?0?$AA?5?$AA?$CI?$AAs?$AAi?$AAz?$AAe?$AAo?$AAf?$AA?$CI?$AAo?$AAu?$AAt?$AAm?$AAs?$AAg?$AA?$CJ@ 1008b7c8     LIBCMTD:crt0msg.obj
 0002:00010878       ??_C@_1DE@JNGNBFGO@?$AAR?$AAu?$AAn?$AAt?$AAi?$AAm?$AAe?$AA?5?$AAE?$AAr?$AAr?$AAo?$AAr?$AA?$CB?$AA?6?$AA?6?$AAP?$AAr?$AAo?$AAg?$AAr?$AAa?$AAm?$AA?3?$AA?5?$AA?$AA@ 1008b878     LIBCMTD:crt0msg.obj
 0002:000108b0       ??_C@_1HK@FJJNAABO@?$AAw?$AAc?$AAs?$AAc?$AAp?$AAy?$AA_?$AAs?$AA?$CI?$AAp?$AAr?$AAo?$AAg?$AAn?$AAa?$AAm?$AAe?$AA?0?$AA?5?$AAp?$AAr?$AAo?$AAg?$AAn?$AAa?$AAm?$AAe?$AA_?$AAs?$AAi?$AAz?$AAe@ 1008b8b0     LIBCMTD:crt0msg.obj
 0002:00010930       ??_C@_1HI@FLHKGEBE@?$AAw?$AAc?$AAs?$AAn?$AAc?$AAp?$AAy?$AA_?$AAs?$AA?$CI?$AAp?$AAc?$AAh?$AA?0?$AA?5?$AAp?$AAr?$AAo?$AAg?$AAn?$AAa?$AAm?$AAe?$AA_?$AAs?$AAi?$AAz?$AAe?$AA?5?$AA?9?$AA?5?$AA?$CI@ 1008b930     LIBCMTD:crt0msg.obj
 0002:000109a8       ??_C@_1IA@DCJGKHFO@?$AAw?$AAc?$AAs?$AAc?$AAa?$AAt?$AA_?$AAs?$AA?$CI?$AAo?$AAu?$AAt?$AAm?$AAs?$AAg?$AA?0?$AA?5?$AA?$CI?$AAs?$AAi?$AAz?$AAe?$AAo?$AAf?$AA?$CI?$AAo?$AAu?$AAt?$AAm?$AAs?$AAg?$AA?$CJ@ 1008b9a8     LIBCMTD:crt0msg.obj
 0002:00010a28       ??_C@_1IG@NMONDPP@?$AAw?$AAc?$AAs?$AAc?$AAa?$AAt?$AA_?$AAs?$AA?$CI?$AAo?$AAu?$AAt?$AAm?$AAs?$AAg?$AA?0?$AA?5?$AA?$CI?$AAs?$AAi?$AAz?$AAe?$AAo?$AAf?$AA?$CI?$AAo?$AAu?$AAt?$AAm?$AAs?$AAg?$AA?$CJ@ 1008ba28     LIBCMTD:crt0msg.obj
 0002:00010ab0       ??_C@_0DC@CFDMMFIG@f?3?2dd?2vctools?2crt_bld?2self_x86?2c@ 1008bab0     LIBCMTD:inithelp.obj
 0002:00010ae8       ??_C@_1GE@PLPIMDHG@?$AAf?$AA?3?$AA?2?$AAd?$AAd?$AA?2?$AAv?$AAc?$AAt?$AAo?$AAo?$AAl?$AAs?$AA?2?$AAc?$AAr?$AAt?$AA_?$AAb?$AAl?$AAd?$AA?2?$AAs?$AAe?$AAl?$AAf?$AA_?$AAx?$AA8?$AA6?$AA?2?$AAc@ 1008bae8     LIBCMTD:inithelp.obj
 0002:00010b4c       ??_C@_1CA@KHHCPEI@?$AA_?$AA_?$AAg?$AAe?$AAt?$AAl?$AAo?$AAc?$AAa?$AAl?$AAe?$AAi?$AAn?$AAf?$AAo?$AA?$AA@ 1008bb4c     LIBCMTD:inithelp.obj
 0002:00010b70       ??_C@_1GO@NGIGJNHH@?$AAs?$AAt?$AAr?$AAn?$AAc?$AAp?$AAy?$AA_?$AAs?$AA?$CI?$AA?$CK?$AAs?$AAt?$AAr?$AAa?$AAd?$AAd?$AAr?$AAe?$AAs?$AAs?$AA?0?$AA?5?$AAo?$AAu?$AAt?$AAs?$AAi?$AAz?$AAe?$AA?0?$AA?5@ 1008bb70     LIBCMTD:inithelp.obj
 0002:00010c48       ??_C@_05EOHGHCHD@exp10?$AA@ 1008bc48     LIBCMTD:libm_error.obj
 0002:00010c50       __XcptActTab               1008bc50     LIBCMTD:winxfltr.obj
 0002:00010ce0       __XcptActTabCount          1008bce0     LIBCMTD:winxfltr.obj
 0002:00010ce4       __XcptActTabSize           1008bce4     LIBCMTD:winxfltr.obj
 0002:00010ce8       __First_FPE_Indx           1008bce8     LIBCMTD:winxfltr.obj
 0002:00010cec       __Num_FPE                  1008bcec     LIBCMTD:winxfltr.obj
 0002:00010cf0       ??_C@_1BC@DENNNKIM@?$AA_?$AAc?$AAr?$AAt?$AAh?$AAe?$AAa?$AAp?$AA?$AA@ 1008bcf0     LIBCMTD:heapinit.obj
 0002:00010d08       ??_C@_1GE@JDDMFOID@?$AAf?$AA?3?$AA?2?$AAd?$AAd?$AA?2?$AAv?$AAc?$AAt?$AAo?$AAo?$AAl?$AAs?$AA?2?$AAc?$AAr?$AAt?$AA_?$AAb?$AAl?$AAd?$AA?2?$AAs?$AAe?$AAl?$AAf?$AA_?$AAx?$AA8?$AA6?$AA?2?$AAc@ 1008bd08     LIBCMTD:heapinit.obj
 0002:00010d6c       ??_C@_0DB@OEPBJOLC@f?3?2dd?2vctools?2crt_bld?2self_x86?2c@ 1008bd6c     LIBCMTD:stdargv.obj
 0002:00010da0       ??_C@_0DB@BMEBJJKP@f?3?2dd?2vctools?2crt_bld?2self_x86?2c@ 1008bda0     LIBCMTD:stdenvp.obj
 0002:00010dd8       ??_C@_1GC@DGBFLDBN@?$AAf?$AA?3?$AA?2?$AAd?$AAd?$AA?2?$AAv?$AAc?$AAt?$AAo?$AAo?$AAl?$AAs?$AA?2?$AAc?$AAr?$AAt?$AA_?$AAb?$AAl?$AAd?$AA?2?$AAs?$AAe?$AAl?$AAf?$AA_?$AAx?$AA8?$AA6?$AA?2?$AAc@ 1008bdd8     LIBCMTD:stdenvp.obj
 0002:00010e3c       ??_C@_1BC@GHMCNHHL@?$AA_?$AAs?$AAe?$AAt?$AAe?$AAn?$AAv?$AAp?$AA?$AA@ 1008be3c     LIBCMTD:stdenvp.obj
 0002:00010e50       ??_C@_1DE@MMOGFGHF@?$AAs?$AAt?$AAr?$AAc?$AAp?$AAy?$AA_?$AAs?$AA?$CI?$AA?$CK?$AAe?$AAn?$AAv?$AA?0?$AA?5?$AAc?$AAc?$AAh?$AAa?$AAr?$AAs?$AA?0?$AA?5?$AAp?$AA?$CJ?$AA?$AA@ 1008be50     LIBCMTD:stdenvp.obj
 0002:00010e84       ??_C@_0CP@PPLBCJDN@f?3?2dd?2vctools?2crt_bld?2self_x86?2c@ 1008be84     LIBCMTD:a_env.obj
 0002:00015560       ??_C@_1CK@GFDNDKK@?$AA_?$AAR?$AAa?$AAn?$AAd?$AAo?$AAm?$AAV?$AAa?$AAl?$AAu?$AAe?$AA?5?$AA?$CB?$AA?$DN?$AA?5?$AAN?$AAU?$AAL?$AAL?$AA?$AA@ 10090560     LIBCMTD:rand_s.obj
 0002:00015590       ??_C@_1GA@HBGBBKCD@?$AAf?$AA?3?$AA?2?$AAd?$AAd?$AA?2?$AAv?$AAc?$AAt?$AAo?$AAo?$AAl?$AAs?$AA?2?$AAc?$AAr?$AAt?$AA_?$AAb?$AAl?$AAd?$AA?2?$AAs?$AAe?$AAl?$AAf?$AA_?$AAx?$AA8?$AA6?$AA?2?$AAc@ 10090590     LIBCMTD:rand_s.obj
 0002:000155f0       ??_C@_1O@IJGPPOGF@?$AAr?$AAa?$AAn?$AAd?$AA_?$AAs?$AA?$AA@ 100905f0     LIBCMTD:rand_s.obj
 0002:00015600       ??_C@_1BK@GAEMIDIL@?$AAA?$AAD?$AAV?$AAA?$AAP?$AAI?$AA3?$AA2?$AA?4?$AAD?$AAL?$AAL?$AA?$AA@ 10090600     LIBCMTD:rand_s.obj
 0002:00015620       ??_C@_1GA@EBEDGGGB@?$AA?$CI?$AA?$CC?$AAr?$AAa?$AAn?$AAd?$AA_?$AAs?$AA?5?$AAi?$AAs?$AA?5?$AAn?$AAo?$AAt?$AA?5?$AAa?$AAv?$AAa?$AAi?$AAl?$AAa?$AAb?$AAl?$AAe?$AA?5?$AAo?$AAn?$AA?5?$AAt?$AAh?$AAi@ 10090620     LIBCMTD:rand_s.obj
 0002:00015680       ??_C@_0BC@JEAENNKH@SystemFunction036?$AA@ 10090680     LIBCMTD:rand_s.obj
 0002:000156a4       ??_C@_1M@HPNHIDJI@?$AAj?$AAa?$AA?9?$AAJ?$AAP?$AA?$AA@ 100906a4     LIBCMTD:mbctype.obj
 0002:000156b0       ??_C@_1M@BIBDDEMK@?$AAz?$AAh?$AA?9?$AAC?$AAN?$AA?$AA@ 100906b0     LIBCMTD:mbctype.obj
 0002:000156bc       ??_C@_1M@JLOOOEGK@?$AAk?$AAo?$AA?9?$AAK?$AAR?$AA?$AA@ 100906bc     LIBCMTD:mbctype.obj
 0002:000156c8       ??_C@_1M@CLNBBOPM@?$AAz?$AAh?$AA?9?$AAT?$AAW?$AA?$AA@ 100906c8     LIBCMTD:mbctype.obj
 0002:000156d4       ??_C@_0DB@MHMEONEC@f?3?2dd?2vctools?2crt_bld?2self_x86?2c@ 100906d4     LIBCMTD:mbctype.obj
 0002:00015708       ??_C@_1BI@KANOLAMF@?$AA_?$AAo?$AAu?$AAt?$AAp?$AAu?$AAt?$AA_?$AAp?$AA_?$AAl?$AA?$AA@ 10090708     LIBCMTD:outputp.obj
 0002:00015720       ??_C@_1JC@PFJNKEIO@?$AA?$CI?$AA?$CI?$AAt?$AAy?$AAp?$AAe?$AA_?$AAp?$AAo?$AAs?$AA?5?$AA?$DO?$AA?$DN?$AA?5?$AA0?$AA?$CJ?$AA?5?$AA?$CG?$AA?$CG?$AA?5?$AA?$CI?$AA?$CK?$AAe?$AAn?$AAd?$AA_?$AAp?$AAo?$AAs?$AA?5?$AA?$DN?$AA?$DN@ 10090720     LIBCMTD:outputp.obj
 0002:000157b8       ??_C@_1EE@DMAIGNBG@?$AA?$CI?$AA?$CC?$AAI?$AAn?$AAc?$AAo?$AAr?$AAr?$AAe?$AAc?$AAt?$AA?5?$AAf?$AAo?$AAr?$AAm?$AAa?$AAt?$AA?5?$AAs?$AAp?$AAe?$AAc?$AAi?$AAf?$AAi?$AAe?$AAr?$AA?$CC?$AA?0?$AA?5?$AA0@ 100907b8     LIBCMTD:outputp.obj
 0002:00015800       ??_C@_1JE@NMBHOLFI@?$AA?$CI?$AA?$CI?$AAw?$AAi?$AAd?$AAt?$AAh?$AA_?$AAp?$AAo?$AAs?$AA?5?$AA?$DO?$AA?$DN?$AA?5?$AA0?$AA?$CJ?$AA?5?$AA?$CG?$AA?$CG?$AA?5?$AA?$CI?$AA?$CK?$AAe?$AAn?$AAd?$AA_?$AAp?$AAo?$AAs?$AA?5?$AA?$DN@ 10090800     LIBCMTD:outputp.obj
 0002:00015898       ??_C@_1II@PIPIMLPF@?$AA_?$AAt?$AAv?$AAa?$AAl?$AAi?$AAd?$AAa?$AAt?$AAe?$AA_?$AAp?$AAa?$AAr?$AAa?$AAm?$AA_?$AAr?$AAe?$AAu?$AAs?$AAe?$AA?$CI?$AA?$CG?$AAp?$AAo?$AAs?$AA_?$AAv?$AAa?$AAl?$AAu@ 10090898     LIBCMTD:outputp.obj
 0002:00015920       ??_C@_1JG@JBJBOCFB@?$AA?$CI?$AA?$CI?$AAp?$AAr?$AAe?$AAc?$AAi?$AAs?$AA_?$AAp?$AAo?$AAs?$AA?5?$AA?$DO?$AA?$DN?$AA?5?$AA0?$AA?$CJ?$AA?5?$AA?$CG?$AA?$CG?$AA?5?$AA?$CI?$AA?$CK?$AAe?$AAn?$AAd?$AA_?$AAp?$AAo?$AAs?$AA?5@ 10090920     LIBCMTD:outputp.obj
 0002:000159b8       ??_C@_1IK@EIEPDKHJ@?$AA_?$AAt?$AAv?$AAa?$AAl?$AAi?$AAd?$AAa?$AAt?$AAe?$AA_?$AAp?$AAa?$AAr?$AAa?$AAm?$AA_?$AAr?$AAe?$AAu?$AAs?$AAe?$AA?$CI?$AA?$CG?$AAp?$AAo?$AAs?$AA_?$AAv?$AAa?$AAl?$AAu@ 100909b8     LIBCMTD:outputp.obj
 0002:00015a48       ??_C@_1EM@BNPHBBIA@?$AA?$CI?$AA?$CI?$AAt?$AAy?$AAp?$AAe?$AA_?$AAp?$AAo?$AAs?$AA?$DO?$AA?$DN?$AA0?$AA?$CJ?$AA?5?$AA?$CG?$AA?$CG?$AA?5?$AA?$CI?$AAt?$AAy?$AAp?$AAe?$AA_?$AAp?$AAo?$AAs?$AA?$DM?$AA_?$AAA?$AAR?$AAG@ 10090a48     LIBCMTD:outputp.obj
 0002:00015a98       ??_C@_1IK@MHEDJAMK@?$AA_?$AAt?$AAv?$AAa?$AAl?$AAi?$AAd?$AAa?$AAt?$AAe?$AA_?$AAp?$AAa?$AAr?$AAa?$AAm?$AA_?$AAr?$AAe?$AAu?$AAs?$AAe?$AA?$CI?$AA?$CG?$AAp?$AAo?$AAs?$AA_?$AAv?$AAa?$AAl?$AAu@ 10090a98     LIBCMTD:outputp.obj
 0002:00015b28       ??_C@_1IG@FDCPLALG@?$AA_?$AAt?$AAv?$AAa?$AAl?$AAi?$AAd?$AAa?$AAt?$AAe?$AA_?$AAp?$AAa?$AAr?$AAa?$AAm?$AA_?$AAr?$AAe?$AAu?$AAs?$AAe?$AA?$CI?$AA?$CG?$AAp?$AAo?$AAs?$AA_?$AAv?$AAa?$AAl?$AAu@ 10090b28     LIBCMTD:outputp.obj
 0002:00015bb0       ??_C@_1IG@HJIMKDHC@?$AA_?$AAt?$AAv?$AAa?$AAl?$AAi?$AAd?$AAa?$AAt?$AAe?$AA_?$AAp?$AAa?$AAr?$AAa?$AAm?$AA_?$AAr?$AAe?$AAu?$AAs?$AAe?$AA?$CI?$AA?$CG?$AAp?$AAo?$AAs?$AA_?$AAv?$AAa?$AAl?$AAu@ 10090bb0     LIBCMTD:outputp.obj
 0002:00015c38       ??_C@_1IM@DNGHAPLB@?$AA_?$AAt?$AAv?$AAa?$AAl?$AAi?$AAd?$AAa?$AAt?$AAe?$AA_?$AAp?$AAa?$AAr?$AAa?$AAm?$AA_?$AAr?$AAe?$AAu?$AAs?$AAe?$AA?$CI?$AA?$CG?$AAp?$AAo?$AAs?$AA_?$AAv?$AAa?$AAl?$AAu@ 10090c38     LIBCMTD:outputp.obj
 0002:00015cc4       ??_C@_1DG@GOHGNKHE@?$AAp?$AAa?$AAs?$AAs?$AA?5?$AA?$DN?$AA?$DN?$AA?5?$AAF?$AAO?$AAR?$AAM?$AAA?$AAT?$AA_?$AAO?$AAU?$AAT?$AAP?$AAU?$AAT?$AA_?$AAP?$AAA?$AAS?$AAS?$AA?$AA@ 10090cc4     LIBCMTD:outputp.obj
 0002:00015d00       ??_C@_1IK@NBGDDCBN@?$AA_?$AAt?$AAv?$AAa?$AAl?$AAi?$AAd?$AAa?$AAt?$AAe?$AA_?$AAp?$AAa?$AAr?$AAa?$AAm?$AA_?$AAr?$AAe?$AAu?$AAs?$AAe?$AA?$CI?$AA?$CG?$AAp?$AAo?$AAs?$AA_?$AAv?$AAa?$AAl?$AAu@ 10090d00     LIBCMTD:outputp.obj
 0002:00015d90       ??_C@_1JC@OACKELNN@?$AA_?$AAt?$AAv?$AAa?$AAl?$AAi?$AAd?$AAa?$AAt?$AAe?$AA_?$AAp?$AAa?$AAr?$AAa?$AAm?$AA_?$AAr?$AAe?$AAu?$AAs?$AAe?$AA?$CI?$AA?$CG?$AAp?$AAo?$AAs?$AA_?$AAv?$AAa?$AAl?$AAu@ 10090d90     LIBCMTD:outputp.obj
 0002:00015e28       ??_C@_1FK@LNCFKALM@?$AA?$CI?$AA?$CI?$AAs?$AAt?$AAa?$AAt?$AAe?$AA?5?$AA?$DN?$AA?$DN?$AA?5?$AAS?$AAT?$AA_?$AAN?$AAO?$AAR?$AAM?$AAA?$AAL?$AA?$CJ?$AA?5?$AA?$HM?$AA?$HM?$AA?5?$AA?$CI?$AAs?$AAt?$AAa?$AAt?$AAe?$AA?5@ 10090e28     LIBCMTD:outputp.obj
 0002:00015e88       ??_C@_1FK@BCPANIEK@?$AA?$CI?$AA?$CC?$AAM?$AAi?$AAs?$AAs?$AAi?$AAn?$AAg?$AA?5?$AAp?$AAo?$AAs?$AAi?$AAt?$AAi?$AAo?$AAn?$AA?5?$AAi?$AAn?$AA?5?$AAt?$AAh?$AAe?$AA?5?$AAf?$AAo?$AAr?$AAm?$AAa?$AAt@ 10090e88     LIBCMTD:outputp.obj
 0002:00015ee8       ??_C@_1BJK@FEBNHLFF@?$AA?$CI?$AA?$CI?$AAp?$AAt?$AAl?$AAo?$AAc?$AAi?$AA?9?$AA?$DO?$AAl?$AAc?$AA_?$AAc?$AAa?$AAt?$AAe?$AAg?$AAo?$AAr?$AAy?$AA?$FL?$AAc?$AAa?$AAt?$AAe?$AAg?$AAo?$AAr?$AAy?$AA?$FN?$AA?4@ 10090ee8     LIBCMTD:localref.obj
 0002:00016088       ??_C@_1GE@HMAALBPJ@?$AAf?$AA?3?$AA?2?$AAd?$AAd?$AA?2?$AAv?$AAc?$AAt?$AAo?$AAo?$AAl?$AAs?$AA?2?$AAc?$AAr?$AAt?$AA_?$AAb?$AAl?$AAd?$AA?2?$AAs?$AAe?$AAl?$AAf?$AA_?$AAx?$AA8?$AA6?$AA?2?$AAc@ 10091088     LIBCMTD:localref.obj
 0002:000160ec       ??_C@_1CI@JELMFMDH@?$AAc?$AA?5?$AA?$DO?$AA?$DN?$AA?5?$AA?9?$AA1?$AA?5?$AA?$CG?$AA?$CG?$AA?5?$AAc?$AA?5?$AA?$DM?$AA?$DN?$AA?5?$AA2?$AA5?$AA5?$AA?$AA@ 100910ec     LIBCMTD:isctype.obj
 0002:00016118       ??_C@_1GC@CHGJNMHG@?$AAf?$AA?3?$AA?2?$AAd?$AAd?$AA?2?$AAv?$AAc?$AAt?$AAo?$AAo?$AAl?$AAs?$AA?2?$AAc?$AAr?$AAt?$AA_?$AAb?$AAl?$AAd?$AA?2?$AAs?$AAe?$AAl?$AAf?$AA_?$AAx?$AA8?$AA6?$AA?2?$AAc@ 10091118     LIBCMTD:isctype.obj
 0002:0001617c       ??_C@_1BO@KFIJIAEA@?$AAp?$AAB?$AAl?$AAo?$AAc?$AAk?$AA?5?$AA?$CB?$AA?$DN?$AA?5?$AAN?$AAU?$AAL?$AAL?$AA?$AA@ 1009117c     LIBCMTD:expand.obj
 0002:000161a0       ??_C@_1GA@EBHFLDNH@?$AAf?$AA?3?$AA?2?$AAd?$AAd?$AA?2?$AAv?$AAc?$AAt?$AAo?$AAo?$AAl?$AAs?$AA?2?$AAc?$AAr?$AAt?$AA_?$AAb?$AAl?$AAd?$AA?2?$AAs?$AAe?$AAl?$AAf?$AA_?$AAx?$AA8?$AA6?$AA?2?$AAc@ 100911a0     LIBCMTD:expand.obj
 0002:00016200       ??_C@_1BK@JMCGJOCC@?$AA_?$AAe?$AAx?$AAp?$AAa?$AAn?$AAd?$AA_?$AAb?$AAa?$AAs?$AAe?$AA?$AA@ 10091200     LIBCMTD:expand.obj
 0002:00016228       ??_C@_03KHICJKCI@?4?4?4?$AA@ 10091228     LIBCMTD:dbgrpt.obj
 0002:0001622c       ??_C@_1CG@GNMJDMIO@?$AA_?$AAC?$AAr?$AAt?$AAS?$AAe?$AAt?$AAR?$AAe?$AAp?$AAo?$AAr?$AAt?$AAH?$AAo?$AAo?$AAk?$AA2?$AA?$AA@ 1009122c     LIBCMTD:dbgrpt.obj
 0002:00016254       ??_C@_1CI@IDOKFLAJ@?$AA_?$AA_?$AAc?$AAr?$AAt?$AAM?$AAe?$AAs?$AAs?$AAa?$AAg?$AAe?$AAW?$AAi?$AAn?$AAd?$AAo?$AAw?$AAA?$AA?$AA@ 10091254     LIBCMTD:dbgrpt.obj
 0002:00016280       ??_C@_1GG@DLDHOIGE@?$AAs?$AAt?$AAr?$AAc?$AAp?$AAy?$AA_?$AAs?$AA?$CI?$AAs?$AAz?$AAE?$AAx?$AAe?$AAN?$AAa?$AAm?$AAe?$AA?0?$AA?5?$AA2?$AA6?$AA0?$AA?0?$AA?5?$AA?$CC?$AA?$DM?$AAp?$AAr?$AAo?$AAg?$AAr@ 10091280     LIBCMTD:dbgrpt.obj
 0002:000162e8       ??_C@_0BH@DNAGHKFM@?$DMprogram?5name?5unknown?$DO?$AA@ 100912e8     LIBCMTD:dbgrpt.obj
 0002:00016300       ??_C@_1LG@BEHAHJLI@?$AAD?$AAe?$AAb?$AAu?$AAg?$AA?5?$AA?$CF?$AAs?$AA?$CB?$AA?6?$AA?6?$AAP?$AAr?$AAo?$AAg?$AAr?$AAa?$AAm?$AA?3?$AA?5?$AA?$CF?$AAh?$AAs?$AA?$CF?$AAs?$AA?$CF?$AAs?$AA?$CF?$AAh?$AAs?$AA?$CF?$AAs@ 10091300     LIBCMTD:dbgrpt.obj
 0002:000163b8       ??_C@_1BA@KBJJGFFE@?$AAs?$AAp?$AAr?$AAi?$AAn?$AAt?$AAf?$AA?$AA@ 100913b8     LIBCMTD:sprintf.obj
 0002:000163c8       ??_C@_03KOEHGMDN@Sun?$AA@  100913c8     LIBCMTD:nlsdata.obj
 0002:000163cc       ??_C@_03PDAGKDH@Mon?$AA@   100913cc     LIBCMTD:nlsdata.obj
 0002:000163d0       ??_C@_03NAGEINEP@Tue?$AA@  100913d0     LIBCMTD:nlsdata.obj
 0002:000163d4       ??_C@_03MHOMLAJA@Wed?$AA@  100913d4     LIBCMTD:nlsdata.obj
 0002:000163d8       ??_C@_03IOFIKPDN@Thu?$AA@  100913d8     LIBCMTD:nlsdata.obj
 0002:000163dc       ??_C@_03IDIOELNC@Fri?$AA@  100913dc     LIBCMTD:nlsdata.obj
 0002:000163e0       ??_C@_03FEFJNEK@Sat?$AA@   100913e0     LIBCMTD:nlsdata.obj
 0002:000163e4       ??_C@_06OOPIFAJ@Sunday?$AA@ 100913e4     LIBCMTD:nlsdata.obj
 0002:000163ec       ??_C@_06JLEDEDGH@Monday?$AA@ 100913ec     LIBCMTD:nlsdata.obj
 0002:000163f4       ??_C@_07BAAGCFCM@Tuesday?$AA@ 100913f4     LIBCMTD:nlsdata.obj
 0002:000163fc       ??_C@_09DLIGFAKA@Wednesday?$AA@ 100913fc     LIBCMTD:nlsdata.obj
 0002:00016408       ??_C@_08HACCIKIA@Thursday?$AA@ 10091408     LIBCMTD:nlsdata.obj
 0002:00016414       ??_C@_06JECMNKMI@Friday?$AA@ 10091414     LIBCMTD:nlsdata.obj
 0002:0001641c       ??_C@_08INBOOONO@Saturday?$AA@ 1009141c     LIBCMTD:nlsdata.obj
 0002:00016428       ??_C@_03JIHJHPIE@Jan?$AA@  10091428     LIBCMTD:nlsdata.obj
 0002:0001642c       ??_C@_03HJBDCHOM@Feb?$AA@  1009142c     LIBCMTD:nlsdata.obj
 0002:00016430       ??_C@_03ODNJBKGA@Mar?$AA@  10091430     LIBCMTD:nlsdata.obj
 0002:00016434       ??_C@_03LEOLGMJP@Apr?$AA@  10091434     LIBCMTD:nlsdata.obj
 0002:00016438       ??_C@_03CNMDKL@May?$AA@    10091438     LIBCMTD:nlsdata.obj
 0002:0001643c       ??_C@_03IDFGHECI@Jun?$AA@  1009143c     LIBCMTD:nlsdata.obj
 0002:00016440       ??_C@_03LBGABGKK@Jul?$AA@  10091440     LIBCMTD:nlsdata.obj
 0002:00016444       ??_C@_03IFJFEIGA@Aug?$AA@  10091444     LIBCMTD:nlsdata.obj
 0002:00016448       ??_C@_03GGCAPAJC@Sep?$AA@  10091448     LIBCMTD:nlsdata.obj
 0002:0001644c       ??_C@_03BMAOKBAD@Oct?$AA@  1009144c     LIBCMTD:nlsdata.obj
 0002:00016450       ??_C@_03JPJOFNIA@Nov?$AA@  10091450     LIBCMTD:nlsdata.obj
 0002:00016454       ??_C@_03MKABNOCG@Dec?$AA@  10091454     LIBCMTD:nlsdata.obj
 0002:00016458       ??_C@_07CGJPFGJA@January?$AA@ 10091458     LIBCMTD:nlsdata.obj
 0002:00016460       ??_C@_08GNJGEPFN@February?$AA@ 10091460     LIBCMTD:nlsdata.obj
 0002:0001646c       ??_C@_05HPCKOFNC@March?$AA@ 1009146c     LIBCMTD:nlsdata.obj
 0002:00016474       ??_C@_05DMJDNLEJ@April?$AA@ 10091474     LIBCMTD:nlsdata.obj
 0002:0001647c       ??_C@_04CNLMGBGM@June?$AA@ 1009147c     LIBCMTD:nlsdata.obj
 0002:00016484       ??_C@_04MIEPOIFP@July?$AA@ 10091484     LIBCMTD:nlsdata.obj
 0002:0001648c       ??_C@_06LBBHFDDG@August?$AA@ 1009148c     LIBCMTD:nlsdata.obj
 0002:00016494       ??_C@_09BHHEALKD@September?$AA@ 10091494     LIBCMTD:nlsdata.obj
 0002:000164a0       ??_C@_07JJNFCEND@October?$AA@ 100914a0     LIBCMTD:nlsdata.obj
 0002:000164a8       ??_C@_08HCHEGEOA@November?$AA@ 100914a8     LIBCMTD:nlsdata.obj
 0002:000164b4       ??_C@_08EDHMEBNP@December?$AA@ 100914b4     LIBCMTD:nlsdata.obj
 0002:000164c0       ??_C@_02DEDBPAFC@AM?$AA@   100914c0     LIBCMTD:nlsdata.obj
 0002:000164c4       ??_C@_02CJNFDJBF@PM?$AA@   100914c4     LIBCMTD:nlsdata.obj
 0002:000164c8       ??_C@_08BPBNCDIB@MM?1dd?1yy?$AA@ 100914c8     LIBCMTD:nlsdata.obj
 0002:000164d4       ??_C@_0BE@CKGJFCPC@dddd?0?5MMMM?5dd?0?5yyyy?$AA@ 100914d4     LIBCMTD:nlsdata.obj
 0002:000164e8       ??_C@_08JCCMCCIL@HH?3mm?3ss?$AA@ 100914e8     LIBCMTD:nlsdata.obj
 0002:000164f4       ??_C@_17MBGCMIPB@?$AAS?$AAu?$AAn?$AA?$AA@ 100914f4     LIBCMTD:nlsdata.obj
 0002:000164fc       ??_C@_17KBOMKBF@?$AAM?$AAo?$AAn?$AA?$AA@ 100914fc     LIBCMTD:nlsdata.obj
 0002:00016504       ??_C@_17BMKGEGOJ@?$AAT?$AAu?$AAe?$AA?$AA@ 10091504     LIBCMTD:nlsdata.obj
 0002:0001650c       ??_C@_17CJEDCEPE@?$AAW?$AAe?$AAd?$AA?$AA@ 1009150c     LIBCMTD:nlsdata.obj
 0002:00016514       ??_C@_17PDPHAADD@?$AAT?$AAh?$AAu?$AA?$AA@ 10091514     LIBCMTD:nlsdata.obj
 0002:0001651c       ??_C@_17HFOLPPLP@?$AAF?$AAr?$AAi?$AA?$AA@ 1009151c     LIBCMTD:nlsdata.obj
 0002:00016524       ??_C@_17GGIBDPIH@?$AAS?$AAa?$AAt?$AA?$AA@ 10091524     LIBCMTD:nlsdata.obj
 0002:0001652c       ??_C@_1O@IHNHDHPB@?$AAS?$AAu?$AAn?$AAd?$AAa?$AAy?$AA?$AA@ 1009152c     LIBCMTD:nlsdata.obj
 0002:0001653c       ??_C@_1O@MMNBFLIA@?$AAM?$AAo?$AAn?$AAd?$AAa?$AAy?$AA?$AA@ 1009153c     LIBCMTD:nlsdata.obj
 0002:0001654c       ??_C@_1BA@ENFBFFEK@?$AAT?$AAu?$AAe?$AAs?$AAd?$AAa?$AAy?$AA?$AA@ 1009154c     LIBCMTD:nlsdata.obj
 0002:0001655c       ??_C@_1BE@EBOGMDOH@?$AAW?$AAe?$AAd?$AAn?$AAe?$AAs?$AAd?$AAa?$AAy?$AA?$AA@ 1009155c     LIBCMTD:nlsdata.obj
 0002:00016570       ??_C@_1BC@HHMNLIHE@?$AAT?$AAh?$AAu?$AAr?$AAs?$AAd?$AAa?$AAy?$AA?$AA@ 10091570     LIBCMTD:nlsdata.obj
 0002:00016584       ??_C@_1O@PDICJHAG@?$AAF?$AAr?$AAi?$AAd?$AAa?$AAy?$AA?$AA@ 10091584     LIBCMTD:nlsdata.obj
 0002:00016594       ??_C@_1BC@ENMNNPAJ@?$AAS?$AAa?$AAt?$AAu?$AAr?$AAd?$AAa?$AAy?$AA?$AA@ 10091594     LIBCMTD:nlsdata.obj
 0002:000165a8       ??_C@_17DKNBKCHM@?$AAJ?$AAa?$AAn?$AA?$AA@ 100915a8     LIBCMTD:nlsdata.obj
 0002:000165b0       ??_C@_17LMDJEKJN@?$AAF?$AAe?$AAb?$AA?$AA@ 100915b0     LIBCMTD:nlsdata.obj
 0002:000165b8       ??_C@_17CKNLEDEC@?$AAM?$AAa?$AAr?$AA?$AA@ 100915b8     LIBCMTD:nlsdata.obj
 0002:000165c0       ??_C@_17LFPOIHDD@?$AAA?$AAp?$AAr?$AA?$AA@ 100915c0     LIBCMTD:nlsdata.obj
 0002:000165c8       ??_C@_17PNNKMEED@?$AAM?$AAa?$AAy?$AA?$AA@ 100915c8     LIBCMTD:nlsdata.obj
 0002:000165d0       ??_C@_17KCJGOCPB@?$AAJ?$AAu?$AAn?$AA?$AA@ 100915d0     LIBCMTD:nlsdata.obj
 0002:000165d8       ??_C@_17IJPCKHK@?$AAJ?$AAu?$AAl?$AA?$AA@ 100915d8     LIBCMTD:nlsdata.obj
 0002:000165e0       ??_C@_17ICPELBCN@?$AAA?$AAu?$AAg?$AA?$AA@ 100915e0     LIBCMTD:nlsdata.obj
 0002:000165e8       ??_C@_17HCHCOKMG@?$AAS?$AAe?$AAp?$AA?$AA@ 100915e8     LIBCMTD:nlsdata.obj
 0002:000165f0       ??_C@_17FNLKOI@?$AAO?$AAc?$AAt?$AA?$AA@ 100915f0     LIBCMTD:nlsdata.obj
 0002:000165f8       ??_C@_17BBDMLCIG@?$AAN?$AAo?$AAv?$AA?$AA@ 100915f8     LIBCMTD:nlsdata.obj
 0002:00016600       ??_C@_17EGKACKIF@?$AAD?$AAe?$AAc?$AA?$AA@ 10091600     LIBCMTD:nlsdata.obj
 0002:00016608       ??_C@_1BA@EFMEIEBA@?$AAJ?$AAa?$AAn?$AAu?$AAa?$AAr?$AAy?$AA?$AA@ 10091608     LIBCMTD:nlsdata.obj
 0002:00016618       ??_C@_1BC@JGDDFFAM@?$AAF?$AAe?$AAb?$AAr?$AAu?$AAa?$AAr?$AAy?$AA?$AA@ 10091618     LIBCMTD:nlsdata.obj
 0002:0001662c       ??_C@_1M@IKEENEDF@?$AAM?$AAa?$AAr?$AAc?$AAh?$AA?$AA@ 1009162c     LIBCMTD:nlsdata.obj
 0002:00016638       ??_C@_1M@GJNLMHFD@?$AAA?$AAp?$AAr?$AAi?$AAl?$AA?$AA@ 10091638     LIBCMTD:nlsdata.obj
 0002:00016644       ??_C@_19EPFLPGAP@?$AAJ?$AAu?$AAn?$AAe?$AA?$AA@ 10091644     LIBCMTD:nlsdata.obj
 0002:00016650       ??_C@_19BIFMLPCD@?$AAJ?$AAu?$AAl?$AAy?$AA?$AA@ 10091650     LIBCMTD:nlsdata.obj
 0002:0001665c       ??_C@_1O@PAHLKOAC@?$AAA?$AAu?$AAg?$AAu?$AAs?$AAt?$AA?$AA@ 1009165c     LIBCMTD:nlsdata.obj
 0002:0001666c       ??_C@_1BE@DKAAMBJL@?$AAS?$AAe?$AAp?$AAt?$AAe?$AAm?$AAb?$AAe?$AAr?$AA?$AA@ 1009166c     LIBCMTD:nlsdata.obj
 0002:00016680       ??_C@_1BA@EPANDLNG@?$AAO?$AAc?$AAt?$AAo?$AAb?$AAe?$AAr?$AA?$AA@ 10091680     LIBCMTD:nlsdata.obj
 0002:00016690       ??_C@_1BC@BGLIFPF@?$AAN?$AAo?$AAv?$AAe?$AAm?$AAb?$AAe?$AAr?$AA?$AA@ 10091690     LIBCMTD:nlsdata.obj
 0002:000166a4       ??_C@_1BC@FEMKIFH@?$AAD?$AAe?$AAc?$AAe?$AAm?$AAb?$AAe?$AAr?$AA?$AA@ 100916a4     LIBCMTD:nlsdata.obj
 0002:000166b8       ??_C@_15ODEHAHHF@?$AAA?$AAM?$AA?$AA@ 100916b8     LIBCMTD:nlsdata.obj
 0002:000166c0       ??_C@_15CLMNNGEL@?$AAP?$AAM?$AA?$AA@ 100916c0     LIBCMTD:nlsdata.obj
 0002:000166c8       ??_C@_1BC@IEBCMHCM@?$AAM?$AAM?$AA?1?$AAd?$AAd?$AA?1?$AAy?$AAy?$AA?$AA@ 100916c8     LIBCMTD:nlsdata.obj
 0002:000166dc       ??_C@_1CI@KNAKOEBC@?$AAd?$AAd?$AAd?$AAd?$AA?0?$AA?5?$AAM?$AAM?$AAM?$AAM?$AA?5?$AAd?$AAd?$AA?0?$AA?5?$AAy?$AAy?$AAy?$AAy?$AA?$AA@ 100916dc     LIBCMTD:nlsdata.obj
 0002:00016704       ??_C@_1BC@GDGBMEMK@?$AAH?$AAH?$AA?3?$AAm?$AAm?$AA?3?$AAs?$AAs?$AA?$AA@ 10091704     LIBCMTD:nlsdata.obj
 0002:00016718       ??_C@_1M@BMHNFIME@?$AAe?$AAn?$AA?9?$AAU?$AAS?$AA?$AA@ 10091718     LIBCMTD:nlsdata.obj
 0002:00016724       ?LocalIdBitWidth@CrossScopeId@CodeViewInfo@@2IB 10091724     LIBCMTD:pdblkup.obj
 0002:00016728       ?IdScopeBitWidth@CrossScopeId@CodeViewInfo@@2IB 10091728     LIBCMTD:pdblkup.obj
 0002:0001672c       ?StartCrossScopeId@CrossScopeId@CodeViewInfo@@2IB 1009172c     LIBCMTD:pdblkup.obj
 0002:00016730       ?LocalIdMask@CrossScopeId@CodeViewInfo@@2IB 10091730     LIBCMTD:pdblkup.obj
 0002:00016734       ?ScopeIdMask@CrossScopeId@CodeViewInfo@@2IB 10091734     LIBCMTD:pdblkup.obj
 0002:00016738       ?MaxLocalId@CrossScopeId@CodeViewInfo@@2IB 10091738     LIBCMTD:pdblkup.obj
 0002:0001673c       ?MaxScopeId@CrossScopeId@CodeViewInfo@@2IB 1009173c     LIBCMTD:pdblkup.obj
 0002:00016778       ??_C@_0O@COHOBMLB@RegOpenKeyExW?$AA@ 10091778     LIBCMTD:pdblkup.obj
 0002:00016788       ??_C@_0BB@GLNAEDBD@RegQueryValueExW?$AA@ 10091788     LIBCMTD:pdblkup.obj
 0002:0001679c       ??_C@_0M@HLOHPNFA@RegCloseKey?$AA@ 1009179c     LIBCMTD:pdblkup.obj
 0002:000167a8       ??_C@_1FM@OEMPKHJI@?$AAS?$AAO?$AAF?$AAT?$AAW?$AAA?$AAR?$AAE?$AA?2?$AAM?$AAi?$AAc?$AAr?$AAo?$AAs?$AAo?$AAf?$AAt?$AA?2?$AAV?$AAi?$AAs?$AAu?$AAa?$AAl?$AAS?$AAt?$AAu?$AAd?$AAi?$AAo?$AA?2@ 100917a8     LIBCMTD:pdblkup.obj
 0002:00016804       ??_C@_1CK@HHHCOJPD@?$AAE?$AAn?$AAv?$AAi?$AAr?$AAo?$AAn?$AAm?$AAe?$AAn?$AAt?$AAD?$AAi?$AAr?$AAe?$AAc?$AAt?$AAo?$AAr?$AAy?$AA?$AA@ 10091804     LIBCMTD:pdblkup.obj
 0002:0001684c       ??_C@_1BC@MIBIBMGK@?$AAM?$AAS?$AAP?$AAD?$AAB?$AA1?$AA1?$AA0?$AA?$AA@ 1009184c     LIBCMTD:pdblkup.obj
 0002:00016860       ??_C@_0BB@KCIACLNC@PDBOpenValidate5?$AA@ 10091860     LIBCMTD:pdblkup.obj
 0002:00016874       ??_C@_01KDCPPGHE@r?$AA@    10091874     LIBCMTD:pdblkup.obj
 0002:00016878       ??_C@_1GE@BDKOPHIO@?$AAf?$AA?3?$AA?2?$AAd?$AAd?$AA?2?$AAv?$AAc?$AAt?$AAo?$AAo?$AAl?$AAs?$AA?2?$AAc?$AAr?$AAt?$AA_?$AAb?$AAl?$AAd?$AA?2?$AAs?$AAe?$AAl?$AAf?$AA_?$AAx?$AA8?$AA6?$AA?2?$AAc@ 10091878     LIBCMTD:_fptostr.obj
 0002:000168dc       ??_C@_1BC@OPALLEB@?$AA_?$AAf?$AAp?$AAt?$AAo?$AAs?$AAt?$AAr?$AA?$AA@ 100918dc     LIBCMTD:_fptostr.obj
 0002:000168f0       ??_C@_1GM@CEDLGDDI@?$AAs?$AAi?$AAz?$AAe?$AAI?$AAn?$AAB?$AAy?$AAt?$AAe?$AAs?$AA?5?$AA?$DO?$AA?5?$AA?$CI?$AAs?$AAi?$AAz?$AAe?$AA_?$AAt?$AA?$CJ?$AA?$CI?$AA?$CI?$AAd?$AAi?$AAg?$AAi?$AAt?$AAs?$AA?5?$AA?$DO@ 100918f0     LIBCMTD:_fptostr.obj
 0002:0001695c       ??_C@_1BK@CLIEHFDF@?$AAp?$AAf?$AAl?$AAt?$AA?5?$AA?$CB?$AA?$DN?$AA?5?$AAN?$AAU?$AAL?$AAL?$AA?$AA@ 1009195c     LIBCMTD:_fptostr.obj
 0002:00016978       ??_C@_1HC@PKFDNKN@?$AAf?$AA?3?$AA?2?$AAd?$AAd?$AA?2?$AAv?$AAc?$AAt?$AAo?$AAo?$AAl?$AAs?$AA?2?$AAc?$AAr?$AAt?$AA_?$AAb?$AAl?$AAd?$AA?2?$AAs?$AAe?$AAl?$AAf?$AA_?$AAx?$AA8?$AA6?$AA?2?$AAc@ 10091978     LIBCMTD:cfout.obj
 0002:000169ec       ??_C@_1BC@BPMMEHLK@?$AA_?$AAf?$AAl?$AAt?$AAo?$AAu?$AAt?$AA2?$AA?$AA@ 100919ec     LIBCMTD:cfout.obj
 0002:00016a00       ??_C@_1FK@KODCOBKF@?$AAs?$AAt?$AAr?$AAc?$AAp?$AAy?$AA_?$AAs?$AA?$CI?$AAr?$AAe?$AAs?$AAu?$AAl?$AAt?$AAs?$AAt?$AAr?$AA?0?$AA?5?$AAr?$AAe?$AAs?$AAu?$AAl?$AAt?$AAs?$AAi?$AAz?$AAe?$AA?0?$AA?5@ 10091a00     LIBCMTD:cfout.obj
 0002:00016a60       ??_C@_1EM@EGEEBJLG@?$AA?$CI?$AAo?$AAp?$AAt?$AAi?$AAo?$AAn?$AAs?$AA?5?$AA?$CG?$AA?5?$AA?$HO?$AA_?$AAT?$AAW?$AAO?$AA_?$AAD?$AAI?$AAG?$AAI?$AAT?$AA_?$AAE?$AAX?$AAP?$AAO?$AAN?$AAE?$AAN?$AAT?$AA?$CJ@ 10091a60     LIBCMTD:outputformat.obj
 0002:00016ab0       ??_C@_1GM@NFGGJJCM@?$AAf?$AA?3?$AA?2?$AAd?$AAd?$AA?2?$AAv?$AAc?$AAt?$AAo?$AAo?$AAl?$AAs?$AA?2?$AAc?$AAr?$AAt?$AA_?$AAb?$AAl?$AAd?$AA?2?$AAs?$AAe?$AAl?$AAf?$AA_?$AAx?$AA8?$AA6?$AA?2?$AAc@ 10091ab0     LIBCMTD:outputformat.obj
 0002:00016b1c       ??_C@_1CG@EBJECAJM@?$AA_?$AAs?$AAe?$AAt?$AA_?$AAo?$AAu?$AAt?$AAp?$AAu?$AAt?$AA_?$AAf?$AAo?$AAr?$AAm?$AAa?$AAt?$AA?$AA@ 10091b1c     LIBCMTD:outputformat.obj
 0002:00016b44       ??_C@_1DG@JNDMIEJL@?$AA?$CI?$AA?$CC?$AAI?$AAn?$AAv?$AAa?$AAl?$AAi?$AAd?$AA?5?$AAi?$AAn?$AAp?$AAu?$AAt?$AA?5?$AAv?$AAa?$AAl?$AAu?$AAe?$AA?$CC?$AA?0?$AA?5?$AA0?$AA?$CJ?$AA?$AA@ 10091b44     LIBCMTD:contrlfp.obj
 0002:00016b80       ??_C@_1HI@JIOCECAH@?$AAf?$AA?3?$AA?2?$AAd?$AAd?$AA?2?$AAv?$AAc?$AAt?$AAo?$AAo?$AAl?$AAs?$AA?2?$AAc?$AAr?$AAt?$AA_?$AAb?$AAl?$AAd?$AA?2?$AAs?$AAe?$AAl?$AAf?$AA_?$AAx?$AA8?$AA6?$AA?2?$AAc@ 10091b80     LIBCMTD:contrlfp.obj
 0002:00016bf8       ??_C@_1BK@CDOALEA@?$AA_?$AAc?$AAo?$AAn?$AAt?$AAr?$AAo?$AAl?$AAf?$AAp?$AA_?$AAs?$AA?$AA@ 10091bf8     LIBCMTD:contrlfp.obj
 0002:00016c14       ??_C@_0DB@KIKNCIEC@f?3?2dd?2vctools?2crt_bld?2self_x86?2c@ 10091c14     LIBCMTD:osfinfo.obj
 0002:00016c48       ??_C@_1GC@MLKLDJJG@?$AAf?$AA?3?$AA?2?$AAd?$AAd?$AA?2?$AAv?$AAc?$AAt?$AAo?$AAo?$AAl?$AAs?$AA?2?$AAc?$AAr?$AAt?$AA_?$AAb?$AAl?$AAd?$AA?2?$AAs?$AAe?$AAl?$AAf?$AA_?$AAx?$AA8?$AA6?$AA?2?$AAc@ 10091c48     LIBCMTD:osfinfo.obj
 0002:00016cac       ??_C@_1BO@EMBOBGKE@?$AA_?$AAg?$AAe?$AAt?$AA_?$AAo?$AAs?$AAf?$AAh?$AAa?$AAn?$AAd?$AAl?$AAe?$AA?$AA@ 10091cac     LIBCMTD:osfinfo.obj
 0002:00016cd0       ??_C@_1HC@KFLBHHBC@?$AA?$CI?$AAf?$AAi?$AAl?$AAe?$AAd?$AAe?$AAs?$AA?5?$AA?$DO?$AA?$DN?$AA?5?$AA0?$AA?5?$AA?$CG?$AA?$CG?$AA?5?$AA?$CI?$AAu?$AAn?$AAs?$AAi?$AAg?$AAn?$AAe?$AAd?$AA?$CJ?$AAf?$AAi?$AAl?$AAe?$AAd@ 10091cd0     LIBCMTD:commit.obj
 0002:00016d48       ??_C@_1GA@BOPCOCFN@?$AAf?$AA?3?$AA?2?$AAd?$AAd?$AA?2?$AAv?$AAc?$AAt?$AAo?$AAo?$AAl?$AAs?$AA?2?$AAc?$AAr?$AAt?$AA_?$AAb?$AAl?$AAd?$AA?2?$AAs?$AAe?$AAl?$AAf?$AA_?$AAx?$AA8?$AA6?$AA?2?$AAc@ 10091d48     LIBCMTD:commit.obj
 0002:00016da8       ??_C@_1BA@FLNMBBIM@?$AA_?$AAc?$AAo?$AAm?$AAm?$AAi?$AAt?$AA?$AA@ 10091da8     LIBCMTD:commit.obj
 0002:00016db8       ??_C@_1DG@LNNHNFHJ@?$AA?$CI?$AA_?$AAo?$AAs?$AAf?$AAi?$AAl?$AAe?$AA?$CI?$AAf?$AAi?$AAl?$AAe?$AAd?$AAe?$AAs?$AA?$CJ?$AA?5?$AA?$CG?$AA?5?$AAF?$AAO?$AAP?$AAE?$AAN?$AA?$CJ?$AA?$AA@ 10091db8     LIBCMTD:commit.obj
 0002:00016df0       ??_C@_1BO@DPAOGEII@?$AA?$CI?$AAp?$AAa?$AAt?$AAh?$AA?5?$AA?$CB?$AA?$DN?$AA?5?$AAN?$AAU?$AAL?$AAL?$AA?$CJ?$AA?$AA@ 10091df0     LIBCMTD:open.obj
 0002:00016e10       ??_C@_1FM@LFKHNNH@?$AAf?$AA?3?$AA?2?$AAd?$AAd?$AA?2?$AAv?$AAc?$AAt?$AAo?$AAo?$AAl?$AAs?$AA?2?$AAc?$AAr?$AAt?$AA_?$AAb?$AAl?$AAd?$AA?2?$AAs?$AAe?$AAl?$AAf?$AA_?$AAx?$AA8?$AA6?$AA?2?$AAc@ 10091e10     LIBCMTD:open.obj
 0002:00016e6c       ??_C@_1M@MFLJCMFJ@?$AA_?$AAo?$AAp?$AAe?$AAn?$AA?$AA@ 10091e6c     LIBCMTD:open.obj
 0002:00016e78       ??_C@_1BM@PGEEHLHE@?$AA?$CI?$AAp?$AAf?$AAh?$AA?5?$AA?$CB?$AA?$DN?$AA?5?$AAN?$AAU?$AAL?$AAL?$AA?$CJ?$AA?$AA@ 10091e78     LIBCMTD:open.obj
 0002:00016e94       ??_C@_1BM@IOBAMMHO@?$AA_?$AAs?$AAo?$AAp?$AAe?$AAn?$AA_?$AAh?$AAe?$AAl?$AAp?$AAe?$AAr?$AA?$AA@ 10091e94     LIBCMTD:open.obj
 0002:00016eb0       ??_C@_1FG@NFINBJCM@?$AA?$CI?$AA?$CI?$AAp?$AAm?$AAo?$AAd?$AAe?$AA?5?$AA?$CG?$AA?5?$AA?$CI?$AA?$HO?$AA?$CI?$AA_?$AAS?$AA_?$AAI?$AAR?$AAE?$AAA?$AAD?$AA?5?$AA?$HM?$AA?5?$AA_?$AAS?$AA_?$AAI?$AAW?$AAR?$AAI?$AAT@ 10091eb0     LIBCMTD:open.obj
 0002:00016f08       ??_C@_1BG@MODEICJK@?$AAs?$AA1?$AA?5?$AA?$CB?$AA?$DN?$AA?5?$AAN?$AAU?$AAL?$AAL?$AA?$AA@ 10091f08     LIBCMTD:mbsnbcmp.obj
 0002:00016f20       ??_C@_1GE@IIBFGEPN@?$AAf?$AA?3?$AA?2?$AAd?$AAd?$AA?2?$AAv?$AAc?$AAt?$AAo?$AAo?$AAl?$AAs?$AA?2?$AAc?$AAr?$AAt?$AA_?$AAb?$AAl?$AAd?$AA?2?$AAs?$AAe?$AAl?$AAf?$AA_?$AAx?$AA8?$AA6?$AA?2?$AAc@ 10091f20     LIBCMTD:mbsnbcmp.obj
 0002:00016f84       ??_C@_1BI@LPHOHGHI@?$AA_?$AAm?$AAb?$AAs?$AAn?$AAb?$AAc?$AAm?$AAp?$AA_?$AAl?$AA?$AA@ 10091f84     LIBCMTD:mbsnbcmp.obj
 0002:00016f9c       ??_C@_1BG@GBJNMPFA@?$AAs?$AA2?$AA?5?$AA?$CB?$AA?$DN?$AA?5?$AAN?$AAU?$AAL?$AAL?$AA?$AA@ 10091f9c     LIBCMTD:mbsnbcmp.obj
 0002:00016fb8       ??_C@_1GE@JLFFJINF@?$AAf?$AA?3?$AA?2?$AAd?$AAd?$AA?2?$AAv?$AAc?$AAt?$AAo?$AAo?$AAl?$AAs?$AA?2?$AAc?$AAr?$AAt?$AA_?$AAb?$AAl?$AAd?$AA?2?$AAs?$AAe?$AAl?$AAf?$AA_?$AAx?$AA8?$AA6?$AA?2?$AAc@ 10091fb8     LIBCMTD:mbsnbicm.obj
 0002:0001701c       ??_C@_1BK@GEJONGBG@?$AA_?$AAm?$AAb?$AAs?$AAn?$AAb?$AAi?$AAc?$AAm?$AAp?$AA_?$AAl?$AA?$AA@ 1009201c     LIBCMTD:mbsnbicm.obj
 0002:00017038       ___lookuptable_s           10092038     LIBCMTD:outputs.obj
 0002:00017094       ??_C@_1BI@COFBLHCG@?$AA_?$AAo?$AAu?$AAt?$AAp?$AAu?$AAt?$AA_?$AAs?$AA_?$AAl?$AA?$AA@ 10092094     LIBCMTD:outputs.obj
 0002:000170b0       ??_C@_1GA@LPGDJDEN@?$AAf?$AA?3?$AA?2?$AAd?$AAd?$AA?2?$AAv?$AAc?$AAt?$AAo?$AAo?$AAl?$AAs?$AA?2?$AAc?$AAr?$AAt?$AA_?$AAb?$AAl?$AAd?$AA?2?$AAs?$AAe?$AAl?$AAf?$AA_?$AAx?$AA8?$AA6?$AA?2?$AAc@ 100920b0     LIBCMTD:isatty.obj
 0002:00017110       ??_C@_1BA@LEBDGIHM@?$AA_?$AAi?$AAs?$AAa?$AAt?$AAt?$AAy?$AA?$AA@ 10092110     LIBCMTD:isatty.obj
 0002:00017120       ??_C@_1CO@HFMIILNF@?$AAs?$AAi?$AAz?$AAe?$AAI?$AAn?$AAB?$AAy?$AAt?$AAe?$AAs?$AA?5?$AA?$DM?$AA?$DN?$AA?5?$AAI?$AAN?$AAT?$AA_?$AAM?$AAA?$AAX?$AA?$AA@ 10092120     LIBCMTD:wctomb.obj
 0002:00017150       ??_C@_1GA@LDLHPOO@?$AAf?$AA?3?$AA?2?$AAd?$AAd?$AA?2?$AAv?$AAc?$AAt?$AAo?$AAo?$AAl?$AAs?$AA?2?$AAc?$AAr?$AAt?$AA_?$AAb?$AAl?$AAd?$AA?2?$AAs?$AAe?$AAl?$AAf?$AA_?$AAx?$AA8?$AA6?$AA?2?$AAc@ 10092150     LIBCMTD:wctomb.obj
 0002:000171b0       ??_C@_1BI@IEADNOHF@?$AA_?$AAw?$AAc?$AAt?$AAo?$AAm?$AAb?$AA_?$AAs?$AA_?$AAl?$AA?$AA@ 100921b0     LIBCMTD:wctomb.obj
 0002:000171c8       ??_C@_1GE@MINKPNPH@?$AAf?$AA?3?$AA?2?$AAd?$AAd?$AA?2?$AAv?$AAc?$AAt?$AAo?$AAo?$AAl?$AAs?$AA?2?$AAc?$AAr?$AAt?$AA_?$AAb?$AAl?$AAd?$AA?2?$AAs?$AAe?$AAl?$AAf?$AA_?$AAx?$AA8?$AA6?$AA?2?$AAc@ 100921c8     LIBCMTD:lseeki64.obj
 0002:0001722c       ??_C@_1BE@KHFBJMNM@?$AA_?$AAl?$AAs?$AAe?$AAe?$AAk?$AAi?$AA6?$AA4?$AA?$AA@ 1009222c     LIBCMTD:lseeki64.obj
 0002:00017240       ??_C@_1GC@DKMGNNCC@?$AAf?$AA?3?$AA?2?$AAd?$AAd?$AA?2?$AAv?$AAc?$AAt?$AAo?$AAo?$AAl?$AAs?$AA?2?$AAc?$AAr?$AAt?$AA_?$AAb?$AAl?$AAd?$AA?2?$AAs?$AAe?$AAl?$AAf?$AA_?$AAx?$AA8?$AA6?$AA?2?$AAc@ 10092240     LIBCMTD:_getbuf.obj
 0002:000172a4       ??_C@_0DB@JEHOCBEJ@f?3?2dd?2vctools?2crt_bld?2self_x86?2c@ 100922a4     LIBCMTD:_getbuf.obj
 0002:000172d8       ??_C@_1BK@EPLNBKAK@?$AA_?$AAv?$AAs?$AAw?$AAp?$AAr?$AAi?$AAn?$AAt?$AAf?$AA_?$AAl?$AA?$AA@ 100922d8     LIBCMTD:vswprint.obj
 0002:000172f4       ??_C@_1CG@IMMIEPNA@?$AA_?$AAv?$AAs?$AAc?$AAw?$AAp?$AAr?$AAi?$AAn?$AAt?$AAf?$AA_?$AAh?$AAe?$AAl?$AAp?$AAe?$AAr?$AA?$AA@ 100922f4     LIBCMTD:vswprint.obj
 0002:0001731c       ??_C@_1BG@BBCDFOMA@?$AA_?$AAw?$AAo?$AAu?$AAt?$AAp?$AAu?$AAt?$AA_?$AAl?$AA?$AA@ 1009231c     LIBCMTD:woutput.obj
 0002:00017334       ??_C@_1BC@HGPNAKGC@?$AAs?$AAt?$AAr?$AAc?$AAa?$AAt?$AA_?$AAs?$AA?$AA@ 10092334     LIBCMTD:strcat_s.obj
 0002:00017348       ??_C@_1O@GIMBNLEI@?$AAx?$AAt?$AAo?$AAa?$AA_?$AAs?$AA?$AA@ 10092348     LIBCMTD:xtoas.obj
 0002:00017358       ??_C@_1BC@MJJNBNFN@?$AAx?$AA6?$AA4?$AAt?$AAo?$AAa?$AA_?$AAs?$AA?$AA@ 10092358     LIBCMTD:xtoas.obj
 0002:0001736c       ??_C@_1BE@EEKACIGI@?$AAs?$AA?5?$AA?$CB?$AA?$DN?$AA?5?$AAN?$AAU?$AAL?$AAL?$AA?$AA@ 1009236c     LIBCMTD:mbstowcs.obj
 0002:00017380       ??_C@_1GE@LCCDHBMH@?$AAf?$AA?3?$AA?2?$AAd?$AAd?$AA?2?$AAv?$AAc?$AAt?$AAo?$AAo?$AAl?$AAs?$AA?2?$AAc?$AAr?$AAt?$AA_?$AAb?$AAl?$AAd?$AA?2?$AAs?$AAe?$AAl?$AAf?$AA_?$AAx?$AA8?$AA6?$AA?2?$AAc@ 10092380     LIBCMTD:mbstowcs.obj
 0002:000173e4       ??_C@_1CG@JEHFHLNG@?$AA_?$AAm?$AAb?$AAs?$AAt?$AAo?$AAw?$AAc?$AAs?$AA_?$AAl?$AA_?$AAh?$AAe?$AAl?$AAp?$AAe?$AAr?$AA?$AA@ 100923e4     LIBCMTD:mbstowcs.obj
 0002:00017410       ??_C@_1JA@JKDFMOPO@?$AA?$CI?$AAp?$AAw?$AAc?$AAs?$AA?5?$AA?$DN?$AA?$DN?$AA?5?$AAN?$AAU?$AAL?$AAL?$AA?5?$AA?$CG?$AA?$CG?$AA?5?$AAs?$AAi?$AAz?$AAe?$AAI?$AAn?$AAW?$AAo?$AAr?$AAd?$AAs?$AA?5?$AA?$DN?$AA?$DN?$AA?5@ 10092410     LIBCMTD:mbstowcs.obj
 0002:000174a0       ??_C@_1BM@PHENIGHD@?$AA_?$AAm?$AAb?$AAs?$AAt?$AAo?$AAw?$AAc?$AAs?$AA_?$AAs?$AA_?$AAl?$AA?$AA@ 100924a0     LIBCMTD:mbstowcs.obj
 0002:000174bc       ??_C@_1CM@LLECFMFH@?$AAb?$AAu?$AAf?$AAf?$AAe?$AAr?$AAS?$AAi?$AAz?$AAe?$AA?5?$AA?$DM?$AA?$DN?$AA?5?$AAI?$AAN?$AAT?$AA_?$AAM?$AAA?$AAX?$AA?$AA@ 100924bc     LIBCMTD:mbstowcs.obj
 0002:000174e8       ??_C@_1CO@JNPEPJAL@?$AAr?$AAe?$AAt?$AAs?$AAi?$AAz?$AAe?$AA?5?$AA?$DM?$AA?$DN?$AA?5?$AAs?$AAi?$AAz?$AAe?$AAI?$AAn?$AAW?$AAo?$AAr?$AAd?$AAs?$AA?$AA@ 100924e8     LIBCMTD:mbstowcs.obj
 0002:00017518       ??_C@_1BK@OIBENBPM@?$AAp?$AAw?$AAc?$AAs?$AA?5?$AA?$CB?$AA?$DN?$AA?5?$AAN?$AAU?$AAL?$AAL?$AA?$AA@ 10092518     LIBCMTD:wcstombs.obj
 0002:00017538       ??_C@_1GE@OAENIBOD@?$AAf?$AA?3?$AA?2?$AAd?$AAd?$AA?2?$AAv?$AAc?$AAt?$AAo?$AAo?$AAl?$AAs?$AA?2?$AAc?$AAr?$AAt?$AA_?$AAb?$AAl?$AAd?$AA?2?$AAs?$AAe?$AAl?$AAf?$AA_?$AAx?$AA8?$AA6?$AA?2?$AAc@ 10092538     LIBCMTD:wcstombs.obj
 0002:0001759c       ??_C@_1CG@LLJCAOHF@?$AA_?$AAw?$AAc?$AAs?$AAt?$AAo?$AAm?$AAb?$AAs?$AA_?$AAl?$AA_?$AAh?$AAe?$AAl?$AAp?$AAe?$AAr?$AA?$AA@ 1009259c     LIBCMTD:wcstombs.obj
 0002:000175c8       ??_C@_1IM@MFGKHGBP@?$AA?$CI?$AAd?$AAs?$AAt?$AA?5?$AA?$CB?$AA?$DN?$AA?5?$AAN?$AAU?$AAL?$AAL?$AA?5?$AA?$CG?$AA?$CG?$AA?5?$AAs?$AAi?$AAz?$AAe?$AAI?$AAn?$AAB?$AAy?$AAt?$AAe?$AAs?$AA?5?$AA?$DO?$AA?5?$AA0?$AA?$CJ@ 100925c8     LIBCMTD:wcstombs.obj
 0002:00017654       ??_C@_1BM@BDMCLLDL@?$AA_?$AAw?$AAc?$AAs?$AAt?$AAo?$AAm?$AAb?$AAs?$AA_?$AAs?$AA_?$AAl?$AA?$AA@ 10092654     LIBCMTD:wcstombs.obj
 0002:00017670       ??_C@_1CM@KEOGBFLI@?$AAs?$AAi?$AAz?$AAe?$AAI?$AAn?$AAB?$AAy?$AAt?$AAe?$AAs?$AA?5?$AA?$DO?$AA?5?$AAr?$AAe?$AAt?$AAs?$AAi?$AAz?$AAe?$AA?$AA@ 10092670     LIBCMTD:wcstombs.obj
 0002:0001769c       ??_C@_1CE@PCFPEIFI@?$AA_?$AAv?$AAs?$AAn?$AAp?$AAr?$AAi?$AAn?$AAt?$AAf?$AA_?$AAh?$AAe?$AAl?$AAp?$AAe?$AAr?$AA?$AA@ 1009269c     LIBCMTD:vsnprnc.obj
 0002:000176c0       ??_C@_1BM@BLJALHEF@?$AA_?$AAv?$AAs?$AAp?$AAr?$AAi?$AAn?$AAt?$AAf?$AA_?$AAs?$AA_?$AAl?$AA?$AA@ 100926c0     LIBCMTD:vsnprnc.obj
 0002:000176e0       ??_C@_1EE@OKCKIGFK@?$AAs?$AAt?$AAr?$AAi?$AAn?$AAg?$AA?5?$AA?$CB?$AA?$DN?$AA?5?$AAN?$AAU?$AAL?$AAL?$AA?5?$AA?$CG?$AA?$CG?$AA?5?$AAs?$AAi?$AAz?$AAe?$AAI?$AAn?$AAB?$AAy?$AAt?$AAe?$AAs?$AA?5?$AA?$DO?$AA?5@ 100926e0     LIBCMTD:vsnprnc.obj
 0002:00017724       ??_C@_1BO@MMPELNIM@?$AA_?$AAv?$AAs?$AAn?$AAp?$AAr?$AAi?$AAn?$AAt?$AAf?$AA_?$AAs?$AA_?$AAl?$AA?$AA@ 10092724     LIBCMTD:vsnprnc.obj
 0002:000178d0       ??_C@_08EHJDFFNH@__based?$CI?$AA@ 100928d0     LIBCMTD:undname.obj
 0002:000178dc       ??_C@_07KOLFKCDI@__cdecl?$AA@ 100928dc     LIBCMTD:undname.obj
 0002:000178e4       ??_C@_08GHMPAG@__pascal?$AA@ 100928e4     LIBCMTD:undname.obj
 0002:000178f0       ??_C@_09IFJBGAPI@__stdcall?$AA@ 100928f0     LIBCMTD:undname.obj
 0002:000178fc       ??_C@_0L@NPHFGOKO@__thiscall?$AA@ 100928fc     LIBCMTD:undname.obj
 0002:00017908       ??_C@_0L@JMKHOMEK@__fastcall?$AA@ 10092908     LIBCMTD:undname.obj
 0002:00017914       ??_C@_09HIJEGCPM@__clrcall?$AA@ 10092914     LIBCMTD:undname.obj
 0002:00017920       ??_C@_06GHPCKEAG@__eabi?$AA@ 10092920     LIBCMTD:undname.obj
 0002:00017928       ??_C@_07JOMMBBKO@__ptr64?$AA@ 10092928     LIBCMTD:undname.obj
 0002:00017930       ??_C@_0L@PILCLIHE@__restrict?$AA@ 10092930     LIBCMTD:undname.obj
 0002:0001793c       ??_C@_0M@GFIIJFMG@__unaligned?$AA@ 1009293c     LIBCMTD:undname.obj
 0002:00017948       ??_C@_09DHDLOLLB@restrict?$CI?$AA@ 10092948     LIBCMTD:undname.obj
 0002:00017954       ??_C@_04NIHEBCM@?5new?$AA@ 10092954     LIBCMTD:undname.obj
 0002:0001795c       ??_C@_07FPCDHGMM@?5delete?$AA@ 1009295c     LIBCMTD:undname.obj
 0002:00017964       ??_C@_01NEMOKFLO@?$DN?$AA@ 10092964     LIBCMTD:undname.obj
 0002:00017968       ??_C@_02GPIOPFAK@?$DO?$DO?$AA@ 10092968     LIBCMTD:undname.obj
 0002:0001796c       ??_C@_02FODMEDOG@?$DM?$DM?$AA@ 1009296c     LIBCMTD:undname.obj
 0002:00017970       ??_C@_01DCLJPIOD@?$CB?$AA@ 10092970     LIBCMTD:undname.obj
 0002:00017974       ??_C@_02EGOFBIJA@?$DN?$DN?$AA@ 10092974     LIBCMTD:undname.obj
 0002:00017978       ??_C@_02FDNJECIE@?$CB?$DN?$AA@ 10092978     LIBCMTD:undname.obj
 0002:0001797c       ??_C@_02GPECMEKF@?$FL?$FN?$AA@ 1009297c     LIBCMTD:undname.obj
 0002:00017980       ??_C@_08LHJFAFGD@operator?$AA@ 10092980     LIBCMTD:undname.obj
 0002:0001798c       ??_C@_02HBOOOICD@?9?$DO?$AA@ 1009298c     LIBCMTD:undname.obj
 0002:00017990       ??_C@_01NBENCBCI@?$CK?$AA@ 10092990     LIBCMTD:undname.obj
 0002:00017994       ??_C@_02ECNGHCIF@?$CL?$CL?$AA@ 10092994     LIBCMTD:undname.obj
 0002:00017998       ??_C@_02BAABKJLB@?9?9?$AA@ 10092998     LIBCMTD:undname.obj
 0002:0001799c       ??_C@_01JOAMLHOP@?9?$AA@   1009299c     LIBCMTD:undname.obj
 0002:000179a0       ??_C@_01MIFGBAGJ@?$CL?$AA@ 100929a0     LIBCMTD:undname.obj
 0002:000179a4       ??_C@_01HNPIGOCE@?$CG?$AA@ 100929a4     LIBCMTD:undname.obj
 0002:000179a8       ??_C@_03MNHNFDLC@?9?$DO?$CK?$AA@ 100929a8     LIBCMTD:undname.obj
 0002:000179ac       ??_C@_01KMDKNFGN@?1?$AA@   100929ac     LIBCMTD:undname.obj
 0002:000179b0       ??_C@_01FGNFDNOH@?$CF?$AA@ 100929b0     LIBCMTD:undname.obj
 0002:000179b4       ??_C@_01MNNFJEPP@?$DM?$AA@ 100929b4     LIBCMTD:undname.obj
 0002:000179b8       ??_C@_02EHCHHCKH@?$DM?$DN?$AA@ 100929b8     LIBCMTD:undname.obj
 0002:000179bc       ??_C@_01PPODPGHN@?$DO?$AA@ 100929bc     LIBCMTD:undname.obj
 0002:000179c0       ??_C@_02EEKDKGMJ@?$DO?$DN?$AA@ 100929c0     LIBCMTD:undname.obj
 0002:000179c4       ??_C@_01IHBHIGKO@?0?$AA@   100929c4     LIBCMTD:undname.obj
 0002:000179c8       ??_C@_02HCKGKOFO@?$CI?$CJ?$AA@ 100929c8     LIBCMTD:undname.obj
 0002:000179cc       ??_C@_01PJKLJHI@?$HO?$AA@  100929cc     LIBCMTD:undname.obj
 0002:000179d0       ??_C@_01JKBOJNNK@?$FO?$AA@ 100929d0     LIBCMTD:undname.obj
 0002:000179d4       ??_C@_01DNKMNLPK@?$HM?$AA@ 100929d4     LIBCMTD:undname.obj
 0002:000179d8       ??_C@_02PPKAJPJL@?$CG?$CG?$AA@ 100929d8     LIBCMTD:undname.obj
 0002:000179dc       ??_C@_02NONPIBCD@?$HM?$HM?$AA@ 100929dc     LIBCMTD:undname.obj
 0002:000179e0       ??_C@_02FPIMKNGF@?$CK?$DN?$AA@ 100929e0     LIBCMTD:undname.obj
 0002:000179e4       ??_C@_02FOEOMHFC@?$CL?$DN?$AA@ 100929e4     LIBCMTD:undname.obj
 0002:000179e8       ??_C@_02FKMDLLOA@?9?$DN?$AA@ 100929e8     LIBCMTD:undname.obj
 0002:000179ec       ??_C@_02FJEHGPIO@?1?$DN?$AA@ 100929ec     LIBCMTD:undname.obj
 0002:000179f0       ??_C@_02FENAOKFI@?$CF?$DN?$AA@ 100929f0     LIBCMTD:undname.obj
 0002:000179f4       ??_C@_03IKFCCPFF@?$DO?$DO?$DN?$AA@ 100929f4     LIBCMTD:undname.obj
 0002:000179f8       ??_C@_03CDNPDDLA@?$DM?$DM?$DN?$AA@ 100929f8     LIBCMTD:undname.obj
 0002:000179fc       ??_C@_02FGJGFEAB@?$CG?$DN?$AA@ 100929fc     LIBCMTD:undname.obj
 0002:00017a00       ??_C@_02DHLNPPGH@?$HM?$DN?$AA@ 10092a00     LIBCMTD:undname.obj
 0002:00017a04       ??_C@_02MHEGNOJ@?$FO?$DN?$AA@ 10092a04     LIBCMTD:undname.obj
 0002:00017a08       ??_C@_09IFPLHPGF@?$GAvftable?8?$AA@ 10092a08     LIBCMTD:undname.obj
 0002:00017a14       ??_C@_09BLBHBJP@?$GAvbtable?8?$AA@ 10092a14     LIBCMTD:undname.obj
 0002:00017a20       ??_C@_07FEEIOKP@?$GAvcall?8?$AA@ 10092a20     LIBCMTD:undname.obj
 0002:00017a28       ??_C@_08LLFFHHDJ@?$GAtypeof?8?$AA@ 10092a28     LIBCMTD:undname.obj
 0002:00017a34       ??_C@_0BF@KDPPACIK@?$GAlocal?5static?5guard?8?$AA@ 10092a34     LIBCMTD:undname.obj
 0002:00017a4c       ??_C@_08OBABFOLI@?$GAstring?8?$AA@ 10092a4c     LIBCMTD:undname.obj
 0002:00017a58       ??_C@_0BD@JDLKDPAB@?$GAvbase?5destructor?8?$AA@ 10092a58     LIBCMTD:undname.obj
 0002:00017a6c       ??_C@_0BN@DEGPLNFK@?$GAvector?5deleting?5destructor?8?$AA@ 10092a6c     LIBCMTD:undname.obj
 0002:00017a8c       ??_C@_0BO@OBMKPJIG@?$GAdefault?5constructor?5closure?8?$AA@ 10092a8c     LIBCMTD:undname.obj
 0002:00017aac       ??_C@_0BN@IMDCHIKM@?$GAscalar?5deleting?5destructor?8?$AA@ 10092aac     LIBCMTD:undname.obj
 0002:00017acc       ??_C@_0BO@PFGOCPJJ@?$GAvector?5constructor?5iterator?8?$AA@ 10092acc     LIBCMTD:undname.obj
 0002:00017aec       ??_C@_0BN@LFPFMEDL@?$GAvector?5destructor?5iterator?8?$AA@ 10092aec     LIBCMTD:undname.obj
 0002:00017b0c       ??_C@_0CE@IKBNEHA@?$GAvector?5vbase?5constructor?5iterat@ 10092b0c     LIBCMTD:undname.obj
 0002:00017b30       ??_C@_0BL@NILFHHPC@?$GAvirtual?5displacement?5map?8?$AA@ 10092b30     LIBCMTD:undname.obj
 0002:00017b4c       ??_C@_0CB@JONCMFFK@?$GAeh?5vector?5constructor?5iterator?8@ 10092b4c     LIBCMTD:undname.obj
 0002:00017b70       ??_C@_0CA@GCEOPDGL@?$GAeh?5vector?5destructor?5iterator?8?$AA@ 10092b70     LIBCMTD:undname.obj
 0002:00017b90       ??_C@_0CH@OOJPLCPH@?$GAeh?5vector?5vbase?5constructor?5ite@ 10092b90     LIBCMTD:undname.obj
 0002:00017bb8       ??_C@_0BL@LLKPOHJI@?$GAcopy?5constructor?5closure?8?$AA@ 10092bb8     LIBCMTD:undname.obj
 0002:00017bd4       ??_C@_0BA@KBCDOMBN@?$GAudt?5returning?8?$AA@ 10092bd4     LIBCMTD:undname.obj
 0002:00017be4       ??_C@_03KLGMFNMG@?$GAEH?$AA@ 10092be4     LIBCMTD:undname.obj
 0002:00017be8       ??_C@_05KHLCHHI@?$GARTTI?$AA@ 10092be8     LIBCMTD:undname.obj
 0002:00017bf0       ??_C@_0BA@KKLDJDLB@?$GAlocal?5vftable?8?$AA@ 10092bf0     LIBCMTD:undname.obj
 0002:00017c00       ??_C@_0CE@IIHCMGGL@?$GAlocal?5vftable?5constructor?5closu@ 10092c00     LIBCMTD:undname.obj
 0002:00017c24       ??_C@_06FHBGPFGH@?5new?$FL?$FN?$AA@ 10092c24     LIBCMTD:undname.obj
 0002:00017c2c       ??_C@_09LBNFPBCA@?5delete?$FL?$FN?$AA@ 10092c2c     LIBCMTD:undname.obj
 0002:00017c38       ??_C@_0P@HJKNJFNN@?$GAomni?5callsig?8?$AA@ 10092c38     LIBCMTD:undname.obj
 0002:00017c48       ??_C@_0BL@CNOONJFP@?$GAplacement?5delete?5closure?8?$AA@ 10092c48     LIBCMTD:undname.obj
 0002:00017c64       ??_C@_0BN@CKNJLHMB@?$GAplacement?5delete?$FL?$FN?5closure?8?$AA@ 10092c64     LIBCMTD:undname.obj
 0002:00017c84       ??_C@_0CG@CFDHKGGD@?$GAmanaged?5vector?5constructor?5iter@ 10092c84     LIBCMTD:undname.obj
 0002:00017cac       ??_C@_0CF@IMGKMJNO@?$GAmanaged?5vector?5destructor?5itera@ 10092cac     LIBCMTD:undname.obj
 0002:00017cd4       ??_C@_0CG@HLDDJMAG@?$GAeh?5vector?5copy?5constructor?5iter@ 10092cd4     LIBCMTD:undname.obj
 0002:00017cfc       ??_C@_0CM@FCBBDIGB@?$GAeh?5vector?5vbase?5copy?5constructo@ 10092cfc     LIBCMTD:undname.obj
 0002:00017d28       ??_C@_0BL@CLIPGLGB@?$GAdynamic?5initializer?5for?5?8?$AA@ 10092d28     LIBCMTD:undname.obj
 0002:00017d44       ??_C@_0CB@PDBIFEP@?$GAdynamic?5atexit?5destructor?5for?5?8@ 10092d44     LIBCMTD:undname.obj
 0002:00017d68       ??_C@_0CD@CGAJBKEJ@?$GAvector?5copy?5constructor?5iterato@ 10092d68     LIBCMTD:undname.obj
 0002:00017d8c       ??_C@_0CJ@GJELGAMM@?$GAvector?5vbase?5copy?5constructor?5i@ 10092d8c     LIBCMTD:undname.obj
 0002:00017db8       ??_C@_0CL@FGIJHLCE@?$GAmanaged?5vector?5copy?5constructor@ 10092db8     LIBCMTD:undname.obj
 0002:00017de4       ??_C@_0BM@PMGGMLDN@?$GAlocal?5static?5thread?5guard?8?$AA@ 10092de4     LIBCMTD:undname.obj
 0002:00017e00       ??_C@_0BC@DAFEJGAK@?5Type?5Descriptor?8?$AA@ 10092e00     LIBCMTD:undname.obj
 0002:00017e14       ??_C@_0BM@LDKODKLH@?5Base?5Class?5Descriptor?5at?5?$CI?$AA@ 10092e14     LIBCMTD:undname.obj
 0002:00017e30       ??_C@_0BD@LGICGFMM@?5Base?5Class?5Array?8?$AA@ 10092e30     LIBCMTD:undname.obj
 0002:00017e44       ??_C@_0BN@MECKDCOJ@?5Class?5Hierarchy?5Descriptor?8?$AA@ 10092e44     LIBCMTD:undname.obj
 0002:00017e64       ??_C@_0BK@CFCOFLF@?5Complete?5Object?5Locator?8?$AA@ 10092e64     LIBCMTD:undname.obj
 0002:00017e80       ??_C@_04HEJADOOB@CV?3?5?$AA@ 10092e80     LIBCMTD:undname.obj
 0002:00017e88       ??_C@_02MOLJINC@?3?3?$AA@  10092e88     LIBCMTD:undname.obj
 0002:00017e8c       ??_C@_0BE@JAEOCHPE@template?9parameter?9?$AA@ 10092e8c     LIBCMTD:undname.obj
 0002:00017ea0       ??_C@_0O@KHGCOMHP@generic?9type?9?$AA@ 10092ea0     LIBCMTD:undname.obj
 0002:00017eb0       ??_C@_01NLNLIGKH@?$GA?$AA@ 10092eb0     LIBCMTD:undname.obj
 0002:00017eb4       ??_C@_01GEODFPGF@?8?$AA@   10092eb4     LIBCMTD:undname.obj
 0002:00017eb8       ??_C@_0BG@JNJLAMPM@?$GAanonymous?5namespace?8?$AA@ 10092eb8     LIBCMTD:undname.obj
 0002:00017ed0       ??_C@_02OHHJMEON@?8?8?$AA@ 10092ed0     LIBCMTD:undname.obj
 0002:00017ed4       ??_C@_0BN@IBLMMFAP@?$GAnon?9type?9template?9parameter?$AA@ 10092ed4     LIBCMTD:undname.obj
 0002:00017ef4       ??_C@_04GKJNKENE@void?$AA@ 10092ef4     LIBCMTD:undname.obj
 0002:00017efc       ??_C@_0BE@EODMJLIF@?$GAtemplate?9parameter?$AA@ 10092efc     LIBCMTD:undname.obj
 0002:00017f10       ??_C@_04HIBGFPH@NULL?$AA@  10092f10     LIBCMTD:undname.obj
 0002:00017f18       ??_C@_03OPGICMGF@?$HN?8?5?$AA@ 10092f18     LIBCMTD:undname.obj
 0002:00017f1c       ??_C@_02IGFCGPIL@?$HN?8?$AA@ 10092f1c     LIBCMTD:undname.obj
 0002:00017f20       ??_C@_01CLKCMJKC@?5?$AA@   10092f20     LIBCMTD:undname.obj
 0002:00017f24       ??_C@_0N@CBHHHENL@?$GAvtordispex?$HL?$AA@ 10092f24     LIBCMTD:undname.obj
 0002:00017f34       ??_C@_0L@GHPFDFH@?$GAvtordisp?$HL?$AA@ 10092f34     LIBCMTD:undname.obj
 0002:00017f40       ??_C@_0L@HNGCOGAE@?$GAadjustor?$HL?$AA@ 10092f40     LIBCMTD:undname.obj
 0002:00017f4c       ??_C@_0CB@KJDOOODE@?$GAlocal?5static?5destructor?5helper?8@ 10092f4c     LIBCMTD:undname.obj
 0002:00017f70       ??_C@_0DB@ILEFOCIJ@?$GAtemplate?5static?5data?5member?5con@ 10092f70     LIBCMTD:undname.obj
 0002:00017fa4       ??_C@_0DA@HGFJFBBE@?$GAtemplate?5static?5data?5member?5des@ 10092fa4     LIBCMTD:undname.obj
 0002:00017fd4       ??_C@_07PGOEDBHP@static?5?$AA@ 10092fd4     LIBCMTD:undname.obj
 0002:00017fdc       ??_C@_08NIEOINHE@virtual?5?$AA@ 10092fdc     LIBCMTD:undname.obj
 0002:00017fe8       ??_C@_09LAPHOOG@private?3?5?$AA@ 10092fe8     LIBCMTD:undname.obj
 0002:00017ff4       ??_C@_0M@GAIFPFIP@protected?3?5?$AA@ 10092ff4     LIBCMTD:undname.obj
 0002:00018000       ??_C@_08GPDDCMKI@public?3?5?$AA@ 10093000     LIBCMTD:undname.obj
 0002:0001800c       ??_C@_08KJLFOPNE@?$FLthunk?$FN?3?$AA@ 1009300c     LIBCMTD:undname.obj
 0002:00018018       ??_C@_0M@DHNBOJMP@extern?5?$CCC?$CC?5?$AA@ 10093018     LIBCMTD:undname.obj
 0002:00018024       ??_C@_02KCKGHPCA@?$CJ?5?$AA@ 10093024     LIBCMTD:undname.obj
 0002:00018028       ??_C@_05CIHEBHNO@char?5?$AA@ 10093028     LIBCMTD:undname.obj
 0002:00018030       ??_C@_06EHJMALKF@short?5?$AA@ 10093030     LIBCMTD:undname.obj
 0002:00018038       ??_C@_04LAHKHJMA@int?5?$AA@ 10093038     LIBCMTD:undname.obj
 0002:00018040       ??_C@_05CJIMAING@long?5?$AA@ 10093040     LIBCMTD:undname.obj
 0002:00018048       ??_C@_09EBBEKKIH@unsigned?5?$AA@ 10093048     LIBCMTD:undname.obj
 0002:00018054       ??_C@_05BEFAKPML@void?5?$AA@ 10093054     LIBCMTD:undname.obj
 0002:0001805c       ??_C@_08PABEKFH@volatile?$AA@ 1009305c     LIBCMTD:undname.obj
 0002:00018068       ??_C@_0P@GCOCNKDM@std?3?3nullptr_t?$AA@ 10093068     LIBCMTD:undname.obj
 0002:00018078       ??_C@_0L@EGPHHEKN@?$DMellipsis?$DO?$AA@ 10093078     LIBCMTD:undname.obj
 0002:00018084       ??_C@_04EENFHACM@?0?4?4?4?$AA@ 10093084     LIBCMTD:undname.obj
 0002:0001808c       ??_C@_0M@ELJOJFFH@?0?$DMellipsis?$DO?$AA@ 1009308c     LIBCMTD:undname.obj
 0002:00018098       ??_C@_07HDJPLPEK@?5throw?$CI?$AA@ 10093098     LIBCMTD:undname.obj
 0002:000180a0       ??_C@_03PBJBJNON@cpu?$AA@  100930a0     LIBCMTD:undname.obj
 0002:000180a4       ??_C@_03DCBBJBAA@amp?$AA@  100930a4     LIBCMTD:undname.obj
 0002:000180a8       ??_C@_02KEGNLNML@?0?5?$AA@ 100930a8     LIBCMTD:undname.obj
 0002:000180ac       ??_C@_04ENMBGAPA@char?$AA@ 100930ac     LIBCMTD:undname.obj
 0002:000180b4       ??_C@_05BFKKPKCG@short?$AA@ 100930b4     LIBCMTD:undname.obj
 0002:000180bc       ??_C@_03JBIPMCLC@int?$AA@  100930bc     LIBCMTD:undname.obj
 0002:000180c0       ??_C@_04GOKPGOLB@long?$AA@ 100930c0     LIBCMTD:undname.obj
 0002:000180c8       ??_C@_05KNFBNCOH@float?$AA@ 100930c8     LIBCMTD:undname.obj
 0002:000180d0       ??_C@_06BNJCAIGJ@double?$AA@ 100930d0     LIBCMTD:undname.obj
 0002:000180d8       ??_C@_04DDKJGDCM@bool?$AA@ 100930d8     LIBCMTD:undname.obj
 0002:000180e0       ??_C@_06EBGKOKIG@__int8?$AA@ 100930e0     LIBCMTD:undname.obj
 0002:000180e8       ??_C@_07ICFHOGAF@__int16?$AA@ 100930e8     LIBCMTD:undname.obj
 0002:000180f0       ??_C@_07OFLPPHGP@__int32?$AA@ 100930f0     LIBCMTD:undname.obj
 0002:000180f8       ??_C@_07LFCOJCAC@__int64?$AA@ 100930f8     LIBCMTD:undname.obj
 0002:00018100       ??_C@_08GAHOLHEO@__int128?$AA@ 10093100     LIBCMTD:undname.obj
 0002:0001810c       ??_C@_09EEKGDCPH@?$DMunknown?$DO?$AA@ 1009310c     LIBCMTD:undname.obj
 0002:00018118       ??_C@_07CLGGIAMF@wchar_t?$AA@ 10093118     LIBCMTD:undname.obj
 0002:00018120       ??_C@_06GCICPBLB@__w64?5?$AA@ 10093120     LIBCMTD:undname.obj
 0002:00018128       ??_C@_07NFANNNEC@UNKNOWN?$AA@ 10093128     LIBCMTD:undname.obj
 0002:00018130       ??_C@_07EDHNAJHC@signed?5?$AA@ 10093130     LIBCMTD:undname.obj
 0002:00018138       ??_C@_05BNCCCJPP@const?$AA@ 10093138     LIBCMTD:undname.obj
 0002:00018140       ??_C@_09EFNPDFFP@?5volatile?$AA@ 10093140     LIBCMTD:undname.obj
 0002:0001814c       ??_C@_0P@GCIFDJCJ@?$GAunknown?5ecsu?8?$AA@ 1009314c     LIBCMTD:undname.obj
 0002:0001815c       ??_C@_06MOJHIBMG@union?5?$AA@ 1009315c     LIBCMTD:undname.obj
 0002:00018164       ??_C@_07DIBCDNGL@struct?5?$AA@ 10093164     LIBCMTD:undname.obj
 0002:0001816c       ??_C@_06LJBABKPM@class?5?$AA@ 1009316c     LIBCMTD:undname.obj
 0002:00018174       ??_C@_08KOFANOFK@coclass?5?$AA@ 10093174     LIBCMTD:undname.obj
 0002:00018180       ??_C@_0N@DLIEFKNA@cointerface?5?$AA@ 10093180     LIBCMTD:undname.obj
 0002:00018190       ??_C@_05LJGMCFOG@enum?5?$AA@ 10093190     LIBCMTD:undname.obj
 0002:00018198       ??_C@_09GAIEOBLP@volatile?5?$AA@ 10093198     LIBCMTD:undname.obj
 0002:000181a4       ??_C@_06LIJLOJAG@const?5?$AA@ 100931a4     LIBCMTD:undname.obj
 0002:000181ac       ??_C@_0M@EALIELKG@cli?3?3array?$DM?$AA@ 100931ac     LIBCMTD:undname.obj
 0002:000181b8       ??_C@_0O@GKABPPIF@cli?3?3pin_ptr?$DM?$AA@ 100931b8     LIBCMTD:undname.obj
 0002:000181c8       ??_C@_02GOGNNPBN@?$CJ?$FL?$AA@ 100931c8     LIBCMTD:undname.obj
 0002:000181cc       ??_C@_06EEGAIFAK@?$HLflat?$HN?$AA@ 100931cc     LIBCMTD:undname.obj
 0002:000181d4       ??_C@_05JIBOFOHK@?$HLfor?5?$AA@ 100931d4     LIBCMTD:undname.obj
 0002:000181dc       ??_C@_02MDINNEEG@s?5?$AA@  100931dc     LIBCMTD:undname.obj
 0002:000181e4       ??_7DNameNode@@6B@         100931e4     LIBCMTD:undname.obj
 0002:000181f4       ??_7charNode@@6B@          100931f4     LIBCMTD:undname.obj
 0002:00018204       ??_7pcharNode@@6B@         10093204     LIBCMTD:undname.obj
 0002:00018214       ??_7pDNameNode@@6B@        10093214     LIBCMTD:undname.obj
 0002:00018224       ??_7DNameStatusNode@@6B@   10093224     LIBCMTD:undname.obj
 0002:00018234       ??_7pairNode@@6B@          10093234     LIBCMTD:undname.obj
 0002:00018240       ??_C@_04OKOHEJBO@?5?$DP?$DP?5?$AA@ 10093240     LIBCMTD:undname.obj
 0002:00018248       ??_C@_1NC@EINCOKCO@?$AA_?$AAl?$AAo?$AAc?$AA_?$AAu?$AAp?$AAd?$AAa?$AAt?$AAe?$AA?4?$AAG?$AAe?$AAt?$AAL?$AAo?$AAc?$AAa?$AAl?$AAe?$AAT?$AA?$CI?$AA?$CJ?$AA?9?$AA?$DO?$AAl?$AAo?$AAc?$AAi?$AAn?$AAf@ 10093248     LIBCMTD:mbtowc.obj
 0002:00018320       ??_C@_1GA@GFFDGGFH@?$AAf?$AA?3?$AA?2?$AAd?$AAd?$AA?2?$AAv?$AAc?$AAt?$AAo?$AAo?$AAl?$AAs?$AA?2?$AAc?$AAr?$AAt?$AA_?$AAb?$AAl?$AAd?$AA?2?$AAs?$AAe?$AAl?$AAf?$AA_?$AAx?$AA8?$AA6?$AA?2?$AAc@ 10093320     LIBCMTD:mbtowc.obj
 0002:00018380       ??_C@_1GE@MBMBDAGC@?$AAf?$AA?3?$AA?2?$AAd?$AAd?$AA?2?$AAv?$AAc?$AAt?$AAo?$AAo?$AAl?$AAs?$AA?2?$AAc?$AAr?$AAt?$AA_?$AAb?$AAl?$AAd?$AA?2?$AAs?$AAe?$AAl?$AAf?$AA_?$AAx?$AA8?$AA6?$AA?2?$AAc@ 10093380     LIBCMTD:vfwprint.obj
 0002:000183e4       ??_C@_1CC@MONNFDCM@?$AAv?$AAf?$AAw?$AAp?$AAr?$AAi?$AAn?$AAt?$AAf?$AA_?$AAh?$AAe?$AAl?$AAp?$AAe?$AAr?$AA?$AA@ 100933e4     LIBCMTD:vfwprint.obj
 0002:00018408       ??_C@_1BK@ONMFGLDB@?$AA_?$AAw?$AAo?$AAu?$AAt?$AAp?$AAu?$AAt?$AA_?$AAs?$AA_?$AAl?$AA?$AA@ 10093408     LIBCMTD:woutputs.obj
 0002:00018424       ??_C@_1BK@GDEKGMNC@?$AA_?$AAw?$AAo?$AAu?$AAt?$AAp?$AAu?$AAt?$AA_?$AAp?$AA_?$AAl?$AA?$AA@ 10093424     LIBCMTD:woutputp.obj
 0002:00018440       ??_C@_1GK@PAJJBKJF@?$AAf?$AA?3?$AA?2?$AAd?$AAd?$AA?2?$AAv?$AAc?$AAt?$AAo?$AAo?$AAl?$AAs?$AA?2?$AAc?$AAr?$AAt?$AA_?$AAb?$AAl?$AAd?$AA?2?$AAs?$AAe?$AAl?$AAf?$AA_?$AAx?$AA8?$AA6?$AA?2?$AAc@ 10093440     LIBCMTD:wcsncpy_s.obj
 0002:000184ac       ??_C@_1BE@PMMBFFCC@?$AAw?$AAc?$AAs?$AAn?$AAc?$AAp?$AAy?$AA_?$AAs?$AA?$AA@ 100934ac     LIBCMTD:wcsncpy_s.obj
 0002:000184c0       ??_C@_1BE@NDMJHJJG@?$AAs?$AAt?$AAr?$AAn?$AAc?$AAp?$AAy?$AA_?$AAs?$AA?$AA@ 100934c0     LIBCMTD:strncpy_s.obj
 0002:000184d8       ??_C@_1FE@KNPCCODH@?$AA?$CI?$AA?$CC?$AAC?$AAo?$AAr?$AAr?$AAu?$AAp?$AAt?$AAe?$AAd?$AA?5?$AAp?$AAo?$AAi?$AAn?$AAt?$AAe?$AAr?$AA?5?$AAp?$AAa?$AAs?$AAs?$AAe?$AAd?$AA?5?$AAt?$AAo?$AA?5?$AA_?$AAf@ 100934d8     LIBCMTD:a_loc.obj
 0002:00018530       ??_C@_1GA@INJGGEBC@?$AAf?$AA?3?$AA?2?$AAd?$AAd?$AA?2?$AAv?$AAc?$AAt?$AAo?$AAo?$AAl?$AAs?$AA?2?$AAc?$AAr?$AAt?$AA_?$AAb?$AAl?$AAd?$AA?2?$AAs?$AAe?$AAl?$AAf?$AA_?$AAx?$AA8?$AA6?$AA?2?$AAc@ 10093530     LIBCMTD:a_loc.obj
 0002:00018590       ??_C@_1M@ELCKCCJJ@?$AAm?$AAi?$AA?9?$AAn?$AAz?$AA?$AA@ 10093590     LIBCMTD:winapinls.obj
 0002:0001859c       ??_C@_1M@CBOOLAPA@?$AAm?$AAk?$AA?9?$AAm?$AAk?$AA?$AA@ 1009359c     LIBCMTD:winapinls.obj
 0002:000185a8       ??_C@_1M@GPHNBJKN@?$AAm?$AAl?$AA?9?$AAi?$AAn?$AA?$AA@ 100935a8     LIBCMTD:winapinls.obj
 0002:000185b4       ??_C@_1M@PABJILIG@?$AAm?$AAn?$AA?9?$AAm?$AAn?$AA?$AA@ 100935b4     LIBCMTD:winapinls.obj
 0002:000185c0       ??_C@_1M@FGBKKIPG@?$AAm?$AAr?$AA?9?$AAi?$AAn?$AA?$AA@ 100935c0     LIBCMTD:winapinls.obj
 0002:000185cc       ??_C@_1M@NDBPDDAL@?$AAm?$AAs?$AA?9?$AAb?$AAn?$AA?$AA@ 100935cc     LIBCMTD:winapinls.obj
 0002:000185d8       ??_C@_1M@OPIHOOPI@?$AAm?$AAs?$AA?9?$AAm?$AAy?$AA?$AA@ 100935d8     LIBCMTD:winapinls.obj
 0002:000185e4       ??_C@_1M@PPDBCNFM@?$AAm?$AAt?$AA?9?$AAm?$AAt?$AA?$AA@ 100935e4     LIBCMTD:winapinls.obj
 0002:000185f0       ??_C@_1M@KDJDKMDD@?$AAn?$AAb?$AA?9?$AAn?$AAo?$AA?$AA@ 100935f0     LIBCMTD:winapinls.obj
 0002:000185fc       ??_C@_1M@KFCFLMJP@?$AAn?$AAl?$AA?9?$AAb?$AAe?$AA?$AA@ 100935fc     LIBCMTD:winapinls.obj
 0002:00018608       ??_C@_1M@KPOPDDGO@?$AAn?$AAl?$AA?9?$AAn?$AAl?$AA?$AA@ 10093608     LIBCMTD:winapinls.obj
 0002:00018614       ??_C@_1M@LJKPEMLN@?$AAn?$AAn?$AA?9?$AAn?$AAo?$AA?$AA@ 10093614     LIBCMTD:winapinls.obj
 0002:00018620       ??_C@_1M@BDGHHBFL@?$AAn?$AAs?$AA?9?$AAz?$AAa?$AA?$AA@ 10093620     LIBCMTD:winapinls.obj
 0002:0001862c       ??_C@_1M@IDEHOAP@?$AAp?$AAa?$AA?9?$AAi?$AAn?$AA?$AA@ 1009362c     LIBCMTD:winapinls.obj
 0002:00018638       ??_C@_1M@HDBKGOGH@?$AAp?$AAl?$AA?9?$AAp?$AAl?$AA?$AA@ 10093638     LIBCMTD:winapinls.obj
 0002:00018644       ??_C@_1M@LJLLCMEH@?$AAp?$AAt?$AA?9?$AAb?$AAr?$AA?$AA@ 10093644     LIBCMTD:winapinls.obj
 0002:00018650       ??_C@_1M@NCMONAAL@?$AAp?$AAt?$AA?9?$AAp?$AAt?$AA?$AA@ 10093650     LIBCMTD:winapinls.obj
 0002:0001865c       ??_C@_1O@EAKMAJDN@?$AAq?$AAu?$AAz?$AA?9?$AAb?$AAo?$AA?$AA@ 1009365c     LIBCMTD:winapinls.obj
 0002:0001866c       ??_C@_1O@BHHPIGDN@?$AAq?$AAu?$AAz?$AA?9?$AAe?$AAc?$AA?$AA@ 1009366c     LIBCMTD:winapinls.obj
 0002:0001867c       ??_C@_1O@GBAPEKMJ@?$AAq?$AAu?$AAz?$AA?9?$AAp?$AAe?$AA?$AA@ 1009367c     LIBCMTD:winapinls.obj
 0002:0001868c       ??_C@_1M@CLGLEFBO@?$AAr?$AAo?$AA?9?$AAr?$AAo?$AA?$AA@ 1009368c     LIBCMTD:winapinls.obj
 0002:00018698       ??_C@_1M@CEEDODME@?$AAr?$AAu?$AA?9?$AAr?$AAu?$AA?$AA@ 10093698     LIBCMTD:winapinls.obj
 0002:000186a4       ??_C@_1M@HPKKKMPP@?$AAs?$AAa?$AA?9?$AAi?$AAn?$AA?$AA@ 100936a4     LIBCMTD:winapinls.obj
 0002:000186b0       ??_C@_1M@BKMAIGOJ@?$AAs?$AAe?$AA?9?$AAf?$AAi?$AA?$AA@ 100936b0     LIBCMTD:winapinls.obj
 0002:000186bc       ??_C@_1M@NDPIFLFI@?$AAs?$AAe?$AA?9?$AAn?$AAo?$AA?$AA@ 100936bc     LIBCMTD:winapinls.obj
 0002:000186c8       ??_C@_1M@DANKKHJ@?$AAs?$AAe?$AA?9?$AAs?$AAe?$AA?$AA@ 100936c8     LIBCMTD:winapinls.obj
 0002:000186d4       ??_C@_1M@PNBLONPJ@?$AAs?$AAk?$AA?9?$AAs?$AAk?$AA?$AA@ 100936d4     LIBCMTD:winapinls.obj
 0002:000186e0       ??_C@_1M@LFMODOAL@?$AAs?$AAl?$AA?9?$AAs?$AAi?$AA?$AA@ 100936e0     LIBCMTD:winapinls.obj
 0002:000186ec       ??_C@_1O@DFKOMPG@?$AAs?$AAm?$AAa?$AA?9?$AAn?$AAo?$AA?$AA@ 100936ec     LIBCMTD:winapinls.obj
 0002:000186fc       ??_C@_1O@NDKPBNNH@?$AAs?$AAm?$AAa?$AA?9?$AAs?$AAe?$AA?$AA@ 100936fc     LIBCMTD:winapinls.obj
 0002:0001870c       ??_C@_1O@PLLKBHAB@?$AAs?$AAm?$AAj?$AA?9?$AAn?$AAo?$AA?$AA@ 1009370c     LIBCMTD:winapinls.obj
 0002:0001871c       ??_C@_1O@CLEPOGCA@?$AAs?$AAm?$AAj?$AA?9?$AAs?$AAe?$AA?$AA@ 1009371c     LIBCMTD:winapinls.obj
 0002:0001872c       ??_C@_1O@DLGJGKMK@?$AAs?$AAm?$AAn?$AA?9?$AAf?$AAi?$AA?$AA@ 1009372c     LIBCMTD:winapinls.obj
 0002:0001873c       ??_C@_1O@OJDJGAJC@?$AAs?$AAm?$AAs?$AA?9?$AAf?$AAi?$AA?$AA@ 1009373c     LIBCMTD:winapinls.obj
 0002:0001874c       ??_C@_1M@BOFOGHPB@?$AAs?$AAq?$AA?9?$AAa?$AAl?$AA?$AA@ 1009374c     LIBCMTD:winapinls.obj
 0002:00018758       ??_C@_1BG@LJBBIPGB@?$AAs?$AAr?$AA?9?$AAb?$AAa?$AA?9?$AAc?$AAy?$AAr?$AAl?$AA?$AA@ 10093758     LIBCMTD:winapinls.obj
 0002:00018770       ??_C@_1BG@JLBENFOE@?$AAs?$AAr?$AA?9?$AAb?$AAa?$AA?9?$AAl?$AAa?$AAt?$AAn?$AA?$AA@ 10093770     LIBCMTD:winapinls.obj
 0002:00018788       ??_C@_1BG@KODPNHE@?$AAs?$AAr?$AA?9?$AAs?$AAp?$AA?9?$AAc?$AAy?$AAr?$AAl?$AA?$AA@ 10093788     LIBCMTD:winapinls.obj
 0002:000187a0       ??_C@_1BG@CIOGKHPB@?$AAs?$AAr?$AA?9?$AAs?$AAp?$AA?9?$AAl?$AAa?$AAt?$AAn?$AA?$AA@ 100937a0     LIBCMTD:winapinls.obj
 0002:000187b8       ??_C@_1M@NGFJLMAC@?$AAs?$AAv?$AA?9?$AAf?$AAi?$AA?$AA@ 100937b8     LIBCMTD:winapinls.obj
 0002:000187c4       ??_C@_1M@MPJEJAJC@?$AAs?$AAv?$AA?9?$AAs?$AAe?$AA?$AA@ 100937c4     LIBCMTD:winapinls.obj
 0002:000187d0       ??_C@_1M@MPNDHLFK@?$AAs?$AAw?$AA?9?$AAk?$AAe?$AA?$AA@ 100937d0     LIBCMTD:winapinls.obj
 0002:000187dc       ??_C@_1O@KOHBJJI@?$AAs?$AAy?$AAr?$AA?9?$AAs?$AAy?$AA?$AA@ 100937dc     LIBCMTD:winapinls.obj
 0002:000187ec       ??_C@_1M@LDCEFHA@?$AAt?$AAa?$AA?9?$AAi?$AAn?$AA?$AA@ 100937ec     LIBCMTD:winapinls.obj
 0002:000187f8       ??_C@_1M@CNJOFAK@?$AAt?$AAe?$AA?9?$AAi?$AAn?$AA?$AA@ 100937f8     LIBCMTD:winapinls.obj
 0002:00018804       ??_C@_1M@GNAECACD@?$AAt?$AAh?$AA?9?$AAt?$AAh?$AA?$AA@ 10093804     LIBCMTD:winapinls.obj
 0002:00018810       ??_C@_1M@CHBIHOJO@?$AAt?$AAn?$AA?9?$AAz?$AAa?$AA?$AA@ 10093810     LIBCMTD:winapinls.obj
 0002:0001881c       ??_C@_1M@GCCMIGPJ@?$AAt?$AAr?$AA?9?$AAt?$AAr?$AA?$AA@ 1009381c     LIBCMTD:winapinls.obj
 0002:00018828       ??_C@_1M@CELMCNBK@?$AAt?$AAt?$AA?9?$AAr?$AAu?$AA?$AA@ 10093828     LIBCMTD:winapinls.obj
 0002:00018834       ??_C@_1M@KLMCELGA@?$AAu?$AAk?$AA?9?$AAu?$AAa?$AA?$AA@ 10093834     LIBCMTD:winapinls.obj
 0002:00018840       ??_C@_1M@EPAJJAJF@?$AAu?$AAr?$AA?9?$AAp?$AAk?$AA?$AA@ 10093840     LIBCMTD:winapinls.obj
 0002:0001884c       ??_C@_1BG@GEGPMCDJ@?$AAu?$AAz?$AA?9?$AAu?$AAz?$AA?9?$AAc?$AAy?$AAr?$AAl?$AA?$AA@ 1009384c     LIBCMTD:winapinls.obj
 0002:00018864       ??_C@_1BG@EGGKJILM@?$AAu?$AAz?$AA?9?$AAu?$AAz?$AA?9?$AAl?$AAa?$AAt?$AAn?$AA?$AA@ 10093864     LIBCMTD:winapinls.obj
 0002:0001887c       ??_C@_1M@GFOCLFF@?$AAv?$AAi?$AA?9?$AAv?$AAn?$AA?$AA@ 1009387c     LIBCMTD:winapinls.obj
 0002:00018888       ??_C@_1M@CPAMEDFI@?$AAx?$AAh?$AA?9?$AAz?$AAa?$AA?$AA@ 10093888     LIBCMTD:winapinls.obj
 0002:00018894       ??_C@_1O@EBKIFIGN@?$AAz?$AAh?$AA?9?$AAc?$AAh?$AAs?$AA?$AA@ 10093894     LIBCMTD:winapinls.obj
 0002:000188a4       ??_C@_1O@NMHPGANE@?$AAz?$AAh?$AA?9?$AAc?$AAh?$AAt?$AA?$AA@ 100938a4     LIBCMTD:winapinls.obj
 0002:000188b4       ??_C@_1M@LPINJOMC@?$AAz?$AAh?$AA?9?$AAc?$AAn?$AA?$AA@ 100938b4     LIBCMTD:winapinls.obj
 0002:000188c0       ??_C@_1M@OCJEJODD@?$AAz?$AAh?$AA?9?$AAh?$AAk?$AA?$AA@ 100938c0     LIBCMTD:winapinls.obj
 0002:000188cc       ??_C@_1M@DNDLJINH@?$AAz?$AAh?$AA?9?$AAm?$AAo?$AA?$AA@ 100938cc     LIBCMTD:winapinls.obj
 0002:000188d8       ??_C@_1M@MBFDNDND@?$AAz?$AAh?$AA?9?$AAs?$AAg?$AA?$AA@ 100938d8     LIBCMTD:winapinls.obj
 0002:000188e4       ??_C@_1M@IMEPLEPE@?$AAz?$AAh?$AA?9?$AAt?$AAw?$AA?$AA@ 100938e4     LIBCMTD:winapinls.obj
 0002:000188f0       ??_C@_1M@BBGHNHJP@?$AAz?$AAu?$AA?9?$AAz?$AAa?$AA?$AA@ 100938f0     LIBCMTD:winapinls.obj
 0002:00018900       _LcidToLocaleNameTable     10093900     LIBCMTD:winapinls.obj
 0002:00019020       _LocaleNameToIndexTable    10094020     LIBCMTD:winapinls.obj
 0002:00019740       ??_C@_15EMKDOKLE@?$AAa?$AAr?$AA?$AA@ 10094740     LIBCMTD:winapinls.obj
 0002:00019748       ??_C@_15KNPADPLH@?$AAb?$AAg?$AA?$AA@ 10094748     LIBCMTD:winapinls.obj
 0002:00019750       ??_C@_15EDMHLDMO@?$AAc?$AAa?$AA?$AA@ 10094750     LIBCMTD:winapinls.obj
 0002:00019758       ??_C@_1O@BPEAJADD@?$AAz?$AAh?$AA?9?$AAC?$AAH?$AAS?$AA?$AA@ 10094758     LIBCMTD:winapinls.obj
 0002:00019768       ??_C@_15LJNHCMNK@?$AAc?$AAs?$AA?$AA@ 10094768     LIBCMTD:winapinls.obj
 0002:00019770       ??_C@_15FOMCIDHG@?$AAd?$AAa?$AA?$AA@ 10094770     LIBCMTD:winapinls.obj
 0002:00019778       ??_C@_15NBKABECB@?$AAd?$AAe?$AA?$AA@ 10094778     LIBCMTD:winapinls.obj
 0002:00019780       ??_C@_15GHPEIIAO@?$AAe?$AAl?$AA?$AA@ 10094780     LIBCMTD:winapinls.obj
 0002:00019788       ??_C@_15MNPNEAIF@?$AAe?$AAn?$AA?$AA@ 10094788     LIBCMTD:winapinls.obj
 0002:00019790       ??_C@_15GPIOMPMH@?$AAe?$AAs?$AA?$AA@ 10094790     LIBCMTD:winapinls.obj
 0002:00019798       ??_C@_15NGLOAKJC@?$AAf?$AAi?$AA?$AA@ 10094798     LIBCMTD:winapinls.obj
 0002:000197a0       ??_C@_15FBKGNKAM@?$AAf?$AAr?$AA?$AA@ 100947a0     LIBCMTD:winapinls.obj
 0002:000197a8       ??_C@_15KGGCNEFK@?$AAh?$AAe?$AA?$AA@ 100947a8     LIBCMTD:winapinls.obj
 0002:000197b0       ??_C@_15PGHLIDMF@?$AAh?$AAu?$AA?$AA@ 100947b0     LIBCMTD:winapinls.obj
 0002:000197b8       ??_C@_15BIEMAPLM@?$AAi?$AAs?$AA?$AA@ 100947b8     LIBCMTD:winapinls.obj
 0002:000197c0       ??_C@_15IFJLDHAF@?$AAi?$AAt?$AA?$AA@ 100947c0     LIBCMTD:winapinls.obj
 0002:000197c8       ??_C@_15GEMIOCAG@?$AAj?$AAa?$AA?$AA@ 100947c8     LIBCMTD:winapinls.obj
 0002:000197d0       ??_C@_15EPELEGJA@?$AAk?$AAo?$AA?$AA@ 100947d0     LIBCMTD:winapinls.obj
 0002:000197d8       ??_C@_15NDDHIMN@?$AAn?$AAl?$AA?$AA@ 100947d8     LIBCMTD:winapinls.obj
 0002:000197e0       ??_C@_15BPIGNHCD@?$AAn?$AAo?$AA?$AA@ 100947e0     LIBCMTD:winapinls.obj
 0002:000197e8       ??_C@_15DEOPBLCG@?$AAp?$AAl?$AA?$AA@ 100947e8     LIBCMTD:winapinls.obj
 0002:000197f0       ??_C@_15KBECGEFG@?$AAp?$AAt?$AA?$AA@ 100947f0     LIBCMTD:winapinls.obj
 0002:000197f8       ??_C@_15GLJCBFMD@?$AAr?$AAo?$AA?$AA@ 100947f8     LIBCMTD:winapinls.obj
 0002:00019800       ??_C@_15FEDGKCDI@?$AAr?$AAu?$AA?$AA@ 10094800     LIBCMTD:winapinls.obj
 0002:00019808       ??_C@_15GLKMLLHM@?$AAh?$AAr?$AA?$AA@ 10094808     LIBCMTD:winapinls.obj
 0002:00019810       ??_C@_15CPKMFBDB@?$AAs?$AAk?$AA?$AA@ 10094810     LIBCMTD:winapinls.obj
 0002:00019818       ??_C@_15BAAIOGMK@?$AAs?$AAq?$AA?$AA@ 10094818     LIBCMTD:winapinls.obj
 0002:00019820       ??_C@_15INNPNOHD@?$AAs?$AAv?$AA?$AA@ 10094820     LIBCMTD:winapinls.obj
 0002:00019828       ??_C@_15CABMMOGH@?$AAt?$AAh?$AA?$AA@ 10094828     LIBCMTD:winapinls.obj
 0002:00019830       ??_C@_15BPLIHJJM@?$AAt?$AAr?$AA?$AA@ 10094830     LIBCMTD:winapinls.obj
 0002:00019838       ??_C@_15NEOEKKDJ@?$AAu?$AAr?$AA?$AA@ 10094838     LIBCMTD:winapinls.obj
 0002:00019840       ??_C@_15NFICGAJK@?$AAi?$AAd?$AA?$AA@ 10094840     LIBCMTD:winapinls.obj
 0002:00019848       ??_C@_15PJPFLCCM@?$AAu?$AAk?$AA?$AA@ 10094848     LIBCMTD:winapinls.obj
 0002:00019850       ??_C@_15HPJPHDM@?$AAb?$AAe?$AA?$AA@ 10094850     LIBCMTD:winapinls.obj
 0002:00019858       ??_C@_15LCHLGJII@?$AAs?$AAl?$AA?$AA@ 10094858     LIBCMTD:winapinls.obj
 0002:00019860       ??_C@_15PCFJPHHO@?$AAe?$AAt?$AA?$AA@ 10094860     LIBCMTD:winapinls.obj
 0002:00019868       ??_C@_15HPFPGODN@?$AAl?$AAv?$AA?$AA@ 10094868     LIBCMTD:winapinls.obj
 0002:00019870       ??_C@_15NFFGKGLG@?$AAl?$AAt?$AA?$AA@ 10094870     LIBCMTD:winapinls.obj
 0002:00019878       ??_C@_15BDAKCCHN@?$AAf?$AAa?$AA?$AA@ 10094878     LIBCMTD:winapinls.obj
 0002:00019880       ??_C@_15NFGIAIAJ@?$AAv?$AAi?$AA?$AA@ 10094880     LIBCMTD:winapinls.obj
 0002:00019888       ??_C@_15LMKNDMHN@?$AAh?$AAy?$AA?$AA@ 10094888     LIBCMTD:winapinls.obj
 0002:00019890       ??_C@_15IJBHMCFL@?$AAa?$AAz?$AA?$AA@ 10094890     LIBCMTD:winapinls.obj
 0002:00019898       ??_C@_15EKOFJABL@?$AAe?$AAu?$AA?$AA@ 10094898     LIBCMTD:winapinls.obj
 0002:000198a0       ??_C@_15BGHADCNK@?$AAm?$AAk?$AA?$AA@ 100948a0     LIBCMTD:winapinls.obj
 0002:000198a8       ??_C@_15JDNICKHM@?$AAa?$AAf?$AA?$AA@ 100948a8     LIBCMTD:winapinls.obj
 0002:000198b0       ??_C@_15KPJEDBKD@?$AAk?$AAa?$AA?$AA@ 100948b0     LIBCMTD:winapinls.obj
 0002:000198b8       ??_C@_15PDNFFFEO@?$AAf?$AAo?$AA?$AA@ 100948b8     LIBCMTD:winapinls.obj
 0002:000198c0       ??_C@_15OMLEGLOC@?$AAh?$AAi?$AA?$AA@ 100948c0     LIBCMTD:winapinls.obj
 0002:000198c8       ??_C@_15IDNNENKK@?$AAm?$AAs?$AA?$AA@ 100948c8     LIBCMTD:winapinls.obj
 0002:000198d0       ??_C@_15MACJNBMH@?$AAk?$AAk?$AA?$AA@ 100948d0     LIBCMTD:winapinls.obj
 0002:000198d8       ??_C@_15DKDJEOND@?$AAk?$AAy?$AA?$AA@ 100948d8     LIBCMTD:winapinls.obj
 0002:000198e0       ??_C@_15DFGDLJBG@?$AAs?$AAw?$AA?$AA@ 100948e0     LIBCMTD:winapinls.obj
 0002:000198e8       ??_C@_15BBFAICNG@?$AAu?$AAz?$AA?$AA@ 100948e8     LIBCMTD:winapinls.obj
 0002:000198f0       ??_C@_15DKNDCGEA@?$AAt?$AAt?$AA?$AA@ 100948f0     LIBCMTD:winapinls.obj
 0002:000198f8       ??_C@_15MGIFMDPL@?$AAp?$AAa?$AA?$AA@ 100948f8     LIBCMTD:winapinls.obj
 0002:00019900       ??_C@_15HCNDBBA@?$AAg?$AAu?$AA?$AA@ 10094900     LIBCMTD:winapinls.obj
 0002:00019908       ??_C@_15FNBEIBON@?$AAt?$AAa?$AA?$AA@ 10094908     LIBCMTD:winapinls.obj
 0002:00019910       ??_C@_15NCHGBGLK@?$AAt?$AAe?$AA?$AA@ 10094910     LIBCMTD:winapinls.obj
 0002:00019918       ??_C@_15PHPHCBPF@?$AAk?$AAn?$AA?$AA@ 10094918     LIBCMTD:winapinls.obj
 0002:00019920       ??_C@_15DLGBCKMP@?$AAm?$AAr?$AA?$AA@ 10094920     LIBCMTD:winapinls.obj
 0002:00019928       ??_C@_15EABBLBFF@?$AAs?$AAa?$AA?$AA@ 10094928     LIBCMTD:winapinls.obj
 0002:00019930       ??_C@_15CBKOMCOI@?$AAm?$AAn?$AA?$AA@ 10094930     LIBCMTD:winapinls.obj
 0002:00019938       ??_C@_15CKDMCJAF@?$AAg?$AAl?$AA?$AA@ 10094938     LIBCMTD:winapinls.obj
 0002:00019940       ??_C@_17CNJFBPG@?$AAk?$AAo?$AAk?$AA?$AA@ 10094940     LIBCMTD:winapinls.obj
 0002:00019948       ??_C@_17FFBJICPL@?$AAs?$AAy?$AAr?$AA?$AA@ 10094948     LIBCMTD:winapinls.obj
 0002:00019950       ??_C@_17KPNDCPAF@?$AAd?$AAi?$AAv?$AA?$AA@ 10094950     LIBCMTD:winapinls.obj
 0002:00019958       ??_C@_1M@OKAHONE@?$AAa?$AAr?$AA?9?$AAS?$AAA?$AA?$AA@ 10094958     LIBCMTD:winapinls.obj
 0002:00019964       ??_C@_1M@FFFIGIGK@?$AAb?$AAg?$AA?9?$AAB?$AAG?$AA?$AA@ 10094964     LIBCMTD:winapinls.obj
 0002:00019970       ??_C@_1M@BJNKEDC@?$AAc?$AAa?$AA?9?$AAE?$AAS?$AA?$AA@ 10094970     LIBCMTD:winapinls.obj
 0002:0001997c       ??_C@_1M@IJJHFJHA@?$AAc?$AAs?$AA?9?$AAC?$AAZ?$AA?$AA@ 1009497c     LIBCMTD:winapinls.obj
 0002:00019988       ??_C@_1M@CLPEOBGI@?$AAd?$AAa?$AA?9?$AAD?$AAK?$AA?$AA@ 10094988     LIBCMTD:winapinls.obj
 0002:00019994       ??_C@_1M@MCMADGCB@?$AAd?$AAe?$AA?9?$AAD?$AAE?$AA?$AA@ 10094994     LIBCMTD:winapinls.obj
 0002:000199a0       ??_C@_1M@OOCKEMAM@?$AAe?$AAl?$AA?9?$AAG?$AAR?$AA?$AA@ 100949a0     LIBCMTD:winapinls.obj
 0002:000199ac       ??_C@_1M@DDNJFGID@?$AAf?$AAi?$AA?9?$AAF?$AAI?$AA?$AA@ 100949ac     LIBCMTD:winapinls.obj
 0002:000199b8       ??_C@_1M@GLIPPMAC@?$AAf?$AAr?$AA?9?$AAF?$AAR?$AA?$AA@ 100949b8     LIBCMTD:winapinls.obj
 0002:000199c4       ??_C@_1M@GFMCHPE@?$AAh?$AAe?$AA?9?$AAI?$AAL?$AA?$AA@ 100949c4     LIBCMTD:winapinls.obj
 0002:000199d0       ??_C@_1M@MHLPGNKM@?$AAh?$AAu?$AA?9?$AAH?$AAU?$AA?$AA@ 100949d0     LIBCMTD:winapinls.obj
 0002:000199dc       ??_C@_1M@LPDDNNPN@?$AAi?$AAs?$AA?9?$AAI?$AAS?$AA?$AA@ 100949dc     LIBCMTD:winapinls.obj
 0002:000199e8       ??_C@_1M@MADIPODN@?$AAi?$AAt?$AA?9?$AAI?$AAT?$AA?$AA@ 100949e8     LIBCMTD:winapinls.obj
 0002:000199f4       ??_C@_1M@IHBJJGG@?$AAn?$AAl?$AA?9?$AAN?$AAL?$AA?$AA@ 100949f4     LIBCMTD:winapinls.obj
 0002:00019a00       ??_C@_1M@EANAGDL@?$AAn?$AAb?$AA?9?$AAN?$AAO?$AA?$AA@ 10094a00     LIBCMTD:winapinls.obj
 0002:00019a0c       ??_C@_1M@NEIEMEGP@?$AAp?$AAl?$AA?9?$AAP?$AAL?$AA?$AA@ 10094a0c     LIBCMTD:winapinls.obj
 0002:00019a18       ??_C@_1M@BOCFIGEP@?$AAp?$AAt?$AA?9?$AAB?$AAR?$AA?$AA@ 10094a18     LIBCMTD:winapinls.obj
 0002:00019a24       ??_C@_1M@IMPFOPBG@?$AAr?$AAo?$AA?9?$AAR?$AAO?$AA?$AA@ 10094a24     LIBCMTD:winapinls.obj
 0002:00019a30       ??_C@_1M@IDNNEJMM@?$AAr?$AAu?$AA?9?$AAR?$AAU?$AA?$AA@ 10094a30     LIBCMTD:winapinls.obj
 0002:00019a3c       ??_C@_1M@LILEEOGM@?$AAh?$AAr?$AA?9?$AAH?$AAR?$AA?$AA@ 10094a3c     LIBCMTD:winapinls.obj
 0002:00019a48       ??_C@_1M@FKIFEHPB@?$AAs?$AAk?$AA?9?$AAS?$AAK?$AA?$AA@ 10094a48     LIBCMTD:winapinls.obj
 0002:00019a54       ??_C@_1M@LJMAMNPJ@?$AAs?$AAq?$AA?9?$AAA?$AAL?$AA?$AA@ 10094a54     LIBCMTD:winapinls.obj
 0002:00019a60       ??_C@_1M@GIAKDKJK@?$AAs?$AAv?$AA?9?$AAS?$AAE?$AA?$AA@ 10094a60     LIBCMTD:winapinls.obj
 0002:00019a6c       ??_C@_1M@MKJKIKCL@?$AAt?$AAh?$AA?9?$AAT?$AAH?$AA?$AA@ 10094a6c     LIBCMTD:winapinls.obj
 0002:00019a78       ??_C@_1M@MFLCCMPB@?$AAt?$AAr?$AA?9?$AAT?$AAR?$AA?$AA@ 10094a78     LIBCMTD:winapinls.obj
 0002:00019a84       ??_C@_1M@OIJHDKJN@?$AAu?$AAr?$AA?9?$AAP?$AAK?$AA?$AA@ 10094a84     LIBCMTD:winapinls.obj
 0002:00019a90       ??_C@_1M@LHIPCIEK@?$AAi?$AAd?$AA?9?$AAI?$AAD?$AA?$AA@ 10094a90     LIBCMTD:winapinls.obj
 0002:00019a9c       ??_C@_1M@MFMOBGI@?$AAu?$AAk?$AA?9?$AAU?$AAA?$AA?$AA@ 10094a9c     LIBCMTD:winapinls.obj
 0002:00019aa8       ??_C@_1M@OBGLJIPL@?$AAb?$AAe?$AA?9?$AAB?$AAY?$AA?$AA@ 10094aa8     LIBCMTD:winapinls.obj
 0002:00019ab4       ??_C@_1M@BCFAJEAD@?$AAs?$AAl?$AA?9?$AAS?$AAI?$AA?$AA@ 10094ab4     LIBCMTD:winapinls.obj
 0002:00019ac0       ??_C@_1M@FKFFEDDN@?$AAe?$AAt?$AA?9?$AAE?$AAE?$AA?$AA@ 10094ac0     LIBCMTD:winapinls.obj
 0002:00019acc       ??_C@_1M@KGKKAACI@?$AAl?$AAv?$AA?9?$AAL?$AAV?$AA?$AA@ 10094acc     LIBCMTD:winapinls.obj
 0002:00019ad8       ??_C@_1M@IFGBIJO@?$AAl?$AAt?$AA?9?$AAL?$AAT?$AA?$AA@ 10094ad8     LIBCMTD:winapinls.obj
 0002:00019ae4       ??_C@_1M@FGEAHEDM@?$AAf?$AAa?$AA?9?$AAI?$AAR?$AA?$AA@ 10094ae4     LIBCMTD:winapinls.obj
 0002:00019af0       ??_C@_1M@KBMAIBFN@?$AAv?$AAi?$AA?9?$AAV?$AAN?$AA?$AA@ 10094af0     LIBCMTD:winapinls.obj
 0002:00019afc       ??_C@_1M@GPCBKDJK@?$AAh?$AAy?$AA?9?$AAA?$AAM?$AA?$AA@ 10094afc     LIBCMTD:winapinls.obj
 0002:00019b08       ??_C@_1BG@BECMDDJB@?$AAa?$AAz?$AA?9?$AAA?$AAZ?$AA?9?$AAL?$AAa?$AAt?$AAn?$AA?$AA@ 10094b08     LIBCMTD:winapinls.obj
 0002:00019b20       ??_C@_1M@MAOFCAEA@?$AAe?$AAu?$AA?9?$AAE?$AAS?$AA?$AA@ 10094b20     LIBCMTD:winapinls.obj
 0002:00019b2c       ??_C@_1M@IGHABKPI@?$AAm?$AAk?$AA?9?$AAM?$AAK?$AA?$AA@ 10094b2c     LIBCMTD:winapinls.obj
 0002:00019b38       ??_C@_1M@IAIGNEJG@?$AAt?$AAn?$AA?9?$AAZ?$AAA?$AA?$AA@ 10094b38     LIBCMTD:winapinls.obj
 0002:00019b44       ??_C@_1M@IIJCOJFA@?$AAx?$AAh?$AA?9?$AAZ?$AAA?$AA?$AA@ 10094b44     LIBCMTD:winapinls.obj
 0002:00019b50       ??_C@_1M@LGPJHNJH@?$AAz?$AAu?$AA?9?$AAZ?$AAA?$AA?$AA@ 10094b50     LIBCMTD:winapinls.obj
 0002:00019b5c       ??_C@_1M@HOKAOIO@?$AAa?$AAf?$AA?9?$AAZ?$AAA?$AA?$AA@ 10094b5c     LIBCMTD:winapinls.obj
 0002:00019b68       ??_C@_1M@DPCLHLIE@?$AAk?$AAa?$AA?9?$AAG?$AAE?$AA?$AA@ 10094b68     LIBCMTD:winapinls.obj
 0002:00019b74       ??_C@_1M@BLKMHJBI@?$AAf?$AAo?$AA?9?$AAF?$AAO?$AA?$AA@ 10094b74     LIBCMTD:winapinls.obj
 0002:00019b80       ??_C@_1M@LGGJAPPB@?$AAh?$AAi?$AA?9?$AAI?$AAN?$AA?$AA@ 10094b80     LIBCMTD:winapinls.obj
 0002:00019b8c       ??_C@_1M@FIKPIHFE@?$AAm?$AAt?$AA?9?$AAM?$AAT?$AA?$AA@ 10094b8c     LIBCMTD:winapinls.obj
 0002:00019b98       ??_C@_1M@HEGGPBFA@?$AAs?$AAe?$AA?9?$AAN?$AAO?$AA?$AA@ 10094b98     LIBCMTD:winapinls.obj
 0002:00019ba4       ??_C@_1M@EIBJEEPA@?$AAm?$AAs?$AA?9?$AAM?$AAY?$AA?$AA@ 10094ba4     LIBCMTD:winapinls.obj
 0002:00019bb0       ??_C@_1M@FHLBGMPP@?$AAk?$AAk?$AA?9?$AAK?$AAZ?$AA?$AA@ 10094bb0     LIBCMTD:winapinls.obj
 0002:00019bbc       ??_C@_1M@NGJJLCGI@?$AAk?$AAy?$AA?9?$AAK?$AAG?$AA?$AA@ 10094bbc     LIBCMTD:winapinls.obj
 0002:00019bc8       ??_C@_1M@GIENNBFC@?$AAs?$AAw?$AA?9?$AAK?$AAE?$AA?$AA@ 10094bc8     LIBCMTD:winapinls.obj
 0002:00019bd4       ??_C@_1BG@NDGMJIMJ@?$AAu?$AAz?$AA?9?$AAU?$AAZ?$AA?9?$AAL?$AAa?$AAt?$AAn?$AA?$AA@ 10094bd4     LIBCMTD:winapinls.obj
 0002:00019bec       ??_C@_1M@IDCCIHBC@?$AAt?$AAt?$AA?9?$AAR?$AAU?$AA?$AA@ 10094bec     LIBCMTD:winapinls.obj
 0002:00019bf8       ??_C@_1M@LOICPMOJ@?$AAb?$AAn?$AA?9?$AAI?$AAN?$AA?$AA@ 10094bf8     LIBCMTD:winapinls.obj
 0002:00019c04       ??_C@_1M@KPKKNEAH@?$AAp?$AAa?$AA?9?$AAI?$AAN?$AA?$AA@ 10094c04     LIBCMTD:winapinls.obj
 0002:00019c10       ??_C@_1M@PJGPPBOG@?$AAg?$AAu?$AA?9?$AAI?$AAN?$AA?$AA@ 10094c10     LIBCMTD:winapinls.obj
 0002:00019c1c       ??_C@_1M@KMKMOPHI@?$AAt?$AAa?$AA?9?$AAI?$AAN?$AA?$AA@ 10094c1c     LIBCMTD:winapinls.obj
 0002:00019c28       ??_C@_1M@KFEHEPAC@?$AAt?$AAe?$AA?9?$AAI?$AAN?$AA?$AA@ 10094c28     LIBCMTD:winapinls.obj
 0002:00019c34       ??_C@_1M@CDCLMGHI@?$AAk?$AAn?$AA?9?$AAI?$AAN?$AA?$AA@ 10094c34     LIBCMTD:winapinls.obj
 0002:00019c40       ??_C@_1M@MIODLDKF@?$AAm?$AAl?$AA?9?$AAI?$AAN?$AA?$AA@ 10094c40     LIBCMTD:winapinls.obj
 0002:00019c4c       ??_C@_1M@PBIEACPO@?$AAm?$AAr?$AA?9?$AAI?$AAN?$AA?$AA@ 10094c4c     LIBCMTD:winapinls.obj
 0002:00019c58       ??_C@_1M@NIDEAGPH@?$AAs?$AAa?$AA?9?$AAI?$AAN?$AA?$AA@ 10094c58     LIBCMTD:winapinls.obj
 0002:00019c64       ??_C@_1M@FHIHCBIO@?$AAm?$AAn?$AA?9?$AAM?$AAN?$AA?$AA@ 10094c64     LIBCMTD:winapinls.obj
 0002:00019c70       ??_C@_1M@JAIJPENP@?$AAc?$AAy?$AA?9?$AAG?$AAB?$AA?$AA@ 10094c70     LIBCMTD:winapinls.obj
 0002:00019c7c       ??_C@_1M@PHGFBEPN@?$AAg?$AAl?$AA?9?$AAE?$AAS?$AA?$AA@ 10094c7c     LIBCMTD:winapinls.obj
 0002:00019c88       ??_C@_1O@KPIPDNCP@?$AAk?$AAo?$AAk?$AA?9?$AAI?$AAN?$AA?$AA@ 10094c88     LIBCMTD:winapinls.obj
 0002:00019c98       ??_C@_1O@KNHJLDJA@?$AAs?$AAy?$AAr?$AA?9?$AAS?$AAY?$AA?$AA@ 10094c98     LIBCMTD:winapinls.obj
 0002:00019ca8       ??_C@_1O@MKEKBLAH@?$AAd?$AAi?$AAv?$AA?9?$AAM?$AAV?$AA?$AA@ 10094ca8     LIBCMTD:winapinls.obj
 0002:00019cb8       ??_C@_1O@OHDCKDDF@?$AAq?$AAu?$AAz?$AA?9?$AAB?$AAO?$AA?$AA@ 10094cb8     LIBCMTD:winapinls.obj
 0002:00019cc8       ??_C@_1M@LEPJNLFD@?$AAn?$AAs?$AA?9?$AAZ?$AAA?$AA?$AA@ 10094cc8     LIBCMTD:winapinls.obj
 0002:00019cd4       ??_C@_1M@OMLEIIJB@?$AAm?$AAi?$AA?9?$AAN?$AAZ?$AA?$AA@ 10094cd4     LIBCMTD:winapinls.obj
 0002:00019ce0       ??_C@_1M@PMPEAILG@?$AAa?$AAr?$AA?9?$AAI?$AAQ?$AA?$AA@ 10094ce0     LIBCMTD:winapinls.obj
 0002:00019cec       ??_C@_1M@CNKPNOEE@?$AAd?$AAe?$AA?9?$AAC?$AAH?$AA?$AA@ 10094cec     LIBCMTD:winapinls.obj
 0002:00019cf8       ??_C@_1M@LKMGMLKO@?$AAe?$AAn?$AA?9?$AAG?$AAB?$AA?$AA@ 10094cf8     LIBCMTD:winapinls.obj
 0002:00019d04       ??_C@_1M@PGKJFFGL@?$AAe?$AAs?$AA?9?$AAM?$AAX?$AA?$AA@ 10094d04     LIBCMTD:winapinls.obj
 0002:00019d10       ??_C@_1M@DNNANBDC@?$AAf?$AAr?$AA?9?$AAB?$AAE?$AA?$AA@ 10094d10     LIBCMTD:winapinls.obj
 0002:00019d1c       ??_C@_1M@HLGMDFHM@?$AAi?$AAt?$AA?9?$AAC?$AAH?$AA?$AA@ 10094d1c     LIBCMTD:winapinls.obj
 0002:00019d28       ??_C@_1M@CLLBGJH@?$AAn?$AAl?$AA?9?$AAB?$AAE?$AA?$AA@ 10094d28     LIBCMTD:winapinls.obj
 0002:00019d34       ??_C@_1M@BODBOGLF@?$AAn?$AAn?$AA?9?$AAN?$AAO?$AA?$AA@ 10094d34     LIBCMTD:winapinls.obj
 0002:00019d40       ??_C@_1M@HFFAHKAD@?$AAp?$AAt?$AA?9?$AAP?$AAT?$AA?$AA@ 10094d40     LIBCMTD:winapinls.obj
 0002:00019d4c       ??_C@_1BG@LNOAKHIE@?$AAs?$AAr?$AA?9?$AAS?$AAP?$AA?9?$AAL?$AAa?$AAt?$AAn?$AA?$AA@ 10094d4c     LIBCMTD:winapinls.obj
 0002:00019d64       ??_C@_1M@HBMHBGAK@?$AAs?$AAv?$AA?9?$AAF?$AAI?$AA?$AA@ 10094d64     LIBCMTD:winapinls.obj
 0002:00019d70       ??_C@_1BG@DGCJGJBE@?$AAa?$AAz?$AA?9?$AAA?$AAZ?$AA?9?$AAC?$AAy?$AAr?$AAl?$AA?$AA@ 10094d70     LIBCMTD:winapinls.obj
 0002:00019d88       ??_C@_1M@KEJDAAHB@?$AAs?$AAe?$AA?9?$AAS?$AAE?$AA?$AA@ 10094d88     LIBCMTD:winapinls.obj
 0002:00019d94       ??_C@_1M@HEIBJJAD@?$AAm?$AAs?$AA?9?$AAB?$AAN?$AA?$AA@ 10094d94     LIBCMTD:winapinls.obj
 0002:00019da0       ??_C@_1BG@PBGJMCEM@?$AAu?$AAz?$AA?9?$AAU?$AAZ?$AA?9?$AAC?$AAy?$AAr?$AAl?$AA?$AA@ 10094da0     LIBCMTD:winapinls.obj
 0002:00019db8       ??_C@_1O@LAOBCMDF@?$AAq?$AAu?$AAz?$AA?9?$AAE?$AAC?$AA?$AA@ 10094db8     LIBCMTD:winapinls.obj
 0002:00019dc8       ??_C@_1M@POEEMAIO@?$AAa?$AAr?$AA?9?$AAE?$AAG?$AA?$AA@ 10094dc8     LIBCMTD:winapinls.obj
 0002:00019dd4       ??_C@_1M@EFAKDEDL@?$AAz?$AAh?$AA?9?$AAH?$AAK?$AA?$AA@ 10094dd4     LIBCMTD:winapinls.obj
 0002:00019de0       ??_C@_1M@HKKIJHGI@?$AAd?$AAe?$AA?9?$AAA?$AAT?$AA?$AA@ 10094de0     LIBCMTD:winapinls.obj
 0002:00019dec       ??_C@_1M@KBFBEHJF@?$AAe?$AAn?$AA?9?$AAA?$AAU?$AA?$AA@ 10094dec     LIBCMTD:winapinls.obj
 0002:00019df8       ??_C@_1M@MNPLFAAH@?$AAe?$AAs?$AA?9?$AAE?$AAS?$AA?$AA@ 10094df8     LIBCMTD:winapinls.obj
 0002:00019e04       ??_C@_1M@HJOOJFMA@?$AAf?$AAr?$AA?9?$AAC?$AAA?$AA?$AA@ 10094e04     LIBCMTD:winapinls.obj
 0002:00019e10       ??_C@_1BG@JPOFPNAB@?$AAs?$AAr?$AA?9?$AAS?$AAP?$AA?9?$AAC?$AAy?$AAr?$AAl?$AA?$AA@ 10094e10     LIBCMTD:winapinls.obj
 0002:00019e28       ??_C@_1M@LNFOCMOB@?$AAs?$AAe?$AA?9?$AAF?$AAI?$AA?$AA@ 10094e28     LIBCMTD:winapinls.obj
 0002:00019e34       ??_C@_1O@MGJBOAMB@?$AAq?$AAu?$AAz?$AA?9?$AAP?$AAE?$AA?$AA@ 10094e34     LIBCMTD:winapinls.obj
 0002:00019e44       ??_C@_1M@GJINLBOK@?$AAa?$AAr?$AA?9?$AAL?$AAY?$AA?$AA@ 10094e44     LIBCMTD:winapinls.obj
 0002:00019e50       ??_C@_1M@GGMNHJNL@?$AAz?$AAh?$AA?9?$AAS?$AAG?$AA?$AA@ 10094e50     LIBCMTD:winapinls.obj
 0002:00019e5c       ??_C@_1M@HOIKODND@?$AAd?$AAe?$AA?9?$AAL?$AAU?$AA?$AA@ 10094e5c     LIBCMTD:winapinls.obj
 0002:00019e68       ??_C@_1M@DDOCCGFG@?$AAe?$AAn?$AA?9?$AAC?$AAA?$AA?$AA@ 10094e68     LIBCMTD:winapinls.obj
 0002:00019e74       ??_C@_1M@BNOEMJLF@?$AAe?$AAs?$AA?9?$AAG?$AAT?$AA?$AA@ 10094e74     LIBCMTD:winapinls.obj
 0002:00019e80       ??_C@_1M@EOGNKEK@?$AAf?$AAr?$AA?9?$AAC?$AAH?$AA?$AA@ 10094e80     LIBCMTD:winapinls.obj
 0002:00019e8c       ??_C@_1M@FLIDJFHL@?$AAh?$AAr?$AA?9?$AAB?$AAA?$AA?$AA@ 10094e8c     LIBCMTD:winapinls.obj
 0002:00019e98       ??_C@_1O@FMCELNAJ@?$AAs?$AAm?$AAj?$AA?9?$AAN?$AAO?$AA?$AA@ 10094e98     LIBCMTD:winapinls.obj
 0002:00019ea8       ??_C@_1M@JHGLJMGJ@?$AAa?$AAr?$AA?9?$AAD?$AAZ?$AA?$AA@ 10094ea8     LIBCMTD:winapinls.obj
 0002:00019eb4       ??_C@_1M@JKKFDCNP@?$AAz?$AAh?$AA?9?$AAM?$AAO?$AA?$AA@ 10094eb4     LIBCMTD:winapinls.obj
 0002:00019ec0       ??_C@_1M@GEEFALPE@?$AAd?$AAe?$AA?9?$AAL?$AAI?$AA?$AA@ 10094ec0     LIBCMTD:winapinls.obj
 0002:00019ecc       ??_C@_1M@IGEOFBG@?$AAe?$AAn?$AA?9?$AAN?$AAZ?$AA?$AA@ 10094ecc     LIBCMTD:winapinls.obj
 0002:00019ed8       ??_C@_1M@KDBONEHP@?$AAe?$AAs?$AA?9?$AAC?$AAR?$AA?$AA@ 10094ed8     LIBCMTD:winapinls.obj
 0002:00019ee4       ??_C@_1M@FHMDOHNN@?$AAf?$AAr?$AA?9?$AAL?$AAU?$AA?$AA@ 10094ee4     LIBCMTD:winapinls.obj
 0002:00019ef0       ??_C@_1BG@NFKKMAFG@?$AAb?$AAs?$AA?9?$AAB?$AAA?$AA?9?$AAL?$AAa?$AAt?$AAn?$AA?$AA@ 10094ef0     LIBCMTD:winapinls.obj
 0002:00019f08       ??_C@_1O@IMNBEMCI@?$AAs?$AAm?$AAj?$AA?9?$AAS?$AAE?$AA?$AA@ 10094f08     LIBCMTD:winapinls.obj
 0002:00019f18       ??_C@_1M@DHHMBNDP@?$AAa?$AAr?$AA?9?$AAM?$AAA?$AA?$AA@ 10094f18     LIBCMTD:winapinls.obj
 0002:00019f24       ??_C@_1M@BNBLJCGH@?$AAe?$AAn?$AA?9?$AAI?$AAE?$AA?$AA@ 10094f24     LIBCMTD:winapinls.obj
 0002:00019f30       ??_C@_1M@GEPAFMDL@?$AAe?$AAs?$AA?9?$AAP?$AAA?$AA?$AA@ 10094f30     LIBCMTD:winapinls.obj
 0002:00019f3c       ??_C@_1M@OJONDMDL@?$AAf?$AAr?$AA?9?$AAM?$AAC?$AA?$AA@ 10094f3c     LIBCMTD:winapinls.obj
 0002:00019f48       ??_C@_1BG@OBCNFJB@?$AAs?$AAr?$AA?9?$AAB?$AAA?$AA?9?$AAL?$AAa?$AAt?$AAn?$AA?$AA@ 10094f48     LIBCMTD:winapinls.obj
 0002:00019f60       ??_C@_1O@KEMEEGPO@?$AAs?$AAm?$AAa?$AA?9?$AAN?$AAO?$AA?$AA@ 10094f60     LIBCMTD:winapinls.obj
 0002:00019f70       ??_C@_1M@ELMGFODK@?$AAa?$AAr?$AA?9?$AAT?$AAN?$AA?$AA@ 10094f70     LIBCMTD:winapinls.obj
 0002:00019f7c       ??_C@_1M@BHDLHFAF@?$AAe?$AAn?$AA?9?$AAZ?$AAA?$AA?$AA@ 10094f7c     LIBCMTD:winapinls.obj
 0002:00019f88       ??_C@_1M@BMGIGLIF@?$AAe?$AAs?$AA?9?$AAD?$AAO?$AA?$AA@ 10094f88     LIBCMTD:winapinls.obj
 0002:00019f94       ??_C@_1BG@CMBHIPBE@?$AAs?$AAr?$AA?9?$AAB?$AAA?$AA?9?$AAC?$AAy?$AAr?$AAl?$AA?$AA@ 10094f94     LIBCMTD:winapinls.obj
 0002:00019fac       ??_C@_1O@HEDBLHNP@?$AAs?$AAm?$AAa?$AA?9?$AAS?$AAE?$AA?$AA@ 10094fac     LIBCMTD:winapinls.obj
 0002:00019fbc       ??_C@_1M@DAGCADIM@?$AAa?$AAr?$AA?9?$AAO?$AAM?$AA?$AA@ 10094fbc     LIBCMTD:winapinls.obj
 0002:00019fc8       ??_C@_1M@FODLMICG@?$AAe?$AAn?$AA?9?$AAJ?$AAM?$AA?$AA@ 10094fc8     LIBCMTD:winapinls.obj
 0002:00019fd4       ??_C@_1M@DNMLCIHB@?$AAe?$AAs?$AA?9?$AAV?$AAE?$AA?$AA@ 10094fd4     LIBCMTD:winapinls.obj
 0002:00019fe0       ??_C@_1O@EOKHMKJK@?$AAs?$AAm?$AAs?$AA?9?$AAF?$AAI?$AA?$AA@ 10094fe0     LIBCMTD:winapinls.obj
 0002:00019ff0       ??_C@_1M@CAFJMKOF@?$AAa?$AAr?$AA?9?$AAY?$AAE?$AA?$AA@ 10094ff0     LIBCMTD:winapinls.obj
 0002:00019ffc       ??_C@_1M@CBFHIJLI@?$AAe?$AAn?$AA?9?$AAC?$AAB?$AA?$AA@ 10094ffc     LIBCMTD:winapinls.obj
 0002:0001a008       ??_C@_1M@BGNFLDN@?$AAe?$AAs?$AA?9?$AAC?$AAO?$AA?$AA@ 10095008     LIBCMTD:winapinls.obj
 0002:0001a014       ??_C@_1O@JMPHMAMC@?$AAs?$AAm?$AAn?$AA?9?$AAF?$AAI?$AA?$AA@ 10095014     LIBCMTD:winapinls.obj
 0002:0001a024       ??_C@_1M@JLANABKE@?$AAa?$AAr?$AA?9?$AAS?$AAY?$AA?$AA@ 10095024     LIBCMTD:winapinls.obj
 0002:0001a030       ??_C@_1M@HPKGCFGN@?$AAe?$AAn?$AA?9?$AAB?$AAZ?$AA?$AA@ 10095030     LIBCMTD:winapinls.obj
 0002:0001a03c       ??_C@_1M@OLJCMLGM@?$AAe?$AAs?$AA?9?$AAP?$AAE?$AA?$AA@ 1009503c     LIBCMTD:winapinls.obj
 0002:0001a048       ??_C@_1M@MKKGFKLE@?$AAa?$AAr?$AA?9?$AAJ?$AAO?$AA?$AA@ 10095048     LIBCMTD:winapinls.obj
 0002:0001a054       ??_C@_1M@EKPGLDNI@?$AAe?$AAn?$AA?9?$AAT?$AAT?$AA?$AA@ 10095054     LIBCMTD:winapinls.obj
 0002:0001a060       ??_C@_1M@OONGHFHE@?$AAe?$AAs?$AA?9?$AAA?$AAR?$AA?$AA@ 10095060     LIBCMTD:winapinls.obj
 0002:0001a06c       ??_C@_1M@OOJFGBHE@?$AAa?$AAr?$AA?9?$AAL?$AAB?$AA?$AA@ 1009506c     LIBCMTD:winapinls.obj
 0002:0001a078       ??_C@_1M@GCEJHNEG@?$AAe?$AAn?$AA?9?$AAZ?$AAW?$AA?$AA@ 10095078     LIBCMTD:winapinls.obj
 0002:0001a084       ??_C@_1M@JNOCAHJI@?$AAe?$AAs?$AA?9?$AAE?$AAC?$AA?$AA@ 10095084     LIBCMTD:winapinls.obj
 0002:0001a090       ??_C@_1M@JEFHPGGB@?$AAa?$AAr?$AA?9?$AAK?$AAW?$AA?$AA@ 10095090     LIBCMTD:winapinls.obj
 0002:0001a09c       ??_C@_1M@MLKIBJOJ@?$AAe?$AAn?$AA?9?$AAP?$AAH?$AA?$AA@ 1009509c     LIBCMTD:winapinls.obj
 0002:0001a0a8       ??_C@_1M@BDNIPEND@?$AAe?$AAs?$AA?9?$AAC?$AAL?$AA?$AA@ 100950a8     LIBCMTD:winapinls.obj
 0002:0001a0b4       ??_C@_1M@MPNMEKBD@?$AAa?$AAr?$AA?9?$AAA?$AAE?$AA?$AA@ 100950b4     LIBCMTD:winapinls.obj
 0002:0001a0c0       ??_C@_1M@KBJALCPI@?$AAe?$AAs?$AA?9?$AAU?$AAY?$AA?$AA@ 100950c0     LIBCMTD:winapinls.obj
 0002:0001a0cc       ??_C@_1M@LLCCOAGA@?$AAa?$AAr?$AA?9?$AAB?$AAH?$AA?$AA@ 100950cc     LIBCMTD:winapinls.obj
 0002:0001a0d8       ??_C@_1M@PBFNCDEL@?$AAe?$AAs?$AA?9?$AAP?$AAY?$AA?$AA@ 100950d8     LIBCMTD:winapinls.obj
 0002:0001a0e4       ??_C@_1M@EDGINPNP@?$AAa?$AAr?$AA?9?$AAQ?$AAA?$AA?$AA@ 100950e4     LIBCMTD:winapinls.obj
 0002:0001a0f0       ??_C@_1M@MKDBIIJI@?$AAe?$AAs?$AA?9?$AAB?$AAO?$AA?$AA@ 100950f0     LIBCMTD:winapinls.obj
 0002:0001a0fc       ??_C@_1M@CPKKEBLD@?$AAe?$AAs?$AA?9?$AAS?$AAV?$AA?$AA@ 100950fc     LIBCMTD:winapinls.obj
 0002:0001a108       ??_C@_1M@NDBGMMJL@?$AAe?$AAs?$AA?9?$AAH?$AAN?$AA?$AA@ 10095108     LIBCMTD:winapinls.obj
 0002:0001a114       ??_C@_1M@JIJIBHDP@?$AAe?$AAs?$AA?9?$AAN?$AAI?$AA?$AA@ 10095114     LIBCMTD:winapinls.obj
 0002:0001a120       ??_C@_1M@CGFMKEEK@?$AAe?$AAs?$AA?9?$AAP?$AAR?$AA?$AA@ 10095120     LIBCMTD:winapinls.obj
 0002:0001a12c       ??_C@_1O@ICJHKIIK@?$AAz?$AAh?$AA?9?$AAC?$AAH?$AAT?$AA?$AA@ 1009512c     LIBCMTD:winapinls.obj
 0002:0001a13c       ??_C@_15CLNEJCE@?$AAs?$AAr?$AA?$AA@ 1009513c     LIBCMTD:winapinls.obj
 0002:0001a144       ??_C@_1M@KAHEKEIG@?$AAa?$AAf?$AA?9?$AAz?$AAa?$AA?$AA@ 10095144     LIBCMTD:winapinls.obj
 0002:0001a150       ??_C@_1M@GIECOABL@?$AAa?$AAr?$AA?9?$AAa?$AAe?$AA?$AA@ 10095150     LIBCMTD:winapinls.obj
 0002:0001a15c       ??_C@_1M@BMLMEKGI@?$AAa?$AAr?$AA?9?$AAb?$AAh?$AA?$AA@ 1009515c     LIBCMTD:winapinls.obj
 0002:0001a168       ??_C@_1M@DAPFDGGB@?$AAa?$AAr?$AA?9?$AAd?$AAz?$AA?$AA@ 10095168     LIBCMTD:winapinls.obj
 0002:0001a174       ??_C@_1M@FJNKGKIG@?$AAa?$AAr?$AA?9?$AAe?$AAg?$AA?$AA@ 10095174     LIBCMTD:winapinls.obj
 0002:0001a180       ??_C@_1M@FLGKKCLO@?$AAa?$AAr?$AA?9?$AAi?$AAq?$AA?$AA@ 10095180     LIBCMTD:winapinls.obj
 0002:0001a18c       ??_C@_1M@GNDIPALM@?$AAa?$AAr?$AA?9?$AAj?$AAo?$AA?$AA@ 1009518c     LIBCMTD:winapinls.obj
 0002:0001a198       ??_C@_1M@DDMJFMGJ@?$AAa?$AAr?$AA?9?$AAk?$AAw?$AA?$AA@ 10095198     LIBCMTD:winapinls.obj
 0002:0001a1a4       ??_C@_1M@EJALMLHM@?$AAa?$AAr?$AA?9?$AAl?$AAb?$AA?$AA@ 100951a4     LIBCMTD:winapinls.obj
 0002:0001a1b0       ??_C@_1M@MOBDBLOC@?$AAa?$AAr?$AA?9?$AAl?$AAy?$AA?$AA@ 100951b0     LIBCMTD:winapinls.obj
 0002:0001a1bc       ??_C@_1M@JAOCLHDH@?$AAa?$AAr?$AA?9?$AAm?$AAa?$AA?$AA@ 100951bc     LIBCMTD:winapinls.obj
 0002:0001a1c8       ??_C@_1M@JHPMKJIE@?$AAa?$AAr?$AA?9?$AAo?$AAm?$AA?$AA@ 100951c8     LIBCMTD:winapinls.obj
 0002:0001a1d4       ??_C@_1M@OEPGHFNH@?$AAa?$AAr?$AA?9?$AAq?$AAa?$AA?$AA@ 100951d4     LIBCMTD:winapinls.obj
 0002:0001a1e0       ??_C@_1M@KJDONENM@?$AAa?$AAr?$AA?9?$AAs?$AAa?$AA?$AA@ 100951e0     LIBCMTD:winapinls.obj
 0002:0001a1ec       ??_C@_1M@DMJDKLKM@?$AAa?$AAr?$AA?9?$AAs?$AAy?$AA?$AA@ 100951ec     LIBCMTD:winapinls.obj
 0002:0001a1f8       ??_C@_1M@OMFIPEDC@?$AAa?$AAr?$AA?9?$AAt?$AAn?$AA?$AA@ 100951f8     LIBCMTD:winapinls.obj
 0002:0001a204       ??_C@_1M@IHMHGAON@?$AAa?$AAr?$AA?9?$AAy?$AAe?$AA?$AA@ 10095204     LIBCMTD:winapinls.obj
 0002:0001a210       ??_C@_1BG@KDCPGJGB@?$AAa?$AAz?$AA?9?$AAa?$AAz?$AA?9?$AAc?$AAy?$AAr?$AAl?$AA?$AA@ 10095210     LIBCMTD:winapinls.obj
 0002:0001a228       ??_C@_1BG@IBCKDDOE@?$AAa?$AAz?$AA?9?$AAa?$AAz?$AA?9?$AAl?$AAa?$AAt?$AAn?$AA?$AA@ 10095228     LIBCMTD:winapinls.obj
 0002:0001a240       ??_C@_1M@EGPFDCPD@?$AAb?$AAe?$AA?9?$AAb?$AAy?$AA?$AA@ 10095240     LIBCMTD:winapinls.obj
 0002:0001a24c       ??_C@_1M@PCMGMCGC@?$AAb?$AAg?$AA?9?$AAb?$AAg?$AA?$AA@ 1009524c     LIBCMTD:winapinls.obj
 0002:0001a258       ??_C@_1M@BJBMFGOB@?$AAb?$AAn?$AA?9?$AAi?$AAn?$AA?$AA@ 10095258     LIBCMTD:winapinls.obj
 0002:0001a264       ??_C@_1BG@EAKMMACD@?$AAb?$AAs?$AA?9?$AAb?$AAa?$AA?9?$AAl?$AAa?$AAt?$AAn?$AA?$AA@ 10095264     LIBCMTD:winapinls.obj
 0002:0001a27c       ??_C@_1M@KGADAODK@?$AAc?$AAa?$AA?9?$AAe?$AAs?$AA?$AA@ 1009527c     LIBCMTD:winapinls.obj
 0002:0001a288       ??_C@_1M@COAJPDHI@?$AAc?$AAs?$AA?9?$AAc?$AAz?$AA?$AA@ 10095288     LIBCMTD:winapinls.obj
 0002:0001a294       ??_C@_1M@DHBHFONH@?$AAc?$AAy?$AA?9?$AAg?$AAb?$AA?$AA@ 10095294     LIBCMTD:winapinls.obj
 0002:0001a2a0       ??_C@_1M@IMGKELGA@?$AAd?$AAa?$AA?9?$AAd?$AAk?$AA?$AA@ 100952a0     LIBCMTD:winapinls.obj
 0002:0001a2ac       ??_C@_1M@NNDGDNGA@?$AAd?$AAe?$AA?9?$AAa?$AAt?$AA?$AA@ 100952ac     LIBCMTD:winapinls.obj
 0002:0001a2b8       ??_C@_1M@IKDBHEEM@?$AAd?$AAe?$AA?9?$AAc?$AAh?$AA?$AA@ 100952b8     LIBCMTD:winapinls.obj
 0002:0001a2c4       ??_C@_1M@GFFOJMCJ@?$AAd?$AAe?$AA?9?$AAd?$AAe?$AA?$AA@ 100952c4     LIBCMTD:winapinls.obj
 0002:0001a2d0       ??_C@_1M@MDNLKBPM@?$AAd?$AAe?$AA?9?$AAl?$AAi?$AA?$AA@ 100952d0     LIBCMTD:winapinls.obj
 0002:0001a2dc       ??_C@_1M@NJBEEJNL@?$AAd?$AAe?$AA?9?$AAl?$AAu?$AA?$AA@ 100952dc     LIBCMTD:winapinls.obj
 0002:0001a2e8       ??_C@_1O@GNNELBAP@?$AAd?$AAi?$AAv?$AA?9?$AAm?$AAv?$AA?$AA@ 100952e8     LIBCMTD:winapinls.obj
 0002:0001a2f8       ??_C@_1M@EJLEOGAE@?$AAe?$AAl?$AA?9?$AAg?$AAr?$AA?$AA@ 100952f8     LIBCMTD:winapinls.obj
 0002:0001a304       ??_C@_1M@GMPONJN@?$AAe?$AAn?$AA?9?$AAa?$AAu?$AA?$AA@ 10095304     LIBCMTD:winapinls.obj
 0002:0001a310       ??_C@_1M@NIDIIPGF@?$AAe?$AAn?$AA?9?$AAb?$AAz?$AA?$AA@ 10095310     LIBCMTD:winapinls.obj
 0002:0001a31c       ??_C@_1M@JEHMIMFO@?$AAe?$AAn?$AA?9?$AAc?$AAa?$AA?$AA@ 1009531c     LIBCMTD:winapinls.obj
 0002:0001a328       ??_C@_1M@IGMJCDLA@?$AAe?$AAn?$AA?9?$AAc?$AAb?$AA?$AA@ 10095328     LIBCMTD:winapinls.obj
 0002:0001a334       ??_C@_1M@BNFIGBKG@?$AAe?$AAn?$AA?9?$AAg?$AAb?$AA?$AA@ 10095334     LIBCMTD:winapinls.obj
 0002:0001a340       ??_C@_1M@LKIFDIGP@?$AAe?$AAn?$AA?9?$AAi?$AAe?$AA?$AA@ 10095340     LIBCMTD:winapinls.obj
 0002:0001a34c       ??_C@_1M@PJKFGCCO@?$AAe?$AAn?$AA?9?$AAj?$AAm?$AA?$AA@ 1009534c     LIBCMTD:winapinls.obj
 0002:0001a358       ??_C@_1M@KPPKEPBO@?$AAe?$AAn?$AA?9?$AAn?$AAz?$AA?$AA@ 10095358     LIBCMTD:winapinls.obj
 0002:0001a364       ??_C@_1M@GMDGLDOB@?$AAe?$AAn?$AA?9?$AAp?$AAh?$AA?$AA@ 10095364     LIBCMTD:winapinls.obj
 0002:0001a370       ??_C@_1M@ONGIBJNA@?$AAe?$AAn?$AA?9?$AAt?$AAt?$AA?$AA@ 10095370     LIBCMTD:winapinls.obj
 0002:0001a37c       ??_C@_1M@LLODPCMM@?$AAe?$AAn?$AA?9?$AAu?$AAs?$AA?$AA@ 1009537c     LIBCMTD:winapinls.obj
 0002:0001a388       ??_C@_1M@LAKFNPAN@?$AAe?$AAn?$AA?9?$AAz?$AAa?$AA?$AA@ 10095388     LIBCMTD:winapinls.obj
 0002:0001a394       ??_C@_1M@MFNHNHEO@?$AAe?$AAn?$AA?9?$AAz?$AAw?$AA?$AA@ 10095394     LIBCMTD:winapinls.obj
 0002:0001a3a0       ??_C@_1M@EJEINPHM@?$AAe?$AAs?$AA?9?$AAa?$AAr?$AA?$AA@ 100953a0     LIBCMTD:winapinls.obj
 0002:0001a3ac       ??_C@_1M@GNKPCCJA@?$AAe?$AAs?$AA?9?$AAb?$AAo?$AA?$AA@ 100953ac     LIBCMTD:winapinls.obj
 0002:0001a3b8       ??_C@_1M@LEEGFONL@?$AAe?$AAs?$AA?9?$AAc?$AAl?$AA?$AA@ 100953b8     LIBCMTD:winapinls.obj
 0002:0001a3c4       ??_C@_1M@KGPDPBDF@?$AAe?$AAs?$AA?9?$AAc?$AAo?$AA?$AA@ 100953c4     LIBCMTD:winapinls.obj
 0002:0001a3d0       ??_C@_1M@EIAHOHH@?$AAe?$AAs?$AA?9?$AAc?$AAr?$AA?$AA@ 100953d0     LIBCMTD:winapinls.obj
 0002:0001a3dc       ??_C@_1M@LLPGMBIN@?$AAe?$AAs?$AA?9?$AAd?$AAo?$AA?$AA@ 100953dc     LIBCMTD:winapinls.obj
 0002:0001a3e8       ??_C@_1M@DKHMKNJA@?$AAe?$AAs?$AA?9?$AAe?$AAc?$AA?$AA@ 100953e8     LIBCMTD:winapinls.obj
 0002:0001a3f4       ??_C@_1M@GKGFPKAP@?$AAe?$AAs?$AA?9?$AAe?$AAs?$AA?$AA@ 100953f4     LIBCMTD:winapinls.obj
 0002:0001a400       ??_C@_1M@LKHKGDLN@?$AAe?$AAs?$AA?9?$AAg?$AAt?$AA?$AA@ 10095400     LIBCMTD:winapinls.obj
 0002:0001a40c       ??_C@_1M@HEIIGGJD@?$AAe?$AAs?$AA?9?$AAh?$AAn?$AA?$AA@ 1009540c     LIBCMTD:winapinls.obj
 0002:0001a418       ??_C@_1M@FBDHPPGD@?$AAe?$AAs?$AA?9?$AAm?$AAx?$AA?$AA@ 10095418     LIBCMTD:winapinls.obj
 0002:0001a424       ??_C@_1M@DPAGLNDH@?$AAe?$AAs?$AA?9?$AAn?$AAi?$AA?$AA@ 10095424     LIBCMTD:winapinls.obj
 0002:0001a430       ??_C@_1M@MDGOPGDD@?$AAe?$AAs?$AA?9?$AAp?$AAa?$AA?$AA@ 10095430     LIBCMTD:winapinls.obj
 0002:0001a43c       ??_C@_1M@EMAMGBGE@?$AAe?$AAs?$AA?9?$AAp?$AAe?$AA?$AA@ 1009543c     LIBCMTD:winapinls.obj
 0002:0001a448       ??_C@_1M@IBMCAOEC@?$AAe?$AAs?$AA?9?$AAp?$AAr?$AA?$AA@ 10095448     LIBCMTD:winapinls.obj
 0002:0001a454       ??_C@_1M@FGMDIJED@?$AAe?$AAs?$AA?9?$AAp?$AAy?$AA?$AA@ 10095454     LIBCMTD:winapinls.obj
 0002:0001a460       ??_C@_1M@IIDEOLLL@?$AAe?$AAs?$AA?9?$AAs?$AAv?$AA?$AA@ 10095460     LIBCMTD:winapinls.obj
 0002:0001a46c       ??_C@_1M@GAOBIPA@?$AAe?$AAs?$AA?9?$AAu?$AAy?$AA?$AA@ 1009546c     LIBCMTD:winapinls.obj
 0002:0001a478       ??_C@_1M@JKFFICHJ@?$AAe?$AAs?$AA?9?$AAv?$AAe?$AA?$AA@ 10095478     LIBCMTD:winapinls.obj
 0002:0001a484       ??_C@_1M@PNMLOJDF@?$AAe?$AAt?$AA?9?$AAe?$AAe?$AA?$AA@ 10095484     LIBCMTD:winapinls.obj
 0002:0001a490       ??_C@_1M@GHHLIKEI@?$AAe?$AAu?$AA?9?$AAe?$AAs?$AA?$AA@ 10095490     LIBCMTD:winapinls.obj
 0002:0001a49c       ??_C@_1M@PBNONODE@?$AAf?$AAa?$AA?9?$AAi?$AAr?$AA?$AA@ 1009549c     LIBCMTD:winapinls.obj
 0002:0001a4a8       ??_C@_1M@JEEHPMIL@?$AAf?$AAi?$AA?9?$AAf?$AAi?$AA?$AA@ 100954a8     LIBCMTD:winapinls.obj
 0002:0001a4b4       ??_C@_1M@LMDCNDBA@?$AAf?$AAo?$AA?9?$AAf?$AAo?$AA?$AA@ 100954b4     LIBCMTD:winapinls.obj
 0002:0001a4c0       ??_C@_1M@JKEOHLDK@?$AAf?$AAr?$AA?9?$AAb?$AAe?$AA?$AA@ 100954c0     LIBCMTD:winapinls.obj
 0002:0001a4cc       ??_C@_1M@NOHADPMI@?$AAf?$AAr?$AA?9?$AAc?$AAa?$AA?$AA@ 100954cc     LIBCMTD:winapinls.obj
 0002:0001a4d8       ??_C@_1M@KDHIHAEC@?$AAf?$AAr?$AA?9?$AAc?$AAh?$AA?$AA@ 100954d8     LIBCMTD:winapinls.obj
 0002:0001a4e4       ??_C@_1M@MMBBFGAK@?$AAf?$AAr?$AA?9?$AAf?$AAr?$AA?$AA@ 100954e4     LIBCMTD:winapinls.obj
 0002:0001a4f0       ??_C@_1M@PAFNENNF@?$AAf?$AAr?$AA?9?$AAl?$AAu?$AA?$AA@ 100954f0     LIBCMTD:winapinls.obj
 0002:0001a4fc       ??_C@_1M@EOHDJGDD@?$AAf?$AAr?$AA?9?$AAm?$AAc?$AA?$AA@ 100954fc     LIBCMTD:winapinls.obj
 0002:0001a508       ??_C@_1M@FAPLLOPF@?$AAg?$AAl?$AA?9?$AAe?$AAs?$AA?$AA@ 10095508     LIBCMTD:winapinls.obj
 0002:0001a514       ??_C@_1M@FOPBFLOO@?$AAg?$AAu?$AA?9?$AAi?$AAn?$AA?$AA@ 10095514     LIBCMTD:winapinls.obj
 0002:0001a520       ??_C@_1M@KBMCINPM@?$AAh?$AAe?$AA?9?$AAi?$AAl?$AA?$AA@ 10095520     LIBCMTD:winapinls.obj
 0002:0001a52c       ??_C@_1M@BBPHKFPJ@?$AAh?$AAi?$AA?9?$AAi?$AAn?$AA?$AA@ 1009552c     LIBCMTD:winapinls.obj
 0002:0001a538       ??_C@_1M@PMBNDPHD@?$AAh?$AAr?$AA?9?$AAb?$AAa?$AA?$AA@ 10095538     LIBCMTD:winapinls.obj
 0002:0001a544       ??_C@_1M@BPCKOEGE@?$AAh?$AAr?$AA?9?$AAh?$AAr?$AA?$AA@ 10095544     LIBCMTD:winapinls.obj
 0002:0001a550       ??_C@_1M@GACBMHKE@?$AAh?$AAu?$AA?9?$AAh?$AAu?$AA?$AA@ 10095550     LIBCMTD:winapinls.obj
 0002:0001a55c       ??_C@_1M@MILPAJJC@?$AAh?$AAy?$AA?9?$AAa?$AAm?$AA?$AA@ 1009555c     LIBCMTD:winapinls.obj
 0002:0001a568       ??_C@_1M@BABBICEC@?$AAi?$AAd?$AA?9?$AAi?$AAd?$AA?$AA@ 10095568     LIBCMTD:winapinls.obj
 0002:0001a574       ??_C@_1M@BIKNHHPF@?$AAi?$AAs?$AA?9?$AAi?$AAs?$AA?$AA@ 10095574     LIBCMTD:winapinls.obj
 0002:0001a580       ??_C@_1M@NMPCJPHE@?$AAi?$AAt?$AA?9?$AAc?$AAh?$AA?$AA@ 10095580     LIBCMTD:winapinls.obj
 0002:0001a58c       ??_C@_1M@GHKGFEDF@?$AAi?$AAt?$AA?9?$AAi?$AAt?$AA?$AA@ 1009558c     LIBCMTD:winapinls.obj
 0002:0001a598       ??_C@_1M@NIEJCJJA@?$AAj?$AAa?$AA?9?$AAj?$AAp?$AA?$AA@ 10095598     LIBCMTD:winapinls.obj
 0002:0001a5a4       ??_C@_1M@JILFNBIM@?$AAk?$AAa?$AA?9?$AAg?$AAe?$AA?$AA@ 100955a4     LIBCMTD:winapinls.obj
 0002:0001a5b0       ??_C@_1M@PACPMGPH@?$AAk?$AAk?$AA?9?$AAk?$AAz?$AA?$AA@ 100955b0     LIBCMTD:winapinls.obj
 0002:0001a5bc       ??_C@_1M@IELFGMHA@?$AAk?$AAn?$AA?9?$AAi?$AAn?$AA?$AA@ 100955bc     LIBCMTD:winapinls.obj
 0002:0001a5c8       ??_C@_1O@IBBJHCH@?$AAk?$AAo?$AAk?$AA?9?$AAi?$AAn?$AA?$AA@ 100955c8     LIBCMTD:winapinls.obj
 0002:0001a5d8       ??_C@_1M@DMHAEOGC@?$AAk?$AAo?$AA?9?$AAk?$AAr?$AA?$AA@ 100955d8     LIBCMTD:winapinls.obj
 0002:0001a5e4       ??_C@_1M@HBAHBIGA@?$AAk?$AAy?$AA?9?$AAk?$AAg?$AA?$AA@ 100955e4     LIBCMTD:winapinls.obj
 0002:0001a5f0       ??_C@_1M@KPMILCJG@?$AAl?$AAt?$AA?9?$AAl?$AAt?$AA?$AA@ 100955f0     LIBCMTD:winapinls.obj
 0002:0001a5fc       ??_C@_1M@BDEKKCA@?$AAl?$AAv?$AA?9?$AAl?$AAv?$AA?$AA@ 100955fc     LIBCMTD:winapinls.obj
 0002:0001a608       ??_C@_1GG@BCIJGKDA@?$AAf?$AA?3?$AA?2?$AAd?$AAd?$AA?2?$AAv?$AAc?$AAt?$AAo?$AAo?$AAl?$AAs?$AA?2?$AAc?$AAr?$AAt?$AA_?$AAb?$AAl?$AAd?$AA?2?$AAs?$AAe?$AAl?$AAf?$AA_?$AAx?$AA8?$AA6?$AA?2?$AAc@ 10095608     LIBCMTD:winapinls.obj
 0002:0001a670       ??_C@_1DO@MBHJDOGM@?$AA_?$AA_?$AAc?$AAr?$AAt?$AAD?$AAo?$AAw?$AAn?$AAl?$AAe?$AAv?$AAe?$AAl?$AAL?$AAC?$AAI?$AAD?$AAT?$AAo?$AAL?$AAo?$AAc?$AAa?$AAl?$AAe?$AAN?$AAa?$AAm?$AAe?$AA?$AA@ 10095670     LIBCMTD:winapinls.obj
 0002:0001a6b0       ??_C@_1FO@LFACCMJH@?$AAw?$AAc?$AAs?$AAc?$AAp?$AAy?$AA_?$AAs?$AA?$CI?$AAo?$AAu?$AAt?$AAL?$AAo?$AAc?$AAa?$AAl?$AAe?$AAN?$AAa?$AAm?$AAe?$AA?0?$AA?5?$AAc?$AAc?$AAh?$AAL?$AAo?$AAc?$AAa?$AAl@ 100956b0     LIBCMTD:winapinls.obj
 0002:0001a710       ??_C@_1BK@LAOAACLJ@?$AAn?$AAp?$AAt?$AAr?$AA?5?$AA?$CB?$AA?$DN?$AA?5?$AAN?$AAU?$AAL?$AAL?$AA?$AA@ 10095710     LIBCMTD:strtol.obj
 0002:0001a730       ??_C@_1GA@IPHKKOEI@?$AAf?$AA?3?$AA?2?$AAd?$AAd?$AA?2?$AAv?$AAc?$AAt?$AAo?$AAo?$AAl?$AAs?$AA?2?$AAc?$AAr?$AAt?$AA_?$AAb?$AAl?$AAd?$AA?2?$AAs?$AAe?$AAl?$AAf?$AA_?$AAx?$AA8?$AA6?$AA?2?$AAc@ 10095730     LIBCMTD:strtol.obj
 0002:0001a790       ??_C@_1BA@LOLAMAJG@?$AAs?$AAt?$AAr?$AAt?$AAo?$AAx?$AAl?$AA?$AA@ 10095790     LIBCMTD:strtol.obj
 0002:0001a7a0       ??_C@_1FE@CEHLKAHD@?$AAi?$AAb?$AAa?$AAs?$AAe?$AA?5?$AA?$DN?$AA?$DN?$AA?5?$AA0?$AA?5?$AA?$HM?$AA?$HM?$AA?5?$AA?$CI?$AA2?$AA?5?$AA?$DM?$AA?$DN?$AA?5?$AAi?$AAb?$AAa?$AAs?$AAe?$AA?5?$AA?$CG?$AA?$CG?$AA?5?$AAi?$AAb?$AAa@ 100957a0     LIBCMTD:strtol.obj
 0002:0001a7f4       ??_C@_0DB@BECNGFDL@f?3?2dd?2vctools?2crt_bld?2self_x86?2c@ 100957f4     LIBCMTD:initmon.obj
 0002:0001a828       ??_C@_1DM@GKAPAMDO@?$AAp?$AAl?$AAo?$AAc?$AAi?$AA?9?$AA?$DO?$AAl?$AAc?$AAo?$AAn?$AAv?$AA_?$AAm?$AAo?$AAn?$AA_?$AAr?$AAe?$AAf?$AAc?$AAo?$AAu?$AAn?$AAt?$AA?5?$AA?$DO?$AA?5?$AA0?$AA?$AA@ 10095828     LIBCMTD:initmon.obj
 0002:0001a868       ??_C@_1GC@IKADOFBJ@?$AAf?$AA?3?$AA?2?$AAd?$AAd?$AA?2?$AAv?$AAc?$AAt?$AAo?$AAo?$AAl?$AAs?$AA?2?$AAc?$AAr?$AAt?$AA_?$AAb?$AAl?$AAd?$AA?2?$AAs?$AAe?$AAl?$AAf?$AA_?$AAx?$AA8?$AA6?$AA?2?$AAc@ 10095868     LIBCMTD:initmon.obj
 0002:0001a8cc       ??_C@_0DB@KKFMDHFI@f?3?2dd?2vctools?2crt_bld?2self_x86?2c@ 100958cc     LIBCMTD:initnum.obj
 0002:0001a900       ??_C@_1DM@IFKAINNE@?$AAp?$AAl?$AAo?$AAc?$AAi?$AA?9?$AA?$DO?$AAl?$AAc?$AAo?$AAn?$AAv?$AA_?$AAn?$AAu?$AAm?$AA_?$AAr?$AAe?$AAf?$AAc?$AAo?$AAu?$AAn?$AAt?$AA?5?$AA?$DO?$AA?5?$AA0?$AA?$AA@ 10095900     LIBCMTD:initnum.obj
 0002:0001a940       ??_C@_1GC@EDJOCBCL@?$AAf?$AA?3?$AA?2?$AAd?$AAd?$AA?2?$AAv?$AAc?$AAt?$AAo?$AAo?$AAl?$AAs?$AA?2?$AAc?$AAr?$AAt?$AA_?$AAb?$AAl?$AAd?$AA?2?$AAs?$AAe?$AAl?$AAf?$AA_?$AAx?$AA8?$AA6?$AA?2?$AAc@ 10095940     LIBCMTD:initnum.obj
 0002:0001a9a4       ??_C@_0DC@KICHHNFK@f?3?2dd?2vctools?2crt_bld?2self_x86?2c@ 100959a4     LIBCMTD:inittime.obj
 0002:0001a9d8       ??_C@_1EE@FDHCFDHN@?$AAp?$AAl?$AAo?$AAc?$AAi?$AA?9?$AA?$DO?$AAl?$AAc?$AA_?$AAt?$AAi?$AAm?$AAe?$AA_?$AAc?$AAu?$AAr?$AAr?$AA?9?$AA?$DO?$AAr?$AAe?$AAf?$AAc?$AAo?$AAu?$AAn?$AAt?$AA?5?$AA?$DO?$AA?5@ 100959d8     LIBCMTD:inittime.obj
 0002:0001aa20       ??_C@_1GE@GJCMHHMH@?$AAf?$AA?3?$AA?2?$AAd?$AAd?$AA?2?$AAv?$AAc?$AAt?$AAo?$AAo?$AAl?$AAs?$AA?2?$AAc?$AAr?$AAt?$AA_?$AAb?$AAl?$AAd?$AA?2?$AAs?$AAe?$AAl?$AAf?$AA_?$AAx?$AA8?$AA6?$AA?2?$AAc@ 10095a20     LIBCMTD:inittime.obj
 0002:0001aa88       ___lc_category             10095a88     LIBCMTD:wsetloca.obj
 0002:0001aad0       ??_C@_1O@GIFLHMA@?$AAL?$AAC?$AA_?$AAA?$AAL?$AAL?$AA?$AA@ 10095ad0     LIBCMTD:wsetloca.obj
 0002:0001aae0       ??_C@_1BG@PPOMIBNJ@?$AAL?$AAC?$AA_?$AAC?$AAO?$AAL?$AAL?$AAA?$AAT?$AAE?$AA?$AA@ 10095ae0     LIBCMTD:wsetloca.obj
 0002:0001aaf8       ??_C@_1BC@FFJGAPJM@?$AAL?$AAC?$AA_?$AAC?$AAT?$AAY?$AAP?$AAE?$AA?$AA@ 10095af8     LIBCMTD:wsetloca.obj
 0002:0001ab0c       ??_C@_1BI@PCKFNJFB@?$AAL?$AAC?$AA_?$AAM?$AAO?$AAN?$AAE?$AAT?$AAA?$AAR?$AAY?$AA?$AA@ 10095b0c     LIBCMTD:wsetloca.obj
 0002:0001ab24       ??_C@_1BG@ENIEDKID@?$AAL?$AAC?$AA_?$AAN?$AAU?$AAM?$AAE?$AAR?$AAI?$AAC?$AA?$AA@ 10095b24     LIBCMTD:wsetloca.obj
 0002:0001ab3c       ??_C@_1BA@HAAOMIIG@?$AAL?$AAC?$AA_?$AAT?$AAI?$AAM?$AAE?$AA?$AA@ 10095b3c     LIBCMTD:wsetloca.obj
 0002:0001abd0       ??_C@_1GA@LDEGDKD@?$AA?$CI?$AA?$CC?$AAI?$AAn?$AAv?$AAa?$AAl?$AAi?$AAd?$AA?5?$AAp?$AAa?$AAr?$AAa?$AAm?$AAe?$AAt?$AAe?$AAr?$AA?5?$AAf?$AAo?$AAr?$AA?5?$AA_?$AAc?$AAo?$AAn?$AAf?$AAi?$AAg?$AAt@ 10095bd0     LIBCMTD:wsetloca.obj
 0002:0001ac30       ??_C@_1GE@GBFCCMHH@?$AAf?$AA?3?$AA?2?$AAd?$AAd?$AA?2?$AAv?$AAc?$AAt?$AAo?$AAo?$AAl?$AAs?$AA?2?$AAc?$AAr?$AAt?$AA_?$AAb?$AAl?$AAd?$AA?2?$AAs?$AAe?$AAl?$AAf?$AA_?$AAx?$AA8?$AA6?$AA?2?$AAc@ 10095c30     LIBCMTD:wsetloca.obj
 0002:0001ac94       ??_C@_1CI@FGIONOJM@?$AA_?$AAc?$AAo?$AAn?$AAf?$AAi?$AAg?$AAt?$AAh?$AAr?$AAe?$AAa?$AAd?$AAl?$AAo?$AAc?$AAa?$AAl?$AAe?$AA?$AA@ 10095c94     LIBCMTD:wsetloca.obj
 0002:0001acbc       ??_C@_0DC@NCPJHDFJ@f?3?2dd?2vctools?2crt_bld?2self_x86?2c@ 10095cbc     LIBCMTD:wsetloca.obj
 0002:0001acf0       ??_C@_1FG@OHLFEKMC@?$AAL?$AAC?$AA_?$AAM?$AAI?$AAN?$AA?5?$AA?$DM?$AA?$DN?$AA?5?$AA_?$AAc?$AAa?$AAt?$AAe?$AAg?$AAo?$AAr?$AAy?$AA?5?$AA?$CG?$AA?$CG?$AA?5?$AA_?$AAc?$AAa?$AAt?$AAe?$AAg?$AAo?$AAr?$AAy@ 10095cf0     LIBCMTD:wsetloca.obj
 0002:0001ad48       ??_C@_1BI@KJNPAEHL@?$AA_?$AAw?$AAs?$AAe?$AAt?$AAl?$AAo?$AAc?$AAa?$AAl?$AAe?$AA?$AA@ 10095d48     LIBCMTD:wsetloca.obj
 0002:0001ad60       ??_C@_15NBPDDFIP@?$AA?$DN?$AA?$DL?$AA?$AA@ 10095d60     LIBCMTD:wsetloca.obj
 0002:0001ad68       ??_C@_13PJJBFPED@?$AA?$DL?$AA?$AA@ 10095d68     LIBCMTD:wsetloca.obj
 0002:0001ad6c       ??_C@_1CG@DKJCBBPP@?$AA_?$AAw?$AAs?$AAe?$AAt?$AAl?$AAo?$AAc?$AAa?$AAl?$AAe?$AA_?$AAn?$AAo?$AAl?$AAo?$AAc?$AAk?$AA?$AA@ 10095d6c     LIBCMTD:wsetloca.obj
 0002:0001ad98       ??_C@_1IA@DGCOPCLP@?$AAw?$AAc?$AAs?$AAn?$AAc?$AAp?$AAy?$AA_?$AAs?$AA?$CI?$AAl?$AAc?$AAt?$AAe?$AAm?$AAp?$AA?0?$AA?5?$AA?$CI?$AAs?$AAi?$AAz?$AAe?$AAo?$AAf?$AA?$CI?$AAl?$AAc?$AAt?$AAe?$AAm?$AAp@ 10095d98     LIBCMTD:wsetloca.obj
 0002:0001ae18       ??_C@_1CI@ODOPEMNJ@?$AA_?$AAw?$AAs?$AAe?$AAt?$AAl?$AAo?$AAc?$AAa?$AAl?$AAe?$AA_?$AAs?$AAe?$AAt?$AA_?$AAc?$AAa?$AAt?$AA?$AA@ 10095e18     LIBCMTD:wsetloca.obj
 0002:0001ae40       ??_C@_1EM@MHOCNIAA@?$AAw?$AAc?$AAs?$AAc?$AAp?$AAy?$AA_?$AAs?$AA?$CI?$AAp?$AAc?$AAh?$AA_?$AAc?$AAa?$AAt?$AA_?$AAl?$AAo?$AAc?$AAa?$AAl?$AAe?$AA?0?$AA?5?$AAc?$AAc?$AAh?$AA?0?$AA?5?$AAl?$AAc@ 10095e40     LIBCMTD:wsetloca.obj
 0002:0001ae8c       ??_C@_13NMPKAAJP@?$AA?$DN?$AA?$AA@ 10095e8c     LIBCMTD:wsetloca.obj
 0002:0001ae90       ??_C@_1CI@LKOPFFBD@?$AA_?$AAw?$AAs?$AAe?$AAt?$AAl?$AAo?$AAc?$AAa?$AAl?$AAe?$AA_?$AAg?$AAe?$AAt?$AA_?$AAa?$AAl?$AAl?$AA?$AA@ 10095e90     LIBCMTD:wsetloca.obj
 0002:0001aeb8       ??_C@_1DC@HMLJMODP@?$AAw?$AAc?$AAs?$AAc?$AAa?$AAt?$AA_?$AAs?$AA?$CI?$AAp?$AAc?$AAh?$AA?0?$AA?5?$AAc?$AAc?$AAh?$AA?0?$AA?5?$AAL?$AA?$CC?$AA?$DL?$AA?$CC?$AA?$CJ?$AA?$AA@ 10095eb8     LIBCMTD:wsetloca.obj
 0002:0001aeec       ??_C@_1BM@OIIBLEFG@?$AA_?$AAe?$AAx?$AAp?$AAa?$AAn?$AAd?$AAl?$AAo?$AAc?$AAa?$AAl?$AAe?$AA?$AA@ 10095eec     LIBCMTD:wsetloca.obj
 0002:0001af08       ??_C@_1BFG@FHLOBJGM@?$AAw?$AAc?$AAs?$AAn?$AAc?$AAp?$AAy?$AA_?$AAs?$AA?$CI?$AAl?$AAo?$AAc?$AAa?$AAl?$AAe?$AAN?$AAa?$AAm?$AAe?$AAO?$AAu?$AAt?$AAp?$AAu?$AAt?$AA?0?$AA?5?$AAl?$AAo?$AAc?$AAa@ 10095f08     LIBCMTD:wsetloca.obj
 0002:0001b060       ??_C@_1EI@OCINLCHN@?$AAw?$AAc?$AAs?$AAc?$AAp?$AAy?$AA_?$AAs?$AA?$CI?$AAo?$AAu?$AAt?$AAp?$AAu?$AAt?$AA?0?$AA?5?$AAs?$AAi?$AAz?$AAe?$AAI?$AAn?$AAC?$AAh?$AAa?$AAr?$AAs?$AA?0?$AA?5?$AAL?$AA?$CC@ 10096060     LIBCMTD:wsetloca.obj
 0002:0001b0a8       ??_C@_13FHBKNHDA@?$AAC?$AA?$AA@ 100960a8     LIBCMTD:wsetloca.obj
 0002:0001b0b0       ??_C@_1MO@NNCNEOAP@?$AAw?$AAc?$AAs?$AAn?$AAc?$AAp?$AAy?$AA_?$AAs?$AA?$CI?$AAl?$AAo?$AAc?$AAa?$AAl?$AAe?$AAN?$AAa?$AAm?$AAe?$AAO?$AAu?$AAt?$AAp?$AAu?$AAt?$AA?0?$AA?5?$AAl?$AAo?$AAc?$AAa@ 100960b0     LIBCMTD:wsetloca.obj
 0002:0001b180       ??_C@_1IG@MKDIEKFD@?$AAw?$AAc?$AAs?$AAn?$AAc?$AAp?$AAy?$AA_?$AAs?$AA?$CI?$AAc?$AAa?$AAc?$AAh?$AAe?$AAo?$AAu?$AAt?$AA?0?$AA?5?$AAc?$AAa?$AAc?$AAh?$AAe?$AAo?$AAu?$AAt?$AAL?$AAe?$AAn?$AA?0@ 10096180     LIBCMTD:wsetloca.obj
 0002:0001b208       ??_C@_1KK@KMIFPBBC@?$AAw?$AAc?$AAs?$AAn?$AAc?$AAp?$AAy?$AA_?$AAs?$AA?$CI?$AAl?$AAo?$AAc?$AAa?$AAl?$AAe?$AAN?$AAa?$AAm?$AAe?$AAO?$AAu?$AAt?$AAp?$AAu?$AAt?$AA?0?$AA?5?$AAl?$AAo?$AAc?$AAa@ 10096208     LIBCMTD:wsetloca.obj
 0002:0001b2b8       ??_C@_1BEK@OJDMMIMP@?$AAw?$AAc?$AAs?$AAn?$AAc?$AAp?$AAy?$AA_?$AAs?$AA?$CI?$AA_?$AAp?$AAs?$AAe?$AAt?$AAl?$AAo?$AAc?$AA_?$AAd?$AAa?$AAt?$AAa?$AA?9?$AA?$DO?$AA_?$AAc?$AAa?$AAc?$AAh?$AAe?$AAL@ 100962b8     LIBCMTD:wsetloca.obj
 0002:0001b408       ??_C@_1BGG@FCLLNAOE@?$AAw?$AAc?$AAs?$AAn?$AAc?$AAp?$AAy?$AA_?$AAs?$AA?$CI?$AA_?$AAp?$AAs?$AAe?$AAt?$AAl?$AAo?$AAc?$AA_?$AAd?$AAa?$AAt?$AAa?$AA?9?$AA?$DO?$AA_?$AAc?$AAa?$AAc?$AAh?$AAe?$AAL@ 10096408     LIBCMTD:wsetloca.obj
 0002:0001b570       ??_C@_1IC@FCCDBGLL@?$AAw?$AAc?$AAs?$AAn?$AAc?$AAp?$AAy?$AA_?$AAs?$AA?$CI?$AAc?$AAa?$AAc?$AAh?$AAe?$AAi?$AAn?$AA?0?$AA?5?$AAc?$AAa?$AAc?$AAh?$AAe?$AAi?$AAn?$AAL?$AAe?$AAn?$AA?0?$AA?5?$AAe@ 10096570     LIBCMTD:wsetloca.obj
 0002:0001b5f8       ??_C@_1FA@HOOAAHFF@?$AAw?$AAc?$AAs?$AAc?$AAp?$AAy?$AA_?$AAs?$AA?$CI?$AAo?$AAu?$AAt?$AAp?$AAu?$AAt?$AA?0?$AA?5?$AAs?$AAi?$AAz?$AAe?$AAI?$AAn?$AAC?$AAh?$AAa?$AAr?$AAs?$AA?0?$AA?5?$AAc?$AAa@ 100965f8     LIBCMTD:wsetloca.obj
 0002:0001b648       ??_C@_1BC@LEOKFFML@?$AA_?$AAw?$AAc?$AAs?$AAc?$AAa?$AAt?$AAs?$AA?$AA@ 10096648     LIBCMTD:wsetloca.obj
 0002:0001b660       ??_C@_1BII@IONPPCCF@?$AAw?$AAc?$AAs?$AAc?$AAa?$AAt?$AA_?$AAs?$AA?$CI?$AAo?$AAu?$AAt?$AAs?$AAt?$AAr?$AA?0?$AA?5?$AAn?$AAu?$AAm?$AAb?$AAe?$AAr?$AAO?$AAf?$AAE?$AAl?$AAe?$AAm?$AAe?$AAn?$AAt@ 10096660     LIBCMTD:wsetloca.obj
 0002:0001b7e8       ??_C@_1BK@GNCHCGCN@?$AA_?$AA_?$AAl?$AAc?$AA_?$AAw?$AAc?$AAs?$AAt?$AAo?$AAl?$AAc?$AA?$AA@ 100967e8     LIBCMTD:wsetloca.obj
 0002:0001b808       ??_C@_1NI@NELJHJBO@?$AAw?$AAc?$AAs?$AAn?$AAc?$AAp?$AAy?$AA_?$AAs?$AA?$CI?$AAn?$AAa?$AAm?$AAe?$AAs?$AA?9?$AA?$DO?$AAs?$AAz?$AAC?$AAo?$AAd?$AAe?$AAP?$AAa?$AAg?$AAe?$AA?0?$AA?5?$AA?$CI?$AAs?$AAi@ 10096808     LIBCMTD:wsetloca.obj
 0002:0001b8e0       ??_C@_17MBJJLFDM@?$AA_?$AA?4?$AA?0?$AA?$AA@ 100968e0     LIBCMTD:wsetloca.obj
 0002:0001b8e8       ??_C@_1MO@PBGOIBFL@?$AAw?$AAc?$AAs?$AAn?$AAc?$AAp?$AAy?$AA_?$AAs?$AA?$CI?$AAn?$AAa?$AAm?$AAe?$AAs?$AA?9?$AA?$DO?$AAs?$AAz?$AAL?$AAa?$AAn?$AAg?$AAu?$AAa?$AAg?$AAe?$AA?0?$AA?5?$AA?$CI?$AAs?$AAi@ 100968e8     LIBCMTD:wsetloca.obj
 0002:0001b9b8       ??_C@_1MI@CLMFNAAJ@?$AAw?$AAc?$AAs?$AAn?$AAc?$AAp?$AAy?$AA_?$AAs?$AA?$CI?$AAn?$AAa?$AAm?$AAe?$AAs?$AA?9?$AA?$DO?$AAs?$AAz?$AAC?$AAo?$AAu?$AAn?$AAt?$AAr?$AAy?$AA?0?$AA?5?$AA?$CI?$AAs?$AAi?$AAz@ 100969b8     LIBCMTD:wsetloca.obj
 0002:0001ba80       ??_C@_1MO@NBFBMKCB@?$AAw?$AAc?$AAs?$AAn?$AAc?$AAp?$AAy?$AA_?$AAs?$AA?$CI?$AAn?$AAa?$AAm?$AAe?$AAs?$AA?9?$AA?$DO?$AAs?$AAz?$AAC?$AAo?$AAd?$AAe?$AAP?$AAa?$AAg?$AAe?$AA?0?$AA?5?$AA?$CI?$AAs?$AAi@ 10096a80     LIBCMTD:wsetloca.obj
 0002:0001bb50       ??_C@_1BK@HEBMGPEK@?$AA_?$AA_?$AAl?$AAc?$AA_?$AAl?$AAc?$AAt?$AAo?$AAw?$AAc?$AAs?$AA?$AA@ 10096b50     LIBCMTD:wsetloca.obj
 0002:0001bb70       ??_C@_1GM@FOFMGOEK@?$AAw?$AAc?$AAs?$AAc?$AAp?$AAy?$AA_?$AAs?$AA?$CI?$AAl?$AAo?$AAc?$AAa?$AAl?$AAe?$AA?0?$AA?5?$AAn?$AAu?$AAm?$AAb?$AAe?$AAr?$AAO?$AAf?$AAE?$AAl?$AAe?$AAm?$AAe?$AAn?$AAt@ 10096b70     LIBCMTD:wsetloca.obj
 0002:0001bbdc       ??_C@_13ENNFDPBH@?$AA_?$AA?$AA@ 10096bdc     LIBCMTD:wsetloca.obj
 0002:0001bbe0       ??_C@_13JOFGPIOO@?$AA?4?$AA?$AA@ 10096be0     LIBCMTD:wsetloca.obj
 0002:0001bbe4       ??_C@_1CG@HCGEAFEA@?$AA_?$AA_?$AAc?$AAo?$AAp?$AAy?$AA_?$AAl?$AAo?$AAc?$AAa?$AAl?$AAe?$AA_?$AAn?$AAa?$AAm?$AAe?$AA?$AA@ 10096be4     LIBCMTD:wsetloca.obj
 0002:0001bc10       ??_C@_1GI@HBNMCKGD@?$AAw?$AAc?$AAs?$AAn?$AAc?$AAp?$AAy?$AA_?$AAs?$AA?$CI?$AAl?$AAo?$AAc?$AAa?$AAl?$AAe?$AAN?$AAa?$AAm?$AAe?$AAC?$AAo?$AAp?$AAy?$AA?0?$AA?5?$AAc?$AAc?$AAh?$AA?$CL?$AA1?$AA?0@ 10096c10     LIBCMTD:wsetloca.obj
 0002:0001bc78       ___newctype                10096c78     LIBCMTD:ctype.obj
 0002:0001bf78       __wctype                   10096f78     LIBCMTD:ctype.obj
 0002:0001c180       ___newclmap                10097180     LIBCMTD:ctype.obj
 0002:0001c300       ___newcumap                10097300     LIBCMTD:ctype.obj
 0002:0001c480       ??_C@_1GO@DHMODCKM@?$AAf?$AA?3?$AA?2?$AAd?$AAd?$AA?2?$AAv?$AAc?$AAt?$AAo?$AAo?$AAl?$AAs?$AA?2?$AAc?$AAr?$AAt?$AA_?$AAb?$AAl?$AAd?$AA?2?$AAs?$AAe?$AAl?$AAf?$AA_?$AAx?$AA8?$AA6?$AA?2?$AAc@ 10097480     LIBCMTD:wmakepath_s.obj
 0002:0001c4f0       ??_C@_1BK@KHBCJPCH@?$AA_?$AAw?$AAm?$AAa?$AAk?$AAe?$AAp?$AAa?$AAt?$AAh?$AA_?$AAs?$AA?$AA@ 100974f0     LIBCMTD:wmakepath_s.obj
 0002:0001c50c       ??_C@_1CI@MLPLHPBP@?$AA?$CI?$AA?$CI?$AA?$CI?$AA_?$AAP?$AAa?$AAt?$AAh?$AA?$CJ?$AA?$CJ?$AA?$CJ?$AA?5?$AA?$CB?$AA?$DN?$AA?5?$AAN?$AAU?$AAL?$AAL?$AA?$AA@ 1009750c     LIBCMTD:wsplitpath_s.obj
 0002:0001c538       ??_C@_1HA@GHKPFCBF@?$AAf?$AA?3?$AA?2?$AAd?$AAd?$AA?2?$AAv?$AAc?$AAt?$AAo?$AAo?$AAl?$AAs?$AA?2?$AAc?$AAr?$AAt?$AA_?$AAb?$AAl?$AAd?$AA?2?$AAs?$AAe?$AAl?$AAf?$AA_?$AAx?$AA8?$AA6?$AA?2?$AAc@ 10097538     LIBCMTD:wsplitpath_s.obj
 0002:0001c5a8       ??_C@_1BM@OEAFIBCF@?$AA_?$AAw?$AAs?$AAp?$AAl?$AAi?$AAt?$AAp?$AAa?$AAt?$AAh?$AA_?$AAs?$AA?$AA@ 100975a8     LIBCMTD:wsplitpath_s.obj
 0002:0001c5c4       ??_C@_1DE@MLEJGPLF@?$AA?$CI?$AAL?$AA?$CC?$AAI?$AAn?$AAv?$AAa?$AAl?$AAi?$AAd?$AA?5?$AAp?$AAa?$AAr?$AAa?$AAm?$AAe?$AAt?$AAe?$AAr?$AA?$CC?$AA?0?$AA?5?$AA0?$AA?$CJ?$AA?$AA@ 100975c4     LIBCMTD:wsplitpath_s.obj
 0002:0001c5f8       ??_C@_1CA@MBDBOHIB@?$AA_?$AAL?$AAo?$AAc?$AAa?$AAl?$AAe?$AA?5?$AA?$CB?$AA?$DN?$AA?5?$AAN?$AAU?$AAL?$AAL?$AA?$AA@ 100975f8     LIBCMTD:strgtold.obj
 0002:0001c618       ??_C@_1IG@IGKPPFIM@?$AAf?$AA?3?$AA?2?$AAd?$AAd?$AA?2?$AAv?$AAc?$AAt?$AAo?$AAo?$AAl?$AAs?$AA?2?$AAc?$AAr?$AAt?$AA_?$AAb?$AAl?$AAd?$AA?2?$AAs?$AAe?$AAl?$AAf?$AA_?$AAx?$AA8?$AA6?$AA?2?$AAc@ 10097618     LIBCMTD:strgtold.obj
 0002:0001c6a0       ??_C@_1BO@IHLJHOPI@?$AA_?$AA_?$AAs?$AAt?$AAr?$AAg?$AAt?$AAo?$AAl?$AAd?$AA1?$AA2?$AA_?$AAl?$AA?$AA@ 100976a0     LIBCMTD:strgtold.obj
 0002:0001c6c0       ??_C@_1HG@HFJMHCFK@?$AAf?$AA?3?$AA?2?$AAd?$AAd?$AA?2?$AAv?$AAc?$AAt?$AAo?$AAo?$AAl?$AAs?$AA?2?$AAc?$AAr?$AAt?$AA_?$AAb?$AAl?$AAd?$AA?2?$AAs?$AAe?$AAl?$AAf?$AA_?$AAx?$AA8?$AA6?$AA?2?$AAc@ 100976c0     LIBCMTD:x10fout.obj
 0002:0001c738       ??_C@_1BI@ELMAAFLN@?$AA$?$AAI?$AA1?$AA0?$AA_?$AAO?$AAU?$AAT?$AAP?$AAU?$AAT?$AA?$AA@ 10097738     LIBCMTD:x10fout.obj
 0002:0001c750       ??_C@_1EG@CDDBFNOB@?$AAs?$AAt?$AAr?$AAc?$AAp?$AAy?$AA_?$AAs?$AA?$CI?$AAf?$AAo?$AAs?$AA?9?$AA?$DO?$AAm?$AAa?$AAn?$AA?0?$AA?5?$AA2?$AA1?$AA?$CL?$AA1?$AA?0?$AA?5?$AA?$CC?$AA1?$AA?$CD?$AAS?$AAN?$AAA?$AAN@ 10097750     LIBCMTD:x10fout.obj
 0002:0001c798       ??_C@_06PGGFOGJG@1?$CDSNAN?$AA@ 10097798     LIBCMTD:x10fout.obj
 0002:0001c7a0       ??_C@_1EE@MADEBIHF@?$AAs?$AAt?$AAr?$AAc?$AAp?$AAy?$AA_?$AAs?$AA?$CI?$AAf?$AAo?$AAs?$AA?9?$AA?$DO?$AAm?$AAa?$AAn?$AA?0?$AA?5?$AA2?$AA1?$AA?$CL?$AA1?$AA?0?$AA?5?$AA?$CC?$AA1?$AA?$CD?$AAI?$AAN?$AAD?$AA?$CC@ 100977a0     LIBCMTD:x10fout.obj
 0002:0001c7e4       ??_C@_05PHHOCPM@1?$CDIND?$AA@ 100977e4     LIBCMTD:x10fout.obj
 0002:0001c7f0       ??_C@_1EE@ICBBBPAI@?$AAs?$AAt?$AAr?$AAc?$AAp?$AAy?$AA_?$AAs?$AA?$CI?$AAf?$AAo?$AAs?$AA?9?$AA?$DO?$AAm?$AAa?$AAn?$AA?0?$AA?5?$AA2?$AA1?$AA?$CL?$AA1?$AA?0?$AA?5?$AA?$CC?$AA1?$AA?$CD?$AAI?$AAN?$AAF?$AA?$CC@ 100977f0     LIBCMTD:x10fout.obj
 0002:0001c834       ??_C@_05DNEBIAHO@1?$CDINF?$AA@ 10097834     LIBCMTD:x10fout.obj
 0002:0001c840       ??_C@_1EG@MCFPJJEM@?$AAs?$AAt?$AAr?$AAc?$AAp?$AAy?$AA_?$AAs?$AA?$CI?$AAf?$AAo?$AAs?$AA?9?$AA?$DO?$AAm?$AAa?$AAn?$AA?0?$AA?5?$AA2?$AA1?$AA?$CL?$AA1?$AA?0?$AA?5?$AA?$CC?$AA1?$AA?$CD?$AAQ?$AAN?$AAA?$AAN@ 10097840     LIBCMTD:x10fout.obj
 0002:0001c888       ??_C@_06IMKFLFPG@1?$CDQNAN?$AA@ 10097888     LIBCMTD:x10fout.obj
 0002:0001c890       ?commonFlags@?1??_control87@@9@9 10097890     LIBCMTD:ieee87.obj
 0002:0001c898       ??_C@_1HO@BFDKGHOI@?$AAf?$AA?3?$AA?2?$AAd?$AAd?$AA?2?$AAv?$AAc?$AAt?$AAo?$AAo?$AAl?$AAs?$AA?2?$AAc?$AAr?$AAt?$AA_?$AAb?$AAl?$AAd?$AA?2?$AAs?$AAe?$AAl?$AAf?$AA_?$AAx?$AA8?$AA6?$AA?2?$AAc@ 10097898     LIBCMTD:ieee87.obj
 0002:0001c918       ??_C@_1BO@OFDNCLL@?$AA_?$AAs?$AAe?$AAt?$AA_?$AAc?$AAo?$AAn?$AAt?$AAr?$AAo?$AAl?$AAf?$AAp?$AA?$AA@ 10097918     LIBCMTD:ieee87.obj
 0002:0001c938       ??_C@_1GO@OKJGOMCB@?$AA_?$AAc?$AAo?$AAn?$AAt?$AAr?$AAo?$AAl?$AAf?$AAp?$AA_?$AAs?$AA?$CI?$AA?$CI?$AA?$CI?$AAv?$AAo?$AAi?$AAd?$AA?5?$AA?$CK?$AA?$CJ?$AA0?$AA?$CJ?$AA?0?$AA?5?$AAn?$AAe?$AAw?$AAc?$AAt?$AAr@ 10097938     LIBCMTD:ieee87.obj
 0002:0001c9a8       ??_C@_1O@HFEBJM@?$AA_?$AAw?$AAo?$AAp?$AAe?$AAn?$AA?$AA@ 100979a8     LIBCMTD:wopen.obj
 0002:0001c9b8       ??_C@_1BO@NAANLDBI@?$AA_?$AAw?$AAs?$AAo?$AAp?$AAe?$AAn?$AA_?$AAh?$AAe?$AAl?$AAp?$AAe?$AAr?$AA?$AA@ 100979b8     LIBCMTD:wopen.obj
 0002:0001c9d8       ??_C@_0M@HHGEPIBF@CreateFile2?$AA@ 100979d8     LIBCMTD:wopen.obj
 0002:0001c9e4       ??_C@_1BO@JMCLMIEA@?$AA_?$AAw?$AAs?$AAo?$AAp?$AAe?$AAn?$AA_?$AAn?$AAo?$AAl?$AAo?$AAc?$AAk?$AA?$AA@ 100979e4     LIBCMTD:wopen.obj
 0002:0001ca04       ??_C@_1CG@ICBEBDJJ@?$AA_?$AAg?$AAe?$AAt?$AA_?$AAf?$AAm?$AAo?$AAd?$AAe?$AA?$CI?$AA?$CG?$AAf?$AAm?$AAo?$AAd?$AAe?$AA?$CJ?$AA?$AA@ 10097a04     LIBCMTD:wopen.obj
 0002:0001ca2c       ??_C@_1DI@DGKIFCCE@?$AA?$CI?$AA?5?$AA?$CC?$AAI?$AAn?$AAv?$AAa?$AAl?$AAi?$AAd?$AA?5?$AAo?$AAp?$AAe?$AAn?$AA?5?$AAf?$AAl?$AAa?$AAg?$AA?$CC?$AA?5?$AA?0?$AA?5?$AA0?$AA?5?$AA?$CJ?$AA?$AA@ 10097a2c     LIBCMTD:wopen.obj
 0002:0001ca64       ??_C@_1DO@PJLMOANO@?$AA?$CI?$AA?5?$AA?$CC?$AAI?$AAn?$AAv?$AAa?$AAl?$AAi?$AAd?$AA?5?$AAs?$AAh?$AAa?$AAr?$AAi?$AAn?$AAg?$AA?5?$AAf?$AAl?$AAa?$AAg?$AA?$CC?$AA?5?$AA?0?$AA?5?$AA0?$AA?5?$AA?$CJ?$AA?$AA@ 10097a64     LIBCMTD:wopen.obj
 0002:0001caa8       ??_C@_1HM@GJANBLHJ@?$AA?$CI?$AAo?$AAf?$AAl?$AAa?$AAg?$AA?5?$AA?$CG?$AA?5?$AA?$CI?$AA_?$AAO?$AA_?$AAT?$AAE?$AAX?$AAT?$AA?5?$AA?$HM?$AA?5?$AA_?$AAO?$AA_?$AAW?$AAT?$AAE?$AAX?$AAT?$AA?5?$AA?$HM?$AA?5?$AA_@ 10097aa8     LIBCMTD:wopen.obj
 0002:0001cb24       ??_C@_1CM@IDLMKMPG@?$AA0?$AA?5?$AA?$CG?$AA?$CG?$AA?5?$AA?$CC?$AAI?$AAn?$AAt?$AAe?$AAr?$AAn?$AAa?$AAl?$AA?5?$AAE?$AAr?$AAr?$AAo?$AAr?$AA?$CC?$AA?$AA@ 10097b24     LIBCMTD:wopen.obj
 0002:0001cb50       ??_C@_1IA@IENOJNJF@?$AA0?$AA?5?$AA?$CG?$AA?$CG?$AA?5?$AA?$CC?$AAO?$AAn?$AAl?$AAy?$AA?5?$AAU?$AAT?$AAF?$AA?9?$AA1?$AA6?$AA?5?$AAl?$AAi?$AAt?$AAt?$AAl?$AAe?$AA?5?$AAe?$AAn?$AAd?$AAi?$AAa?$AAn?$AA?5@ 10097b50     LIBCMTD:wopen.obj
 0002:0001cbd0       ??_C@_1GE@CONPOJMA@?$AAf?$AA?3?$AA?2?$AAd?$AAd?$AA?2?$AAv?$AAc?$AAt?$AAo?$AAo?$AAl?$AAs?$AA?2?$AAc?$AAr?$AAt?$AA_?$AAb?$AAl?$AAd?$AA?2?$AAs?$AAe?$AAl?$AAf?$AA_?$AAx?$AA8?$AA6?$AA?2?$AAc@ 10097bd0     LIBCMTD:strnicmp.obj
 0002:0001cc34       ??_C@_1BI@BJLEPLEF@?$AA_?$AAs?$AAt?$AAr?$AAn?$AAi?$AAc?$AAm?$AAp?$AA_?$AAl?$AA?$AA@ 10097c34     LIBCMTD:strnicmp.obj
 0002:0001cc4c       ??_C@_1CC@JLPHKJPH@?$AAc?$AAo?$AAu?$AAn?$AAt?$AA?5?$AA?$DM?$AA?$DN?$AA?5?$AAI?$AAN?$AAT?$AA_?$AAM?$AAA?$AAX?$AA?$AA@ 10097c4c     LIBCMTD:strnicmp.obj
 0002:0001cc70       ??_C@_1BE@BHJDFFNA@?$AA_?$AAs?$AAt?$AAr?$AAn?$AAi?$AAc?$AAm?$AAp?$AA?$AA@ 10097c70     LIBCMTD:strnicmp.obj
 0002:0001cc84       ??_C@_0DC@EHLBFILA@f?3?2dd?2vctools?2crt_bld?2self_x86?2c@ 10097c84     LIBCMTD:initctyp.obj
 0002:0001ccb8       ??_C@_1GE@OCPKBDKE@?$AAf?$AA?3?$AA?2?$AAd?$AAd?$AA?2?$AAv?$AAc?$AAt?$AAo?$AAo?$AAl?$AAs?$AA?2?$AAc?$AAr?$AAt?$AA_?$AAb?$AAl?$AAd?$AA?2?$AAs?$AAe?$AAl?$AAf?$AA_?$AAx?$AA8?$AA6?$AA?2?$AAc@ 10097cb8     LIBCMTD:initctyp.obj
 0002:0001cd1c       ??_C@_1DG@NMBGBDM@?$AAp?$AAl?$AAo?$AAc?$AAi?$AA?9?$AA?$DO?$AAc?$AAt?$AAy?$AAp?$AAe?$AA1?$AA_?$AAr?$AAe?$AAf?$AAc?$AAo?$AAu?$AAn?$AAt?$AA?5?$AA?$DO?$AA?5?$AA0?$AA?$AA@ 10097d1c     LIBCMTD:initctyp.obj
 0002:0001cd58       ??_C@_1GA@BJIGKGEA@?$AAf?$AA?3?$AA?2?$AAd?$AAd?$AA?2?$AAv?$AAc?$AAt?$AAo?$AAo?$AAl?$AAs?$AA?2?$AAc?$AAr?$AAt?$AA_?$AAb?$AAl?$AAd?$AA?2?$AAs?$AAe?$AAl?$AAf?$AA_?$AAx?$AA8?$AA6?$AA?2?$AAc@ 10097d58     LIBCMTD:fputwc.obj
 0002:0001cdb8       ??_C@_1O@HJNPHHHB@?$AAf?$AAp?$AAu?$AAt?$AAw?$AAc?$AA?$AA@ 10097db8     LIBCMTD:fputwc.obj
 0002:0001cdc8       ??_C@_1BA@BALFACEM@?$AAC?$AAO?$AAN?$AAO?$AAU?$AAT?$AA$?$AA?$AA@ 10097dc8     LIBCMTD:initcon.obj
 0002:0001cdd8       ??_C@_1GA@CADFOND@?$AAf?$AA?3?$AA?2?$AAd?$AAd?$AA?2?$AAv?$AAc?$AAt?$AAo?$AAo?$AAl?$AAs?$AA?2?$AAc?$AAr?$AAt?$AA_?$AAb?$AAl?$AAd?$AA?2?$AAs?$AAe?$AAl?$AAf?$AA_?$AAx?$AA8?$AA6?$AA?2?$AAc@ 10097dd8     LIBCMTD:wcstol.obj
 0002:0001ce38       ??_C@_1BA@PCFLFGNC@?$AAw?$AAc?$AAs?$AAt?$AAo?$AAx?$AAl?$AA?$AA@ 10097e38     LIBCMTD:wcstol.obj
 0002:0001ce48       ___rg_language             10097e48     LIBCMTD:getqloc.obj
 0002:0001d154       ??_C@_1BC@LLOKLNP@?$AAa?$AAm?$AAe?$AAr?$AAi?$AAc?$AAa?$AAn?$AA?$AA@ 10098154     LIBCMTD:getqloc.obj
 0002:0001d168       ??_C@_1CC@HEIGCDGG@?$AAa?$AAm?$AAe?$AAr?$AAi?$AAc?$AAa?$AAn?$AA?5?$AAe?$AAn?$AAg?$AAl?$AAi?$AAs?$AAh?$AA?$AA@ 10098168     LIBCMTD:getqloc.obj
 0002:0001d18c       ??_C@_1CC@IHCNOMIN@?$AAa?$AAm?$AAe?$AAr?$AAi?$AAc?$AAa?$AAn?$AA?9?$AAe?$AAn?$AAg?$AAl?$AAi?$AAs?$AAh?$AA?$AA@ 1009818c     LIBCMTD:getqloc.obj
 0002:0001d1b0       ??_C@_1BG@GKAGPCGG@?$AAa?$AAu?$AAs?$AAt?$AAr?$AAa?$AAl?$AAi?$AAa?$AAn?$AA?$AA@ 100981b0     LIBCMTD:getqloc.obj
 0002:0001d1c8       ??_C@_1BA@GMENCENF@?$AAb?$AAe?$AAl?$AAg?$AAi?$AAa?$AAn?$AA?$AA@ 100981c8     LIBCMTD:getqloc.obj
 0002:0001d1d8       ??_C@_1BC@PJMIIAAN@?$AAc?$AAa?$AAn?$AAa?$AAd?$AAi?$AAa?$AAn?$AA?$AA@ 100981d8     LIBCMTD:getqloc.obj
 0002:0001d1ec       ??_C@_17NOIMNFBF@?$AAc?$AAh?$AAh?$AA?$AA@ 100981ec     LIBCMTD:getqloc.obj
 0002:0001d1f4       ??_C@_17GGDALCHA@?$AAc?$AAh?$AAi?$AA?$AA@ 100981f4     LIBCMTD:getqloc.obj
 0002:0001d1fc       ??_C@_1BA@NPNJKIBL@?$AAc?$AAh?$AAi?$AAn?$AAe?$AAs?$AAe?$AA?$AA@ 100981fc     LIBCMTD:getqloc.obj
 0002:0001d20c       ??_C@_1CC@DINBAMMJ@?$AAc?$AAh?$AAi?$AAn?$AAe?$AAs?$AAe?$AA?9?$AAh?$AAo?$AAn?$AAg?$AAk?$AAo?$AAn?$AAg?$AA?$AA@ 1009820c     LIBCMTD:getqloc.obj
 0002:0001d230       ??_C@_1CG@IOBJPACO@?$AAc?$AAh?$AAi?$AAn?$AAe?$AAs?$AAe?$AA?9?$AAs?$AAi?$AAm?$AAp?$AAl?$AAi?$AAf?$AAi?$AAe?$AAd?$AA?$AA@ 10098230     LIBCMTD:getqloc.obj
 0002:0001d258       ??_C@_1CE@GAJNDCKG@?$AAc?$AAh?$AAi?$AAn?$AAe?$AAs?$AAe?$AA?9?$AAs?$AAi?$AAn?$AAg?$AAa?$AAp?$AAo?$AAr?$AAe?$AA?$AA@ 10098258     LIBCMTD:getqloc.obj
 0002:0001d27c       ??_C@_1CI@PAJPIOOD@?$AAc?$AAh?$AAi?$AAn?$AAe?$AAs?$AAe?$AA?9?$AAt?$AAr?$AAa?$AAd?$AAi?$AAt?$AAi?$AAo?$AAn?$AAa?$AAl?$AA?$AA@ 1009827c     LIBCMTD:getqloc.obj
 0002:0001d2a4       ??_C@_1BM@NILJBMMD@?$AAd?$AAu?$AAt?$AAc?$AAh?$AA?9?$AAb?$AAe?$AAl?$AAg?$AAi?$AAa?$AAn?$AA?$AA@ 100982a4     LIBCMTD:getqloc.obj
 0002:0001d2c0       ??_C@_1CC@OOJPJNEJ@?$AAe?$AAn?$AAg?$AAl?$AAi?$AAs?$AAh?$AA?9?$AAa?$AAm?$AAe?$AAr?$AAi?$AAc?$AAa?$AAn?$AA?$AA@ 100982c0     LIBCMTD:getqloc.obj
 0002:0001d2e4       ??_C@_1BI@IOLFEEM@?$AAe?$AAn?$AAg?$AAl?$AAi?$AAs?$AAh?$AA?9?$AAa?$AAu?$AAs?$AA?$AA@ 100982e4     LIBCMTD:getqloc.obj
 0002:0001d2fc       ??_C@_1BO@HFFNLENJ@?$AAe?$AAn?$AAg?$AAl?$AAi?$AAs?$AAh?$AA?9?$AAb?$AAe?$AAl?$AAi?$AAz?$AAe?$AA?$AA@ 100982fc     LIBCMTD:getqloc.obj
 0002:0001d31c       ??_C@_1BI@HAPKJMPO@?$AAe?$AAn?$AAg?$AAl?$AAi?$AAs?$AAh?$AA?9?$AAc?$AAa?$AAn?$AA?$AA@ 1009831c     LIBCMTD:getqloc.obj
 0002:0001d334       ??_C@_1CE@HLNDMIOJ@?$AAe?$AAn?$AAg?$AAl?$AAi?$AAs?$AAh?$AA?9?$AAc?$AAa?$AAr?$AAi?$AAb?$AAb?$AAe?$AAa?$AAn?$AA?$AA@ 10098334     LIBCMTD:getqloc.obj
 0002:0001d358       ??_C@_1BI@LDHJHHAC@?$AAe?$AAn?$AAg?$AAl?$AAi?$AAs?$AAh?$AA?9?$AAi?$AAr?$AAe?$AA?$AA@ 10098358     LIBCMTD:getqloc.obj
 0002:0001d370       ??_C@_1CA@NJMMCFOC@?$AAe?$AAn?$AAg?$AAl?$AAi?$AAs?$AAh?$AA?9?$AAj?$AAa?$AAm?$AAa?$AAi?$AAc?$AAa?$AA?$AA@ 10098370     LIBCMTD:getqloc.obj
 0002:0001d390       ??_C@_1BG@BHJEBBGG@?$AAe?$AAn?$AAg?$AAl?$AAi?$AAs?$AAh?$AA?9?$AAn?$AAz?$AA?$AA@ 10098390     LIBCMTD:getqloc.obj
 0002:0001d3a8       ??_C@_1CK@FGOEJJCO@?$AAe?$AAn?$AAg?$AAl?$AAi?$AAs?$AAh?$AA?9?$AAs?$AAo?$AAu?$AAt?$AAh?$AA?5?$AAa?$AAf?$AAr?$AAi?$AAc?$AAa?$AA?$AA@ 100983a8     LIBCMTD:getqloc.obj
 0002:0001d3d4       ??_C@_1DE@PDBJPCJ@?$AAe?$AAn?$AAg?$AAl?$AAi?$AAs?$AAh?$AA?9?$AAt?$AAr?$AAi?$AAn?$AAi?$AAd?$AAa?$AAd?$AA?5?$AAy?$AA?5?$AAt?$AAo?$AAb?$AAa?$AAg?$AAo?$AA?$AA@ 100983d4     LIBCMTD:getqloc.obj
 0002:0001d408       ??_C@_1BG@JGCANDME@?$AAe?$AAn?$AAg?$AAl?$AAi?$AAs?$AAh?$AA?9?$AAu?$AAk?$AA?$AA@ 10098408     LIBCMTD:getqloc.obj
 0002:0001d420       ??_C@_1BG@DINKMLE@?$AAe?$AAn?$AAg?$AAl?$AAi?$AAs?$AAh?$AA?9?$AAu?$AAs?$AA?$AA@ 10098420     LIBCMTD:getqloc.obj
 0002:0001d438       ??_C@_1BI@NMFDBHJE@?$AAe?$AAn?$AAg?$AAl?$AAi?$AAs?$AAh?$AA?9?$AAu?$AAs?$AAa?$AA?$AA@ 10098438     LIBCMTD:getqloc.obj
 0002:0001d450       ??_C@_1BO@OIHKJKII@?$AAf?$AAr?$AAe?$AAn?$AAc?$AAh?$AA?9?$AAb?$AAe?$AAl?$AAg?$AAi?$AAa?$AAn?$AA?$AA@ 10098450     LIBCMTD:getqloc.obj
 0002:0001d470       ??_C@_1CA@NKAELJKI@?$AAf?$AAr?$AAe?$AAn?$AAc?$AAh?$AA?9?$AAc?$AAa?$AAn?$AAa?$AAd?$AAi?$AAa?$AAn?$AA?$AA@ 10098470     LIBCMTD:getqloc.obj
 0002:0001d490       ??_C@_1CE@MGKCNLGN@?$AAf?$AAr?$AAe?$AAn?$AAc?$AAh?$AA?9?$AAl?$AAu?$AAx?$AAe?$AAm?$AAb?$AAo?$AAu?$AAr?$AAg?$AA?$AA@ 10098490     LIBCMTD:getqloc.obj
 0002:0001d4b4       ??_C@_1BK@CEGEAILM@?$AAf?$AAr?$AAe?$AAn?$AAc?$AAh?$AA?9?$AAs?$AAw?$AAi?$AAs?$AAs?$AA?$AA@ 100984b4     LIBCMTD:getqloc.obj
 0002:0001d4d0       ??_C@_1CA@PAFKEOCC@?$AAg?$AAe?$AAr?$AAm?$AAa?$AAn?$AA?9?$AAa?$AAu?$AAs?$AAt?$AAr?$AAi?$AAa?$AAn?$AA?$AA@ 100984d0     LIBCMTD:getqloc.obj
 0002:0001d4f0       ??_C@_1CI@HCFHGOFD@?$AAg?$AAe?$AAr?$AAm?$AAa?$AAn?$AA?9?$AAl?$AAi?$AAc?$AAh?$AAt?$AAe?$AAn?$AAs?$AAt?$AAe?$AAi?$AAn?$AA?$AA@ 100984f0     LIBCMTD:getqloc.obj
 0002:0001d518       ??_C@_1CE@FEDDNPDG@?$AAg?$AAe?$AAr?$AAm?$AAa?$AAn?$AA?9?$AAl?$AAu?$AAx?$AAe?$AAm?$AAb?$AAo?$AAu?$AAr?$AAg?$AA?$AA@ 10098518     LIBCMTD:getqloc.obj
 0002:0001d53c       ??_C@_1BK@LIMINNMN@?$AAg?$AAe?$AAr?$AAm?$AAa?$AAn?$AA?9?$AAs?$AAw?$AAi?$AAs?$AAs?$AA?$AA@ 1009853c     LIBCMTD:getqloc.obj
 0002:0001d558       ??_C@_1BM@LGMDBEPD@?$AAi?$AAr?$AAi?$AAs?$AAh?$AA?9?$AAe?$AAn?$AAg?$AAl?$AAi?$AAs?$AAh?$AA?$AA@ 10098558     LIBCMTD:getqloc.obj
 0002:0001d574       ??_C@_1BM@NNCFBAEE@?$AAi?$AAt?$AAa?$AAl?$AAi?$AAa?$AAn?$AA?9?$AAs?$AAw?$AAi?$AAs?$AAs?$AA?$AA@ 10098574     LIBCMTD:getqloc.obj
 0002:0001d590       ??_C@_1BE@FEDJNPIB@?$AAn?$AAo?$AAr?$AAw?$AAe?$AAg?$AAi?$AAa?$AAn?$AA?$AA@ 10098590     LIBCMTD:getqloc.obj
 0002:0001d5a4       ??_C@_1CC@CILKDEIE@?$AAn?$AAo?$AAr?$AAw?$AAe?$AAg?$AAi?$AAa?$AAn?$AA?9?$AAb?$AAo?$AAk?$AAm?$AAa?$AAl?$AA?$AA@ 100985a4     LIBCMTD:getqloc.obj
 0002:0001d5c8       ??_C@_1CE@DHMMHEPL@?$AAn?$AAo?$AAr?$AAw?$AAe?$AAg?$AAi?$AAa?$AAn?$AA?9?$AAn?$AAy?$AAn?$AAo?$AAr?$AAs?$AAk?$AA?$AA@ 100985c8     LIBCMTD:getqloc.obj
 0002:0001d5ec       ??_C@_1CK@OPNMHECD@?$AAp?$AAo?$AAr?$AAt?$AAu?$AAg?$AAu?$AAe?$AAs?$AAe?$AA?9?$AAb?$AAr?$AAa?$AAz?$AAi?$AAl?$AAi?$AAa?$AAn?$AA?$AA@ 100985ec     LIBCMTD:getqloc.obj
 0002:0001d618       ??_C@_1CE@KEEHCDB@?$AAs?$AAp?$AAa?$AAn?$AAi?$AAs?$AAh?$AA?9?$AAa?$AAr?$AAg?$AAe?$AAn?$AAt?$AAi?$AAn?$AAa?$AA?$AA@ 10098618     LIBCMTD:getqloc.obj
 0002:0001d63c       ??_C@_1CA@GIAOLHJD@?$AAs?$AAp?$AAa?$AAn?$AAi?$AAs?$AAh?$AA?9?$AAb?$AAo?$AAl?$AAi?$AAv?$AAi?$AAa?$AA?$AA@ 1009863c     LIBCMTD:getqloc.obj
 0002:0001d65c       ??_C@_1BM@OJNDFNPD@?$AAs?$AAp?$AAa?$AAn?$AAi?$AAs?$AAh?$AA?9?$AAc?$AAh?$AAi?$AAl?$AAe?$AA?$AA@ 1009865c     LIBCMTD:getqloc.obj
 0002:0001d678       ??_C@_1CC@OCOLPALL@?$AAs?$AAp?$AAa?$AAn?$AAi?$AAs?$AAh?$AA?9?$AAc?$AAo?$AAl?$AAo?$AAm?$AAb?$AAi?$AAa?$AA?$AA@ 10098678     LIBCMTD:getqloc.obj
 0002:0001d69c       ??_C@_1CG@BPOFMKBB@?$AAs?$AAp?$AAa?$AAn?$AAi?$AAs?$AAh?$AA?9?$AAc?$AAo?$AAs?$AAt?$AAa?$AA?5?$AAr?$AAi?$AAc?$AAa?$AA?$AA@ 1009869c     LIBCMTD:getqloc.obj
 0002:0001d6c4       ??_C@_1DG@IGOBAPBB@?$AAs?$AAp?$AAa?$AAn?$AAi?$AAs?$AAh?$AA?9?$AAd?$AAo?$AAm?$AAi?$AAn?$AAi?$AAc?$AAa?$AAn?$AA?5?$AAr?$AAe?$AAp?$AAu?$AAb?$AAl?$AAi?$AAc?$AA?$AA@ 100986c4     LIBCMTD:getqloc.obj
 0002:0001d6fc       ??_C@_1CA@JHAPGEGI@?$AAs?$AAp?$AAa?$AAn?$AAi?$AAs?$AAh?$AA?9?$AAe?$AAc?$AAu?$AAa?$AAd?$AAo?$AAr?$AA?$AA@ 100986fc     LIBCMTD:getqloc.obj
 0002:0001d71c       ??_C@_1CI@LAPALJPP@?$AAs?$AAp?$AAa?$AAn?$AAi?$AAs?$AAh?$AA?9?$AAe?$AAl?$AA?5?$AAs?$AAa?$AAl?$AAv?$AAa?$AAd?$AAo?$AAr?$AA?$AA@ 1009871c     LIBCMTD:getqloc.obj
 0002:0001d744       ??_C@_1CE@PDGBOFOM@?$AAs?$AAp?$AAa?$AAn?$AAi?$AAs?$AAh?$AA?9?$AAg?$AAu?$AAa?$AAt?$AAe?$AAm?$AAa?$AAl?$AAa?$AA?$AA@ 10098744     LIBCMTD:getqloc.obj
 0002:0001d768       ??_C@_1CC@NBEBAODI@?$AAs?$AAp?$AAa?$AAn?$AAi?$AAs?$AAh?$AA?9?$AAh?$AAo?$AAn?$AAd?$AAu?$AAr?$AAa?$AAs?$AA?$AA@ 10098768     LIBCMTD:getqloc.obj
 0002:0001d78c       ??_C@_1CA@LLKGHBMF@?$AAs?$AAp?$AAa?$AAn?$AAi?$AAs?$AAh?$AA?9?$AAm?$AAe?$AAx?$AAi?$AAc?$AAa?$AAn?$AA?$AA@ 1009878c     LIBCMTD:getqloc.obj
 0002:0001d7ac       ??_C@_1BO@LKNDOIGD@?$AAs?$AAp?$AAa?$AAn?$AAi?$AAs?$AAh?$AA?9?$AAm?$AAo?$AAd?$AAe?$AAr?$AAn?$AA?$AA@ 100987ac     LIBCMTD:getqloc.obj
 0002:0001d7cc       ??_C@_1CE@NMDMOEEB@?$AAs?$AAp?$AAa?$AAn?$AAi?$AAs?$AAh?$AA?9?$AAn?$AAi?$AAc?$AAa?$AAr?$AAa?$AAg?$AAu?$AAa?$AA?$AA@ 100987cc     LIBCMTD:getqloc.obj
 0002:0001d7f0       ??_C@_1BO@LLCBEJGB@?$AAs?$AAp?$AAa?$AAn?$AAi?$AAs?$AAh?$AA?9?$AAp?$AAa?$AAn?$AAa?$AAm?$AAa?$AA?$AA@ 100987f0     LIBCMTD:getqloc.obj
 0002:0001d810       ??_C@_1CC@FKPGGIHO@?$AAs?$AAp?$AAa?$AAn?$AAi?$AAs?$AAh?$AA?9?$AAp?$AAa?$AAr?$AAa?$AAg?$AAu?$AAa?$AAy?$AA?$AA@ 10098810     LIBCMTD:getqloc.obj
 0002:0001d834       ??_C@_1BK@CDEIHOOP@?$AAs?$AAp?$AAa?$AAn?$AAi?$AAs?$AAh?$AA?9?$AAp?$AAe?$AAr?$AAu?$AA?$AA@ 10098834     LIBCMTD:getqloc.obj
 0002:0001d850       ??_C@_1CI@GAHAKKGP@?$AAs?$AAp?$AAa?$AAn?$AAi?$AAs?$AAh?$AA?9?$AAp?$AAu?$AAe?$AAr?$AAt?$AAo?$AA?5?$AAr?$AAi?$AAc?$AAo?$AA?$AA@ 10098850     LIBCMTD:getqloc.obj
 0002:0001d878       ??_C@_1CA@NKJBCAGP@?$AAs?$AAp?$AAa?$AAn?$AAi?$AAs?$AAh?$AA?9?$AAu?$AAr?$AAu?$AAg?$AAu?$AAa?$AAy?$AA?$AA@ 10098878     LIBCMTD:getqloc.obj
 0002:0001d898       ??_C@_1CE@ODILCONM@?$AAs?$AAp?$AAa?$AAn?$AAi?$AAs?$AAh?$AA?9?$AAv?$AAe?$AAn?$AAe?$AAz?$AAu?$AAe?$AAl?$AAa?$AA?$AA@ 10098898     LIBCMTD:getqloc.obj
 0002:0001d8bc       ??_C@_1CA@OBNMCGFO@?$AAs?$AAw?$AAe?$AAd?$AAi?$AAs?$AAh?$AA?9?$AAf?$AAi?$AAn?$AAl?$AAa?$AAn?$AAd?$AA?$AA@ 100988bc     LIBCMTD:getqloc.obj
 0002:0001d8dc       ??_C@_1M@PIPDDPPI@?$AAs?$AAw?$AAi?$AAs?$AAs?$AA?$AA@ 100988dc     LIBCMTD:getqloc.obj
 0002:0001d8e8       ??_C@_15GMFIMNFM@?$AAu?$AAs?$AA?$AA@ 100988e8     LIBCMTD:getqloc.obj
 0002:0001d8f0       ??_C@_17HAEBFAGL@?$AAu?$AAs?$AAa?$AA?$AA@ 100988f0     LIBCMTD:getqloc.obj
 0002:0001d8f8       ___rg_country              100988f8     LIBCMTD:getqloc.obj
 0002:0001da0c       ??_C@_1BA@DPFJEPHB@?$AAa?$AAm?$AAe?$AAr?$AAi?$AAc?$AAa?$AA?$AA@ 10098a0c     LIBCMTD:getqloc.obj
 0002:0001da1c       ??_C@_1BA@ELOGGFK@?$AAb?$AAr?$AAi?$AAt?$AAa?$AAi?$AAn?$AA?$AA@ 10098a1c     LIBCMTD:getqloc.obj
 0002:0001da2c       ??_C@_1M@GHBGIGDA@?$AAc?$AAh?$AAi?$AAn?$AAa?$AA?$AA@ 10098a2c     LIBCMTD:getqloc.obj
 0002:0001da38       ??_C@_1M@NCHEJOPO@?$AAc?$AAz?$AAe?$AAc?$AAh?$AA?$AA@ 10098a38     LIBCMTD:getqloc.obj
 0002:0001da44       ??_C@_1BA@BKPAPBLA@?$AAe?$AAn?$AAg?$AAl?$AAa?$AAn?$AAd?$AA?$AA@ 10098a44     LIBCMTD:getqloc.obj
 0002:0001da54       ??_C@_1BM@HKBCKIPC@?$AAg?$AAr?$AAe?$AAa?$AAt?$AA?5?$AAb?$AAr?$AAi?$AAt?$AAa?$AAi?$AAn?$AA?$AA@ 10098a54     LIBCMTD:getqloc.obj
 0002:0001da70       ??_C@_1BA@PPCHPGJB@?$AAh?$AAo?$AAl?$AAl?$AAa?$AAn?$AAd?$AA?$AA@ 10098a70     LIBCMTD:getqloc.obj
 0002:0001da80       ??_C@_1BE@JBMPEGDG@?$AAh?$AAo?$AAn?$AAg?$AA?9?$AAk?$AAo?$AAn?$AAg?$AA?$AA@ 10098a80     LIBCMTD:getqloc.obj
 0002:0001da94       ??_C@_1BI@KOELBBPJ@?$AAn?$AAe?$AAw?$AA?9?$AAz?$AAe?$AAa?$AAl?$AAa?$AAn?$AAd?$AA?$AA@ 10098a94     LIBCMTD:getqloc.obj
 0002:0001daac       ??_C@_15HIEBHAIO@?$AAn?$AAz?$AA?$AA@ 10098aac     LIBCMTD:getqloc.obj
 0002:0001dab4       ??_C@_1BC@CHBCPFPI@?$AAp?$AAr?$AA?5?$AAc?$AAh?$AAi?$AAn?$AAa?$AA?$AA@ 10098ab4     LIBCMTD:getqloc.obj
 0002:0001dac8       ??_C@_1BC@JAOIIFKD@?$AAp?$AAr?$AA?9?$AAc?$AAh?$AAi?$AAn?$AAa?$AA?$AA@ 10098ac8     LIBCMTD:getqloc.obj
 0002:0001dadc       ??_C@_1BI@BEHPPHKC@?$AAp?$AAu?$AAe?$AAr?$AAt?$AAo?$AA?9?$AAr?$AAi?$AAc?$AAo?$AA?$AA@ 10098adc     LIBCMTD:getqloc.obj
 0002:0001daf4       ??_C@_1O@PAEOFKDI@?$AAs?$AAl?$AAo?$AAv?$AAa?$AAk?$AA?$AA@ 10098af4     LIBCMTD:getqloc.obj
 0002:0001db04       ??_C@_1BK@FIHMCKAM@?$AAs?$AAo?$AAu?$AAt?$AAh?$AA?5?$AAa?$AAf?$AAr?$AAi?$AAc?$AAa?$AA?$AA@ 10098b04     LIBCMTD:getqloc.obj
 0002:0001db20       ??_C@_1BI@NAEOODKB@?$AAs?$AAo?$AAu?$AAt?$AAh?$AA?5?$AAk?$AAo?$AAr?$AAe?$AAa?$AA?$AA@ 10098b20     LIBCMTD:getqloc.obj
 0002:0001db38       ??_C@_1BK@FBDGGIFF@?$AAs?$AAo?$AAu?$AAt?$AAh?$AA?9?$AAa?$AAf?$AAr?$AAi?$AAc?$AAa?$AA?$AA@ 10098b38     LIBCMTD:getqloc.obj
 0002:0001db54       ??_C@_1BI@GHLEJDPK@?$AAs?$AAo?$AAu?$AAt?$AAh?$AA?9?$AAk?$AAo?$AAr?$AAe?$AAa?$AA?$AA@ 10098b54     LIBCMTD:getqloc.obj
 0002:0001db6c       ??_C@_1CE@PLHLOMJF@?$AAt?$AAr?$AAi?$AAn?$AAi?$AAd?$AAa?$AAd?$AA?5?$AA?$CG?$AA?5?$AAt?$AAo?$AAb?$AAa?$AAg?$AAo?$AA?$AA@ 10098b6c     LIBCMTD:getqloc.obj
 0002:0001db90       ??_C@_1BO@MODIMHHI@?$AAu?$AAn?$AAi?$AAt?$AAe?$AAd?$AA?9?$AAk?$AAi?$AAn?$AAg?$AAd?$AAo?$AAm?$AA?$AA@ 10098b90     LIBCMTD:getqloc.obj
 0002:0001dbb0       ??_C@_1BM@FFHJONBJ@?$AAu?$AAn?$AAi?$AAt?$AAe?$AAd?$AA?9?$AAs?$AAt?$AAa?$AAt?$AAe?$AAs?$AA?$AA@ 10098bb0     LIBCMTD:getqloc.obj
 0002:0001dbcc       ___rg_language_count       10098bcc     LIBCMTD:getqloc.obj
 0002:0001dbd0       ___rg_country_count        10098bd0     LIBCMTD:getqloc.obj
 0002:0001dbd8       ??_C@_1GC@FECJGAE@?$AAf?$AA?3?$AA?2?$AAd?$AAd?$AA?2?$AAv?$AAc?$AAt?$AAo?$AAo?$AAl?$AAs?$AA?2?$AAc?$AAr?$AAt?$AA_?$AAb?$AAl?$AAd?$AA?2?$AAs?$AAe?$AAl?$AAf?$AA_?$AAx?$AA8?$AA6?$AA?2?$AAc@ 10098bd8     LIBCMTD:getqloc.obj
 0002:0001dc3c       ??_C@_1CO@NJACLALJ@?$AA_?$AA_?$AAg?$AAe?$AAt?$AA_?$AAq?$AAu?$AAa?$AAl?$AAi?$AAf?$AAi?$AAe?$AAd?$AA_?$AAl?$AAo?$AAc?$AAa?$AAl?$AAe?$AA?$AA@ 10098c3c     LIBCMTD:getqloc.obj
 0002:0001dc70       ??_C@_1BGM@FCCPEFDE@?$AAw?$AAc?$AAs?$AAn?$AAc?$AAp?$AAy?$AA_?$AAs?$AA?$CI?$AAl?$AAp?$AAO?$AAu?$AAt?$AAS?$AAt?$AAr?$AA?9?$AA?$DO?$AAs?$AAz?$AAL?$AAo?$AAc?$AAa?$AAl?$AAe?$AAN?$AAa?$AAm?$AAe@ 10098c70     LIBCMTD:getqloc.obj
 0002:0001dddc       ??_C@_1CM@OGEMFJNJ@?$AAL?$AAa?$AAn?$AAg?$AAC?$AAo?$AAu?$AAn?$AAt?$AAr?$AAy?$AAE?$AAn?$AAu?$AAm?$AAP?$AAr?$AAo?$AAc?$AAE?$AAx?$AA?$AA@ 10098ddc     LIBCMTD:getqloc.obj
 0002:0001de08       ??_C@_1BFO@LLJKJAIC@?$AAw?$AAc?$AAs?$AAn?$AAc?$AAp?$AAy?$AA_?$AAs?$AA?$CI?$AA_?$AAp?$AAs?$AAe?$AAt?$AAl?$AAo?$AAc?$AA_?$AAd?$AAa?$AAt?$AAa?$AA?9?$AA?$DO?$AA_?$AAc?$AAa?$AAc?$AAh?$AAe?$AAL@ 10098e08     LIBCMTD:getqloc.obj
 0002:0001df68       ??_C@_1CG@PGLLICHO@?$AAL?$AAa?$AAn?$AAg?$AAu?$AAa?$AAg?$AAe?$AAE?$AAn?$AAu?$AAm?$AAP?$AAr?$AAo?$AAc?$AAE?$AAx?$AA?$AA@ 10098f68     LIBCMTD:getqloc.obj
 0002:0001df90       ??_C@_1DC@CPKFANGP@?$AAG?$AAe?$AAt?$AAL?$AAo?$AAc?$AAa?$AAl?$AAe?$AAN?$AAa?$AAm?$AAe?$AAF?$AAr?$AAo?$AAm?$AAD?$AAe?$AAf?$AAa?$AAu?$AAl?$AAt?$AA?$AA@ 10098f90     LIBCMTD:getqloc.obj
 0002:0001dfc8       ??_C@_1BEO@EJBNGKHB@?$AAw?$AAc?$AAs?$AAn?$AAc?$AAp?$AAy?$AA_?$AAs?$AA?$CI?$AA_?$AAp?$AAs?$AAe?$AAt?$AAl?$AAo?$AAc?$AA_?$AAd?$AAa?$AAt?$AAa?$AA?9?$AA?$DO?$AA_?$AAc?$AAa?$AAc?$AAh?$AAe?$AAL@ 10098fc8     LIBCMTD:getqloc.obj
 0002:0001e118       ??_C@_17DNCLJFIF@?$AAA?$AAC?$AAP?$AA?$AA@ 10099118     LIBCMTD:getqloc.obj
 0002:0001e120       ??_C@_17CIKBIHLH@?$AAO?$AAC?$AAP?$AA?$AA@ 10099120     LIBCMTD:getqloc.obj
 0002:0001e128       ___rglangidNotDefault      10099128     LIBCMTD:getqloc_downlevel.obj
 0002:0001e140       ??_C@_1GA@DBKMEDOF@?$AAf?$AA?3?$AA?2?$AAd?$AAd?$AA?2?$AAv?$AAc?$AAt?$AAo?$AAo?$AAl?$AAs?$AA?2?$AAc?$AAr?$AAt?$AA_?$AAb?$AAl?$AAd?$AA?2?$AAs?$AAe?$AAl?$AAf?$AA_?$AAx?$AA8?$AA6?$AA?2?$AAc@ 10099140     LIBCMTD:chsize.obj
 0002:0001e1a0       ??_C@_1BE@MAFDNGED@?$AA_?$AAc?$AAh?$AAs?$AAi?$AAz?$AAe?$AA_?$AAs?$AA?$AA@ 100991a0     LIBCMTD:chsize.obj
 0002:0001e1b4       ??_C@_1BI@GALBKMKE@?$AA?$CI?$AAs?$AAi?$AAz?$AAe?$AA?5?$AA?$DO?$AA?$DN?$AA?5?$AA0?$AA?$CJ?$AA?$AA@ 100991b4     LIBCMTD:chsize.obj
 0002:0001e1d0       ??_C@_1OA@HGPJIFPM@?$AA?$CI?$AA?$CI?$AAm?$AAo?$AAd?$AAe?$AA?5?$AA?$DN?$AA?$DN?$AA?5?$AA_?$AAO?$AA_?$AAT?$AAE?$AAX?$AAT?$AA?$CJ?$AA?5?$AA?$HM?$AA?$HM?$AA?5?$AA?$CI?$AAm?$AAo?$AAd?$AAe?$AA?5?$AA?$DN?$AA?$DN?$AA?5?$AA_@ 100991d0     LIBCMTD:setmode.obj
 0002:0001e2b0       ??_C@_1GC@KODPFLLJ@?$AAf?$AA?3?$AA?2?$AAd?$AAd?$AA?2?$AAv?$AAc?$AAt?$AAo?$AAo?$AAl?$AAs?$AA?2?$AAc?$AAr?$AAt?$AA_?$AAb?$AAl?$AAd?$AA?2?$AAs?$AAe?$AAl?$AAf?$AA_?$AAx?$AA8?$AA6?$AA?2?$AAc@ 100992b0     LIBCMTD:setmode.obj
 0002:0001e314       ??_C@_1BC@JBGGJDCM@?$AA_?$AAs?$AAe?$AAt?$AAm?$AAo?$AAd?$AAe?$AA?$AA@ 10099314     LIBCMTD:setmode.obj
 0002:0001e328       ??_C@_1IC@NDCJMLB@?$AA?$CI?$AA?$CI?$AAm?$AAo?$AAd?$AAe?$AA?5?$AA?$DN?$AA?$DN?$AA?5?$AA_?$AAO?$AA_?$AAT?$AAE?$AAX?$AAT?$AA?$CJ?$AA?5?$AA?$HM?$AA?$HM?$AA?5?$AA?$CI?$AAm?$AAo?$AAd?$AAe?$AA?5?$AA?$DN?$AA?$DN?$AA?5?$AA_@ 10099328     LIBCMTD:setmode.obj
 0002:0001e3ac       ??_C@_1BG@IEEHLOCL@?$AA_?$AAs?$AAe?$AAt?$AA_?$AAf?$AAm?$AAo?$AAd?$AAe?$AA?$AA@ 100993ac     LIBCMTD:setmode.obj
 0002:0001e3c4       ??_C@_1CA@GPIGPPFN@?$AA?$CI?$AAp?$AAM?$AAo?$AAd?$AAe?$AA?5?$AA?$CB?$AA?$DN?$AA?5?$AAN?$AAU?$AAL?$AAL?$AA?$CJ?$AA?$AA@ 100993c4     LIBCMTD:setmode.obj
 0002:0001e3e4       ??_C@_1BG@CKGMPOFH@?$AA_?$AAg?$AAe?$AAt?$AA_?$AAf?$AAm?$AAo?$AAd?$AAe?$AA?$AA@ 100993e4     LIBCMTD:setmode.obj
 0002:0001e400       ??_C@_1GA@GIMEIKLC@?$AAf?$AA?3?$AA?2?$AAd?$AAd?$AA?2?$AAv?$AAc?$AAt?$AAo?$AAo?$AAl?$AAs?$AA?2?$AAc?$AAr?$AAt?$AA_?$AAb?$AAl?$AAd?$AA?2?$AAs?$AAe?$AAl?$AAf?$AA_?$AAx?$AA8?$AA6?$AA?2?$AAc@ 10099400     LIBCMTD:strtoq.obj
 0002:0001e460       ??_C@_1BA@BMMDEPNE@?$AAs?$AAt?$AAr?$AAt?$AAo?$AAx?$AAq?$AA?$AA@ 10099460     LIBCMTD:strtoq.obj
 0002:0001e470       ??_C@_1GC@MHLPCCAP@?$AAf?$AA?3?$AA?2?$AAd?$AAd?$AA?2?$AAv?$AAc?$AAt?$AAo?$AAo?$AAl?$AAs?$AA?2?$AAc?$AAr?$AAt?$AA_?$AAb?$AAl?$AAd?$AA?2?$AAs?$AAe?$AAl?$AAf?$AA_?$AAx?$AA8?$AA6?$AA?2?$AAc@ 10099470     LIBCMTD:wcsicmp.obj
 0002:0001e4d4       ??_C@_1BG@EELGPCPD@?$AA_?$AAw?$AAc?$AAs?$AAi?$AAc?$AAm?$AAp?$AA_?$AAl?$AA?$AA@ 100994d4     LIBCMTD:wcsicmp.obj
 0002:0001e4ec       ??_C@_1BC@NHIBDOMC@?$AA_?$AAw?$AAc?$AAs?$AAi?$AAc?$AAm?$AAp?$AA?$AA@ 100994ec     LIBCMTD:wcsicmp.obj
 0002:0001e500       ??_C@_1BM@CBACDFHA@?$AAf?$AAi?$AAr?$AAs?$AAt?$AA?5?$AA?$CB?$AA?$DN?$AA?5?$AAN?$AAU?$AAL?$AAL?$AA?$AA@ 10099500     LIBCMTD:wcsnicmp.obj
 0002:0001e520       ??_C@_1GE@JMKOMBJH@?$AAf?$AA?3?$AA?2?$AAd?$AAd?$AA?2?$AAv?$AAc?$AAt?$AAo?$AAo?$AAl?$AAs?$AA?2?$AAc?$AAr?$AAt?$AA_?$AAb?$AAl?$AAd?$AA?2?$AAs?$AAe?$AAl?$AAf?$AA_?$AAx?$AA8?$AA6?$AA?2?$AAc@ 10099520     LIBCMTD:wcsnicmp.obj
 0002:0001e584       ??_C@_1BI@KLMFNDBC@?$AA_?$AAw?$AAc?$AAs?$AAn?$AAi?$AAc?$AAm?$AAp?$AA_?$AAl?$AA?$AA@ 10099584     LIBCMTD:wcsnicmp.obj
 0002:0001e59c       ??_C@_1BK@LKBOPAFJ@?$AAl?$AAa?$AAs?$AAt?$AA?5?$AA?$CB?$AA?$DN?$AA?5?$AAN?$AAU?$AAL?$AAL?$AA?$AA@ 1009959c     LIBCMTD:wcsnicmp.obj
 0002:0001e5b8       ??_C@_1BE@JKOKKFEL@?$AA_?$AAw?$AAc?$AAs?$AAn?$AAi?$AAc?$AAm?$AAp?$AA?$AA@ 100995b8     LIBCMTD:wcsnicmp.obj
 0002:0001e5d0       ??_C@_1GA@OFLNHKCJ@?$AAf?$AA?3?$AA?2?$AAd?$AAd?$AA?2?$AAv?$AAc?$AAt?$AAo?$AAo?$AAl?$AAs?$AA?2?$AAc?$AAr?$AAt?$AA_?$AAb?$AAl?$AAd?$AA?2?$AAs?$AAe?$AAl?$AAf?$AA_?$AAx?$AA8?$AA6?$AA?2?$AAc@ 100995d0     LIBCMTD:wcstoq.obj
 0002:0001e630       ??_C@_1BA@FACINJJA@?$AAw?$AAc?$AAs?$AAt?$AAo?$AAx?$AAq?$AA?$AA@ 10099630     LIBCMTD:wcstoq.obj
 0002:0001e640       __load_config_used         10099640     LIBCMTD:loadcfg.obj
 0002:0001e710       ??_R1A@?0A@EA@exception@std@@8 10099710     geometry.obj
 0002:0001e72c       ??_R3exception@std@@8      1009972c     geometry.obj
 0002:0001e73c       ??_R2exception@std@@8      1009973c     geometry.obj
 0002:0001e744       ??_R4logic_error@std@@6B@  10099744     geometry.obj
 0002:0001e758       ??_R3logic_error@std@@8    10099758     geometry.obj
 0002:0001e768       ??_R2logic_error@std@@8    10099768     geometry.obj
 0002:0001e774       ??_R1A@?0A@EA@logic_error@std@@8 10099774     geometry.obj
 0002:0001e790       ??_R4invalid_argument@std@@6B@ 10099790     geometry.obj
 0002:0001e7a4       ??_R3invalid_argument@std@@8 100997a4     geometry.obj
 0002:0001e7b4       ??_R2invalid_argument@std@@8 100997b4     geometry.obj
 0002:0001e7c4       ??_R1A@?0A@EA@invalid_argument@std@@8 100997c4     geometry.obj
 0002:0001e7e0       ??_R4out_of_range@std@@6B@ 100997e0     geometry.obj
 0002:0001e7f4       ??_R3out_of_range@std@@8   100997f4     geometry.obj
 0002:0001e804       ??_R2out_of_range@std@@8   10099804     geometry.obj
 0002:0001e814       ??_R1A@?0A@EA@out_of_range@std@@8 10099814     geometry.obj
 0002:0001e830       ??_R4AbstractStrategy@@6B@ 10099830     strategy.obj
 0002:0001e844       ??_R3AbstractStrategy@@8   10099844     strategy.obj
 0002:0001e854       ??_R2AbstractStrategy@@8   10099854     strategy.obj
 0002:0001e85c       ??_R1A@?0A@EA@AbstractStrategy@@8 1009985c     strategy.obj
 0002:0001e878       ??_R4SimpleStrategy@@6B@   10099878     strategy.obj
 0002:0001e88c       ??_R3SimpleStrategy@@8     1009988c     strategy.obj
 0002:0001e89c       ??_R2SimpleStrategy@@8     1009989c     strategy.obj
 0002:0001e8a8       ??_R1A@?0A@EA@SimpleStrategy@@8 100998a8     strategy.obj
 0002:0001e8c4       ??_R4ManagedStrategy@@6B@  100998c4     strategy.obj
 0002:0001e8d8       ??_R3ManagedStrategy@@8    100998d8     strategy.obj
 0002:0001e8e8       ??_R2ManagedStrategy@@8    100998e8     strategy.obj
 0002:0001e8f8       ??_R1A@?0A@EA@ManagedStrategy@@8 100998f8     strategy.obj
 0002:0001e914       ??_R4bad_alloc@std@@6B@    10099914     libcpmtd:xthrow.obj
 0002:0001e928       ??_R3bad_alloc@std@@8      10099928     libcpmtd:xthrow.obj
 0002:0001e938       ??_R2bad_alloc@std@@8      10099938     libcpmtd:xthrow.obj
 0002:0001e944       ??_R1A@?0A@EA@bad_alloc@std@@8 10099944     libcpmtd:xthrow.obj
 0002:0001e960       ??_R4length_error@std@@6B@ 10099960     libcpmtd:xthrow.obj
 0002:0001e974       ??_R3length_error@std@@8   10099974     libcpmtd:xthrow.obj
 0002:0001e984       ??_R2length_error@std@@8   10099984     libcpmtd:xthrow.obj
 0002:0001e994       ??_R1A@?0A@EA@length_error@std@@8 10099994     libcpmtd:xthrow.obj
 0002:0001e9b0       ??_R4runtime_error@std@@6B@ 100999b0     libcpmtd:xthrow.obj
 0002:0001e9c4       ??_R3runtime_error@std@@8  100999c4     libcpmtd:xthrow.obj
 0002:0001e9d4       ??_R2runtime_error@std@@8  100999d4     libcpmtd:xthrow.obj
 0002:0001e9e0       ??_R1A@?0A@EA@runtime_error@std@@8 100999e0     libcpmtd:xthrow.obj
 0002:0001e9fc       ??_R4overflow_error@std@@6B@ 100999fc     libcpmtd:xthrow.obj
 0002:0001ea10       ??_R3overflow_error@std@@8 10099a10     libcpmtd:xthrow.obj
 0002:0001ea20       ??_R2overflow_error@std@@8 10099a20     libcpmtd:xthrow.obj
 0002:0001ea30       ??_R1A@?0A@EA@overflow_error@std@@8 10099a30     libcpmtd:xthrow.obj
 0002:0001ea4c       ??_R4bad_function_call@std@@6B@ 10099a4c     libcpmtd:xthrow.obj
 0002:0001ea60       ??_R3bad_function_call@std@@8 10099a60     libcpmtd:xthrow.obj
 0002:0001ea70       ??_R2bad_function_call@std@@8 10099a70     libcpmtd:xthrow.obj
 0002:0001ea7c       ??_R1A@?0A@EA@bad_function_call@std@@8 10099a7c     libcpmtd:xthrow.obj
 0002:0001ea98       ??_R4error_category@std@@6B@ 10099a98     libcpmtd:xthrow.obj
 0002:0001eaac       ??_R3error_category@std@@8 10099aac     libcpmtd:xthrow.obj
 0002:0001eabc       ??_R2error_category@std@@8 10099abc     libcpmtd:xthrow.obj
 0002:0001eac4       ??_R1A@?0A@EA@error_category@std@@8 10099ac4     libcpmtd:xthrow.obj
 0002:0001eae0       ??_R4_Generic_error_category@std@@6B@ 10099ae0     libcpmtd:xthrow.obj
 0002:0001eaf4       ??_R3_Generic_error_category@std@@8 10099af4     libcpmtd:xthrow.obj
 0002:0001eb04       ??_R2_Generic_error_category@std@@8 10099b04     libcpmtd:xthrow.obj
 0002:0001eb10       ??_R1A@?0A@EA@_Generic_error_category@std@@8 10099b10     libcpmtd:xthrow.obj
 0002:0001eb2c       ??_R4_Iostream_error_category@std@@6B@ 10099b2c     libcpmtd:xthrow.obj
 0002:0001eb40       ??_R3_Iostream_error_category@std@@8 10099b40     libcpmtd:xthrow.obj
 0002:0001eb50       ??_R2_Iostream_error_category@std@@8 10099b50     libcpmtd:xthrow.obj
 0002:0001eb60       ??_R1A@?0A@EA@_Iostream_error_category@std@@8 10099b60     libcpmtd:xthrow.obj
 0002:0001eb7c       ??_R4_System_error_category@std@@6B@ 10099b7c     libcpmtd:xthrow.obj
 0002:0001eb90       ??_R3_System_error_category@std@@8 10099b90     libcpmtd:xthrow.obj
 0002:0001eba0       ??_R2_System_error_category@std@@8 10099ba0     libcpmtd:xthrow.obj
 0002:0001ebb0       ??_R1A@?0A@EA@_System_error_category@std@@8 10099bb0     libcpmtd:xthrow.obj
 0002:0001ebcc       ??_R4regex_error@std@@6B@  10099bcc     libcpmtd:xthrow.obj
 0002:0001ebe0       ??_R3regex_error@std@@8    10099be0     libcpmtd:xthrow.obj
 0002:0001ebf0       ??_R2regex_error@std@@8    10099bf0     libcpmtd:xthrow.obj
 0002:0001ec00       ??_R1A@?0A@EA@regex_error@std@@8 10099c00     libcpmtd:xthrow.obj
 0002:0001ec1c       ??_R4exception@std@@6B@    10099c1c     LIBCMTD:stdexcpt.obj
 0002:0001ec30       ??_R4bad_cast@std@@6B@     10099c30     LIBCMTD:stdexcpt.obj
 0002:0001ec44       ??_R3bad_cast@std@@8       10099c44     LIBCMTD:stdexcpt.obj
 0002:0001ec54       ??_R2bad_cast@std@@8       10099c54     LIBCMTD:stdexcpt.obj
 0002:0001ec60       ??_R1A@?0A@EA@bad_cast@std@@8 10099c60     LIBCMTD:stdexcpt.obj
 0002:0001ec7c       ??_R4bad_typeid@std@@6B@   10099c7c     LIBCMTD:stdexcpt.obj
 0002:0001ec90       ??_R3bad_typeid@std@@8     10099c90     LIBCMTD:stdexcpt.obj
 0002:0001eca0       ??_R2bad_typeid@std@@8     10099ca0     LIBCMTD:stdexcpt.obj
 0002:0001ecac       ??_R1A@?0A@EA@bad_typeid@std@@8 10099cac     LIBCMTD:stdexcpt.obj
 0002:0001ecc8       ??_R4__non_rtti_object@std@@6B@ 10099cc8     LIBCMTD:stdexcpt.obj
 0002:0001ecdc       ??_R3__non_rtti_object@std@@8 10099cdc     LIBCMTD:stdexcpt.obj
 0002:0001ecec       ??_R2__non_rtti_object@std@@8 10099cec     LIBCMTD:stdexcpt.obj
 0002:0001ecfc       ??_R1A@?0A@EA@__non_rtti_object@std@@8 10099cfc     LIBCMTD:stdexcpt.obj
 0002:0001ed18       ??_R4type_info@@6B@        10099d18     LIBCMTD:typinfo.obj
 0002:0001ed2c       ??_R3type_info@@8          10099d2c     LIBCMTD:typinfo.obj
 0002:0001ed3c       ??_R2type_info@@8          10099d3c     LIBCMTD:typinfo.obj
 0002:0001ed44       ??_R1A@?0A@EA@type_info@@8 10099d44     LIBCMTD:typinfo.obj
 0002:0001ed60       ??_R4bad_exception@std@@6B@ 10099d60     LIBCMTD:frame.obj
 0002:0001ed74       ??_R3bad_exception@std@@8  10099d74     LIBCMTD:frame.obj
 0002:0001ed84       ??_R2bad_exception@std@@8  10099d84     LIBCMTD:frame.obj
 0002:0001ed90       ??_R1A@?0A@EA@bad_exception@std@@8 10099d90     LIBCMTD:frame.obj
 0002:0001edac       ??_R4DNameNode@@6B@        10099dac     LIBCMTD:undname.obj
 0002:0001edc0       ??_R3DNameNode@@8          10099dc0     LIBCMTD:undname.obj
 0002:0001edd0       ??_R2DNameNode@@8          10099dd0     LIBCMTD:undname.obj
 0002:0001edd8       ??_R1A@?0A@EA@DNameNode@@8 10099dd8     LIBCMTD:undname.obj
 0002:0001edf4       ??_R4charNode@@6B@         10099df4     LIBCMTD:undname.obj
 0002:0001ee08       ??_R3charNode@@8           10099e08     LIBCMTD:undname.obj
 0002:0001ee18       ??_R2charNode@@8           10099e18     LIBCMTD:undname.obj
 0002:0001ee24       ??_R1A@?0A@EA@charNode@@8  10099e24     LIBCMTD:undname.obj
 0002:0001ee40       ??_R4pcharNode@@6B@        10099e40     LIBCMTD:undname.obj
 0002:0001ee54       ??_R3pcharNode@@8          10099e54     LIBCMTD:undname.obj
 0002:0001ee64       ??_R2pcharNode@@8          10099e64     LIBCMTD:undname.obj
 0002:0001ee70       ??_R1A@?0A@EA@pcharNode@@8 10099e70     LIBCMTD:undname.obj
 0002:0001ee8c       ??_R4pDNameNode@@6B@       10099e8c     LIBCMTD:undname.obj
 0002:0001eea0       ??_R3pDNameNode@@8         10099ea0     LIBCMTD:undname.obj
 0002:0001eeb0       ??_R2pDNameNode@@8         10099eb0     LIBCMTD:undname.obj
 0002:0001eebc       ??_R1A@?0A@EA@pDNameNode@@8 10099ebc     LIBCMTD:undname.obj
 0002:0001eed8       ??_R4DNameStatusNode@@6B@  10099ed8     LIBCMTD:undname.obj
 0002:0001eeec       ??_R3DNameStatusNode@@8    10099eec     LIBCMTD:undname.obj
 0002:0001eefc       ??_R2DNameStatusNode@@8    10099efc     LIBCMTD:undname.obj
 0002:0001ef08       ??_R1A@?0A@EA@DNameStatusNode@@8 10099f08     LIBCMTD:undname.obj
 0002:0001ef24       ??_R4pairNode@@6B@         10099f24     LIBCMTD:undname.obj
 0002:0001ef38       ??_R3pairNode@@8           10099f38     LIBCMTD:undname.obj
 0002:0001ef48       ??_R2pairNode@@8           10099f48     LIBCMTD:undname.obj
 0002:0001ef54       ??_R1A@?0A@EA@pairNode@@8  10099f54     LIBCMTD:undname.obj
 0002:0001ef70       ___safe_se_handler_table   10099f70     <linker-defined>
 0002:0001f0bc       ___rtc_iaa                 1009a0bc     LIBCMTD:initsect.obj
 0002:0001f0f0       ___rtc_izz                 1009a0f0     LIBCMTD:initsect.obj
 0002:0001f0f4       ___rtc_taa                 1009a0f4     LIBCMTD:initsect.obj
 0002:0001f128       ___rtc_tzz                 1009a128     LIBCMTD:initsect.obj
 0002:0001fe58       __TI3?AVout_of_range@std@@ 1009ae58     geometry.obj
 0002:0001fe68       __CTA3?AVout_of_range@std@@ 1009ae68     geometry.obj
 0002:0001fe78       __CT??_R0?AVout_of_range@std@@@8??0out_of_range@std@@QAE@ABV01@@Z12 1009ae78     geometry.obj
 0002:0001fe94       __CT??_R0?AVlogic_error@std@@@8??0logic_error@std@@QAE@ABV01@@Z12 1009ae94     geometry.obj
 0002:0001feb0       __CT??_R0?AVexception@std@@@8??0exception@std@@QAE@ABV01@@Z12 1009aeb0     geometry.obj
 0002:0001fecc       __TI3?AVinvalid_argument@std@@ 1009aecc     geometry.obj
 0002:0001fedc       __CTA3?AVinvalid_argument@std@@ 1009aedc     geometry.obj
 0002:0001feec       __CT??_R0?AVinvalid_argument@std@@@8??0invalid_argument@std@@QAE@ABV01@@Z12 1009aeec     geometry.obj
 0002:000202ac       __TI2?AVbad_alloc@std@@    1009b2ac     libcpmtd:xthrow.obj
 0002:000202bc       __CTA2?AVbad_alloc@std@@   1009b2bc     libcpmtd:xthrow.obj
 0002:000202c8       __CT??_R0?AVbad_alloc@std@@@8??0bad_alloc@std@@QAE@ABV01@@Z12 1009b2c8     libcpmtd:xthrow.obj
 0002:000202e4       __TI3?AVlength_error@std@@ 1009b2e4     libcpmtd:xthrow.obj
 0002:000202f4       __CTA3?AVlength_error@std@@ 1009b2f4     libcpmtd:xthrow.obj
 0002:00020304       __CT??_R0?AVlength_error@std@@@8??0length_error@std@@QAE@ABV01@@Z12 1009b304     libcpmtd:xthrow.obj
 0002:00020320       __TI3?AVoverflow_error@std@@ 1009b320     libcpmtd:xthrow.obj
 0002:00020330       __CTA3?AVoverflow_error@std@@ 1009b330     libcpmtd:xthrow.obj
 0002:00020340       __CT??_R0?AVoverflow_error@std@@@8??0overflow_error@std@@QAE@ABV01@@Z12 1009b340     libcpmtd:xthrow.obj
 0002:0002035c       __CT??_R0?AVruntime_error@std@@@8??0runtime_error@std@@QAE@ABV01@@Z12 1009b35c     libcpmtd:xthrow.obj
 0002:00020378       __TI2?AVruntime_error@std@@ 1009b378     libcpmtd:xthrow.obj
 0002:00020388       __CTA2?AVruntime_error@std@@ 1009b388     libcpmtd:xthrow.obj
 0002:00020394       __TI2?AVbad_function_call@std@@ 1009b394     libcpmtd:xthrow.obj
 0002:000203a4       __CTA2?AVbad_function_call@std@@ 1009b3a4     libcpmtd:xthrow.obj
 0002:000203b0       __CT??_R0?AVbad_function_call@std@@@8??0bad_function_call@std@@QAE@ABV01@@Z12 1009b3b0     libcpmtd:xthrow.obj
 0002:000203cc       __TI3?AVregex_error@std@@  1009b3cc     libcpmtd:xthrow.obj
 0002:000203dc       __CTA3?AVregex_error@std@@ 1009b3dc     libcpmtd:xthrow.obj
 0002:000203ec       __CT??_R0?AVregex_error@std@@@8??0regex_error@std@@QAE@ABV01@@Z16 1009b3ec     libcpmtd:xthrow.obj
 0002:0002091c       __TI2?AVbad_exception@std@@ 1009b91c     LIBCMTD:frame.obj
 0002:0002092c       __CTA2?AVbad_exception@std@@ 1009b92c     LIBCMTD:frame.obj
 0002:00020938       __CT??_R0?AVbad_exception@std@@@8??0bad_exception@std@@QAE@ABV01@@Z12 1009b938     LIBCMTD:frame.obj
 0002:0002109c       __IMPORT_DESCRIPTOR_tgf    1009c09c     tgf:tgf.dll
 0002:000210b0       __IMPORT_DESCRIPTOR_robottools 1009c0b0     robottools:robottools.dll
 0002:000210c4       __IMPORT_DESCRIPTOR_learning 1009c0c4     learning:learning.dll
 0002:000210d8       __IMPORT_DESCRIPTOR_KERNEL32 1009c0d8     kernel32:KERNEL32.dll
 0002:000210ec       __NULL_IMPORT_DESCRIPTOR   1009c0ec     tgf:tgf.dll
 0003:00000000       ??_R0?AVout_of_range@std@@@8 1009d000     geometry.obj
 0003:00000020       ??_R0?AVlogic_error@std@@@8 1009d020     geometry.obj
 0003:00000040       ??_R0?AVexception@std@@@8  1009d040     geometry.obj
 0003:0000005c       ??_R0?AVinvalid_argument@std@@@8 1009d05c     geometry.obj
 0003:000000d0       ??_R0?AVAbstractStrategy@@@8 1009d0d0     strategy.obj
 0003:000000f0       ??_R0?AVSimpleStrategy@@@8 1009d0f0     strategy.obj
 0003:00000110       ??_R0?AVManagedStrategy@@@8 1009d110     strategy.obj
 0003:00000130       ?_sgdGravity@@3PANA        1009d130     sg_vs2008_32:sgd.obj
 0003:00000158       ??_R0?AVbad_alloc@std@@@8  1009d158     libcpmtd:xthrow.obj
 0003:00000174       ??_R0?AVlength_error@std@@@8 1009d174     libcpmtd:xthrow.obj
 0003:00000194       ??_R0?AVoverflow_error@std@@@8 1009d194     libcpmtd:xthrow.obj
 0003:000001b8       ??_R0?AVruntime_error@std@@@8 1009d1b8     libcpmtd:xthrow.obj
 0003:000001d8       ??_R0?AVbad_function_call@std@@@8 1009d1d8     libcpmtd:xthrow.obj
 0003:000001fc       ??_R0?AVregex_error@std@@@8 1009d1fc     libcpmtd:xthrow.obj
 0003:0000021c       ??_R0?AVerror_category@std@@@8 1009d21c     libcpmtd:xthrow.obj
 0003:00000240       ??_R0?AV_Generic_error_category@std@@@8 1009d240     libcpmtd:xthrow.obj
 0003:0000026c       ??_R0?AV_Iostream_error_category@std@@@8 1009d26c     libcpmtd:xthrow.obj
 0003:00000298       ??_R0?AV_System_error_category@std@@@8 1009d298     libcpmtd:xthrow.obj
 0003:000002e8       ___security_cookie         1009d2e8     LIBCMTD:gs_cookie.obj
 0003:000002ec       ___security_cookie_complement 1009d2ec     LIBCMTD:gs_cookie.obj
 0003:000002f0       __fltused                  1009d2f0     LIBCMTD:fpinit.obj
 0003:000002f4       __ldused                   1009d2f4     LIBCMTD:fpinit.obj
 0003:00000324       ??_R0?AVbad_cast@std@@@8   1009d324     LIBCMTD:stdexcpt.obj
 0003:00000340       ??_R0?AVbad_typeid@std@@@8 1009d340     LIBCMTD:stdexcpt.obj
 0003:00000360       ??_R0?AV__non_rtti_object@std@@@8 1009d360     LIBCMTD:stdexcpt.obj
 0003:00000384       ??_R0?AVtype_info@@@8      1009d384     LIBCMTD:typinfo.obj
 0003:000003a0       __iob                      1009d3a0     LIBCMTD:_file.obj
 0003:00000620       __half                     1009d620     LIBCMTD:pow.obj
 0003:000007ec       __crtDbgFlag               1009d7ec     LIBCMTD:dbgheap.obj
 0003:000007f0       __crtBreakAlloc            1009d7f0     LIBCMTD:dbgheap.obj
 0003:000007f4       ___crtDebugFillThreshold   1009d7f4     LIBCMTD:dbgheap.obj
 0003:00000800       ?_RTC_ErrorLevels@@3PAHA   1009d800     LIBCMTD:error.obj
 0003:00000814       ___flsindex                1009d814     LIBCMTD:tidtable.obj
 0003:00000820       ??_R0?AVbad_exception@std@@@8 1009d820     LIBCMTD:frame.obj
 0003:00000840       __cfltcvt_tab              1009d840     LIBCMTD:cmiscdat.obj
 0003:00000868       __pfnAllocHook             1009d868     LIBCMTD:dbghook.obj
 0003:000009e0       ___nullstring              1009d9e0     LIBCMTD:output.obj
 0003:000009e4       ___wnullstring             1009d9e4     LIBCMTD:output.obj
 0003:000009e8       ___badioinfo               1009d9e8     LIBCMTD:ioinit.obj
 0003:00000b18       __d_inf                    1009db18     LIBCMTD:util.obj
 0003:00000b20       __d_ind                    1009db20     LIBCMTD:util.obj
 0003:00000b28       __d_max                    1009db28     LIBCMTD:util.obj
 0003:00000b30       __d_min                    1009db30     LIBCMTD:util.obj
 0003:00000b38       __d_mzero                  1009db38     LIBCMTD:util.obj
 0003:00000b60       ___isa_enabled             1009db60     LIBCMTD:cpu_disp.obj
 0003:00000b64       __CrtDbgMode               1009db64     LIBCMTD:dbgrptt.obj
 0003:00000b70       __CrtDbgFile               1009db70     LIBCMTD:dbgrptt.obj
 0003:00000b7c       __crtAssertBusy            1009db7c     LIBCMTD:dbgrptt.obj
 0003:00000b80       __lookuptrailbytes         1009db80     LIBCMTD:read.obj
 0003:00000c80       ___abort_behavior          1009dc80     LIBCMTD:abort.obj
 0003:00000c94       ___ptmbcinfo               1009dc94     LIBCMTD:mbctype.obj
 0003:00000d88       __mbctype                  1009dd88     LIBCMTD:mbctype.obj
 0003:00000e90       __mbcasemap                1009de90     LIBCMTD:mbctype.obj
 0003:00000f90       ___initialmbcinfo          1009df90     LIBCMTD:mbctype.obj
 0003:000011b4       ___wclocalestr             1009e1b4     LIBCMTD:nlsdata.obj
 0003:000011b8       ___lc_time_c               1009e1b8     LIBCMTD:nlsdata.obj
 0003:0000131c       ___ptlocinfo               1009e31c     LIBCMTD:nlsdata.obj
 0003:00001320       ___initiallocinfo          1009e320     LIBCMTD:nlsdata.obj
 0003:000013d8       ___initiallocalestructinfo 1009e3d8     LIBCMTD:nlsdata.obj
 0003:000013e0       ___mb_cur_max              1009e3e0     LIBCMTD:nlsdata.obj
 0003:000013e4       ___globallocalestatus      1009e3e4     LIBCMTD:glstatus.obj
 0003:000013f0       __NLG_Destination          1009e3f0     LIBCMTD:exsup.obj
 0003:00001400       __matherr_flag             1009e400     LIBCMTD:matherr.obj
 0003:00001404       ??_R0?AVDNameNode@@@8      1009e404     LIBCMTD:undname.obj
 0003:0000141c       ??_R0?AVcharNode@@@8       1009e41c     LIBCMTD:undname.obj
 0003:00001434       ??_R0?AVpcharNode@@@8      1009e434     LIBCMTD:undname.obj
 0003:0000144c       ??_R0?AVpDNameNode@@@8     1009e44c     LIBCMTD:undname.obj
 0003:00001468       ??_R0?AVDNameStatusNode@@@8 1009e468     LIBCMTD:undname.obj
 0003:00001488       ??_R0?AVpairNode@@@8       1009e488     LIBCMTD:undname.obj
 0003:000014a0       ___lconv                   1009e4a0     LIBCMTD:lconv.obj
 0003:000014a4       ___lconv_static_decimal    1009e4a4     LIBCMTD:lconv.obj
 0003:000014a8       ___lconv_c                 1009e4a8     LIBCMTD:lconv.obj
 0003:000014f8       ___lconv_static_W_decimal  1009e4f8     LIBCMTD:lconv.obj
 0003:00001500       __pctype                   1009e500     LIBCMTD:ctype.obj
 0003:00001504       __pwctype                  1009e504     LIBCMTD:ctype.obj
 0003:00001540       __confh                    1009e540     LIBCMTD:initcon.obj
 0003:00001548       __pow10pos                 1009e548     LIBCMTD:constpow.obj
 0003:000016a8       __pow10neg                 1009e6a8     LIBCMTD:constpow.obj
 0003:00001820       ?cardata@Driver@@1PAVCardata@@A 1009e820     driver.obj
 0003:00001828       ?currentsimtime@Driver@@1NA 1009e828     driver.obj
 0003:00001834       ?MAX_UNSTUCK_ANGLE@Driver@@1MB 1009e834     driver.obj
 0003:00001868       ?track@Opponent@@0PAUtTrack@@A 1009e868     opponent.obj
 0003:00001cec       ?_Generic_object@?$_Error_objects@H@std@@2V_Generic_error_category@2@A 1009ecec     libcpmtd:xthrow.obj
 0003:00001cf0       ?_Iostream_object@?$_Error_objects@H@std@@2V_Iostream_error_category@2@A 1009ecf0     libcpmtd:xthrow.obj
 0003:00001cf4       ?_System_object@?$_Error_objects@H@std@@2V_System_error_category@2@A 1009ecf4     libcpmtd:xthrow.obj
 0003:00001cf8       ?id@?$num_put@DV?$back_insert_iterator@V?$basic_string@DU?$char_traits@D@std@@V?$allocator@D@2@@std@@@std@@@std@@2V0locale@2@A 1009ecf8     libcpmtd:xthrow.obj
 0003:00001cfc       ?id@?$num_put@_WV?$back_insert_iterator@V?$basic_string@_WU?$char_traits@_W@std@@V?$allocator@_W@2@@std@@@std@@@std@@2V0locale@2@A 1009ecfc     libcpmtd:xthrow.obj
 0003:00001d00       ?id@?$numpunct@D@std@@2V0locale@2@A 1009ed00     libcpmtd:xthrow.obj
 0003:00001d04       ?id@?$numpunct@_W@std@@2V0locale@2@A 1009ed04     libcpmtd:xthrow.obj
 0003:00001d0c       ___fastflag                1009ed0c     LIBCMTD:fpinit.obj
 0003:00001d10       ___pInvalidArgHandler      1009ed10     LIBCMTD:invarg.obj
 0003:00001d18       __cflush                   1009ed18     LIBCMTD:_file.obj
 0003:00001d28       __aenvptr                  1009ed28     LIBCMTD:dllcrt0.obj
 0003:00001d2c       __wenvptr                  1009ed2c     LIBCMTD:dllcrt0.obj
 0003:00001d34       __umaskval                 1009ed34     LIBCMTD:crt0dat.obj
 0003:00001d38       __exitflag                 1009ed38     LIBCMTD:crt0dat.obj
 0003:00001d3c       __C_Termination_Done       1009ed3c     LIBCMTD:crt0dat.obj
 0003:00001d40       ___winitenv                1009ed40     LIBCMTD:crt0dat.obj
 0003:00001d44       ___initenv                 1009ed44     LIBCMTD:crt0dat.obj
 0003:00001d48       __C_Exit_Done              1009ed48     LIBCMTD:crt0dat.obj
 0003:00001d50       ___argc                    1009ed50     LIBCMTD:crt0dat.obj
 0003:00001d54       ___argv                    1009ed54     LIBCMTD:crt0dat.obj
 0003:00001d58       ___wargv                   1009ed58     LIBCMTD:crt0dat.obj
 0003:00001d5c       __environ                  1009ed5c     LIBCMTD:crt0dat.obj
 0003:00001d60       __wenviron                 1009ed60     LIBCMTD:crt0dat.obj
 0003:00001d64       __pgmptr                   1009ed64     LIBCMTD:crt0dat.obj
 0003:00001d68       __wpgmptr                  1009ed68     LIBCMTD:crt0dat.obj
 0003:00001ed8       ?_pnhHeap@@3P6AHI@ZA       1009eed8     LIBCMTD:handler.obj
 0003:00001edc       ___crtDebugCheckCount      1009eedc     LIBCMTD:dbgheap.obj
 0003:00001ee4       ?_pfnDumpClient@@3P6AXPAXI@ZA 1009eee4     LIBCMTD:dbgheap.obj
 0003:00001f00       ?wsprintffp@@3P6AHPADPBDZZA 1009ef00     LIBCMTD:error.obj
 0003:00002230       ?__pInconsistency@@3P6AXXZA 1009f230     LIBCMTD:hooks.obj
 0003:00002234       __stdbuf                   1009f234     LIBCMTD:_sftbuf.obj
 0003:00002240       ___pioinfo                 1009f240     LIBCMTD:ioinit.obj
 0003:00002340       ___isa_available           1009f340     LIBCMTD:cpu_disp.obj
 0003:00002344       ___favor                   1009f344     LIBCMTD:cpu_disp.obj
 0003:00002370       __newmode                  1009f370     LIBCMTD:_newmode.obj
 0003:0000237c       ___error_mode              1009f37c     LIBCMTD:errmode.obj
 0003:00002380       ___app_type                1009f380     LIBCMTD:crt0msg.obj
