 blacky_2012

 Timestamp is 51ba516a (Fri Jun 14 01:10:34 2013)

 Preferred load address is 10000000

 Start         Length     Name                   Class
 0001:00000000 000a8339H .text                   CODE
 0001:000a8340 00001a92H .text$x                 CODE
 0001:000a9de0 00001ce6H .text$yc                CODE
 0001:000abad0 0000104bH .text$yd                CODE
 0002:00000000 00000104H .CRT$XCA                DATA
 0002:00000104 0000018eH .CRT$XCU                DATA
 0002:00000294 00000104H .CRT$XCZ                DATA
 0002:00000398 00000104H .CRT$XIA                DATA
 0002:0000049c 0000011cH .CRT$XIC                DATA
 0002:000005b8 00000104H .CRT$XIZ                DATA
 0002:000006bc 00000104H .CRT$XPA                DATA
 0002:000007c0 00000109H .CRT$XPX                DATA
 0002:000008cc 00000104H .CRT$XPXA               DATA
 0002:000009d0 00000104H .CRT$XPZ                DATA
 0002:00000ad4 00000104H .CRT$XTA                DATA
 0002:00000bd8 00000104H .CRT$XTZ                DATA
 0002:00000ce0 0001ec91H .rdata                  DATA
 0002:0001f974 000001a8H .rdata$debug            DATA
 0002:0001fb1c 00000820H .rdata$r                DATA
 0002:00020340 000001c0H .rdata$sxdata           DATA
 0002:00020500 00000104H .rtc$IAA                DATA
 0002:00020604 0000018bH .rtc$IMZ                DATA
 0002:00020790 00000104H .rtc$IZZ                DATA
 0002:00020894 00000104H .rtc$TAA                DATA
 0002:00020998 0000018bH .rtc$TMZ                DATA
 0002:00020b24 00000104H .rtc$TZZ                DATA
 0002:00020c28 00001787H .xdata$x                DATA
 0002:000223b0 0000015dH .edata                  DATA
 0003:00000000 00001c16H .data                   DATA
 0003:00001c20 00003c4cH .bss                    DATA
 0004:00000000 0000003cH .idata$2                DATA
 0004:0000003c 00000014H .idata$3                DATA
 0004:00000050 0000027cH .idata$4                DATA
 0004:000002cc 0000027cH .idata$5                DATA
 0004:00000548 000009a3H .idata$6                DATA
 0005:00000000 00000169H .rsrc$01                DATA
 0005:00000170 000002ccH .rsrc$02                DATA

  Address         Publics by Value              Rva+Base       Lib:Object

 0000:00000000       __except_list              00000000     <absolute>
 0000:00000028       ___safe_se_handler_count   00000028     <absolute>
 0000:00000000       ___ImageBase               10000000     <linker-defined>
 0001:00001250       ??0TCarParam@@QAE@XZ       10002250 f   unitcarparam.obj
 0001:00001340       ??1TCarParam@@QAE@XZ       10002340 f   unitcarparam.obj
 0001:00001380       ??4TCarParam@@UAEAAV0@ABV0@@Z 10002380 f   unitcarparam.obj
 0001:00001460       ?sgdMakeCoordMat4@@YAXQAY03NPBUsgdCoord@@@Z 10002460 f i unitcarparam.obj
 0001:000014c0       ?sgdMakeCoordMat4@@YAXQAY03NQBN1@Z 100024c0 f i unitcarparam.obj
 0001:000015c0       ??0TCharacteristic@@QAE@NNHN@Z 100025c0 f   unitcharacteristic.obj
 0001:000016e0       ??0TCharacteristic@@QAE@XZ 100026e0 f   unitcharacteristic.obj
 0001:00001770       ??1TCharacteristic@@QAE@XZ 10002770 f   unitcharacteristic.obj
 0001:000017e0       ?Count@TCharacteristic@@QBEHXZ 100027e0 f   unitcharacteristic.obj
 0001:00001820       ?Estimate@TCharacteristic@@QBENH@Z 10002820 f   unitcharacteristic.obj
 0001:00001870       ?Estimate@TCharacteristic@@QBENN@Z 10002870 f   unitcharacteristic.obj
 0001:000018f0       ?MakeIndex@TCharacteristic@@ABEHN@Z 100028f0 f   unitcharacteristic.obj
 0001:00001a80       ?Measurement@TCharacteristic@@QAEXHN@Z 10002a80 f   unitcharacteristic.obj
 0001:00001b10       ?Measurement@TCharacteristic@@QAEXNN@Z 10002b10 f   unitcharacteristic.obj
 0001:00001bd0       ?SetWeight@TCharacteristic@@QAEXN@Z 10002bd0 f   unitcharacteristic.obj
 0001:00001c20       ?Weight@TCharacteristic@@QBENXZ 10002c20 f   unitcharacteristic.obj
 0001:00001c60       ??0?$v2t@N@@QAE@NN@Z       10002c60 f i unitclothoid.obj
 0001:00001cc0       ??0?$v2t@N@@QAE@XZ         10002cc0 f i unitclothoid.obj
 0001:00001d00       ??0?$v3t@N@@QAE@ABV0@@Z    10002d00 f i unitclothoid.obj
 0001:00001d80       ??0?$v3t@N@@QAE@NNN@Z      10002d80 f i unitclothoid.obj
 0001:00001df0       ??0TClothoidLane@@QAE@XZ   10002df0 f   unitclothoid.obj
 0001:00001e50       ??0TVec2d@@QAE@NN@Z        10002e50 f i unitclothoid.obj
 0001:00001ed0       ??0TVec2d@@QAE@XZ          10002ed0 f i unitclothoid.obj
 0001:00001f30       ??0TVec3d@@QAE@ABV0@@Z     10002f30 f i unitclothoid.obj
 0001:00001f90       ??0TVec3d@@QAE@ABV?$v3t@N@@@Z 10002f90 f i unitclothoid.obj
 0001:00001ff0       ??1TClothoidLane@@UAE@XZ   10002ff0 f   unitclothoid.obj
 0001:00002050       ??4?$v3t@N@@QAEAAV0@ABV0@@Z 10003050 f i unitclothoid.obj
 0001:000020d0       ??4TVec3d@@QAEAAV0@ABV0@@Z 100030d0 f i unitclothoid.obj
 0001:00002130       ??D?$v3t@N@@QBE?AV0@N@Z    10003130 f i unitclothoid.obj
 0001:000021e0       ??G?$v3t@N@@QBE?AV0@ABV0@@Z 100031e0 f i unitclothoid.obj
 0001:00002290       ??H?$v3t@N@@QBE?AV0@ABV0@@Z 10003290 f i unitclothoid.obj
 0001:00002340       ??_ETClothoidLane@@UAEPAXI@Z 10003340 f i unitclothoid.obj
 0001:00002340       ??_GTClothoidLane@@UAEPAXI@Z 10003340 f i unitclothoid.obj
 0001:000023b0       ?Adjust@TClothoidLane@@AAEXNNNNPBUTPathPt@TLane@@PAU23@0VTVec3d@@2N@Z 100033b0 f   unitclothoid.obj
 0001:000027c0       ?AnalyseBumps@TClothoidLane@@AAEX_N@Z 100037c0 f   unitclothoid.obj
 0001:00002c90       ?CalcPt@TPathPt@TLane@@QBE?AVTVec3d@@XZ 10003c90 f i unitclothoid.obj
 0001:00002d30       ?Dist@TPathPt@TLane@@QBENXZ 10003d30 f i unitclothoid.obj
 0001:00002d70       ?GetXY@TVec3d@@QBE?AVTVec2d@@XZ 10003d70 f i unitclothoid.obj
 0001:00002df0       ?LoadLearnedFromFile@TClothoidLane@@QAE_NPBD@Z 10003df0 f   unitclothoid.obj
 0001:00003240       ?LoadLearnedFromXMLFile@TClothoidLane@@QAE_NPAX@Z 10004240 f   unitclothoid.obj
 0001:00003590       ?LoadPointsFromFile@TClothoidLane@@QAE_NPBD@Z 10004590 f   unitclothoid.obj
 0001:000037e0       ?LoadSmoothPath@TClothoidLane@@QAE_NPADPAVTTrackDescription@@AAVTParam@@ABUTOptions@1@@Z 100047e0 f   unitclothoid.obj
 0001:000038b0       ?MakeSmoothPath@TClothoidLane@@QAEXPAVTTrackDescription@@AAVTParam@@ABUTOptions@1@@Z 100048b0 f   unitclothoid.obj
 0001:00003b60       ?Norm@TPathPt@TLane@@QBEABVTVec3d@@XZ 10004b60 f i unitclothoid.obj
 0001:00003ba0       ?Optimise@TClothoidLane@@AAEXNNPAUTPathPt@TLane@@PBU23@11111N@Z 10004ba0 f   unitclothoid.obj
 0001:00004580       ?OptimiseLine@TClothoidLane@@AAEXHHNPAUTPathPt@TLane@@PBU23@1@Z 10005580 f   unitclothoid.obj
 0001:000048c0       ?OptimisePath@TClothoidLane@@AAEXHHN@Z 100058c0 f   unitclothoid.obj
 0001:00004cf0       ?Pt@TPathPt@TLane@@QBEABVTVec3d@@XZ 10005cf0 f i unitclothoid.obj
 0001:00004d30       ?RestoreLearned@TClothoidLane@@QAEXXZ 10005d30 f   unitclothoid.obj
 0001:00004e10       ?SaveLearnedToFile@TClothoidLane@@QAE_NPBD@Z 10005e10 f   unitclothoid.obj
 0001:00005100       ?SaveLearnedToXMLFile@TClothoidLane@@QAE_NPBD@Z 10006100 f   unitclothoid.obj
 0001:00005370       ?SavePointsToFile@TClothoidLane@@QAEXPBD@Z 10006370 f   unitclothoid.obj
 0001:00005510       ?SaveSections@TClothoidLane@@QAEXPBD@Z 10006510 f   unitclothoid.obj
 0001:00005840       ?SaveToFile@TClothoidLane@@QAE_NPBD@Z 10006840 f   unitclothoid.obj
 0001:00005ae0       ?SetOffset@TClothoidLane@@AAEXNNPAUTPathPt@TLane@@PBU23@1@Z 10006ae0 f   unitclothoid.obj
 0001:00006000       ?SmoothBetween@TClothoidLane@@AAEXHN@Z 10007000 f   unitclothoid.obj
 0001:000063c0       ?SmoothPath@TClothoidLane@@QAEXABUTOptions@1@@Z 100073c0 f   unitclothoid.obj
 0001:00006500       ?StoreLearned@TClothoidLane@@QAEXXZ 10007500 f   unitclothoid.obj
 0001:000065e0       ?WtoL@TPathPt@TLane@@QBENXZ 100075e0 f i unitclothoid.obj
 0001:00006620       ?WtoR@TPathPt@TLane@@QBENXZ 10007620 f i unitclothoid.obj
 0001:00006660       ?len@?$v3t@N@@QAENXZ       10007660 f i unitclothoid.obj
 0001:00006700       ??0TCollision@@QAE@XZ      10007700 f   unitcollision.obj
 0001:00006740       ??1TCollision@@QAE@XZ      10007740 f   unitcollision.obj
 0001:00006780       ?AvoidTo@TCollision@@QAENABUTCollInfo@1@QAUCarElt@@AAVTDriver@@AA_N@Z 10007780 f   unitcollision.obj
 0001:00006cc0       ??0?$v2t@N@@QAE@ABV0@@Z    10007cc0 f i unitcommon.obj
 0001:00006d20       ??0TUtils@@QAE@XZ          10007d20 f   unitcommon.obj
 0001:00006d60       ??0TVec2d@@QAE@ABV?$v2t@N@@@Z 10007d60 f i unitcommon.obj
 0001:00006dc0       ??0TVec3d@@QAE@NNN@Z       10007dc0 f i unitcommon.obj
 0001:00006e50       ??1TUtils@@QAE@XZ          10007e50 f   unitcommon.obj
 0001:00006e90       ??4?$v2t@N@@QAEAAV0@ABV0@@Z 10007e90 f i unitcommon.obj
 0001:00006ef0       ??4TVec2d@@QAEAAV0@ABV0@@Z 10007ef0 f i unitcommon.obj
 0001:00006f50       ??4TVec2d@@QAEAAV0@ABV?$v2t@N@@@Z 10007f50 f i unitcommon.obj
 0001:00006fb0       ??8?$v2t@N@@QBEHABV0@@Z    10007fb0 f i unitcommon.obj
 0001:00007030       ??9?$v2t@N@@QBEHABV0@@Z    10008030 f i unitcommon.obj
 0001:000070b0       ??D?$v2t@N@@QBE?AV0@N@Z    100080b0 f i unitcommon.obj
 0001:00007140       ??D?$v2t@N@@QBENABV0@@Z    10008140 f i unitcommon.obj
 0001:000071c0       ??G?$v2t@N@@QBE?AV0@ABV0@@Z 100081c0 f i unitcommon.obj
 0001:00007250       ??G?$v2t@N@@QBE?AV0@XZ     10008250 f i unitcommon.obj
 0001:000072e0       ??H?$v2t@N@@QBE?AV0@ABV0@@Z 100082e0 f i unitcommon.obj
 0001:00007370       ?CalcCurvature@TUtils@@SANABVTVec2d@@00@Z 10008370 f   unitcommon.obj
 0001:00007430       ?CalcCurvature@TUtils@@SANNNNNNN@Z 10008430 f   unitcommon.obj
 0001:000075b0       ?CalcCurvatureTan@TUtils@@SANABVTVec2d@@00@Z 100085b0 f   unitcommon.obj
 0001:00007760       ?CalcCurvatureXY@TUtils@@SANABVTVec3d@@00@Z 10008760 f   unitcommon.obj
 0001:00007820       ?CalcCurvatureZ@TUtils@@SANABVTVec3d@@00@Z 10008820 f   unitcommon.obj
 0001:00007950       ?CalcTangent@TUtils@@SA_NABVTVec2d@@00AAV2@@Z 10008950 f   unitcommon.obj
 0001:00007cf0       ?ClosestPtOnLine@TUtils@@SANNNNNNN@Z 10008cf0 f   unitcommon.obj
 0001:00007dc0       ?DistPtFromLine@TUtils@@SANNNNNNN@Z 10008dc0 f   unitcommon.obj
 0001:00007ee0       ?InterpCurvature@TUtils@@SANNNN@Z 10008ee0 f   unitcommon.obj
 0001:00007f60       ?InterpCurvatureLin@TUtils@@SANNNN@Z 10008f60 f   unitcommon.obj
 0001:00007fc0       ?InterpCurvatureRad@TUtils@@SANNNN@Z 10008fc0 f   unitcommon.obj
 0001:00008090       ?LineCrossesLine@TUtils@@SA_NABVTVec2d@@000AAN1@Z 10009090 f   unitcommon.obj
 0001:000081d0       ?LineCrossesLine@TUtils@@SA_NABVTVec2d@@000AAN@Z 100091d0 f   unitcommon.obj
 0001:000082c0       ?LineCrossesLine@TUtils@@SA_NNNNNNNNNAAN@Z 100092c0 f   unitcommon.obj
 0001:00008380       ?LineCrossesLineXY@TUtils@@SA_NABVTVec3d@@000AAN@Z 10009380 f   unitcommon.obj
 0001:00008470       ?MergeParamFile@TUtils@@SAPAXPAXPBD@Z 10009470 f   unitcommon.obj
 0001:00008500       ?VecAngXY@TUtils@@SANABVTVec3d@@@Z 10009500 f   unitcommon.obj
 0001:00008570       ?VecAngle@TUtils@@SANABVTVec2d@@@Z 10009570 f   unitcommon.obj
 0001:000085e0       ?VecLenXY@TUtils@@SANABVTVec3d@@@Z 100095e0 f   unitcommon.obj
 0001:00008650       ?VecNorm@TUtils@@SA?AVTVec2d@@ABV2@@Z 10009650 f   unitcommon.obj
 0001:000086d0       ?VecNormXY@TUtils@@SA?AVTVec3d@@ABV2@@Z 100096d0 f   unitcommon.obj
 0001:00008770       ?VecUnit@TUtils@@SA?AVTVec2d@@ABV2@@Z 10009770 f   unitcommon.obj
 0001:00008880       ??0TCommonData@@QAE@XZ     10009880 f   unitcommondata.obj
 0001:000088e0       ??1TCommonData@@QAE@XZ     100098e0 f   unitcommondata.obj
 0001:00008930       ??0TCubic@@QAE@NNNN@Z      10009930 f   unitcubic.obj
 0001:000089d0       ??0TCubic@@QAE@NNNNNN@Z    100099d0 f   unitcubic.obj
 0001:00008a90       ??0TCubic@@QAE@XZ          10009a90 f   unitcubic.obj
 0001:00008ad0       ??1TCubic@@QAE@XZ          10009ad0 f   unitcubic.obj
 0001:00008b10       ?Calc2ndDerivative@TCubic@@QBENN@Z 10009b10 f   unitcubic.obj
 0001:00008ba0       ?CalcGradient@TCubic@@QBENN@Z 10009ba0 f   unitcubic.obj
 0001:00008c50       ?CalcOffset@TCubic@@QBENN@Z 10009c50 f   unitcubic.obj
 0001:00008d00       ?Set@TCubic@@QAEXNNNN@Z    10009d00 f   unitcubic.obj
 0001:00008da0       ?Set@TCubic@@QAEXNNNNNN@Z  10009da0 f   unitcubic.obj
 0001:00009040       ??0TCubicSpline@@QAE@HPBN00@Z 1000a040 f   unitcubicspline.obj
 0001:00009300       ??1TCubicSpline@@QAE@XZ    1000a300 f   unitcubicspline.obj
 0001:000093c0       ??_ETCubic@@QAEPAXI@Z      1000a3c0 f i unitcubicspline.obj
 0001:00009480       ?CalcGradient@TCubicSpline@@QBENN@Z 1000a480 f   unitcubicspline.obj
 0001:00009510       ?CalcOffset@TCubicSpline@@QBENN@Z 1000a510 f   unitcubicspline.obj
 0001:000095a0       ?FindSeg@TCubicSpline@@ABEHN@Z 1000a5a0 f   unitcubicspline.obj
 0001:00009640       ?IsValidX@TCubicSpline@@QBE_NN@Z 1000a640 f   unitcubicspline.obj
 0001:000096e0       ??0PitSideMod@TTrackDescription@@QAE@XZ 1000a6e0 f i unitdriver.obj
 0001:00009740       ??0TCollInfo@TCollision@@QAE@XZ 1000a740 f i unitdriver.obj
 0001:00009880       ??0TDriver@@QAE@H@Z        1000a880 f   unitdriver.obj
 0001:0000a6d0       ??0TOptions@TClothoidLane@@QAE@NNN_N0@Z 1000b6d0 f i unitdriver.obj
 0001:0000a750       ??1TDriver@@QAE@XZ         1000b750 f   unitdriver.obj
 0001:0000a9d0       ??_ETOpponent@@QAEPAXI@Z   1000b9d0 f i unitdriver.obj
 0001:0000aa90       ?AvoidOtherCars@TDriver@@AAEXNAA_N0@Z 1000ba90 f   unitdriver.obj
 0001:0000b9e0       ?BrakeEarlier@TDriver@@AAEXN@Z 1000c9e0 f   unitdriver.obj
 0001:0000be90       ?BrakeLater@TDriver@@AAEXN@Z 1000ce90 f   unitdriver.obj
 0001:0000c340       ?BrakingForceRegulator@TDriver@@QAEXXZ 1000d340 f   unitdriver.obj
 0001:0000c840       ?BrakingForceRegulatorAvoid@TDriver@@QAEXXZ 1000d840 f   unitdriver.obj
 0001:0000cd50       ?BrakingForceRegulatorTraffic@TDriver@@QAEXXZ 1000dd50 f   unitdriver.obj
 0001:0000d220       ?CalcPathTarget2@TDriver@@QAE?AVTVec2d@@NN@Z 1000e220 f   unitdriver.obj
 0001:0000d5b0       ?CalcPathTarget@TDriver@@QAENNN@Z 1000e5b0 f   unitdriver.obj
 0001:0000d920       ?CheckTolerance@TDriver@@AAEXXZ 1000e920 f   unitdriver.obj
 0001:0000ddf0       ?Clutching@TDriver@@QAEXXZ 1000edf0 f   unitdriver.obj
 0001:0000e100       ?DetectFlight@TDriver@@QAEMXZ 1000f100 f   unitdriver.obj
 0001:0000e410       ?Drive@TDriver@@QAEXXZ     1000f410 f   unitdriver.obj
 0001:0000ee00       ?DriveFaster@TDriver@@AAEXN@Z 1000fe00 f   unitdriver.obj
 0001:0000f2b0       ?DriveSlower@TDriver@@AAEXNH@Z 100102b0 f   unitdriver.obj
 0001:0000f770       ?EndRace@TDriver@@QAEXXZ   10010770 f   unitdriver.obj
 0001:0000f7b0       ?EvaluateCollisionFlags@TDriver@@AAEXHAAUTCollInfo@TCollision@@NAAN11AA_N@Z 100107b0 f   unitdriver.obj
 0001:000108a0       ?FilterABS@TDriver@@AAENN@Z 100118a0 f   unitdriver.obj
 0001:000109f0       ?FilterBrake@TDriver@@AAENN@Z 100119f0 f   unitdriver.obj
 0001:00010f00       ?FilterCrv@TDriver@@AAENN@Z 10011f00 f   unitdriver.obj
 0001:000113d0       ?FilterDiff@TDriver@@AAENN@Z 100123d0 f   unitdriver.obj
 0001:00011560       ?FilterDrifting@TDriver@@AAENN@Z 10012560 f   unitdriver.obj
 0001:00011a10       ?FilterLetPass@TDriver@@AAENN@Z 10012a10 f   unitdriver.obj
 0001:00011ac0       ?FilterRelax@TDriver@@AAENN@Z 10012ac0 f   unitdriver.obj
 0001:00011b60       ?FilterSteerSpeed@TDriver@@AAENN@Z 10012b60 f   unitdriver.obj
 0001:00011df0       ?FilterTCL@TDriver@@AAENN@Z 10012df0 f   unitdriver.obj
 0001:000128a0       ?FilterTrack@TDriver@@AAENN@Z 100138a0 f   unitdriver.obj
 0001:00012a60       ?FindRacinglines@TDriver@@QAEXXZ 10013a60 f   unitdriver.obj
 0001:000135e0       ?FlightControl@TDriver@@QAEXXZ 100145e0 f   unitdriver.obj
 0001:00013870       ?GearRatio@TDriver@@QAENXZ 10014870 f   unitdriver.obj
 0001:000138e0       ?GearTronic@TDriver@@QAEXXZ 100148e0 f   unitdriver.obj
 0001:00013b70       ?GetAvoidTargetPoint@TDriver@@AAE?AVTVec2d@@NM@Z 10014b70 f   unitdriver.obj
 0001:00013c40       ?GetLanePoint@TDriver@@QAEXHNAAVTLanePoint@@@Z 10014c40 f   unitdriver.obj
 0001:00014100       ?GetPathToLeftAndRight@TDriver@@QAEXQAUCarElt@@AAN1@Z 10015100 f   unitdriver.obj
 0001:000142b0       ?GetPosInfo@TDriver@@QAEXNAAVTLanePoint@@@Z 100152b0 f   unitdriver.obj
 0001:00014350       ?GetPosInfo@TDriver@@QAEXNAAVTLanePoint@@NN@Z 10015350 f   unitdriver.obj
 0001:000145d0       ?GetTargetPoint@TDriver@@AAE?AVTVec2d@@M@Z 100155d0 f   unitdriver.obj
 0001:00014690       ?GotFlags@TInfo@TOpponent@@QBE_NH@Z 10015690 f i unitdriver.obj
 0001:00014700       ?HasPits@TPit@@QAE_NXZ     10015700 f i unitdriver.obj
 0001:00014770       ?InitAdaptiveShiftLevels@TDriver@@QAEXXZ 10015770 f   unitdriver.obj
 0001:000153f0       ?InitBrake@TDriver@@QAEXXZ 100163f0 f   unitdriver.obj
 0001:00015920       ?InitCa@TDriver@@QAEXXZ    10016920 f   unitdriver.obj
 0001:00015d60       ?InitCarModells@TDriver@@QAEXXZ 10016d60 f   unitdriver.obj
 0001:00015fe0       ?InitCw@TDriver@@QAEXXZ    10016fe0 f   unitdriver.obj
 0001:000160d0       ?InitDrive@TDriver@@QAEXXZ 100170d0 f   unitdriver.obj
 0001:00016460       ?InitDriveTrain@TDriver@@QAEXXZ 10017460 f   unitdriver.obj
 0001:00016560       ?InitTireMu@TDriver@@QAEXXZ 10017560 f   unitdriver.obj
 0001:00016880       ?InitTrack@TDriver@@QAEXPAUtTrack@@PAXPAPAXPAUSituation@@@Z 10017880 f   unitdriver.obj
 0001:00019370       ?InitWheelRadius@TDriver@@QAEXXZ 1001a370 f   unitdriver.obj
 0001:00019500       ?InterpolatePointInfo@TDriver@@AAEXAAVTLanePoint@@ABV2@N@Z 1001a500 f   unitdriver.obj
 0001:000196d0       ?IsStuck@TDriver@@QAE_NXZ  1001a6d0 f   unitdriver.obj
 0001:00019ad0       ?LoadBrakeCoeffsFromFile@TDriver@@QAE_NXZ 1001aad0 f   unitdriver.obj
 0001:00019c50       ?NewRace@TDriver@@QAEXPAUCarElt@@PAUSituation@@@Z 1001ac50 f   unitdriver.obj
 0001:00019ef0       ?NextCurvature@TDriver@@AAEXAAUTCollInfo@TCollision@@PAUCarElt@@@Z 1001aef0 f   unitdriver.obj
 0001:00019fe0       ?NextGearRatio@TDriver@@QAENXZ 1001afe0 f   unitdriver.obj
 0001:0001a050       ?OppInFrontBraking@TDriver@@AAE_NXZ 1001b050 f   unitdriver.obj
 0001:0001a1e0       ?OutOfPitlane@TAbstractStrategy@@QAE_NXZ 1001b1e0 f i unitdriver.obj
 0001:0001a250       ?OwnCarOppIndex@TDriver@@QAEXXZ 1001b250 f   unitdriver.obj
 0001:0001a4f0       ?PitCmd@TDriver@@QAEHXZ    1001b4f0 f   unitdriver.obj
 0001:0001a6f0       ?PitDist@TPitLane@@QAENXZ  1001b6f0 f i unitdriver.obj
 0001:0001a730       ?PitSide@TDriver@@QAEHXZ   1001b730 f   unitdriver.obj
 0001:0001a7a0       ?PrevGearRatio@TDriver@@QAENXZ 1001b7a0 f   unitdriver.obj
 0001:0001a810       ?Propagation@TDriver@@QAEXXZ 1001b810 f   unitdriver.obj
 0001:0001a950       ?Runaround@TDriver@@AAEXNN_N@Z 1001b950 f   unitdriver.obj
 0001:0001b4b0       ?SaveBrakeCoeffsToFile@TDriver@@QAE_NXZ 1001c4b0 f   unitdriver.obj
 0001:0001b610       ?SaveToFile@TDriver@@QAE_NXZ 1001c610 f   unitdriver.obj
 0001:0001bab0       ?SetBotName@TDriver@@QAEXPAD@Z 1001cab0 f   unitdriver.obj
 0001:0001bdf0       ?SetPathAndFilenameForRacinglines@TDriver@@QAEXXZ 1001cdf0 f   unitdriver.obj
 0001:0001c190       ?SetupRacingLines@TDriver@@QAEXXZ 1001d190 f   unitdriver.obj
 0001:0001c660       ?Shutdown@TDriver@@QAEXXZ  1001d660 f   unitdriver.obj
 0001:0001c720       ?SpeedController@TDriver@@AAEXXZ 1001d720 f   unitdriver.obj
 0001:0001c930       ?StartAutomatic@TDriver@@QAENXZ 1001d930 f   unitdriver.obj
 0001:0001cae0       ?SteerAngle@TDriver@@QAENAAVTLanePoint@@@Z 1001dae0 f   unitdriver.obj
 0001:0001d010       ?Steering@TDriver@@QAENXZ  1001e010 f   unitdriver.obj
 0001:0001d1b0       ?TargetDist@TDriver@@AAENN@Z 1001e1b0 f   unitdriver.obj
 0001:0001d2d0       ?TargetReached@TDriver@@QAE_NNN@Z 1001e2d0 f   unitdriver.obj
 0001:0001d380       ?TeamInfo@TDriver@@QAEXXZ  1001e380 f   unitdriver.obj
 0001:0001d3f0       ?TestPitStop@TAbstractStrategy@@QAEXXZ 1001e3f0 f i unitdriver.obj
 0001:0001d430       ?Turning@TDriver@@QAEXXZ   1001e430 f   unitdriver.obj
 0001:0001daa0       ?Unstuck@TDriver@@QAEXXZ   1001eaa0 f   unitdriver.obj
 0001:0001df30       ?UnstuckSteerAngle@TDriver@@AAENXZ 1001ef30 f   unitdriver.obj
 0001:0001e220       ?Update@TDriver@@QAEXPAUCarElt@@PAUSituation@@@Z 1001f220 f   unitdriver.obj
 0001:0001eb40       ?UpdateTargetSpeed@TDriver@@AAEXXZ 1001fb40 f   unitdriver.obj
 0001:0001eda0       ?atan2@@YAMMM@Z            1001fda0 f i unitdriver.obj
 0001:0001ee10       ?fabs@@YAMM@Z              1001fe10 f i unitdriver.obj
 0001:0001ee70       ?len@?$v2t@N@@QBENXZ       1001fe70 f i unitdriver.obj
 0001:0001ef00       ?sin@@YAMM@Z               1001ff00 f i unitdriver.obj
 0001:0001ef60       ?strrchr@@YAPADPADH@Z      1001ff60 f i unitdriver.obj
 0001:0001efc0       _atan2f                    1001ffc0 f i unitdriver.obj
 0001:0001f060       _fabsf                     10020060 f i unitdriver.obj
 0001:0001f0e0       _sinf                      100200e0 f i unitdriver.obj
 0001:0001f160       ??0TFixCarParam@@QAE@XZ    10020160 f   unitfixcarparam.obj
 0001:0001f340       ??1TFixCarParam@@QAE@XZ    10020340 f   unitfixcarparam.obj
 0001:0001f380       ?CalcAcceleration@TFixCarParam@@QBENNNNNNNNN@Z 10020380 f   unitfixcarparam.obj
 0001:0001fa80       ?CalcBraking@TFixCarParam@@QAENAAVTCarParam@@NNNNNNNNNNN@Z 10020a80 f   unitfixcarparam.obj
 0001:00020680       ?CalcBrakingPit@TFixCarParam@@QBENAAVTCarParam@@NNNNNNNNN@Z 10021680 f   unitfixcarparam.obj
 0001:00020fe0       ?CalcMaxLateralF@TFixCarParam@@QBENNNN@Z 10021fe0 f   unitfixcarparam.obj
 0001:00021090       ?CalcMaxSpeed@TFixCarParam@@QBENAAVTCarParam@@NNNNNNNN@Z 10022090 f   unitfixcarparam.obj
 0001:000217b0       ?CalcMaxSpeedCrv@TFixCarParam@@QBENXZ 100227b0 f   unitfixcarparam.obj
 0001:00021830       ?EstimateBraking@TFixCarParam@@QAEMNNNNNNNNNNN@Z 10022830 f   unitfixcarparam.obj
 0001:00021f10       ?EstimateSpeed@TFixCarParam@@QAEMNNNNNNN@Z 10022f10 f   unitfixcarparam.obj
 0001:000225a0       ?Initialize@TFixCarParam@@QAEXPAUCarElt@@PAVTDriver@@@Z 100235a0 f   unitfixcarparam.obj
 0001:000225f0       ??$?DN@@YA?AV?$v3t@N@@NABV0@@Z 100235f0 f i unitlane.obj
 0001:00022690       ??0?$v3t@N@@QAE@XZ         10023690 f i unitlane.obj
 0001:000226d0       ??0TLane@@QAE@XZ           100236d0 f   unitlane.obj
 0001:000227f0       ??0TPathPt@TLane@@QAE@XZ   100237f0 f i unitlane.obj
 0001:00022860       ??0TVec2d@@QAE@ABV0@@Z     10023860 f i unitlane.obj
 0001:000228c0       ??0TVec3d@@QAE@XZ          100238c0 f i unitlane.obj
 0001:00022920       ??1TLane@@UAE@XZ           10023920 f   unitlane.obj
 0001:00022a20       ??4TLane@@UAEAAV0@ABV0@@Z  10023a20 f   unitlane.obj
 0001:00022a80       ??4TVec3d@@QAEAAV0@ABV?$v3t@N@@@Z 10023a80 f i unitlane.obj
 0001:00022ae0       ??_ETLane@@UAEPAXI@Z       10023ae0 f i unitlane.obj
 0001:00022ae0       ??_GTLane@@UAEPAXI@Z       10023ae0 f i unitlane.obj
 0001:00022b50       ??_H@YGXPAXIHP6EPAX0@Z@Z   10023b50 f i unitlane.obj
 0001:00022bc0       ?CalcCurvaturesXY@TLane@@QAEXH@Z 10023bc0 f   unitlane.obj
 0001:00022c20       ?CalcCurvaturesXY@TLane@@QAEXHH@Z 10023c20 f   unitlane.obj
 0001:00022de0       ?CalcCurvaturesZ@TLane@@QAEXH@Z 10023de0 f   unitlane.obj
 0001:00022e40       ?CalcCurvaturesZ@TLane@@QAEXHH@Z 10023e40 f   unitlane.obj
 0001:00023030       ?CalcEstimatedLapTime@TLane@@QBENXZ 10024030 f   unitlane.obj
 0001:000231a0       ?CalcEstimatedTime@TLane@@QBENHH@Z 100241a0 f   unitlane.obj
 0001:00023330       ?CalcFwdAbsCrv@TLane@@QAEXHH@Z 10024330 f   unitlane.obj
 0001:000235f0       ?CalcMaxSpeeds@TLane@@QAEXH@Z 100245f0 f   unitlane.obj
 0001:00023660       ?CalcMaxSpeeds@TLane@@QAEXHHH@Z 10024660 f   unitlane.obj
 0001:00023ae0       ?ContainsPos@TLane@@UBE_NN@Z 10024ae0 f   unitlane.obj
 0001:00023b40       ?CosPhi@TVec3d@@QBE?BMPBV1@0@Z 10024b40 f i unitlane.obj
 0001:00023c30       ?CreateParamSeg@TLane@@QAEXH@Z 10024c30 f   unitlane.obj
 0001:00023cc0       ?GetAvoidLaneTarget@TLane@@UBE?AVTVec2d@@NN@Z 10024cc0 f   unitlane.obj
 0001:00023ee0       ?GetLanePoint@TLane@@UBE_NNAAVTLanePoint@@@Z 10024ee0 f   unitlane.obj
 0001:00024890       ?GetLaneTarget@TLane@@UBE?AVTVec2d@@N@Z 10025890 f   unitlane.obj
 0001:000249a0       ?GetParamSeg@TLane@@QAEPAUTParamSeg@1@H@Z 100259a0 f   unitlane.obj
 0001:000249f0       ?Initialise@TLane@@QAEXPAVTTrackDescription@@ABVTFixCarParam@@ABVTCarParam@@NN@Z 100259f0 f   unitlane.obj
 0001:00025b90       ?Len@TVec3d@@QBE?BMXZ      10026b90 f i unitlane.obj
 0001:00025c30       ?Mult@TVec3d@@QBE?BMPBV1@0@Z 10026c30 f i unitlane.obj
 0001:00025cd0       ?PathPoints@TLane@@QBEABUTPathPt@1@H@Z 10026cd0 f   unitlane.obj
 0001:00025d20       ?PropagateAcceleration@TLane@@QAEXH@Z 10026d20 f   unitlane.obj
 0001:00025d90       ?PropagateAcceleration@TLane@@QAEXHHH@Z 10026d90 f   unitlane.obj
 0001:000261b0       ?PropagateBreaking@TLane@@QAEXH@Z 100271b0 f   unitlane.obj
 0001:00026220       ?PropagateBreaking@TLane@@QAEXHHH@Z 10027220 f   unitlane.obj
 0001:00026750       ?PropagatePitBreaking@TLane@@QAEXHHMM@Z 10027750 f   unitlane.obj
 0001:00026e00       ?PropagatePitBreaking@TLane@@QAEXMM@Z 10027e00 f   unitlane.obj
 0001:00026e80       ?ReduceSpeed@TLane@@QAEXNN@Z 10027e80 f   unitlane.obj
 0001:000270c0       ?SetLane@TLane@@QAEXABV1@@Z 100280c0 f   unitlane.obj
 0001:00027370       ?UpdateInfo@TLane@@QAEXHH@Z 10028370 f   unitlane.obj
 0001:00027710       ??0TLanePoint@@QAE@XZ      10028710 f   unitlanepoint.obj
 0001:00027750       ??1TLanePoint@@QAE@XZ      10028750 f   unitlanepoint.obj
 0001:00027790       ?Add@@YA?AUTV2D@@ABU1@0@Z  10028790 f   unitlinalg.obj
 0001:00027870       ?Add@@YA?AUt3Dd@@ABU1@0@Z  10028870 f   unitlinalg.obj
 0001:00027960       ?Assign@@YA?AUTV2D@@ABU1@@Z 10028960 f   unitlinalg.obj
 0001:00027a30       ?Assign@@YA?AUt3Dd@@ABU1@@Z 10028a30 f   unitlinalg.obj
 0001:00027b00       ?CosAlpha@@YAMABUTV2D@@00@Z 10028b00 f   unitlinalg.obj
 0001:00027d40       ?CosAlpha@@YAMABUTV2D@@0@Z 10028d40 f   unitlinalg.obj
 0001:00027e30       ?CrossProd@@YA?AUt3Dd@@ABU1@0@Z 10028e30 f   unitlinalg.obj
 0001:00027f60       ?Dir@@YAMABUTV2D@@0@Z      10028f60 f   unitlinalg.obj
 0001:00028000       ?Dist@@YAMABUTV2D@@0@Z     10029000 f   unitlinalg.obj
 0001:000280e0       ?Dist@@YAMABUt3Dd@@0@Z     100290e0 f   unitlinalg.obj
 0001:00028220       ?Dist@@YAMABUt3Dd@@ABUTV2D@@@Z 10029220 f   unitlinalg.obj
 0001:00028300       ?Dist@@YAMABVTVec3d@@0@Z   10029300 f   unitlinalg.obj
 0001:000283e0       ?Divide@@YA?AUTV2D@@ABU1@ABM@Z 100293e0 f   unitlinalg.obj
 0001:000284c0       ?Divide@@YA?AUt3Dd@@ABU1@ABM@Z 100294c0 f   unitlinalg.obj
 0001:000285b0       ?Len@@YAMABUTV2D@@@Z       100295b0 f   unitlinalg.obj
 0001:00028640       ?Len@@YAMABUt3Dd@@@Z       10029640 f   unitlinalg.obj
 0001:000286e0       ?Length2D@@YANABVTVec3d@@@Z 100296e0 f   unitlinalg.obj
 0001:00028750       ?Mult@@YA?AUTV2D@@AAMABU1@@Z 10029750 f   unitlinalg.obj
 0001:00028830       ?Mult@@YA?AUt3Dd@@AAMABU1@@Z 10029830 f   unitlinalg.obj
 0001:00028920       ?Mult@@YAMABUTV2D@@0@Z     10029920 f   unitlinalg.obj
 0001:000289a0       ?Mult@@YAMABUt3Dd@@0@Z     100299a0 f   unitlinalg.obj
 0001:00028a30       ?Neg@@YA?AUTV2D@@ABU1@@Z   10029a30 f   unitlinalg.obj
 0001:00028b10       ?Neg@@YA?AUt3Dd@@ABU1@@Z   10029b10 f   unitlinalg.obj
 0001:00028c00       ?Normalize@@YA?AUTV2D@@ABU1@@Z 10029c00 f   unitlinalg.obj
 0001:00028d00       ?Normalize@@YA?AUt3Dd@@ABU1@@Z 10029d00 f   unitlinalg.obj
 0001:00028e10       ?Rot@@YA?AUTV2D@@ABU1@0AAM@Z 10029e10 f   unitlinalg.obj
 0001:00029030       ?RotZ@@YA?AUt3Dd@@ABU1@0AAM1@Z 1002a030 f   unitlinalg.obj
 0001:00029230       ?Sign@@YAHAAH@Z            1002a230 f   unitlinalg.obj
 0001:00029280       ?Sign@@YAMAAM@Z            1002a280 f   unitlinalg.obj
 0001:000292e0       ?Sqr@@YAMN@Z               1002a2e0 f   unitlinalg.obj
 0001:00029340       ?Sub@@YA?AUTV2D@@ABU1@0@Z  1002a340 f   unitlinalg.obj
 0001:00029420       ?Sub@@YA?AUt3Dd@@ABU1@0@Z  1002a420 f   unitlinalg.obj
 0001:00029510       ?cos@@YAMM@Z               1002a510 f i unitlinalg.obj
 0001:00029570       ?sqrt@@YAMM@Z              1002a570 f i unitlinalg.obj
 0001:000295d0       _cosf                      1002a5d0 f i unitlinalg.obj
 0001:00029650       _sqrtf                     1002a650 f i unitlinalg.obj
 0001:000296d0       ??0TLinearRegression@@QAE@XZ 1002a6d0 f   unitlinreg.obj
 0001:00029730       ??1TLinearRegression@@QAE@XZ 1002a730 f   unitlinreg.obj
 0001:00029770       ?Add@TLinearRegression@@QAEXABVTVec2d@@@Z 1002a770 f   unitlinreg.obj
 0001:000297f0       ?Add@TLinearRegression@@QAEXNN@Z 1002a7f0 f   unitlinreg.obj
 0001:000298d0       ?CalcLine@TLinearRegression@@QBEXAAVTVec2d@@0@Z 1002a8d0 f   unitlinreg.obj
 0001:00029b30       ?CalcY@TLinearRegression@@QBENN@Z 1002ab30 f   unitlinreg.obj
 0001:00029c70       ?Clear@TLinearRegression@@QAEXXZ 1002ac70 f   unitlinreg.obj
 0001:00029d20       ??_GTDriver@@QAEPAXI@Z     1002ad20 f i unitmain.obj
 0001:00029fc0       ?GetBotName@@YAPADH@Z      1002afc0 f   unitmain.obj
 0001:0002a350       ?Prepare@@YA_NXZ           1002b350 f   unitmain.obj
 0001:0002a610       ?RtDuration@@YANN@Z        1002b610 f   unitmain.obj
 0001:0002a680       ?RtInitTimer@@YAXXZ        1002b680 f   unitmain.obj
 0001:0002a890       ?RtTimeStamp@@YANXZ        1002b890 f   unitmain.obj
 0001:0002a9e0       ?RtTimerFrequency@@YANXZ   1002b9e0 f   unitmain.obj
 0001:0002aa40       ?SetCommonData@TDriver@@QAEXPAVTCommonData@@@Z 1002ba40 f i unitmain.obj
 0001:0002ac50       _blacky_2012               1002bc50 f   unitmain.obj
 0001:0002ace0       _boxer_2012                1002bce0 f   unitmain.obj
 0001:0002ad70       _cavallo_2012              1002bd70 f   unitmain.obj
 0001:0002ae00       _hunter_2012               1002be00 f   unitmain.obj
 0001:0002ae90       _jumper_2012               1002be90 f   unitmain.obj
 0001:0002af20       _ring_2012                 1002bf20 f   unitmain.obj
 0001:0002afb0       _trotter_2012              1002bfb0 f   unitmain.obj
 0001:0002b040       _wdbee                     1002c040 f   unitmain.obj
 0001:0002b150       _wdbee_2012                1002c150 f   unitmain.obj
 0001:0002b1e0       ??0TInfo@TOpponent@@QAE@XZ 1002c1e0 f i unitopponent.obj
 0001:0002b240       ??0TOpponent@@QAE@XZ       1002c240 f   unitopponent.obj
 0001:0002b2a0       ??1TOpponent@@QAE@XZ       1002c2a0 f   unitopponent.obj
 0001:0002b2e0       ?Car@TOpponent@@QAEPAUCarElt@@XZ 1002c2e0 f   unitopponent.obj
 0001:0002b320       ?Classify@TOpponent@@QAE_NQAUCarElt@@ABUTState@1@_NN@Z 1002c320 f   unitopponent.obj
 0001:0002cb00       ?Clear@TInfo@TOpponent@@QAEXXZ 1002db00 f i unitopponent.obj
 0001:0002cb60       ?Info@TOpponent@@QAEAAUTInfo@1@XZ 1002db60 f   unitopponent.obj
 0001:0002cba0       ?Info@TOpponent@@QBEABUTInfo@1@XZ 1002dba0 f   unitopponent.obj
 0001:0002cbe0       ?Initialise@TOpponent@@QAEXPAVTTrackDescription@@QAUSituation@@H@Z 1002dbe0 f   unitopponent.obj
 0001:0002cc90       ?Update@TOpponent@@QAEXQAUCarElt@@PAVTTeamManager@@NN@Z 1002dc90 f   unitopponent.obj
 0001:0002d8b0       ??0TParabel@@QAE@NNN@Z     1002e8b0 f   unitparabel.obj
 0001:0002d920       ??0TParabel@@QAE@NNNN@Z    1002e920 f   unitparabel.obj
 0001:0002d9c0       ??0TParabel@@QAE@XZ        1002e9c0 f   unitparabel.obj
 0001:0002da40       ??1TParabel@@QAE@XZ        1002ea40 f   unitparabel.obj
 0001:0002da80       ??GTParabel@@QBE?AV0@ABV0@@Z 1002ea80 f   unitparabel.obj
 0001:0002db50       ??HTParabel@@QBE?AV0@ABV0@@Z 1002eb50 f   unitparabel.obj
 0001:0002dc20       ?CalcMin@TParabel@@QBENXZ  1002ec20 f   unitparabel.obj
 0001:0002dc90       ?CalcY@TParabel@@QBENN@Z   1002ec90 f   unitparabel.obj
 0001:0002dd10       ?Set@TParabel@@QAEXNNN@Z   1002ed10 f   unitparabel.obj
 0001:0002dd80       ?Set@TParabel@@QAEXNNNN@Z  1002ed80 f   unitparabel.obj
 0001:0002de40       ?SmallestNonNegativeRoot@TParabel@@QBE_NAAN@Z 1002ee40 f   unitparabel.obj
 0001:0002df80       ?Solve@TParabel@@QBE_NNAAN0@Z 1002ef80 f   unitparabel.obj
 0001:0002e140       ??0TParam@@QAE@XZ          1002f140 f   unitparam.obj
 0001:0002e260       ??1TParam@@QAE@XZ          1002f260 f   unitparam.obj
 0001:0002e360       ?Initialize@TParam@@QAEXPAUCarElt@@PAVTDriver@@@Z 1002f360 f   unitparam.obj
 0001:0002e3f0       ?SetEmptyMass@TParam@@QAEXM@Z 1002f3f0 f   unitparam.obj
 0001:0002e450       ?Update@TParam@@QAEXXZ     1002f450 f   unitparam.obj
 0001:0002e4b0       ??0TPidController@@QAE@XZ  1002f4b0 f   unitpidctrl.obj
 0001:0002e580       ??1TPidController@@UAE@XZ  1002f580 f   unitpidctrl.obj
 0001:0002e5c0       ??_GTPidController@@UAEPAXI@Z 1002f5c0 f i unitpidctrl.obj
 0001:0002e5c0       ??_ETPidController@@UAEPAXI@Z 1002f5c0 f i unitpidctrl.obj
 0001:0002e630       ?Sample@TPidController@@QAENN@Z 1002f630 f   unitpidctrl.obj
 0001:0002e6b0       ?Sample@TPidController@@QAENNN@Z 1002f6b0 f   unitpidctrl.obj
 0001:0002e860       ??0TCarParam@@QAE@ABV0@@Z  1002f860 f i unitpit.obj
 0001:0002e950       ??0TPit@@QAE@PAVTDriver@@@Z 1002f950 f   unitpit.obj
 0001:0002eb70       ??0TPitLane@@QAE@XZ        1002fb70 f i unitpit.obj
 0001:0002ebd0       ??1TPit@@QAE@XZ            1002fbd0 f   unitpit.obj
 0001:0002ec40       ??1TPitLane@@UAE@XZ        1002fc40 f i unitpit.obj
 0001:0002ec90       ??_GTPitLane@@UAEPAXI@Z    1002fc90 f i unitpit.obj
 0001:0002ec90       ??_ETPitLane@@UAEPAXI@Z    1002fc90 f i unitpit.obj
 0001:0002ed00       ?CanStop@TPitLane@@QBE_NN@Z 1002fd00 f   unitpit.obj
 0001:0002edd0       ?Car@TDriver@@QAEPAUCarElt@@XZ 1002fdd0 f i unitpit.obj
 0001:0002ee10       ?DistToPitEntry@TPitLane@@QBENN@Z 1002fe10 f   unitpit.obj
 0001:0002eec0       ?DistToPitStop@TPitLane@@QBENN_N@Z 1002fec0 f   unitpit.obj
 0001:0002f0c0       ?GetInPit@TPit@@QAE_NXZ    100300c0 f i unitpit.obj
 0001:0002f100       ?GetPitOffset@TPit@@QAEMMM@Z 10030100 f   unitpit.obj
 0001:0002f1c0       ?GetPitstop@TPit@@QAE_NXZ  100301c0 f i unitpit.obj
 0001:0002f200       ?GetSpeedLimitBrake@TPit@@QAEMM@Z 10030200 f   unitpit.obj
 0001:0002f280       ?InPitSection@TPitLane@@QBE_NN@Z 10030280 f   unitpit.obj
 0001:0002f360       ?Init@TPitLane@@QAEXPAUCarElt@@@Z 10030360 f   unitpit.obj
 0001:0002f3c0       ?IsBetween@TPit@@QAE_NM@Z  100303c0 f   unitpit.obj
 0001:0002f4e0       ?IsTimeout@TPit@@QAE_NM@Z  100304e0 f   unitpit.obj
 0001:0002f5f0       ?MakePath@TPitLane@@QAEXPADPAVTClothoidLane@@ABVTParam@@H@Z 100305f0 f   unitpit.obj
 0001:000310a0       ?Overrun@TPitLane@@QBE_NN@Z 100320a0 f   unitpit.obj
 0001:00031180       ?SetInPit@TPit@@QAEX_N@Z   10032180 f i unitpit.obj
 0001:000311d0       ?SetPitstop@TPit@@QAEX_N@Z 100321d0 f   unitpit.obj
 0001:000312c0       ?SmoothPitPath@TPitLane@@QAEXXZ 100322c0 f   unitpit.obj
 0001:00031470       ?ToSplineCoord@TPit@@QAEMM@Z 10032470 f   unitpit.obj
 0001:00031500       ?ToSplinePos@TPitLane@@ABENN@Z 10032500 f   unitpit.obj
 0001:00031590       ?Track@TDriver@@QAEPAUtTrack@@XZ 10032590 f i unitpit.obj
 0001:000315d0       ?Update@TPit@@QAEXXZ       100325d0 f   unitpit.obj
 0001:000316b0       ??0TPitParam@@QAE@XZ       100326b0 f   unitpitparam.obj
 0001:000317a0       ??1TPitParam@@QAE@XZ       100327a0 f   unitpitparam.obj
 0001:000317e0       ??0TSection@@QAE@XZ        100327e0 f   unitsection.obj
 0001:00031850       ??1TSection@@QAE@XZ        10032850 f   unitsection.obj
 0001:00031890       ??0TAbstractStrategy@@QAE@XZ 10032890 f i unitstrategy.obj
 0001:00031910       ??0TSimpleStrategy@@QAE@XZ 10032910 f   unitstrategy.obj
 0001:00031a40       ??1TAbstractStrategy@@UAE@XZ 10032a40 f i unitstrategy.obj
 0001:00031a80       ??1TSimpleStrategy@@UAE@XZ 10032a80 f   unitstrategy.obj
 0001:00031b80       ??_GTAbstractStrategy@@UAEPAXI@Z 10032b80 f i unitstrategy.obj
 0001:00031b80       ??_ETAbstractStrategy@@UAEPAXI@Z 10032b80 f i unitstrategy.obj
 0001:00031bf0       ??_GTPit@@QAEPAXI@Z        10032bf0 f i unitstrategy.obj
 0001:00031c60       ??_GTSimpleStrategy@@UAEPAXI@Z 10032c60 f i unitstrategy.obj
 0001:00031c60       ??_ETSimpleStrategy@@UAEPAXI@Z 10032c60 f i unitstrategy.obj
 0001:00031cd0       ?CheckPitState@TSimpleStrategy@@UAEXM@Z 10032cd0 f   unitstrategy.obj
 0001:000321d0       ?GetMinLaps@TDriver@@QAEHXZ 100331d0 f i unitstrategy.obj
 0001:00032210       ?GetMinLaps@TTeam@TTeamManager@@QAEHPAUCarElt@@@Z 10033210 f i unitstrategy.obj
 0001:000322d0       ?GetTeam@TDriver@@QAEPAVTTeam@TTeamManager@@XZ 100332d0 f i unitstrategy.obj
 0001:00032310       ?GoToPit@TSimpleStrategy@@UAE_NXZ 10033310 f   unitstrategy.obj
 0001:00032380       ?Init@TSimpleStrategy@@QAEXPAVTDriver@@@Z 10033380 f   unitstrategy.obj
 0001:00032490       ?IsPitFree@TSimpleStrategy@@UAE_NXZ 10033490 f   unitstrategy.obj
 0001:000325c0       ?NeedPitStop@TSimpleStrategy@@UAE_NXZ 100335c0 f   unitstrategy.obj
 0001:00032ac0       ?PitRefuel@TSimpleStrategy@@UAEMXZ 10033ac0 f   unitstrategy.obj
 0001:00032d30       ?PitRelease@TAbstractStrategy@@QAEXXZ 10033d30 f   unitstrategy.obj
 0001:00032dc0       ?PitRepair@TSimpleStrategy@@UAEHXZ 10033dc0 f   unitstrategy.obj
 0001:00032e40       ?RepairWanted@TSimpleStrategy@@UAEHH@Z 10033e40 f   unitstrategy.obj
 0001:000330d0       ?SetFuelAtRaceStart@TSimpleStrategy@@UAENPAUtTrack@@PAPAXPAUSituation@@M@Z 100340d0 f   unitstrategy.obj
 0001:00033510       ?StartPitEntry@TSimpleStrategy@@UAE_NAAM@Z 10034510 f   unitstrategy.obj
 0001:00033740       ?StopPitEntry@TSimpleStrategy@@UAE_NM@Z 10034740 f   unitstrategy.obj
 0001:00033840       ?Update@TSimpleStrategy@@UAEXPAUCarElt@@@Z 10034840 f   unitstrategy.obj
 0001:00033ae0       ??0TSysFoo@@QAE@II@Z       10034ae0 f   unitsysfoo.obj
 0001:00033c70       ?Faltung@TSysFoo@@QAEMM@Z  10034c70 f   unitsysfoo.obj
 0001:00033d80       ?Get@TSysFoo@@AAEMH@Z      10034d80 f   unitsysfoo.obj
 0001:00033dd0       ?Normalize@TSysFoo@@QAEXXZ 10034dd0 f   unitsysfoo.obj
 0001:00033ed0       ?Put@TSysFoo@@AAEXHM@Z     10034ed0 f   unitsysfoo.obj
 0001:00033f50       ?Reset@TSysFoo@@QAEXXZ     10034f50 f   unitsysfoo.obj
 0001:00033fd0       ??0TTeam@TTeamManager@@QAE@XZ 10034fd0 f i unitteammanager.obj
 0001:00034080       ??0TTeamManager@@QAE@XZ    10035080 f   unitteammanager.obj
 0001:000340d0       ??1TTeamManager@@QAE@XZ    100350d0 f   unitteammanager.obj
 0001:00034120       ?Add@TTeamManager@@QAEPAVTTeam@1@PAUCarElt@@@Z 10035120 f   unitteammanager.obj
 0001:00034490       ?Clear@TTeamManager@@QAEXXZ 10035490 f   unitteammanager.obj
 0001:000345b0       ?IsTeamMate@TTeamManager@@QBE_NPBUCarElt@@0@Z 100355b0 f   unitteammanager.obj
 0001:00034640       ?Team@TTeamManager@@QAEPAVTTeam@1@H@Z 10035640 f   unitteammanager.obj
 0001:00034690       ??0TTmpCarParam@@QAE@XZ    10035690 f   unittmpcarparam.obj
 0001:00034720       ??1TTmpCarParam@@QAE@XZ    10035720 f   unittmpcarparam.obj
 0001:00034760       ?Initialize@TTmpCarParam@@QAEXPAUCarElt@@@Z 10035760 f   unittmpcarparam.obj
 0001:000347b0       ?Needed@TTmpCarParam@@QAE_NXZ 100357b0 f   unittmpcarparam.obj
 0001:000348b0       ?Update@TTmpCarParam@@QAEXXZ 100358b0 f   unittmpcarparam.obj
 0001:00034990       ?floor@@YAMM@Z             10035990 f i unittmpcarparam.obj
 0001:000349f0       _floorf                    100359f0 f i unittmpcarparam.obj
 0001:00034a70       ??0TTrackDescription@@QAE@XZ 10035a70 f   unittrack.obj
 0001:00034b10       ??0TVec3d@@QAE@ABUt3Dd@@@Z 10035b10 f i unittrack.obj
 0001:00034ba0       ??1TTrackDescription@@QAE@XZ 10035ba0 f   unittrack.obj
 0001:00034c40       ??ATTrackDescription@@QBEABVTSection@@H@Z 10035c40 f   unittrack.obj
 0001:00034c90       ??G?$v3t@N@@QBE?AV0@XZ     10035c90 f i unittrack.obj
 0001:00034d40       ??K?$v3t@N@@QBE?AV0@N@Z    10035d40 f i unittrack.obj
 0001:00034df0       ??_ETSection@@QAEPAXI@Z    10035df0 f i unittrack.obj
 0001:00034eb0       ?BuildPos2SecIndex@TTrackDescription@@AAEXXZ 10035eb0 f   unittrack.obj
 0001:00035020       ?CalcPos@TTrackDescription@@QBENAAUtTrkLocPos@@N@Z 10036020 f   unittrack.obj
 0001:000350c0       ?CalcPos@TTrackDescription@@QBENMMPBVTSection@@_N@Z 100360c0 f   unittrack.obj
 0001:000351b0       ?CalcPos@TTrackDescription@@QBENPAUCarElt@@N@Z 100361b0 f   unittrack.obj
 0001:00035250       ?Count@TTrackDescription@@QBEHXZ 10036250 f   unittrack.obj
 0001:00035290       ?Execute@TTrackDescription@@QAEXXZ 10036290 f   unittrack.obj
 0001:00035980       ?ForwardAngle@TTrackDescription@@QBENN@Z 10036980 f   unittrack.obj
 0001:00035b10       ?Friction@TTrackDescription@@QBENH@Z 10036b10 f   unittrack.obj
 0001:00035b60       ?IndexFromPos@TTrackDescription@@QBEHN@Z 10036b60 f   unittrack.obj
 0001:00035cf0       ?InitTrack@TTrackDescription@@QAEXPAUtTrack@@AAVTCarParam@@MPAUPitSideMod@1@@Z 10036cf0 f   unittrack.obj
 0001:00037270       ?LearnFriction@TTrackDescription@@QBENHNN@Z 10038270 f   unittrack.obj
 0001:000373a0       ?Length@TTrackDescription@@QBENXZ 100383a0 f   unittrack.obj
 0001:000373e0       ?MeanSectionLen@TTrackDescription@@QBENXZ 100383e0 f   unittrack.obj
 0001:00037420       ?NbrOfSections@TTrackDescription@@AAEHN_N@Z 10038420 f   unittrack.obj
 0001:000374d0       ?Normale@TTrackDescription@@QBE?AVTVec2d@@N@Z 100384d0 f   unittrack.obj
 0001:00037620       ?NormalizeDir@TTrackDescription@@ABEXPBUtrackSeg@@NAANAAVTVec3d@@2@Z 10038620 f   unittrack.obj
 0001:00037b80       ?NormalizePos@TTrackDescription@@QBENN@Z 10038b80 f   unittrack.obj
 0001:00037c30       ?Section@TTrackDescription@@QBEABVTSection@@H@Z 10038c30 f   unittrack.obj
 0001:00037c80       ?SmoothSides@TTrackDescription@@QAEXN@Z 10038c80 f   unittrack.obj
 0001:00038020       ?Track@TTrackDescription@@QAEPAUtTrack@@XZ 10039020 f   unittrack.obj
 0001:00038060       ?Track@TTrackDescription@@QBEPBUtTrack@@XZ 10039060 f   unittrack.obj
 0001:000380a0       ?Width@TTrackDescription@@QBENXZ 100390a0 f   unittrack.obj
 0001:000380e0       ?GfParmGetNum@@YAMPAXPBD11M@Z 100390e0 f   tgf:tgf.dll
 0001:000380e6       ?GfParmReadFile@@YAPAXPBDH@Z 100390e6 f   tgf:tgf.dll
 0001:000380ec       ?GfParmMergeHandles@@YAPAXPAX0H@Z 100390ec f   tgf:tgf.dll
 0001:000380f2       ?_tgf_win_malloc@@YAPAXI@Z 100390f2 f   tgf:tgf.dll
 0001:000380f8       ?_tgf_win_free@@YAXPAX@Z   100390f8 f   tgf:tgf.dll
 0001:000380fe       ?_tgf_win_strdup@@YAPADPBD@Z 100390fe f   tgf:tgf.dll
 0001:00038104       ?GfParmGetStr@@YAPBDPAXPBD11@Z 10039104 f   tgf:tgf.dll
 0001:0003810a       ?GfParmGetEltNb@@YAHPAXPBD@Z 1003910a f   tgf:tgf.dll
 0001:00038110       ?GetLocalDir@@YAPADXZ      10039110 f   tgf:tgf.dll
 0001:00038116       ?GfCreateDir@@YAHPAD@Z     10039116 f   tgf:tgf.dll
 0001:0003811c       ?GfParmSetNum@@YAHPAXPBD11M@Z 1003911c f   tgf:tgf.dll
 0001:00038122       ?RtTrackGlobal2Local@@YAXPAUtrackSeg@@MMPAUtTrkLocPos@@H@Z 10039122 f   robottools:robottools.dll
 0001:00038128       ?RtTrackHeightL@@YAMPAUtTrkLocPos@@@Z 10039128 f   robottools:robottools.dll
 0001:0003812e       ?RtTrackSideTgAngleL@@YAMPAUtTrkLocPos@@@Z 1003912e f   robottools:robottools.dll
 0001:00038134       ?RtGetDistFromStart@@YAMPAUCarElt@@@Z 10039134 f   robottools:robottools.dll
 0001:0003813a       ?RtDistToPit@@YAHPAUCarElt@@PAUtTrack@@PAM2@Z 1003913a f   robottools:robottools.dll
 0001:00038140       ?RtGetDistFromStart2@@YAMPAUtTrkLocPos@@@Z 10039140 f   robottools:robottools.dll
 0001:00038150       ?sgdSqrt@@YANN@Z           10039150 f i sg_vs2008_32:sgd.obj
 0001:00038160       ?sgdSquare@@YANN@Z         10039160 f i sg_vs2008_32:sgd.obj
 0001:00038170       ?sgdAbs@@YANN@Z            10039170 f i sg_vs2008_32:sgd.obj
 0001:00038190       ?sgdASin@@YANN@Z           10039190 f i sg_vs2008_32:sgd.obj
 0001:000381a0       ?sgdACos@@YANN@Z           100391a0 f i sg_vs2008_32:sgd.obj
 0001:000381b0       ?sgdATan2@@YANNN@Z         100391b0 f i sg_vs2008_32:sgd.obj
 0001:000381d0       ?sgdSin@@YANN@Z            100391d0 f i sg_vs2008_32:sgd.obj
 0001:000381e0       ?sgdCos@@YANN@Z            100391e0 f i sg_vs2008_32:sgd.obj
 0001:000381f0       ?sgdZeroVec3@@YAXQAN@Z     100391f0 f i sg_vs2008_32:sgd.obj
 0001:00038200       ?sgdSetVec3@@YAXQANNNN@Z   10039200 f i sg_vs2008_32:sgd.obj
 0001:00038220       ?sgdSetVec4@@YAXQANNNNN@Z  10039220 f i sg_vs2008_32:sgd.obj
 0001:00038240       ?sgdCopyVec3@@YAXQANQBN@Z  10039240 f i sg_vs2008_32:sgd.obj
 0001:00038260       ?sgdCopyVec4@@YAXQANQBN@Z  10039260 f i sg_vs2008_32:sgd.obj
 0001:00038280       ?sgdAddVec3@@YAXQANQBN1@Z  10039280 f i sg_vs2008_32:sgd.obj
 0001:000382b0       ?sgdSubVec2@@YAXQANQBN1@Z  100392b0 f i sg_vs2008_32:sgd.obj
 0001:000382d0       ?sgdSubVec3@@YAXQANQBN1@Z  100392d0 f i sg_vs2008_32:sgd.obj
 0001:00038300       ?sgdNegateVec3@@YAXQAN@Z   10039300 f i sg_vs2008_32:sgd.obj
 0001:00038320       ?sgdScaleVec2@@YAXQANN@Z   10039320 f i sg_vs2008_32:sgd.obj
 0001:00038340       ?sgdScaleVec3@@YAXQANN@Z   10039340 f i sg_vs2008_32:sgd.obj
 0001:00038360       ?sgdScaleVec3@@YAXQANQBNN@Z 10039360 f i sg_vs2008_32:sgd.obj
 0001:00038390       ?sgdScaleVec4@@YAXQANQBNN@Z 10039390 f i sg_vs2008_32:sgd.obj
 0001:000383c0       ?sgdAddScaledVec3@@YAXQANQBN1N@Z 100393c0 f i sg_vs2008_32:sgd.obj
 0001:000383f0       ?sgdScalarProductVec2@@YANQBN0@Z 100393f0 f i sg_vs2008_32:sgd.obj
 0001:00038410       ?sgdScalarProductVec3@@YANQBN0@Z 10039410 f i sg_vs2008_32:sgd.obj
 0001:00038430       ?sgdScalarProductVec4@@YANQBN0@Z 10039430 f i sg_vs2008_32:sgd.obj
 0001:00038460       ?sgdDistanceSquaredVec3@@YANQBN0@Z 10039460 f i sg_vs2008_32:sgd.obj
 0001:00038490       ?sgdDistanceVec3@@YANQBN0@Z 10039490 f i sg_vs2008_32:sgd.obj
 0001:000384c0       ?sgdLengthVec2@@YANQBN@Z   100394c0 f i sg_vs2008_32:sgd.obj
 0001:000384e0       ?sgdLengthVec3@@YANQBN@Z   100394e0 f i sg_vs2008_32:sgd.obj
 0001:00038510       ?sgdNormaliseVec2@@YAXQAN@Z 10039510 f i sg_vs2008_32:sgd.obj
 0001:00038540       ?sgdNormaliseVec3@@YAXQAN@Z 10039540 f i sg_vs2008_32:sgd.obj
 0001:00038580       ?sgdNormaliseVec3@@YAXQANQBN@Z 10039580 f i sg_vs2008_32:sgd.obj
 0001:000385c0       ?sgdCopyMat4@@YAXQAY03NQAY03$$CBN@Z 100395c0 f i sg_vs2008_32:sgd.obj
 0001:00038630       ?sgdScaleMat4@@YAXQAY03NQAY03$$CBNN@Z 10039630 f i sg_vs2008_32:sgd.obj
 0001:000386c0       ?sgdMakeIdentMat4@@YAXQAY03N@Z 100396c0 f i sg_vs2008_32:sgd.obj
 0001:00038700       ?sgdLineSegment3ToLine3@@YAXPAUsgdLine3@@UsgdLineSegment3@@@Z 10039700 f i sg_vs2008_32:sgd.obj
 0001:00038770       ?sgdAngleBetweenNormalizedVec3@@YANQAN0@Z 10039770 f i sg_vs2008_32:sgd.obj
 0001:000387e0       ?getCenter@sgdSphere@@QBEPBNXZ 100397e0 f i sg_vs2008_32:sgd.obj
 0001:000387f0       ?getRadius@sgdSphere@@QBENXZ 100397f0 f i sg_vs2008_32:sgd.obj
 0001:00038800       ?isEmpty@sgdSphere@@QBEHXZ 10039800 f i sg_vs2008_32:sgd.obj
 0001:00038820       ?getMin@sgdBox@@QBEPBNXZ   10039820 f i sg_vs2008_32:sgd.obj
 0001:00038830       ?getMax@sgdBox@@QBEPBNXZ   10039830 f i sg_vs2008_32:sgd.obj
 0001:00038840       ?isEmpty@sgdBox@@QBEHXZ    10039840 f i sg_vs2008_32:sgd.obj
 0001:00038870       ?sgdVectorProductVec3@@YAXQANQBN1@Z 10039870 f   sg_vs2008_32:sgd.obj
 0001:000388b0       ?_sgdClampToUnity@@YANN@Z  100398b0 f i sg_vs2008_32:sgd.obj
 0001:000388e0       ?sgdCompare3DSqdDist@@YAHQBN0N@Z 100398e0 f   sg_vs2008_32:sgd.obj
 0001:00038940       ?sgdMakeRotMat4@@YAXQAY03NNQBN@Z 10039940 f   sg_vs2008_32:sgd.obj
 0001:00038a70       ?sgdMakePickMatrix@@YAXQAY03NNNNNQAN@Z 10039a70 f   sg_vs2008_32:sgd.obj
 0001:00038af0       ?sgdMakeLookAtMat4@@YAXQAY03NQBN11@Z 10039af0 f   sg_vs2008_32:sgd.obj
 0001:00038c70       ?sgdAngleBetweenVec3@@YANQAN0@Z 10039c70 f   sg_vs2008_32:sgd.obj
 0001:00038d10       ?sgdAngleBetweenNormalizedVec3@@YANQAN00@Z 10039d10 f   sg_vs2008_32:sgd.obj
 0001:00038ea0       ?sgdAngleBetweenVec3@@YANQAN00@Z 10039ea0 f   sg_vs2008_32:sgd.obj
 0001:00038f40       ?extend@sgdBox@@QAEXQBN@Z  10039f40 f   sg_vs2008_32:sgd.obj
 0001:00039010       ?extend@sgdBox@@QAEXPBV1@@Z 1003a010 f   sg_vs2008_32:sgd.obj
 0001:000390a0       ?extend@sgdBox@@QAEXPBVsgdSphere@@@Z 1003a0a0 f   sg_vs2008_32:sgd.obj
 0001:00039110       ?intersects@sgdBox@@QBEHQBN@Z 1003a110 f   sg_vs2008_32:sgd.obj
 0001:00039250       ?extend@sgdSphere@@QAEXQBN@Z 1003a250 f   sg_vs2008_32:sgd.obj
 0001:00039300       ?extend@sgdSphere@@QAEXPBVsgdBox@@@Z 1003a300 f   sg_vs2008_32:sgd.obj
 0001:00039490       ?extend@sgdSphere@@QAEXPBV1@@Z 1003a490 f   sg_vs2008_32:sgd.obj
 0001:00039560       ?intersects@sgdSphere@@QBEHPBVsgdBox@@@Z 1003a560 f   sg_vs2008_32:sgd.obj
 0001:00039610       ?update@sgdFrustum@@AAEXXZ 1003a610 f   sg_vs2008_32:sgd.obj
 0001:00039a10       ?contains@sgdFrustum@@QBEHPBVsgdSphere@@@Z 1003aa10 f   sg_vs2008_32:sgd.obj
 0001:00039b80       ?sgdDistSquaredToLineVec3@@YANUsgdLine3@@QBN@Z 1003ab80 f   sg_vs2008_32:sgd.obj
 0001:00039bc0       ?sgdDistSquaredToLineSegmentVec3@@YANUsgdLineSegment3@@QBN@Z 1003abc0 f   sg_vs2008_32:sgd.obj
 0001:00039cd0       ?sgdMakeCoordMat4@@YAXQAY03NNNNNNN@Z 1003acd0 f   sg_vs2008_32:sgd.obj
 0001:00039e90       ?sgdMakeTransMat4@@YAXQAY03NQBN@Z 1003ae90 f   sg_vs2008_32:sgd.obj
 0001:00039ee0       ?sgdMakeTransMat4@@YAXQAY03NNNN@Z 1003aee0 f   sg_vs2008_32:sgd.obj
 0001:00039f30       ?sgdSetCoord@@YAXPAUsgdCoord@@QAY03$$CBN@Z 1003af30 f   sg_vs2008_32:sgd.obj
 0001:0003a230       ?sgdMakeNormal@@YAXQANQBN1@Z 1003b230 f   sg_vs2008_32:sgd.obj
 0001:0003a280       ?sgdMakeNormal@@YAXQANQBN11@Z 1003b280 f   sg_vs2008_32:sgd.obj
 0001:0003a320       ?sgdMultMat4@@YAXQAY03NQAY03$$CBN1@Z 1003b320 f   sg_vs2008_32:sgd.obj
 0001:0003a3d0       ?sgdTransposeNegateMat4@@YAXQAY03NQAY03$$CBN@Z 1003b3d0 f   sg_vs2008_32:sgd.obj
 0001:0003a470       ?sgdTransposeNegateMat4@@YAXQAY03N@Z 1003b470 f   sg_vs2008_32:sgd.obj
 0001:0003a4a0       ?sgdInvertMat4@@YAXQAY03NQAY03$$CBN@Z 1003b4a0 f   sg_vs2008_32:sgd.obj
 0001:0003a6c0       ?sgdXformVec3@@YAXQANQBNQAY03$$CBN@Z 1003b6c0 f   sg_vs2008_32:sgd.obj
 0001:0003a720       ?sgdXformPnt3@@YAXQANQBNQAY03$$CBN@Z 1003b720 f   sg_vs2008_32:sgd.obj
 0001:0003a780       ?sgdXformPnt4@@YAXQANQBNQAY03$$CBN@Z 1003b780 f   sg_vs2008_32:sgd.obj
 0001:0003a810       ?sgdFullXformPnt3@@YAXQANQBNQAY03$$CBN@Z 1003b810 f   sg_vs2008_32:sgd.obj
 0001:0003a870       ?sgdHPRfromVec3@@YAXQAN0@Z 1003b870 f   sg_vs2008_32:sgd.obj
 0001:0003a910       ?sgdQuatToAngleAxis@@YAXPANQANQBN@Z 1003b910 f   sg_vs2008_32:sgd.obj
 0001:0003a990       ?sgdAngleAxisToQuat@@YAXQANNQBN@Z 1003b990 f   sg_vs2008_32:sgd.obj
 0001:0003aa30       ?sgdMatrixToQuat@@YAXQANQAY03$$CBN@Z 1003ba30 f   sg_vs2008_32:sgd.obj
 0001:0003ab90       ?sgdMultQuat@@YAXQANQBN1@Z 1003bb90 f   sg_vs2008_32:sgd.obj
 0001:0003ac60       ?sgdMultQuat2@@YAXQANQBN1@Z 1003bc60 f   sg_vs2008_32:sgd.obj
 0001:0003ad30       ?sgdEulerToQuat@@YAXQANQBN@Z 1003bd30 f   sg_vs2008_32:sgd.obj
 0001:0003ae20       ?sgdQuatToEuler@@YAXQANQBN@Z 1003be20 f   sg_vs2008_32:sgd.obj
 0001:0003af80       ?sgdQuatToMatrix@@YAXQAY03NQBN@Z 1003bf80 f   sg_vs2008_32:sgd.obj
 0001:0003b050       ?sgdMakeRotMat42@@YAXQAY03NQAN@Z 1003c050 f   sg_vs2008_32:sgd.obj
 0001:0003b120       ?sgdSlerpQuat2@@YAXQANQBN1N@Z 1003c120 f   sg_vs2008_32:sgd.obj
 0001:0003b240       ?sgdSlerpQuat@@YAXQANQBN1N@Z 1003c240 f   sg_vs2008_32:sgd.obj
 0001:0003b330       ?sgdRotateVecQuat@@YAXQAN0@Z 1003c330 f   sg_vs2008_32:sgd.obj
 0001:0003b420       ?sgdRotateCoordQuat@@YAXQAN0@Z 1003c420 f   sg_vs2008_32:sgd.obj
 0001:0003b510       ?sgdDistSquaredToLineLineSegment@@YANUsgdLineSegment3@@UsgdLine3@@@Z 1003c510 f   sg_vs2008_32:sgd.obj
 0001:0003b720       ?sgdReflectInPlaneVec3@@YAXQANQBN1@Z 1003c720 f   sg_vs2008_32:sgd.obj
 0001:0003b770       ?sgdClassifyMat4@@YAHQAY03$$CBN@Z 1003c770 f   sg_vs2008_32:sgd.obj
 0001:0003ba30       ?sgdTriangleSolver_SAStoArea@@YANNNN@Z 1003ca30 f   sg_vs2008_32:sgd.obj
 0001:0003ba50       ?sgdTriangleSolver_SSStoArea@@YANNNN@Z 1003ca50 f   sg_vs2008_32:sgd.obj
 0001:0003baa0       ?sgdTriangleSolver_SSStoAAA@@YAXNNNPAN00@Z 1003caa0 f   sg_vs2008_32:sgd.obj
 0001:0003bc40       ?sgdTriangleSolver_SAStoASA@@YAXNNNPAN00@Z 1003cc40 f   sg_vs2008_32:sgd.obj
 0001:0003bcc0       ?sgdTriangleSolver_ASAtoSAS@@YAXNNNPAN00@Z 1003ccc0 f   sg_vs2008_32:sgd.obj
 0001:0003bd70       ?sgdTriangleSolver_ASStoSAA@@YAXNNNHPAN00@Z 1003cd70 f   sg_vs2008_32:sgd.obj
 0001:0003be00       ?sgdTriangleSolver_SAAtoASS@@YAXNNNPAN00@Z 1003ce00 f   sg_vs2008_32:sgd.obj
 0001:0003be50       ?sgdTriArea@@YANQAN00@Z    1003ce50 f   sg_vs2008_32:sgd.obj
 0001:0003bf30       ?getOutcode@sgdFrustum@@ABEHQBN@Z 1003cf30 f   sg_vs2008_32:sgd.obj
 0001:0003c010       ?contains@sgdFrustum@@QBEHQBN@Z 1003d010 f   sg_vs2008_32:sgd.obj
 0001:0003c030       ?contains@sgdFrustum@@QBEHPBVsgdBox@@@Z 1003d030 f   sg_vs2008_32:sgd.obj
 0001:0003c150       ?sgdPreMultMat4@@YAXQAY03NQAY03$$CBN@Z 1003d150 f   sg_vs2008_32:sgd.obj
 0001:0003c190       ?sgdPostMultMat4@@YAXQAY03NQAY03$$CBN@Z 1003d190 f   sg_vs2008_32:sgd.obj
 0001:0003c1d0       ?sgdQuatToAngleAxis@@YAXPAN000QBN@Z 1003d1d0 f   sg_vs2008_32:sgd.obj
 0001:0003c210       ?sgdAngleAxisToQuat@@YAXQANNNNN@Z 1003d210 f   sg_vs2008_32:sgd.obj
 0001:0003c250       ?sgdTriangleSolver_ASAtoArea@@YANNNN@Z 1003d250 f   sg_vs2008_32:sgd.obj
 0001:0003c2c0       ?sgdTriangleSolver_ASStoArea@@YANNNNH@Z 1003d2c0 f   sg_vs2008_32:sgd.obj
 0001:0003c320       ?sgdTriangleSolver_SAAtoArea@@YANNNN@Z 1003d320 f   sg_vs2008_32:sgd.obj
 0001:0003c380       ?ulSetError@@YAXW4ulSeverity@@PBDZZ 1003d380 f   ul_vs2008_32:ulError.obj
 0001:0003c3f0       ?ulGetError@@YAPADXZ       1003d3f0 f   ul_vs2008_32:ulError.obj
 0001:0003c400       ?ulClearError@@YAXXZ       1003d400 f   ul_vs2008_32:ulError.obj
 0001:0003c410       ?ulGetErrorCallback@@YAP6AXW4ulSeverity@@PAD@ZXZ 1003d410 f   ul_vs2008_32:ulError.obj
 0001:0003c420       ?ulSetErrorCallback@@YAXP6AXW4ulSeverity@@PAD@Z@Z 1003d420 f   ul_vs2008_32:ulError.obj
 0001:0003c42a       _QueryPerformanceCounter@4 1003d42a f   kernel32:KERNEL32.dll
 0001:0003c430       _QueryPerformanceFrequency@4 1003d430 f   kernel32:KERNEL32.dll
 0001:0003c440       __CIsqrt                   1003d440 f   LIBCMTD:sqrt.obj
 0001:0003c454       _sqrt                      1003d454     LIBCMTD:sqrt.obj
 0001:0003c500       @_RTC_AllocaHelper@12      1003d500 f   LIBCMTD:stack.obj
 0001:0003c540       @_RTC_CheckStackVars2@12   1003d540 f   LIBCMTD:stack.obj
 0001:0003c620       @_RTC_CheckStackVars@8     1003d620 f   LIBCMTD:stack.obj
 0001:0003c680       __RTC_CheckEsp             1003d680 f   LIBCMTD:stack.obj
 0001:0003c6b0       __RTC_InitBase             1003d6b0 f   LIBCMTD:init.obj
 0001:0003c6e0       __RTC_Shutdown             1003d6e0 f   LIBCMTD:init.obj
 0001:0003c700       ??0type_info@@AAE@ABV0@@Z  1003d700 f   LIBCMTD:typinfo.obj
 0001:0003c720       ??1type_info@@UAE@XZ       1003d720 f   LIBCMTD:typinfo.obj
 0001:0003c740       ??4type_info@@AAEAAV0@ABV0@@Z 1003d740 f   LIBCMTD:typinfo.obj
 0001:0003c750       ??8type_info@@QBE_NABV0@@Z 1003d750 f   LIBCMTD:typinfo.obj
 0001:0003c790       ??9type_info@@QBE_NABV0@@Z 1003d790 f   LIBCMTD:typinfo.obj
 0001:0003c7d0       ??_Etype_info@@UAEPAXI@Z   1003d7d0 f i LIBCMTD:typinfo.obj
 0001:0003c7d0       ??_Gtype_info@@UAEPAXI@Z   1003d7d0 f i LIBCMTD:typinfo.obj
 0001:0003c800       ?_name_internal_method@type_info@@QBEPBDPAU__type_info_node@@@Z 1003d800 f   LIBCMTD:typinfo.obj
 0001:0003c820       ?_type_info_dtor_internal_method@type_info@@QAEXXZ 1003d820 f   LIBCMTD:typinfo.obj
 0001:0003c840       ?before@type_info@@QBE_NABV1@@Z 1003d840 f   LIBCMTD:typinfo.obj
 0001:0003c880       ?name@type_info@@QBEPBDPAU__type_info_node@@@Z 1003d880 f   LIBCMTD:typinfo.obj
 0001:0003c8a0       ?raw_name@type_info@@QBEPBDXZ 1003d8a0 f   LIBCMTD:typinfo.obj
 0001:0003c8c0       __fpmath                   1003d8c0 f   LIBCMTD:fpinit.obj
 0001:0003c8e0       ___setfflag                1003d8e0 f   LIBCMTD:fpinit.obj
 0001:0003c900       __cfltcvt_init             1003d900 f   LIBCMTD:fpinit.obj
 0001:0003c9c0       ??0bad_alloc@std@@QAE@ABV01@@Z 1003d9c0 f i LIBCMTD:new.obj
 0001:0003c9f0       ??0bad_alloc@std@@QAE@XZ   1003d9f0 f i LIBCMTD:new.obj
 0001:0003ca20       ??1bad_alloc@std@@UAE@XZ   1003da20 f i LIBCMTD:new.obj
 0001:0003ca40       ??2@YAPAXI@Z               1003da40 f   LIBCMTD:new.obj
 0001:0003ca90       ??_Gbad_alloc@std@@UAEPAXI@Z 1003da90 f i LIBCMTD:new.obj
 0001:0003ca90       ??_Ebad_alloc@std@@UAEPAXI@Z 1003da90 f i LIBCMTD:new.obj
 0001:0003cac0       ??3@YAXPAX@Z               1003dac0 f   LIBCMTD:dbgdel.obj
 0001:0003cbb0       _floor                     1003dbb0 f   LIBCMTD:floor_pentium4.obj
 0001:0003cbf0       __floor_pentium4           1003dbf0 f   LIBCMTD:floor_pentium4.obj
 0001:0003cce0       _memset                    1003dce0 f   LIBCMTD:memset.obj
 0001:0003cd70       __fclose_nolock            1003dd70 f   LIBCMTD:fclose.obj
 0001:0003ce80       _fclose                    1003de80 f   LIBCMTD:fclose.obj
 0001:0003cfa0       __fsopen                   1003dfa0 f   LIBCMTD:fopen.obj
 0001:0003d1f0       _fopen                     1003e1f0 f   LIBCMTD:fopen.obj
 0001:0003d210       _fopen_s                   1003e210 f   LIBCMTD:fopen.obj
 0001:0003d2d0       __fprintf_l                1003e2d0 f   LIBCMTD:fprintf.obj
 0001:0003d300       __fprintf_p                1003e300 f   LIBCMTD:fprintf.obj
 0001:0003d330       __fprintf_p_l              1003e330 f   LIBCMTD:fprintf.obj
 0001:0003d360       __fprintf_s_l              1003e360 f   LIBCMTD:fprintf.obj
 0001:0003d390       _fprintf                   1003e390 f   LIBCMTD:fprintf.obj
 0001:0003d660       _fprintf_s                 1003e660 f   LIBCMTD:fprintf.obj
 0001:0003d690       __fread_nolock             1003e690 f   LIBCMTD:fread.obj
 0001:0003d6b0       __fread_nolock_s           1003e6b0 f   LIBCMTD:fread.obj
 0001:0003dce0       _fread                     1003ece0 f   LIBCMTD:fread.obj
 0001:0003dd00       _fread_s                   1003ed00 f   LIBCMTD:fread.obj
 0001:0003de50       __fwrite_nolock            1003ee50 f   LIBCMTD:fwrite.obj
 0001:0003e260       _fwrite                    1003f260 f   LIBCMTD:fwrite.obj
 0001:0003e380       __get_printf_count_output  1003f380 f   LIBCMTD:printf.obj
 0001:0003e3b0       __printf_l                 1003f3b0 f   LIBCMTD:printf.obj
 0001:0003e3e0       __printf_p                 1003f3e0 f   LIBCMTD:printf.obj
 0001:0003e400       __printf_p_l               1003f400 f   LIBCMTD:printf.obj
 0001:0003e430       __printf_s_l               1003f430 f   LIBCMTD:printf.obj
 0001:0003e460       __set_printf_count_output  1003f460 f   LIBCMTD:printf.obj
 0001:0003e4c0       _printf                    1003f4c0 f   LIBCMTD:printf.obj
 0001:0003e630       _printf_s                  1003f630 f   LIBCMTD:printf.obj
 0001:0003e650       __scprintf                 1003f650 f   LIBCMTD:sprintf.obj
 0001:0003e670       __scprintf_l               1003f670 f   LIBCMTD:sprintf.obj
 0001:0003e6a0       __scprintf_p               1003f6a0 f   LIBCMTD:sprintf.obj
 0001:0003e6c0       __scprintf_p_l             1003f6c0 f   LIBCMTD:sprintf.obj
 0001:0003e6f0       __snprintf_s               1003f6f0 f   LIBCMTD:sprintf.obj
 0001:0003e720       __snprintf_s_l             1003f720 f   LIBCMTD:sprintf.obj
 0001:0003e750       __sprintf_l                1003f750 f   LIBCMTD:sprintf.obj
 0001:0003e780       __sprintf_p                1003f780 f   LIBCMTD:sprintf.obj
 0001:0003e7b0       __sprintf_p_l              1003f7b0 f   LIBCMTD:sprintf.obj
 0001:0003e7e0       __sprintf_s_l              1003f7e0 f   LIBCMTD:sprintf.obj
 0001:0003e810       _sprintf                   1003f810 f   LIBCMTD:sprintf.obj
 0001:0003e9d0       _sprintf_s                 1003f9d0 f   LIBCMTD:sprintf.obj
 0001:0003ea00       _fabs                      1003fa00 f   LIBCMTD:fabs.obj
 0001:0003eb00       __cabs                     1003fb00 f   LIBCMTD:hypot.obj
 0001:0003eb30       __hypot                    1003fb30 f   LIBCMTD:hypot.obj
 0001:0003ee90       @__security_check_cookie@4 1003fe90 f   LIBCMTD:secchk.obj
 0001:0003efa0       ?_CallCatchBlock2@@YAPAXPAUEHRegistrationNode@@PBU_s_FuncInfo@@PAXHK@Z 1003ffa0 f   LIBCMTD:_trnsctrl_.obj
 0001:0003f010       ?_CallMemberFunction0@@YGXPAX0@Z 10040010 f   LIBCMTD:_trnsctrl_.obj
 0001:0003f020       ?_CallMemberFunction1@@YGXPAX00@Z 10040020 f   LIBCMTD:_trnsctrl_.obj
 0001:0003f030       ?_CallMemberFunction2@@YGXPAX00H@Z 10040030 f   LIBCMTD:_trnsctrl_.obj
 0001:0003f040       ?_CallSETranslator@@YAHPAUEHExceptionRecord@@PAUEHRegistrationNode@@PAX2PBU_s_FuncInfo@@H1@Z 10040040 f   LIBCMTD:_trnsctrl_.obj
 0001:0003f130       ?_GetRangeOfTrysToCheck@@YAPBU_s_TryBlockMapEntry@@PBU_s_FuncInfo@@HHPAI1@Z 10040130 f   LIBCMTD:_trnsctrl_.obj
 0001:0003f1c0       ?_JumpToContinuation@@YGXPAXPAUEHRegistrationNode@@@Z 100401c0 f   LIBCMTD:_trnsctrl_.obj
 0001:0003f200       ?_UnwindNestedFrames@@YGXPAUEHRegistrationNode@@PAUEHExceptionRecord@@@Z 10040200 f   LIBCMTD:_trnsctrl_.obj
 0001:0003f260       __CreateFrameInfo          10040260 f   LIBCMTD:_trnsctrl_.obj
 0001:0003f290       __FindAndUnlinkFrame       10040290 f   LIBCMTD:_trnsctrl_.obj
 0001:0003f2f0       __IsExceptionObjectToBeDestroyed 100402f0 f   LIBCMTD:_trnsctrl_.obj
 0001:0003f320       ___CxxFrameHandler         10040320 f   LIBCMTD:_trnsctrl_.obj
 0001:0003f360       ___CxxFrameHandler2        10040360 f   LIBCMTD:_trnsctrl_.obj
 0001:0003f3a0       ___CxxFrameHandler3        100403a0 f   LIBCMTD:_trnsctrl_.obj
 0001:0003f3e0       ___CxxLongjmpUnwind@4      100403e0 f   LIBCMTD:_trnsctrl_.obj
 0001:0003f410       __ftol2_sse                10040410 f   LIBCMTD:ftol2.obj
 0001:0003f419       __ftol2_pentium4           10040419 f   LIBCMTD:ftol2.obj
 0001:0003f42c       __ftol2_sse_excpt          1004042c f   LIBCMTD:ftol2.obj
 0001:0003f446       __ftol2                    10040446 f   LIBCMTD:ftol2.obj
 0001:0003f4c0       _atan2                     100404c0 f   LIBCMTD:87ctriga.obj
 0001:0003f4ca       __CIatan2                  100404ca f   LIBCMTD:87ctriga.obj
 0001:0003f4e0       ??_L@YGXPAXIHP6EX0@Z1@Z    100404e0 f   LIBCMTD:ehvecctr.obj
 0001:0003f590       ??_M@YGXPAXIHP6EX0@Z@Z     10040590 f   LIBCMTD:ehvecdtr.obj
 0001:0003f670       ?__ArrayUnwind@@YGXPAXIHP6EX0@Z@Z 10040670 f   LIBCMTD:ehvecdtr.obj
 0001:0003f700       _atan                      10040700 f   LIBCMTD:atan.obj
 0001:0003f740       __CIatan                   10040740 f   LIBCMTD:atan.obj
 0001:0003f77b       __CIatan_default           1004077b f   LIBCMTD:atan.obj
 0001:0003f78f       __atan_default             1004078f     LIBCMTD:atan.obj
 0001:0003f820       _cos                       10040820 f   LIBCMTD:cos.obj
 0001:0003f860       __CIcos                    10040860 f   LIBCMTD:cos.obj
 0001:0003f89b       __CIcos_default            1004089b f   LIBCMTD:cos.obj
 0001:0003f8af       __cos_default              100408af     LIBCMTD:cos.obj
 0001:0003f950       _exp                       10040950 f   LIBCMTD:87ctran.obj
 0001:0003f98c       __CIexp                    1004098c f   LIBCMTD:87ctran.obj
 0001:0003f9c7       __exp_default              100409c7 f   LIBCMTD:87ctran.obj
 0001:0003f9d1       __CIexp_default            100409d1 f   LIBCMTD:87ctran.obj
 0001:0003f9e0       _sin                       100409e0 f   LIBCMTD:sin.obj
 0001:0003fa20       __CIsin                    10040a20 f   LIBCMTD:sin.obj
 0001:0003fa5b       __CIsin_default            10040a5b f   LIBCMTD:sin.obj
 0001:0003fa6f       __sin_default              10040a6f     LIBCMTD:sin.obj
 0001:0003fb10       __snprintf                 10040b10 f   LIBCMTD:snprintf.obj
 0001:0003fcf0       __snprintf_l               10040cf0 f   LIBCMTD:snprintf.obj
 0001:0003fd20       _strcmp                    10040d20 f   LIBCMTD:strcmp.obj
 0001:0003fdb0       _strncpy                   10040db0 f   LIBCMTD:strncpy.obj
 0001:0003fee0       _strrchr                   10040ee0 f   LIBCMTD:strrchr.obj
 0001:00040020       _memcpy                    10041020 f   LIBCMTD:memcpy.obj
 0001:00040670       _asin                      10041670 f   LIBCMTD:asin.obj
 0001:000406b0       __CIasin                   100416b0 f   LIBCMTD:asin.obj
 0001:000406eb       __CIasin_default           100416eb f   LIBCMTD:asin.obj
 0001:000406ff       __asin_default             100416ff     LIBCMTD:asin.obj
 0001:000407c0       ___onexitinit              100417c0 f   LIBCMTD:onexit.obj
 0001:00040820       __onexit                   10041820 f   LIBCMTD:onexit.obj
 0001:000409e0       _atexit                    100419e0 f   LIBCMTD:onexit.obj
 0001:00040a10       ___inittime                10041a10 f   LIBCMTD:clock.obj
 0001:00040a50       _clock                     10041a50 f   LIBCMTD:clock.obj
 0001:00040ab0       _ceil                      10041ab0 f   LIBCMTD:ceil_pentium4.obj
 0001:00040af0       __ceil_pentium4            10041af0 f   LIBCMTD:ceil_pentium4.obj
 0001:00040bd0       _strlen                    10041bd0 f   LIBCMTD:strlen.obj
 0001:00040c60       _tan                       10041c60 f   LIBCMTD:tan.obj
 0001:00040ca0       __CItan                    10041ca0 f   LIBCMTD:tan.obj
 0001:00040cdb       __CItan_default            10041cdb f   LIBCMTD:tan.obj
 0001:00040cef       __tan_default              10041cef     LIBCMTD:tan.obj
 0001:00040d90       __get_purecall_handler     10041d90 f   LIBCMTD:purevirt.obj
 0001:00040db0       __purecall                 10041db0 f   LIBCMTD:purevirt.obj
 0001:00040df0       __set_purecall_handler     10041df0 f   LIBCMTD:purevirt.obj
 0001:00040e20       __CRT_INIT@12              10041e20 f   LIBCMTD:dllcrt0.obj
 0001:00041050       __DllMainCRTStartup@12     10042050 f   LIBCMTD:dllcrt0.obj
 0001:00041240       ___DllXcptFilter           10042240 f   LIBCMTD:dllcrt0.obj
 0001:00041270       _acos                      10042270 f   LIBCMTD:acos.obj
 0001:000412b0       __CIacos                   100422b0 f   LIBCMTD:acos.obj
 0001:000412eb       __CIacos_default           100422eb f   LIBCMTD:acos.obj
 0001:000412ff       __acos_default             100422ff     LIBCMTD:acos.obj
 0001:000413c0       ___copy_path_to_wide_string 100423c0 f   LIBCMTD:crt0dat.obj
 0001:000415b0       ___crtCorExitProcess       100425b0 f   LIBCMTD:crt0dat.obj
 0001:000415f0       ___crtExitProcess          100425f0 f   LIBCMTD:crt0dat.obj
 0001:00041610       ___freeCrtMemory           10042610 f   LIBCMTD:crt0dat.obj
 0001:000417e0       __amsg_exit                100427e0 f   LIBCMTD:crt0dat.obj
 0001:00041800       __c_exit                   10042800 f   LIBCMTD:crt0dat.obj
 0001:00041820       __cexit                    10042820 f   LIBCMTD:crt0dat.obj
 0001:00041840       __cinit                    10042840 f   LIBCMTD:crt0dat.obj
 0001:000418e0       __exit                     100428e0 f   LIBCMTD:crt0dat.obj
 0001:00041900       __get_pgmptr               10042900 f   LIBCMTD:crt0dat.obj
 0001:00041a20       __get_wpgmptr              10042a20 f   LIBCMTD:crt0dat.obj
 0001:00041b40       __init_pointers            10042b40 f   LIBCMTD:crt0dat.obj
 0001:00041bd0       __initterm_e               10042bd0 f   LIBCMTD:crt0dat.obj
 0001:00041c10       __lockexit                 10042c10 f   LIBCMTD:crt0dat.obj
 0001:00041c20       __unlockexit               10042c20 f   LIBCMTD:crt0dat.obj
 0001:00041e30       _exit                      10042e30 f   LIBCMTD:crt0dat.obj
 0001:00041e50       ___initstdio               10042e50 f   LIBCMTD:_file.obj
 0001:00041f20       ___endstdio                10042f20 f   LIBCMTD:_file.obj
 0001:00041f60       ___iob_func                10042f60 f   LIBCMTD:_file.obj
 0001:00041f70       __lock_file                10042f70 f   LIBCMTD:_file.obj
 0001:00041fd0       __lock_file2               10042fd0 f   LIBCMTD:_file.obj
 0001:00042010       __unlock_file              10043010 f   LIBCMTD:_file.obj
 0001:00042070       __unlock_file2             10043070 f   LIBCMTD:_file.obj
 0001:000420b0       __vscprintf                100430b0 f   LIBCMTD:vsprintf.obj
 0001:000420d0       __vscprintf_helper         100430d0 f   LIBCMTD:vsprintf.obj
 0001:000421c0       __vscprintf_l              100431c0 f   LIBCMTD:vsprintf.obj
 0001:000421e0       __vscprintf_p              100431e0 f   LIBCMTD:vsprintf.obj
 0001:00042200       __vscprintf_p_l            10043200 f   LIBCMTD:vsprintf.obj
 0001:00042220       __vsprintf_l               10043220 f   LIBCMTD:vsprintf.obj
 0001:000423e0       _vsprintf                  100433e0 f   LIBCMTD:vsprintf.obj
 0001:00042400       __trandisp1                10043400 f   LIBCMTD:87disp.obj
 0001:00042467       __trandisp2                10043467 f   LIBCMTD:87disp.obj
 0001:000424f3       __rttospopde               100434f3     LIBCMTD:87disp.obj
 0001:000424f8       __rttospop                 100434f8     LIBCMTD:87disp.obj
 0001:000424fa       __rtnospop                 100434fa     LIBCMTD:87disp.obj
 0001:000424fc       __rttosnpop                100434fc     LIBCMTD:87disp.obj
 0001:000424fd       __rtnospopde               100434fd     LIBCMTD:87disp.obj
 0001:00042504       __rtzeropop                10043504     LIBCMTD:87disp.obj
 0001:00042506       __rtzeronpop               10043506     LIBCMTD:87disp.obj
 0001:0004250b       __rtonepop                 1004350b     LIBCMTD:87disp.obj
 0001:0004250d       __rtonenpop                1004350d     LIBCMTD:87disp.obj
 0001:00042512       __tosnan1                  10043512     LIBCMTD:87disp.obj
 0001:0004253d       __nosnan2                  1004353d     LIBCMTD:87disp.obj
 0001:0004253f       __tosnan2                  1004353f     LIBCMTD:87disp.obj
 0001:00042567       __nan2                     10043567     LIBCMTD:87disp.obj
 0001:000425a6       __rtindfpop                100435a6     LIBCMTD:87disp.obj
 0001:000425a8       __rtindfnpop               100435a8     LIBCMTD:87disp.obj
 0001:000425b9       __rttosnpopde              100435b9     LIBCMTD:87disp.obj
 0001:000425c3       __rtchsifneg               100435c3     LIBCMTD:87disp.obj
 0001:000425d0       __startTwoArgErrorHandling 100435d0 f   LIBCMTD:genexcep.obj
 0001:000425e7       __startOneArgErrorHandling 100435e7 f   LIBCMTD:genexcep.obj
 0001:00042630       __twoToTOS                 10043630 f   LIBCMTD:common.obj
 0001:00042645       __load_CW                  10043645 f   LIBCMTD:common.obj
 0001:0004265c       __convertTOStoQNaN         1004365c f   LIBCMTD:common.obj
 0001:00042675       __fload_withFB             10043675 f   LIBCMTD:common.obj
 0001:000426b8       __checkTOS_withFB          100436b8 f   LIBCMTD:common.obj
 0001:000426ce       __fast_exit                100436ce f   LIBCMTD:common.obj
 0001:000426db       __math_exit                100436db f   LIBCMTD:common.obj
 0001:00042705       __check_overflow_exit      10043705 f   LIBCMTD:common.obj
 0001:00042719       __check_range_exit         10043719 f   LIBCMTD:common.obj
 0001:00042910       ?_RTC_AllocaFailure@@YAXPAXPAU_RTC_ALLOCA_NODE@@H@Z 10043910 f   LIBCMTD:error.obj
 0001:00042a80       ?_RTC_Failure@@YAXPAXH@Z   10043a80 f   LIBCMTD:error.obj
 0001:00042ad0       ?_RTC_StackFailure@@YAXPAXPBD@Z 10043ad0 f   LIBCMTD:error.obj
 0001:00042e30       __RTC_UninitUse            10043e30 f   LIBCMTD:error.obj
 0001:00042f30       ?_RTC_GetErrorFunc@@YAP6AHHPBDH00ZZPBX@Z 10043f30 f   LIBCMTD:userapi.obj
 0001:00042f40       ?_RTC_GetErrorFuncW@@YAP6AHHPB_WH00ZZPBX@Z 10043f40 f   LIBCMTD:userapi.obj
 0001:00042f50       __RTC_GetErrDesc           10043f50 f   LIBCMTD:userapi.obj
 0001:00042f70       __RTC_NumErrors            10043f70 f   LIBCMTD:userapi.obj
 0001:00042f80       __RTC_SetErrorFunc         10043f80 f   LIBCMTD:userapi.obj
 0001:00042fa0       __RTC_SetErrorFuncW        10043fa0 f   LIBCMTD:userapi.obj
 0001:00042fc0       __RTC_SetErrorType         10043fc0 f   LIBCMTD:userapi.obj
 0001:00042ff0       __CRT_RTC_INIT             10043ff0 f   LIBCMTD:chkesp.obj
 0001:00043000       __CRT_RTC_INITW            10044000 f   LIBCMTD:chkesp.obj
 0001:00043010       __chkesp                   10044010 f   LIBCMTD:chkesp.obj
 0001:00043050       ?_Name_base@type_info@@CAPBDPBV1@PAU__type_info_node@@@Z 10044050 f   LIBCMTD:typname.obj
 0001:00043200       ?_Name_base_internal@type_info@@CAPBDPBV1@PAU__type_info_node@@@Z 10044200 f   LIBCMTD:typname.obj
 0001:000433c0       ?_Type_info_dtor@type_info@@CAXPAV1@@Z 100443c0 f   LIBCMTD:typname.obj
 0001:000434d0       ?_Type_info_dtor_internal@type_info@@CAXPAV1@@Z 100444d0 f   LIBCMTD:typname.obj
 0001:000435e0       ___clean_type_info_names_internal 100445e0 f   LIBCMTD:typname.obj
 0001:00043690       ___unDNameHelper           10044690 f   LIBCMTD:typname.obj
 0001:000436d0       __invoke_watson_if_error   100446d0 f i LIBCMTD:typname.obj
 0001:00043700       ??0_LocaleUpdate@@QAE@PAUlocaleinfo_struct@@@Z 10044700 f i LIBCMTD:cvt.obj
 0001:000437e0       ??1_LocaleUpdate@@QAE@XZ   100447e0 f i LIBCMTD:cvt.obj
 0001:00043810       ?GetLocaleT@_LocaleUpdate@@QAEPAUlocaleinfo_struct@@XZ 10044810 f i LIBCMTD:cvt.obj
 0001:00043820       __cfltcvt                  10044820 f   LIBCMTD:cvt.obj
 0001:00043850       __cfltcvt_l                10044850 f   LIBCMTD:cvt.obj
 0001:00043910       __cftoa                    10044910 f   LIBCMTD:cvt.obj
 0001:00043940       __cftoa_l                  10044940 f   LIBCMTD:cvt.obj
 0001:000441b0       __cftoe                    100451b0 f   LIBCMTD:cvt.obj
 0001:000445f0       __cftoe_l                  100455f0 f   LIBCMTD:cvt.obj
 0001:00044820       __cftof                    10045820 f   LIBCMTD:cvt.obj
 0001:00044ad0       __cftof_l                  10045ad0 f   LIBCMTD:cvt.obj
 0001:00044cd0       __cftog                    10045cd0 f   LIBCMTD:cvt.obj
 0001:00044d00       __cftog_l                  10045d00 f   LIBCMTD:cvt.obj
 0001:00044f90       __cropzeros                10045f90 f   LIBCMTD:cvt.obj
 0001:00044fb0       __cropzeros_l              10045fb0 f   LIBCMTD:cvt.obj
 0001:000450d0       __fassign                  100460d0 f   LIBCMTD:cvt.obj
 0001:000450f0       __fassign_l                100460f0 f   LIBCMTD:cvt.obj
 0001:00045140       __forcdecpt                10046140 f   LIBCMTD:cvt.obj
 0001:00045160       __forcdecpt_l              10046160 f   LIBCMTD:cvt.obj
 0001:00045230       __positive                 10046230 f   LIBCMTD:cvt.obj
 0001:00045290       __setdefaultprecision      10046290 f   LIBCMTD:fp8.obj
 0001:000452d0       __initp_misc_cfltcvt_tab   100462d0 f   LIBCMTD:cmiscdat.obj
 0001:00045310       _malloc                    10046310 f   LIBCMTD:dbgmalloc.obj
 0001:00045340       ??0__non_rtti_object@std@@QAE@ABV01@@Z 10046340 f   LIBCMTD:stdexcpt.obj
 0001:00045370       ??0__non_rtti_object@std@@QAE@PBD@Z 10046370 f   LIBCMTD:stdexcpt.obj
 0001:000453a0       ??0bad_cast@std@@QAE@ABV01@@Z 100463a0 f   LIBCMTD:stdexcpt.obj
 0001:000453d0       ??0bad_cast@std@@QAE@PBD@Z 100463d0 f   LIBCMTD:stdexcpt.obj
 0001:00045400       ??0bad_typeid@std@@QAE@ABV01@@Z 10046400 f   LIBCMTD:stdexcpt.obj
 0001:00045430       ??0bad_typeid@std@@QAE@PBD@Z 10046430 f   LIBCMTD:stdexcpt.obj
 0001:00045460       ??0exception@std@@QAE@ABQBD@Z 10046460 f   LIBCMTD:stdexcpt.obj
 0001:000454a0       ??0exception@std@@QAE@ABQBDH@Z 100464a0 f   LIBCMTD:stdexcpt.obj
 0001:000454d0       ??0exception@std@@QAE@ABV01@@Z 100464d0 f   LIBCMTD:stdexcpt.obj
 0001:00045510       ??0exception@std@@QAE@XZ   10046510 f   LIBCMTD:stdexcpt.obj
 0001:00045540       ??1__non_rtti_object@std@@UAE@XZ 10046540 f   LIBCMTD:stdexcpt.obj
 0001:00045560       ??1bad_cast@std@@UAE@XZ    10046560 f   LIBCMTD:stdexcpt.obj
 0001:00045580       ??1bad_typeid@std@@UAE@XZ  10046580 f   LIBCMTD:stdexcpt.obj
 0001:000455a0       ??1exception@std@@UAE@XZ   100465a0 f   LIBCMTD:stdexcpt.obj
 0001:000455c0       ??4exception@std@@QAEAAV01@ABV01@@Z 100465c0 f   LIBCMTD:stdexcpt.obj
 0001:00045610       ??_E__non_rtti_object@std@@UAEPAXI@Z 10046610 f i LIBCMTD:stdexcpt.obj
 0001:00045610       ??_G__non_rtti_object@std@@UAEPAXI@Z 10046610 f i LIBCMTD:stdexcpt.obj
 0001:00045640       ??_Gbad_cast@std@@UAEPAXI@Z 10046640 f i LIBCMTD:stdexcpt.obj
 0001:00045640       ??_Ebad_cast@std@@UAEPAXI@Z 10046640 f i LIBCMTD:stdexcpt.obj
 0001:00045670       ??_Ebad_typeid@std@@UAEPAXI@Z 10046670 f i LIBCMTD:stdexcpt.obj
 0001:00045670       ??_Gbad_typeid@std@@UAEPAXI@Z 10046670 f i LIBCMTD:stdexcpt.obj
 0001:000456a0       ??_Eexception@std@@UAEPAXI@Z 100466a0 f i LIBCMTD:stdexcpt.obj
 0001:000456a0       ??_Gexception@std@@UAEPAXI@Z 100466a0 f i LIBCMTD:stdexcpt.obj
 0001:000456d0       ?_Copy_str@exception@std@@AAEXPBD@Z 100466d0 f   LIBCMTD:stdexcpt.obj
 0001:00045730       ?_Tidy@exception@std@@AAEXXZ 10046730 f   LIBCMTD:stdexcpt.obj
 0001:00045770       ?what@exception@std@@UBEPBDXZ 10046770 f   LIBCMTD:stdexcpt.obj
 0001:000457a0       ?_query_new_handler@@YAP6AHI@ZXZ 100467a0 f   LIBCMTD:handler.obj
 0001:000457c0       ?_set_new_handler@@YAP6AHI@ZH@Z 100467c0 f   LIBCMTD:handler.obj
 0001:00045800       ?_set_new_handler@@YAP6AHI@ZP6AHI@Z@Z 10046800 f   LIBCMTD:handler.obj
 0001:00045840       __callnewh                 10046840 f   LIBCMTD:handler.obj
 0001:00045880       __initp_heap_handler       10046880 f   LIBCMTD:handler.obj
 0001:00045890       __CxxThrowException@8      10046890 f   LIBCMTD:throw.obj
 0001:00045920       __lock                     10046920 f   LIBCMTD:mlock.obj
 0001:00045960       __lockerr_exit             10046960 f   LIBCMTD:mlock.obj
 0001:00045990       __mtdeletelocks            10046990 f   LIBCMTD:mlock.obj
 0001:00045a50       __mtinitlocknum            10046a50 f   LIBCMTD:mlock.obj
 0001:00045b70       __mtinitlocks              10046b70 f   LIBCMTD:mlock.obj
 0001:00045bf0       __unlock                   10046bf0 f   LIBCMTD:mlock.obj
 0001:00045c10       ?_CrtDbgReportW@@YAHHPBGH00ZZ 10046c10 f   LIBCMTD:dbgrptw.obj
 0001:00045c60       __CrtDbgReportW            10046c60 f   LIBCMTD:dbgrptw.obj
 0001:00045cb0       __CrtDbgReportWV           10046cb0 f i LIBCMTD:dbgrptw.obj
 0001:00045ce0       __CrtSetReportHookW2       10046ce0 f   LIBCMTD:dbgrptw.obj
 0001:00046030       ___crtMessageWindowW       10047030 f   LIBCMTD:dbgrptw.obj
 0001:000464e0       __invoke_watson_if_oneof   100474e0 f i LIBCMTD:dbgrptw.obj
 0001:000469b0       __CrtCheckMemory           100479b0 f   LIBCMTD:dbgheap.obj
 0001:00046e10       __CrtDoForAllClientObjects 10047e10 f   LIBCMTD:dbgheap.obj
 0001:00046f40       __CrtDumpMemoryLeaks       10047f40 f   LIBCMTD:dbgheap.obj
 0001:00046fe0       __CrtGetAllocHook          10047fe0 f   LIBCMTD:dbgheap.obj
 0001:00046ff0       __CrtGetCheckCount         10047ff0 f   LIBCMTD:dbgheap.obj
 0001:00047000       __CrtGetDumpClient         10048000 f   LIBCMTD:dbgheap.obj
 0001:00047010       __CrtIsMemoryBlock         10048010 f   LIBCMTD:dbgheap.obj
 0001:00047180       __CrtIsValidHeapPointer    10048180 f   LIBCMTD:dbgheap.obj
 0001:000471c0       __CrtIsValidPointer        100481c0 f   LIBCMTD:dbgheap.obj
 0001:000471f0       __CrtMemCheckpoint         100481f0 f   LIBCMTD:dbgheap.obj
 0001:00047420       __CrtMemDifference         10048420 f   LIBCMTD:dbgheap.obj
 0001:00047680       __CrtMemDumpAllObjectsSince 10048680 f   LIBCMTD:dbgheap.obj
 0001:000476c0       __CrtMemDumpStatistics     100486c0 f   LIBCMTD:dbgheap.obj
 0001:000477e0       __CrtReportBlockType       100487e0 f   LIBCMTD:dbgheap.obj
 0001:00047810       __CrtSetAllocHook          10048810 f   LIBCMTD:dbgheap.obj
 0001:00047830       __CrtSetBreakAlloc         10048830 f   LIBCMTD:dbgheap.obj
 0001:00047850       __CrtSetCheckCount         10048850 f   LIBCMTD:dbgheap.obj
 0001:00047870       __CrtSetDbgBlockType       10048870 f   LIBCMTD:dbgheap.obj
 0001:00047960       __CrtSetDbgFlag            10048960 f   LIBCMTD:dbgheap.obj
 0001:00047ab0       __CrtSetDebugFillThreshold 10048ab0 f   LIBCMTD:dbgheap.obj
 0001:00047ad0       __CrtSetDumpClient         10048ad0 f   LIBCMTD:dbgheap.obj
 0001:00047af0       __aligned_free             10048af0 f   LIBCMTD:dbgheap.obj
 0001:00047b10       __aligned_free_dbg         10048b10 f   LIBCMTD:dbgheap.obj
 0001:00047bc0       __aligned_malloc           10048bc0 f   LIBCMTD:dbgheap.obj
 0001:00047be0       __aligned_malloc_dbg       10048be0 f   LIBCMTD:dbgheap.obj
 0001:00047c00       __aligned_msize            10048c00 f   LIBCMTD:dbgheap.obj
 0001:00047c20       __aligned_msize_dbg        10048c20 f   LIBCMTD:dbgheap.obj
 0001:00047d40       __aligned_offset_malloc    10048d40 f   LIBCMTD:dbgheap.obj
 0001:00047d60       __aligned_offset_malloc_dbg 10048d60 f   LIBCMTD:dbgheap.obj
 0001:00047f40       __aligned_offset_realloc   10048f40 f   LIBCMTD:dbgheap.obj
 0001:00047f70       __aligned_offset_realloc_dbg 10048f70 f   LIBCMTD:dbgheap.obj
 0001:00048280       __aligned_offset_recalloc  10049280 f   LIBCMTD:dbgheap.obj
 0001:000482b0       __aligned_offset_recalloc_dbg 100492b0 f   LIBCMTD:dbgheap.obj
 0001:00048370       __aligned_realloc          10049370 f   LIBCMTD:dbgheap.obj
 0001:00048390       __aligned_realloc_dbg      10049390 f   LIBCMTD:dbgheap.obj
 0001:000483c0       __aligned_recalloc         100493c0 f   LIBCMTD:dbgheap.obj
 0001:000483f0       __aligned_recalloc_dbg     100493f0 f   LIBCMTD:dbgheap.obj
 0001:00048420       __calloc_dbg               10049420 f   LIBCMTD:dbgheap.obj
 0001:00048480       __calloc_dbg_impl          10049480 f   LIBCMTD:dbgheap.obj
 0001:00048500       __expand                   10049500 f   LIBCMTD:dbgheap.obj
 0001:00048530       __expand_dbg               10049530 f   LIBCMTD:dbgheap.obj
 0001:00048650       __free_dbg                 10049650 f   LIBCMTD:dbgheap.obj
 0001:000486d0       __free_dbg_nolock          100496d0 f   LIBCMTD:dbgheap.obj
 0001:00048bd0       __free_nolock              10049bd0 f   LIBCMTD:dbgheap.obj
 0001:00048bf0       __heap_alloc               10049bf0 f   LIBCMTD:dbgheap.obj
 0001:00048c10       __heap_alloc_dbg           10049c10 f   LIBCMTD:dbgheap.obj
 0001:00049030       __malloc_dbg               1004a030 f   LIBCMTD:dbgheap.obj
 0001:00049060       __msize                    1004a060 f   LIBCMTD:dbgheap.obj
 0001:00049080       __msize_dbg                1004a080 f   LIBCMTD:dbgheap.obj
 0001:00049290       __nh_malloc                1004a290 f   LIBCMTD:dbgheap.obj
 0001:000492b0       __nh_malloc_dbg            1004a2b0 f   LIBCMTD:dbgheap.obj
 0001:00049540       __realloc_dbg              1004a540 f   LIBCMTD:dbgheap.obj
 0001:000495d0       __recalloc                 1004a5d0 f   LIBCMTD:dbgheap.obj
 0001:00049600       __recalloc_dbg             1004a600 f   LIBCMTD:dbgheap.obj
 0001:00049d20       __except_handler4          1004ad20 f   LIBCMTD:chandler4.obj
 0001:00049ee0       ___libm_error_support      1004aee0 f   LIBCMTD:libm_error.obj
 0001:0004aab0       ___libm_setusermatherr     1004bab0 f   LIBCMTD:libm_error.obj
 0001:0004aae0       __sse2_mathfcns_init       1004bae0 f   LIBCMTD:mathfcns.obj
 0001:0004ab00       __set_SSE2_enable          1004bb00 f   LIBCMTD:mathfcns.obj
 0001:0004ab50       __floor_default            1004bb50 f   LIBCMTD:floor.obj
 0001:0004ac90       __VEC_memset               1004bc90 f   LIBCMTD:p4_memset.obj
 0001:0004ad60       ___isa_available_init      1004bd60 f   LIBCMTD:cpu_disp.obj
 0001:0004af60       ?_invalid_parameter@@YAXPBG00II@Z 1004bf60 f   LIBCMTD:invarg.obj
 0001:0004af90       ?_invoke_watson@@YAXPBG00II@Z 1004bf90 f   LIBCMTD:invarg.obj
 0001:0004afb0       __call_reportfault         1004bfb0 f   LIBCMTD:invarg.obj
 0001:0004b110       __get_invalid_parameter_handler 1004c110 f   LIBCMTD:invarg.obj
 0001:0004b140       __initp_misc_invarg        1004c140 f   LIBCMTD:invarg.obj
 0001:0004b150       __invalid_parameter        1004c150 f   LIBCMTD:invarg.obj
 0001:0004b1b0       __invoke_watson            1004c1b0 f   LIBCMTD:invarg.obj
 0001:0004b1f0       __set_invalid_parameter_handler 1004c1f0 f   LIBCMTD:invarg.obj
 0001:0004b230       __fileno                   1004c230 f   LIBCMTD:fileno.obj
 0001:0004b2c0       __close                    1004c2c0 f   LIBCMTD:close.obj
 0001:0004b4f0       __close_nolock             1004c4f0 f   LIBCMTD:close.obj
 0001:0004b5d0       ___doserrno                1004c5d0 f   LIBCMTD:dosmap.obj
 0001:0004b600       __dosmaperr                1004c600 f   LIBCMTD:dosmap.obj
 0001:0004b630       __errno                    1004c630 f   LIBCMTD:dosmap.obj
 0001:0004b660       __get_doserrno             1004c660 f   LIBCMTD:dosmap.obj
 0001:0004b6f0       __get_errno                1004c6f0 f   LIBCMTD:dosmap.obj
 0001:0004b780       __get_errno_from_oserr     1004c780 f   LIBCMTD:dosmap.obj
 0001:0004b800       __set_doserrno             1004c800 f   LIBCMTD:dosmap.obj
 0001:0004b830       __set_errno                1004c830 f   LIBCMTD:dosmap.obj
 0001:0004b860       __freebuf                  1004c860 f   LIBCMTD:_freebuf.obj
 0001:0004b8f0       __fflush_nolock            1004c8f0 f   LIBCMTD:fflush.obj
 0001:0004b960       __flush                    1004c960 f   LIBCMTD:fflush.obj
 0001:0004ba20       __flushall                 1004ca20 f   LIBCMTD:fflush.obj
 0001:0004ba30       _fflush                    1004ca30 f   LIBCMTD:fflush.obj
 0001:0004bc70       __getstream                1004cc70 f   LIBCMTD:stream.obj
 0001:0004bea0       __openfile                 1004cea0 f   LIBCMTD:_open.obj
 0001:0004c6a0       __local_unwind4            1004d6a0 f   LIBCMTD:exsup4.obj
 0001:0004c776       __seh_longjmp_unwind4@4    1004d776 f   LIBCMTD:exsup4.obj
 0001:0004c792       @_EH4_CallFilterFunc@8     1004d792 f   LIBCMTD:exsup4.obj
 0001:0004c7a9       @_EH4_TransferToHandler@8  1004d7a9 f   LIBCMTD:exsup4.obj
 0001:0004c7c2       @_EH4_GlobalUnwind2@8      1004d7c2 f   LIBCMTD:exsup4.obj
 0001:0004c7db       @_EH4_LocalUnwind@16       1004d7db f   LIBCMTD:exsup4.obj
 0001:0004c800       __vfprintf_l               1004d800 f   LIBCMTD:vfprintf.obj
 0001:0004c830       __vfprintf_p               1004d830 f   LIBCMTD:vfprintf.obj
 0001:0004c850       __vfprintf_p_l             1004d850 f   LIBCMTD:vfprintf.obj
 0001:0004c880       __vfprintf_s_l             1004d880 f   LIBCMTD:vfprintf.obj
 0001:0004c8b0       _vfprintf                  1004d8b0 f   LIBCMTD:vfprintf.obj
 0001:0004c8d0       _vfprintf_helper           1004d8d0 f   LIBCMTD:vfprintf.obj
 0001:0004cba0       _vfprintf_s                1004dba0 f   LIBCMTD:vfprintf.obj
 0001:0004cbc0       __ftbuf                    1004dbc0 f   LIBCMTD:_sftbuf.obj
 0001:0004cc50       __stbuf                    1004dc50 f   LIBCMTD:_sftbuf.obj
 0001:0004cdc0       __output_l                 1004ddc0 f   LIBCMTD:output.obj
 0001:0004e460       _get_int64_arg             1004f460 f i LIBCMTD:output.obj
 0001:0004e480       _get_int_arg               1004f480 f i LIBCMTD:output.obj
 0001:0004e4a0       _get_short_arg             1004f4a0 f i LIBCMTD:output.obj
 0001:0004e660       __ioinit                   1004f660 f   LIBCMTD:ioinit.obj
 0001:0004eb40       __ioterm                   1004fb40 f   LIBCMTD:ioinit.obj
 0001:0004ebe0       __filbuf                   1004fbe0 f   LIBCMTD:_filbuf.obj
 0001:0004ee50       _memcpy_s                  1004fe50 f   LIBCMTD:memcpy_s.obj
 0001:0004f020       __read                     10050020 f   LIBCMTD:read.obj
 0001:0004f2f0       __read_nolock              100502f0 f   LIBCMTD:read.obj
 0001:00050530       __flsbuf                   10051530 f   LIBCMTD:_flsbuf.obj
 0001:00050800       __write                    10051800 f   LIBCMTD:write.obj
 0001:00050a50       __write_nolock             10051a50 f   LIBCMTD:write.obj
 0001:000517e0       __vprintf_l                100527e0 f   LIBCMTD:vprintf.obj
 0001:00051800       __vprintf_p                10052800 f   LIBCMTD:vprintf.obj
 0001:00051820       __vprintf_p_l              10052820 f   LIBCMTD:vprintf.obj
 0001:00051840       __vprintf_s_l              10052840 f   LIBCMTD:vprintf.obj
 0001:00051860       _vprintf                   10052860 f   LIBCMTD:vprintf.obj
 0001:00051880       _vprintf_helper            10052880 f   LIBCMTD:vprintf.obj
 0001:000519c0       _vprintf_s                 100529c0 f   LIBCMTD:vprintf.obj
 0001:000519e0       __vsnprintf_c              100529e0 f   LIBCMTD:vsnprnc.obj
 0001:00051a30       __vsnprintf_c_l            10052a30 f   LIBCMTD:vsnprnc.obj
 0001:00051a80       __vsnprintf_helper         10052a80 f   LIBCMTD:vsnprnc.obj
 0001:00051c80       __vsnprintf_s              10052c80 f   LIBCMTD:vsnprnc.obj
 0001:00051cb0       __vsnprintf_s_l            10052cb0 f   LIBCMTD:vsnprnc.obj
 0001:00052070       __vsprintf_p               10053070 f   LIBCMTD:vsnprnc.obj
 0001:000520c0       __vsprintf_p_l             100530c0 f   LIBCMTD:vsnprnc.obj
 0001:00052110       __vsprintf_s_l             10053110 f   LIBCMTD:vsnprnc.obj
 0001:000523a0       _vsprintf_s                100533a0 f   LIBCMTD:vsnprnc.obj
 0001:000523c0       __errcode                  100533c0 f   LIBCMTD:fpexcept.obj
 0001:00052430       __except1                  10053430 f   LIBCMTD:fpexcept.obj
 0001:00052530       __except2                  10053530 f   LIBCMTD:fpexcept.obj
 0001:00052680       __handle_exc               10053680 f   LIBCMTD:fpexcept.obj
 0001:000529a0       __handle_qnan1             100539a0 f   LIBCMTD:fpexcept.obj
 0001:00052a00       __handle_qnan2             10053a00 f   LIBCMTD:fpexcept.obj
 0001:00052a70       __raise_exc                10053a70 f   LIBCMTD:fpexcept.obj
 0001:00052aa0       __raise_exc_ex             10053aa0 f   LIBCMTD:fpexcept.obj
 0001:00053010       __raise_excf               10054010 f   LIBCMTD:fpexcept.obj
 0001:00053040       __set_errno_from_matherr   10054040 f   LIBCMTD:fpexcept.obj
 0001:00053080       __umatherr                 10054080 f   LIBCMTD:fpexcept.obj
 0001:00053120       __add_exp                  10054120 f   LIBCMTD:util.obj
 0001:00053150       __decomp                   10054150 f   LIBCMTD:util.obj
 0001:00053270       __get_exp                  10054270 f   LIBCMTD:util.obj
 0001:000532a0       __set_bexp                 100542a0 f   LIBCMTD:util.obj
 0001:000532d0       __set_exp                  100542d0 f   LIBCMTD:util.obj
 0001:00053310       __sptype                   10054310 f   LIBCMTD:util.obj
 0001:00053390       ___clrfp_sse2              10054390 f   LIBCMTD:fpctrl.obj
 0001:000533d0       ___ctrlfp_sse2             100543d0 f   LIBCMTD:fpctrl.obj
 0001:00053430       ___fclrf_sse2              10054430 f   LIBCMTD:fpctrl.obj
 0001:00053450       ___get_fpsr_sse2           10054450 f   LIBCMTD:fpctrl.obj
 0001:00053480       ___set_fpsr_sse2           10054480 f   LIBCMTD:fpctrl.obj
 0001:00053560       ___set_statfp_sse2         10054560 f   LIBCMTD:fpctrl.obj
 0001:00053590       ___statfp_sse2             10054590 f   LIBCMTD:fpctrl.obj
 0001:000535c0       __clrfp                    100545c0 f   LIBCMTD:fpctrl.obj
 0001:000535e0       __ctrlfp                   100545e0 f   LIBCMTD:fpctrl.obj
 0001:00053610       __set_statfp               10054610 f   LIBCMTD:fpctrl.obj
 0001:00053680       __statfp                   10054680 f   LIBCMTD:fpctrl.obj
 0001:00053690       ___raise_securityfailure   10054690 f   LIBCMTD:gs_report.obj
 0001:000536e0       ___report_gsfailure        100546e0 f   LIBCMTD:gs_report.obj
 0001:000537f0       ___report_rangecheckfailure 100547f0 f   LIBCMTD:gs_report.obj
 0001:00053800       ___report_securityfailure  10054800 f   LIBCMTD:gs_report.obj
 0001:000538e0       ___report_securityfailureEx 100548e0 f   LIBCMTD:gs_report.obj
 0001:00053a10       ___get_flsindex            10054a10 f   LIBCMTD:tidtable.obj
 0001:00053a20       ___threadhandle            10054a20 f   LIBCMTD:tidtable.obj
 0001:00053a30       ___threadid                10054a30 f   LIBCMTD:tidtable.obj
 0001:00053a40       __freefls@4                10054a40 f   LIBCMTD:tidtable.obj
 0001:00053c40       __freeptd                  10054c40 f   LIBCMTD:tidtable.obj
 0001:00053c80       __getptd                   10054c80 f   LIBCMTD:tidtable.obj
 0001:00053cb0       __getptd_noexit            10054cb0 f   LIBCMTD:tidtable.obj
 0001:00053d60       __initptd                  10054d60 f   LIBCMTD:tidtable.obj
 0001:00053ea0       __mtinit                   10054ea0 f   LIBCMTD:tidtable.obj
 0001:00053f50       __mtterm                   10054f50 f   LIBCMTD:tidtable.obj
 0001:00053f80       __CallSettingFrame@12      10054f80 f   LIBCMTD:lowhelpr.obj
 0001:00053fa7       __NLG_Return               10054fa7     LIBCMTD:lowhelpr.obj
 0001:00053fd0       ?_inconsistency@@YAXXZ     10054fd0 f   LIBCMTD:hooks.obj
 0001:00054060       ?terminate@@YAXXZ          10055060 f   LIBCMTD:hooks.obj
 0001:000540e0       ?unexpected@@YAXXZ         100550e0 f   LIBCMTD:hooks.obj
 0001:00054110       __initp_eh_hooks           10055110 f   LIBCMTD:hooks.obj
 0001:00054130       ___DestructExceptionObject 10055130 f   LIBCMTD:frame.obj
 0001:00054250       ??0bad_exception@std@@QAE@ABV01@@Z 10055250 f i LIBCMTD:frame.obj
 0001:00054280       ??0bad_exception@std@@QAE@PBD@Z 10055280 f i LIBCMTD:frame.obj
 0001:000542b0       ??1bad_exception@std@@UAE@XZ 100552b0 f i LIBCMTD:frame.obj
 0001:000542d0       ??_Gbad_exception@std@@UAEPAXI@Z 100552d0 f i LIBCMTD:frame.obj
 0001:000542d0       ??_Ebad_exception@std@@UAEPAXI@Z 100552d0 f i LIBCMTD:frame.obj
 0001:00054ed0       ?__uncaught_exception@@YA_NXZ 10055ed0 f   LIBCMTD:frame.obj
 0001:00054f00       ?_is_exception_typeof@@YAHABVtype_info@@PAU_EXCEPTION_POINTERS@@@Z 10055f00 f   LIBCMTD:frame.obj
 0001:00054fe0       ___AdjustPointer           10055fe0 f   LIBCMTD:frame.obj
 0001:00055030       ___BuildCatchObject        10056030 f   LIBCMTD:frame.obj
 0001:00055140       ___BuildCatchObjectHelper  10056140 f   LIBCMTD:frame.obj
 0001:000553c0       ___CxxDetectRethrow        100563c0 f   LIBCMTD:frame.obj
 0001:00055440       ___CxxExceptionFilter      10056440 f   LIBCMTD:frame.obj
 0001:00055640       ___CxxQueryExceptionSize   10056640 f   LIBCMTD:frame.obj
 0001:00055650       ___CxxRegisterExceptionObject 10056650 f   LIBCMTD:frame.obj
 0001:00055790       ___CxxUnregisterExceptionObject 10056790 f   LIBCMTD:frame.obj
 0001:00055910       ___FrameUnwindFilter       10056910 f   LIBCMTD:frame.obj
 0001:00055990       ___FrameUnwindToState      10056990 f   LIBCMTD:frame.obj
 0001:00055b10       ___InternalCxxFrameHandler 10056b10 f   LIBCMTD:frame.obj
 0001:00055c80       ___TypeMatch               10056c80 f   LIBCMTD:frame.obj
 0001:00055d5c       __fFATN2                   10056d5c     LIBCMTD:87triga.obj
 0001:00055dac       __rtpiby2                  10056dac     LIBCMTD:87triga.obj
 0001:00055df0       __cintrindisp2             10056df0 f   LIBCMTD:87cdisp.obj
 0001:00055e2e       __cintrindisp1             10056e2e f   LIBCMTD:87cdisp.obj
 0001:00055e6b       __ctrandisp2               10056e6b f   LIBCMTD:87cdisp.obj
 0001:00055ffa       __ctrandisp1               10056ffa f   LIBCMTD:87cdisp.obj
 0001:0005602d       __fload                    1005702d f   LIBCMTD:87cdisp.obj
 0001:00056070       __CIatan_pentium4          10057070 f   LIBCMTD:atan_pentium4.obj
 0001:00056088       __atan_pentium4            10057088     LIBCMTD:atan_pentium4.obj
 0001:00056360       __CIcos_pentium4           10057360 f   LIBCMTD:cos_pentium4.obj
 0001:00056378       __cos_pentium4             10057378     LIBCMTD:cos_pentium4.obj
 0001:00056510       __CIexp_pentium4           10057510 f   LIBCMTD:exp_pentium4.obj
 0001:00056528       __exp_pentium4             10057528     LIBCMTD:exp_pentium4.obj
 0001:000567e1       __fFEXP                    100577e1     LIBCMTD:87tran.obj
 0001:00056838       __rtinfpopse               10057838     LIBCMTD:87tran.obj
 0001:0005683a       __rtinfnpopse              1005783a     LIBCMTD:87tran.obj
 0001:0005684a       __fFLN                     1005784a     LIBCMTD:87tran.obj
 0001:000568ff       __rtinfpop                 100578ff     LIBCMTD:87tran.obj
 0001:00056901       __rtinfnpop                10057901     LIBCMTD:87tran.obj
 0001:0005691e       __ffexpm1                  1005791e     LIBCMTD:87tran.obj
 0001:000569d0       __CIsin_pentium4           100579d0 f   LIBCMTD:sin_pentium4.obj
 0001:000569e8       __sin_pentium4             100579e8     LIBCMTD:sin_pentium4.obj
 0001:00056ba0       __vsnprintf                10057ba0 f   LIBCMTD:vsnprint.obj
 0001:00056bc0       __vsnprintf_l              10057bc0 f   LIBCMTD:vsnprint.obj
 0001:00056da0       __CIasin_pentium4          10057da0 f   LIBCMTD:asin_pentium4.obj
 0001:00056db8       __asin_pentium4            10057db8     LIBCMTD:asin_pentium4.obj
 0001:00057320       __allshl                   10058320 f   LIBCMTD:llshl.obj
 0001:00057340       __aulldiv                  10058340 f   LIBCMTD:ulldiv.obj
 0001:000573b0       __ceil_default             100583b0 f   LIBCMTD:ceil.obj
 0001:000574f0       __CItan_pentium4           100584f0 f   LIBCMTD:tan_pentium4.obj
 0001:00057508       __tan_pentium4             10058508     LIBCMTD:tan_pentium4.obj
 0001:00057750       __FF_MSGBANNER             10058750 f   LIBCMTD:crt0msg.obj
 0001:000577a0       __GET_RTERRMSG             100587a0 f   LIBCMTD:crt0msg.obj
 0001:000577e0       __NMSG_WRITE               100587e0 f   LIBCMTD:crt0msg.obj
 0001:00057ba0       __set_abort_behavior       10058ba0 f   LIBCMTD:abort.obj
 0001:00057bd0       _abort                     10058bd0 f   LIBCMTD:abort.obj
 0001:00057c40       ___getlocaleinfo           10058c40 f   LIBCMTD:inithelp.obj
 0001:00057f40       __initp_misc_purevirt      10058f40 f   LIBCMTD:inithelp.obj
 0001:00057f50       __XcptFilter               10058f50 f   LIBCMTD:winxfltr.obj
 0001:00058150       ___CppXcptFilter           10059150 f   LIBCMTD:winxfltr.obj
 0001:000581e0       __get_heap_handle          100591e0 f   LIBCMTD:heapinit.obj
 0001:00058220       __heap_init                10059220 f   LIBCMTD:heapinit.obj
 0001:00058250       __heap_term                10059250 f   LIBCMTD:heapinit.obj
 0001:00058260       __set_pgmptr               10059260 f i LIBCMTD:stdargv.obj
 0001:00058270       __setargv                  10059270 f   LIBCMTD:stdargv.obj
 0001:00058740       __setenvp                  10059740 f   LIBCMTD:stdenvp.obj
 0001:000588e0       ___security_init_cookie    100598e0 f   LIBCMTD:gs_support.obj
 0001:000589c0       _DllMain@12                100599c0 f   LIBCMTD:dllmain.obj
 0001:000589d0       ___crtGetEnvironmentStringsA 100599d0 f   LIBCMTD:a_env.obj
 0001:00058b20       ___crtCloseThreadpoolTimer 10059b20 f   LIBCMTD:winapisupp.obj
 0001:00058b50       ___crtCloseThreadpoolWait  10059b50 f   LIBCMTD:winapisupp.obj
 0001:00058b80       ___crtCreateSemaphoreExW@24 10059b80 f   LIBCMTD:winapisupp.obj
 0001:00058be0       ___crtCreateSymbolicLinkW  10059be0 f   LIBCMTD:winapisupp.obj
 0001:00058c20       ___crtCreateThreadpoolTimer 10059c20 f   LIBCMTD:winapisupp.obj
 0001:00058c60       ___crtCreateThreadpoolWait 10059c60 f   LIBCMTD:winapisupp.obj
 0001:00058ca0       ___crtFlsAlloc             10059ca0 f   LIBCMTD:winapisupp.obj
 0001:00058cd0       ___crtFlsFree              10059cd0 f   LIBCMTD:winapisupp.obj
 0001:00058d10       ___crtFlsGetValue          10059d10 f   LIBCMTD:winapisupp.obj
 0001:00058d50       ___crtFlsSetValue          10059d50 f   LIBCMTD:winapisupp.obj
 0001:00058d90       ___crtFlushProcessWriteBuffers 10059d90 f   LIBCMTD:winapisupp.obj
 0001:00058dc0       ___crtFreeLibraryWhenCallbackReturns 10059dc0 f   LIBCMTD:winapisupp.obj
 0001:00058df0       ___crtGetCurrentProcessorNumber 10059df0 f   LIBCMTD:winapisupp.obj
 0001:00058e20       ___crtGetLogicalProcessorInformation 10059e20 f   LIBCMTD:winapisupp.obj
 0001:00058e60       ___crtGetShowWindowMode    10059e60 f   LIBCMTD:winapisupp.obj
 0001:00058e90       ___crtInitializeCriticalSectionEx 10059e90 f   LIBCMTD:winapisupp.obj
 0001:00058ee0       ___crtIsPackagedApp        10059ee0 f   LIBCMTD:winapisupp.obj
 0001:00058f20       ___crtLoadWinApiPointers   10059f20 f   LIBCMTD:winapisupp.obj
 0001:00059330       ___crtSetThreadStackGuarantee 1005a330 f   LIBCMTD:winapisupp.obj
 0001:00059360       ___crtSetThreadpoolTimer   1005a360 f   LIBCMTD:winapisupp.obj
 0001:000593a0       ___crtSetThreadpoolWait    1005a3a0 f   LIBCMTD:winapisupp.obj
 0001:000593d0       ___crtSetUnhandledExceptionFilter 1005a3d0 f   LIBCMTD:winapisupp.obj
 0001:000593e0       ___crtTerminateProcess     1005a3e0 f   LIBCMTD:winapisupp.obj
 0001:00059400       ___crtUnhandledException   1005a400 f   LIBCMTD:winapisupp.obj
 0001:00059420       ___crtWaitForThreadpoolTimerCallbacks 1005a420 f   LIBCMTD:winapisupp.obj
 0001:00059450       __RTC_Initialize           1005a450 f   LIBCMTD:initsect.obj
 0001:00059480       __RTC_Terminate            1005a480 f   LIBCMTD:initsect.obj
 0001:000594b0       __CIacos_pentium4          1005a4b0 f   LIBCMTD:acos_pentium4.obj
 0001:000594c8       __acos_pentium4            1005a4c8     LIBCMTD:acos_pentium4.obj
 0001:00059a10       __FindPESection            1005aa10 f   LIBCMTD:pesect.obj
 0001:00059a90       __IsNonwritableInCurrentImage 1005aa90 f   LIBCMTD:pesect.obj
 0001:00059bc0       __ValidateImageBase        1005abc0 f   LIBCMTD:pesect.obj
 0001:00059c20       __initp_misc_rand_s        1005ac20 f   LIBCMTD:rand_s.obj
 0001:00059c30       _rand_s                    1005ac30 f   LIBCMTD:rand_s.obj
 0001:00059ea0       ___fpecode                 1005aea0 f   LIBCMTD:winsig.obj
 0001:00059eb0       ___get_sigabrt             1005aeb0 f   LIBCMTD:winsig.obj
 0001:00059ed0       ___pxcptinfoptrs           1005aed0 f   LIBCMTD:winsig.obj
 0001:00059ee0       __initp_misc_winsig        1005aee0 f   LIBCMTD:winsig.obj
 0001:0005a000       _raise                     1005b000 f   LIBCMTD:winsig.obj
 0001:0005a370       _signal                    1005b370 f   LIBCMTD:winsig.obj
 0001:0005a720       ___initmbctable            1005b720 f   LIBCMTD:mbctype.obj
 0001:0005ad40       ___updatetmbcinfo          1005bd40 f   LIBCMTD:mbctype.obj
 0001:0005ae50       __getmbcp                  1005be50 f   LIBCMTD:mbctype.obj
 0001:0005aec0       __setmbcp                  1005bec0 f   LIBCMTD:mbctype.obj
 0001:0005b160       __setmbcp_nolock           1005c160 f   LIBCMTD:mbctype.obj
 0001:0005b4e0       __fcloseall                1005c4e0 f   LIBCMTD:closeall.obj
 0001:0005b610       __output_p_l               1005c610 f   LIBCMTD:outputp.obj
 0001:0005f400       __validate_param_reuseA    10060400 f   LIBCMTD:outputp.obj
 0001:0005f6f0       _get_crtdouble_arg         100606f0 f i LIBCMTD:outputp.obj
 0001:0005f8b0       __87except                 100608b0 f   LIBCMTD:87except.obj
 0001:0005fee0       ?_RTC_GetSrcLine@@YAHPAEPA_WKPAH1K@Z 10060ee0 f   LIBCMTD:pdblkup.obj
 0001:00060190       __CrtDbgReport             10061190 f   LIBCMTD:dbgrpt.obj
 0001:000601e0       __CrtDbgReportV            100611e0 f i LIBCMTD:dbgrpt.obj
 0001:00060210       __CrtSetReportHook2        10061210 f   LIBCMTD:dbgrpt.obj
 0001:00060560       ___crtMessageWindowA       10061560 f   LIBCMTD:dbgrpt.obj
 0001:00060a00       _strcpy_s                  10061a00 f   LIBCMTD:strcpy_s.obj
 0001:00060d00       __heap_alloc_base          10061d00 f i LIBCMTD:malloc.obj
 0001:00060d60       __malloc_base              10061d60 f   LIBCMTD:malloc.obj
 0001:00060df0       __free_base                10061df0 f   LIBCMTD:free.obj
 0001:00060e40       ??0Block@_HeapManager@@QAE@XZ 10061e40 f i LIBCMTD:undname.obj
 0001:00060e60       ??0DName@@QAE@AAPBDD@Z     10061e60 f   LIBCMTD:undname.obj
 0001:00061120       ??0DName@@QAE@ABV0@@Z      10062120 f i LIBCMTD:undname.obj
 0001:00061140       ??0DName@@QAE@D@Z          10062140 f   LIBCMTD:undname.obj
 0001:00061220       ??0DName@@QAE@PAV0@@Z      10062220 f   LIBCMTD:undname.obj
 0001:00061360       ??0DName@@QAE@PBD@Z        10062360 f   LIBCMTD:undname.obj
 0001:00061450       ??0DName@@QAE@W4DNameStatus@@@Z 10062450 f   LIBCMTD:undname.obj
 0001:00061570       ??0DName@@QAE@XZ           10062570 f i LIBCMTD:undname.obj
 0001:00061630       ??0DName@@QAE@_J@Z         10062630 f   LIBCMTD:undname.obj
 0001:000617b0       ??0DName@@QAE@_K@Z         100627b0 f   LIBCMTD:undname.obj
 0001:000618f0       ??0DNameNode@@IAE@XZ       100628f0 f   LIBCMTD:undname.obj
 0001:00061910       ??0DNameStatusNode@@AAE@W4DNameStatus@@@Z 10062910 f   LIBCMTD:undname.obj
 0001:00061960       ??0Replicator@@QAE@XZ      10062960 f i LIBCMTD:undname.obj
 0001:00061980       ??0UnDecorator@@QAE@PADPBDHP6APADJ@ZK@Z 10062980 f i LIBCMTD:undname.obj
 0001:00061a20       ??0charNode@@QAE@D@Z       10062a20 f   LIBCMTD:undname.obj
 0001:00061a50       ??0pDNameNode@@QAE@PAVDName@@@Z 10062a50 f   LIBCMTD:undname.obj
 0001:00061ab0       ??0pairNode@@QAE@PAVDNameNode@@0@Z 10062ab0 f   LIBCMTD:undname.obj
 0001:00061af0       ??0pcharNode@@QAE@PBDH@Z   10062af0 f   LIBCMTD:undname.obj
 0001:00061b90       ??2@YAPAXIAAV_HeapManager@@H@Z 10062b90 f i LIBCMTD:undname.obj
 0001:00061bb0       ??4DName@@QAEAAV0@ABV0@@Z  10062bb0 f   LIBCMTD:undname.obj
 0001:00061bd0       ??4DName@@QAEAAV0@D@Z      10062bd0 f i LIBCMTD:undname.obj
 0001:00061cb0       ??4DName@@QAEAAV0@PAV0@@Z  10062cb0 f   LIBCMTD:undname.obj
 0001:00061de0       ??4DName@@QAEAAV0@PBD@Z    10062de0 f   LIBCMTD:undname.obj
 0001:00061ec0       ??4DName@@QAEAAV0@W4DNameStatus@@@Z 10062ec0 f   LIBCMTD:undname.obj
 0001:00061fc0       ??AReplicator@@QBE?AVDName@@H@Z 10062fc0 f   LIBCMTD:undname.obj
 0001:00062030       ??BUnDecorator@@QAEPADXZ   10063030 f i LIBCMTD:undname.obj
 0001:000622c0       ??H@YA?AVDName@@DABV0@@Z   100632c0 f i LIBCMTD:undname.obj
 0001:000622f0       ??H@YA?AVDName@@PBDABV0@@Z 100632f0 f i LIBCMTD:undname.obj
 0001:00062320       ??H@YA?AVDName@@W4DNameStatus@@ABV0@@Z 10063320 f i LIBCMTD:undname.obj
 0001:00062350       ??HDName@@QBE?AV0@ABV0@@Z  10063350 f   LIBCMTD:undname.obj
 0001:00062390       ??HDName@@QBE?AV0@D@Z      10063390 f   LIBCMTD:undname.obj
 0001:000623d0       ??HDName@@QBE?AV0@PAV0@@Z  100633d0 f   LIBCMTD:undname.obj
 0001:00062410       ??HDName@@QBE?AV0@PBD@Z    10063410 f   LIBCMTD:undname.obj
 0001:00062450       ??HDName@@QBE?AV0@W4DNameStatus@@@Z 10063450 f   LIBCMTD:undname.obj
 0001:00062490       ??YDName@@QAEAAV0@ABV0@@Z  10063490 f   LIBCMTD:undname.obj
 0001:00062500       ??YDName@@QAEAAV0@D@Z      10063500 f   LIBCMTD:undname.obj
 0001:00062580       ??YDName@@QAEAAV0@PAV0@@Z  10063580 f   LIBCMTD:undname.obj
 0001:00062630       ??YDName@@QAEAAV0@PBD@Z    10063630 f   LIBCMTD:undname.obj
 0001:000626d0       ??YDName@@QAEAAV0@W4DNameStatus@@@Z 100636d0 f   LIBCMTD:undname.obj
 0001:00062730       ??YReplicator@@QAEAAV0@ABVDName@@@Z 10063730 f   LIBCMTD:undname.obj
 0001:000627c0       ??_5DName@@QAEAAV0@ABV0@@Z 100637c0 f   LIBCMTD:undname.obj
 0001:00062820       ?Constructor@_HeapManager@@QAEXP6APAXI@ZP6AXPAX@Z@Z 10063820 f i LIBCMTD:undname.obj
 0001:00062860       ?Destructor@_HeapManager@@QAEXXZ 10063860 f i LIBCMTD:undname.obj
 0001:000628b0       ?UScore@UnDecorator@@SAPBDW4Tokens@@@Z 100638b0 f   LIBCMTD:undname.obj
 0001:000628e0       ?append@DName@@AAEXPAVDNameNode@@@Z 100638e0 f   LIBCMTD:undname.obj
 0001:00062970       ?composeDeclaration@UnDecorator@@CA?AVDName@@ABV2@@Z 10063970 f i LIBCMTD:undname.obj
 0001:000645f0       ?dbGetString@DName@@QBEPADXZ 100655f0 f   LIBCMTD:undname.obj
 0001:00064610       ?doAccessSpecifiers@UnDecorator@@SAHXZ 10065610 f i LIBCMTD:undname.obj
 0001:00064640       ?doAllocationLanguage@UnDecorator@@SAHXZ 10065640 f i LIBCMTD:undname.obj
 0001:00064670       ?doAllocationModel@UnDecorator@@SAHXZ 10065670 f i LIBCMTD:undname.obj
 0001:000646a0       ?doEcsu@UnDecorator@@SAHXZ 100656a0 f i LIBCMTD:undname.obj
 0001:000646d0       ?doEllipsis@UnDecorator@@SAHXZ 100656d0 f i LIBCMTD:undname.obj
 0001:00064700       ?doFunctionReturns@UnDecorator@@SAHXZ 10065700 f i LIBCMTD:undname.obj
 0001:00064730       ?doMSKeywords@UnDecorator@@SAHXZ 10065730 f i LIBCMTD:undname.obj
 0001:00064760       ?doMemberTypes@UnDecorator@@SAHXZ 10065760 f i LIBCMTD:undname.obj
 0001:00064790       ?doNameOnly@UnDecorator@@SAHXZ 10065790 f i LIBCMTD:undname.obj
 0001:000647a0       ?doNoIdentCharCheck@UnDecorator@@SAHXZ 100657a0 f i LIBCMTD:undname.obj
 0001:000647b0       ?doPchar@DName@@AAEXPBDH@Z 100657b0 f   LIBCMTD:undname.obj
 0001:000648f0       ?doPtr64@UnDecorator@@SAHXZ 100658f0 f i LIBCMTD:undname.obj
 0001:00064920       ?doRestrictionSpec@UnDecorator@@SAHXZ 10065920 f i LIBCMTD:undname.obj
 0001:00064950       ?doThisTypes@UnDecorator@@SAHXZ 10065950 f i LIBCMTD:undname.obj
 0001:00064980       ?doThrowTypes@UnDecorator@@SAHXZ 10065980 f i LIBCMTD:undname.obj
 0001:000649b0       ?doTypeOnly@UnDecorator@@SAHXZ 100659b0 f i LIBCMTD:undname.obj
 0001:000649c0       ?doUnderScore@UnDecorator@@SAHXZ 100659c0 f i LIBCMTD:undname.obj
 0001:000649f0       ?getArgumentList@UnDecorator@@CA?AVDName@@XZ 100659f0 f   LIBCMTD:undname.obj
 0001:00064b40       ?getArgumentTypes@UnDecorator@@CA?AVDName@@XZ 10065b40 f   LIBCMTD:undname.obj
 0001:00064ca0       ?getArrayType@UnDecorator@@CA?AVDName@@ABV2@@Z 10065ca0 f i LIBCMTD:undname.obj
 0001:00064ee0       ?getBasedType@UnDecorator@@CA?AVDName@@XZ 10065ee0 f   LIBCMTD:undname.obj
 0001:00064fa0       ?getBasicDataType@UnDecorator@@CA?AVDName@@ABV2@@Z 10065fa0 f   LIBCMTD:undname.obj
 0001:00065560       ?getCallIndex@UnDecorator@@CA?AVDName@@XZ 10066560 f i LIBCMTD:undname.obj
 0001:00065580       ?getCallingConvention@UnDecorator@@CA?AVDName@@XZ 10066580 f   LIBCMTD:undname.obj
 0001:000656f0       ?getDataIndirectType@UnDecorator@@CA?AVDName@@ABV2@PBD0H@Z 100666f0 f   LIBCMTD:undname.obj
 0001:00065e00       ?getDataIndirectType@UnDecorator@@CA?AVDName@@XZ 10066e00 f i LIBCMTD:undname.obj
 0001:00065e40       ?getDataType@UnDecorator@@CA?AVDName@@PAV2@@Z 10066e40 f   LIBCMTD:undname.obj
 0001:00065f60       ?getDecoratedName@UnDecorator@@CA?AVDName@@XZ 10066f60 f   LIBCMTD:undname.obj
 0001:00066290       ?getDimension@UnDecorator@@CA?AVDName@@_N@Z 10067290 f   LIBCMTD:undname.obj
 0001:00066540       ?getDispatchTarget@UnDecorator@@CA?AVDName@@XZ 10067540 f   LIBCMTD:undname.obj
 0001:000665e0       ?getDisplacement@UnDecorator@@CA?AVDName@@XZ 100675e0 f i LIBCMTD:undname.obj
 0001:00066600       ?getECSUDataType@UnDecorator@@CA?AVDName@@XZ 10067600 f   LIBCMTD:undname.obj
 0001:000667d0       ?getECSUName@UnDecorator@@CA?AVDName@@XZ 100677d0 f i LIBCMTD:undname.obj
 0001:000667f0       ?getEnumType@UnDecorator@@CA?AVDName@@XZ 100677f0 f i LIBCMTD:undname.obj
 0001:00066940       ?getExtendedDataIndirectType@UnDecorator@@CA?AVDName@@AAPBDAA_NH@Z 10067940 f   LIBCMTD:undname.obj
 0001:00066b90       ?getExternalDataType@UnDecorator@@CA?AVDName@@ABV2@@Z 10067b90 f i LIBCMTD:undname.obj
 0001:00066c20       ?getFunctionIndirectType@UnDecorator@@CA?AVDName@@ABV2@@Z 10067c20 f   LIBCMTD:undname.obj
 0001:00067090       ?getGuardNumber@UnDecorator@@CA?AVDName@@XZ 10068090 f i LIBCMTD:undname.obj
 0001:000670b0       ?getLastChar@DName@@QBEDXZ 100680b0 f i LIBCMTD:undname.obj
 0001:000670e0       ?getLastChar@DNameStatusNode@@UBEDXZ 100680e0 f i LIBCMTD:undname.obj
 0001:00067110       ?getLastChar@charNode@@UBEDXZ 10068110 f i LIBCMTD:undname.obj
 0001:00067130       ?getLastChar@pDNameNode@@UBEDXZ 10068130 f i LIBCMTD:undname.obj
 0001:00067160       ?getLastChar@pairNode@@UBEDXZ 10068160 f i LIBCMTD:undname.obj
 0001:000671b0       ?getLastChar@pcharNode@@UBEDXZ 100681b0 f i LIBCMTD:undname.obj
 0001:000671f0       ?getLexicalFrame@UnDecorator@@CA?AVDName@@XZ 100681f0 f i LIBCMTD:undname.obj
 0001:00067230       ?getMemory@_HeapManager@@QAEPAXIH@Z 10068230 f   LIBCMTD:undname.obj
 0001:00067340       ?getNumberOfDimensions@UnDecorator@@CAHXZ 10068340 f   LIBCMTD:undname.obj
 0001:00067440       ?getOperatorName@UnDecorator@@CA?AVDName@@_NPA_N@Z 10068440 f i LIBCMTD:undname.obj
 0001:00067dd0       ?getPointerType@UnDecorator@@CA?AVDName@@ABV2@0@Z 10068dd0 f i LIBCMTD:undname.obj
 0001:00067e00       ?getPointerTypeArray@UnDecorator@@CA?AVDName@@ABV2@0@Z 10068e00 f i LIBCMTD:undname.obj
 0001:00067e30       ?getPrimaryDataType@UnDecorator@@CA?AVDName@@ABV2@@Z 10068e30 f   LIBCMTD:undname.obj
 0001:000681d0       ?getPtrRefDataType@UnDecorator@@CA?AVDName@@ABV2@H@Z 100691d0 f i LIBCMTD:undname.obj
 0001:00068310       ?getPtrRefType@UnDecorator@@CA?AVDName@@ABV2@0PBD@Z 10069310 f   LIBCMTD:undname.obj
 0001:00068480       ?getReferenceType@UnDecorator@@CA?AVDName@@ABV2@0PBD@Z 10069480 f i LIBCMTD:undname.obj
 0001:000684a0       ?getRestrictionSpec@UnDecorator@@CA?AVDName@@XZ 100694a0 f   LIBCMTD:undname.obj
 0001:000685f0       ?getReturnType@UnDecorator@@CA?AVDName@@PAV2@@Z 100695f0 f   LIBCMTD:undname.obj
 0001:00068640       ?getScope@UnDecorator@@CA?AVDName@@XZ 10069640 f   LIBCMTD:undname.obj
 0001:00068b30       ?getScopedName@UnDecorator@@CA?AVDName@@XZ 10069b30 f   LIBCMTD:undname.obj
 0001:00068c50       ?getSignedDimension@UnDecorator@@CA?AVDName@@XZ 10069c50 f   LIBCMTD:undname.obj
 0001:00068cd0       ?getStorageConvention@UnDecorator@@CA?AVDName@@XZ 10069cd0 f i LIBCMTD:undname.obj
 0001:00068cf0       ?getString@DName@@QBEPADPAD0@Z 10069cf0 f i LIBCMTD:undname.obj
 0001:00068d30       ?getString@DName@@QBEPADPADH@Z 10069d30 f i LIBCMTD:undname.obj
 0001:00068dc0       ?getString@DNameStatusNode@@UBEPADPAD0@Z 10069dc0 f i LIBCMTD:undname.obj
 0001:00068e00       ?getString@charNode@@UBEPADPAD0@Z 10069e00 f i LIBCMTD:undname.obj
 0001:00068e30       ?getString@pDNameNode@@UBEPADPAD0@Z 10069e30 f i LIBCMTD:undname.obj
 0001:00068e70       ?getString@pairNode@@UBEPADPAD0@Z 10069e70 f i LIBCMTD:undname.obj
 0001:00068ed0       ?getString@pcharNode@@UBEPADPAD0@Z 10069ed0 f i LIBCMTD:undname.obj
 0001:00068f00       ?getStringEncoding@UnDecorator@@CA?AVDName@@PADH@Z 10069f00 f   LIBCMTD:undname.obj
 0001:00069010       ?getStringHelper@@YAPADPAD00H@Z 1006a010 f i LIBCMTD:undname.obj
 0001:00069050       ?getSymbolName@UnDecorator@@CA?AVDName@@XZ 1006a050 f i LIBCMTD:undname.obj
 0001:000690e0       ?getTemplateArgumentList@UnDecorator@@CA?AVDName@@XZ 1006a0e0 f   LIBCMTD:undname.obj
 0001:00069360       ?getTemplateConstant@UnDecorator@@CA?AVDName@@XZ 1006a360 f   LIBCMTD:undname.obj
 0001:00069830       ?getTemplateName@UnDecorator@@CA?AVDName@@_N@Z 1006a830 f   LIBCMTD:undname.obj
 0001:00069a00       ?getThisType@UnDecorator@@CA?AVDName@@XZ 1006aa00 f i LIBCMTD:undname.obj
 0001:00069a40       ?getThrowTypes@UnDecorator@@CA?AVDName@@XZ 1006aa40 f   LIBCMTD:undname.obj
 0001:00069af0       ?getTypeEncoding@UnDecorator@@CAHXZ 1006aaf0 f i LIBCMTD:undname.obj
 0001:0006a530       ?getVCallThunkType@UnDecorator@@CA?AVDName@@XZ 1006b530 f i LIBCMTD:undname.obj
 0001:0006a590       ?getVbTableType@UnDecorator@@CA?AVDName@@ABV2@@Z 1006b590 f i LIBCMTD:undname.obj
 0001:0006a5b0       ?getVdispMapType@UnDecorator@@CA?AVDName@@ABV2@@Z 1006b5b0 f i LIBCMTD:undname.obj
 0001:0006a620       ?getVfTableType@UnDecorator@@CA?AVDName@@ABV2@@Z 1006b620 f i LIBCMTD:undname.obj
 0001:0006a7e0       ?getZName@UnDecorator@@CA?AVDName@@_N0@Z 1006b7e0 f   LIBCMTD:undname.obj
 0001:0006aa90       ?haveTemplateParameters@UnDecorator@@SAHXZ 1006ba90 f i LIBCMTD:undname.obj
 0001:0006aaa0       ?isArray@DName@@QBEHXZ     1006baa0 f i LIBCMTD:undname.obj
 0001:0006aac0       ?isComArray@DName@@QBEHXZ  1006bac0 f i LIBCMTD:undname.obj
 0001:0006aae0       ?isEmpty@DName@@QBEHXZ     1006bae0 f i LIBCMTD:undname.obj
 0001:0006ab10       ?isFull@Replicator@@QBEHXZ 1006bb10 f i LIBCMTD:undname.obj
 0001:0006ab40       ?isNoTE@DName@@QBEHXZ      1006bb40 f i LIBCMTD:undname.obj
 0001:0006ab60       ?isPinPtr@DName@@QBEHXZ    1006bb60 f i LIBCMTD:undname.obj
 0001:0006ab80       ?isPtrRef@DName@@QBEHXZ    1006bb80 f i LIBCMTD:undname.obj
 0001:0006aba0       ?isUDC@DName@@QBEHXZ       1006bba0 f i LIBCMTD:undname.obj
 0001:0006abe0       ?isUDTThunk@DName@@QBEHXZ  1006bbe0 f i LIBCMTD:undname.obj
 0001:0006ac20       ?isVCallThunk@DName@@QBEHXZ 1006bc20 f i LIBCMTD:undname.obj
 0001:0006ac40       ?isValid@DName@@QBEHXZ     1006bc40 f i LIBCMTD:undname.obj
 0001:0006ac80       ?length@DName@@QBEHXZ      1006bc80 f i LIBCMTD:undname.obj
 0001:0006acb0       ?length@DNameStatusNode@@UBEHXZ 1006bcb0 f i LIBCMTD:undname.obj
 0001:0006acd0       ?length@charNode@@UBEHXZ   1006bcd0 f i LIBCMTD:undname.obj
 0001:0006ace0       ?length@pDNameNode@@UBEHXZ 1006bce0 f i LIBCMTD:undname.obj
 0001:0006ad10       ?length@pairNode@@UBEHXZ   1006bd10 f i LIBCMTD:undname.obj
 0001:0006ad60       ?length@pcharNode@@UBEHXZ  1006bd60 f i LIBCMTD:undname.obj
 0001:0006ad80       ?make@DNameStatusNode@@SAPAV1@W4DNameStatus@@@Z 1006bd80 f i LIBCMTD:undname.obj
 0001:0006ae30       ?setIsArray@DName@@QAEXXZ  1006be30 f i LIBCMTD:undname.obj
 0001:0006ae50       ?setIsComArray@DName@@QAEXXZ 1006be50 f i LIBCMTD:undname.obj
 0001:0006ae70       ?setIsNoTE@DName@@QAEXXZ   1006be70 f i LIBCMTD:undname.obj
 0001:0006ae90       ?setIsPinPtr@DName@@QAEXXZ 1006be90 f i LIBCMTD:undname.obj
 0001:0006aeb0       ?setIsUDC@DName@@QAEXXZ    1006beb0 f i LIBCMTD:undname.obj
 0001:0006aee0       ?setIsVCallThunk@DName@@QAEXXZ 1006bee0 f i LIBCMTD:undname.obj
 0001:0006af00       ?setPtrRef@DName@@QAEAAV1@XZ 1006bf00 f i LIBCMTD:undname.obj
 0001:0006af20       ?status@DName@@QBE?AW4DNameStatus@@XZ 1006bf20 f i LIBCMTD:undname.obj
 0001:0006b020       ___unDName                 1006c020 f   LIBCMTD:undname.obj
 0001:0006b0f0       ___unDNameEx               1006c0f0 f   LIBCMTD:undname.obj
 0001:0006b1d0       ___addlocaleref            1006c1d0 f   LIBCMTD:localref.obj
 0001:0006b2f0       ___freetlocinfo            1006c2f0 f   LIBCMTD:localref.obj
 0001:0006b5e0       ___removelocaleref         1006c5e0 f   LIBCMTD:localref.obj
 0001:0006b700       ___updatetlocinfo          1006c700 f   LIBCMTD:localref.obj
 0001:0006b7d0       __updatetlocinfoEx_nolock  1006c7d0 f   LIBCMTD:localref.obj
 0001:0006b850       ___isascii                 1006c850 f i LIBCMTD:_ctype.obj
 0001:0006b880       ___iscsym                  1006c880 f i LIBCMTD:_ctype.obj
 0001:0006b8c0       ___iscsymf                 1006c8c0 f i LIBCMTD:_ctype.obj
 0001:0006b900       ___toascii                 1006c900 f i LIBCMTD:_ctype.obj
 0001:0006b910       __isalnum_l                1006c910 f i LIBCMTD:_ctype.obj
 0001:0006b990       __isalpha_l                1006c990 f i LIBCMTD:_ctype.obj
 0001:0006ba10       __iscntrl_l                1006ca10 f i LIBCMTD:_ctype.obj
 0001:0006ba90       __iscsym_l                 1006ca90 f i LIBCMTD:_ctype.obj
 0001:0006bad0       __iscsymf_l                1006cad0 f i LIBCMTD:_ctype.obj
 0001:0006bb10       __isdigit_l                1006cb10 f i LIBCMTD:_ctype.obj
 0001:0006bb90       __isgraph_l                1006cb90 f i LIBCMTD:_ctype.obj
 0001:0006bc10       __islower_l                1006cc10 f i LIBCMTD:_ctype.obj
 0001:0006bc90       __isprint_l                1006cc90 f i LIBCMTD:_ctype.obj
 0001:0006bd10       __ispunct_l                1006cd10 f i LIBCMTD:_ctype.obj
 0001:0006bd90       __isspace_l                1006cd90 f i LIBCMTD:_ctype.obj
 0001:0006be10       __isupper_l                1006ce10 f i LIBCMTD:_ctype.obj
 0001:0006be90       __isxdigit_l               1006ce90 f i LIBCMTD:_ctype.obj
 0001:0006bf10       _isalnum                   1006cf10 f i LIBCMTD:_ctype.obj
 0001:0006bf50       _isalpha                   1006cf50 f i LIBCMTD:_ctype.obj
 0001:0006bf90       _iscntrl                   1006cf90 f i LIBCMTD:_ctype.obj
 0001:0006bfc0       _isdigit                   1006cfc0 f i LIBCMTD:_ctype.obj
 0001:0006bff0       _isgraph                   1006cff0 f i LIBCMTD:_ctype.obj
 0001:0006c030       _islower                   1006d030 f i LIBCMTD:_ctype.obj
 0001:0006c060       _isprint                   1006d060 f i LIBCMTD:_ctype.obj
 0001:0006c0a0       _ispunct                   1006d0a0 f i LIBCMTD:_ctype.obj
 0001:0006c0d0       _isspace                   1006d0d0 f i LIBCMTD:_ctype.obj
 0001:0006c100       _isupper                   1006d100 f i LIBCMTD:_ctype.obj
 0001:0006c130       _isxdigit                  1006d130 f i LIBCMTD:_ctype.obj
 0001:0006c170       __tolower                  1006d170 f   LIBCMTD:tolower.obj
 0001:0006c180       __tolower_l                1006d180 f   LIBCMTD:tolower.obj
 0001:0006c3c0       _tolower                   1006d3c0 f   LIBCMTD:tolower.obj
 0001:0006c410       _memmove                   1006d410 f   LIBCMTD:memmove.obj
 0001:0006ca60       __fptostr                  1006da60 f   LIBCMTD:_fptostr.obj
 0001:0006cd80       __atodbl                   1006dd80 f   LIBCMTD:atodbl.obj
 0001:0006cda0       __atodbl_l                 1006dda0 f   LIBCMTD:atodbl.obj
 0001:0006cea0       __atoflt                   1006dea0 f   LIBCMTD:atodbl.obj
 0001:0006cec0       __atoflt_l                 1006dec0 f   LIBCMTD:atodbl.obj
 0001:0006cfc0       __atoldbl                  1006dfc0 f   LIBCMTD:atodbl.obj
 0001:0006cfe0       __atoldbl_l                1006dfe0 f   LIBCMTD:atodbl.obj
 0001:0006d0e0       ___dtold                   1006e0e0 f   LIBCMTD:cfout.obj
 0001:0006d240       __fltout2                  1006e240 f   LIBCMTD:cfout.obj
 0001:0006d2f0       __alldiv                   1006e2f0 f   LIBCMTD:lldiv.obj
 0001:0006d3a0       __allrem                   1006e3a0 f   LIBCMTD:llrem.obj
 0001:0006d460       __aullshr                  1006e460 f   LIBCMTD:ullshr.obj
 0001:0006d480       __get_output_format        1006e480 f   LIBCMTD:outputformat.obj
 0001:0006d490       __set_output_format        1006e490 f   LIBCMTD:outputformat.obj
 0001:0006d530       __controlfp_s              1006e530 f   LIBCMTD:contrlfp.obj
 0001:0006d620       __fptrap                   1006e620 f   LIBCMTD:crt0fp.obj
 0001:0006d630       _free                      1006e630 f   LIBCMTD:dbgfree.obj
 0001:0006d650       _wcscpy_s                  1006e650 f   LIBCMTD:wcscpy_s.obj
 0001:0006d960       _wcslen                    1006e960 f   LIBCMTD:wcslen.obj
 0001:0006d9a0       ___swprintf_l              1006e9a0 f   LIBCMTD:swprintf.obj
 0001:0006d9d0       __scwprintf                1006e9d0 f   LIBCMTD:swprintf.obj
 0001:0006d9f0       __scwprintf_l              1006e9f0 f   LIBCMTD:swprintf.obj
 0001:0006da20       __scwprintf_p              1006ea20 f   LIBCMTD:swprintf.obj
 0001:0006da40       __scwprintf_p_l            1006ea40 f   LIBCMTD:swprintf.obj
 0001:0006da70       __snwprintf_s              1006ea70 f   LIBCMTD:swprintf.obj
 0001:0006daa0       __snwprintf_s_l            1006eaa0 f   LIBCMTD:swprintf.obj
 0001:0006dad0       __swprintf                 1006ead0 f   LIBCMTD:swprintf.obj
 0001:0006dcf0       __swprintf_p               1006ecf0 f   LIBCMTD:swprintf.obj
 0001:0006dd20       __swprintf_p_l             1006ed20 f   LIBCMTD:swprintf.obj
 0001:0006dd50       __swprintf_s_l             1006ed50 f   LIBCMTD:swprintf.obj
 0001:0006dd80       _swprintf_s                1006ed80 f   LIBCMTD:swprintf.obj
 0001:0006ddb0       ___crtMessageBoxW          1006edb0 f   LIBCMTD:crtmboxw.obj
 0001:0006e0c0       ___crtMessageBoxWaitThreadW@4 1006f0c0 f   LIBCMTD:crtmboxw.obj
 0001:0006e100       __CrtDbgBreak              1006f100 f   LIBCMTD:dbgrptt.obj
 0001:0006e110       __CrtGetReportHook         1006f110 f   LIBCMTD:dbgrptt.obj
 0001:0006e120       __CrtSetReportFile         1006f120 f   LIBCMTD:dbgrptt.obj
 0001:0006e220       __CrtSetReportHook         1006f220 f   LIBCMTD:dbgrptt.obj
 0001:0006e240       __CrtSetReportMode         1006f240 f   LIBCMTD:dbgrptt.obj
 0001:0006e380       __VCrtDbgReportA           1006f380 f   LIBCMTD:dbgrptt.obj
 0001:0006ebf0       __VCrtDbgReportW           1006fbf0 f   LIBCMTD:dbgrptt.obj
 0001:0006f560       __alloca_probe             10070560     LIBCMTD:chkstk.obj
 0001:0006f560       __chkstk                   10070560 f   LIBCMTD:chkstk.obj
 0001:0006f590       __chvalidator              10070590 f   LIBCMTD:isctype.obj
 0001:0006f5e0       __chvalidator_l            100705e0 f   LIBCMTD:isctype.obj
 0001:0006f6a0       __isctype                  100706a0 f   LIBCMTD:isctype.obj
 0001:0006f6e0       __isctype_l                100706e0 f   LIBCMTD:isctype.obj
 0001:0006f830       __realloc_base             10070830 f   LIBCMTD:realloc.obj
 0001:0006f930       __expand_base              10070930 f   LIBCMTD:expand.obj
 0001:0006faa0       __heapchk                  10070aa0 f   LIBCMTD:heapchk.obj
 0001:0006fad0       __heapset                  10070ad0 f   LIBCMTD:heapchk.obj
 0001:0006fae0       __CrtDefaultAllocHook      10070ae0 f   LIBCMTD:dbghook.obj
 0001:0006faf0       __crt_debugger_hook        10070af0 f   LIBCMTD:dbghook.obj
 0001:0006fb00       __matherr                  10070b00 f   LIBCMTD:matherr.obj
 0001:0006fb10       __frnd                     10070b10 f   LIBCMTD:frnd.obj
 0001:0006fb30       ___lock_fhandle            10070b30 f   LIBCMTD:osfinfo.obj
 0001:0006fc20       __alloc_osfhnd             10070c20 f   LIBCMTD:osfinfo.obj
 0001:0006fec0       __free_osfhnd              10070ec0 f   LIBCMTD:osfinfo.obj
 0001:0006ffb0       __get_osfhandle            10070fb0 f   LIBCMTD:osfinfo.obj
 0001:00070130       __open_osfhandle           10071130 f   LIBCMTD:osfinfo.obj
 0001:00070360       __set_osfhnd               10071360 f   LIBCMTD:osfinfo.obj
 0001:00070430       __unlock_fhandle           10071430 f   LIBCMTD:osfinfo.obj
 0001:00070460       __commit                   10071460 f   LIBCMTD:commit.obj
 0001:000706a0       __open                     100716a0 f   LIBCMTD:open.obj
 0001:00070830       __sopen                    10071830 f   LIBCMTD:open.obj
 0001:000708a0       __sopen_helper             100718a0 f   LIBCMTD:open.obj
 0001:00070b30       __sopen_nolock             10071b30 f   LIBCMTD:open.obj
 0001:00070ba0       __sopen_s                  10071ba0 f   LIBCMTD:open.obj
 0001:00070bd0       __mbsnbcmp                 10071bd0 f   LIBCMTD:mbsnbcmp.obj
 0001:00070bf0       __mbsnbcmp_l               10071bf0 f   LIBCMTD:mbsnbcmp.obj
 0001:00070f10       __mbsnbicmp                10071f10 f   LIBCMTD:mbsnbicm.obj
 0001:00070f30       __mbsnbicmp_l              10071f30 f   LIBCMTD:mbsnbicm.obj
 0001:00071470       __global_unwind2           10072470 f   LIBCMTD:exsup.obj
 0001:000714d5       __local_unwind2            100724d5 f   LIBCMTD:exsup.obj
 0001:00071559       __abnormal_termination     10072559 f   LIBCMTD:exsup.obj
 0001:0007157c       __NLG_Notify1              1007257c f   LIBCMTD:exsup.obj
 0001:00071585       __NLG_Notify               10072585 f   LIBCMTD:exsup.obj
 0001:0007159c       __NLG_Dispatch             1007259c     LIBCMTD:exsup.obj
 0001:0007159c       __NLG_Dispatch2            1007259c     LIBCMTD:exsup.obj
 0001:000715a4       __NLG_Call                 100725a4 f   LIBCMTD:exsup.obj
 0001:000715a6       __NLG_Return2              100725a6     LIBCMTD:exsup.obj
 0001:000715b0       __output_s_l               100725b0 f   LIBCMTD:outputs.obj
 0001:00072f50       __isatty                   10073f50 f   LIBCMTD:isatty.obj
 0001:00073010       ___iswcsym                 10074010 f i LIBCMTD:_wctype.obj
 0001:00073050       ___iswcsymf                10074050 f i LIBCMTD:_wctype.obj
 0001:00073090       __isleadbyte_l             10074090 f i LIBCMTD:_wctype.obj
 0001:000730e0       __iswalnum_l               100740e0 f i LIBCMTD:_wctype.obj
 0001:00073100       __iswalpha_l               10074100 f i LIBCMTD:_wctype.obj
 0001:00073120       __iswcntrl_l               10074120 f i LIBCMTD:_wctype.obj
 0001:00073140       __iswcsym_l                10074140 f i LIBCMTD:_wctype.obj
 0001:00073180       __iswcsymf_l               10074180 f i LIBCMTD:_wctype.obj
 0001:000731c0       __iswdigit_l               100741c0 f i LIBCMTD:_wctype.obj
 0001:000731e0       __iswgraph_l               100741e0 f i LIBCMTD:_wctype.obj
 0001:00073200       __iswlower_l               10074200 f i LIBCMTD:_wctype.obj
 0001:00073220       __iswprint_l               10074220 f i LIBCMTD:_wctype.obj
 0001:00073240       __iswpunct_l               10074240 f i LIBCMTD:_wctype.obj
 0001:00073260       __iswspace_l               10074260 f i LIBCMTD:_wctype.obj
 0001:00073280       __iswupper_l               10074280 f i LIBCMTD:_wctype.obj
 0001:000732a0       __iswxdigit_l              100742a0 f i LIBCMTD:_wctype.obj
 0001:000732c0       _isleadbyte                100742c0 f i LIBCMTD:_wctype.obj
 0001:000732e0       _iswalnum                  100742e0 f i LIBCMTD:_wctype.obj
 0001:00073300       _iswalpha                  10074300 f i LIBCMTD:_wctype.obj
 0001:00073320       _iswascii                  10074320 f i LIBCMTD:_wctype.obj
 0001:00073350       _iswcntrl                  10074350 f i LIBCMTD:_wctype.obj
 0001:00073370       _iswdigit                  10074370 f i LIBCMTD:_wctype.obj
 0001:00073390       _iswgraph                  10074390 f i LIBCMTD:_wctype.obj
 0001:000733b0       _iswlower                  100743b0 f i LIBCMTD:_wctype.obj
 0001:000733d0       _iswprint                  100743d0 f i LIBCMTD:_wctype.obj
 0001:000733f0       _iswpunct                  100743f0 f i LIBCMTD:_wctype.obj
 0001:00073410       _iswspace                  10074410 f i LIBCMTD:_wctype.obj
 0001:00073430       _iswupper                  10074430 f i LIBCMTD:_wctype.obj
 0001:00073450       _iswxdigit                 10074450 f i LIBCMTD:_wctype.obj
 0001:00073470       __wctomb_l                 10074470 f   LIBCMTD:wctomb.obj
 0001:000734f0       __wctomb_s_l               100744f0 f   LIBCMTD:wctomb.obj
 0001:00073840       _wctomb                    10074840 f   LIBCMTD:wctomb.obj
 0001:00073890       _wctomb_s                  10074890 f   LIBCMTD:wctomb.obj
 0001:000738b0       __aullrem                  100748b0 f   LIBCMTD:ullrem.obj
 0001:00073930       __getbuf                   10074930 f   LIBCMTD:_getbuf.obj
 0001:00073a00       __lseeki64                 10074a00 f   LIBCMTD:lseeki64.obj
 0001:00073c70       __lseeki64_nolock          10074c70 f   LIBCMTD:lseeki64.obj
 0001:00073d40       __mbtowc_l                 10074d40 f   LIBCMTD:mbtowc.obj
 0001:00073f80       _mbtowc                    10074f80 f   LIBCMTD:mbtowc.obj
 0001:00073fa0       __putwch                   10074fa0 f   LIBCMTD:putwch.obj
 0001:00074030       __putwch_nolock            10075030 f   LIBCMTD:putwch.obj
 0001:00074080       ?_ValidateExecute@@YAHP6GHXZ@Z 10075080 f   LIBCMTD:validate.obj
 0001:000740a0       ?_ValidateRead@@YAHPBXI@Z  100750a0 f   LIBCMTD:validate.obj
 0001:000740c0       ?_ValidateWrite@@YAHPAXI@Z 100750c0 f   LIBCMTD:validate.obj
 0001:000740e0       __d_inttype                100750e0 f   LIBCMTD:powhlp.obj
 0001:00074170       __powhlp                   10075170 f   LIBCMTD:powhlp.obj
 0001:00074320       _wcscat_s                  10075320 f   LIBCMTD:wcscat_s.obj
 0001:00074730       _wcsncpy_s                 10075730 f   LIBCMTD:wcsncpy_s.obj
 0001:00074b60       ___set_app_type            10075b60 f   LIBCMTD:errmode.obj
 0001:00074b70       __set_error_mode           10075b70 f   LIBCMTD:errmode.obj
 0001:00074c30       _strncpy_s                 10075c30 f   LIBCMTD:strncpy_s.obj
 0001:00075160       __MarkAllocaS              10076160 f i LIBCMTD:a_loc.obj
 0001:00075180       ___crtGetLocaleInfoA       10076180 f   LIBCMTD:a_loc.obj
 0001:000751d0       __freea                    100761d0 f i LIBCMTD:a_loc.obj
 0001:00075240       _GetTableIndexFromLcid     10076240 f   LIBCMTD:winapinls.obj
 0001:000752b0       _GetTableIndexFromLocaleName 100762b0 f   LIBCMTD:winapinls.obj
 0001:00075340       ___crtCompareStringEx      10076340 f   LIBCMTD:winapinls.obj
 0001:000753b0       ___crtDownlevelLCIDToLocaleName 100763b0 f   LIBCMTD:winapinls.obj
 0001:00075480       ___crtDownlevelLocaleNameToLCID 10076480 f   LIBCMTD:winapinls.obj
 0001:000754e0       ___crtEnumSystemLocalesEx  100764e0 f   LIBCMTD:winapinls.obj
 0001:00075550       ___crtGetDateFormatEx      10076550 f   LIBCMTD:winapinls.obj
 0001:000755c0       ___crtGetLocaleInfoEx      100765c0 f   LIBCMTD:winapinls.obj
 0001:00075620       ___crtGetTimeFormatEx      10076620 f   LIBCMTD:winapinls.obj
 0001:00075690       ___crtGetUserDefaultLocaleName 10076690 f   LIBCMTD:winapinls.obj
 0001:000756e0       ___crtIsValidLocaleName    100766e0 f   LIBCMTD:winapinls.obj
 0001:00075720       ___crtLCMapStringEx        10076720 f   LIBCMTD:winapinls.obj
 0001:00075790       ___wcsnicmp_ascii          10076790 f   LIBCMTD:winapinls.obj
 0001:00075920       __ismbbalnum               10076920 f   LIBCMTD:ismbbyte.obj
 0001:00075940       __ismbbalnum_l             10076940 f   LIBCMTD:ismbbyte.obj
 0001:00075960       __ismbbalpha               10076960 f   LIBCMTD:ismbbyte.obj
 0001:00075980       __ismbbalpha_l             10076980 f   LIBCMTD:ismbbyte.obj
 0001:000759a0       __ismbbgraph               100769a0 f   LIBCMTD:ismbbyte.obj
 0001:000759c0       __ismbbgraph_l             100769c0 f   LIBCMTD:ismbbyte.obj
 0001:000759e0       __ismbbkalnum              100769e0 f   LIBCMTD:ismbbyte.obj
 0001:00075a00       __ismbbkalnum_l            10076a00 f   LIBCMTD:ismbbyte.obj
 0001:00075a20       __ismbbkana                10076a20 f   LIBCMTD:ismbbyte.obj
 0001:00075a40       __ismbbkana_l              10076a40 f   LIBCMTD:ismbbyte.obj
 0001:00075ab0       __ismbbkprint              10076ab0 f   LIBCMTD:ismbbyte.obj
 0001:00075ad0       __ismbbkprint_l            10076ad0 f   LIBCMTD:ismbbyte.obj
 0001:00075af0       __ismbbkpunct              10076af0 f   LIBCMTD:ismbbyte.obj
 0001:00075b10       __ismbbkpunct_l            10076b10 f   LIBCMTD:ismbbyte.obj
 0001:00075b30       __ismbblead                10076b30 f   LIBCMTD:ismbbyte.obj
 0001:00075b50       __ismbblead_l              10076b50 f   LIBCMTD:ismbbyte.obj
 0001:00075b70       __ismbbprint               10076b70 f   LIBCMTD:ismbbyte.obj
 0001:00075b90       __ismbbprint_l             10076b90 f   LIBCMTD:ismbbyte.obj
 0001:00075bb0       __ismbbpunct               10076bb0 f   LIBCMTD:ismbbyte.obj
 0001:00075bd0       __ismbbpunct_l             10076bd0 f   LIBCMTD:ismbbyte.obj
 0001:00075bf0       __ismbbtrail               10076bf0 f   LIBCMTD:ismbbyte.obj
 0001:00075c10       __ismbbtrail_l             10076c10 f   LIBCMTD:ismbbyte.obj
 0001:00075f20       ___crtLCMapStringA         10076f20 f   LIBCMTD:a_map.obj
 0001:00076090       ___crtGetStringTypeA       10077090 f   LIBCMTD:a_str.obj
 0001:000765e0       __strtol_l                 100775e0 f   LIBCMTD:strtol.obj
 0001:00076600       __strtoul_l                10077600 f   LIBCMTD:strtol.obj
 0001:00076620       _strtol                    10077620 f   LIBCMTD:strtol.obj
 0001:00076670       _strtoul                   10077670 f   LIBCMTD:strtol.obj
 0001:000766c0       __wmakepath_s              100776c0 f   LIBCMTD:wmakepath_s.obj
 0001:00076a80       __wsplitpath_s             10077a80 f   LIBCMTD:wsplitpath_s.obj
 0001:000770c0       __atoi64                   100780c0 f   LIBCMTD:atox.obj
 0001:000770e0       __atoi64_l                 100780e0 f   LIBCMTD:atox.obj
 0001:00077100       __atoi_l                   10078100 f   LIBCMTD:atox.obj
 0001:00077120       __atol_l                   10078120 f   LIBCMTD:atox.obj
 0001:00077140       _atoi                      10078140 f   LIBCMTD:atox.obj
 0001:00077160       _atol                      10078160 f   LIBCMTD:atox.obj
 0001:00077180       ___free_lconv_mon          10078180 f   LIBCMTD:initmon.obj
 0001:00077330       ___init_monetary           10078330 f   LIBCMTD:initmon.obj
 0001:00077940       ___free_lconv_num          10078940 f   LIBCMTD:initnum.obj
 0001:000779f0       ___init_numeric            100789f0 f   LIBCMTD:initnum.obj
 0001:00077dc0       ___free_lc_time            10078dc0 f   LIBCMTD:inittime.obj
 0001:000786f0       ___init_time               100796f0 f   LIBCMTD:inittime.obj
 0001:000796f0       _localeconv                1007a6f0 f   LIBCMTD:lconv.obj
 0001:00079740       ___init_dummy              1007a740 f   LIBCMTD:wsetloca.obj
 0001:00079750       __locterm                  1007a750 f   LIBCMTD:wsetloca.obj
 0001:000797e0       ____setlc_active_func      1007a7e0 f   LIBCMTD:wsetloca.obj
 0001:000797f0       ____unguarded_readlc_active_add_func 1007a7f0 f   LIBCMTD:wsetloca.obj
 0001:00079800       ___copy_locale_name        1007a800 f   LIBCMTD:wsetloca.obj
 0001:000798a0       ___create_locale           1007a8a0 f   LIBCMTD:wsetloca.obj
 0001:000798c0       ___free_locale             1007a8c0 f   LIBCMTD:wsetloca.obj
 0001:000798e0       ___get_current_locale      1007a8e0 f   LIBCMTD:wsetloca.obj
 0001:000798f0       ___lc_lctowcs              1007a8f0 f   LIBCMTD:wsetloca.obj
 0001:000799a0       ___lc_wcstolc              1007a9a0 f   LIBCMTD:wsetloca.obj
 0001:00079bc0       __configthreadlocale       1007abc0 f   LIBCMTD:wsetloca.obj
 0001:00079d20       __create_locale            1007ad20 f   LIBCMTD:wsetloca.obj
 0001:00079d90       __expandlocale             1007ad90 f   LIBCMTD:wsetloca.obj
 0001:0007a280       __free_locale              1007b280 f   LIBCMTD:wsetloca.obj
 0001:0007a3b0       __get_current_locale       1007b3b0 f   LIBCMTD:wsetloca.obj
 0001:0007a4d0       __wcreate_locale           1007b4d0 f   LIBCMTD:wsetloca.obj
 0001:0007a6b0       __wcscats                  1007b6b0 f   LIBCMTD:wsetloca.obj
 0001:0007a730       __wsetlocale               1007b730 f   LIBCMTD:wsetloca.obj
 0001:0007b7c0       __CopyMan                  1007c7c0 f i LIBCMTD:intrncvt.obj
 0001:0007b810       __FillZeroMan              1007c810 f i LIBCMTD:intrncvt.obj
 0001:0007b840       __IncMan                   1007c840 f i LIBCMTD:intrncvt.obj
 0001:0007b8f0       __IsZeroMan                1007c8f0 f i LIBCMTD:intrncvt.obj
 0001:0007b930       __RoundMan                 1007c930 f i LIBCMTD:intrncvt.obj
 0001:0007ba10       __ShrMan                   1007ca10 f i LIBCMTD:intrncvt.obj
 0001:0007bb00       __ZeroTail                 1007cb00 f i LIBCMTD:intrncvt.obj
 0001:0007bb90       ___addl                    1007cb90 f i LIBCMTD:intrncvt.obj
 0001:0007bbd0       __ld12cvt                  1007cbd0 f i LIBCMTD:intrncvt.obj
 0001:0007be90       __ld12tod                  1007ce90 f   LIBCMTD:intrncvt.obj
 0001:0007beb0       __ld12tof                  1007ceb0 f   LIBCMTD:intrncvt.obj
 0001:0007bed0       __ld12told                 1007ced0 f   LIBCMTD:intrncvt.obj
 0001:0007bfd0       ___STRINGTOLD_L            1007cfd0 f   LIBCMTD:strgtold.obj
 0001:0007c040       ___ld12mul                 1007d040 f i LIBCMTD:strgtold.obj
 0001:0007c450       ___multtenpow12            1007d450 f i LIBCMTD:strgtold.obj
 0001:0007c530       ___shl_12                  1007d530 f i LIBCMTD:strgtold.obj
 0001:0007c5b0       ___shr_12                  1007d5b0 f i LIBCMTD:strgtold.obj
 0001:0007c630       ___strgtold12_l            1007d630 f   LIBCMTD:strgtold.obj
 0001:0007d100       _$I10_OUTPUT               1007e100 f   LIBCMTD:x10fout.obj
 0001:0007d710       ___add_12                  1007e710 f i LIBCMTD:x10fout.obj
 0001:0007d7c0       ___pctype_func             1007e7c0 f   LIBCMTD:ctype.obj
 0001:0007d810       ___pwctype_func            1007e810 f   LIBCMTD:ctype.obj
 0001:0007da20       ___control87_2             1007ea20 f   LIBCMTD:ieee87.obj
 0001:0007dec0       __clearfp                  1007eec0 f   LIBCMTD:ieee87.obj
 0001:0007df00       __control87                1007ef00 f i LIBCMTD:ieee87.obj
 0001:0007dfb0       __controlfp                1007efb0 f   LIBCMTD:ieee87.obj
 0001:0007dfd0       __fpreset                  1007efd0 f   LIBCMTD:ieee87.obj
 0001:0007e190       __set_controlfp            1007f190 f   LIBCMTD:ieee87.obj
 0001:0007e220       __statusfp                 1007f220 f   LIBCMTD:ieee87.obj
 0001:0007e260       __statusfp2                1007f260 f   LIBCMTD:ieee87.obj
 0001:0007e2a0       ___vswprintf_l             1007f2a0 f   LIBCMTD:vswprint.obj
 0001:0007e2c0       __vscwprintf               1007f2c0 f   LIBCMTD:vswprint.obj
 0001:0007e2e0       __vscwprintf_helper        1007f2e0 f   LIBCMTD:vswprint.obj
 0001:0007e3d0       __vscwprintf_l             1007f3d0 f   LIBCMTD:vswprint.obj
 0001:0007e3f0       __vscwprintf_p             1007f3f0 f   LIBCMTD:vswprint.obj
 0001:0007e410       __vscwprintf_p_l           1007f410 f   LIBCMTD:vswprint.obj
 0001:0007e430       __vswprintf                1007f430 f   LIBCMTD:vswprint.obj
 0001:0007e450       __vswprintf_l              1007f450 f   LIBCMTD:vswprint.obj
 0001:0007e670       __vsnwprintf_s             1007f670 f   LIBCMTD:vswprnc.obj
 0001:0007e6a0       __vsnwprintf_s_l           1007f6a0 f   LIBCMTD:vswprnc.obj
 0001:0007ea80       __vswprintf_c              1007fa80 f   LIBCMTD:vswprnc.obj
 0001:0007ead0       __vswprintf_c_l            1007fad0 f   LIBCMTD:vswprnc.obj
 0001:0007eb20       __vswprintf_helper         1007fb20 f   LIBCMTD:vswprnc.obj
 0001:0007ed90       __vswprintf_p              1007fd90 f   LIBCMTD:vswprnc.obj
 0001:0007ede0       __vswprintf_p_l            1007fde0 f   LIBCMTD:vswprnc.obj
 0001:0007ee30       __vswprintf_s_l            1007fe30 f   LIBCMTD:vswprnc.obj
 0001:0007f0c0       _vswprintf_s               100800c0 f   LIBCMTD:vswprnc.obj
 0001:0007f0e0       __woutput_l                100800e0 f   LIBCMTD:woutput.obj
 0001:000806c0       _strcat_s                  100816c0 f   LIBCMTD:strcat_s.obj
 0001:00080ef0       __i64toa_s                 10081ef0 f   LIBCMTD:xtoas.obj
 0001:00080f40       __itoa_s                   10081f40 f   LIBCMTD:xtoas.obj
 0001:00080fa0       __ltoa_s                   10081fa0 f   LIBCMTD:xtoas.obj
 0001:00080fe0       __ui64toa_s                10081fe0 f   LIBCMTD:xtoas.obj
 0001:00081000       __ultoa_s                  10082000 f   LIBCMTD:xtoas.obj
 0001:00081400       __mbstowcs_l               10082400 f   LIBCMTD:mbstowcs.obj
 0001:00081420       __mbstowcs_l_helper        10082420 f   LIBCMTD:mbstowcs.obj
 0001:000817b0       __mbstowcs_s_l             100827b0 f   LIBCMTD:mbstowcs.obj
 0001:00081b70       _mbstowcs                  10082b70 f   LIBCMTD:mbstowcs.obj
 0001:00081bc0       _mbstowcs_s                10082bc0 f   LIBCMTD:mbstowcs.obj
 0001:00081c50       __wcstombs_l               10082c50 f   LIBCMTD:wcstombs.obj
 0001:00081c70       __wcstombs_l_helper        10082c70 f   LIBCMTD:wcstombs.obj
 0001:00082180       __wcstombs_s_l             10083180 f   LIBCMTD:wcstombs.obj
 0001:000824e0       _wcstombs                  100834e0 f   LIBCMTD:wcstombs.obj
 0001:00082500       _wcstombs_s                10083500 f   LIBCMTD:wcstombs.obj
 0001:00082970       __i64tow_s                 10083970 f   LIBCMTD:xtows.obj
 0001:000829c0       __itow_s                   100839c0 f   LIBCMTD:xtows.obj
 0001:00082a20       __ltow_s                   10083a20 f   LIBCMTD:xtows.obj
 0001:00082a60       __ui64tow_s                10083a60 f   LIBCMTD:xtows.obj
 0001:00082a80       __ultow_s                  10083a80 f   LIBCMTD:xtows.obj
 0001:00082f50       __wopen                    10083f50 f   LIBCMTD:wopen.obj
 0001:000830e0       __wsopen                   100840e0 f   LIBCMTD:wopen.obj
 0001:00083150       __wsopen_helper            10084150 f   LIBCMTD:wopen.obj
 0001:000833e0       __wsopen_nolock            100843e0 f   LIBCMTD:wopen.obj
 0001:00084450       __wsopen_s                 10085450 f   LIBCMTD:wopen.obj
 0001:00084480       _strncmp                   10085480 f   LIBCMTD:strncmp.obj
 0001:00084500       __strnicmp                 10085500 f   LIBCMTD:strnicmp.obj
 0001:000846d0       __strnicmp_l               100856d0 f   LIBCMTD:strnicmp.obj
 0001:00084960       __iswctype_l               10085960 f   LIBCMTD:iswctype.obj
 0001:00084980       _is_wctype                 10085980 f   LIBCMTD:iswctype.obj
 0001:000849a0       _iswctype                  100859a0 f   LIBCMTD:iswctype.obj
 0001:00084a00       ____lc_codepage_func       10085a00 f   LIBCMTD:initctyp.obj
 0001:00084a50       ____lc_collate_cp_func     10085a50 f   LIBCMTD:initctyp.obj
 0001:00084aa0       ____lc_locale_name_func    10085aa0 f   LIBCMTD:initctyp.obj
 0001:00084af0       ____mb_cur_max_func        10085af0 f   LIBCMTD:initctyp.obj
 0001:00084b40       ____mb_cur_max_l_func      10085b40 f   LIBCMTD:initctyp.obj
 0001:00084b70       ___init_ctype              10085b70 f   LIBCMTD:initctyp.obj
 0001:000851b0       ___termconout              100861b0 f   LIBCMTD:initcon.obj
 0001:000851e0       ___initconout              100861e0 f   LIBCMTD:initcon.obj
 0001:00085210       __chgsign                  10086210 f   LIBCMTD:ieeemisc.obj
 0001:00085250       __copysign                 10086250 f   LIBCMTD:ieeemisc.obj
 0001:00085280       __finite                   10086280 f   LIBCMTD:ieeemisc.obj
 0001:000852a0       __fpclass                  100862a0 f   LIBCMTD:ieeemisc.obj
 0001:00085390       __isnan                    10086390 f   LIBCMTD:ieeemisc.obj
 0001:000853d0       __logb                     100863d0 f   LIBCMTD:ieeemisc.obj
 0001:00085500       __nextafter                10086500 f   LIBCMTD:ieeemisc.obj
 0001:00085820       __scalb                    10086820 f   LIBCMTD:ieeemisc.obj
 0001:00085840       _wcsnlen                   10086840 f   LIBCMTD:wcslen_s.obj
 0001:00085db0       __strtoi64                 10086db0 f   LIBCMTD:strtoq.obj
 0001:00085e00       __strtoi64_l               10086e00 f   LIBCMTD:strtoq.obj
 0001:00085e20       __strtoui64                10086e20 f   LIBCMTD:strtoq.obj
 0001:00085e70       __strtoui64_l              10086e70 f   LIBCMTD:strtoq.obj
 0001:00085e90       ___init_collate            10086e90 f   LIBCMTD:initcoll.obj
 0001:00086050       _memcmp                    10087050 f   LIBCMTD:memcmp.obj
 0001:00086920       _wcscmp                    10087920 f   LIBCMTD:wcscmp.obj
 0001:00086980       _wcscspn                   10087980 f   LIBCMTD:wcscspn.obj
 0001:000869f0       _wcsncmp                   100879f0 f   LIBCMTD:wcsncmp.obj
 0001:00086a50       _wcspbrk                   10087a50 f   LIBCMTD:wcspbrk.obj
 0001:000875f0       ___get_qualified_locale    100885f0 f   LIBCMTD:getqloc.obj
 0001:000885d0       ___get_qualified_locale_downlevel 100895d0 f   LIBCMTD:getqloc_downlevel.obj
 0001:000888a0       ___mtold12                 100898a0 f   LIBCMTD:mantold.obj
 0001:000889f0       __validate_param_reuseW    100899f0 f   LIBCMTD:woutputp.obj
 0001:00088cd0       __woutput_p_l              10089cd0 f   LIBCMTD:woutputp.obj
 0001:0008c7c0       __woutput_s_l              1008d7c0 f   LIBCMTD:woutputs.obj
 0001:0008df00       __fputwc_nolock            1008ef00 f   LIBCMTD:fputwc.obj
 0001:0008e1f0       _fputwc                    1008f1f0 f   LIBCMTD:fputwc.obj
 0001:0008e300       _putwc                     1008f300 f   LIBCMTD:fputwc.obj
 0001:0008e320       __chsize                   1008f320 f   LIBCMTD:chsize.obj
 0001:0008e360       __chsize_nolock            1008f360 f   LIBCMTD:chsize.obj
 0001:0008e610       __chsize_s                 1008f610 f   LIBCMTD:chsize.obj
 0001:0008e8d0       __get_fmode                1008f8d0 f   LIBCMTD:setmode.obj
 0001:0008e970       __set_fmode                1008f970 f   LIBCMTD:setmode.obj
 0001:0008ea20       __setmode                  1008fa20 f   LIBCMTD:setmode.obj
 0001:0008ece0       __setmode_nolock           1008fce0 f   LIBCMTD:setmode.obj
 0001:0008ef50       ___ascii_strnicmp          1008ff50 f   LIBCMTD:_strnicm.obj
 0001:0008efc0       _ldexp                     1008ffc0 f   LIBCMTD:ldexp.obj
 0001:0008f2a0       __allmul                   100902a0 f   LIBCMTD:llmul.obj
 0001:0008f2e0       __wtoi                     100902e0 f   LIBCMTD:wtox.obj
 0001:0008f300       __wtoi64                   10090300 f   LIBCMTD:wtox.obj
 0001:0008f320       __wtoi64_l                 10090320 f   LIBCMTD:wtox.obj
 0001:0008f340       __wtoi_l                   10090340 f   LIBCMTD:wtox.obj
 0001:0008f360       __wtol                     10090360 f   LIBCMTD:wtox.obj
 0001:0008f380       __wtol_l                   10090380 f   LIBCMTD:wtox.obj
 0001:0008f3a0       _wcschr                    100903a0 f   LIBCMTD:wcschr.obj
 0001:0008f520       __wcsicmp                  10090520 f   LIBCMTD:wcsicmp.obj
 0001:0008f6f0       __wcsicmp_l                100906f0 f   LIBCMTD:wcsicmp.obj
 0001:0008f960       __wcsnicmp                 10090960 f   LIBCMTD:wcsnicmp.obj
 0001:0008fb50       __wcsnicmp_l               10090b50 f   LIBCMTD:wcsnicmp.obj
 0001:00090170       __wcstol_l                 10091170 f   LIBCMTD:wcstol.obj
 0001:00090190       __wcstoul_l                10091190 f   LIBCMTD:wcstol.obj
 0001:000901b0       _wcstol                    100911b0 f   LIBCMTD:wcstol.obj
 0001:000901d0       _wcstoul                   100911d0 f   LIBCMTD:wcstol.obj
 0001:000901f0       __flswbuf                  100911f0 f   LIBCMTD:_flswbuf.obj
 0001:00090a30       __wcstoi64                 10091a30 f   LIBCMTD:wcstoq.obj
 0001:00090a80       __wcstoi64_l               10091a80 f   LIBCMTD:wcstoq.obj
 0001:00090aa0       __wcstoui64                10091aa0 f   LIBCMTD:wcstoq.obj
 0001:00090af0       __wcstoui64_l              10091af0 f   LIBCMTD:wcstoq.obj
 0001:00090b10       __towlower_l               10091b10 f   LIBCMTD:towlower.obj
 0001:00090c60       _towlower                  10091c60 f   LIBCMTD:towlower.obj
 0001:00090c80       __wchartodigit             10091c80 f   LIBCMTD:wchtodig.obj
 0001:00090fa0       ___crtLCMapStringW         10091fa0 f   LIBCMTD:w_map.obj
 0001:00090fde       _RtlUnwind@16              10091fde f   kernel32:KERNEL32.dll
 0001:00090fe4       _EncodePointer@4           10091fe4 f   kernel32:KERNEL32.dll
 0001:00090fea       _DecodePointer@4           10091fea f   kernel32:KERNEL32.dll
 0001:00090ff0       _GetSystemTimeAsFileTime@4 10091ff0 f   kernel32:KERNEL32.dll
 0001:00090ff6       _GetCommandLineA@0         10091ff6 f   kernel32:KERNEL32.dll
 0001:00090ffc       _GetCurrentThreadId@0      10091ffc f   kernel32:KERNEL32.dll
 0001:00091002       _GetLastError@0            10092002 f   kernel32:KERNEL32.dll
 0001:00091008       _InterlockedDecrement@4    10092008 f   kernel32:KERNEL32.dll
 0001:0009100e       _ExitProcess@4             1009200e f   kernel32:KERNEL32.dll
 0001:00091014       _GetModuleHandleExW@12     10092014 f   kernel32:KERNEL32.dll
 0001:0009101a       _GetProcAddress@8          1009201a f   kernel32:KERNEL32.dll
 0001:00091020       _AreFileApisANSI@0         10092020 f   kernel32:KERNEL32.dll
 0001:00091026       _MultiByteToWideChar@24    10092026 f   kernel32:KERNEL32.dll
 0001:0009102c       _EnterCriticalSection@4    1009202c f   kernel32:KERNEL32.dll
 0001:00091032       _LeaveCriticalSection@4    10092032 f   kernel32:KERNEL32.dll
 0001:00091038       _IsDebuggerPresent@0       10092038 f   kernel32:KERNEL32.dll
 0001:0009103e       _RaiseException@16         1009203e f   kernel32:KERNEL32.dll
 0001:00091044       _LoadLibraryExW@12         10092044 f   kernel32:KERNEL32.dll
 0001:0009104a       _lstrlenA@4                1009204a f   kernel32:KERNEL32.dll
 0001:00091050       _LoadLibraryW@4            10092050 f   kernel32:KERNEL32.dll
 0001:00091056       _WideCharToMultiByte@32    10092056 f   kernel32:KERNEL32.dll
 0001:0009105c       _InitializeCriticalSectionAndSpinCount@8 1009205c f   kernel32:KERNEL32.dll
 0001:00091062       _DeleteCriticalSection@4   10092062 f   kernel32:KERNEL32.dll
 0001:00091068       _FatalAppExitA@8           10092068 f   kernel32:KERNEL32.dll
 0001:0009106e       _GetModuleFileNameW@12     1009206e f   kernel32:KERNEL32.dll
 0001:00091074       _HeapValidate@12           10092074 f   kernel32:KERNEL32.dll
 0001:0009107a       _GetSystemInfo@4           1009207a f   kernel32:KERNEL32.dll
 0001:00091080       _IsProcessorFeaturePresent@4 10092080 f   kernel32:KERNEL32.dll
 0001:00091086       _CloseHandle@4             10092086 f   kernel32:KERNEL32.dll
 0001:0009108c       _GetStdHandle@4            1009208c f   kernel32:KERNEL32.dll
 0001:00091092       _GetFileType@4             10092092 f   kernel32:KERNEL32.dll
 0001:00091098       _GetStartupInfoW@4         10092098 f   kernel32:KERNEL32.dll
 0001:0009109e       _ReadFile@20               1009209e f   kernel32:KERNEL32.dll
 0001:000910a4       _GetConsoleMode@8          100920a4 f   kernel32:KERNEL32.dll
 0001:000910aa       _ReadConsoleW@20           100920aa f   kernel32:KERNEL32.dll
 0001:000910b0       _WriteFile@20              100920b0 f   kernel32:KERNEL32.dll
 0001:000910b6       _GetConsoleCP@0            100920b6 f   kernel32:KERNEL32.dll
 0001:000910bc       _SetLastError@4            100920bc f   kernel32:KERNEL32.dll
 0001:000910c2       _InterlockedIncrement@4    100920c2 f   kernel32:KERNEL32.dll
 0001:000910c8       _GetCurrentThread@0        100920c8 f   kernel32:KERNEL32.dll
 0001:000910ce       _GetProcessHeap@0          100920ce f   kernel32:KERNEL32.dll
 0001:000910d4       _GetModuleFileNameA@12     100920d4 f   kernel32:KERNEL32.dll
 0001:000910da       _GetCurrentProcessId@0     100920da f   kernel32:KERNEL32.dll
 0001:000910e0       _GetEnvironmentStringsW@0  100920e0 f   kernel32:KERNEL32.dll
 0001:000910e6       _FreeEnvironmentStringsW@4 100920e6 f   kernel32:KERNEL32.dll
 0001:000910ec       _UnhandledExceptionFilter@4 100920ec f   kernel32:KERNEL32.dll
 0001:000910f2       _SetUnhandledExceptionFilter@4 100920f2 f   kernel32:KERNEL32.dll
 0001:000910f8       _GetCurrentProcess@0       100920f8 f   kernel32:KERNEL32.dll
 0001:000910fe       _TerminateProcess@8        100920fe f   kernel32:KERNEL32.dll
 0001:00091104       _TlsAlloc@0                10092104 f   kernel32:KERNEL32.dll
 0001:0009110a       _TlsGetValue@4             1009210a f   kernel32:KERNEL32.dll
 0001:00091110       _TlsSetValue@8             10092110 f   kernel32:KERNEL32.dll
 0001:00091116       _TlsFree@4                 10092116 f   kernel32:KERNEL32.dll
 0001:0009111c       _GetModuleHandleW@4        1009211c f   kernel32:KERNEL32.dll
 0001:00091122       _CreateSemaphoreW@16       10092122 f   kernel32:KERNEL32.dll
 0001:00091128       _InterlockedExchange@8     10092128 f   kernel32:KERNEL32.dll
 0001:0009112e       _FreeLibrary@4             1009212e f   kernel32:KERNEL32.dll
 0001:00091134       _SetConsoleCtrlHandler@8   10092134 f   kernel32:KERNEL32.dll
 0001:0009113a       _IsValidCodePage@4         1009213a f   kernel32:KERNEL32.dll
 0001:00091140       _GetACP@0                  10092140 f   kernel32:KERNEL32.dll
 0001:00091146       _GetOEMCP@0                10092146 f   kernel32:KERNEL32.dll
 0001:0009114c       _GetCPInfo@8               1009214c f   kernel32:KERNEL32.dll
 0001:00091152       _HeapAlloc@12              10092152 f   kernel32:KERNEL32.dll
 0001:00091158       _HeapFree@12               10092158 f   kernel32:KERNEL32.dll
 0001:0009115e       _VirtualQuery@12           1009215e f   kernel32:KERNEL32.dll
 0001:00091164       _OutputDebugStringW@4      10092164 f   kernel32:KERNEL32.dll
 0001:0009116a       _WaitForSingleObjectEx@12  1009216a f   kernel32:KERNEL32.dll
 0001:00091170       _CreateThread@24           10092170 f   kernel32:KERNEL32.dll
 0001:00091176       _OutputDebugStringA@4      10092176 f   kernel32:KERNEL32.dll
 0001:0009117c       _WriteConsoleW@20          1009217c f   kernel32:KERNEL32.dll
 0001:00091182       _HeapReAlloc@16            10092182 f   kernel32:KERNEL32.dll
 0001:00091188       _HeapSize@12               10092188 f   kernel32:KERNEL32.dll
 0001:0009118e       _HeapQueryInformation@20   1009218e f   kernel32:KERNEL32.dll
 0001:00091194       _SetStdHandle@8            10092194 f   kernel32:KERNEL32.dll
 0001:0009119a       _FlushFileBuffers@4        1009219a f   kernel32:KERNEL32.dll
 0001:000911a0       _SetFilePointerEx@20       100921a0 f   kernel32:KERNEL32.dll
 0001:000911a6       _GetDateFormatW@24         100921a6 f   kernel32:KERNEL32.dll
 0001:000911ac       _GetTimeFormatW@24         100921ac f   kernel32:KERNEL32.dll
 0001:000911b2       _CompareStringW@24         100921b2 f   kernel32:KERNEL32.dll
 0001:000911b8       _LCMapStringW@24           100921b8 f   kernel32:KERNEL32.dll
 0001:000911be       _GetLocaleInfoW@16         100921be f   kernel32:KERNEL32.dll
 0001:000911c4       _IsValidLocale@8           100921c4 f   kernel32:KERNEL32.dll
 0001:000911ca       _GetUserDefaultLCID@0      100921ca f   kernel32:KERNEL32.dll
 0001:000911d0       _EnumSystemLocalesW@8      100921d0 f   kernel32:KERNEL32.dll
 0001:000911d6       _GetStringTypeW@16         100921d6 f   kernel32:KERNEL32.dll
 0001:000911dc       _CreateFileW@28            100921dc f   kernel32:KERNEL32.dll
 0001:000911e2       _SetEndOfFile@4            100921e2 f   kernel32:KERNEL32.dll
 0002:00000000       ___xc_a                    100ae000     LIBCMTD:crt0init.obj
 0002:00000294       ___xc_z                    100ae294     LIBCMTD:crt0init.obj
 0002:00000398       ___xi_a                    100ae398     LIBCMTD:crt0init.obj
 0002:000005b8       ___xi_z                    100ae5b8     LIBCMTD:crt0init.obj
 0002:000006bc       ___xp_a                    100ae6bc     LIBCMTD:crt0init.obj
 0002:000009d0       ___xp_z                    100ae9d0     LIBCMTD:crt0init.obj
 0002:00000ad4       ___xt_a                    100aead4     LIBCMTD:crt0init.obj
 0002:00000bd8       ___xt_z                    100aebd8     LIBCMTD:crt0init.obj
 0002:00000d20       ??_7TCarParam@@6B@         100aed20     unitcarparam.obj
 0002:00000d28       __real@0000000000000000    100aed28     unitcarparam.obj
 0002:00000d34       __real@3f800000            100aed34     unitcarparam.obj
 0002:00000d38       __real@3fe0000000000000    100aed38     unitcarparam.obj
 0002:00000d48       __real@3fe999999999999a    100aed48     unitcarparam.obj
 0002:00000d58       __real@3ff0000000000000    100aed58     unitcarparam.obj
 0002:00000d70       ??_7TClothoidLane@@6B@     100aed70     unitclothoid.obj
 0002:00000d90       ??_C@_0EF@JGBHMEPB@?$CF4d?5v?5?$CF3?40f?5crv?5?$CF7?44f?5dt?5?$CF?43f?5pz@ 100aed90     unitclothoid.obj
 0002:00000de4       ??_C@_01NOFIACDB@w?$AA@    100aede4     unitclothoid.obj
 0002:00000de8       ??_C@_03PMGGPEJJ@?$CFd?6?$AA@ 100aede8     unitclothoid.obj
 0002:00000dec       ??_C@_03POCAEKMA@?$CFg?6?$AA@ 100aedec     unitclothoid.obj
 0002:00000df0       ??_C@_0CF@KGDDFKOB@?$CFd?7?$CFg?7?$CFg?7?$CFg?7?$CFg?7?$CFg?7?$CFg?7?$CFg?7?$CFg?7?$CFg?7?$CFg@ 100aedf0     unitclothoid.obj
 0002:00000e1c       ??_C@_02JDPG@rb?$AA@       100aee1c     unitclothoid.obj
 0002:00000e20       ??_C@_0BB@LCFKDNIB@I?3?5?$CFd?5Delta?3?5?$CFg?6?$AA@ 100aee20     unitclothoid.obj
 0002:00000e34       ??_C@_02GMLFBBN@wb?$AA@    100aee34     unitclothoid.obj
 0002:00000e38       ??_C@_0DA@HLJKDLHA@?5?5?5?5?$DMattnum?5name?$DN?$CCtrack?5param?5co@ 100aee38     unitclothoid.obj
 0002:00000e74       ??_C@_0CA@JLEKAHEE@?5?5?5?5?$DMsection?5name?$DN?$CCparam?5seg?$CC?$DO?6?$AA@ 100aee74     unitclothoid.obj
 0002:00000e9c       ??_C@_0BL@BBPIOHKD@?5?5?5?5?5?5?$DMsection?5name?$DN?$CC?$CFd?$CC?$DO?6?$AA@ 100aee9c     unitclothoid.obj
 0002:00000ebc       ??_C@_0DF@NJBBMOII@?5?5?5?5?5?5?5?5?$DMattnum?5name?$DN?$CCdist?5from?5@ 100aeebc     unitclothoid.obj
 0002:00000efc       ??_C@_0CO@OJKPNKDB@?5?5?5?5?5?5?5?5?$DMattnum?5name?$DN?$CCborder?5lef@ 100aeefc     unitclothoid.obj
 0002:00000f34       ??_C@_0CP@PFOLLHCG@?5?5?5?5?5?5?5?5?$DMattnum?5name?$DN?$CCborder?5rig@ 100aef34     unitclothoid.obj
 0002:00000f6c       ??_C@_0CK@BBHKDDHF@?5?5?5?5?5?5?5?5?$DMattnum?5name?$DN?$CCfactor?$CC?5va@ 100aef6c     unitclothoid.obj
 0002:00000fa0       ??_C@_0CI@GJAGPKOG@?5?5?5?5?5?5?5?5?$DMattnum?5name?$DN?$CCapex?$CC?5val?$DN@ 100aefa0     unitclothoid.obj
 0002:00000fd0       ??_C@_0DB@CMOMBIAI@?5?5?5?5?5?5?5?5?$DMattnum?5name?$DN?$CCscale?5fric@ 100aefd0     unitclothoid.obj
 0002:0000100c       ??_C@_0DA@LMEMLBJL@?5?5?5?5?5?5?5?5?$DMattnum?5name?$DN?$CCscale?5brak@ 100af00c     unitclothoid.obj
 0002:00001048       ??_C@_0CO@PKCDLGOO@?5?5?5?5?5?5?5?5?$DMattnum?5name?$DN?$CCscale?5bump@ 100af048     unitclothoid.obj
 0002:00001080       ??_C@_0CP@JNOFGCNH@?5?5?5?5?5?5?5?5?$DMattnum?5name?$DN?$CCtarget?5spe@ 100af080     unitclothoid.obj
 0002:000010b8       ??_C@_0BC@HIBFHLBM@?5?5?5?5?5?5?$DM?1section?$DO?6?$AA@ 100af0b8     unitclothoid.obj
 0002:000010d0       ??_C@_0BA@IAFAHFMO@?5?5?5?5?$DM?1section?$DO?6?$AA@ 100af0d0     unitclothoid.obj
 0002:000010e4       ??_C@_0DD@IAKKCIFK@?5?5?5?5?$DMattnum?5name?$DN?$CCsection?5param?5@ 100af0e4     unitclothoid.obj
 0002:00001124       ??_C@_0CI@BEFFILIM@?5?5?5?5?$DMsection?5name?$DN?$CCqualify?5param@ 100af124     unitclothoid.obj
 0002:00001154       ??_C@_0CA@GOMKKBIE@?5?5?5?5?$DMsection?5name?$DN?$CCparam?5sec?$CC?$DO?6?$AA@ 100af154     unitclothoid.obj
 0002:0000117c       ??_C@_0DC@GJKKNGDE@?5?5?5?5?5?5?5?5?$DMattnum?5name?$DN?$CCscale?5spee@ 100af17c     unitclothoid.obj
 0002:000011b8       ??_C@_0DC@GHDLCOG@?5?5?5?5?5?5?5?5?$DMattnum?5name?$DN?$CCscale?5brak@ 100af1b8     unitclothoid.obj
 0002:000011f4       ??_C@_0BE@JBBMBOFF@section?5param?5count?$AA@ 100af1f4     unitclothoid.obj
 0002:0000120c       ??_C@_0CB@HCJIPDEB@?6?6?6No?5learned?5parameters?5found?6?6@ 100af20c     unitclothoid.obj
 0002:00001234       ??_C@_0DA@HOMAEFM@?6?6?6Wrong?5number?5of?5parameters?5fo@ 100af234     unitclothoid.obj
 0002:00001270       ??_C@_0BP@CDPDOPHI@?6?6?6Import?5learned?5parameters?6?6?$AA@ 100af270     unitclothoid.obj
 0002:00001298       ??_C@_0BC@HPMMENDD@qualify?5param?5sec?$AA@ 100af298     unitclothoid.obj
 0002:000012b0       ??_C@_08OEOPGIOB@?$CFs?1?$CFs?1?$CFd?$AA@ 100af2b0     unitclothoid.obj
 0002:000012bc       ??_C@_09GOHNFLBH@param?5sec?$AA@ 100af2bc     unitclothoid.obj
 0002:000012c8       ??_C@_0BA@GNAGBOMF@dist?5from?5start?$AA@ 100af2c8     unitclothoid.obj
 0002:000012dc       ??_C@_0M@PKBNCPOJ@scale?5speed?$AA@ 100af2dc     unitclothoid.obj
 0002:000012ec       ??_C@_0M@NELACGKL@scale?5brake?$AA@ 100af2ec     unitclothoid.obj
 0002:000012fc       __real@00000000            100af2fc     unitclothoid.obj
 0002:00001300       __real@3f1a36e2eb1c432d    100af300     unitclothoid.obj
 0002:00001310       __real@3f5cac083126e979    100af310     unitclothoid.obj
 0002:00001320       __real@3fb999999999999a    100af320     unitclothoid.obj
 0002:00001330       __real@3fd0000000000000    100af330     unitclothoid.obj
 0002:00001340       __real@3fe8000000000000    100af340     unitclothoid.obj
 0002:00001350       __real@3feccccccccccccd    100af350     unitclothoid.obj
 0002:00001360       __real@3ff051eb851eb852    100af360     unitclothoid.obj
 0002:00001370       __real@4000000000000000    100af370     unitclothoid.obj
 0002:00001380       __real@400ccccccccccccd    100af380     unitclothoid.obj
 0002:00001390       __real@40139eb851eb851f    100af390     unitclothoid.obj
 0002:000013a0       __real@40239eb851eb851f    100af3a0     unitclothoid.obj
 0002:000013b0       __real@4024000000000000    100af3b0     unitclothoid.obj
 0002:000013c0       __xmm@80000000000000008000000000000000 100af3c0     unitclothoid.obj
 0002:000013d8       __real@4008000000000000    100af3d8     unitcollision.obj
 0002:000013e8       __real@bff0000000000000    100af3e8     unitcollision.obj
 0002:000013f8       __real@3eb0c6f7a0b5ed8d    100af3f8     unitcommon.obj
 0002:00001410       __real@4018000000000000    100af410     unitcubic.obj
 0002:00001420       __real@c000000000000000    100af420     unitcubic.obj
 0002:00001430       __real@c008000000000000    100af430     unitcubic.obj
 0002:00001440       ??_C@_09LDCDJLJE@car6?9trb1?$AA@ 100af440     unitdriver.obj
 0002:0000144c       ??_C@_0BC@DPFNLKJM@Front?5Right?5Wheel?$AA@ 100af44c     unitdriver.obj
 0002:00001464       ??_C@_0BB@LHAPOPKP@Front?5Left?5Wheel?$AA@ 100af464     unitdriver.obj
 0002:00001478       ??_C@_0BB@FDACEIHE@Rear?5Right?5Wheel?$AA@ 100af478     unitdriver.obj
 0002:0000148c       ??_C@_0BA@OOGIOKPL@Rear?5Left?5Wheel?$AA@ 100af48c     unitdriver.obj
 0002:000014b0       ??_C@_0L@LGLGLLGF@wdbee_2012?$AA@ 100af4b0     unitdriver.obj
 0002:000014c0       ??_C@_0BD@MAOGHKJO@drivers?1wdbee_2012?$AA@ 100af4c0     unitdriver.obj
 0002:000014d8       ??_C@_0O@HJFPHOGI@wdbee?5private?$AA@ 100af4d8     unitdriver.obj
 0002:000014e8       ??_C@_0BC@JJPHLHCN@drivers?1?$CFs?1?$CFs?4xml?$AA@ 100af4e8     unitdriver.obj
 0002:00001500       ??_C@_05FKHKFDID@index?$AA@ 100af500     unitdriver.obj
 0002:00001508       ??_C@_06PICGEMFB@Robots?$AA@ 100af508     unitdriver.obj
 0002:00001510       ??_C@_0BF@MGEECFLE@?6?6?6PathFilename?3?5?$CFs?6?$AA@ 100af510     unitdriver.obj
 0002:0000152c       ??_C@_08OBBPKMPK@car?5name?$AA@ 100af52c     unitdriver.obj
 0002:00001538       ??_C@_04KADBPNCB@team?$AA@ 100af538     unitdriver.obj
 0002:00001540       ??_C@_0M@CLKNEDMM@race?5number?$AA@ 100af540     unitdriver.obj
 0002:00001550       ??_C@_0CG@BEECKBIP@?6?6?5FATAL?5ERROR?3?5File?5?8?$CFs?8?5not?5fo@ 100af550     unitdriver.obj
 0002:00001580       ??_C@_0O@EPACJCBP@Bot?5name?3?5?$CFs?6?$AA@ 100af580     unitdriver.obj
 0002:00001590       ??_C@_0P@IOHBGAKL@Team?5name?3?5?$CFs?6?$AA@ 100af590     unitdriver.obj
 0002:000015a4       ??_C@_0O@HPMAPIL@Car?5type?3?5?$CFs?6?$AA@ 100af5a4     unitdriver.obj
 0002:000015b4       ??_C@_0BB@GKMKCMBM@Race?5number?3?5?$CFd?6?$AA@ 100af5b4     unitdriver.obj
 0002:000015c8       ??_C@_0BE@MBEFBIOK@?$CFsdrivers?1?$CFs?1tracks?$AA@ 100af5c8     unitdriver.obj
 0002:000015e0       ??_C@_03EGHOKNNL@?6?6?6?$AA@ 100af5e0     unitdriver.obj
 0002:000015e4       ??_C@_0BH@JNBKMHCD@?$CDoPathToWriteTo?3?5?$DO?$CFs?$DM?6?$AA@ 100af5e4     unitdriver.obj
 0002:00001600       ??_C@_0CN@MEOGLMHM@?$CDUnable?5to?5create?5path?5for?5racin@ 100af600     unitdriver.obj
 0002:00001638       ??_C@_09OPEAJKGK@?$CFs?1?$CFs?4lrn?$AA@ 100af638     unitdriver.obj
 0002:00001644       ??_C@_09HJKBBFP@?$CFs?1?$CFs?4trk?$AA@ 100af644     unitdriver.obj
 0002:00001650       ??_C@_09LHLHOLIE@?$CFs?1?$CFs?4trq?$AA@ 100af650     unitdriver.obj
 0002:0000165c       ??_C@_09EINLIHJI@?$CFs?1?$CFs?4trl?$AA@ 100af65c     unitdriver.obj
 0002:00001668       ??_C@_09JMJKLIEH@?$CFs?1?$CFs?4trr?$AA@ 100af668     unitdriver.obj
 0002:00001674       ??_C@_09EBOMFDB@?$CFs?1?$CFs?4tpk?$AA@ 100af674     unitdriver.obj
 0002:00001680       ??_C@_09ELFPFDPG@?$CFs?1?$CFs?4tpl?$AA@ 100af680     unitdriver.obj
 0002:0000168c       ??_C@_09JPBOGMCJ@?$CFs?1?$CFs?4tpr?$AA@ 100af68c     unitdriver.obj
 0002:00001698       ??_C@_08LMOGJANB@practice?$AA@ 100af698     unitdriver.obj
 0002:000016a4       ??_C@_07CPJEMFAD@qualify?$AA@ 100af6a4     unitdriver.obj
 0002:000016b0       ??_C@_04GLEOMBLA@race?$AA@ 100af6b0     unitdriver.obj
 0002:000016b8       ??_C@_09OCIBGKHD@fuel?5tank?$AA@ 100af6b8     unitdriver.obj
 0002:000016c4       ??_C@_03DAGGNFD@Car?$AA@   100af6c4     unitdriver.obj
 0002:000016c8       ??_C@_0BM@KAKNPPP@?$CDoMaxFuel?5?$CITORCS?$CJ?5?5?5?$DN?5?$CF?41f?6?$AA@ 100af6c8     unitdriver.obj
 0002:000016ec       ??_C@_0BC@MKPPPHDP@?$CFs?1?$CFs?1default?4xml?$AA@ 100af6ec     unitdriver.obj
 0002:00001704       ??_C@_0BB@BMCFHDOE@?$CFs?1tracks?1?$CFs?4xml?$AA@ 100af704     unitdriver.obj
 0002:00001718       ??_C@_0N@BBGICCGK@?$CFs?1?$CFs?1?$CFs?4xml?$AA@ 100af718     unitdriver.obj
 0002:00001728       ??_C@_0BA@FBDFPCFA@?$CFs?1?$CFs?1?$CFs?9?$CFs?4xml?$AA@ 100af728     unitdriver.obj
 0002:0000173c       ??_C@_0BD@CEIKFFLI@?$CFs?1?$CFs?1?$CFs?9?$CFd?9?$CFs?4xml?$AA@ 100af73c     unitdriver.obj
 0002:00001754       ??_C@_0N@HPKHNIEO@load?5learned?$AA@ 100af754     unitdriver.obj
 0002:00001764       ??_C@_0BF@DHMAOKJI@?$CDLoadLearned?5?$DN?5true?6?$AA@ 100af764     unitdriver.obj
 0002:00001780       ??_C@_0BG@CKAGLPGJ@?$CDLoadLearned?5?$DN?5false?6?$AA@ 100af780     unitdriver.obj
 0002:0000179c       ??_C@_0BK@OEDHFNKG@min?5brake?5friction?5factor?$AA@ 100af79c     unitdriver.obj
 0002:000017bc       ??_C@_0BM@CHCNJLPI@?$CDMinBrakeFrictionFactor?5?$CFf?6?$AA@ 100af7bc     unitdriver.obj
 0002:000017e0       ??_C@_0BK@HGKODHM@max?5brake?5friction?5factor?$AA@ 100af7e0     unitdriver.obj
 0002:00001800       ??_C@_0BM@EBMIPNIM@?$CDMaxBrakeFrictionFactor?5?$CFf?6?$AA@ 100af800     unitdriver.obj
 0002:00001824       ??_C@_0BK@ILOODJHE@min?5speed?5friction?5factor?$AA@ 100af824     unitdriver.obj
 0002:00001844       ??_C@_0BM@NOPMPGPN@?$CDMinSpeedFrictionFactor?5?$CFf?6?$AA@ 100af844     unitdriver.obj
 0002:00001868       ??_C@_0BK@GILDIHKO@max?5speed?5friction?5factor?$AA@ 100af868     unitdriver.obj
 0002:00001888       ??_C@_0BM@LIBJJAIJ@?$CDMaxSpeedFrictionFactor?5?$CFf?6?$AA@ 100af888     unitdriver.obj
 0002:000018ac       ??_C@_0N@LHNHAOFP@exclude?5from?$AA@ 100af8ac     unitdriver.obj
 0002:000018bc       ??_C@_0BC@NGAHNFCP@?$CDExclude?5from?5?$CFd?6?$AA@ 100af8bc     unitdriver.obj
 0002:000018d4       ??_C@_0N@DBLCJFDL@exclude?5till?$AA@ 100af8d4     unitdriver.obj
 0002:000018e4       ??_C@_0BC@IPFEFLJN@?$CDExclude?5till?5?$CFd?6?$AA@ 100af8e4     unitdriver.obj
 0002:000018fc       ??_C@_09OBJNMHBF@fly?5level?$AA@ 100af8fc     unitdriver.obj
 0002:00001908       ??_C@_0O@JEHDOABD@?$CDFlyLevel?5?$CFf?6?$AA@ 100af908     unitdriver.obj
 0002:00001918       ??_C@_0M@BGJOGEAB@fly?5section?$AA@ 100af918     unitdriver.obj
 0002:00001928       ??_C@_0BA@MDDOOFEI@?$CDFlySection?5?$CFf?6?$AA@ 100af928     unitdriver.obj
 0002:0000193c       ??_C@_08PGELNOJ@rlfactor?$AA@ 100af93c     unitdriver.obj
 0002:00001948       ??_C@_0O@FFFOICEP@?$CDRLFactor?5?$CFf?6?$AA@ 100af948     unitdriver.obj
 0002:00001958       ??_C@_0N@BPCACKAO@max?5crvangle?$AA@ 100af958     unitdriver.obj
 0002:00001968       ??_C@_0BB@FLAPJCDL@?$CDMaxCrvAngle?5?$CFf?6?$AA@ 100af968     unitdriver.obj
 0002:0000197c       ??_C@_04FPEKAMLG@apex?$AA@ 100af97c     unitdriver.obj
 0002:00001984       ??_C@_09DMBGKHA@?$CDApex?5?$CFf?6?$AA@ 100af984     unitdriver.obj
 0002:00001990       ??_C@_0O@HCABJCJN@length?5margin?$AA@ 100af990     unitdriver.obj
 0002:000019a0       ??_C@_0O@FBJGONDF@qualification?$AA@ 100af9a0     unitdriver.obj
 0002:000019b0       ??_C@_0BD@LNCGPHKE@Qualifying?5?$DN?5True?6?$AA@ 100af9b0     unitdriver.obj
 0002:000019c8       ??_C@_0M@JEBFIFOG@body?5length?$AA@ 100af9c8     unitdriver.obj
 0002:000019d8       ??_C@_0O@PEDIANIP@pit?5use?5first?$AA@ 100af9d8     unitdriver.obj
 0002:000019e8       ??_C@_0P@PMBPANHI@pit?5use?5smooth?$AA@ 100af9e8     unitdriver.obj
 0002:000019fc       ??_C@_0BF@HICNHJLN@pitlane?5entry?5offset?$AA@ 100af9fc     unitdriver.obj
 0002:00001a18       ??_C@_0BE@GJEBDAPN@pitlane?5exit?5offset?$AA@ 100afa18     unitdriver.obj
 0002:00001a30       ??_C@_0P@OKDOGHCH@pit?5entry?5long?$AA@ 100afa30     unitdriver.obj
 0002:00001a44       ??_C@_0O@BHHFFCKD@pit?5exit?5long?$AA@ 100afa44     unitdriver.obj
 0002:00001a54       ??_C@_0BA@FPAIMKMC@pit?5exit?5length?$AA@ 100afa54     unitdriver.obj
 0002:00001a68       ??_C@_0P@JHLBOIOE@pit?5lat?5offset?$AA@ 100afa68     unitdriver.obj
 0002:00001a7c       ??_C@_0BA@JBBJDDPG@pit?5long?5offset?$AA@ 100afa7c     unitdriver.obj
 0002:00001a90       ??_C@_0BA@OIEJDNKP@pit?5scale?5brake?$AA@ 100afa90     unitdriver.obj
 0002:00001aa4       ??_C@_0O@IJNLBICA@pit?5stop?5dist?$AA@ 100afaa4     unitdriver.obj
 0002:00001ab4       ??_C@_0P@LLEAKNOK@pit?5brake?5dist?$AA@ 100afab4     unitdriver.obj
 0002:00001ac8       ??_C@_0O@OAEAONM@pit?5test?5stop?$AA@ 100afac8     unitdriver.obj
 0002:00001ad8       ??_C@_0M@NHGPOGHF@smooth?5side?$AA@ 100afad8     unitdriver.obj
 0002:00001ae8       ??_C@_0L@LDFNGPD@scale?5bump?$AA@ 100afae8     unitdriver.obj
 0002:00001af8       ??_C@_0BB@OOHGMIOE@scale?5bump?5outer?$AA@ 100afaf8     unitdriver.obj
 0002:00001b0c       ??_C@_08DPOMLJKK@scale?5mu?$AA@ 100afb0c     unitdriver.obj
 0002:00001b18       ??_C@_0BB@NPMKOHFE@scale?5mu?5traffic?$AA@ 100afb18     unitdriver.obj
 0002:00001b2c       ??_C@_0BE@COKINPFN@scale?5brake?5traffic?$AA@ 100afb2c     unitdriver.obj
 0002:00001b44       ??_C@_0BA@EDEAOABD@dist?5to?5traffic?$AA@ 100afb44     unitdriver.obj
 0002:00001b58       ??_C@_0N@EMJHNMBB@scale?5min?5mu?$AA@ 100afb58     unitdriver.obj
 0002:00001b68       ??_C@_08CCHIOIA@aero?5mod?$AA@ 100afb68     unitdriver.obj
 0002:00001b74       ??_C@_0M@ODIDDBKK@avoid?5scale?$AA@ 100afb74     unitdriver.obj
 0002:00001b84       ??_C@_0M@KCOHBHKK@avoid?5width?$AA@ 100afb84     unitdriver.obj
 0002:00001b94       ??_C@_0BA@LDKBKHJP@min?5scale?5brake?$AA@ 100afb94     unitdriver.obj
 0002:00001ba8       ??_C@_0N@GHEKLJNB@min?5scale?5mu?$AA@ 100afba8     unitdriver.obj
 0002:00001bb8       ??_C@_0N@PCEEPGPH@border?5outer?$AA@ 100afbb8     unitdriver.obj
 0002:00001bc8       ??_C@_0BB@FNAOLHG@border?5inner?5max?$AA@ 100afbc8     unitdriver.obj
 0002:00001bdc       ??_C@_0N@EGFEOIB@border?5scale?$AA@ 100afbdc     unitdriver.obj
 0002:00001bec       ??_C@_0N@MIJAEIC@border?5inner?$AA@ 100afbec     unitdriver.obj
 0002:00001bfc       ??_C@_08CEAHNPAH@bump?5mod?$AA@ 100afbfc     unitdriver.obj
 0002:00001c08       ??_C@_01GOHFPIOK@m?$AA@    100afc08     unitdriver.obj
 0002:00001c0c       ??_C@_0L@JNJAIBMJ@fly?5height?$AA@ 100afc0c     unitdriver.obj
 0002:00001c1c       ??_C@_09PKJIHPPM@lookahead?$AA@ 100afc1c     unitdriver.obj
 0002:00001c28       ??_C@_0BA@JGPGJJCO@lookaheadfactor?$AA@ 100afc28     unitdriver.obj
 0002:00001c3c       ??_C@_0L@LMMAGBMD@omegaahead?$AA@ 100afc3c     unitdriver.obj
 0002:00001c4c       ??_C@_0BB@MGKENDIK@omegaaheadfactor?$AA@ 100afc4c     unitdriver.obj
 0002:00001c60       ??_C@_0M@BDAFDMPO@scale?5steer?$AA@ 100afc60     unitdriver.obj
 0002:00001c70       ??_C@_0O@KILLAOGF@stay?5together?$AA@ 100afc70     unitdriver.obj
 0002:00001c80       ??_C@_0O@DEHFFHNJ@initial?5brake?$AA@ 100afc80     unitdriver.obj
 0002:00001c90       ??_C@_0L@OFIAEOIG@slow?5speed?$AA@ 100afc90     unitdriver.obj
 0002:00001ca0       ??_C@_0N@PDHDLMLM@scale?5refuel?$AA@ 100afca0     unitdriver.obj
 0002:00001cb0       ??_C@_08CIOAEMPD@min?5laps?$AA@ 100afcb0     unitdriver.obj
 0002:00001cbc       ??_C@_0N@EFMCOAHD@scale?5brakes?$AA@ 100afcbc     unitdriver.obj
 0002:00001ccc       ??_C@_0BO@PAEMMLK@?$CD?5Scale?5brake?5?5?5?5?5?5?5?5?5?$DN?5?$CF?43f?6?$AA@ 100afccc     unitdriver.obj
 0002:00001cf0       ??_C@_0M@CAKNLMEF@scale?5bumps?$AA@ 100afcf0     unitdriver.obj
 0002:00001d00       ??_C@_0BO@CMLPDHLC@?$CD?5Scale?5bumps?5?5?5?5?5?5?5?5?5?$DN?5?$CF?43f?6?$AA@ 100afd00     unitdriver.obj
 0002:00001d24       ??_C@_0BO@GANNKIGI@?$CD?5Scale?5speed?5?5?5?5?5?5?5?5?5?$DN?5?$CF?43f?6?$AA@ 100afd24     unitdriver.obj
 0002:00001d48       ??_C@_08NLMJEKCF@no?5avoid?$AA@ 100afd48     unitdriver.obj
 0002:00001d54       ??_C@_0L@BJPEHDIP@start?5side?$AA@ 100afd54     unitdriver.obj
 0002:00001d64       ??_C@_0L@MPDNNMNK@show?5index?$AA@ 100afd64     unitdriver.obj
 0002:00001d74       ??_C@_0BB@NPBIHFMO@oShowIndex?5True?6?$AA@ 100afd74     unitdriver.obj
 0002:00001d88       ??_C@_09HOPEFKAN@save?5plot?$AA@ 100afd88     unitdriver.obj
 0002:00001d94       ??_C@_0BA@KLDOJPLK@oSavePlot?5True?6?$AA@ 100afd94     unitdriver.obj
 0002:00001da8       ??_C@_09ENEGJGDD@save?5sect?$AA@ 100afda8     unitdriver.obj
 0002:00001db4       ??_C@_0BE@FLOKMLLC@oSaveSections?5True?6?$AA@ 100afdb4     unitdriver.obj
 0002:00001dcc       ??_C@_09KCJDLDCC@tcl?5range?$AA@ 100afdcc     unitdriver.obj
 0002:00001dd8       ??_C@_08GNMKGIK@tcl?5slip?$AA@ 100afdd8     unitdriver.obj
 0002:00001de4       ??_C@_09CBPOJJKK@abs?5delta?$AA@ 100afde4     unitdriver.obj
 0002:00001df0       ??_C@_09DEFOLBDI@abs?5scale?$AA@ 100afdf0     unitdriver.obj
 0002:00001dfc       ??_C@_0N@CLDJKNGE@clutch?5delta?$AA@ 100afdfc     unitdriver.obj
 0002:00001e0c       ??_C@_0L@PMDMMKFI@clutch?5max?$AA@ 100afe0c     unitdriver.obj
 0002:00001e1c       ??_C@_0N@NLDDPKIE@clutch?5range?$AA@ 100afe1c     unitdriver.obj
 0002:00001e2c       ??_C@_0P@JPJFLK@clutch?5release?$AA@ 100afe2c     unitdriver.obj
 0002:00001e40       ??_C@_0BA@MFKPLPFB@filter?5drifting?$AA@ 100afe40     unitdriver.obj
 0002:00001e54       ??_C@_0N@CFJFALOL@filter?5track?$AA@ 100afe54     unitdriver.obj
 0002:00001e64       ??_C@_0L@KKIHFGJN@filter?5tcl?$AA@ 100afe64     unitdriver.obj
 0002:00001e74       ??_C@_0M@LPHJFGLO@filter?5diff?$AA@ 100afe74     unitdriver.obj
 0002:00001e84       ??_C@_0N@LBANOOEF@filter?5relax?$AA@ 100afe84     unitdriver.obj
 0002:00001e94       ??_C@_0BD@GHBGLPOH@UseFilterRelax?5?$CFd?6?$AA@ 100afe94     unitdriver.obj
 0002:00001eac       ??_C@_0BC@BGEDPCFD@track?5param?5count?$AA@ 100afeac     unitdriver.obj
 0002:00001ec4       ??_C@_0BC@BLKAIIDH@qualify?5param?5seg?$AA@ 100afec4     unitdriver.obj
 0002:00001edc       ??_C@_09KBBJOBD@param?5seg?$AA@ 100afedc     unitdriver.obj
 0002:00001ee8       ??_C@_0M@MDDPNAAC@border?5left?$AA@ 100afee8     unitdriver.obj
 0002:00001ef8       ??_C@_0N@PEDCFBJF@border?5right?$AA@ 100afef8     unitdriver.obj
 0002:00001f08       ??_C@_06CNBACIJO@factor?$AA@ 100aff08     unitdriver.obj
 0002:00001f10       ??_C@_0P@PMJJNDHE@scale?5friction?$AA@ 100aff10     unitdriver.obj
 0002:00001f24       ??_C@_0O@LNNNJAJN@scale?5braking?$AA@ 100aff24     unitdriver.obj
 0002:00001f34       ??_C@_0N@GKAGCGNH@target?5speed?$AA@ 100aff34     unitdriver.obj
 0002:00001f44       ??_C@_09KGGHHCKH@save?5stat?$AA@ 100aff44     unitdriver.obj
 0002:00001f50       ??_C@_0N@MODEBMCD@trkpit?5start?$AA@ 100aff50     unitdriver.obj
 0002:00001f60       ??_C@_0L@FKCFJCHD@trkpit?5end?$AA@ 100aff60     unitdriver.obj
 0002:00001f70       ??_C@_0N@BBIOJNJC@fuelper100km?$AA@ 100aff70     unitdriver.obj
 0002:00001f80       ??_C@_07PIICLBHM@reserve?$AA@ 100aff80     unitdriver.obj
 0002:00001f8c       ??_C@_0BD@JOJNPBPJ@oFuelNeeded?3?5?$CF?41f?6?$AA@ 100aff8c     unitdriver.obj
 0002:00001fa4       ??_C@_0CN@DLMNPIAH@?$CDoIndex?3?5?$CFd?5oAvoidOffset?3?5?$CFf?5oSt@ 100affa4     unitdriver.obj
 0002:00001fdc       ??_C@_0CD@DEJJHKAF@?$CDoIndex?3?5?$CFd?5?$CI?$CFd?$CJ?5?$CI?$CFs?$CJ?5Second?$DNTru@ 100affdc     unitdriver.obj
 0002:00002008       ??_C@_0CE@KELLAJAA@?$CDoIndex?3?5?$CFd?5?$CI?$CFd?$CJ?5?$CI?$CFs?$CJ?5Second?$DNFal@ 100b0008     unitdriver.obj
 0002:00002034       ??_C@_0DC@MBLGNPFD@?$CFd?$CI?$CF?40f?$CJ?$CFd?5TS?3?$CF6?41f?5CS?3?$CF6?41f?5A?3?$CF@ 100b0034     unitdriver.obj
 0002:00002070       ??_C@_0BJ@KDDOICPO@?$CFs?5repairing?3?5?$CFd?5damage?6?$AA@ 100b0070     unitdriver.obj
 0002:00002090       ??_C@_0BE@EGJMBNPJ@?$CFs?5refueling?3?5?$CF?42f?6?$AA@ 100b0090     unitdriver.obj
 0002:000020a8       ??_C@_03ECFJFFPO@RWD?$AA@  100b00a8     unitdriver.obj
 0002:000020ac       ??_C@_04GPMDFGEJ@type?$AA@ 100b00ac     unitdriver.obj
 0002:000020b4       ??_C@_0L@GPGHGHOJ@Drivetrain?$AA@ 100b00b4     unitdriver.obj
 0002:000020c4       ??_C@_03JNCCJFDG@FWD?$AA@  100b00c4     unitdriver.obj
 0002:000020c8       ??_C@_03FMBEPNCB@4WD?$AA@  100b00c8     unitdriver.obj
 0002:000020cc       ??_C@_0BL@FIIIOIOM@Update?5car?5parameters?5?4?4?4?6?$AA@ 100b00cc     unitdriver.obj
 0002:000020ec       ??_C@_0BD@HPIEAIL@?4?4?4?5set?5track?5?4?4?4?6?$AA@ 100b00ec     unitdriver.obj
 0002:00002104       ??_C@_0BK@EMJANBE@?4?4?4?5load?5smooth?5path?5?4?4?4?6?$AA@ 100b0104     unitdriver.obj
 0002:00002124       ??_C@_0BK@EANJEFAC@?4?4?4?5make?5smooth?5path?5?4?4?4?6?$AA@ 100b0124     unitdriver.obj
 0002:00002144       ??_C@_0M@BJEPADIG@RL_FREE?4tk3?$AA@ 100b0144     unitdriver.obj
 0002:00002154       ??_C@_0BA@JJNIPAO@RL_SECTIONS?4XML?$AA@ 100b0154     unitdriver.obj
 0002:00002168       ??_C@_0BO@IPLEFKNM@?4?4?4?5make?5avoid?5path?5left?5?4?4?4?6?$AA@ 100b0168     unitdriver.obj
 0002:0000218c       ??_C@_0M@DHNHKIJ@RL_LEFT?4tk3?$AA@ 100b018c     unitdriver.obj
 0002:0000219c       ??_C@_0BP@HNACLPKD@?4?4?4?5make?5avoid?5path?5right?5?4?4?4?6?$AA@ 100b019c     unitdriver.obj
 0002:000021c4       ??_C@_0N@GBEEFGKJ@RL_RIGHT?4tk3?$AA@ 100b01c4     unitdriver.obj
 0002:000021d4       ??_C@_0BM@KNPGJAEE@?4?4?4?5adjust?5pit?5path?5?$CFd?5?4?4?4?6?$AA@ 100b01d4     unitdriver.obj
 0002:000021f8       ??_C@_0BA@FPHMJFEE@RL_PIT_FREE?4tk3?$AA@ 100b01f8     unitdriver.obj
 0002:0000220c       ??_C@_0BA@EFEOOMEL@RL_PIT_LEFT?4tk3?$AA@ 100b020c     unitdriver.obj
 0002:00002220       ??_C@_0BB@BEGIMGKD@RL_PIT_RIGHT?4tk3?$AA@ 100b0220     unitdriver.obj
 0002:00002234       ??_C@_09MEDCHNLE@?4?4?4?5Done?6?$AA@ 100b0234     unitdriver.obj
 0002:00002240       ??_C@_04IJEANHEE@mass?$AA@ 100b0240     unitdriver.obj
 0002:00002248       ??_C@_02BCPJPDCN@mu?$AA@   100b0248     unitdriver.obj
 0002:0000224c       ??_C@_0O@OMDFPKLA@disk?5diameter?$AA@ 100b024c     unitdriver.obj
 0002:0000225c       ??_C@_0BC@BCCIKHID@Front?5Right?5Brake?$AA@ 100b025c     unitdriver.obj
 0002:00002274       ??_C@_0BB@HOHHFFGL@Rear?5Right?5Brake?$AA@ 100b0274     unitdriver.obj
 0002:00002288       ??_C@_0CJ@GBEFBJBN@?$CD?5Brake?5diameter?5?5?5?5?3?5?$CF0?43f?5m?5?1?5@ 100b0288     unitdriver.obj
 0002:000022bc       ??_C@_0M@LJLIFJMF@piston?5area?$AA@ 100b02bc     unitdriver.obj
 0002:000022cc       ??_C@_0CL@EJNPPAGH@?$CD?5Brake?5area?5?5?5?5?5?5?5?5?3?5?$CF0?45f?5m2?5?1@ 100b02cc     unitdriver.obj
 0002:00002300       ??_C@_0CF@LFOLDNF@?$CD?5Brake?5mu?5?5?5?5?5?5?5?5?5?5?3?5?$CF0?45f?5?1?5?$CF0@ 100b0300     unitdriver.obj
 0002:0000232c       ??_C@_0BN@GFMEOPGO@front?9rear?5brake?5repartition?$AA@ 100b032c     unitdriver.obj
 0002:00002350       ??_C@_0N@EIIEIMOC@Brake?5System?$AA@ 100b0350     unitdriver.obj
 0002:00002360       ??_C@_0BN@MBHBLNCN@?$CD?5Brake?5repartition?5?3?5?$CF0?42f?6?$AA@ 100b0360     unitdriver.obj
 0002:00002384       ??_C@_0N@OGJNDDCE@max?5pressure?$AA@ 100b0384     unitdriver.obj
 0002:00002394       ??_C@_0BN@DMLFMHBE@?$CD?5Brake?5pressure?5?5?5?5?3?5?$CF0?40f?6?$AA@ 100b0394     unitdriver.obj
 0002:000023b8       ??_C@_0CF@GBMILMGH@?$CD?5Brake?5coefficient?5?3?5?$CF0?47f?5?1?5?$CF0@ 100b03b8     unitdriver.obj
 0002:000023e4       ??_C@_0BN@IKPHDKOA@?$CD?5Brake?5torque?5front?3?5?$CF0?42f?6?$AA@ 100b03e4     unitdriver.obj
 0002:00002408       ??_C@_0BN@MBLPIKDF@?$CD?5Brake?5torque?5rear?5?3?5?$CF0?42f?6?$AA@ 100b0408     unitdriver.obj
 0002:0000242c       ??_C@_0BN@OLENKOFM@?$CD?5Brake?5force?5?5?5?5?5?5?5?3?5?$CF0?42f?6?$AA@ 100b042c     unitdriver.obj
 0002:00002450       ??_C@_04GOEDGNCF@area?$AA@ 100b0450     unitdriver.obj
 0002:00002458       ??_C@_0L@KFOBHFPA@Front?5Wing?$AA@ 100b0458     unitdriver.obj
 0002:00002468       ??_C@_05FECBCJJD@angle?$AA@ 100b0468     unitdriver.obj
 0002:00002470       ??_C@_09HDJCNBBO@Rear?5Wing?$AA@ 100b0470     unitdriver.obj
 0002:0000247c       ??_C@_0M@CCMIOJBA@front?5Clift?$AA@ 100b047c     unitdriver.obj
 0002:0000248c       ??_C@_0N@GFHNLLOJ@Aerodynamics?$AA@ 100b048c     unitdriver.obj
 0002:0000249c       ??_C@_0L@PLABABOE@rear?5Clift?$AA@ 100b049c     unitdriver.obj
 0002:000024ac       ??_C@_0M@IPGIOMHG@ride?5height?$AA@ 100b04ac     unitdriver.obj
 0002:000024bc       ??_C@_02JFIEOGIK@Cx?$AA@   100b04bc     unitdriver.obj
 0002:000024c0       ??_C@_0L@NAALCPPI@front?5area?$AA@ 100b04c0     unitdriver.obj
 0002:000024d0       ??_C@_0M@HOBDOHFN@data?5points?$AA@ 100b04d0     unitdriver.obj
 0002:000024e0       ??_C@_06HBKBHOGJ@Engine?$AA@ 100b04e0     unitdriver.obj
 0002:000024e8       ??_C@_05GFOLEBJA@?$CFs?1?$CFs?$AA@ 100b04e8     unitdriver.obj
 0002:000024f0       ??_C@_09EEMLJLMM@revs?5maxi?$AA@ 100b04f0     unitdriver.obj
 0002:000024fc       ??_C@_08KFFDGGJK@tickover?$AA@ 100b04fc     unitdriver.obj
 0002:00002508       ??_C@_0N@BNKANPCM@revs?5limiter?$AA@ 100b0508     unitdriver.obj
 0002:00002518       ??_C@_03JLCPDFEO@rpm?$AA@  100b0518     unitdriver.obj
 0002:0000251c       ??_C@_02FNCPOIDG@Tq?$AA@   100b051c     unitdriver.obj
 0002:00002520       ??_C@_05NKODJPOO@gears?$AA@ 100b0520     unitdriver.obj
 0002:00002528       ??_C@_07BFPDKHBL@Gearbox?$AA@ 100b0528     unitdriver.obj
 0002:00002534       ??_C@_0L@CCDNIEMB@efficiency?$AA@ 100b0534     unitdriver.obj
 0002:00002548       ??_C@_0FA@LMGJPOAN@J?3?5?$CFd?5UD?3?5?$CF0?43f?5Shift?3?5?$CF0?40f?5Rpm@ 100b0548     unitdriver.obj
 0002:000025a8       ??_C@_0CP@KMEKAFBL@J?3?5?$CFd?5UD?3?5?$CF0?43f?5Rpm?3?5?$CF0?40f?5?$FLrpm?$FN@ 100b05a8     unitdriver.obj
 0002:000025e0       ??_C@_02PHMGELLB@?6?6?$AA@ 100b05e0     unitdriver.obj
 0002:000025e4       ??_C@_0CA@FPCECEEM@?$DM?$DM?$DM?5TDriver?3?3InitShiftLevels?$CI?$CJ?6?$AA@ 100b05e4     unitdriver.obj
 0002:0000260c       ??_C@_0BH@DAIMDGCI@X?5D?3?5?$CF?40f?5P?3?5?$CFd?5O?3?5?$CFg?6?$AA@ 100b060c     unitdriver.obj
 0002:00002628       ??_C@_0BH@EHEHCIMK@O?5D?3?5?$CF?40f?5P?3?5?$CFd?5O?3?5?$CFg?6?$AA@ 100b0628     unitdriver.obj
 0002:00002644       ??_C@_0N@GGJDEJKJ@?$CFsdrivers?1?$CFs?$AA@ 100b0644     unitdriver.obj
 0002:00002654       ??_C@_0BH@BCNAILLG@?$CFsdrivers?1?$CFs?1?$CFs_?$CFd?4txt?$AA@ 100b0654     unitdriver.obj
 0002:00002670       ??_C@_0N@HBMLMHKD@?$CFs?1?$CFs_?$CFd?4txt?$AA@ 100b0670     unitdriver.obj
 0002:00002680       ??_C@_0DJ@JNIGEDMC@?$CFs?3?5?$CF7?42f?5km?1h?5?$CI?5?$CF7?42f?5m?1s?5?1?5?$CFd?5@ 100b0680     unitdriver.obj
 0002:000026c8       ??_C@_0GN@FCAOOFCH@Fuel?5consumtion?3?5?$CF?42f?5kg?1100km?5?$CI@ 100b06c8     unitdriver.obj
 0002:00002750       ??_C@_0EH@HAADLAK@Dammages?3?5?$CF?40f?5?$CI?$CF?40f?5per?5lap?5?1?5R@ 100b0750     unitdriver.obj
 0002:000027a8       ??_C@_0O@GBMIGGOG@?6BrakeCoeffs?6?$AA@ 100b07a8     unitdriver.obj
 0002:000027b8       ??_C@_03PPOCCAPH@?$CFf?6?$AA@ 100b07b8     unitdriver.obj
 0002:000027bc       ??_C@_09ODHEEDDE@Mean?3?5?$CFf?6?$AA@ 100b07bc     unitdriver.obj
 0002:000027c8       ??_C@_09HCOIBJBM@?$CFs?1?$CFs?4brk?$AA@ 100b07c8     unitdriver.obj
 0002:000027d4       ??_C@_0BL@DHPNENMA@?$CD?5StoreLearned?5?$CILaps?3?5?$CFd?$CJ?6?$AA@ 100b07d4     unitdriver.obj
 0002:000027f4       __real@3b03126f            100b07f4     unitdriver.obj
 0002:000027f8       __real@3cfdf3b6            100b07f8     unitdriver.obj
 0002:000027fc       __real@3d75c28f            100b07fc     unitdriver.obj
 0002:00002800       __real@3dcccccd            100b0800     unitdriver.obj
 0002:00002804       __real@3e4ccccd            100b0804     unitdriver.obj
 0002:00002808       __real@3e6147ae            100b0808     unitdriver.obj
 0002:0000280c       __real@3e99999a            100b080c     unitdriver.obj
 0002:00002810       __real@3eb33333            100b0810     unitdriver.obj
 0002:00002814       __real@3f000000            100b0814     unitdriver.obj
 0002:00002818       __real@3f19999a            100b0818     unitdriver.obj
 0002:00002820       __real@3f2a36e2eb1c432d    100b0820     unitdriver.obj
 0002:00002830       __real@3f40624dd2f1a9fc    100b0830     unitdriver.obj
 0002:00002840       __real@3f489374bc6a7efa    100b0840     unitdriver.obj
 0002:0000284c       __real@3f4ccccd            100b084c     unitdriver.obj
 0002:00002850       __real@3f50624dd2f1a9fc    100b0850     unitdriver.obj
 0002:0000285c       __real@3f59999a            100b085c     unitdriver.obj
 0002:00002860       __real@3f60624dd2f1a9fc    100b0860     unitdriver.obj
 0002:0000286c       __real@3f666666            100b086c     unitdriver.obj
 0002:00002870       __real@3f70a3d7            100b0870     unitdriver.obj
 0002:00002874       __real@3f733333            100b0874     unitdriver.obj
 0002:00002878       __real@3f7851ec            100b0878     unitdriver.obj
 0002:0000287c       __real@3f81eb85            100b087c     unitdriver.obj
 0002:00002880       __real@3f847ae147ae147b    100b0880     unitdriver.obj
 0002:0000288c       __real@3f8ccccd            100b088c     unitdriver.obj
 0002:00002890       __real@3f947ae147ae147b    100b0890     unitdriver.obj
 0002:000028a0       __real@3f9eb851eb851eb8    100b08a0     unitdriver.obj
 0002:000028b0       __real@3fa0a3d70a3d70a4    100b08b0     unitdriver.obj
 0002:000028c0       __real@3fa1eb851eb851ec    100b08c0     unitdriver.obj
 0002:000028d0       __real@3fa999999999999a    100b08d0     unitdriver.obj
 0002:000028e0       __real@3faeb851eb851eb8    100b08e0     unitdriver.obj
 0002:000028f0       __real@3fb47ae147ae147b    100b08f0     unitdriver.obj
 0002:000028fc       __real@3fc00000            100b08fc     unitdriver.obj
 0002:00002900       __real@3fc3333333333333    100b0900     unitdriver.obj
 0002:00002910       __real@3fc999999999999a    100b0910     unitdriver.obj
 0002:00002920       __real@3fd3333333333333    100b0920     unitdriver.obj
 0002:00002930       __real@3fd6147ae147ae14    100b0930     unitdriver.obj
 0002:00002940       __real@3fd999999999999a    100b0940     unitdriver.obj
 0002:00002950       __real@3fe3333333333333    100b0950     unitdriver.obj
 0002:00002960       __real@3fe4a3d70a3d70a4    100b0960     unitdriver.obj
 0002:0000296c       __real@3fe66666            100b096c     unitdriver.obj
 0002:00002970       __real@3fe6666666666666    100b0970     unitdriver.obj
 0002:00002980       __real@3fea3d70a3d70a3d    100b0980     unitdriver.obj
 0002:00002990       __real@3fec28f5c0000000    100b0990     unitdriver.obj
 0002:000029a0       __real@3fecccccc0000000    100b09a0     unitdriver.obj
 0002:000029b0       __real@3fee666660000000    100b09b0     unitdriver.obj
 0002:000029c0       __real@3fee666666666666    100b09c0     unitdriver.obj
 0002:000029d0       __real@3fef2b020c49ba5e    100b09d0     unitdriver.obj
 0002:000029e0       __real@3fef5c28f5c28f5c    100b09e0     unitdriver.obj
 0002:000029f0       __real@3fef5c2900000000    100b09f0     unitdriver.obj
 0002:00002a00       __real@3fefae147ae147ae    100b0a00     unitdriver.obj
 0002:00002a10       __real@3feffbe76c8b4396    100b0a10     unitdriver.obj
 0002:00002a20       __real@3ff07ae147ae147b    100b0a20     unitdriver.obj
 0002:00002a30       __real@3ff0cccccccccccd    100b0a30     unitdriver.obj
 0002:00002a40       __real@3ff199999999999a    100b0a40     unitdriver.obj
 0002:00002a50       __real@3ff3333333333333    100b0a50     unitdriver.obj
 0002:00002a60       __real@3ff3ae147ae147ae    100b0a60     unitdriver.obj
 0002:00002a70       __real@3ff4cccccccccccd    100b0a70     unitdriver.obj
 0002:00002a80       __real@3ff63d70a3d70a3d    100b0a80     unitdriver.obj
 0002:00002a90       __real@3ff8000000000000    100b0a90     unitdriver.obj
 0002:00002aa0       __real@3ff999999999999a    100b0aa0     unitdriver.obj
 0002:00002aac       __real@40000000            100b0aac     unitdriver.obj
 0002:00002ab0       __real@400020c49ba5e354    100b0ab0     unitdriver.obj
 0002:00002ac0       __real@400213404ea4a8c1    100b0ac0     unitdriver.obj
 0002:00002ad0       __real@4004000000000000    100b0ad0     unitdriver.obj
 0002:00002ae0       __real@4004ed916872b021    100b0ae0     unitdriver.obj
 0002:00002af0       __real@4010000000000000    100b0af0     unitdriver.obj
 0002:00002b00       __real@4013ae147ae147ae    100b0b00     unitdriver.obj
 0002:00002b10       __real@4014000000000000    100b0b10     unitdriver.obj
 0002:00002b20       __real@401e000000000000    100b0b20     unitdriver.obj
 0002:00002b30       __real@4020000000000000    100b0b30     unitdriver.obj
 0002:00002b40       __real@4029000000000000    100b0b40     unitdriver.obj
 0002:00002b50       __real@402e000000000000    100b0b50     unitdriver.obj
 0002:00002b60       __real@4034000000000000    100b0b60     unitdriver.obj
 0002:00002b70       __real@403e000000000000    100b0b70     unitdriver.obj
 0002:00002b7c       __real@40400000            100b0b7c     unitdriver.obj
 0002:00002b80       __real@4044000000000000    100b0b80     unitdriver.obj
 0002:00002b90       __real@4046800000000000    100b0b90     unitdriver.obj
 0002:00002ba0       __real@4049000000000000    100b0ba0     unitdriver.obj
 0002:00002bb0       __real@4052000000000000    100b0bb0     unitdriver.obj
 0002:00002bc0       __real@4059000000000000    100b0bc0     unitdriver.obj
 0002:00002bd0       __real@4066800000000000    100b0bd0     unitdriver.obj
 0002:00002be0       __real@4079000000000000    100b0be0     unitdriver.obj
 0002:00002bf0       __real@407f400000000000    100b0bf0     unitdriver.obj
 0002:00002c00       __real@408a900000000000    100b0c00     unitdriver.obj
 0002:00002c10       __real@408f400000000000    100b0c10     unitdriver.obj
 0002:00002c1c       __real@40900000            100b0c1c     unitdriver.obj
 0002:00002c20       __real@4093880000000000    100b0c20     unitdriver.obj
 0002:00002c30       __real@409f400000000000    100b0c30     unitdriver.obj
 0002:00002c3c       __real@40a00000            100b0c3c     unitdriver.obj
 0002:00002c40       __real@40a0400000000000    100b0c40     unitdriver.obj
 0002:00002c50       __real@40a5680000000000    100b0c50     unitdriver.obj
 0002:00002c60       __real@40a5e00000000000    100b0c60     unitdriver.obj
 0002:00002c70       __real@40ac200000000000    100b0c70     unitdriver.obj
 0002:00002c80       __real@40f86a0000000000    100b0c80     unitdriver.obj
 0002:00002c8c       __real@41200000            100b0c8c     unitdriver.obj
 0002:00002c90       __real@41a00000            100b0c90     unitdriver.obj
 0002:00002c94       __real@41c80000            100b0c94     unitdriver.obj
 0002:00002c98       __real@41dfffffffc00000    100b0c98     unitdriver.obj
 0002:00002ca4       __real@42480000            100b0ca4     unitdriver.obj
 0002:00002ca8       __real@42c80000            100b0ca8     unitdriver.obj
 0002:00002cac       __real@43160000            100b0cac     unitdriver.obj
 0002:00002cb0       __real@44480000            100b0cb0     unitdriver.obj
 0002:00002cb4       __real@447a0000            100b0cb4     unitdriver.obj
 0002:00002cb8       __real@45020000            100b0cb8     unitdriver.obj
 0002:00002cbc       __real@459c4000            100b0cbc     unitdriver.obj
 0002:00002cc0       __real@47c35000            100b0cc0     unitdriver.obj
 0002:00002cc8       __real@47efffffe0000000    100b0cc8     unitdriver.obj
 0002:00002cd4       __real@49742400            100b0cd4     unitdriver.obj
 0002:00002cd8       __real@7f7fffff            100b0cd8     unitdriver.obj
 0002:00002ce0       __real@bf847ae147ae147b    100b0ce0     unitdriver.obj
 0002:00002cf0       __real@bfd6666666666666    100b0cf0     unitdriver.obj
 0002:00002d00       __real@bfe0000000000000    100b0d00     unitdriver.obj
 0002:00002d10       __real@bfe8000000000000    100b0d10     unitdriver.obj
 0002:00002d20       __real@bfefae147ae147ae    100b0d20     unitdriver.obj
 0002:00002d30       __real@c004000000000000    100b0d30     unitdriver.obj
 0002:00002d40       __real@c041800000000000    100b0d40     unitdriver.obj
 0002:00002d50       __real@c09f400000000000    100b0d50     unitdriver.obj
 0002:00002d60       __xmm@80000000800000008000000080000000 100b0d60     unitdriver.obj
 0002:00002da0       __real@3e9eb852            100b0da0     unitfixcarparam.obj
 0002:00002da8       __real@3ee4f8b588e368f1    100b0da8     unitfixcarparam.obj
 0002:00002db8       __real@3f689374bc6a7efa    100b0db8     unitfixcarparam.obj
 0002:00002dc8       __real@3f747ae147ae147b    100b0dc8     unitfixcarparam.obj
 0002:00002dd8       __real@3feb333333333333    100b0dd8     unitfixcarparam.obj
 0002:00002de8       __real@3fedc28f5c28f5c3    100b0de8     unitfixcarparam.obj
 0002:00002df8       __real@3fef851eb851eb85    100b0df8     unitfixcarparam.obj
 0002:00002e08       __real@4012000000000000    100b0e08     unitfixcarparam.obj
 0002:00002e18       __real@4026000000000000    100b0e18     unitfixcarparam.obj
 0002:00002e28       __real@4027000000000000    100b0e28     unitfixcarparam.obj
 0002:00002e38       __real@4039000000000000    100b0e38     unitfixcarparam.obj
 0002:00002e48       __real@405c000000000000    100b0e48     unitfixcarparam.obj
 0002:00002e58       __real@4062c00000000000    100b0e58     unitfixcarparam.obj
 0002:00002e68       __real@4069000000000000    100b0e68     unitfixcarparam.obj
 0002:00002e78       __real@40c3880000000000    100b0e78     unitfixcarparam.obj
 0002:00002e84       __real@42f00000            100b0e84     unitfixcarparam.obj
 0002:00002ea0       ??_7TLane@@6B@             100b0ea0     unitlane.obj
 0002:00002ec0       __real@408f380000000000    100b0ec0     unitlane.obj
 0002:00002ed4       __real@bf800000            100b0ed4     unitlinalg.obj
 0002:00002edc       ??_C@_0M@KODHIEEG@car1?9trb1_0?$AA@ 100b0edc     unitmain.obj
 0002:00002eec       ??_C@_0M@LHCMLFAH@car1?9trb1_1?$AA@ 100b0eec     unitmain.obj
 0002:00002efc       ??_C@_0M@JHLKLIID@car2?9trb1_0?$AA@ 100b0efc     unitmain.obj
 0002:00002f0c       ??_C@_0M@IOKBIJMC@car2?9trb1_1?$AA@ 100b0f0c     unitmain.obj
 0002:00002f1c       ??_C@_0M@IAMBKMMA@car3?9trb1_0?$AA@ 100b0f1c     unitmain.obj
 0002:00002f2c       ??_C@_0M@JJNKJNIB@car3?9trb1_1?$AA@ 100b0f2c     unitmain.obj
 0002:00002f3c       ??_C@_0M@OEKAMBAJ@car4?9trb1_0?$AA@ 100b0f3c     unitmain.obj
 0002:00002f4c       ??_C@_0M@PNLLPAEI@car4?9trb1_1?$AA@ 100b0f4c     unitmain.obj
 0002:00002f5c       ??_C@_0M@PDNLNFEK@car5?9trb1_0?$AA@ 100b0f5c     unitmain.obj
 0002:00002f6c       ??_C@_0M@OKMAOEAL@car5?9trb1_1?$AA@ 100b0f6c     unitmain.obj
 0002:00002f80       ??_C@_0CO@KBLNKHOC@?6?6?$CD?6?$CD?5Performance?5Counter?5nicht?5@ 100b0f80     unitmain.obj
 0002:00002fb8       ??_C@_0DM@HCNDINIB@?6?6?$CD?6?$CD?5Frequency?5for?5Performance?5@ 100b0fb8     unitmain.obj
 0002:00003000       ??_C@_0DF@CKOBBCJJ@?$CD?5Resolution?5for?5Performance?5Cou@ 100b1000     unitmain.obj
 0002:00003040       ??_C@_04MEMAJGDJ@name?$AA@ 100b1040     unitmain.obj
 0002:00003048       ??_C@_0CH@IIIAIOMF@?6?6?6?5FATAL?5ERROR?3?5File?5?8?$CFs?8?5not?5f@ 100b1048     unitmain.obj
 0002:00003078       ??_C@_07CCEIBDIA@PitCmd?6?$AA@ 100b1078     unitmain.obj
 0002:00003084       ??_C@_08EPBPDJML@EndRace?6?$AA@ 100b1084     unitmain.obj
 0002:00003090       ??_C@_08JLFBKJPI@?6?6Clock?6?$AA@ 100b1090     unitmain.obj
 0002:0000309c       ??_C@_0BJ@BEBDPCAI@Total?5Time?5used?3?5?$CFg?5sec?6?$AA@ 100b109c     unitmain.obj
 0002:000030bc       ??_C@_0BK@PGMEILKK@Min?5?5?5Time?5used?3?5?$CFg?5msec?6?$AA@ 100b10bc     unitmain.obj
 0002:000030dc       ??_C@_0BK@BFJJDFHA@Max?5?5?5Time?5used?3?5?$CFg?5msec?6?$AA@ 100b10dc     unitmain.obj
 0002:000030fc       ??_C@_0BK@CKNOHBED@Mean?5?5Time?5used?3?5?$CFg?5msec?6?$AA@ 100b10fc     unitmain.obj
 0002:0000311c       ??_C@_0BF@NOPEMDAH@Long?5Time?5Steps?3?5?$CFd?6?$AA@ 100b111c     unitmain.obj
 0002:00003138       ??_C@_0BF@MGKCGIBH@Critical?5Steps?5?3?5?$CFd?6?$AA@ 100b1138     unitmain.obj
 0002:00003154       ??_C@_0BF@LNDIPBHE@Unused?5Steps?5?5?5?3?5?$CFd?6?$AA@ 100b1154     unitmain.obj
 0002:00003170       ??_C@_0N@IGNBFBIP@cavallo_2012?$AA@ 100b1170     unitmain.obj
 0002:00003180       ??_C@_0BF@JNPKONIP@drivers?1cavallo_2012?$AA@ 100b1180     unitmain.obj
 0002:0000319c       ??_C@_09HGIEKFBK@car1?9trb1?$AA@ 100b119c     unitmain.obj
 0002:000031a8       ??_C@_0L@KGAECLE@boxer_2012?$AA@ 100b11a8     unitmain.obj
 0002:000031b8       ??_C@_0BD@HMDAIDEP@drivers?1boxer_2012?$AA@ 100b11b8     unitmain.obj
 0002:000031d0       ??_C@_09EHGMLPIH@car2?9trb1?$AA@ 100b11d0     unitmain.obj
 0002:000031dc       ??_C@_0M@OALHBCDD@jumper_2012?$AA@ 100b11dc     unitmain.obj
 0002:000031ec       ??_C@_0BE@MKKOGJGG@drivers?1jumper_2012?$AA@ 100b11ec     unitmain.obj
 0002:00003204       ??_C@_09OBBLLEDD@car3?9trb1?$AA@ 100b1204     unitmain.obj
 0002:00003210       ??_C@_0M@KLPMEGHB@blacky_2012?$AA@ 100b1210     unitmain.obj
 0002:00003220       ??_C@_0BE@IBOFDNCE@drivers?1blacky_2012?$AA@ 100b1220     unitmain.obj
 0002:00003238       ??_C@_09CELMIKLN@car4?9trb1?$AA@ 100b1238     unitmain.obj
 0002:00003244       ??_C@_0N@COEBHIKP@trotter_2012?$AA@ 100b1244     unitmain.obj
 0002:00003254       ??_C@_0BF@DFGKMEKP@drivers?1trotter_2012?$AA@ 100b1254     unitmain.obj
 0002:00003270       ??_C@_09ICMLIBAJ@car5?9trb1?$AA@ 100b1270     unitmain.obj
 0002:0000327c       ??_C@_0M@LKFHGGKD@hunter_2012?$AA@ 100b127c     unitmain.obj
 0002:0000328c       ??_C@_0BE@JAEOBNPG@drivers?1hunter_2012?$AA@ 100b128c     unitmain.obj
 0002:000032a4       ??_C@_09BFFEJACA@car7?9trb1?$AA@ 100b12a4     unitmain.obj
 0002:000032b0       ??_C@_09ILLCEHIC@ring_2012?$AA@ 100b12b0     unitmain.obj
 0002:000032bc       ??_C@_0BC@HDCCMMC@drivers?1ring_2012?$AA@ 100b12bc     unitmain.obj
 0002:000032d4       ??_C@_09ODBMOAMJ@car8?9trb1?$AA@ 100b12d4     unitmain.obj
 0002:000032e0       __real@41cdcd6500000000    100b12e0     unitmain.obj
 0002:000032f0       __real@7fefffffffffffff    100b12f0     unitmain.obj
 0002:00003318       __real@4028000000000000    100b1318     unitopponent.obj
 0002:00003328       __real@404e000000000000    100b1328     unitopponent.obj
 0002:00003338       __real@c024000000000000    100b1338     unitopponent.obj
 0002:00003348       __real@c03e000000000000    100b1348     unitopponent.obj
 0002:00003358       __real@c059000000000000    100b1358     unitopponent.obj
 0002:00003374       ??_7TPidController@@6B@    100b1374     unitpidctrl.obj
 0002:00003384       ?SPEED_LIMIT_MARGIN@TPit@@2MB 100b1384     unitpit.obj
 0002:00003390       ??_7TPitLane@@6B@          100b1390     unitpit.obj
 0002:000033b0       ??_C@_0BC@OHJKGBJJ@1?4?5FromStart?3?5?$CFg?6?$AA@ 100b13b0     unitpit.obj
 0002:000033c8       ??_C@_0BC@NBMLMPL@2?4?5FromStart?3?5?$CFg?6?$AA@ 100b13c8     unitpit.obj
 0002:000033e0       ??_C@_0P@PFAFPFPO@?6?6Pit?5?$DN?5NULL?6?6?$AA@ 100b13e0     unitpit.obj
 0002:000033f4       ??_C@_0BD@JMKKMBPG@SmoothPitPath?5?4?4?4?6?$AA@ 100b13f4     unitpit.obj
 0002:0000340c       ??_C@_0BD@KFOLLIGJ@?4?4?4?5SmoothPitPath?6?$AA@ 100b140c     unitpit.obj
 0002:00003424       __real@3ca3d70a            100b1424     unitpit.obj
 0002:00003428       __real@3fdb851ec0000000    100b1428     unitpit.obj
 0002:00003438       __real@3fe3333340000000    100b1438     unitpit.obj
 0002:00003444       __real@40800000            100b1444     unitpit.obj
 0002:0000344c       __real@43480000            100b144c     unitpitparam.obj
 0002:00003458       ?cMAX_FUEL_PER_METER@TSimpleStrategy@@2MB 100b1458     unitstrategy.obj
 0002:00003464       ??_7TAbstractStrategy@@6B@ 100b1464     unitstrategy.obj
 0002:000034a4       ??_7TSimpleStrategy@@6B@   100b14a4     unitstrategy.obj
 0002:000034e0       ??_C@_0BB@EFJFKIIJ@Pitstop?5by?5fuel?6?$AA@ 100b14e0     unitstrategy.obj
 0002:000034f4       ??_C@_0BF@EOEMJMIG@Pitstop?5by?5Teammate?6?$AA@ 100b14f4     unitstrategy.obj
 0002:00003510       ??_C@_0L@IIGLCMCN@max?5damage?$AA@ 100b1510     unitstrategy.obj
 0002:00003520       ??_C@_0BC@KMFMJDBF@cPIT_DAMAGE?5?$DN?5?$CFd?6?$AA@ 100b1520     unitstrategy.obj
 0002:00003538       ??_C@_08LNHHEJNO@max?5fuel?$AA@ 100b1538     unitstrategy.obj
 0002:00003544       ??_C@_0BL@KCEFPMLK@oMaxFuel?5?$CIprivate?$CJ?5?$DN?5?$CF?41f?6?$AA@ 100b1544     unitstrategy.obj
 0002:00003564       ??_C@_0L@HLDLFCCE@start?5fuel?$AA@ 100b1564     unitstrategy.obj
 0002:00003574       ??_C@_0BN@DCIFHMAI@oStartFuel?5?$CIprivate?$CJ?5?$DN?5?$CF?41f?6?$AA@ 100b1574     unitstrategy.obj
 0002:00003598       ??_C@_0N@GEJBANM@initial?5fuel?$AA@ 100b1598     unitstrategy.obj
 0002:000035a8       ??_C@_0P@OOAJJIKJ@Overrun?51?3?5?$CFg?6?$AA@ 100b15a8     unitstrategy.obj
 0002:000035bc       ??_C@_0BA@CHLDAFPC@oPitTicker?3?5?$CFd?6?$AA@ 100b15bc     unitstrategy.obj
 0002:000035d0       ??_C@_0P@NPOBICDE@Overrun?52?3?5?$CFg?6?$AA@ 100b15d0     unitstrategy.obj
 0002:000035e8       __real@3f7cac083126e979    100b15e8     unitstrategy.obj
 0002:000035f8       __real@400c000000000000    100b15f8     unitstrategy.obj
 0002:00003608       __real@4016000000000000    100b1608     unitstrategy.obj
 0002:00003618       __real@4055200000000000    100b1618     unitstrategy.obj
 0002:00003624       __real@42b60000            100b1624     unitstrategy.obj
 0002:00003628       __real@47c34ff3            100b1628     unitstrategy.obj
 0002:00003630       __xmm@41f00000000000000000000000000000 100b1630     unitsysfoo.obj
 0002:00003648       ??_C@_05LGDANENA@Empty?$AA@ 100b1648     unitteammanager.obj
 0002:00003658       __real@406f400000000000    100b1658     unittmpcarparam.obj
 0002:00003688       __real@404ca5dc1a63c1f8    100b1688     sg_vs2008_32:sgd.obj
 0002:00003690       __real@3f91df46a2529d39    100b1690     sg_vs2008_32:sgd.obj
 0002:00003698       __real@4022d97c7f3321d2    100b1698     sg_vs2008_32:sgd.obj
 0002:000036a0       __real@400921fb54442d18    100b16a0     sg_vs2008_32:sgd.obj
 0002:000036a8       __real@401921fb54442d18    100b16a8     sg_vs2008_32:sgd.obj
 0002:000036b0       __real@3ff921fb54442d18    100b16b0     sg_vs2008_32:sgd.obj
 0002:000036b8       __real@3fefffeb074a771d    100b16b8     sg_vs2008_32:sgd.obj
 0002:000036c0       __real@bff921fb54442d18    100b16c0     sg_vs2008_32:sgd.obj
 0002:000036c8       __real@bfefffeb074a771d    100b16c8     sg_vs2008_32:sgd.obj
 0002:000036d0       ??_C@_0CL@MFADICKC@sgdGetAngleBetweenVectors?3?5Norma@ 100b16d0     sg_vs2008_32:sgd.obj
 0002:00003700       ??_C@_0ED@LKGOFPEJ@sgFrustum?3?5Can?8t?5support?5fields?5@ 100b1700     sg_vs2008_32:sgd.obj
 0002:00003744       ??_C@_0DF@MFOAFILF@sgFrustum?3?5Can?8t?5support?5width?5o@ 100b1744     sg_vs2008_32:sgd.obj
 0002:0000377c       ??_C@_0DE@FLABMHND@sgdFrustum?3?5Can?8t?5support?5depth?5@ 100b177c     sg_vs2008_32:sgd.obj
 0002:000037b0       __real@bee4f8b588e368f1    100b17b0     sg_vs2008_32:sgd.obj
 0002:000037b8       ??_C@_0CE@HBHLABFJ@sgdMat4ToCoord?3?5ERROR?5?9?5Bad?5Matr@ 100b17b8     sg_vs2008_32:sgd.obj
 0002:000037dc       ??_C@_0CJ@BEEFNIHJ@sg?3?5ERROR?5?9?5Singular?5matrix?0?5no?5@ 100b17dc     sg_vs2008_32:sgd.obj
 0002:00003808       __real@3cb0000000000000    100b1808     sg_vs2008_32:sgd.obj
 0002:00003810       __real@c04ca5dc1a63c1f8    100b1810     sg_vs2008_32:sgd.obj
 0002:00003818       __real@3feffffde7210be9    100b1818     sg_vs2008_32:sgd.obj
 0002:00003820       __real@4056800000000000    100b1820     sg_vs2008_32:sgd.obj
 0002:00003828       ??_C@_05JLFELJNP@FATAL?$AA@ 100b1828     ul_vs2008_32:ulError.obj
 0002:00003830       ??_C@_07KCOHIFOP@WARNING?$AA@ 100b1830     ul_vs2008_32:ulError.obj
 0002:00003838       ??_C@_05KOLFGEDA@DEBUG?$AA@ 100b1838     ul_vs2008_32:ulError.obj
 0002:00003844       ??_C@_07KJFPOMFC@?$CFs?3?5?$CFs?6?$AA@ 100b1844     ul_vs2008_32:ulError.obj
 0002:0000384c       ?value@?$_Sizeof@U_Nil@std@@U12@U12@U12@U12@U12@U12@U12@@std@@2IB 100b184c     LIBCMTD:typinfo.obj
 0002:00003850       ?value@?$integral_constant@_N$0A@@std@@2_NB 100b1850     LIBCMTD:typinfo.obj
 0002:00003851       ?value@?$integral_constant@_N$00@std@@2_NB 100b1851     LIBCMTD:typinfo.obj
 0002:00003858       ??_7type_info@@6B@         100b1858     LIBCMTD:typinfo.obj
 0002:0000385c       __FPinit                   100b185c     LIBCMTD:fpinit.obj
 0002:00003864       ??_7bad_alloc@std@@6B@     100b1864     LIBCMTD:new.obj
 0002:0000386c       ??_C@_0P@GHFPNOJB@bad?5allocation?$AA@ 100b186c     LIBCMTD:new.obj
 0002:00003880       ??_C@_1EO@LHDAJOCM@?$AA_?$AAB?$AAL?$AAO?$AAC?$AAK?$AA_?$AAT?$AAY?$AAP?$AAE?$AA_?$AAI?$AAS?$AA_?$AAV?$AAA?$AAL?$AAI?$AAD?$AA?$CI?$AAp?$AAH?$AAe?$AAa?$AAd?$AA?9?$AA?$DO?$AAn?$AAB?$AAl?$AAo@ 100b1880     LIBCMTD:dbgdel.obj
 0002:000038d0       ??_C@_15GANGMFKL@?$AA?$CF?$AAs?$AA?$AA@ 100b18d0     LIBCMTD:dbgdel.obj
 0002:000038d8       ??_C@_1GE@BDAODJCD@?$AAf?$AA?3?$AA?2?$AAd?$AAd?$AA?2?$AAv?$AAc?$AAt?$AAo?$AAo?$AAl?$AAs?$AA?2?$AAc?$AAr?$AAt?$AA_?$AAb?$AAl?$AAd?$AA?2?$AAs?$AAe?$AAl?$AAf?$AA_?$AAx?$AA8?$AA6?$AA?2?$AAc@ 100b18d8     LIBCMTD:dbgdel.obj
 0002:00003990       ??_C@_1CC@FADMNIL@?$AA?$CI?$AAs?$AAt?$AAr?$AAe?$AAa?$AAm?$AA?5?$AA?$CB?$AA?$DN?$AA?5?$AAN?$AAU?$AAL?$AAL?$AA?$CJ?$AA?$AA@ 100b1990     LIBCMTD:fclose.obj
 0002:000039b8       ??_C@_1GA@KMIDAPAP@?$AAf?$AA?3?$AA?2?$AAd?$AAd?$AA?2?$AAv?$AAc?$AAt?$AAo?$AAo?$AAl?$AAs?$AA?2?$AAc?$AAr?$AAt?$AA_?$AAb?$AAl?$AAd?$AA?2?$AAs?$AAe?$AAl?$AAf?$AA_?$AAx?$AA8?$AA6?$AA?2?$AAc@ 100b19b8     LIBCMTD:fclose.obj
 0002:00003a18       ??_C@_1O@EGMJNCOI@?$AAf?$AAc?$AAl?$AAo?$AAs?$AAe?$AA?$AA@ 100b1a18     LIBCMTD:fclose.obj
 0002:00003a28       ??_C@_1BM@JMKHIAHP@?$AA?$CI?$AAs?$AAt?$AAr?$AA?5?$AA?$CB?$AA?$DN?$AA?5?$AAN?$AAU?$AAL?$AAL?$AA?$CJ?$AA?$AA@ 100b1a28     LIBCMTD:fclose.obj
 0002:00003a44       ??_C@_1BO@JINCABEC@?$AA_?$AAf?$AAc?$AAl?$AAo?$AAs?$AAe?$AA_?$AAn?$AAo?$AAl?$AAo?$AAc?$AAk?$AA?$AA@ 100b1a44     LIBCMTD:fclose.obj
 0002:00003a64       ??_C@_1BO@CLGIAEOJ@?$AA?$CI?$AAf?$AAi?$AAl?$AAe?$AA?5?$AA?$CB?$AA?$DN?$AA?5?$AAN?$AAU?$AAL?$AAL?$AA?$CJ?$AA?$AA@ 100b1a64     LIBCMTD:fopen.obj
 0002:00003a88       ??_C@_1FO@NCADDBOO@?$AAf?$AA?3?$AA?2?$AAd?$AAd?$AA?2?$AAv?$AAc?$AAt?$AAo?$AAo?$AAl?$AAs?$AA?2?$AAc?$AAr?$AAt?$AA_?$AAb?$AAl?$AAd?$AA?2?$AAs?$AAe?$AAl?$AAf?$AA_?$AAx?$AA8?$AA6?$AA?2?$AAc@ 100b1a88     LIBCMTD:fopen.obj
 0002:00003ae8       ??_C@_1BA@HNEAFMNL@?$AA_?$AAf?$AAs?$AAo?$AAp?$AAe?$AAn?$AA?$AA@ 100b1ae8     LIBCMTD:fopen.obj
 0002:00003af8       ??_C@_1BO@MJMKAKCJ@?$AA?$CI?$AAm?$AAo?$AAd?$AAe?$AA?5?$AA?$CB?$AA?$DN?$AA?5?$AAN?$AAU?$AAL?$AAL?$AA?$CJ?$AA?$AA@ 100b1af8     LIBCMTD:fopen.obj
 0002:00003b18       ??_C@_1CI@HBNALCBB@?$AA?$CI?$AA?$CK?$AAm?$AAo?$AAd?$AAe?$AA?5?$AA?$CB?$AA?$DN?$AA?5?$AA_?$AAT?$AA?$CI?$AA?8?$AA?2?$AA0?$AA?8?$AA?$CJ?$AA?$CJ?$AA?$AA@ 100b1b18     LIBCMTD:fopen.obj
 0002:00003b40       ??_C@_1CA@LLJLFCDN@?$AA?$CI?$AAp?$AAf?$AAi?$AAl?$AAe?$AA?5?$AA?$CB?$AA?$DN?$AA?5?$AAN?$AAU?$AAL?$AAL?$AA?$CJ?$AA?$AA@ 100b1b40     LIBCMTD:fopen.obj
 0002:00003b60       ??_C@_1BA@PBGKCCAP@?$AAf?$AAo?$AAp?$AAe?$AAn?$AA_?$AAs?$AA?$AA@ 100b1b60     LIBCMTD:fopen.obj
 0002:00003b70       ??_C@_1GC@NHJDDBOH@?$AAf?$AA?3?$AA?2?$AAd?$AAd?$AA?2?$AAv?$AAc?$AAt?$AAo?$AAo?$AAl?$AAs?$AA?2?$AAc?$AAr?$AAt?$AA_?$AAb?$AAl?$AAd?$AA?2?$AAs?$AAe?$AAl?$AAf?$AA_?$AAx?$AA8?$AA6?$AA?2?$AAc@ 100b1b70     LIBCMTD:fprintf.obj
 0002:00003bd4       ??_C@_1BA@DNOHIGNM@?$AAf?$AAp?$AAr?$AAi?$AAn?$AAt?$AAf?$AA?$AA@ 100b1bd4     LIBCMTD:fprintf.obj
 0002:00003be4       ??_C@_1CC@MGIEJOME@?$AA?$CI?$AAf?$AAo?$AAr?$AAm?$AAa?$AAt?$AA?5?$AA?$CB?$AA?$DN?$AA?5?$AAN?$AAU?$AAL?$AAL?$AA?$CJ?$AA?$AA@ 100b1be4     LIBCMTD:fprintf.obj
 0002:00003c08       ??_C@_1BAA@ODEGEDCK@?$AA?$CI?$AA?5?$AA?$CI?$AA_?$AAS?$AAt?$AAr?$AAe?$AAa?$AAm?$AA?9?$AA?$DO?$AA_?$AAf?$AAl?$AAa?$AAg?$AA?5?$AA?$CG?$AA?5?$AA_?$AAI?$AAO?$AAS?$AAT?$AAR?$AAG?$AA?$CJ?$AA?5?$AA?$HM?$AA?$HM?$AA?5@ 100b1c08     LIBCMTD:fprintf.obj
 0002:00003d08       ??_C@_1FO@PNLFLIH@?$AAf?$AA?3?$AA?2?$AAd?$AAd?$AA?2?$AAv?$AAc?$AAt?$AAo?$AAo?$AAl?$AAs?$AA?2?$AAc?$AAr?$AAt?$AA_?$AAb?$AAl?$AAd?$AA?2?$AAs?$AAe?$AAl?$AAf?$AA_?$AAx?$AA8?$AA6?$AA?2?$AAc@ 100b1d08     LIBCMTD:fread.obj
 0002:00003d68       ??_C@_1BA@CMLCEIGG@?$AAf?$AAr?$AAe?$AAa?$AAd?$AA_?$AAs?$AA?$AA@ 100b1d68     LIBCMTD:fread.obj
 0002:00003d78       ??_C@_1CC@CGFEEBMC@?$AA?$CI?$AAb?$AAu?$AAf?$AAf?$AAe?$AAr?$AA?5?$AA?$CB?$AA?$DN?$AA?5?$AAN?$AAU?$AAL?$AAL?$AA?$CJ?$AA?$AA@ 100b1d78     LIBCMTD:fread.obj
 0002:00003d9c       ??_C@_1CA@IDPOGFL@?$AA_?$AAf?$AAr?$AAe?$AAa?$AAd?$AA_?$AAn?$AAo?$AAl?$AAo?$AAc?$AAk?$AA_?$AAs?$AA?$AA@ 100b1d9c     LIBCMTD:fread.obj
 0002:00003dc0       ??_C@_1EA@FAMECDND@?$AAn?$AAu?$AAm?$AA?5?$AA?$DM?$AA?$DN?$AA?5?$AA?$CI?$AAS?$AAI?$AAZ?$AAE?$AA_?$AAM?$AAA?$AAX?$AA?5?$AA?1?$AA?5?$AAe?$AAl?$AAe?$AAm?$AAe?$AAn?$AAt?$AAS?$AAi?$AAz?$AAe?$AA?$CJ?$AA?$AA@ 100b1dc0     LIBCMTD:fread.obj
 0002:00003e00       ??_C@_1LG@DCNDJCHK@?$AA?$CI?$AA?$CC?$AAI?$AAn?$AAc?$AAo?$AAn?$AAs?$AAi?$AAs?$AAt?$AAe?$AAn?$AAt?$AA?5?$AAS?$AAt?$AAr?$AAe?$AAa?$AAm?$AA?5?$AAC?$AAo?$AAu?$AAn?$AAt?$AA?4?$AA?5?$AAF?$AAl?$AAu@ 100b1e00     LIBCMTD:fread.obj
 0002:00003eb8       ??_C@_1DA@DKEFLDMG@?$AA?$CI?$AA?$CC?$AAb?$AAu?$AAf?$AAf?$AAe?$AAr?$AA?5?$AAt?$AAo?$AAo?$AA?5?$AAs?$AAm?$AAa?$AAl?$AAl?$AA?$CC?$AA?0?$AA?5?$AA0?$AA?$CJ?$AA?$AA@ 100b1eb8     LIBCMTD:fread.obj
 0002:00003ee8       ??_C@_1GA@DOFNKKGD@?$AAf?$AA?3?$AA?2?$AAd?$AAd?$AA?2?$AAv?$AAc?$AAt?$AAo?$AAo?$AAl?$AAs?$AA?2?$AAc?$AAr?$AAt?$AA_?$AAb?$AAl?$AAd?$AA?2?$AAs?$AAe?$AAl?$AAf?$AA_?$AAx?$AA8?$AA6?$AA?2?$AAc@ 100b1ee8     LIBCMTD:fwrite.obj
 0002:00003f48       ??_C@_1O@KLNKIMAP@?$AAf?$AAw?$AAr?$AAi?$AAt?$AAe?$AA?$AA@ 100b1f48     LIBCMTD:fwrite.obj
 0002:00003f58       ??_C@_1BO@JGPKCBCE@?$AA_?$AAf?$AAw?$AAr?$AAi?$AAt?$AAe?$AA_?$AAn?$AAo?$AAl?$AAo?$AAc?$AAk?$AA?$AA@ 100b1f58     LIBCMTD:fwrite.obj
 0002:00003f78       ??_C@_1DC@FHEPNAPF@?$AAn?$AAu?$AAm?$AA?5?$AA?$DM?$AA?$DN?$AA?5?$AA?$CI?$AAS?$AAI?$AAZ?$AAE?$AA_?$AAM?$AAA?$AAX?$AA?5?$AA?1?$AA?5?$AAs?$AAi?$AAz?$AAe?$AA?$CJ?$AA?$AA@ 100b1f78     LIBCMTD:fwrite.obj
 0002:00003fb0       ??_C@_1GA@LHEGHOAF@?$AAf?$AA?3?$AA?2?$AAd?$AAd?$AA?2?$AAv?$AAc?$AAt?$AAo?$AAo?$AAl?$AAs?$AA?2?$AAc?$AAr?$AAt?$AA_?$AAb?$AAl?$AAd?$AA?2?$AAs?$AAe?$AAl?$AAf?$AA_?$AAx?$AA8?$AA6?$AA?2?$AAc@ 100b1fb0     LIBCMTD:printf.obj
 0002:00004010       ??_C@_1O@GKDHFACN@?$AAp?$AAr?$AAi?$AAn?$AAt?$AAf?$AA?$AA@ 100b2010     LIBCMTD:printf.obj
 0002:00004020       ??_C@_1GC@BMNPEKNN@?$AAf?$AA?3?$AA?2?$AAd?$AAd?$AA?2?$AAv?$AAc?$AAt?$AAo?$AAo?$AAl?$AAs?$AA?2?$AAc?$AAr?$AAt?$AA_?$AAb?$AAl?$AAd?$AA?2?$AAs?$AAe?$AAl?$AAf?$AA_?$AAx?$AA8?$AA6?$AA?2?$AAc@ 100b2020     LIBCMTD:sprintf.obj
 0002:00004084       ??_C@_1BA@KBJJGFFE@?$AAs?$AAp?$AAr?$AAi?$AAn?$AAt?$AAf?$AA?$AA@ 100b2084     LIBCMTD:sprintf.obj
 0002:00004094       ??_C@_1CC@OLIJCKA@?$AA?$CI?$AAs?$AAt?$AAr?$AAi?$AAn?$AAg?$AA?5?$AA?$CB?$AA?$DN?$AA?5?$AAN?$AAU?$AAL?$AAL?$AA?$CJ?$AA?$AA@ 100b2094     LIBCMTD:sprintf.obj
 0002:000040b8       ?ProcessDetach@NativeDll@<CrtImplementationDetails>@@0IB 100b20b8     LIBCMTD:_trnsctrl_.obj
 0002:000040bc       ?ProcessAttach@NativeDll@<CrtImplementationDetails>@@0IB 100b20bc     LIBCMTD:_trnsctrl_.obj
 0002:000040c0       ?ThreadAttach@NativeDll@<CrtImplementationDetails>@@0IB 100b20c0     LIBCMTD:_trnsctrl_.obj
 0002:000040c4       ?ThreadDetach@NativeDll@<CrtImplementationDetails>@@0IB 100b20c4     LIBCMTD:_trnsctrl_.obj
 0002:000040c8       ?ProcessVerifier@NativeDll@<CrtImplementationDetails>@@0IB 100b20c8     LIBCMTD:_trnsctrl_.obj
 0002:000040cc       ??_C@_1BE@CHNFPLHD@?$AA_?$AAs?$AAn?$AAp?$AAr?$AAi?$AAn?$AAt?$AAf?$AA?$AA@ 100b20cc     LIBCMTD:snprintf.obj
 0002:000040e0       ??_C@_1EC@FABAOFFO@?$AA?$CI?$AAc?$AAo?$AAu?$AAn?$AAt?$AA?5?$AA?$DN?$AA?$DN?$AA?5?$AA0?$AA?$CJ?$AA?5?$AA?$HM?$AA?$HM?$AA?5?$AA?$CI?$AAs?$AAt?$AAr?$AAi?$AAn?$AAg?$AA?5?$AA?$CB?$AA?$DN?$AA?5?$AAN?$AAU?$AAL?$AAL?$AA?$CJ@ 100b20e0     LIBCMTD:snprintf.obj
 0002:00004124       ??_C@_0DA@HMCPFNKN@f?3?2dd?2vctools?2crt_bld?2self_x86?2c@ 100b2124     LIBCMTD:onexit.obj
 0002:000041a8       __pDefaultRawDllMain       100b21a8     LIBCMTD:dllcrt0.obj
 0002:000041a8       __pRawDllMain              100b21a8     LIBCMTD:dllcrt0.obj
 0002:000041ac       ??_C@_0DB@OLNOAEGF@f?3?2dd?2vctools?2crt_bld?2self_x86?2c@ 100b21ac     LIBCMTD:dllcrt0.obj
 0002:000041e0       ??_C@_1BI@BGOHAHKC@?$AAm?$AAs?$AAc?$AAo?$AAr?$AAe?$AAe?$AA?4?$AAd?$AAl?$AAl?$AA?$AA@ 100b21e0     LIBCMTD:crt0dat.obj
 0002:000041f8       ??_C@_0P@MIGLKIOC@CorExitProcess?$AA@ 100b21f8     LIBCMTD:crt0dat.obj
 0002:00004208       ??_C@_1BO@LKEBEKJP@?$AAp?$AAV?$AAa?$AAl?$AAu?$AAe?$AA?5?$AA?$CB?$AA?$DN?$AA?5?$AAN?$AAU?$AAL?$AAL?$AA?$AA@ 100b2208     LIBCMTD:crt0dat.obj
 0002:00004228       ??_C@_1GC@DGCPEDNJ@?$AAf?$AA?3?$AA?2?$AAd?$AAd?$AA?2?$AAv?$AAc?$AAt?$AAo?$AAo?$AAl?$AAs?$AA?2?$AAc?$AAr?$AAt?$AA_?$AAb?$AAl?$AAd?$AA?2?$AAs?$AAe?$AAl?$AAf?$AA_?$AAx?$AA8?$AA6?$AA?2?$AAc@ 100b2228     LIBCMTD:crt0dat.obj
 0002:0000428c       ??_C@_1BK@PNLDCCDP@?$AA_?$AAg?$AAe?$AAt?$AA_?$AAw?$AAp?$AAg?$AAm?$AAp?$AAt?$AAr?$AA?$AA@ 100b228c     LIBCMTD:crt0dat.obj
 0002:000042a8       ??_C@_1CC@CDIPMFPD@?$AA_?$AAw?$AAp?$AAg?$AAm?$AAp?$AAt?$AAr?$AA?5?$AA?$CB?$AA?$DN?$AA?5?$AAN?$AAU?$AAL?$AAL?$AA?$AA@ 100b22a8     LIBCMTD:crt0dat.obj
 0002:000042cc       ??_C@_1BI@COAAPHJK@?$AA_?$AAg?$AAe?$AAt?$AA_?$AAp?$AAg?$AAm?$AAp?$AAt?$AAr?$AA?$AA@ 100b22cc     LIBCMTD:crt0dat.obj
 0002:000042e4       ??_C@_1CA@BBNAFCKO@?$AA_?$AAp?$AAg?$AAm?$AAp?$AAt?$AAr?$AA?5?$AA?$CB?$AA?$DN?$AA?5?$AAN?$AAU?$AAL?$AAL?$AA?$AA@ 100b22e4     LIBCMTD:crt0dat.obj
 0002:00004304       ??_C@_1BK@DJNILIMN@?$AAp?$AAa?$AAt?$AAh?$AA?5?$AA?$CB?$AA?$DN?$AA?5?$AAN?$AAU?$AAL?$AAL?$AA?$AA@ 100b2304     LIBCMTD:crt0dat.obj
 0002:00004320       ??_C@_1DG@KANBJOCK@?$AA_?$AA_?$AAc?$AAo?$AAp?$AAy?$AA_?$AAp?$AAa?$AAt?$AAh?$AA_?$AAt?$AAo?$AA_?$AAw?$AAi?$AAd?$AAe?$AA_?$AAs?$AAt?$AAr?$AAi?$AAn?$AAg?$AA?$AA@ 100b2320     LIBCMTD:crt0dat.obj
 0002:00004358       ??_C@_1CA@BGODLPHH@?$AAo?$AAu?$AAt?$AAP?$AAa?$AAt?$AAh?$AA?5?$AA?$CB?$AA?$DN?$AA?5?$AAN?$AAU?$AAL?$AAL?$AA?$AA@ 100b2358     LIBCMTD:crt0dat.obj
 0002:00004378       ??_C@_0DB@LJJKGJFF@f?3?2dd?2vctools?2crt_bld?2self_x86?2c@ 100b2378     LIBCMTD:crt0dat.obj
 0002:000043ac       ??_C@_0CP@BNKDODJJ@f?3?2dd?2vctools?2crt_bld?2self_x86?2c@ 100b23ac     LIBCMTD:_file.obj
 0002:000043e0       ??_C@_1GE@DPADKNCG@?$AAf?$AA?3?$AA?2?$AAd?$AAd?$AA?2?$AAv?$AAc?$AAt?$AAo?$AAo?$AAl?$AAs?$AA?2?$AAc?$AAr?$AAt?$AA_?$AAb?$AAl?$AAd?$AA?2?$AAs?$AAe?$AAl?$AAf?$AA_?$AAx?$AA8?$AA6?$AA?2?$AAc@ 100b23e0     LIBCMTD:vsprintf.obj
 0002:00004444       ??_C@_1BI@IGILPKD@?$AA_?$AAv?$AAs?$AAp?$AAr?$AAi?$AAn?$AAt?$AAf?$AA_?$AAl?$AA?$AA@ 100b2444     LIBCMTD:vsprintf.obj
 0002:0000445c       ??_C@_1CE@HMKDJHB@?$AA_?$AAv?$AAs?$AAc?$AAp?$AAr?$AAi?$AAn?$AAt?$AAf?$AA_?$AAh?$AAe?$AAl?$AAp?$AAe?$AAr?$AA?$AA@ 100b245c     LIBCMTD:vsprintf.obj
 0002:00004480       __indefinite               100b2480     LIBCMTD:87disp.obj
 0002:0000448a       __piby2                    100b248a     LIBCMTD:87disp.obj
 0002:000044b8       __DEFAULT_CW_in_mem        100b24b8     LIBCMTD:common.obj
 0002:000044ba       __pi_by_2_to_61            100b24ba     LIBCMTD:common.obj
 0002:00004590       ??_C@_0NN@NGPKDKPD@The?5value?5of?5ESP?5was?5not?5properl@ 100b2590     LIBCMTD:error.obj
 0002:00004670       ??_C@_0BBN@GPMLNJCF@A?5cast?5to?5a?5smaller?5data?5type?5ha@ 100b2670     LIBCMTD:error.obj
 0002:00004790       ??_C@_0BN@FFOINMNJ@Stack?5memory?5was?5corrupted?6?$AN?$AA@ 100b2790     LIBCMTD:error.obj
 0002:000047b0       ??_C@_0DG@HKJMLLLP@A?5local?5variable?5was?5used?5before@ 100b27b0     LIBCMTD:error.obj
 0002:000047e8       ??_C@_0CM@NGINOKPC@Stack?5memory?5around?5_alloca?5was?5@ 100b27e8     LIBCMTD:error.obj
 0002:00004814       ??_C@_0BO@GNIAFIKK@Unknown?5Runtime?5Check?5Error?6?$AN?$AA@ 100b2814     LIBCMTD:error.obj
 0002:00004838       ??_C@_1GM@OLMCBDMB@?$AAR?$AAu?$AAn?$AAt?$AAi?$AAm?$AAe?$AA?5?$AAC?$AAh?$AAe?$AAc?$AAk?$AA?5?$AAE?$AAr?$AAr?$AAo?$AAr?$AA?4?$AA?6?$AA?$AN?$AA?5?$AAU?$AAn?$AAa?$AAb?$AAl?$AAe?$AA?5?$AAt?$AAo@ 100b2838     LIBCMTD:error.obj
 0002:000048a8       ??_C@_1EA@NFKNIFJP@?$AAR?$AAu?$AAn?$AA?9?$AAT?$AAi?$AAm?$AAe?$AA?5?$AAC?$AAh?$AAe?$AAc?$AAk?$AA?5?$AAF?$AAa?$AAi?$AAl?$AAu?$AAr?$AAe?$AA?5?$AA?$CD?$AA?$CF?$AAd?$AA?5?$AA?9?$AA?5?$AA?$CF?$AAs?$AA?$AA@ 100b28a8     LIBCMTD:error.obj
 0002:000048e8       ??_C@_0BB@PFFGGCJP@Unknown?5Filename?$AA@ 100b28e8     LIBCMTD:error.obj
 0002:000048fc       ??_C@_0BE@GNBOBNCK@Unknown?5Module?5Name?$AA@ 100b28fc     LIBCMTD:error.obj
 0002:00004910       ??_C@_0CA@IODNCDPG@Run?9Time?5Check?5Failure?5?$CD?$CFd?5?9?5?$CFs?$AA@ 100b2910     LIBCMTD:error.obj
 0002:00004930       ??_C@_0CG@IAFNJNEE@Stack?5corrupted?5near?5unknown?5var@ 100b2930     LIBCMTD:error.obj
 0002:00004958       ??_C@_05MKKEDADM@?$CF?42X?5?$AA@ 100b2958     LIBCMTD:error.obj
 0002:00004960       ??_C@_1BG@OILDLIOJ@?$AAu?$AAs?$AAe?$AAr?$AA3?$AA2?$AA?4?$AAd?$AAl?$AAl?$AA?$AA@ 100b2960     LIBCMTD:error.obj
 0002:00004978       ??_C@_09FOPFMPEJ@wsprintfA?$AA@ 100b2978     LIBCMTD:error.obj
 0002:00004988       ??_C@_0EJ@LJKNEOLN@Stack?5area?5around?5_alloca?5memory@ 100b2988     LIBCMTD:error.obj
 0002:000049d4       ??_C@_08OMAHNMHJ@?6Data?3?5?$DM?$AA@ 100b29d4     LIBCMTD:error.obj
 0002:000049e0       ??_C@_0CK@DKGBICFE@?6Allocation?5number?5within?5this?5f@ 100b29e0     LIBCMTD:error.obj
 0002:00004a0c       ??_C@_07DFDJCKFN@?6Size?3?5?$AA@ 100b2a0c     LIBCMTD:error.obj
 0002:00004a14       ??_C@_0N@MHFFIMFG@?6Address?3?50x?$AA@ 100b2a14     LIBCMTD:error.obj
 0002:00004a28       ??_C@_0EI@CLEPFNGI@Stack?5area?5around?5_alloca?5memory@ 100b2a28     LIBCMTD:error.obj
 0002:00004a70       ??_C@_0BC@KIBAILCI@?$CFs?$CFs?$CFp?$CFs?$CFld?$CFs?$CFd?$CFs?$AA@ 100b2a70     LIBCMTD:error.obj
 0002:00004a84       ??_C@_01EEMJAFIK@?6?$AA@   100b2a84     LIBCMTD:error.obj
 0002:00004a88       ??_C@_02LLMPMKNF@?$DO?5?$AA@ 100b2a88     LIBCMTD:error.obj
 0002:00004a8c       ??_C@_08KJEDNCKC@?$CFs?$CFs?$CFs?$CFs?$AA@ 100b2a8c     LIBCMTD:error.obj
 0002:00004a98       ??_C@_0DE@OHJBPMBP@A?5variable?5is?5being?5used?5without@ 100b2a98     LIBCMTD:error.obj
 0002:00004ae0       ??_C@_0BJ@HEGAHDFO@Stack?5pointer?5corruption?$AA@ 100b2ae0     LIBCMTD:userapi.obj
 0002:00004afc       ??_C@_0CK@FEGOIOPB@Cast?5to?5smaller?5type?5causing?5los@ 100b2afc     LIBCMTD:userapi.obj
 0002:00004b28       ??_C@_0BI@CIGMDCBH@Stack?5memory?5corruption?$AA@ 100b2b28     LIBCMTD:userapi.obj
 0002:00004b40       ??_C@_0CK@CNLNOEPB@Local?5variable?5used?5before?5initi@ 100b2b40     LIBCMTD:userapi.obj
 0002:00004b6c       ??_C@_0BP@OGBCLIBO@Stack?5around?5_alloca?5corrupted?$AA@ 100b2b6c     LIBCMTD:userapi.obj
 0002:00004b90       ??_C@_0NM@DNEDKLDF@The?5value?5of?5ESP?5was?5not?5properl@ 100b2b90     LIBCMTD:chkesp.obj
 0002:00004c6c       ??_C@_00CNPNBAHC@?$AA@     100b2c6c     LIBCMTD:chkesp.obj
 0002:00004c70       ??_C@_0DP@CBBAPGOP@f?3?2dd?2vctools?2crt_bld?2self_x86?2c@ 100b2c70     LIBCMTD:chkesp.obj
 0002:00004cb0       ??_C@_1CK@GELGGBDK@?$AAp?$AAN?$AAo?$AAd?$AAe?$AA?9?$AA?$DO?$AA_?$AAN?$AAe?$AAx?$AAt?$AA?5?$AA?$CB?$AA?$DN?$AA?5?$AAN?$AAU?$AAL?$AAL?$AA?$AA@ 100b2cb0     LIBCMTD:typname.obj
 0002:00004ce0       ??_C@_1HG@KNCBMCDD@?$AAf?$AA?3?$AA?2?$AAd?$AAd?$AA?2?$AAv?$AAc?$AAt?$AAo?$AAo?$AAl?$AAs?$AA?2?$AAc?$AAr?$AAt?$AA_?$AAb?$AAl?$AAd?$AA?2?$AAs?$AAe?$AAl?$AAf?$AA_?$AAx?$AA8?$AA6?$AA?2?$AAc@ 100b2ce0     LIBCMTD:typname.obj
 0002:00004d58       ??_C@_1CM@OOICDMK@?$AAt?$AAy?$AAp?$AAe?$AA_?$AAi?$AAn?$AAf?$AAo?$AA?3?$AA?3?$AA_?$AAN?$AAa?$AAm?$AAe?$AA_?$AAb?$AAa?$AAs?$AAe?$AA?$AA@ 100b2d58     LIBCMTD:typname.obj
 0002:00004d88       ??_C@_1JK@NAFNEPGC@?$AAs?$AAt?$AAr?$AAc?$AAp?$AAy?$AA_?$AAs?$AA?5?$AA?$CI?$AA?$CI?$AAc?$AAh?$AAa?$AAr?$AA?5?$AA?$CK?$AA?$CJ?$AA?$CI?$AA?$CI?$AAt?$AAy?$AAp?$AAe?$AA_?$AAi?$AAn?$AAf?$AAo?$AA?5?$AA?$CK?$AA?$CJ@ 100b2d88     LIBCMTD:typname.obj
 0002:00004e24       ??_C@_1DO@OJJLFJPE@?$AAt?$AAy?$AAp?$AAe?$AA_?$AAi?$AAn?$AAf?$AAo?$AA?3?$AA?3?$AA_?$AAN?$AAa?$AAm?$AAe?$AA_?$AAb?$AAa?$AAs?$AAe?$AA_?$AAi?$AAn?$AAt?$AAe?$AAr?$AAn?$AAa?$AAl?$AA?$AA@ 100b2e24     LIBCMTD:typname.obj
 0002:00004e68       ??_C@_1GI@EAJKJPED@?$AAs?$AAt?$AAr?$AAc?$AAp?$AAy?$AA_?$AAs?$AA?5?$AA?$CI?$AAp?$AAT?$AAm?$AAp?$AAT?$AAy?$AAp?$AAe?$AAN?$AAa?$AAm?$AAe?$AA?0?$AA?5?$AAl?$AAe?$AAn?$AA?$CL?$AA2?$AA?0?$AA?5?$AA?$CI@ 100b2e68     LIBCMTD:typname.obj
 0002:00004ed0       ??_C@_1BI@ICGGMGLK@?$AAb?$AAu?$AAf?$AA?5?$AA?$CB?$AA?$DN?$AA?5?$AAN?$AAU?$AAL?$AAL?$AA?$AA@ 100b2ed0     LIBCMTD:cvt.obj
 0002:00004ee8       ??_C@_1GO@NCCGBNKI@?$AAf?$AA?3?$AA?2?$AAd?$AAd?$AA?2?$AAv?$AAc?$AAt?$AAo?$AAo?$AAl?$AAs?$AA?2?$AAc?$AAr?$AAt?$AA_?$AAb?$AAl?$AAd?$AA?2?$AAs?$AAe?$AAl?$AAf?$AA_?$AAx?$AA8?$AA6?$AA?2?$AAc@ 100b2ee8     LIBCMTD:cvt.obj
 0002:00004f58       ??_C@_1BE@OLBNEILL@?$AA_?$AAc?$AAf?$AAt?$AAo?$AAe?$AA2?$AA_?$AAl?$AA?$AA@ 100b2f58     LIBCMTD:cvt.obj
 0002:00004f6c       ??_C@_1CA@CBMNPEO@?$AAs?$AAi?$AAz?$AAe?$AAI?$AAn?$AAB?$AAy?$AAt?$AAe?$AAs?$AA?5?$AA?$DO?$AA?5?$AA0?$AA?$AA@ 100b2f6c     LIBCMTD:cvt.obj
 0002:00004f90       ??_C@_1HE@NACBNDPP@?$AAs?$AAi?$AAz?$AAe?$AAI?$AAn?$AAB?$AAy?$AAt?$AAe?$AAs?$AA?5?$AA?$DO?$AA?5?$AA?$CI?$AAs?$AAi?$AAz?$AAe?$AA_?$AAt?$AA?$CJ?$AA?$CI?$AA3?$AA?5?$AA?$CL?$AA?5?$AA?$CI?$AAn?$AAd?$AAe?$AAc@ 100b2f90     LIBCMTD:cvt.obj
 0002:00005008       ??_C@_1LE@EOIFGNCJ@?$AAs?$AAt?$AAr?$AAc?$AAp?$AAy?$AA_?$AAs?$AA?$CI?$AAp?$AA?0?$AA?5?$AA?$CI?$AAs?$AAi?$AAz?$AAe?$AAI?$AAn?$AAB?$AAy?$AAt?$AAe?$AAs?$AA?5?$AA?$DN?$AA?$DN?$AA?5?$AA?$CI?$AAs?$AAi?$AAz@ 100b3008     LIBCMTD:cvt.obj
 0002:000050bc       ??_C@_05KLBDPFGC@e?$CL000?$AA@ 100b30bc     LIBCMTD:cvt.obj
 0002:000050c4       ??_C@_1BC@INKAPMHI@?$AA_?$AAc?$AAf?$AAt?$AAo?$AAe?$AA_?$AAl?$AA?$AA@ 100b30c4     LIBCMTD:cvt.obj
 0002:000050d8       ??_C@_1BC@JOKPCIC@?$AA_?$AAc?$AAf?$AAt?$AAo?$AAa?$AA_?$AAl?$AA?$AA@ 100b30d8     LIBCMTD:cvt.obj
 0002:000050f0       ??_C@_1FC@IKIMAMJB@?$AAs?$AAi?$AAz?$AAe?$AAI?$AAn?$AAB?$AAy?$AAt?$AAe?$AAs?$AA?5?$AA?$DO?$AA?5?$AA?$CI?$AAs?$AAi?$AAz?$AAe?$AA_?$AAt?$AA?$CJ?$AA?$CI?$AA1?$AA?5?$AA?$CL?$AA?5?$AA4?$AA?5?$AA?$CL?$AA?5?$AAn@ 100b30f0     LIBCMTD:cvt.obj
 0002:00005144       ??_C@_1BE@CKPDLI@?$AA_?$AAc?$AAf?$AAt?$AAo?$AAf?$AA2?$AA_?$AAl?$AA?$AA@ 100b3144     LIBCMTD:cvt.obj
 0002:00005158       ??_C@_1BC@DCPPLJL@?$AA_?$AAc?$AAf?$AAt?$AAo?$AAf?$AA_?$AAl?$AA?$AA@ 100b3158     LIBCMTD:cvt.obj
 0002:0000516c       ??_C@_1BC@MPIFPLAF@?$AA_?$AAc?$AAf?$AAt?$AAo?$AAg?$AA_?$AAl?$AA?$AA@ 100b316c     LIBCMTD:cvt.obj
 0002:00005180       ??_C@_1GG@PHGJJHBC@?$AAf?$AA?3?$AA?2?$AAd?$AAd?$AA?2?$AAv?$AAc?$AAt?$AAo?$AAo?$AAl?$AAs?$AA?2?$AAc?$AAr?$AAt?$AA_?$AAb?$AAl?$AAd?$AA?2?$AAs?$AAe?$AAl?$AAf?$AA_?$AAx?$AA8?$AA6?$AA?2?$AAc@ 100b3180     LIBCMTD:fp8.obj
 0002:000051e8       ??_C@_1CK@JMKHCBEI@?$AA_?$AAs?$AAe?$AAt?$AAd?$AAe?$AAf?$AAa?$AAu?$AAl?$AAt?$AAp?$AAr?$AAe?$AAc?$AAi?$AAs?$AAi?$AAo?$AAn?$AA?$AA@ 100b31e8     LIBCMTD:fp8.obj
 0002:00005218       ??_C@_1GE@KOCFNGPB@?$AA_?$AAc?$AAo?$AAn?$AAt?$AAr?$AAo?$AAl?$AAf?$AAp?$AA_?$AAs?$AA?$CI?$AA?$CI?$AA?$CI?$AAv?$AAo?$AAi?$AAd?$AA?5?$AA?$CK?$AA?$CJ?$AA0?$AA?$CJ?$AA?0?$AA?5?$AA0?$AAx?$AA0?$AA0?$AA0?$AA1@ 100b3218     LIBCMTD:fp8.obj
 0002:00005280       ??_7exception@std@@6B@     100b3280     LIBCMTD:stdexcpt.obj
 0002:00005288       ??_C@_0BC@EOODALEL@Unknown?5exception?$AA@ 100b3288     LIBCMTD:stdexcpt.obj
 0002:000052a0       ??_7bad_cast@std@@6B@      100b32a0     LIBCMTD:stdexcpt.obj
 0002:000052ac       ??_7bad_typeid@std@@6B@    100b32ac     LIBCMTD:stdexcpt.obj
 0002:000052b8       ??_7__non_rtti_object@std@@6B@ 100b32b8     LIBCMTD:stdexcpt.obj
 0002:000052c0       ??_C@_1BC@JLLICHIC@?$AAp?$AAn?$AAh?$AA?5?$AA?$DN?$AA?$DN?$AA?5?$AA0?$AA?$AA@ 100b32c0     LIBCMTD:handler.obj
 0002:000052d8       ??_C@_1GG@CDHAPCGF@?$AAf?$AA?3?$AA?2?$AAd?$AAd?$AA?2?$AAv?$AAc?$AAt?$AAo?$AAo?$AAl?$AAs?$AA?2?$AAc?$AAr?$AAt?$AA_?$AAb?$AAl?$AAd?$AA?2?$AAs?$AAe?$AAl?$AAf?$AA_?$AAx?$AA8?$AA6?$AA?2?$AAc@ 100b32d8     LIBCMTD:handler.obj
 0002:00005360       ??_C@_0CP@MKONOLCI@f?3?2dd?2vctools?2crt_bld?2self_x86?2c@ 100b3360     LIBCMTD:mlock.obj
 0002:0000539c       ??_C@_1BA@GLMCNLEM@?$AAW?$AAa?$AAr?$AAn?$AAi?$AAn?$AAg?$AA?$AA@ 100b339c     LIBCMTD:dbgrptw.obj
 0002:000053ac       ??_C@_1M@ILHOPKA@?$AAE?$AAr?$AAr?$AAo?$AAr?$AA?$AA@ 100b33ac     LIBCMTD:dbgrptw.obj
 0002:000053b8       ??_C@_1CC@CGHMNGDG@?$AAA?$AAs?$AAs?$AAe?$AAr?$AAt?$AAi?$AAo?$AAn?$AA?5?$AAF?$AAa?$AAi?$AAl?$AAe?$AAd?$AA?$AA@ 100b33b8     LIBCMTD:dbgrptw.obj
 0002:000053dc       ??_C@_17LGKOMLJ@?$AA?4?$AA?4?$AA?4?$AA?$AA@ 100b33dc     LIBCMTD:dbgrptw.obj
 0002:000053e8       ??_C@_1HI@OFEHGPPC@?$AAm?$AAo?$AAd?$AAe?$AA?5?$AA?$DN?$AA?$DN?$AA?5?$AA_?$AAC?$AAR?$AAT?$AA_?$AAR?$AAP?$AAT?$AAH?$AAO?$AAO?$AAK?$AA_?$AAI?$AAN?$AAS?$AAT?$AAA?$AAL?$AAL?$AA?5?$AA?$HM?$AA?$HM?$AA?5@ 100b33e8     LIBCMTD:dbgrptw.obj
 0002:00005460       ??_C@_1GA@IBJGKIFE@?$AAf?$AA?3?$AA?2?$AAd?$AAd?$AA?2?$AAv?$AAc?$AAt?$AAo?$AAo?$AAl?$AAs?$AA?2?$AAc?$AAr?$AAt?$AA_?$AAb?$AAl?$AAd?$AA?2?$AAs?$AAe?$AAl?$AAf?$AA_?$AAx?$AA8?$AA6?$AA?2?$AAc@ 100b3460     LIBCMTD:dbgrptw.obj
 0002:000054c0       ??_C@_1CI@IIHEAKEI@?$AA_?$AAC?$AAr?$AAt?$AAS?$AAe?$AAt?$AAR?$AAe?$AAp?$AAo?$AAr?$AAt?$AAH?$AAo?$AAo?$AAk?$AAW?$AA2?$AA?$AA@ 100b34c0     LIBCMTD:dbgrptw.obj
 0002:000054e8       ??_C@_1CG@JBJEFOCM@?$AAp?$AAf?$AAn?$AAN?$AAe?$AAw?$AAH?$AAo?$AAo?$AAk?$AA?5?$AA?$CB?$AA?$DN?$AA?5?$AAN?$AAU?$AAL?$AAL?$AA?$AA@ 100b34e8     LIBCMTD:dbgrptw.obj
 0002:00005510       ??_C@_1FI@PHIAFFHM@?$AA?$CI?$AA?$CC?$AAT?$AAh?$AAe?$AA?5?$AAh?$AAo?$AAo?$AAk?$AA?5?$AAf?$AAu?$AAn?$AAc?$AAt?$AAi?$AAo?$AAn?$AA?5?$AAi?$AAs?$AA?5?$AAn?$AAo?$AAt?$AA?5?$AAi?$AAn?$AA?5?$AAt?$AAh@ 100b3510     LIBCMTD:dbgrptw.obj
 0002:00005568       ??_C@_0DA@PCCBBBID@f?3?2dd?2vctools?2crt_bld?2self_x86?2c@ 100b3568     LIBCMTD:dbgrptw.obj
 0002:00005598       ??_C@_1CI@PGJIFDEK@?$AA_?$AA_?$AAc?$AAr?$AAt?$AAM?$AAe?$AAs?$AAs?$AAa?$AAg?$AAe?$AAW?$AAi?$AAn?$AAd?$AAo?$AAw?$AAW?$AA?$AA@ 100b3598     LIBCMTD:dbgrptw.obj
 0002:000055c0       ??_C@_1GI@DEDNNLCI@?$AAw?$AAc?$AAs?$AAc?$AAp?$AAy?$AA_?$AAs?$AA?$CI?$AAs?$AAz?$AAE?$AAx?$AAe?$AAN?$AAa?$AAm?$AAe?$AA?0?$AA?5?$AA2?$AA6?$AA0?$AA?0?$AA?5?$AAL?$AA?$CC?$AA?$DM?$AAp?$AAr?$AAo?$AAg@ 100b35c0     LIBCMTD:dbgrptw.obj
 0002:00005628       ??_C@_1CO@EAEJAADC@?$AA?$DM?$AAp?$AAr?$AAo?$AAg?$AAr?$AAa?$AAm?$AA?5?$AAn?$AAa?$AAm?$AAe?$AA?5?$AAu?$AAn?$AAk?$AAn?$AAo?$AAw?$AAn?$AA?$DO?$AA?$AA@ 100b3628     LIBCMTD:dbgrptw.obj
 0002:00005658       ??_C@_1NO@LECLLHOL@?$AAm?$AAe?$AAm?$AAc?$AAp?$AAy?$AA_?$AAs?$AA?$CI?$AAs?$AAz?$AAS?$AAh?$AAo?$AAr?$AAt?$AAP?$AAr?$AAo?$AAg?$AAN?$AAa?$AAm?$AAe?$AA?0?$AA?5?$AAs?$AAi?$AAz?$AAe?$AAo?$AAf@ 100b3658     LIBCMTD:dbgrptw.obj
 0002:00005738       ??_C@_1OG@PMPPFHAF@?$AA?6?$AA?6?$AAF?$AAo?$AAr?$AA?5?$AAi?$AAn?$AAf?$AAo?$AAr?$AAm?$AAa?$AAt?$AAi?$AAo?$AAn?$AA?5?$AAo?$AAn?$AA?5?$AAh?$AAo?$AAw?$AA?5?$AAy?$AAo?$AAu?$AAr?$AA?5?$AAp?$AAr@ 100b3738     LIBCMTD:dbgrptw.obj
 0002:00005820       ??_C@_11LOCGONAA@?$AA?$AA@ 100b3820     LIBCMTD:dbgrptw.obj
 0002:00005824       ??_C@_1BK@PEDCIPMA@?$AAE?$AAx?$AAp?$AAr?$AAe?$AAs?$AAs?$AAi?$AAo?$AAn?$AA?3?$AA?5?$AA?$AA@ 100b3824     LIBCMTD:dbgrptw.obj
 0002:00005840       ??_C@_15IABLJNFO@?$AA?6?$AA?6?$AA?$AA@ 100b3840     LIBCMTD:dbgrptw.obj
 0002:00005848       ??_C@_1BA@GLLGCPCK@?$AA?6?$AAL?$AAi?$AAn?$AAe?$AA?3?$AA?5?$AA?$AA@ 100b3848     LIBCMTD:dbgrptw.obj
 0002:00005858       ??_C@_1BA@LNHECFIM@?$AA?6?$AAF?$AAi?$AAl?$AAe?$AA?3?$AA?5?$AA?$AA@ 100b3858     LIBCMTD:dbgrptw.obj
 0002:00005868       ??_C@_1BE@CGCJKGHI@?$AA?6?$AAM?$AAo?$AAd?$AAu?$AAl?$AAe?$AA?3?$AA?5?$AA?$AA@ 100b3868     LIBCMTD:dbgrptw.obj
 0002:00005880       ??_C@_1KM@HNMIBKJH@?$AAD?$AAe?$AAb?$AAu?$AAg?$AA?5?$AA?$CF?$AAs?$AA?$CB?$AA?6?$AA?6?$AAP?$AAr?$AAo?$AAg?$AAr?$AAa?$AAm?$AA?3?$AA?5?$AA?$CF?$AAs?$AA?$CF?$AAs?$AA?$CF?$AAs?$AA?$CF?$AAs?$AA?$CF?$AAs?$AA?$CF?$AAs@ 100b3880     LIBCMTD:dbgrptw.obj
 0002:0000592c       ??_C@_1BI@KALLJECN@?$AA?$CI?$AA?$CK?$AA_?$AAe?$AAr?$AAr?$AAn?$AAo?$AA?$CI?$AA?$CJ?$AA?$CJ?$AA?$AA@ 100b392c     LIBCMTD:dbgrptw.obj
 0002:00005948       ??_C@_1JI@EACPGHID@?$AAw?$AAc?$AAs?$AAc?$AAp?$AAy?$AA_?$AAs?$AA?$CI?$AAs?$AAz?$AAO?$AAu?$AAt?$AAM?$AAe?$AAs?$AAs?$AAa?$AAg?$AAe?$AA?0?$AA?5?$AA4?$AA0?$AA9?$AA6?$AA?0?$AA?5?$AAL?$AA?$CC?$AA_@ 100b3948     LIBCMTD:dbgrptw.obj
 0002:000059e0       ??_C@_1FG@BBOLDHGF@?$AA_?$AAC?$AAr?$AAt?$AAD?$AAb?$AAg?$AAR?$AAe?$AAp?$AAo?$AAr?$AAt?$AA?3?$AA?5?$AAS?$AAt?$AAr?$AAi?$AAn?$AAg?$AA?5?$AAt?$AAo?$AAo?$AA?5?$AAl?$AAo?$AAn?$AAg?$AA?5?$AAo@ 100b39e0     LIBCMTD:dbgrptw.obj
 0002:00005a38       ??_C@_1EK@MBDPDCGA@?$AAM?$AAi?$AAc?$AAr?$AAo?$AAs?$AAo?$AAf?$AAt?$AA?5?$AAV?$AAi?$AAs?$AAu?$AAa?$AAl?$AA?5?$AAC?$AA?$CL?$AA?$CL?$AA?5?$AAR?$AAu?$AAn?$AAt?$AAi?$AAm?$AAe?$AA?5?$AAL?$AAi?$AAb@ 100b3a38     LIBCMTD:dbgrptw.obj
 0002:00005a98       ??_C@_04HJMOFLDF@Free?$AA@ 100b3a98     LIBCMTD:dbgheap.obj
 0002:00005aa0       ??_C@_06EFAGIKOH@Normal?$AA@ 100b3aa0     LIBCMTD:dbgheap.obj
 0002:00005aa8       ??_C@_03OGPFLFLO@CRT?$AA@  100b3aa8     LIBCMTD:dbgheap.obj
 0002:00005aac       ??_C@_06KMEJCCGM@Ignore?$AA@ 100b3aac     LIBCMTD:dbgheap.obj
 0002:00005ab4       ??_C@_06PJIGMIJB@Client?$AA@ 100b3ab4     LIBCMTD:dbgheap.obj
 0002:00005abc       ??_C@_1CE@LJFEPPMP@?$AA_?$AAC?$AAr?$AAt?$AAC?$AAh?$AAe?$AAc?$AAk?$AAM?$AAe?$AAm?$AAo?$AAr?$AAy?$AA?$CI?$AA?$CJ?$AA?$AA@ 100b3abc     LIBCMTD:dbgheap.obj
 0002:00005ae0       ??_C@_1GC@DNJKKEAA@?$AAf?$AA?3?$AA?2?$AAd?$AAd?$AA?2?$AAv?$AAc?$AAt?$AAo?$AAo?$AAl?$AAs?$AA?2?$AAc?$AAr?$AAt?$AA_?$AAb?$AAl?$AAd?$AA?2?$AAs?$AAe?$AAl?$AAf?$AA_?$AAx?$AA8?$AA6?$AA?2?$AAc@ 100b3ae0     LIBCMTD:dbgheap.obj
 0002:00005b44       ??_C@_0DF@BBEGIFEK@Client?5hook?5allocation?5failure?5a@ 100b3b44     LIBCMTD:dbgheap.obj
 0002:00005b7c       ??_C@_0CB@CCLOLAHO@Client?5hook?5allocation?5failure?4?6@ 100b3b7c     LIBCMTD:dbgheap.obj
 0002:00005ba0       ??_C@_02DKCKIIND@?$CFs?$AA@ 100b3ba0     LIBCMTD:dbgheap.obj
 0002:00005ba4       ??_C@_0CF@BICKFLAF@Invalid?5allocation?5size?3?5?$CFIu?5byt@ 100b3ba4     LIBCMTD:dbgheap.obj
 0002:00005bcc       ??_C@_0DC@JEMAGEKG@Error?3?5memory?5allocation?3?5bad?5me@ 100b3bcc     LIBCMTD:dbgheap.obj
 0002:00005c00       ??_C@_0DI@KKJPDPGM@Client?5hook?5re?9allocation?5failur@ 100b3c00     LIBCMTD:dbgheap.obj
 0002:00005c38       ??_C@_0CE@DOFMDOL@Client?5hook?5re?9allocation?5failur@ 100b3c38     LIBCMTD:dbgheap.obj
 0002:00005c60       ??_C@_0ED@GPCPBAGP@Invalid?5allocation?5size?3?5?$CFIu?5byt@ 100b3c60     LIBCMTD:dbgheap.obj
 0002:00005ca8       ??_C@_0FA@EFEIGJKG@Error?3?5memory?5allocation?3?5bad?5me@ 100b3ca8     LIBCMTD:dbgheap.obj
 0002:00005cf8       ??_C@_0EM@LGFLMAGJ@The?5Block?5at?50x?$CFp?5was?5allocated?5@ 100b3cf8     LIBCMTD:dbgheap.obj
 0002:00005d48       ??_C@_1EE@GFOPCECE@?$AA_?$AAC?$AAr?$AAt?$AAI?$AAs?$AAV?$AAa?$AAl?$AAi?$AAd?$AAH?$AAe?$AAa?$AAp?$AAP?$AAo?$AAi?$AAn?$AAt?$AAe?$AAr?$AA?$CI?$AAp?$AAU?$AAs?$AAe?$AAr?$AAD?$AAa?$AAt?$AAa@ 100b3d48     LIBCMTD:dbgheap.obj
 0002:00005d90       ??_C@_1IK@DCPKDGNH@?$AAp?$AAO?$AAl?$AAd?$AAB?$AAl?$AAo?$AAc?$AAk?$AA?9?$AA?$DO?$AAn?$AAL?$AAi?$AAn?$AAe?$AA?5?$AA?$DN?$AA?$DN?$AA?5?$AAI?$AAG?$AAN?$AAO?$AAR?$AAE?$AA_?$AAL?$AAI?$AAN?$AAE?$AA?5@ 100b3d90     LIBCMTD:dbgheap.obj
 0002:00005e1c       ??_C@_0DA@HFBKENN@Error?3?5possible?5heap?5corruption?5@ 100b3e1c     LIBCMTD:dbgheap.obj
 0002:00005e50       ??_C@_1GE@PCKLOLAO@?$AAf?$AAR?$AAe?$AAa?$AAl?$AAl?$AAo?$AAc?$AA?5?$AA?$HM?$AA?$HM?$AA?5?$AA?$CI?$AA?$CB?$AAf?$AAR?$AAe?$AAa?$AAl?$AAl?$AAo?$AAc?$AA?5?$AA?$CG?$AA?$CG?$AA?5?$AAp?$AAN?$AAe?$AAw?$AAB?$AAl@ 100b3e50     LIBCMTD:dbgheap.obj
 0002:00005eb4       ??_C@_1DC@GEFKNOOL@?$AA_?$AAp?$AAL?$AAa?$AAs?$AAt?$AAB?$AAl?$AAo?$AAc?$AAk?$AA?5?$AA?$DN?$AA?$DN?$AA?5?$AAp?$AAO?$AAl?$AAd?$AAB?$AAl?$AAo?$AAc?$AAk?$AA?$AA@ 100b3eb4     LIBCMTD:dbgheap.obj
 0002:00005ee8       ??_C@_1DE@KOOKLFBB@?$AA_?$AAp?$AAF?$AAi?$AAr?$AAs?$AAt?$AAB?$AAl?$AAo?$AAc?$AAk?$AA?5?$AA?$DN?$AA?$DN?$AA?5?$AAp?$AAO?$AAl?$AAd?$AAB?$AAl?$AAo?$AAc?$AAk?$AA?$AA@ 100b3ee8     LIBCMTD:dbgheap.obj
 0002:00005f1c       ??_C@_1CE@CJACEFBA@?$AAp?$AAU?$AAs?$AAe?$AAr?$AAD?$AAa?$AAt?$AAa?$AA?5?$AA?$CB?$AA?$DN?$AA?5?$AAN?$AAU?$AAL?$AAL?$AA?$AA@ 100b3f1c     LIBCMTD:dbgheap.obj
 0002:00005f40       ??_C@_1BI@HAPNGHDP@?$AA_?$AAe?$AAx?$AAp?$AAa?$AAn?$AAd?$AA_?$AAd?$AAb?$AAg?$AA?$AA@ 100b3f40     LIBCMTD:dbgheap.obj
 0002:00005f58       ??_C@_0EJ@HEIBCIMJ@The?5Block?5at?50x?$CFp?5was?5allocated?5@ 100b3f58     LIBCMTD:dbgheap.obj
 0002:00005fa4       ??_C@_0BL@KEIPLFAC@Client?5hook?5free?5failure?4?6?$AA@ 100b3fa4     LIBCMTD:dbgheap.obj
 0002:00005fc0       ??_C@_0KI@JGFOHMEB@HEAP?5CORRUPTION?5DETECTED?3?5before@ 100b3fc0     LIBCMTD:dbgheap.obj
 0002:00006068       ??_C@_0IK@PJCGLBOB@HEAP?5CORRUPTION?5DETECTED?3?5before@ 100b4068     LIBCMTD:dbgheap.obj
 0002:000060f8       ??_C@_0KE@MBMNHHHN@HEAP?5CORRUPTION?5DETECTED?3?5after?5@ 100b40f8     LIBCMTD:dbgheap.obj
 0002:000061a0       ??_C@_0IG@LEMBDCJK@HEAP?5CORRUPTION?5DETECTED?3?5after?5@ 100b41a0     LIBCMTD:dbgheap.obj
 0002:00006228       ??_C@_1HK@HPCBMDFG@?$AAp?$AAH?$AAe?$AAa?$AAd?$AA?9?$AA?$DO?$AAn?$AAL?$AAi?$AAn?$AAe?$AA?5?$AA?$DN?$AA?$DN?$AA?5?$AAI?$AAG?$AAN?$AAO?$AAR?$AAE?$AA_?$AAL?$AAI?$AAN?$AAE?$AA?5?$AA?$CG?$AA?$CG?$AA?5?$AAp@ 100b4228     LIBCMTD:dbgheap.obj
 0002:000062a4       ??_C@_1DM@ODCJIDCP@?$AAp?$AAH?$AAe?$AAa?$AAd?$AA?9?$AA?$DO?$AAn?$AAB?$AAl?$AAo?$AAc?$AAk?$AAU?$AAs?$AAe?$AA?5?$AA?$DN?$AA?$DN?$AA?5?$AAn?$AAB?$AAl?$AAo?$AAc?$AAk?$AAU?$AAs?$AAe?$AA?$AA@ 100b42a4     LIBCMTD:dbgheap.obj
 0002:000062e0       ??_C@_1CK@DMAGEMBG@?$AA_?$AAp?$AAL?$AAa?$AAs?$AAt?$AAB?$AAl?$AAo?$AAc?$AAk?$AA?5?$AA?$DN?$AA?$DN?$AA?5?$AAp?$AAH?$AAe?$AAa?$AAd?$AA?$AA@ 100b42e0     LIBCMTD:dbgheap.obj
 0002:0000630c       ??_C@_1CM@MMAADDMD@?$AA_?$AAp?$AAF?$AAi?$AAr?$AAs?$AAt?$AAB?$AAl?$AAo?$AAc?$AAk?$AA?5?$AA?$DN?$AA?$DN?$AA?5?$AAp?$AAH?$AAe?$AAa?$AAd?$AA?$AA@ 100b430c     LIBCMTD:dbgheap.obj
 0002:00006338       ??_C@_1BG@MBKOGDLD@?$AA_?$AAm?$AAs?$AAi?$AAz?$AAe?$AA_?$AAd?$AAb?$AAg?$AA?$AA@ 100b4338     LIBCMTD:dbgheap.obj
 0002:00006350       ??_C@_0CE@MKKHMBMK@_heapchk?5fails?5with?5_HEAPBADBEGI@ 100b4350     LIBCMTD:dbgheap.obj
 0002:00006374       ??_C@_0CD@CPKEAPBD@_heapchk?5fails?5with?5_HEAPBADNODE@ 100b4374     LIBCMTD:dbgheap.obj
 0002:00006398       ??_C@_0CC@MJGLGBDG@_heapchk?5fails?5with?5_HEAPBADEND?4@ 100b4398     LIBCMTD:dbgheap.obj
 0002:000063bc       ??_C@_0CC@MFFCHFHO@_heapchk?5fails?5with?5_HEAPBADPTR?4@ 100b43bc     LIBCMTD:dbgheap.obj
 0002:000063e0       ??_C@_0CL@HNNNMKMJ@_heapchk?5fails?5with?5unknown?5retu@ 100b43e0     LIBCMTD:dbgheap.obj
 0002:0000640c       ??_C@_07OHKEFPKJ@DAMAGED?$AA@ 100b440c     LIBCMTD:dbgheap.obj
 0002:00006418       ??_C@_0KA@IHNJJKPL@HEAP?5CORRUPTION?5DETECTED?3?5on?5top@ 100b4418     LIBCMTD:dbgheap.obj
 0002:000064b8       ??_C@_0IC@BBJIOOJH@HEAP?5CORRUPTION?5DETECTED?3?5on?5top@ 100b44b8     LIBCMTD:dbgheap.obj
 0002:00006540       ??_C@_0EG@DGJMPDBH@?$CFhs?5located?5at?50x?$CFp?5is?5?$CFIu?5bytes@ 100b4540     LIBCMTD:dbgheap.obj
 0002:00006588       ??_C@_0CI@JMLBEDHJ@?$CFhs?5located?5at?50x?$CFp?5is?5?$CFIu?5bytes@ 100b4588     LIBCMTD:dbgheap.obj
 0002:000065b0       ??_C@_1BHO@NNANJNF@?$AA?$CI?$AAf?$AAN?$AAe?$AAw?$AAB?$AAi?$AAt?$AAs?$AA?$DN?$AA?$DN?$AA_?$AAC?$AAR?$AAT?$AAD?$AAB?$AAG?$AA_?$AAR?$AAE?$AAP?$AAO?$AAR?$AAT?$AA_?$AAF?$AAL?$AAA?$AAG?$AA?$CJ?$AA?5@ 100b45b0     LIBCMTD:dbgheap.obj
 0002:00006730       ??_C@_1BO@GJFDNMNF@?$AA_?$AAC?$AAr?$AAt?$AAS?$AAe?$AAt?$AAD?$AAb?$AAg?$AAF?$AAl?$AAa?$AAg?$AA?$AA@ 100b4730     LIBCMTD:dbgheap.obj
 0002:00006750       ??_C@_1BI@CJGCEEDL@?$AAp?$AAf?$AAn?$AA?5?$AA?$CB?$AA?$DN?$AA?5?$AAN?$AAU?$AAL?$AAL?$AA?$AA@ 100b4750     LIBCMTD:dbgheap.obj
 0002:00006768       ??_C@_1DE@GJCKCKEC@?$AA_?$AAC?$AAr?$AAt?$AAD?$AAo?$AAF?$AAo?$AAr?$AAA?$AAl?$AAl?$AAC?$AAl?$AAi?$AAe?$AAn?$AAt?$AAO?$AAb?$AAj?$AAe?$AAc?$AAt?$AAs?$AA?$AA@ 100b4768     LIBCMTD:dbgheap.obj
 0002:0000679c       ??_C@_1BM@MIMANDHC@?$AAs?$AAt?$AAa?$AAt?$AAe?$AA?5?$AA?$CB?$AA?$DN?$AA?5?$AAN?$AAU?$AAL?$AAL?$AA?$AA@ 100b479c     LIBCMTD:dbgheap.obj
 0002:000067b8       ??_C@_1CE@NJJKELF@?$AA_?$AAC?$AAr?$AAt?$AAM?$AAe?$AAm?$AAC?$AAh?$AAe?$AAc?$AAk?$AAp?$AAo?$AAi?$AAn?$AAt?$AA?$AA@ 100b47b8     LIBCMTD:dbgheap.obj
 0002:000067dc       ??_C@_0DP@LEFMFBOD@Bad?5memory?5block?5found?5at?50x?$CFp?4?6@ 100b47dc     LIBCMTD:dbgheap.obj
 0002:0000681c       ??_C@_0CB@EAAIGELO@Bad?5memory?5block?5found?5at?50x?$CFp?4?6@ 100b481c     LIBCMTD:dbgheap.obj
 0002:00006840       ??_C@_1CE@PDIENACM@?$AA_?$AAC?$AAr?$AAt?$AAM?$AAe?$AAm?$AAD?$AAi?$AAf?$AAf?$AAe?$AAr?$AAe?$AAn?$AAc?$AAe?$AA?$AA@ 100b4840     LIBCMTD:dbgheap.obj
 0002:00006864       ??_C@_1CC@DHPFEMMN@?$AAo?$AAl?$AAd?$AAS?$AAt?$AAa?$AAt?$AAe?$AA?5?$AA?$CB?$AA?$DN?$AA?5?$AAN?$AAU?$AAL?$AAL?$AA?$AA@ 100b4864     LIBCMTD:dbgheap.obj
 0002:00006888       ??_C@_1CC@DFPEDFBP@?$AAn?$AAe?$AAw?$AAS?$AAt?$AAa?$AAt?$AAe?$AA?5?$AA?$CB?$AA?$DN?$AA?5?$AAN?$AAU?$AAL?$AAL?$AA?$AA@ 100b4888     LIBCMTD:dbgheap.obj
 0002:000068ac       ??_C@_1CG@LPFIACGM@?$AA_?$AAp?$AAr?$AAi?$AAn?$AAt?$AAM?$AAe?$AAm?$AAB?$AAl?$AAo?$AAc?$AAk?$AAD?$AAa?$AAt?$AAa?$AA?$AA@ 100b48ac     LIBCMTD:dbgheap.obj
 0002:000068d4       ??_C@_0BA@HJBKCELP@?5Data?3?5?$DM?$CFs?$DO?5?$CFs?6?$AA@ 100b48d4     LIBCMTD:dbgheap.obj
 0002:000068e4       ??_C@_0BE@KCIPKCIA@Dumping?5objects?5?9?$DO?6?$AA@ 100b48e4     LIBCMTD:dbgheap.obj
 0002:000068f8       ??_C@_0BE@OIEFNFL@?$CDFile?5Error?$CD?$CI?$CFd?$CJ?5?3?5?$AA@ 100b48f8     LIBCMTD:dbgheap.obj
 0002:0000690c       ??_C@_0L@JMEFFCCJ@?$CFhs?$CI?$CFd?$CJ?5?3?5?$AA@ 100b490c     LIBCMTD:dbgheap.obj
 0002:00006918       ??_C@_06PKLGBFGM@?$HL?$CFld?$HN?5?$AA@ 100b4918     LIBCMTD:dbgheap.obj
 0002:00006920       ??_C@_0DD@GHNAAKBB@client?5block?5at?50x?$CFp?0?5subtype?5?$CFx@ 100b4920     LIBCMTD:dbgheap.obj
 0002:00006954       ??_C@_0CH@FAGDDGPN@normal?5block?5at?50x?$CFp?0?5?$CFIu?5bytes?5@ 100b4954     LIBCMTD:dbgheap.obj
 0002:0000697c       ??_C@_0DA@MDLBNIBM@crt?5block?5at?50x?$CFp?0?5subtype?5?$CFx?0?5?$CF@ 100b497c     LIBCMTD:dbgheap.obj
 0002:000069ac       ??_C@_0BH@GFGKJDCO@Object?5dump?5complete?4?6?$AA@ 100b49ac     LIBCMTD:dbgheap.obj
 0002:000069c4       ??_C@_0BI@JBFPOEJA@Detected?5memory?5leaks?$CB?6?$AA@ 100b49c4     LIBCMTD:dbgheap.obj
 0002:000069dc       ??_C@_1CM@MPNIBKGK@?$AA_?$AAC?$AAr?$AAt?$AAM?$AAe?$AAm?$AAD?$AAu?$AAm?$AAp?$AAS?$AAt?$AAa?$AAt?$AAi?$AAs?$AAt?$AAi?$AAc?$AAs?$AA?$AA@ 100b49dc     LIBCMTD:dbgheap.obj
 0002:00006a08       ??_C@_0BO@DACNIABB@?$CFId?5bytes?5in?5?$CFId?5?$CFhs?5Blocks?4?6?$AA@ 100b4a08     LIBCMTD:dbgheap.obj
 0002:00006a28       ??_C@_0CB@BLHDAFNE@Largest?5number?5used?3?5?$CFId?5bytes?4?6@ 100b4a28     LIBCMTD:dbgheap.obj
 0002:00006a4c       ??_C@_0BP@DEDHGGGI@Total?5allocations?3?5?$CFId?5bytes?4?6?$AA@ 100b4a4c     LIBCMTD:dbgheap.obj
 0002:00006a6c       ??_C@_1CE@NPMGPNNP@?$AAI?$AAS?$AA_?$AA2?$AA_?$AAP?$AAO?$AAW?$AA_?$AAN?$AA?$CI?$AAa?$AAl?$AAi?$AAg?$AAn?$AA?$CJ?$AA?$AA@ 100b4a6c     LIBCMTD:dbgheap.obj
 0002:00006a90       ??_C@_1DG@DONCJBBJ@?$AA_?$AAa?$AAl?$AAi?$AAg?$AAn?$AAe?$AAd?$AA_?$AAo?$AAf?$AAf?$AAs?$AAe?$AAt?$AA_?$AAm?$AAa?$AAl?$AAl?$AAo?$AAc?$AA_?$AAd?$AAb?$AAg?$AA?$AA@ 100b4a90     LIBCMTD:dbgheap.obj
 0002:00006ac8       ??_C@_1DK@LFLKFPDA@?$AAo?$AAf?$AAf?$AAs?$AAe?$AAt?$AA?5?$AA?$DN?$AA?$DN?$AA?5?$AA0?$AA?5?$AA?$HM?$AA?$HM?$AA?5?$AAo?$AAf?$AAf?$AAs?$AAe?$AAt?$AA?5?$AA?$DM?$AA?5?$AAs?$AAi?$AAz?$AAe?$AA?$AA@ 100b4ac8     LIBCMTD:dbgheap.obj
 0002:00006b08       ??_C@_0EI@NDNJMAJK@The?5block?5at?50x?$CFp?5was?5not?5alloca@ 100b4b08     LIBCMTD:dbgheap.obj
 0002:00006b50       ??_C@_0DL@PGHMMKNE@Damage?5before?50x?$CFp?5which?5was?5all@ 100b4b50     LIBCMTD:dbgheap.obj
 0002:00006b8c       ??_C@_1DI@NINIKFFK@?$AA_?$AAa?$AAl?$AAi?$AAg?$AAn?$AAe?$AAd?$AA_?$AAo?$AAf?$AAf?$AAs?$AAe?$AAt?$AA_?$AAr?$AAe?$AAa?$AAl?$AAl?$AAo?$AAc?$AA_?$AAd?$AAb?$AAg?$AA?$AA@ 100b4b8c     LIBCMTD:dbgheap.obj
 0002:00006bc8       ??_C@_0EF@PGELACII@The?5block?5at?50x?$CFp?5was?5not?5alloca@ 100b4bc8     LIBCMTD:dbgheap.obj
 0002:00006c10       ??_C@_1CC@MOBIKHH@?$AAm?$AAe?$AAm?$AAb?$AAl?$AAo?$AAc?$AAk?$AA?5?$AA?$CB?$AA?$DN?$AA?5?$AAN?$AAU?$AAL?$AAL?$AA?$AA@ 100b4c10     LIBCMTD:dbgheap.obj
 0002:00006c34       ??_C@_1CG@CEGMHIMN@?$AA_?$AAa?$AAl?$AAi?$AAg?$AAn?$AAe?$AAd?$AA_?$AAm?$AAs?$AAi?$AAz?$AAe?$AA_?$AAd?$AAb?$AAg?$AA?$AA@ 100b4c34     LIBCMTD:dbgheap.obj
 0002:00006cc8       ??_C@_03MGHMBJCF@log?$AA@  100b4cc8     LIBCMTD:libm_error.obj
 0002:00006ccc       ??_C@_05HGHHAHAP@log10?$AA@ 100b4ccc     LIBCMTD:libm_error.obj
 0002:00006cd4       ??_C@_03KHJOGHMM@exp?$AA@  100b4cd4     LIBCMTD:libm_error.obj
 0002:00006cd8       ??_C@_03JGHBODFD@pow?$AA@  100b4cd8     LIBCMTD:libm_error.obj
 0002:00006cdc       ??_C@_04FIHNOPOL@asin?$AA@ 100b4cdc     LIBCMTD:libm_error.obj
 0002:00006ce4       ??_C@_04PDIFKINK@acos?$AA@ 100b4ce4     LIBCMTD:libm_error.obj
 0002:00006cec       ??_C@_05EOHGHCHD@exp10?$AA@ 100b4cec     LIBCMTD:libm_error.obj
 0002:00006cf4       ??_C@_04MLLJIGOK@atan?$AA@ 100b4cf4     LIBCMTD:libm_error.obj
 0002:00006cfc       ??_C@_04GFPJNGEK@ceil?$AA@ 100b4cfc     LIBCMTD:libm_error.obj
 0002:00006d04       ??_C@_05PBJFFIGL@floor?$AA@ 100b4d04     LIBCMTD:libm_error.obj
 0002:00006d0c       ??_C@_04EHEDPDJG@modf?$AA@ 100b4d0c     LIBCMTD:libm_error.obj
 0002:00006d14       ??_C@_03BLEJJJBH@sin?$AA@  100b4d14     LIBCMTD:libm_error.obj
 0002:00006d18       ??_C@_03LALBNOCG@cos?$AA@  100b4d18     LIBCMTD:libm_error.obj
 0002:00006d1c       ??_C@_03IIINPABG@tan?$AA@  100b4d1c     LIBCMTD:libm_error.obj
 0002:00006d20       ??_C@_04EIAKFFMI@sqrt?$AA@ 100b4d20     LIBCMTD:libm_error.obj
 0002:00006d28       ??_C@_1GA@PBJHELNC@?$AAf?$AA?3?$AA?2?$AAd?$AAd?$AA?2?$AAv?$AAc?$AAt?$AAo?$AAo?$AAl?$AAs?$AA?2?$AAc?$AAr?$AAt?$AA_?$AAb?$AAl?$AAd?$AA?2?$AAs?$AAe?$AAl?$AAf?$AA_?$AAx?$AA8?$AA6?$AA?2?$AAc@ 100b4d28     LIBCMTD:fileno.obj
 0002:00006d88       ??_C@_1BA@JGHIEKKM@?$AA_?$AAf?$AAi?$AAl?$AAe?$AAn?$AAo?$AA?$AA@ 100b4d88     LIBCMTD:fileno.obj
 0002:00006d98       ??_C@_1FO@LPCLHKGE@?$AA?$CI?$AAf?$AAh?$AA?5?$AA?$DO?$AA?$DN?$AA?5?$AA0?$AA?5?$AA?$CG?$AA?$CG?$AA?5?$AA?$CI?$AAu?$AAn?$AAs?$AAi?$AAg?$AAn?$AAe?$AAd?$AA?$CJ?$AAf?$AAh?$AA?5?$AA?$DM?$AA?5?$AA?$CI?$AAu?$AAn?$AAs?$AAi@ 100b4d98     LIBCMTD:close.obj
 0002:00006df8       ??_C@_1FO@NNGNFGFH@?$AAf?$AA?3?$AA?2?$AAd?$AAd?$AA?2?$AAv?$AAc?$AAt?$AAo?$AAo?$AAl?$AAs?$AA?2?$AAc?$AAr?$AAt?$AA_?$AAb?$AAl?$AAd?$AA?2?$AAs?$AAe?$AAl?$AAf?$AA_?$AAx?$AA8?$AA6?$AA?2?$AAc@ 100b4df8     LIBCMTD:close.obj
 0002:00006e58       ??_C@_1O@EDEJGJBM@?$AA_?$AAc?$AAl?$AAo?$AAs?$AAe?$AA?$AA@ 100b4e58     LIBCMTD:close.obj
 0002:00006e68       ??_C@_1CM@OKGMMMDH@?$AA?$CI?$AA_?$AAo?$AAs?$AAf?$AAi?$AAl?$AAe?$AA?$CI?$AAf?$AAh?$AA?$CJ?$AA?5?$AA?$CG?$AA?5?$AAF?$AAO?$AAP?$AAE?$AAN?$AA?$CJ?$AA?$AA@ 100b4e68     LIBCMTD:close.obj
 0002:00006e98       ??_C@_1JE@ECKHFIFP@?$AA?$CI?$AA?$CC?$AAI?$AAn?$AAv?$AAa?$AAl?$AAi?$AAd?$AA?5?$AAf?$AAi?$AAl?$AAe?$AA?5?$AAd?$AAe?$AAs?$AAc?$AAr?$AAi?$AAp?$AAt?$AAo?$AAr?$AA?4?$AA?5?$AAF?$AAi?$AAl?$AAe?$AA?5@ 100b4e98     LIBCMTD:close.obj
 0002:00006f30       ??_C@_1GA@MFGIMPNL@?$AAf?$AA?3?$AA?2?$AAd?$AAd?$AA?2?$AAv?$AAc?$AAt?$AAo?$AAo?$AAl?$AAs?$AA?2?$AAc?$AAr?$AAt?$AA_?$AAb?$AAl?$AAd?$AA?2?$AAs?$AAe?$AAl?$AAf?$AA_?$AAx?$AA8?$AA6?$AA?2?$AAc@ 100b4f30     LIBCMTD:dosmap.obj
 0002:00006f90       ??_C@_1BG@KCMPBBDK@?$AA_?$AAg?$AAe?$AAt?$AA_?$AAe?$AAr?$AAr?$AAn?$AAo?$AA?$AA@ 100b4f90     LIBCMTD:dosmap.obj
 0002:00006fa8       ??_C@_1BM@INIPHHDD@?$AA_?$AAg?$AAe?$AAt?$AA_?$AAd?$AAo?$AAs?$AAe?$AAr?$AAr?$AAn?$AAo?$AA?$AA@ 100b4fa8     LIBCMTD:dosmap.obj
 0002:00006fc4       ??_C@_1BO@KIJENGPH@?$AAs?$AAt?$AAr?$AAe?$AAa?$AAm?$AA?5?$AA?$CB?$AA?$DN?$AA?5?$AAN?$AAU?$AAL?$AAL?$AA?$AA@ 100b4fc4     LIBCMTD:_freebuf.obj
 0002:00006fe8       ??_C@_1GE@MIMBMOF@?$AAf?$AA?3?$AA?2?$AAd?$AAd?$AA?2?$AAv?$AAc?$AAt?$AAo?$AAo?$AAl?$AAs?$AA?2?$AAc?$AAr?$AAt?$AA_?$AAb?$AAl?$AAd?$AA?2?$AAs?$AAe?$AAl?$AAf?$AA_?$AAx?$AA8?$AA6?$AA?2?$AAc@ 100b4fe8     LIBCMTD:_freebuf.obj
 0002:0000704c       ??_C@_0DA@NLPACBPK@f?3?2dd?2vctools?2crt_bld?2self_x86?2c@ 100b504c     LIBCMTD:stream.obj
 0002:0000709c       ??_C@_1CC@JBMDNKJP@?$AAf?$AAi?$AAl?$AAe?$AAn?$AAa?$AAm?$AAe?$AA?5?$AA?$CB?$AA?$DN?$AA?5?$AAN?$AAU?$AAL?$AAL?$AA?$AA@ 100b509c     LIBCMTD:_open.obj
 0002:000070c0       ??_C@_1FO@POGAHKND@?$AAf?$AA?3?$AA?2?$AAd?$AAd?$AA?2?$AAv?$AAc?$AAt?$AAo?$AAo?$AAl?$AAs?$AA?2?$AAc?$AAr?$AAt?$AA_?$AAb?$AAl?$AAd?$AA?2?$AAs?$AAe?$AAl?$AAf?$AA_?$AAx?$AA8?$AA6?$AA?2?$AAc@ 100b50c0     LIBCMTD:_open.obj
 0002:00007120       ??_C@_1BK@HGLMNMEC@?$AAm?$AAo?$AAd?$AAe?$AA?5?$AA?$CB?$AA?$DN?$AA?5?$AAN?$AAU?$AAL?$AAL?$AA?$AA@ 100b5120     LIBCMTD:_open.obj
 0002:0000713c       ??_C@_1BI@MFCLPIBM@?$AAs?$AAt?$AAr?$AA?5?$AA?$CB?$AA?$DN?$AA?5?$AAN?$AAU?$AAL?$AAL?$AA?$AA@ 100b513c     LIBCMTD:_open.obj
 0002:00007154       ??_C@_1DK@PKMJBLLN@?$AA?$CI?$AA?$CC?$AAI?$AAn?$AAv?$AAa?$AAl?$AAi?$AAd?$AA?5?$AAf?$AAi?$AAl?$AAe?$AA?5?$AAo?$AAp?$AAe?$AAn?$AA?5?$AAm?$AAo?$AAd?$AAe?$AA?$CC?$AA?0?$AA0?$AA?$CJ?$AA?$AA@ 100b5154     LIBCMTD:_open.obj
 0002:00007190       ??_C@_1BE@DONHJJKE@?$AA_?$AAo?$AAp?$AAe?$AAn?$AAf?$AAi?$AAl?$AAe?$AA?$AA@ 100b5190     LIBCMTD:_open.obj
 0002:000071a4       ??_C@_1CI@KEDPFCAL@?$AA?$CI?$AA?$CK?$AAm?$AAo?$AAd?$AAe?$AA?5?$AA?$DN?$AA?$DN?$AA?5?$AA_?$AAT?$AA?$CI?$AA?8?$AA?2?$AA0?$AA?8?$AA?$CJ?$AA?$CJ?$AA?$AA@ 100b51a4     LIBCMTD:_open.obj
 0002:000071d0       ??_C@_1GE@PEEPNGBM@?$AAf?$AA?3?$AA?2?$AAd?$AAd?$AA?2?$AAv?$AAc?$AAt?$AAo?$AAo?$AAl?$AAs?$AA?2?$AAc?$AAr?$AAt?$AA_?$AAb?$AAl?$AAd?$AA?2?$AAs?$AAe?$AAl?$AAf?$AA_?$AAx?$AA8?$AA6?$AA?2?$AAc@ 100b51d0     LIBCMTD:vfprintf.obj
 0002:00007234       ??_C@_1CA@OEHMHBJF@?$AAv?$AAf?$AAp?$AAr?$AAi?$AAn?$AAt?$AAf?$AA_?$AAh?$AAe?$AAl?$AAp?$AAe?$AAr?$AA?$AA@ 100b5234     LIBCMTD:vfprintf.obj
 0002:00007258       ??_C@_1GC@DGAFOCMO@?$AAf?$AA?3?$AA?2?$AAd?$AAd?$AA?2?$AAv?$AAc?$AAt?$AAo?$AAo?$AAl?$AAs?$AA?2?$AAc?$AAr?$AAt?$AA_?$AAb?$AAl?$AAd?$AA?2?$AAs?$AAe?$AAl?$AAf?$AA_?$AAx?$AA8?$AA6?$AA?2?$AAc@ 100b5258     LIBCMTD:_sftbuf.obj
 0002:000072bc       ??_C@_0DB@OLNNDFNH@f?3?2dd?2vctools?2crt_bld?2self_x86?2c@ 100b52bc     LIBCMTD:_sftbuf.obj
 0002:000072f0       ??_C@_1CO@KCKAACMI@?$AAf?$AAl?$AAa?$AAg?$AA?5?$AA?$DN?$AA?$DN?$AA?5?$AA0?$AA?5?$AA?$HM?$AA?$HM?$AA?5?$AAf?$AAl?$AAa?$AAg?$AA?5?$AA?$DN?$AA?$DN?$AA?5?$AA1?$AA?$AA@ 100b52f0     LIBCMTD:_sftbuf.obj
 0002:00007320       ??_C@_06OJHGLDPL@?$CInull?$CJ?$AA@ 100b5320     LIBCMTD:output.obj
 0002:00007328       ??_C@_1O@CEDCILHN@?$AA?$CI?$AAn?$AAu?$AAl?$AAl?$AA?$CJ?$AA?$AA@ 100b5328     LIBCMTD:output.obj
 0002:00007338       ___lookuptable             100b5338     LIBCMTD:output.obj
 0002:00007398       ??_C@_1GA@HHFOFBLN@?$AAf?$AA?3?$AA?2?$AAd?$AAd?$AA?2?$AAv?$AAc?$AAt?$AAo?$AAo?$AAl?$AAs?$AA?2?$AAc?$AAr?$AAt?$AA_?$AAb?$AAl?$AAd?$AA?2?$AAs?$AAe?$AAl?$AAf?$AA_?$AAx?$AA8?$AA6?$AA?2?$AAc@ 100b5398     LIBCMTD:output.obj
 0002:000073f8       ??_C@_1BE@IONLIDNC@?$AA_?$AAo?$AAu?$AAt?$AAp?$AAu?$AAt?$AA_?$AAl?$AA?$AA@ 100b53f8     LIBCMTD:output.obj
 0002:0000740c       ??_C@_1CC@IFFHEMNF@?$AA?$CI?$AAc?$AAh?$AA?5?$AA?$CB?$AA?$DN?$AA?5?$AA_?$AAT?$AA?$CI?$AA?8?$AA?2?$AA0?$AA?8?$AA?$CJ?$AA?$CJ?$AA?$AA@ 100b540c     LIBCMTD:output.obj
 0002:00007430       ??_C@_1EK@PNGFDECN@?$AA?$CI?$AA?$CC?$AA?8?$AAn?$AA?8?$AA?5?$AAf?$AAo?$AAr?$AAm?$AAa?$AAt?$AA?5?$AAs?$AAp?$AAe?$AAc?$AAi?$AAf?$AAi?$AAe?$AAr?$AA?5?$AAd?$AAi?$AAs?$AAa?$AAb?$AAl?$AAe?$AAd?$AA?$CC@ 100b5430     LIBCMTD:output.obj
 0002:0000747c       ??_C@_0DA@NFBEBPEE@f?3?2dd?2vctools?2crt_bld?2self_x86?2c@ 100b547c     LIBCMTD:output.obj
 0002:000074ac       ??_C@_0DA@NBLAKPEL@f?3?2dd?2vctools?2crt_bld?2self_x86?2c@ 100b54ac     LIBCMTD:ioinit.obj
 0002:000074e0       ??_C@_1GC@CHFNJKFB@?$AAf?$AA?3?$AA?2?$AAd?$AAd?$AA?2?$AAv?$AAc?$AAt?$AAo?$AAo?$AAl?$AAs?$AA?2?$AAc?$AAr?$AAt?$AA_?$AAb?$AAl?$AAd?$AA?2?$AAs?$AAe?$AAl?$AAf?$AA_?$AAx?$AA8?$AA6?$AA?2?$AAc@ 100b54e0     LIBCMTD:_filbuf.obj
 0002:00007544       ??_C@_1BA@IIKEPOGH@?$AA_?$AAf?$AAi?$AAl?$AAb?$AAu?$AAf?$AA?$AA@ 100b5544     LIBCMTD:_filbuf.obj
 0002:00007554       ??_C@_1BI@GKKCBDMD@?$AAd?$AAs?$AAt?$AA?5?$AA?$CB?$AA?$DN?$AA?5?$AAN?$AAU?$AAL?$AAL?$AA?$AA@ 100b5554     LIBCMTD:memcpy_s.obj
 0002:00007570       ??_C@_1GE@NEOPGGBM@?$AAf?$AA?3?$AA?2?$AAd?$AAd?$AA?2?$AAv?$AAc?$AAt?$AAo?$AAo?$AAl?$AAs?$AA?2?$AAc?$AAr?$AAt?$AA_?$AAb?$AAl?$AAd?$AA?2?$AAs?$AAe?$AAl?$AAf?$AA_?$AAx?$AA8?$AA6?$AA?2?$AAc@ 100b5570     LIBCMTD:memcpy_s.obj
 0002:000075d4       ??_C@_1BC@GKHDJMGB@?$AAm?$AAe?$AAm?$AAc?$AAp?$AAy?$AA_?$AAs?$AA?$AA@ 100b55d4     LIBCMTD:memcpy_s.obj
 0002:000075e8       ??_C@_1BI@DCHLDCPP@?$AAs?$AAr?$AAc?$AA?5?$AA?$CB?$AA?$DN?$AA?5?$AAN?$AAU?$AAL?$AAL?$AA?$AA@ 100b55e8     LIBCMTD:memcpy_s.obj
 0002:00007600       ??_C@_1CK@DDKKOLAN@?$AAs?$AAi?$AAz?$AAe?$AAI?$AAn?$AAB?$AAy?$AAt?$AAe?$AAs?$AA?5?$AA?$DO?$AA?$DN?$AA?5?$AAc?$AAo?$AAu?$AAn?$AAt?$AA?$AA@ 100b5600     LIBCMTD:memcpy_s.obj
 0002:00007630       ??_C@_1FM@NGICBHLO@?$AAf?$AA?3?$AA?2?$AAd?$AAd?$AA?2?$AAv?$AAc?$AAt?$AAo?$AAo?$AAl?$AAs?$AA?2?$AAc?$AAr?$AAt?$AA_?$AAb?$AAl?$AAd?$AA?2?$AAs?$AAe?$AAl?$AAf?$AA_?$AAx?$AA8?$AA6?$AA?2?$AAc@ 100b5630     LIBCMTD:read.obj
 0002:0000768c       ??_C@_1M@NHJOLLDM@?$AA_?$AAr?$AAe?$AAa?$AAd?$AA?$AA@ 100b568c     LIBCMTD:read.obj
 0002:00007698       ??_C@_1CC@HBLPFNKH@?$AA?$CI?$AAc?$AAn?$AAt?$AA?5?$AA?$DM?$AA?$DN?$AA?5?$AAI?$AAN?$AAT?$AA_?$AAM?$AAA?$AAX?$AA?$CJ?$AA?$AA@ 100b5698     LIBCMTD:read.obj
 0002:000076bc       ??_C@_1BK@JJBHNDKJ@?$AA_?$AAr?$AAe?$AAa?$AAd?$AA_?$AAn?$AAo?$AAl?$AAo?$AAc?$AAk?$AA?$AA@ 100b56bc     LIBCMTD:read.obj
 0002:000076d8       ??_C@_1CG@OHLJHGGK@?$AA?$CI?$AAi?$AAn?$AAp?$AAu?$AAt?$AAb?$AAu?$AAf?$AA?5?$AA?$CB?$AA?$DN?$AA?5?$AAN?$AAU?$AAL?$AAL?$AA?$CJ?$AA?$AA@ 100b56d8     LIBCMTD:read.obj
 0002:00007700       ??_C@_1CC@EEOLPHGO@?$AA?$CI?$AA?$CI?$AAc?$AAn?$AAt?$AA?5?$AA?$CG?$AA?5?$AA1?$AA?$CJ?$AA?5?$AA?$DN?$AA?$DN?$AA?5?$AA0?$AA?$CJ?$AA?$AA@ 100b5700     LIBCMTD:read.obj
 0002:00007724       ??_C@_0CO@CEGKNHEH@f?3?2dd?2vctools?2crt_bld?2self_x86?2c@ 100b5724     LIBCMTD:read.obj
 0002:00007758       ??_C@_1GC@GNCCMPNN@?$AAf?$AA?3?$AA?2?$AAd?$AAd?$AA?2?$AAv?$AAc?$AAt?$AAo?$AAo?$AAl?$AAs?$AA?2?$AAc?$AAr?$AAt?$AA_?$AAb?$AAl?$AAd?$AA?2?$AAs?$AAe?$AAl?$AAf?$AA_?$AAx?$AA8?$AA6?$AA?2?$AAc@ 100b5758     LIBCMTD:_flsbuf.obj
 0002:000077c0       ??_C@_1HO@MLMGPAFH@?$AA?$CI?$AA?$CC?$AAi?$AAn?$AAc?$AAo?$AAn?$AAs?$AAi?$AAs?$AAt?$AAe?$AAn?$AAt?$AA?5?$AAI?$AAO?$AAB?$AA?5?$AAf?$AAi?$AAe?$AAl?$AAd?$AAs?$AA?$CC?$AA?0?$AA?5?$AAs?$AAt?$AAr?$AAe@ 100b57c0     LIBCMTD:_flsbuf.obj
 0002:00007840       ??_C@_1FO@EPLDPDDL@?$AAf?$AA?3?$AA?2?$AAd?$AAd?$AA?2?$AAv?$AAc?$AAt?$AAo?$AAo?$AAl?$AAs?$AA?2?$AAc?$AAr?$AAt?$AA_?$AAb?$AAl?$AAd?$AA?2?$AAs?$AAe?$AAl?$AAf?$AA_?$AAx?$AA8?$AA6?$AA?2?$AAc@ 100b5840     LIBCMTD:write.obj
 0002:000078a0       ??_C@_1O@KOFKDHPL@?$AA_?$AAw?$AAr?$AAi?$AAt?$AAe?$AA?$AA@ 100b58a0     LIBCMTD:write.obj
 0002:000078b0       ??_C@_1BM@KFJLMBPG@?$AA?$CI?$AAb?$AAu?$AAf?$AA?5?$AA?$CB?$AA?$DN?$AA?5?$AAN?$AAU?$AAL?$AAL?$AA?$CJ?$AA?$AA@ 100b58b0     LIBCMTD:write.obj
 0002:000078cc       ??_C@_1BM@NCANHCIP@?$AA_?$AAw?$AAr?$AAi?$AAt?$AAe?$AA_?$AAn?$AAo?$AAl?$AAo?$AAc?$AAk?$AA?$AA@ 100b58cc     LIBCMTD:write.obj
 0002:000078e8       ??_C@_1DI@CNMHHHLG@?$AAi?$AAs?$AAl?$AAe?$AAa?$AAd?$AAb?$AAy?$AAt?$AAe?$AA?$CI?$AA_?$AAd?$AAb?$AAc?$AAs?$AAB?$AAu?$AAf?$AAf?$AAe?$AAr?$AA?$CI?$AAf?$AAh?$AA?$CJ?$AA?$CJ?$AA?$AA@ 100b58e8     LIBCMTD:write.obj
 0002:00007920       ??_C@_1GC@DHFFJKMC@?$AAf?$AA?3?$AA?2?$AAd?$AAd?$AA?2?$AAv?$AAc?$AAt?$AAo?$AAo?$AAl?$AAs?$AA?2?$AAc?$AAr?$AAt?$AA_?$AAb?$AAl?$AAd?$AA?2?$AAs?$AAe?$AAl?$AAf?$AA_?$AAx?$AA8?$AA6?$AA?2?$AAc@ 100b5920     LIBCMTD:vprintf.obj
 0002:00007984       ??_C@_1BO@JGFPDJCP@?$AAv?$AAp?$AAr?$AAi?$AAn?$AAt?$AAf?$AA_?$AAh?$AAe?$AAl?$AAp?$AAe?$AAr?$AA?$AA@ 100b5984     LIBCMTD:vprintf.obj
 0002:000079a4       ??_C@_1CE@PCFPEIFI@?$AA_?$AAv?$AAs?$AAn?$AAp?$AAr?$AAi?$AAn?$AAt?$AAf?$AA_?$AAh?$AAe?$AAl?$AAp?$AAe?$AAr?$AA?$AA@ 100b59a4     LIBCMTD:vsnprnc.obj
 0002:000079c8       ??_C@_1BO@MLMCMBKN@?$AAf?$AAo?$AAr?$AAm?$AAa?$AAt?$AA?5?$AA?$CB?$AA?$DN?$AA?5?$AAN?$AAU?$AAL?$AAL?$AA?$AA@ 100b59c8     LIBCMTD:vsnprnc.obj
 0002:000079e8       ??_C@_1BM@BLJALHEF@?$AA_?$AAv?$AAs?$AAp?$AAr?$AAi?$AAn?$AAt?$AAf?$AA_?$AAs?$AA_?$AAl?$AA?$AA@ 100b59e8     LIBCMTD:vsnprnc.obj
 0002:00007a08       ??_C@_1EE@OKCKIGFK@?$AAs?$AAt?$AAr?$AAi?$AAn?$AAg?$AA?5?$AA?$CB?$AA?$DN?$AA?5?$AAN?$AAU?$AAL?$AAL?$AA?5?$AA?$CG?$AA?$CG?$AA?5?$AAs?$AAi?$AAz?$AAe?$AAI?$AAn?$AAB?$AAy?$AAt?$AAe?$AAs?$AA?5?$AA?$DO?$AA?5@ 100b5a08     LIBCMTD:vsnprnc.obj
 0002:00007a4c       ??_C@_1DA@HPBFKMEB@?$AA?$CI?$AA?$CC?$AAB?$AAu?$AAf?$AAf?$AAe?$AAr?$AA?5?$AAt?$AAo?$AAo?$AA?5?$AAs?$AAm?$AAa?$AAl?$AAl?$AA?$CC?$AA?0?$AA?5?$AA0?$AA?$CJ?$AA?$AA@ 100b5a4c     LIBCMTD:vsnprnc.obj
 0002:00007a7c       ??_C@_1BO@MMPELNIM@?$AA_?$AAv?$AAs?$AAn?$AAp?$AAr?$AAi?$AAn?$AAt?$AAf?$AA_?$AAs?$AA_?$AAl?$AA?$AA@ 100b5a7c     LIBCMTD:vsnprnc.obj
 0002:00007a9c       ??_C@_04COOMCNPB@sinh?$AA@ 100b5a9c     LIBCMTD:fpexcept.obj
 0002:00007aa4       ??_C@_04HPJJNFIM@cosh?$AA@ 100b5aa4     LIBCMTD:fpexcept.obj
 0002:00007aac       ??_C@_04FJHINJAO@tanh?$AA@ 100b5aac     LIBCMTD:fpexcept.obj
 0002:00007ab4       ??_C@_05KNGEOGJB@atan2?$AA@ 100b5ab4     LIBCMTD:fpexcept.obj
 0002:00007abc       ??_C@_04ODHECPBC@fabs?$AA@ 100b5abc     LIBCMTD:fpexcept.obj
 0002:00007ac4       ??_C@_05CEJMAHNP@ldexp?$AA@ 100b5ac4     LIBCMTD:fpexcept.obj
 0002:00007acc       ??_C@_05KBKMEMPO@_cabs?$AA@ 100b5acc     LIBCMTD:fpexcept.obj
 0002:00007ad4       ??_C@_06MEIMCGCF@_hypot?$AA@ 100b5ad4     LIBCMTD:fpexcept.obj
 0002:00007adc       ??_C@_04KEPJIHGP@fmod?$AA@ 100b5adc     LIBCMTD:fpexcept.obj
 0002:00007ae4       ??_C@_05GKKHEGJL@frexp?$AA@ 100b5ae4     LIBCMTD:fpexcept.obj
 0002:00007aec       ??_C@_03MJLDFKDL@_y0?$AA@  100b5aec     LIBCMTD:fpexcept.obj
 0002:00007af0       ??_C@_03NAKIGLHK@_y1?$AA@  100b5af0     LIBCMTD:fpexcept.obj
 0002:00007af4       ??_C@_03ONILCKOB@_yn?$AA@  100b5af4     LIBCMTD:fpexcept.obj
 0002:00007af8       ??_C@_05JGDBENOH@_logb?$AA@ 100b5af8     LIBCMTD:fpexcept.obj
 0002:00007b00       ??_C@_0L@KDOEJCKC@_nextafter?$AA@ 100b5b00     LIBCMTD:fpexcept.obj
 0002:00007b14       ??_C@_0DC@LMJHGCKC@f?3?2dd?2vctools?2crt_bld?2self_x86?2c@ 100b5b14     LIBCMTD:tidtable.obj
 0002:00007b48       __pDestructExceptionObject 100b5b48     LIBCMTD:frame.obj
 0002:00007b50       ??_7bad_exception@std@@6B@ 100b5b50     LIBCMTD:frame.obj
 0002:00007b58       ??_C@_0O@DPKOEFFH@bad?5exception?$AA@ 100b5b58     LIBCMTD:frame.obj
 0002:00007b70       __OP_ATAN2jmptab           100b5b70     LIBCMTD:87triga.obj
 0002:00008af0       __infinity                 100b6af0     LIBCMTD:87tran.obj
 0002:00008afa       __minfinity                100b6afa     LIBCMTD:87tran.obj
 0002:00008b04       __logemax                  100b6b04     LIBCMTD:87tran.obj
 0002:00008b2a       __OP_EXPjmptab             100b6b2a     LIBCMTD:87tran.obj
 0002:000093f0       ??_C@_1BK@FHMHFMNL@?$AA_?$AAv?$AAs?$AAn?$AAp?$AAr?$AAi?$AAn?$AAt?$AAf?$AA_?$AAl?$AA?$AA@ 100b73f0     LIBCMTD:vsnprint.obj
 0002:0000c348       ??_C@_1FK@PGACCAFB@?$AAR?$AA6?$AA0?$AA0?$AA2?$AA?$AN?$AA?6?$AA?9?$AA?5?$AAf?$AAl?$AAo?$AAa?$AAt?$AAi?$AAn?$AAg?$AA?5?$AAp?$AAo?$AAi?$AAn?$AAt?$AA?5?$AAs?$AAu?$AAp?$AAp?$AAo?$AAr?$AAt?$AA?5@ 100ba348     LIBCMTD:crt0msg.obj
 0002:0000c3a8       ??_C@_1FE@LLNEDJMD@?$AAR?$AA6?$AA0?$AA0?$AA8?$AA?$AN?$AA?6?$AA?9?$AA?5?$AAn?$AAo?$AAt?$AA?5?$AAe?$AAn?$AAo?$AAu?$AAg?$AAh?$AA?5?$AAs?$AAp?$AAa?$AAc?$AAe?$AA?5?$AAf?$AAo?$AAr?$AA?5?$AAa?$AAr@ 100ba3a8     LIBCMTD:crt0msg.obj
 0002:0000c400       ??_C@_1FI@HONFMGBI@?$AAR?$AA6?$AA0?$AA0?$AA9?$AA?$AN?$AA?6?$AA?9?$AA?5?$AAn?$AAo?$AAt?$AA?5?$AAe?$AAn?$AAo?$AAu?$AAg?$AAh?$AA?5?$AAs?$AAp?$AAa?$AAc?$AAe?$AA?5?$AAf?$AAo?$AAr?$AA?5?$AAe?$AAn@ 100ba400     LIBCMTD:crt0msg.obj
 0002:0000c458       ??_C@_1EG@BEHAGFJD@?$AAR?$AA6?$AA0?$AA1?$AA0?$AA?$AN?$AA?6?$AA?9?$AA?5?$AAa?$AAb?$AAo?$AAr?$AAt?$AA?$CI?$AA?$CJ?$AA?5?$AAh?$AAa?$AAs?$AA?5?$AAb?$AAe?$AAe?$AAn?$AA?5?$AAc?$AAa?$AAl?$AAl?$AAe?$AAd@ 100ba458     LIBCMTD:crt0msg.obj
 0002:0000c4a0       ??_C@_1FI@LOGNIKDM@?$AAR?$AA6?$AA0?$AA1?$AA6?$AA?$AN?$AA?6?$AA?9?$AA?5?$AAn?$AAo?$AAt?$AA?5?$AAe?$AAn?$AAo?$AAu?$AAg?$AAh?$AA?5?$AAs?$AAp?$AAa?$AAc?$AAe?$AA?5?$AAf?$AAo?$AAr?$AA?5?$AAt?$AAh@ 100ba4a0     LIBCMTD:crt0msg.obj
 0002:0000c4f8       ??_C@_1FK@BEOGODMC@?$AAR?$AA6?$AA0?$AA1?$AA7?$AA?$AN?$AA?6?$AA?9?$AA?5?$AAu?$AAn?$AAe?$AAx?$AAp?$AAe?$AAc?$AAt?$AAe?$AAd?$AA?5?$AAm?$AAu?$AAl?$AAt?$AAi?$AAt?$AAh?$AAr?$AAe?$AAa?$AAd?$AA?5@ 100ba4f8     LIBCMTD:crt0msg.obj
 0002:0000c558       ??_C@_1EC@JIBHAOPH@?$AAR?$AA6?$AA0?$AA1?$AA8?$AA?$AN?$AA?6?$AA?9?$AA?5?$AAu?$AAn?$AAe?$AAx?$AAp?$AAe?$AAc?$AAt?$AAe?$AAd?$AA?5?$AAh?$AAe?$AAa?$AAp?$AA?5?$AAe?$AAr?$AAr?$AAo?$AAr?$AA?$AN?$AA?6@ 100ba558     LIBCMTD:crt0msg.obj
 0002:0000c5a0       ??_C@_1FC@ECHBIFBC@?$AAR?$AA6?$AA0?$AA1?$AA9?$AA?$AN?$AA?6?$AA?9?$AA?5?$AAu?$AAn?$AAa?$AAb?$AAl?$AAe?$AA?5?$AAt?$AAo?$AA?5?$AAo?$AAp?$AAe?$AAn?$AA?5?$AAc?$AAo?$AAn?$AAs?$AAo?$AAl?$AAe?$AA?5@ 100ba5a0     LIBCMTD:crt0msg.obj
 0002:0000c5f8       ??_C@_1GK@FHCKBEFA@?$AAR?$AA6?$AA0?$AA2?$AA4?$AA?$AN?$AA?6?$AA?9?$AA?5?$AAn?$AAo?$AAt?$AA?5?$AAe?$AAn?$AAo?$AAu?$AAg?$AAh?$AA?5?$AAs?$AAp?$AAa?$AAc?$AAe?$AA?5?$AAf?$AAo?$AAr?$AA?5?$AA_?$AAo@ 100ba5f8     LIBCMTD:crt0msg.obj
 0002:0000c668       ??_C@_1EM@MAADIHMB@?$AAR?$AA6?$AA0?$AA2?$AA5?$AA?$AN?$AA?6?$AA?9?$AA?5?$AAp?$AAu?$AAr?$AAe?$AA?5?$AAv?$AAi?$AAr?$AAt?$AAu?$AAa?$AAl?$AA?5?$AAf?$AAu?$AAn?$AAc?$AAt?$AAi?$AAo?$AAn?$AA?5?$AAc@ 100ba668     LIBCMTD:crt0msg.obj
 0002:0000c6b8       ??_C@_1GK@MCAAGJMO@?$AAR?$AA6?$AA0?$AA2?$AA6?$AA?$AN?$AA?6?$AA?9?$AA?5?$AAn?$AAo?$AAt?$AA?5?$AAe?$AAn?$AAo?$AAu?$AAg?$AAh?$AA?5?$AAs?$AAp?$AAa?$AAc?$AAe?$AA?5?$AAf?$AAo?$AAr?$AA?5?$AAs?$AAt@ 100ba6b8     LIBCMTD:crt0msg.obj
 0002:0000c728       ??_C@_1GK@MFGOKLAG@?$AAR?$AA6?$AA0?$AA2?$AA7?$AA?$AN?$AA?6?$AA?9?$AA?5?$AAn?$AAo?$AAt?$AA?5?$AAe?$AAn?$AAo?$AAu?$AAg?$AAh?$AA?5?$AAs?$AAp?$AAa?$AAc?$AAe?$AA?5?$AAf?$AAo?$AAr?$AA?5?$AAl?$AAo@ 100ba728     LIBCMTD:crt0msg.obj
 0002:0000c798       ??_C@_1EK@HHFLMAOL@?$AAR?$AA6?$AA0?$AA2?$AA8?$AA?$AN?$AA?6?$AA?9?$AA?5?$AAu?$AAn?$AAa?$AAb?$AAl?$AAe?$AA?5?$AAt?$AAo?$AA?5?$AAi?$AAn?$AAi?$AAt?$AAi?$AAa?$AAl?$AAi?$AAz?$AAe?$AA?5?$AAh?$AAe@ 100ba798     LIBCMTD:crt0msg.obj
 0002:0000c7e4       ??_C@_1DO@BMFCDCD@?$AAR?$AA6?$AA0?$AA3?$AA0?$AA?$AN?$AA?6?$AA?9?$AA?5?$AAC?$AAR?$AAT?$AA?5?$AAn?$AAo?$AAt?$AA?5?$AAi?$AAn?$AAi?$AAt?$AAi?$AAa?$AAl?$AAi?$AAz?$AAe?$AAd?$AA?$AN?$AA?6?$AA?$AA@ 100ba7e4     LIBCMTD:crt0msg.obj
 0002:0000c828       ??_C@_1MG@ENCOOIDF@?$AAR?$AA6?$AA0?$AA3?$AA1?$AA?$AN?$AA?6?$AA?9?$AA?5?$AAA?$AAt?$AAt?$AAe?$AAm?$AAp?$AAt?$AA?5?$AAt?$AAo?$AA?5?$AAi?$AAn?$AAi?$AAt?$AAi?$AAa?$AAl?$AAi?$AAz?$AAe?$AA?5?$AAt@ 100ba828     LIBCMTD:crt0msg.obj
 0002:0000c8f0       ??_C@_1GG@GOPILAJP@?$AAR?$AA6?$AA0?$AA3?$AA2?$AA?$AN?$AA?6?$AA?9?$AA?5?$AAn?$AAo?$AAt?$AA?5?$AAe?$AAn?$AAo?$AAu?$AAg?$AAh?$AA?5?$AAs?$AAp?$AAa?$AAc?$AAe?$AA?5?$AAf?$AAo?$AAr?$AA?5?$AAl?$AAo@ 100ba8f0     LIBCMTD:crt0msg.obj
 0002:0000c958       ??_C@_1BOO@KGEDBGAJ@?$AAR?$AA6?$AA0?$AA3?$AA3?$AA?$AN?$AA?6?$AA?9?$AA?5?$AAA?$AAt?$AAt?$AAe?$AAm?$AAp?$AAt?$AA?5?$AAt?$AAo?$AA?5?$AAu?$AAs?$AAe?$AA?5?$AAM?$AAS?$AAI?$AAL?$AA?5?$AAc?$AAo?$AAd@ 100ba958     LIBCMTD:crt0msg.obj
 0002:0000cb48       ??_C@_1GG@MKFPEKFO@?$AAR?$AA6?$AA0?$AA3?$AA4?$AA?$AN?$AA?6?$AA?9?$AA?5?$AAi?$AAn?$AAc?$AAo?$AAn?$AAs?$AAi?$AAs?$AAt?$AAe?$AAn?$AAt?$AA?5?$AAo?$AAn?$AAe?$AAx?$AAi?$AAt?$AA?5?$AAb?$AAe?$AAg@ 100bab48     LIBCMTD:crt0msg.obj
 0002:0000cbb0       ??_C@_1BO@BFCDCGC@?$AAD?$AAO?$AAM?$AAA?$AAI?$AAN?$AA?5?$AAe?$AAr?$AAr?$AAo?$AAr?$AA?$AN?$AA?6?$AA?$AA@ 100babb0     LIBCMTD:crt0msg.obj
 0002:0000cbd0       ??_C@_1BK@KMOMNAAI@?$AAS?$AAI?$AAN?$AAG?$AA?5?$AAe?$AAr?$AAr?$AAo?$AAr?$AA?$AN?$AA?6?$AA?$AA@ 100babd0     LIBCMTD:crt0msg.obj
 0002:0000cbec       ??_C@_1BM@JBBEPPHI@?$AAT?$AAL?$AAO?$AAS?$AAS?$AA?5?$AAe?$AAr?$AAr?$AAo?$AAr?$AA?$AN?$AA?6?$AA?$AA@ 100babec     LIBCMTD:crt0msg.obj
 0002:0000cc08       ??_C@_15JNBOKNOG@?$AA?$AN?$AA?6?$AA?$AA@ 100bac08     LIBCMTD:crt0msg.obj
 0002:0000cc10       ??_C@_1BO@BKOMIGKJ@?$AAr?$AAu?$AAn?$AAt?$AAi?$AAm?$AAe?$AA?5?$AAe?$AAr?$AAr?$AAo?$AAr?$AA?5?$AA?$AA@ 100bac10     LIBCMTD:crt0msg.obj
 0002:0000cc30       ??_C@_1GC@HKOJBOFF@?$AAf?$AA?3?$AA?2?$AAd?$AAd?$AA?2?$AAv?$AAc?$AAt?$AAo?$AAo?$AAl?$AAs?$AA?2?$AAc?$AAr?$AAt?$AA_?$AAb?$AAl?$AAd?$AA?2?$AAs?$AAe?$AAl?$AAf?$AA_?$AAx?$AA8?$AA6?$AA?2?$AAc@ 100bac30     LIBCMTD:crt0msg.obj
 0002:0000cc94       ??_C@_1BI@EAHMBMEC@?$AA_?$AAN?$AAM?$AAS?$AAG?$AA_?$AAW?$AAR?$AAI?$AAT?$AAE?$AA?$AA@ 100bac94     LIBCMTD:crt0msg.obj
 0002:0000ccb0       ??_C@_1KO@BKLCKNFL@?$AAw?$AAc?$AAs?$AAc?$AAp?$AAy?$AA_?$AAs?$AA?$CI?$AAo?$AAu?$AAt?$AAm?$AAs?$AAg?$AA?0?$AA?5?$AA?$CI?$AAs?$AAi?$AAz?$AAe?$AAo?$AAf?$AA?$CI?$AAo?$AAu?$AAt?$AAm?$AAs?$AAg?$AA?$CJ@ 100bacb0     LIBCMTD:crt0msg.obj
 0002:0000cd60       ??_C@_1DE@JNGNBFGO@?$AAR?$AAu?$AAn?$AAt?$AAi?$AAm?$AAe?$AA?5?$AAE?$AAr?$AAr?$AAo?$AAr?$AA?$CB?$AA?6?$AA?6?$AAP?$AAr?$AAo?$AAg?$AAr?$AAa?$AAm?$AA?3?$AA?5?$AA?$AA@ 100bad60     LIBCMTD:crt0msg.obj
 0002:0000cd98       ??_C@_1HK@FJJNAABO@?$AAw?$AAc?$AAs?$AAc?$AAp?$AAy?$AA_?$AAs?$AA?$CI?$AAp?$AAr?$AAo?$AAg?$AAn?$AAa?$AAm?$AAe?$AA?0?$AA?5?$AAp?$AAr?$AAo?$AAg?$AAn?$AAa?$AAm?$AAe?$AA_?$AAs?$AAi?$AAz?$AAe@ 100bad98     LIBCMTD:crt0msg.obj
 0002:0000ce18       ??_C@_1HI@FLHKGEBE@?$AAw?$AAc?$AAs?$AAn?$AAc?$AAp?$AAy?$AA_?$AAs?$AA?$CI?$AAp?$AAc?$AAh?$AA?0?$AA?5?$AAp?$AAr?$AAo?$AAg?$AAn?$AAa?$AAm?$AAe?$AA_?$AAs?$AAi?$AAz?$AAe?$AA?5?$AA?9?$AA?5?$AA?$CI@ 100bae18     LIBCMTD:crt0msg.obj
 0002:0000ce90       ??_C@_1IA@DCJGKHFO@?$AAw?$AAc?$AAs?$AAc?$AAa?$AAt?$AA_?$AAs?$AA?$CI?$AAo?$AAu?$AAt?$AAm?$AAs?$AAg?$AA?0?$AA?5?$AA?$CI?$AAs?$AAi?$AAz?$AAe?$AAo?$AAf?$AA?$CI?$AAo?$AAu?$AAt?$AAm?$AAs?$AAg?$AA?$CJ@ 100bae90     LIBCMTD:crt0msg.obj
 0002:0000cf10       ??_C@_1IG@NMONDPP@?$AAw?$AAc?$AAs?$AAc?$AAa?$AAt?$AA_?$AAs?$AA?$CI?$AAo?$AAu?$AAt?$AAm?$AAs?$AAg?$AA?0?$AA?5?$AA?$CI?$AAs?$AAi?$AAz?$AAe?$AAo?$AAf?$AA?$CI?$AAo?$AAu?$AAt?$AAm?$AAs?$AAg?$AA?$CJ@ 100baf10     LIBCMTD:crt0msg.obj
 0002:0000cf98       ??_C@_0DC@CFDMMFIG@f?3?2dd?2vctools?2crt_bld?2self_x86?2c@ 100baf98     LIBCMTD:inithelp.obj
 0002:0000cfd0       ??_C@_1GE@PLPIMDHG@?$AAf?$AA?3?$AA?2?$AAd?$AAd?$AA?2?$AAv?$AAc?$AAt?$AAo?$AAo?$AAl?$AAs?$AA?2?$AAc?$AAr?$AAt?$AA_?$AAb?$AAl?$AAd?$AA?2?$AAs?$AAe?$AAl?$AAf?$AA_?$AAx?$AA8?$AA6?$AA?2?$AAc@ 100bafd0     LIBCMTD:inithelp.obj
 0002:0000d034       ??_C@_1CA@KHHCPEI@?$AA_?$AA_?$AAg?$AAe?$AAt?$AAl?$AAo?$AAc?$AAa?$AAl?$AAe?$AAi?$AAn?$AAf?$AAo?$AA?$AA@ 100bb034     LIBCMTD:inithelp.obj
 0002:0000d058       ??_C@_1GO@NGIGJNHH@?$AAs?$AAt?$AAr?$AAn?$AAc?$AAp?$AAy?$AA_?$AAs?$AA?$CI?$AA?$CK?$AAs?$AAt?$AAr?$AAa?$AAd?$AAd?$AAr?$AAe?$AAs?$AAs?$AA?0?$AA?5?$AAo?$AAu?$AAt?$AAs?$AAi?$AAz?$AAe?$AA?0?$AA?5@ 100bb058     LIBCMTD:inithelp.obj
 0002:0000d0c8       __XcptActTab               100bb0c8     LIBCMTD:winxfltr.obj
 0002:0000d158       __XcptActTabCount          100bb158     LIBCMTD:winxfltr.obj
 0002:0000d15c       __XcptActTabSize           100bb15c     LIBCMTD:winxfltr.obj
 0002:0000d160       __First_FPE_Indx           100bb160     LIBCMTD:winxfltr.obj
 0002:0000d164       __Num_FPE                  100bb164     LIBCMTD:winxfltr.obj
 0002:0000d168       ??_C@_1BC@DENNNKIM@?$AA_?$AAc?$AAr?$AAt?$AAh?$AAe?$AAa?$AAp?$AA?$AA@ 100bb168     LIBCMTD:heapinit.obj
 0002:0000d180       ??_C@_1GE@JDDMFOID@?$AAf?$AA?3?$AA?2?$AAd?$AAd?$AA?2?$AAv?$AAc?$AAt?$AAo?$AAo?$AAl?$AAs?$AA?2?$AAc?$AAr?$AAt?$AA_?$AAb?$AAl?$AAd?$AA?2?$AAs?$AAe?$AAl?$AAf?$AA_?$AAx?$AA8?$AA6?$AA?2?$AAc@ 100bb180     LIBCMTD:heapinit.obj
 0002:0000d1e4       ??_C@_0DB@OEPBJOLC@f?3?2dd?2vctools?2crt_bld?2self_x86?2c@ 100bb1e4     LIBCMTD:stdargv.obj
 0002:0000d218       ??_C@_0DB@BMEBJJKP@f?3?2dd?2vctools?2crt_bld?2self_x86?2c@ 100bb218     LIBCMTD:stdenvp.obj
 0002:0000d250       ??_C@_1GC@DGBFLDBN@?$AAf?$AA?3?$AA?2?$AAd?$AAd?$AA?2?$AAv?$AAc?$AAt?$AAo?$AAo?$AAl?$AAs?$AA?2?$AAc?$AAr?$AAt?$AA_?$AAb?$AAl?$AAd?$AA?2?$AAs?$AAe?$AAl?$AAf?$AA_?$AAx?$AA8?$AA6?$AA?2?$AAc@ 100bb250     LIBCMTD:stdenvp.obj
 0002:0000d2b4       ??_C@_1BC@GHMCNHHL@?$AA_?$AAs?$AAe?$AAt?$AAe?$AAn?$AAv?$AAp?$AA?$AA@ 100bb2b4     LIBCMTD:stdenvp.obj
 0002:0000d2c8       ??_C@_1DE@MMOGFGHF@?$AAs?$AAt?$AAr?$AAc?$AAp?$AAy?$AA_?$AAs?$AA?$CI?$AA?$CK?$AAe?$AAn?$AAv?$AA?0?$AA?5?$AAc?$AAc?$AAh?$AAa?$AAr?$AAs?$AA?0?$AA?5?$AAp?$AA?$CJ?$AA?$AA@ 100bb2c8     LIBCMTD:stdenvp.obj
 0002:0000d2fc       ??_C@_0CP@PPLBCJDN@f?3?2dd?2vctools?2crt_bld?2self_x86?2c@ 100bb2fc     LIBCMTD:a_env.obj
 0002:0000d32c       ??_C@_1BK@MGMFAEKH@?$AAk?$AAe?$AAr?$AAn?$AAe?$AAl?$AA3?$AA2?$AA?4?$AAd?$AAl?$AAl?$AA?$AA@ 100bb32c     LIBCMTD:winapisupp.obj
 0002:0000d348       ??_C@_08KNHFBNJ@FlsAlloc?$AA@ 100bb348     LIBCMTD:winapisupp.obj
 0002:0000d354       ??_C@_07PEJMOBNF@FlsFree?$AA@ 100bb354     LIBCMTD:winapisupp.obj
 0002:0000d35c       ??_C@_0M@GDNOONDI@FlsGetValue?$AA@ 100bb35c     LIBCMTD:winapisupp.obj
 0002:0000d368       ??_C@_0M@JCPCPOEF@FlsSetValue?$AA@ 100bb368     LIBCMTD:winapisupp.obj
 0002:0000d374       ??_C@_0BM@HCFOFFN@InitializeCriticalSectionEx?$AA@ 100bb374     LIBCMTD:winapisupp.obj
 0002:0000d390       ??_C@_0BD@KIEEOEEH@CreateSemaphoreExW?$AA@ 100bb390     LIBCMTD:winapisupp.obj
 0002:0000d3a4       ??_C@_0BI@BKLFFAPO@SetThreadStackGuarantee?$AA@ 100bb3a4     LIBCMTD:winapisupp.obj
 0002:0000d3bc       ??_C@_0BG@OGFAJCKC@CreateThreadpoolTimer?$AA@ 100bb3bc     LIBCMTD:winapisupp.obj
 0002:0000d3d4       ??_C@_0BD@LPLEMMDI@SetThreadpoolTimer?$AA@ 100bb3d4     LIBCMTD:winapisupp.obj
 0002:0000d3e8       ??_C@_0CA@FMNJENH@WaitForThreadpoolTimerCallbacks?$AA@ 100bb3e8     LIBCMTD:winapisupp.obj
 0002:0000d408       ??_C@_0BF@DCFCCNOC@CloseThreadpoolTimer?$AA@ 100bb408     LIBCMTD:winapisupp.obj
 0002:0000d420       ??_C@_0BF@FLABGKKM@CreateThreadpoolWait?$AA@ 100bb420     LIBCMTD:winapisupp.obj
 0002:0000d438       ??_C@_0BC@MGCOHNA@SetThreadpoolWait?$AA@ 100bb438     LIBCMTD:winapisupp.obj
 0002:0000d44c       ??_C@_0BE@OCIOMIMP@CloseThreadpoolWait?$AA@ 100bb44c     LIBCMTD:winapisupp.obj
 0002:0000d460       ??_C@_0BJ@LKGHFHBO@FlushProcessWriteBuffers?$AA@ 100bb460     LIBCMTD:winapisupp.obj
 0002:0000d47c       ??_C@_0BP@KALKKPMO@FreeLibraryWhenCallbackReturns?$AA@ 100bb47c     LIBCMTD:winapisupp.obj
 0002:0000d49c       ??_C@_0BK@DFNBACLA@GetCurrentProcessorNumber?$AA@ 100bb49c     LIBCMTD:winapisupp.obj
 0002:0000d4b8       ??_C@_0BP@KHGALBC@GetLogicalProcessorInformation?$AA@ 100bb4b8     LIBCMTD:winapisupp.obj
 0002:0000d4d8       ??_C@_0BE@FKKLLFLM@CreateSymbolicLinkW?$AA@ 100bb4d8     LIBCMTD:winapisupp.obj
 0002:0000d4ec       ??_C@_0BJ@OHNKDLIJ@SetDefaultDllDirectories?$AA@ 100bb4ec     LIBCMTD:winapisupp.obj
 0002:0000d508       ??_C@_0BE@LJANKFHF@EnumSystemLocalesEx?$AA@ 100bb508     LIBCMTD:winapisupp.obj
 0002:0000d51c       ??_C@_0BA@IHGNDAEB@CompareStringEx?$AA@ 100bb51c     LIBCMTD:winapisupp.obj
 0002:0000d52c       ??_C@_0BA@EPCJIIPD@GetDateFormatEx?$AA@ 100bb52c     LIBCMTD:winapisupp.obj
 0002:0000d53c       ??_C@_0BA@ONOKGCMP@GetLocaleInfoEx?$AA@ 100bb53c     LIBCMTD:winapisupp.obj
 0002:0000d54c       ??_C@_0BA@CIJJKCJJ@GetTimeFormatEx?$AA@ 100bb54c     LIBCMTD:winapisupp.obj
 0002:0000d55c       ??_C@_0BJ@PBCCBIPI@GetUserDefaultLocaleName?$AA@ 100bb55c     LIBCMTD:winapisupp.obj
 0002:0000d578       ??_C@_0BC@CELBKLLA@IsValidLocaleName?$AA@ 100bb578     LIBCMTD:winapisupp.obj
 0002:0000d58c       ??_C@_0O@KKBNKAPF@LCMapStringEx?$AA@ 100bb58c     LIBCMTD:winapisupp.obj
 0002:0000d59c       ??_C@_0BE@JOGNEJCI@GetCurrentPackageId?$AA@ 100bb59c     LIBCMTD:winapisupp.obj
 0002:0000edd0       ??_C@_1CK@GFDNDKK@?$AA_?$AAR?$AAa?$AAn?$AAd?$AAo?$AAm?$AAV?$AAa?$AAl?$AAu?$AAe?$AA?5?$AA?$CB?$AA?$DN?$AA?5?$AAN?$AAU?$AAL?$AAL?$AA?$AA@ 100bcdd0     LIBCMTD:rand_s.obj
 0002:0000ee00       ??_C@_1GA@HBGBBKCD@?$AAf?$AA?3?$AA?2?$AAd?$AAd?$AA?2?$AAv?$AAc?$AAt?$AAo?$AAo?$AAl?$AAs?$AA?2?$AAc?$AAr?$AAt?$AA_?$AAb?$AAl?$AAd?$AA?2?$AAs?$AAe?$AAl?$AAf?$AA_?$AAx?$AA8?$AA6?$AA?2?$AAc@ 100bce00     LIBCMTD:rand_s.obj
 0002:0000ee60       ??_C@_1O@IJGPPOGF@?$AAr?$AAa?$AAn?$AAd?$AA_?$AAs?$AA?$AA@ 100bce60     LIBCMTD:rand_s.obj
 0002:0000ee70       ??_C@_1BK@GAEMIDIL@?$AAA?$AAD?$AAV?$AAA?$AAP?$AAI?$AA3?$AA2?$AA?4?$AAD?$AAL?$AAL?$AA?$AA@ 100bce70     LIBCMTD:rand_s.obj
 0002:0000ee90       ??_C@_1GA@EBEDGGGB@?$AA?$CI?$AA?$CC?$AAr?$AAa?$AAn?$AAd?$AA_?$AAs?$AA?5?$AAi?$AAs?$AA?5?$AAn?$AAo?$AAt?$AA?5?$AAa?$AAv?$AAa?$AAi?$AAl?$AAa?$AAb?$AAl?$AAe?$AA?5?$AAo?$AAn?$AA?5?$AAt?$AAh?$AAi@ 100bce90     LIBCMTD:rand_s.obj
 0002:0000eef0       ??_C@_0BC@JEAENNKH@SystemFunction036?$AA@ 100bcef0     LIBCMTD:rand_s.obj
 0002:0000ef04       ??_C@_0DA@ELJOOIJF@f?3?2dd?2vctools?2crt_bld?2self_x86?2c@ 100bcf04     LIBCMTD:winsig.obj
 0002:0000ef34       ??_C@_1DO@MLNEDKGB@?$AA?$CI?$AA?$CC?$AAI?$AAn?$AAv?$AAa?$AAl?$AAi?$AAd?$AA?5?$AAs?$AAi?$AAg?$AAn?$AAa?$AAl?$AA?5?$AAo?$AAr?$AA?5?$AAe?$AAr?$AAr?$AAo?$AAr?$AA?$CC?$AA?0?$AA?5?$AA0?$AA?$CJ?$AA?$AA@ 100bcf34     LIBCMTD:winsig.obj
 0002:0000ef78       ??_C@_1GA@DBECNFG@?$AAf?$AA?3?$AA?2?$AAd?$AAd?$AA?2?$AAv?$AAc?$AAt?$AAo?$AAo?$AAl?$AAs?$AA?2?$AAc?$AAr?$AAt?$AA_?$AAb?$AAl?$AAd?$AA?2?$AAs?$AAe?$AAl?$AAf?$AA_?$AAx?$AA8?$AA6?$AA?2?$AAc@ 100bcf78     LIBCMTD:winsig.obj
 0002:0000efd8       ??_C@_1O@EJLDHPPL@?$AAs?$AAi?$AAg?$AAn?$AAa?$AAl?$AA?$AA@ 100bcfd8     LIBCMTD:winsig.obj
 0002:0000efe8       ??_C@_1M@DMJEIKHL@?$AAr?$AAa?$AAi?$AAs?$AAe?$AA?$AA@ 100bcfe8     LIBCMTD:winsig.obj
 0002:0000f004       ??_C@_1M@HPNHIDJI@?$AAj?$AAa?$AA?9?$AAJ?$AAP?$AA?$AA@ 100bd004     LIBCMTD:mbctype.obj
 0002:0000f010       ??_C@_1M@BIBDDEMK@?$AAz?$AAh?$AA?9?$AAC?$AAN?$AA?$AA@ 100bd010     LIBCMTD:mbctype.obj
 0002:0000f01c       ??_C@_1M@JLOOOEGK@?$AAk?$AAo?$AA?9?$AAK?$AAR?$AA?$AA@ 100bd01c     LIBCMTD:mbctype.obj
 0002:0000f028       ??_C@_1M@CLNBBOPM@?$AAz?$AAh?$AA?9?$AAT?$AAW?$AA?$AA@ 100bd028     LIBCMTD:mbctype.obj
 0002:0000f034       ??_C@_0DB@MHMEONEC@f?3?2dd?2vctools?2crt_bld?2self_x86?2c@ 100bd034     LIBCMTD:mbctype.obj
 0002:0000f068       ??_C@_1BI@KANOLAMF@?$AA_?$AAo?$AAu?$AAt?$AAp?$AAu?$AAt?$AA_?$AAp?$AA_?$AAl?$AA?$AA@ 100bd068     LIBCMTD:outputp.obj
 0002:0000f080       ??_C@_1JC@PFJNKEIO@?$AA?$CI?$AA?$CI?$AAt?$AAy?$AAp?$AAe?$AA_?$AAp?$AAo?$AAs?$AA?5?$AA?$DO?$AA?$DN?$AA?5?$AA0?$AA?$CJ?$AA?5?$AA?$CG?$AA?$CG?$AA?5?$AA?$CI?$AA?$CK?$AAe?$AAn?$AAd?$AA_?$AAp?$AAo?$AAs?$AA?5?$AA?$DN?$AA?$DN@ 100bd080     LIBCMTD:outputp.obj
 0002:0000f118       ??_C@_1EE@DMAIGNBG@?$AA?$CI?$AA?$CC?$AAI?$AAn?$AAc?$AAo?$AAr?$AAr?$AAe?$AAc?$AAt?$AA?5?$AAf?$AAo?$AAr?$AAm?$AAa?$AAt?$AA?5?$AAs?$AAp?$AAe?$AAc?$AAi?$AAf?$AAi?$AAe?$AAr?$AA?$CC?$AA?0?$AA?5?$AA0@ 100bd118     LIBCMTD:outputp.obj
 0002:0000f160       ??_C@_1JE@NMBHOLFI@?$AA?$CI?$AA?$CI?$AAw?$AAi?$AAd?$AAt?$AAh?$AA_?$AAp?$AAo?$AAs?$AA?5?$AA?$DO?$AA?$DN?$AA?5?$AA0?$AA?$CJ?$AA?5?$AA?$CG?$AA?$CG?$AA?5?$AA?$CI?$AA?$CK?$AAe?$AAn?$AAd?$AA_?$AAp?$AAo?$AAs?$AA?5?$AA?$DN@ 100bd160     LIBCMTD:outputp.obj
 0002:0000f1f8       ??_C@_1II@PIPIMLPF@?$AA_?$AAt?$AAv?$AAa?$AAl?$AAi?$AAd?$AAa?$AAt?$AAe?$AA_?$AAp?$AAa?$AAr?$AAa?$AAm?$AA_?$AAr?$AAe?$AAu?$AAs?$AAe?$AA?$CI?$AA?$CG?$AAp?$AAo?$AAs?$AA_?$AAv?$AAa?$AAl?$AAu@ 100bd1f8     LIBCMTD:outputp.obj
 0002:0000f280       ??_C@_1JG@JBJBOCFB@?$AA?$CI?$AA?$CI?$AAp?$AAr?$AAe?$AAc?$AAi?$AAs?$AA_?$AAp?$AAo?$AAs?$AA?5?$AA?$DO?$AA?$DN?$AA?5?$AA0?$AA?$CJ?$AA?5?$AA?$CG?$AA?$CG?$AA?5?$AA?$CI?$AA?$CK?$AAe?$AAn?$AAd?$AA_?$AAp?$AAo?$AAs?$AA?5@ 100bd280     LIBCMTD:outputp.obj
 0002:0000f318       ??_C@_1IK@EIEPDKHJ@?$AA_?$AAt?$AAv?$AAa?$AAl?$AAi?$AAd?$AAa?$AAt?$AAe?$AA_?$AAp?$AAa?$AAr?$AAa?$AAm?$AA_?$AAr?$AAe?$AAu?$AAs?$AAe?$AA?$CI?$AA?$CG?$AAp?$AAo?$AAs?$AA_?$AAv?$AAa?$AAl?$AAu@ 100bd318     LIBCMTD:outputp.obj
 0002:0000f3a8       ??_C@_1EM@BNPHBBIA@?$AA?$CI?$AA?$CI?$AAt?$AAy?$AAp?$AAe?$AA_?$AAp?$AAo?$AAs?$AA?$DO?$AA?$DN?$AA0?$AA?$CJ?$AA?5?$AA?$CG?$AA?$CG?$AA?5?$AA?$CI?$AAt?$AAy?$AAp?$AAe?$AA_?$AAp?$AAo?$AAs?$AA?$DM?$AA_?$AAA?$AAR?$AAG@ 100bd3a8     LIBCMTD:outputp.obj
 0002:0000f3f8       ??_C@_1IK@MHEDJAMK@?$AA_?$AAt?$AAv?$AAa?$AAl?$AAi?$AAd?$AAa?$AAt?$AAe?$AA_?$AAp?$AAa?$AAr?$AAa?$AAm?$AA_?$AAr?$AAe?$AAu?$AAs?$AAe?$AA?$CI?$AA?$CG?$AAp?$AAo?$AAs?$AA_?$AAv?$AAa?$AAl?$AAu@ 100bd3f8     LIBCMTD:outputp.obj
 0002:0000f488       ??_C@_1IG@FDCPLALG@?$AA_?$AAt?$AAv?$AAa?$AAl?$AAi?$AAd?$AAa?$AAt?$AAe?$AA_?$AAp?$AAa?$AAr?$AAa?$AAm?$AA_?$AAr?$AAe?$AAu?$AAs?$AAe?$AA?$CI?$AA?$CG?$AAp?$AAo?$AAs?$AA_?$AAv?$AAa?$AAl?$AAu@ 100bd488     LIBCMTD:outputp.obj
 0002:0000f510       ??_C@_1IG@HJIMKDHC@?$AA_?$AAt?$AAv?$AAa?$AAl?$AAi?$AAd?$AAa?$AAt?$AAe?$AA_?$AAp?$AAa?$AAr?$AAa?$AAm?$AA_?$AAr?$AAe?$AAu?$AAs?$AAe?$AA?$CI?$AA?$CG?$AAp?$AAo?$AAs?$AA_?$AAv?$AAa?$AAl?$AAu@ 100bd510     LIBCMTD:outputp.obj
 0002:0000f598       ??_C@_1IM@DNGHAPLB@?$AA_?$AAt?$AAv?$AAa?$AAl?$AAi?$AAd?$AAa?$AAt?$AAe?$AA_?$AAp?$AAa?$AAr?$AAa?$AAm?$AA_?$AAr?$AAe?$AAu?$AAs?$AAe?$AA?$CI?$AA?$CG?$AAp?$AAo?$AAs?$AA_?$AAv?$AAa?$AAl?$AAu@ 100bd598     LIBCMTD:outputp.obj
 0002:0000f624       ??_C@_1DG@GOHGNKHE@?$AAp?$AAa?$AAs?$AAs?$AA?5?$AA?$DN?$AA?$DN?$AA?5?$AAF?$AAO?$AAR?$AAM?$AAA?$AAT?$AA_?$AAO?$AAU?$AAT?$AAP?$AAU?$AAT?$AA_?$AAP?$AAA?$AAS?$AAS?$AA?$AA@ 100bd624     LIBCMTD:outputp.obj
 0002:0000f660       ??_C@_1IK@NBGDDCBN@?$AA_?$AAt?$AAv?$AAa?$AAl?$AAi?$AAd?$AAa?$AAt?$AAe?$AA_?$AAp?$AAa?$AAr?$AAa?$AAm?$AA_?$AAr?$AAe?$AAu?$AAs?$AAe?$AA?$CI?$AA?$CG?$AAp?$AAo?$AAs?$AA_?$AAv?$AAa?$AAl?$AAu@ 100bd660     LIBCMTD:outputp.obj
 0002:0000f6f0       ??_C@_1JC@OACKELNN@?$AA_?$AAt?$AAv?$AAa?$AAl?$AAi?$AAd?$AAa?$AAt?$AAe?$AA_?$AAp?$AAa?$AAr?$AAa?$AAm?$AA_?$AAr?$AAe?$AAu?$AAs?$AAe?$AA?$CI?$AA?$CG?$AAp?$AAo?$AAs?$AA_?$AAv?$AAa?$AAl?$AAu@ 100bd6f0     LIBCMTD:outputp.obj
 0002:0000f788       ??_C@_1FK@LNCFKALM@?$AA?$CI?$AA?$CI?$AAs?$AAt?$AAa?$AAt?$AAe?$AA?5?$AA?$DN?$AA?$DN?$AA?5?$AAS?$AAT?$AA_?$AAN?$AAO?$AAR?$AAM?$AAA?$AAL?$AA?$CJ?$AA?5?$AA?$HM?$AA?$HM?$AA?5?$AA?$CI?$AAs?$AAt?$AAa?$AAt?$AAe?$AA?5@ 100bd788     LIBCMTD:outputp.obj
 0002:0000f7e8       ??_C@_1FK@BCPANIEK@?$AA?$CI?$AA?$CC?$AAM?$AAi?$AAs?$AAs?$AAi?$AAn?$AAg?$AA?5?$AAp?$AAo?$AAs?$AAi?$AAt?$AAi?$AAo?$AAn?$AA?5?$AAi?$AAn?$AA?5?$AAt?$AAh?$AAe?$AA?5?$AAf?$AAo?$AAr?$AAm?$AAa?$AAt@ 100bd7e8     LIBCMTD:outputp.obj
 0002:0000f844       ?LocalIdBitWidth@CrossScopeId@CodeViewInfo@@2IB 100bd844     LIBCMTD:pdblkup.obj
 0002:0000f848       ?IdScopeBitWidth@CrossScopeId@CodeViewInfo@@2IB 100bd848     LIBCMTD:pdblkup.obj
 0002:0000f84c       ?StartCrossScopeId@CrossScopeId@CodeViewInfo@@2IB 100bd84c     LIBCMTD:pdblkup.obj
 0002:0000f850       ?LocalIdMask@CrossScopeId@CodeViewInfo@@2IB 100bd850     LIBCMTD:pdblkup.obj
 0002:0000f854       ?ScopeIdMask@CrossScopeId@CodeViewInfo@@2IB 100bd854     LIBCMTD:pdblkup.obj
 0002:0000f858       ?MaxLocalId@CrossScopeId@CodeViewInfo@@2IB 100bd858     LIBCMTD:pdblkup.obj
 0002:0000f85c       ?MaxScopeId@CrossScopeId@CodeViewInfo@@2IB 100bd85c     LIBCMTD:pdblkup.obj
 0002:0000f898       ??_C@_0O@COHOBMLB@RegOpenKeyExW?$AA@ 100bd898     LIBCMTD:pdblkup.obj
 0002:0000f8a8       ??_C@_0BB@GLNAEDBD@RegQueryValueExW?$AA@ 100bd8a8     LIBCMTD:pdblkup.obj
 0002:0000f8bc       ??_C@_0M@HLOHPNFA@RegCloseKey?$AA@ 100bd8bc     LIBCMTD:pdblkup.obj
 0002:0000f8c8       ??_C@_1FM@OEMPKHJI@?$AAS?$AAO?$AAF?$AAT?$AAW?$AAA?$AAR?$AAE?$AA?2?$AAM?$AAi?$AAc?$AAr?$AAo?$AAs?$AAo?$AAf?$AAt?$AA?2?$AAV?$AAi?$AAs?$AAu?$AAa?$AAl?$AAS?$AAt?$AAu?$AAd?$AAi?$AAo?$AA?2@ 100bd8c8     LIBCMTD:pdblkup.obj
 0002:0000f924       ??_C@_1CK@HHHCOJPD@?$AAE?$AAn?$AAv?$AAi?$AAr?$AAo?$AAn?$AAm?$AAe?$AAn?$AAt?$AAD?$AAi?$AAr?$AAe?$AAc?$AAt?$AAo?$AAr?$AAy?$AA?$AA@ 100bd924     LIBCMTD:pdblkup.obj
 0002:0000f96c       ??_C@_1BC@MIBIBMGK@?$AAM?$AAS?$AAP?$AAD?$AAB?$AA1?$AA1?$AA0?$AA?$AA@ 100bd96c     LIBCMTD:pdblkup.obj
 0002:0000f980       ??_C@_0BB@KCIACLNC@PDBOpenValidate5?$AA@ 100bd980     LIBCMTD:pdblkup.obj
 0002:0000f994       ??_C@_01KDCPPGHE@r?$AA@    100bd994     LIBCMTD:pdblkup.obj
 0002:0000f9a4       ??_C@_03KHICJKCI@?4?4?4?$AA@ 100bd9a4     LIBCMTD:dbgrpt.obj
 0002:0000f9a8       ??_C@_1CG@GNMJDMIO@?$AA_?$AAC?$AAr?$AAt?$AAS?$AAe?$AAt?$AAR?$AAe?$AAp?$AAo?$AAr?$AAt?$AAH?$AAo?$AAo?$AAk?$AA2?$AA?$AA@ 100bd9a8     LIBCMTD:dbgrpt.obj
 0002:0000f9d0       ??_C@_1CI@IDOKFLAJ@?$AA_?$AA_?$AAc?$AAr?$AAt?$AAM?$AAe?$AAs?$AAs?$AAa?$AAg?$AAe?$AAW?$AAi?$AAn?$AAd?$AAo?$AAw?$AAA?$AA?$AA@ 100bd9d0     LIBCMTD:dbgrpt.obj
 0002:0000f9f8       ??_C@_1GG@DLDHOIGE@?$AAs?$AAt?$AAr?$AAc?$AAp?$AAy?$AA_?$AAs?$AA?$CI?$AAs?$AAz?$AAE?$AAx?$AAe?$AAN?$AAa?$AAm?$AAe?$AA?0?$AA?5?$AA2?$AA6?$AA0?$AA?0?$AA?5?$AA?$CC?$AA?$DM?$AAp?$AAr?$AAo?$AAg?$AAr@ 100bd9f8     LIBCMTD:dbgrpt.obj
 0002:0000fa60       ??_C@_0BH@DNAGHKFM@?$DMprogram?5name?5unknown?$DO?$AA@ 100bda60     LIBCMTD:dbgrpt.obj
 0002:0000fa78       ??_C@_1LG@BEHAHJLI@?$AAD?$AAe?$AAb?$AAu?$AAg?$AA?5?$AA?$CF?$AAs?$AA?$CB?$AA?6?$AA?6?$AAP?$AAr?$AAo?$AAg?$AAr?$AAa?$AAm?$AA?3?$AA?5?$AA?$CF?$AAh?$AAs?$AA?$CF?$AAs?$AA?$CF?$AAs?$AA?$CF?$AAh?$AAs?$AA?$CF?$AAs@ 100bda78     LIBCMTD:dbgrpt.obj
 0002:0000fb30       ??_C@_1FC@NCPEPIBI@?$AA?$CI?$AA?$CI?$AA_?$AAD?$AAs?$AAt?$AA?$CJ?$AA?$CJ?$AA?5?$AA?$CB?$AA?$DN?$AA?5?$AAN?$AAU?$AAL?$AAL?$AA?5?$AA?$CG?$AA?$CG?$AA?5?$AA?$CI?$AA?$CI?$AA_?$AAS?$AAi?$AAz?$AAe?$AAI?$AAn?$AAB?$AAy?$AAt@ 100bdb30     LIBCMTD:strcpy_s.obj
 0002:0000fb88       ??_C@_1GI@BGBNCIMA@?$AAf?$AA?3?$AA?2?$AAd?$AAd?$AA?2?$AAv?$AAc?$AAt?$AAo?$AAo?$AAl?$AAs?$AA?2?$AAc?$AAr?$AAt?$AA_?$AAb?$AAl?$AAd?$AA?2?$AAs?$AAe?$AAl?$AAf?$AA_?$AAx?$AA8?$AA6?$AA?2?$AAc@ 100bdb88     LIBCMTD:strcpy_s.obj
 0002:0000fbf0       ??_C@_1BC@CFJEPFGF@?$AAs?$AAt?$AAr?$AAc?$AAp?$AAy?$AA_?$AAs?$AA?$AA@ 100bdbf0     LIBCMTD:strcpy_s.obj
 0002:0000fc04       ??_C@_1CG@OFBJMIGJ@?$AA?$CI?$AA?$CI?$AA?$CI?$AA_?$AAS?$AAr?$AAc?$AA?$CJ?$AA?$CJ?$AA?$CJ?$AA?5?$AA?$CB?$AA?$DN?$AA?5?$AAN?$AAU?$AAL?$AAL?$AA?$AA@ 100bdc04     LIBCMTD:strcpy_s.obj
 0002:0000fc2c       ??_C@_1CI@HCPHDDLE@?$AAB?$AAu?$AAf?$AAf?$AAe?$AAr?$AA?5?$AAi?$AAs?$AA?5?$AAt?$AAo?$AAo?$AA?5?$AAs?$AAm?$AAa?$AAl?$AAl?$AA?$AA@ 100bdc2c     LIBCMTD:strcpy_s.obj
 0002:0000fc54       ??_C@_1DM@MADKGDLO@?$AA?$CI?$AAL?$AA?$CC?$AAB?$AAu?$AAf?$AAf?$AAe?$AAr?$AA?5?$AAi?$AAs?$AA?5?$AAt?$AAo?$AAo?$AA?5?$AAs?$AAm?$AAa?$AAl?$AAl?$AA?$CC?$AA?5?$AA?$CG?$AA?$CG?$AA?5?$AA0?$AA?$CJ?$AA?$AA@ 100bdc54     LIBCMTD:strcpy_s.obj
 0002:0000fe18       ??_C@_08EHJDFFNH@__based?$CI?$AA@ 100bde18     LIBCMTD:undname.obj
 0002:0000fe24       ??_C@_07KOLFKCDI@__cdecl?$AA@ 100bde24     LIBCMTD:undname.obj
 0002:0000fe2c       ??_C@_08GHMPAG@__pascal?$AA@ 100bde2c     LIBCMTD:undname.obj
 0002:0000fe38       ??_C@_09IFJBGAPI@__stdcall?$AA@ 100bde38     LIBCMTD:undname.obj
 0002:0000fe44       ??_C@_0L@NPHFGOKO@__thiscall?$AA@ 100bde44     LIBCMTD:undname.obj
 0002:0000fe50       ??_C@_0L@JMKHOMEK@__fastcall?$AA@ 100bde50     LIBCMTD:undname.obj
 0002:0000fe5c       ??_C@_09HIJEGCPM@__clrcall?$AA@ 100bde5c     LIBCMTD:undname.obj
 0002:0000fe68       ??_C@_06GHPCKEAG@__eabi?$AA@ 100bde68     LIBCMTD:undname.obj
 0002:0000fe70       ??_C@_07JOMMBBKO@__ptr64?$AA@ 100bde70     LIBCMTD:undname.obj
 0002:0000fe78       ??_C@_0L@PILCLIHE@__restrict?$AA@ 100bde78     LIBCMTD:undname.obj
 0002:0000fe84       ??_C@_0M@GFIIJFMG@__unaligned?$AA@ 100bde84     LIBCMTD:undname.obj
 0002:0000fe90       ??_C@_09DHDLOLLB@restrict?$CI?$AA@ 100bde90     LIBCMTD:undname.obj
 0002:0000fe9c       ??_C@_04NIHEBCM@?5new?$AA@ 100bde9c     LIBCMTD:undname.obj
 0002:0000fea4       ??_C@_07FPCDHGMM@?5delete?$AA@ 100bdea4     LIBCMTD:undname.obj
 0002:0000feac       ??_C@_01NEMOKFLO@?$DN?$AA@ 100bdeac     LIBCMTD:undname.obj
 0002:0000feb0       ??_C@_02GPIOPFAK@?$DO?$DO?$AA@ 100bdeb0     LIBCMTD:undname.obj
 0002:0000feb4       ??_C@_02FODMEDOG@?$DM?$DM?$AA@ 100bdeb4     LIBCMTD:undname.obj
 0002:0000feb8       ??_C@_01DCLJPIOD@?$CB?$AA@ 100bdeb8     LIBCMTD:undname.obj
 0002:0000febc       ??_C@_02EGOFBIJA@?$DN?$DN?$AA@ 100bdebc     LIBCMTD:undname.obj
 0002:0000fec0       ??_C@_02FDNJECIE@?$CB?$DN?$AA@ 100bdec0     LIBCMTD:undname.obj
 0002:0000fec4       ??_C@_02GPECMEKF@?$FL?$FN?$AA@ 100bdec4     LIBCMTD:undname.obj
 0002:0000fec8       ??_C@_08LHJFAFGD@operator?$AA@ 100bdec8     LIBCMTD:undname.obj
 0002:0000fed4       ??_C@_02HBOOOICD@?9?$DO?$AA@ 100bded4     LIBCMTD:undname.obj
 0002:0000fed8       ??_C@_01NBENCBCI@?$CK?$AA@ 100bded8     LIBCMTD:undname.obj
 0002:0000fedc       ??_C@_02ECNGHCIF@?$CL?$CL?$AA@ 100bdedc     LIBCMTD:undname.obj
 0002:0000fee0       ??_C@_02BAABKJLB@?9?9?$AA@ 100bdee0     LIBCMTD:undname.obj
 0002:0000fee4       ??_C@_01JOAMLHOP@?9?$AA@   100bdee4     LIBCMTD:undname.obj
 0002:0000fee8       ??_C@_01MIFGBAGJ@?$CL?$AA@ 100bdee8     LIBCMTD:undname.obj
 0002:0000feec       ??_C@_01HNPIGOCE@?$CG?$AA@ 100bdeec     LIBCMTD:undname.obj
 0002:0000fef0       ??_C@_03MNHNFDLC@?9?$DO?$CK?$AA@ 100bdef0     LIBCMTD:undname.obj
 0002:0000fef4       ??_C@_01KMDKNFGN@?1?$AA@   100bdef4     LIBCMTD:undname.obj
 0002:0000fef8       ??_C@_01FGNFDNOH@?$CF?$AA@ 100bdef8     LIBCMTD:undname.obj
 0002:0000fefc       ??_C@_01MNNFJEPP@?$DM?$AA@ 100bdefc     LIBCMTD:undname.obj
 0002:0000ff00       ??_C@_02EHCHHCKH@?$DM?$DN?$AA@ 100bdf00     LIBCMTD:undname.obj
 0002:0000ff04       ??_C@_01PPODPGHN@?$DO?$AA@ 100bdf04     LIBCMTD:undname.obj
 0002:0000ff08       ??_C@_02EEKDKGMJ@?$DO?$DN?$AA@ 100bdf08     LIBCMTD:undname.obj
 0002:0000ff0c       ??_C@_01IHBHIGKO@?0?$AA@   100bdf0c     LIBCMTD:undname.obj
 0002:0000ff10       ??_C@_02HCKGKOFO@?$CI?$CJ?$AA@ 100bdf10     LIBCMTD:undname.obj
 0002:0000ff14       ??_C@_01PJKLJHI@?$HO?$AA@  100bdf14     LIBCMTD:undname.obj
 0002:0000ff18       ??_C@_01JKBOJNNK@?$FO?$AA@ 100bdf18     LIBCMTD:undname.obj
 0002:0000ff1c       ??_C@_01DNKMNLPK@?$HM?$AA@ 100bdf1c     LIBCMTD:undname.obj
 0002:0000ff20       ??_C@_02PPKAJPJL@?$CG?$CG?$AA@ 100bdf20     LIBCMTD:undname.obj
 0002:0000ff24       ??_C@_02NONPIBCD@?$HM?$HM?$AA@ 100bdf24     LIBCMTD:undname.obj
 0002:0000ff28       ??_C@_02FPIMKNGF@?$CK?$DN?$AA@ 100bdf28     LIBCMTD:undname.obj
 0002:0000ff2c       ??_C@_02FOEOMHFC@?$CL?$DN?$AA@ 100bdf2c     LIBCMTD:undname.obj
 0002:0000ff30       ??_C@_02FKMDLLOA@?9?$DN?$AA@ 100bdf30     LIBCMTD:undname.obj
 0002:0000ff34       ??_C@_02FJEHGPIO@?1?$DN?$AA@ 100bdf34     LIBCMTD:undname.obj
 0002:0000ff38       ??_C@_02FENAOKFI@?$CF?$DN?$AA@ 100bdf38     LIBCMTD:undname.obj
 0002:0000ff3c       ??_C@_03IKFCCPFF@?$DO?$DO?$DN?$AA@ 100bdf3c     LIBCMTD:undname.obj
 0002:0000ff40       ??_C@_03CDNPDDLA@?$DM?$DM?$DN?$AA@ 100bdf40     LIBCMTD:undname.obj
 0002:0000ff44       ??_C@_02FGJGFEAB@?$CG?$DN?$AA@ 100bdf44     LIBCMTD:undname.obj
 0002:0000ff48       ??_C@_02DHLNPPGH@?$HM?$DN?$AA@ 100bdf48     LIBCMTD:undname.obj
 0002:0000ff4c       ??_C@_02MHEGNOJ@?$FO?$DN?$AA@ 100bdf4c     LIBCMTD:undname.obj
 0002:0000ff50       ??_C@_09IFPLHPGF@?$GAvftable?8?$AA@ 100bdf50     LIBCMTD:undname.obj
 0002:0000ff5c       ??_C@_09BLBHBJP@?$GAvbtable?8?$AA@ 100bdf5c     LIBCMTD:undname.obj
 0002:0000ff68       ??_C@_07FEEIOKP@?$GAvcall?8?$AA@ 100bdf68     LIBCMTD:undname.obj
 0002:0000ff70       ??_C@_08LLFFHHDJ@?$GAtypeof?8?$AA@ 100bdf70     LIBCMTD:undname.obj
 0002:0000ff7c       ??_C@_0BF@KDPPACIK@?$GAlocal?5static?5guard?8?$AA@ 100bdf7c     LIBCMTD:undname.obj
 0002:0000ff94       ??_C@_08OBABFOLI@?$GAstring?8?$AA@ 100bdf94     LIBCMTD:undname.obj
 0002:0000ffa0       ??_C@_0BD@JDLKDPAB@?$GAvbase?5destructor?8?$AA@ 100bdfa0     LIBCMTD:undname.obj
 0002:0000ffb4       ??_C@_0BN@DEGPLNFK@?$GAvector?5deleting?5destructor?8?$AA@ 100bdfb4     LIBCMTD:undname.obj
 0002:0000ffd4       ??_C@_0BO@OBMKPJIG@?$GAdefault?5constructor?5closure?8?$AA@ 100bdfd4     LIBCMTD:undname.obj
 0002:0000fff4       ??_C@_0BN@IMDCHIKM@?$GAscalar?5deleting?5destructor?8?$AA@ 100bdff4     LIBCMTD:undname.obj
 0002:00010014       ??_C@_0BO@PFGOCPJJ@?$GAvector?5constructor?5iterator?8?$AA@ 100be014     LIBCMTD:undname.obj
 0002:00010034       ??_C@_0BN@LFPFMEDL@?$GAvector?5destructor?5iterator?8?$AA@ 100be034     LIBCMTD:undname.obj
 0002:00010054       ??_C@_0CE@IKBNEHA@?$GAvector?5vbase?5constructor?5iterat@ 100be054     LIBCMTD:undname.obj
 0002:00010078       ??_C@_0BL@NILFHHPC@?$GAvirtual?5displacement?5map?8?$AA@ 100be078     LIBCMTD:undname.obj
 0002:00010094       ??_C@_0CB@JONCMFFK@?$GAeh?5vector?5constructor?5iterator?8@ 100be094     LIBCMTD:undname.obj
 0002:000100b8       ??_C@_0CA@GCEOPDGL@?$GAeh?5vector?5destructor?5iterator?8?$AA@ 100be0b8     LIBCMTD:undname.obj
 0002:000100d8       ??_C@_0CH@OOJPLCPH@?$GAeh?5vector?5vbase?5constructor?5ite@ 100be0d8     LIBCMTD:undname.obj
 0002:00010100       ??_C@_0BL@LLKPOHJI@?$GAcopy?5constructor?5closure?8?$AA@ 100be100     LIBCMTD:undname.obj
 0002:0001011c       ??_C@_0BA@KBCDOMBN@?$GAudt?5returning?8?$AA@ 100be11c     LIBCMTD:undname.obj
 0002:0001012c       ??_C@_03KLGMFNMG@?$GAEH?$AA@ 100be12c     LIBCMTD:undname.obj
 0002:00010130       ??_C@_05KHLCHHI@?$GARTTI?$AA@ 100be130     LIBCMTD:undname.obj
 0002:00010138       ??_C@_0BA@KKLDJDLB@?$GAlocal?5vftable?8?$AA@ 100be138     LIBCMTD:undname.obj
 0002:00010148       ??_C@_0CE@IIHCMGGL@?$GAlocal?5vftable?5constructor?5closu@ 100be148     LIBCMTD:undname.obj
 0002:0001016c       ??_C@_06FHBGPFGH@?5new?$FL?$FN?$AA@ 100be16c     LIBCMTD:undname.obj
 0002:00010174       ??_C@_09LBNFPBCA@?5delete?$FL?$FN?$AA@ 100be174     LIBCMTD:undname.obj
 0002:00010180       ??_C@_0P@HJKNJFNN@?$GAomni?5callsig?8?$AA@ 100be180     LIBCMTD:undname.obj
 0002:00010190       ??_C@_0BL@CNOONJFP@?$GAplacement?5delete?5closure?8?$AA@ 100be190     LIBCMTD:undname.obj
 0002:000101ac       ??_C@_0BN@CKNJLHMB@?$GAplacement?5delete?$FL?$FN?5closure?8?$AA@ 100be1ac     LIBCMTD:undname.obj
 0002:000101cc       ??_C@_0CG@CFDHKGGD@?$GAmanaged?5vector?5constructor?5iter@ 100be1cc     LIBCMTD:undname.obj
 0002:000101f4       ??_C@_0CF@IMGKMJNO@?$GAmanaged?5vector?5destructor?5itera@ 100be1f4     LIBCMTD:undname.obj
 0002:0001021c       ??_C@_0CG@HLDDJMAG@?$GAeh?5vector?5copy?5constructor?5iter@ 100be21c     LIBCMTD:undname.obj
 0002:00010244       ??_C@_0CM@FCBBDIGB@?$GAeh?5vector?5vbase?5copy?5constructo@ 100be244     LIBCMTD:undname.obj
 0002:00010270       ??_C@_0BL@CLIPGLGB@?$GAdynamic?5initializer?5for?5?8?$AA@ 100be270     LIBCMTD:undname.obj
 0002:0001028c       ??_C@_0CB@PDBIFEP@?$GAdynamic?5atexit?5destructor?5for?5?8@ 100be28c     LIBCMTD:undname.obj
 0002:000102b0       ??_C@_0CD@CGAJBKEJ@?$GAvector?5copy?5constructor?5iterato@ 100be2b0     LIBCMTD:undname.obj
 0002:000102d4       ??_C@_0CJ@GJELGAMM@?$GAvector?5vbase?5copy?5constructor?5i@ 100be2d4     LIBCMTD:undname.obj
 0002:00010300       ??_C@_0CL@FGIJHLCE@?$GAmanaged?5vector?5copy?5constructor@ 100be300     LIBCMTD:undname.obj
 0002:0001032c       ??_C@_0BM@PMGGMLDN@?$GAlocal?5static?5thread?5guard?8?$AA@ 100be32c     LIBCMTD:undname.obj
 0002:00010348       ??_C@_0BC@DAFEJGAK@?5Type?5Descriptor?8?$AA@ 100be348     LIBCMTD:undname.obj
 0002:0001035c       ??_C@_0BM@LDKODKLH@?5Base?5Class?5Descriptor?5at?5?$CI?$AA@ 100be35c     LIBCMTD:undname.obj
 0002:00010378       ??_C@_0BD@LGICGFMM@?5Base?5Class?5Array?8?$AA@ 100be378     LIBCMTD:undname.obj
 0002:0001038c       ??_C@_0BN@MECKDCOJ@?5Class?5Hierarchy?5Descriptor?8?$AA@ 100be38c     LIBCMTD:undname.obj
 0002:000103ac       ??_C@_0BK@CFCOFLF@?5Complete?5Object?5Locator?8?$AA@ 100be3ac     LIBCMTD:undname.obj
 0002:000103c8       ??_C@_04HEJADOOB@CV?3?5?$AA@ 100be3c8     LIBCMTD:undname.obj
 0002:000103d0       ??_C@_02MOLJINC@?3?3?$AA@  100be3d0     LIBCMTD:undname.obj
 0002:000103d4       ??_C@_0BE@JAEOCHPE@template?9parameter?9?$AA@ 100be3d4     LIBCMTD:undname.obj
 0002:000103e8       ??_C@_0O@KHGCOMHP@generic?9type?9?$AA@ 100be3e8     LIBCMTD:undname.obj
 0002:000103f8       ??_C@_01NLNLIGKH@?$GA?$AA@ 100be3f8     LIBCMTD:undname.obj
 0002:000103fc       ??_C@_01GEODFPGF@?8?$AA@   100be3fc     LIBCMTD:undname.obj
 0002:00010400       ??_C@_0BG@JNJLAMPM@?$GAanonymous?5namespace?8?$AA@ 100be400     LIBCMTD:undname.obj
 0002:00010418       ??_C@_02OHHJMEON@?8?8?$AA@ 100be418     LIBCMTD:undname.obj
 0002:0001041c       ??_C@_0BN@IBLMMFAP@?$GAnon?9type?9template?9parameter?$AA@ 100be41c     LIBCMTD:undname.obj
 0002:0001043c       ??_C@_04GKJNKENE@void?$AA@ 100be43c     LIBCMTD:undname.obj
 0002:00010444       ??_C@_0BE@EODMJLIF@?$GAtemplate?9parameter?$AA@ 100be444     LIBCMTD:undname.obj
 0002:00010458       ??_C@_04HIBGFPH@NULL?$AA@  100be458     LIBCMTD:undname.obj
 0002:00010460       ??_C@_03OPGICMGF@?$HN?8?5?$AA@ 100be460     LIBCMTD:undname.obj
 0002:00010464       ??_C@_02IGFCGPIL@?$HN?8?$AA@ 100be464     LIBCMTD:undname.obj
 0002:00010468       ??_C@_01CLKCMJKC@?5?$AA@   100be468     LIBCMTD:undname.obj
 0002:0001046c       ??_C@_0N@CBHHHENL@?$GAvtordispex?$HL?$AA@ 100be46c     LIBCMTD:undname.obj
 0002:0001047c       ??_C@_0L@GHPFDFH@?$GAvtordisp?$HL?$AA@ 100be47c     LIBCMTD:undname.obj
 0002:00010488       ??_C@_0L@HNGCOGAE@?$GAadjustor?$HL?$AA@ 100be488     LIBCMTD:undname.obj
 0002:00010494       ??_C@_0CB@KJDOOODE@?$GAlocal?5static?5destructor?5helper?8@ 100be494     LIBCMTD:undname.obj
 0002:000104b8       ??_C@_0DB@ILEFOCIJ@?$GAtemplate?5static?5data?5member?5con@ 100be4b8     LIBCMTD:undname.obj
 0002:000104ec       ??_C@_0DA@HGFJFBBE@?$GAtemplate?5static?5data?5member?5des@ 100be4ec     LIBCMTD:undname.obj
 0002:0001051c       ??_C@_07PGOEDBHP@static?5?$AA@ 100be51c     LIBCMTD:undname.obj
 0002:00010524       ??_C@_08NIEOINHE@virtual?5?$AA@ 100be524     LIBCMTD:undname.obj
 0002:00010530       ??_C@_09LAPHOOG@private?3?5?$AA@ 100be530     LIBCMTD:undname.obj
 0002:0001053c       ??_C@_0M@GAIFPFIP@protected?3?5?$AA@ 100be53c     LIBCMTD:undname.obj
 0002:00010548       ??_C@_08GPDDCMKI@public?3?5?$AA@ 100be548     LIBCMTD:undname.obj
 0002:00010554       ??_C@_08KJLFOPNE@?$FLthunk?$FN?3?$AA@ 100be554     LIBCMTD:undname.obj
 0002:00010560       ??_C@_0M@DHNBOJMP@extern?5?$CCC?$CC?5?$AA@ 100be560     LIBCMTD:undname.obj
 0002:0001056c       ??_C@_02KCKGHPCA@?$CJ?5?$AA@ 100be56c     LIBCMTD:undname.obj
 0002:00010570       ??_C@_05CIHEBHNO@char?5?$AA@ 100be570     LIBCMTD:undname.obj
 0002:00010578       ??_C@_06EHJMALKF@short?5?$AA@ 100be578     LIBCMTD:undname.obj
 0002:00010580       ??_C@_04LAHKHJMA@int?5?$AA@ 100be580     LIBCMTD:undname.obj
 0002:00010588       ??_C@_05CJIMAING@long?5?$AA@ 100be588     LIBCMTD:undname.obj
 0002:00010590       ??_C@_09EBBEKKIH@unsigned?5?$AA@ 100be590     LIBCMTD:undname.obj
 0002:0001059c       ??_C@_05BEFAKPML@void?5?$AA@ 100be59c     LIBCMTD:undname.obj
 0002:000105a4       ??_C@_08PABEKFH@volatile?$AA@ 100be5a4     LIBCMTD:undname.obj
 0002:000105b0       ??_C@_0P@GCOCNKDM@std?3?3nullptr_t?$AA@ 100be5b0     LIBCMTD:undname.obj
 0002:000105c0       ??_C@_0L@EGPHHEKN@?$DMellipsis?$DO?$AA@ 100be5c0     LIBCMTD:undname.obj
 0002:000105cc       ??_C@_04EENFHACM@?0?4?4?4?$AA@ 100be5cc     LIBCMTD:undname.obj
 0002:000105d4       ??_C@_0M@ELJOJFFH@?0?$DMellipsis?$DO?$AA@ 100be5d4     LIBCMTD:undname.obj
 0002:000105e0       ??_C@_07HDJPLPEK@?5throw?$CI?$AA@ 100be5e0     LIBCMTD:undname.obj
 0002:000105e8       ??_C@_03PBJBJNON@cpu?$AA@  100be5e8     LIBCMTD:undname.obj
 0002:000105ec       ??_C@_03DCBBJBAA@amp?$AA@  100be5ec     LIBCMTD:undname.obj
 0002:000105f0       ??_C@_02KEGNLNML@?0?5?$AA@ 100be5f0     LIBCMTD:undname.obj
 0002:000105f4       ??_C@_04ENMBGAPA@char?$AA@ 100be5f4     LIBCMTD:undname.obj
 0002:000105fc       ??_C@_05BFKKPKCG@short?$AA@ 100be5fc     LIBCMTD:undname.obj
 0002:00010604       ??_C@_03JBIPMCLC@int?$AA@  100be604     LIBCMTD:undname.obj
 0002:00010608       ??_C@_04GOKPGOLB@long?$AA@ 100be608     LIBCMTD:undname.obj
 0002:00010610       ??_C@_05KNFBNCOH@float?$AA@ 100be610     LIBCMTD:undname.obj
 0002:00010618       ??_C@_06BNJCAIGJ@double?$AA@ 100be618     LIBCMTD:undname.obj
 0002:00010620       ??_C@_04DDKJGDCM@bool?$AA@ 100be620     LIBCMTD:undname.obj
 0002:00010628       ??_C@_06EBGKOKIG@__int8?$AA@ 100be628     LIBCMTD:undname.obj
 0002:00010630       ??_C@_07ICFHOGAF@__int16?$AA@ 100be630     LIBCMTD:undname.obj
 0002:00010638       ??_C@_07OFLPPHGP@__int32?$AA@ 100be638     LIBCMTD:undname.obj
 0002:00010640       ??_C@_07LFCOJCAC@__int64?$AA@ 100be640     LIBCMTD:undname.obj
 0002:00010648       ??_C@_08GAHOLHEO@__int128?$AA@ 100be648     LIBCMTD:undname.obj
 0002:00010654       ??_C@_09EEKGDCPH@?$DMunknown?$DO?$AA@ 100be654     LIBCMTD:undname.obj
 0002:00010660       ??_C@_07CLGGIAMF@wchar_t?$AA@ 100be660     LIBCMTD:undname.obj
 0002:00010668       ??_C@_06GCICPBLB@__w64?5?$AA@ 100be668     LIBCMTD:undname.obj
 0002:00010670       ??_C@_07NFANNNEC@UNKNOWN?$AA@ 100be670     LIBCMTD:undname.obj
 0002:00010678       ??_C@_07EDHNAJHC@signed?5?$AA@ 100be678     LIBCMTD:undname.obj
 0002:00010680       ??_C@_05BNCCCJPP@const?$AA@ 100be680     LIBCMTD:undname.obj
 0002:00010688       ??_C@_09EFNPDFFP@?5volatile?$AA@ 100be688     LIBCMTD:undname.obj
 0002:00010694       ??_C@_0P@GCIFDJCJ@?$GAunknown?5ecsu?8?$AA@ 100be694     LIBCMTD:undname.obj
 0002:000106a4       ??_C@_06MOJHIBMG@union?5?$AA@ 100be6a4     LIBCMTD:undname.obj
 0002:000106ac       ??_C@_07DIBCDNGL@struct?5?$AA@ 100be6ac     LIBCMTD:undname.obj
 0002:000106b4       ??_C@_06LJBABKPM@class?5?$AA@ 100be6b4     LIBCMTD:undname.obj
 0002:000106bc       ??_C@_08KOFANOFK@coclass?5?$AA@ 100be6bc     LIBCMTD:undname.obj
 0002:000106c8       ??_C@_0N@DLIEFKNA@cointerface?5?$AA@ 100be6c8     LIBCMTD:undname.obj
 0002:000106d8       ??_C@_05LJGMCFOG@enum?5?$AA@ 100be6d8     LIBCMTD:undname.obj
 0002:000106e0       ??_C@_09GAIEOBLP@volatile?5?$AA@ 100be6e0     LIBCMTD:undname.obj
 0002:000106ec       ??_C@_06LIJLOJAG@const?5?$AA@ 100be6ec     LIBCMTD:undname.obj
 0002:000106f4       ??_C@_0M@EALIELKG@cli?3?3array?$DM?$AA@ 100be6f4     LIBCMTD:undname.obj
 0002:00010700       ??_C@_0O@GKABPPIF@cli?3?3pin_ptr?$DM?$AA@ 100be700     LIBCMTD:undname.obj
 0002:00010710       ??_C@_02GOGNNPBN@?$CJ?$FL?$AA@ 100be710     LIBCMTD:undname.obj
 0002:00010714       ??_C@_06EEGAIFAK@?$HLflat?$HN?$AA@ 100be714     LIBCMTD:undname.obj
 0002:0001071c       ??_C@_05JIBOFOHK@?$HLfor?5?$AA@ 100be71c     LIBCMTD:undname.obj
 0002:00010724       ??_C@_02MDINNEEG@s?5?$AA@  100be724     LIBCMTD:undname.obj
 0002:0001072c       ??_7DNameNode@@6B@         100be72c     LIBCMTD:undname.obj
 0002:0001073c       ??_7charNode@@6B@          100be73c     LIBCMTD:undname.obj
 0002:0001074c       ??_7pcharNode@@6B@         100be74c     LIBCMTD:undname.obj
 0002:0001075c       ??_7pDNameNode@@6B@        100be75c     LIBCMTD:undname.obj
 0002:0001076c       ??_7DNameStatusNode@@6B@   100be76c     LIBCMTD:undname.obj
 0002:0001077c       ??_7pairNode@@6B@          100be77c     LIBCMTD:undname.obj
 0002:00010788       ??_C@_04OKOHEJBO@?5?$DP?$DP?5?$AA@ 100be788     LIBCMTD:undname.obj
 0002:00010790       ??_C@_1BJK@FEBNHLFF@?$AA?$CI?$AA?$CI?$AAp?$AAt?$AAl?$AAo?$AAc?$AAi?$AA?9?$AA?$DO?$AAl?$AAc?$AA_?$AAc?$AAa?$AAt?$AAe?$AAg?$AAo?$AAr?$AAy?$AA?$FL?$AAc?$AAa?$AAt?$AAe?$AAg?$AAo?$AAr?$AAy?$AA?$FN?$AA?4@ 100be790     LIBCMTD:localref.obj
 0002:00010930       ??_C@_1GE@HMAALBPJ@?$AAf?$AA?3?$AA?2?$AAd?$AAd?$AA?2?$AAv?$AAc?$AAt?$AAo?$AAo?$AAl?$AAs?$AA?2?$AAc?$AAr?$AAt?$AA_?$AAb?$AAl?$AAd?$AA?2?$AAs?$AAe?$AAl?$AAf?$AA_?$AAx?$AA8?$AA6?$AA?2?$AAc@ 100be930     LIBCMTD:localref.obj
 0002:00010998       ??_C@_1GE@BDKOPHIO@?$AAf?$AA?3?$AA?2?$AAd?$AAd?$AA?2?$AAv?$AAc?$AAt?$AAo?$AAo?$AAl?$AAs?$AA?2?$AAc?$AAr?$AAt?$AA_?$AAb?$AAl?$AAd?$AA?2?$AAs?$AAe?$AAl?$AAf?$AA_?$AAx?$AA8?$AA6?$AA?2?$AAc@ 100be998     LIBCMTD:_fptostr.obj
 0002:000109fc       ??_C@_1BC@OPALLEB@?$AA_?$AAf?$AAp?$AAt?$AAo?$AAs?$AAt?$AAr?$AA?$AA@ 100be9fc     LIBCMTD:_fptostr.obj
 0002:00010a10       ??_C@_1GM@CEDLGDDI@?$AAs?$AAi?$AAz?$AAe?$AAI?$AAn?$AAB?$AAy?$AAt?$AAe?$AAs?$AA?5?$AA?$DO?$AA?5?$AA?$CI?$AAs?$AAi?$AAz?$AAe?$AA_?$AAt?$AA?$CJ?$AA?$CI?$AA?$CI?$AAd?$AAi?$AAg?$AAi?$AAt?$AAs?$AA?5?$AA?$DO@ 100bea10     LIBCMTD:_fptostr.obj
 0002:00010a7c       ??_C@_1BK@CLIEHFDF@?$AAp?$AAf?$AAl?$AAt?$AA?5?$AA?$CB?$AA?$DN?$AA?5?$AAN?$AAU?$AAL?$AAL?$AA?$AA@ 100bea7c     LIBCMTD:_fptostr.obj
 0002:00010a98       ??_C@_1HC@PKFDNKN@?$AAf?$AA?3?$AA?2?$AAd?$AAd?$AA?2?$AAv?$AAc?$AAt?$AAo?$AAo?$AAl?$AAs?$AA?2?$AAc?$AAr?$AAt?$AA_?$AAb?$AAl?$AAd?$AA?2?$AAs?$AAe?$AAl?$AAf?$AA_?$AAx?$AA8?$AA6?$AA?2?$AAc@ 100bea98     LIBCMTD:cfout.obj
 0002:00010b0c       ??_C@_1BC@BPMMEHLK@?$AA_?$AAf?$AAl?$AAt?$AAo?$AAu?$AAt?$AA2?$AA?$AA@ 100beb0c     LIBCMTD:cfout.obj
 0002:00010b20       ??_C@_1FK@KODCOBKF@?$AAs?$AAt?$AAr?$AAc?$AAp?$AAy?$AA_?$AAs?$AA?$CI?$AAr?$AAe?$AAs?$AAu?$AAl?$AAt?$AAs?$AAt?$AAr?$AA?0?$AA?5?$AAr?$AAe?$AAs?$AAu?$AAl?$AAt?$AAs?$AAi?$AAz?$AAe?$AA?0?$AA?5@ 100beb20     LIBCMTD:cfout.obj
 0002:00010b7c       ??_C@_03KOEHGMDN@Sun?$AA@  100beb7c     LIBCMTD:nlsdata.obj
 0002:00010b80       ??_C@_03PDAGKDH@Mon?$AA@   100beb80     LIBCMTD:nlsdata.obj
 0002:00010b84       ??_C@_03NAGEINEP@Tue?$AA@  100beb84     LIBCMTD:nlsdata.obj
 0002:00010b88       ??_C@_03MHOMLAJA@Wed?$AA@  100beb88     LIBCMTD:nlsdata.obj
 0002:00010b8c       ??_C@_03IOFIKPDN@Thu?$AA@  100beb8c     LIBCMTD:nlsdata.obj
 0002:00010b90       ??_C@_03IDIOELNC@Fri?$AA@  100beb90     LIBCMTD:nlsdata.obj
 0002:00010b94       ??_C@_03FEFJNEK@Sat?$AA@   100beb94     LIBCMTD:nlsdata.obj
 0002:00010b98       ??_C@_06OOPIFAJ@Sunday?$AA@ 100beb98     LIBCMTD:nlsdata.obj
 0002:00010ba0       ??_C@_06JLEDEDGH@Monday?$AA@ 100beba0     LIBCMTD:nlsdata.obj
 0002:00010ba8       ??_C@_07BAAGCFCM@Tuesday?$AA@ 100beba8     LIBCMTD:nlsdata.obj
 0002:00010bb0       ??_C@_09DLIGFAKA@Wednesday?$AA@ 100bebb0     LIBCMTD:nlsdata.obj
 0002:00010bbc       ??_C@_08HACCIKIA@Thursday?$AA@ 100bebbc     LIBCMTD:nlsdata.obj
 0002:00010bc8       ??_C@_06JECMNKMI@Friday?$AA@ 100bebc8     LIBCMTD:nlsdata.obj
 0002:00010bd0       ??_C@_08INBOOONO@Saturday?$AA@ 100bebd0     LIBCMTD:nlsdata.obj
 0002:00010bdc       ??_C@_03JIHJHPIE@Jan?$AA@  100bebdc     LIBCMTD:nlsdata.obj
 0002:00010be0       ??_C@_03HJBDCHOM@Feb?$AA@  100bebe0     LIBCMTD:nlsdata.obj
 0002:00010be4       ??_C@_03ODNJBKGA@Mar?$AA@  100bebe4     LIBCMTD:nlsdata.obj
 0002:00010be8       ??_C@_03LEOLGMJP@Apr?$AA@  100bebe8     LIBCMTD:nlsdata.obj
 0002:00010bec       ??_C@_03CNMDKL@May?$AA@    100bebec     LIBCMTD:nlsdata.obj
 0002:00010bf0       ??_C@_03IDFGHECI@Jun?$AA@  100bebf0     LIBCMTD:nlsdata.obj
 0002:00010bf4       ??_C@_03LBGABGKK@Jul?$AA@  100bebf4     LIBCMTD:nlsdata.obj
 0002:00010bf8       ??_C@_03IFJFEIGA@Aug?$AA@  100bebf8     LIBCMTD:nlsdata.obj
 0002:00010bfc       ??_C@_03GGCAPAJC@Sep?$AA@  100bebfc     LIBCMTD:nlsdata.obj
 0002:00010c00       ??_C@_03BMAOKBAD@Oct?$AA@  100bec00     LIBCMTD:nlsdata.obj
 0002:00010c04       ??_C@_03JPJOFNIA@Nov?$AA@  100bec04     LIBCMTD:nlsdata.obj
 0002:00010c08       ??_C@_03MKABNOCG@Dec?$AA@  100bec08     LIBCMTD:nlsdata.obj
 0002:00010c0c       ??_C@_07CGJPFGJA@January?$AA@ 100bec0c     LIBCMTD:nlsdata.obj
 0002:00010c14       ??_C@_08GNJGEPFN@February?$AA@ 100bec14     LIBCMTD:nlsdata.obj
 0002:00010c20       ??_C@_05HPCKOFNC@March?$AA@ 100bec20     LIBCMTD:nlsdata.obj
 0002:00010c28       ??_C@_05DMJDNLEJ@April?$AA@ 100bec28     LIBCMTD:nlsdata.obj
 0002:00010c30       ??_C@_04CNLMGBGM@June?$AA@ 100bec30     LIBCMTD:nlsdata.obj
 0002:00010c38       ??_C@_04MIEPOIFP@July?$AA@ 100bec38     LIBCMTD:nlsdata.obj
 0002:00010c40       ??_C@_06LBBHFDDG@August?$AA@ 100bec40     LIBCMTD:nlsdata.obj
 0002:00010c48       ??_C@_09BHHEALKD@September?$AA@ 100bec48     LIBCMTD:nlsdata.obj
 0002:00010c54       ??_C@_07JJNFCEND@October?$AA@ 100bec54     LIBCMTD:nlsdata.obj
 0002:00010c5c       ??_C@_08HCHEGEOA@November?$AA@ 100bec5c     LIBCMTD:nlsdata.obj
 0002:00010c68       ??_C@_08EDHMEBNP@December?$AA@ 100bec68     LIBCMTD:nlsdata.obj
 0002:00010c74       ??_C@_02DEDBPAFC@AM?$AA@   100bec74     LIBCMTD:nlsdata.obj
 0002:00010c78       ??_C@_02CJNFDJBF@PM?$AA@   100bec78     LIBCMTD:nlsdata.obj
 0002:00010c7c       ??_C@_08BPBNCDIB@MM?1dd?1yy?$AA@ 100bec7c     LIBCMTD:nlsdata.obj
 0002:00010c88       ??_C@_0BE@CKGJFCPC@dddd?0?5MMMM?5dd?0?5yyyy?$AA@ 100bec88     LIBCMTD:nlsdata.obj
 0002:00010c9c       ??_C@_08JCCMCCIL@HH?3mm?3ss?$AA@ 100bec9c     LIBCMTD:nlsdata.obj
 0002:00010ca8       ??_C@_17MBGCMIPB@?$AAS?$AAu?$AAn?$AA?$AA@ 100beca8     LIBCMTD:nlsdata.obj
 0002:00010cb0       ??_C@_17KBOMKBF@?$AAM?$AAo?$AAn?$AA?$AA@ 100becb0     LIBCMTD:nlsdata.obj
 0002:00010cb8       ??_C@_17BMKGEGOJ@?$AAT?$AAu?$AAe?$AA?$AA@ 100becb8     LIBCMTD:nlsdata.obj
 0002:00010cc0       ??_C@_17CJEDCEPE@?$AAW?$AAe?$AAd?$AA?$AA@ 100becc0     LIBCMTD:nlsdata.obj
 0002:00010cc8       ??_C@_17PDPHAADD@?$AAT?$AAh?$AAu?$AA?$AA@ 100becc8     LIBCMTD:nlsdata.obj
 0002:00010cd0       ??_C@_17HFOLPPLP@?$AAF?$AAr?$AAi?$AA?$AA@ 100becd0     LIBCMTD:nlsdata.obj
 0002:00010cd8       ??_C@_17GGIBDPIH@?$AAS?$AAa?$AAt?$AA?$AA@ 100becd8     LIBCMTD:nlsdata.obj
 0002:00010ce0       ??_C@_1O@IHNHDHPB@?$AAS?$AAu?$AAn?$AAd?$AAa?$AAy?$AA?$AA@ 100bece0     LIBCMTD:nlsdata.obj
 0002:00010cf0       ??_C@_1O@MMNBFLIA@?$AAM?$AAo?$AAn?$AAd?$AAa?$AAy?$AA?$AA@ 100becf0     LIBCMTD:nlsdata.obj
 0002:00010d00       ??_C@_1BA@ENFBFFEK@?$AAT?$AAu?$AAe?$AAs?$AAd?$AAa?$AAy?$AA?$AA@ 100bed00     LIBCMTD:nlsdata.obj
 0002:00010d10       ??_C@_1BE@EBOGMDOH@?$AAW?$AAe?$AAd?$AAn?$AAe?$AAs?$AAd?$AAa?$AAy?$AA?$AA@ 100bed10     LIBCMTD:nlsdata.obj
 0002:00010d24       ??_C@_1BC@HHMNLIHE@?$AAT?$AAh?$AAu?$AAr?$AAs?$AAd?$AAa?$AAy?$AA?$AA@ 100bed24     LIBCMTD:nlsdata.obj
 0002:00010d38       ??_C@_1O@PDICJHAG@?$AAF?$AAr?$AAi?$AAd?$AAa?$AAy?$AA?$AA@ 100bed38     LIBCMTD:nlsdata.obj
 0002:00010d48       ??_C@_1BC@ENMNNPAJ@?$AAS?$AAa?$AAt?$AAu?$AAr?$AAd?$AAa?$AAy?$AA?$AA@ 100bed48     LIBCMTD:nlsdata.obj
 0002:00010d5c       ??_C@_17DKNBKCHM@?$AAJ?$AAa?$AAn?$AA?$AA@ 100bed5c     LIBCMTD:nlsdata.obj
 0002:00010d64       ??_C@_17LMDJEKJN@?$AAF?$AAe?$AAb?$AA?$AA@ 100bed64     LIBCMTD:nlsdata.obj
 0002:00010d6c       ??_C@_17CKNLEDEC@?$AAM?$AAa?$AAr?$AA?$AA@ 100bed6c     LIBCMTD:nlsdata.obj
 0002:00010d74       ??_C@_17LFPOIHDD@?$AAA?$AAp?$AAr?$AA?$AA@ 100bed74     LIBCMTD:nlsdata.obj
 0002:00010d7c       ??_C@_17PNNKMEED@?$AAM?$AAa?$AAy?$AA?$AA@ 100bed7c     LIBCMTD:nlsdata.obj
 0002:00010d84       ??_C@_17KCJGOCPB@?$AAJ?$AAu?$AAn?$AA?$AA@ 100bed84     LIBCMTD:nlsdata.obj
 0002:00010d8c       ??_C@_17IJPCKHK@?$AAJ?$AAu?$AAl?$AA?$AA@ 100bed8c     LIBCMTD:nlsdata.obj
 0002:00010d94       ??_C@_17ICPELBCN@?$AAA?$AAu?$AAg?$AA?$AA@ 100bed94     LIBCMTD:nlsdata.obj
 0002:00010d9c       ??_C@_17HCHCOKMG@?$AAS?$AAe?$AAp?$AA?$AA@ 100bed9c     LIBCMTD:nlsdata.obj
 0002:00010da4       ??_C@_17FNLKOI@?$AAO?$AAc?$AAt?$AA?$AA@ 100beda4     LIBCMTD:nlsdata.obj
 0002:00010dac       ??_C@_17BBDMLCIG@?$AAN?$AAo?$AAv?$AA?$AA@ 100bedac     LIBCMTD:nlsdata.obj
 0002:00010db4       ??_C@_17EGKACKIF@?$AAD?$AAe?$AAc?$AA?$AA@ 100bedb4     LIBCMTD:nlsdata.obj
 0002:00010dbc       ??_C@_1BA@EFMEIEBA@?$AAJ?$AAa?$AAn?$AAu?$AAa?$AAr?$AAy?$AA?$AA@ 100bedbc     LIBCMTD:nlsdata.obj
 0002:00010dcc       ??_C@_1BC@JGDDFFAM@?$AAF?$AAe?$AAb?$AAr?$AAu?$AAa?$AAr?$AAy?$AA?$AA@ 100bedcc     LIBCMTD:nlsdata.obj
 0002:00010de0       ??_C@_1M@IKEENEDF@?$AAM?$AAa?$AAr?$AAc?$AAh?$AA?$AA@ 100bede0     LIBCMTD:nlsdata.obj
 0002:00010dec       ??_C@_1M@GJNLMHFD@?$AAA?$AAp?$AAr?$AAi?$AAl?$AA?$AA@ 100bedec     LIBCMTD:nlsdata.obj
 0002:00010df8       ??_C@_19EPFLPGAP@?$AAJ?$AAu?$AAn?$AAe?$AA?$AA@ 100bedf8     LIBCMTD:nlsdata.obj
 0002:00010e04       ??_C@_19BIFMLPCD@?$AAJ?$AAu?$AAl?$AAy?$AA?$AA@ 100bee04     LIBCMTD:nlsdata.obj
 0002:00010e10       ??_C@_1O@PAHLKOAC@?$AAA?$AAu?$AAg?$AAu?$AAs?$AAt?$AA?$AA@ 100bee10     LIBCMTD:nlsdata.obj
 0002:00010e20       ??_C@_1BE@DKAAMBJL@?$AAS?$AAe?$AAp?$AAt?$AAe?$AAm?$AAb?$AAe?$AAr?$AA?$AA@ 100bee20     LIBCMTD:nlsdata.obj
 0002:00010e34       ??_C@_1BA@EPANDLNG@?$AAO?$AAc?$AAt?$AAo?$AAb?$AAe?$AAr?$AA?$AA@ 100bee34     LIBCMTD:nlsdata.obj
 0002:00010e44       ??_C@_1BC@BGLIFPF@?$AAN?$AAo?$AAv?$AAe?$AAm?$AAb?$AAe?$AAr?$AA?$AA@ 100bee44     LIBCMTD:nlsdata.obj
 0002:00010e58       ??_C@_1BC@FEMKIFH@?$AAD?$AAe?$AAc?$AAe?$AAm?$AAb?$AAe?$AAr?$AA?$AA@ 100bee58     LIBCMTD:nlsdata.obj
 0002:00010e6c       ??_C@_15ODEHAHHF@?$AAA?$AAM?$AA?$AA@ 100bee6c     LIBCMTD:nlsdata.obj
 0002:00010e74       ??_C@_15CLMNNGEL@?$AAP?$AAM?$AA?$AA@ 100bee74     LIBCMTD:nlsdata.obj
 0002:00010e7c       ??_C@_1BC@IEBCMHCM@?$AAM?$AAM?$AA?1?$AAd?$AAd?$AA?1?$AAy?$AAy?$AA?$AA@ 100bee7c     LIBCMTD:nlsdata.obj
 0002:00010e90       ??_C@_1CI@KNAKOEBC@?$AAd?$AAd?$AAd?$AAd?$AA?0?$AA?5?$AAM?$AAM?$AAM?$AAM?$AA?5?$AAd?$AAd?$AA?0?$AA?5?$AAy?$AAy?$AAy?$AAy?$AA?$AA@ 100bee90     LIBCMTD:nlsdata.obj
 0002:00010eb8       ??_C@_1BC@GDGBMEMK@?$AAH?$AAH?$AA?3?$AAm?$AAm?$AA?3?$AAs?$AAs?$AA?$AA@ 100beeb8     LIBCMTD:nlsdata.obj
 0002:00010ecc       ??_C@_1M@BMHNFIME@?$AAe?$AAn?$AA?9?$AAU?$AAS?$AA?$AA@ 100beecc     LIBCMTD:nlsdata.obj
 0002:00010ed8       ??_C@_1EM@EGEEBJLG@?$AA?$CI?$AAo?$AAp?$AAt?$AAi?$AAo?$AAn?$AAs?$AA?5?$AA?$CG?$AA?5?$AA?$HO?$AA_?$AAT?$AAW?$AAO?$AA_?$AAD?$AAI?$AAG?$AAI?$AAT?$AA_?$AAE?$AAX?$AAP?$AAO?$AAN?$AAE?$AAN?$AAT?$AA?$CJ@ 100beed8     LIBCMTD:outputformat.obj
 0002:00010f28       ??_C@_1GM@NFGGJJCM@?$AAf?$AA?3?$AA?2?$AAd?$AAd?$AA?2?$AAv?$AAc?$AAt?$AAo?$AAo?$AAl?$AAs?$AA?2?$AAc?$AAr?$AAt?$AA_?$AAb?$AAl?$AAd?$AA?2?$AAs?$AAe?$AAl?$AAf?$AA_?$AAx?$AA8?$AA6?$AA?2?$AAc@ 100bef28     LIBCMTD:outputformat.obj
 0002:00010f94       ??_C@_1CG@EBJECAJM@?$AA_?$AAs?$AAe?$AAt?$AA_?$AAo?$AAu?$AAt?$AAp?$AAu?$AAt?$AA_?$AAf?$AAo?$AAr?$AAm?$AAa?$AAt?$AA?$AA@ 100bef94     LIBCMTD:outputformat.obj
 0002:00010fbc       ??_C@_1DG@JNDMIEJL@?$AA?$CI?$AA?$CC?$AAI?$AAn?$AAv?$AAa?$AAl?$AAi?$AAd?$AA?5?$AAi?$AAn?$AAp?$AAu?$AAt?$AA?5?$AAv?$AAa?$AAl?$AAu?$AAe?$AA?$CC?$AA?0?$AA?5?$AA0?$AA?$CJ?$AA?$AA@ 100befbc     LIBCMTD:contrlfp.obj
 0002:00010ff8       ??_C@_1HI@JIOCECAH@?$AAf?$AA?3?$AA?2?$AAd?$AAd?$AA?2?$AAv?$AAc?$AAt?$AAo?$AAo?$AAl?$AAs?$AA?2?$AAc?$AAr?$AAt?$AA_?$AAb?$AAl?$AAd?$AA?2?$AAs?$AAe?$AAl?$AAf?$AA_?$AAx?$AA8?$AA6?$AA?2?$AAc@ 100beff8     LIBCMTD:contrlfp.obj
 0002:00011070       ??_C@_1BK@CDOALEA@?$AA_?$AAc?$AAo?$AAn?$AAt?$AAr?$AAo?$AAl?$AAf?$AAp?$AA_?$AAs?$AA?$AA@ 100bf070     LIBCMTD:contrlfp.obj
 0002:00011090       ??_C@_1FC@PFMLEHKI@?$AA?$CI?$AA?$CI?$AA_?$AAD?$AAs?$AAt?$AA?$CJ?$AA?$CJ?$AA?5?$AA?$CB?$AA?$DN?$AA?5?$AAN?$AAU?$AAL?$AAL?$AA?5?$AA?$CG?$AA?$CG?$AA?5?$AA?$CI?$AA?$CI?$AA_?$AAS?$AAi?$AAz?$AAe?$AAI?$AAn?$AAW?$AAo?$AAr@ 100bf090     LIBCMTD:wcscpy_s.obj
 0002:000110e4       ??_C@_1BC@KIONAFPO@?$AAw?$AAc?$AAs?$AAc?$AAp?$AAy?$AA_?$AAs?$AA?$AA@ 100bf0e4     LIBCMTD:wcscpy_s.obj
 0002:000110f8       ??_C@_1GE@DKGHLBLP@?$AAf?$AA?3?$AA?2?$AAd?$AAd?$AA?2?$AAv?$AAc?$AAt?$AAo?$AAo?$AAl?$AAs?$AA?2?$AAc?$AAr?$AAt?$AA_?$AAb?$AAl?$AAd?$AA?2?$AAs?$AAe?$AAl?$AAf?$AA_?$AAx?$AA8?$AA6?$AA?2?$AAc@ 100bf0f8     LIBCMTD:swprintf.obj
 0002:0001115c       ??_C@_1BE@BMIJMLDD@?$AA_?$AAs?$AAw?$AAp?$AAr?$AAi?$AAn?$AAt?$AAf?$AA?$AA@ 100bf15c     LIBCMTD:swprintf.obj
 0002:00011170       ??_C@_1BG@GOEBHBDC@?$AAU?$AAS?$AAE?$AAR?$AA3?$AA2?$AA?4?$AAD?$AAL?$AAL?$AA?$AA@ 100bf170     LIBCMTD:crtmboxw.obj
 0002:00011188       ??_C@_0M@DLDCCGNP@MessageBoxW?$AA@ 100bf188     LIBCMTD:crtmboxw.obj
 0002:00011194       ??_C@_0BA@HNOPNCHB@GetActiveWindow?$AA@ 100bf194     LIBCMTD:crtmboxw.obj
 0002:000111a4       ??_C@_0BD@HHGDFDBJ@GetLastActivePopup?$AA@ 100bf1a4     LIBCMTD:crtmboxw.obj
 0002:000111b8       ??_C@_0BK@DEKFELLI@GetUserObjectInformationW?$AA@ 100bf1b8     LIBCMTD:crtmboxw.obj
 0002:000111d4       ??_C@_0BI@DFKBFLJE@GetProcessWindowStation?$AA@ 100bf1d4     LIBCMTD:crtmboxw.obj
 0002:000111f0       ??_C@_1FA@IFFFOLDJ@?$AAn?$AAR?$AAp?$AAt?$AAT?$AAy?$AAp?$AAe?$AA?5?$AA?$DO?$AA?$DN?$AA?5?$AA0?$AA?5?$AA?$CG?$AA?$CG?$AA?5?$AAn?$AAR?$AAp?$AAt?$AAT?$AAy?$AAp?$AAe?$AA?5?$AA?$DM?$AA?5?$AA_?$AAC?$AAR?$AAT@ 100bf1f0     LIBCMTD:dbgrptt.obj
 0002:00011240       ??_C@_1GC@FIGJJMEN@?$AAf?$AA?3?$AA?2?$AAd?$AAd?$AA?2?$AAv?$AAc?$AAt?$AAo?$AAo?$AAl?$AAs?$AA?2?$AAc?$AAr?$AAt?$AA_?$AAb?$AAl?$AAd?$AA?2?$AAs?$AAe?$AAl?$AAf?$AA_?$AAx?$AA8?$AA6?$AA?2?$AAc@ 100bf240     LIBCMTD:dbgrptt.obj
 0002:000112a4       ??_C@_1CE@FIHIECNJ@?$AA_?$AAC?$AAr?$AAt?$AAS?$AAe?$AAt?$AAR?$AAe?$AAp?$AAo?$AAr?$AAt?$AAM?$AAo?$AAd?$AAe?$AA?$AA@ 100bf2a4     LIBCMTD:dbgrptt.obj
 0002:000112c8       ??_C@_1NK@LOFHIHFC@?$AAf?$AAM?$AAo?$AAd?$AAe?$AA?5?$AA?$DN?$AA?$DN?$AA?5?$AA_?$AAC?$AAR?$AAT?$AAD?$AAB?$AAG?$AA_?$AAR?$AAE?$AAP?$AAO?$AAR?$AAT?$AA_?$AAM?$AAO?$AAD?$AAE?$AA?5?$AA?$HM?$AA?$HM?$AA?5@ 100bf2c8     LIBCMTD:dbgrptt.obj
 0002:000113a4       ??_C@_1CE@IKKEDCME@?$AA_?$AAC?$AAr?$AAt?$AAS?$AAe?$AAt?$AAR?$AAe?$AAp?$AAo?$AAr?$AAt?$AAF?$AAi?$AAl?$AAe?$AA?$AA@ 100bf3a4     LIBCMTD:dbgrptt.obj
 0002:000113c8       ??_C@_1CA@KHJHLKA@?$AA_?$AAV?$AAC?$AAr?$AAt?$AAD?$AAb?$AAg?$AAR?$AAe?$AAp?$AAo?$AAr?$AAt?$AAA?$AA?$AA@ 100bf3c8     LIBCMTD:dbgrptt.obj
 0002:000113e8       ??_C@_1FA@JPHJBHEM@?$AA_?$AAi?$AAt?$AAo?$AAa?$AA_?$AAs?$AA?$CI?$AAn?$AAL?$AAi?$AAn?$AAe?$AA?0?$AA?5?$AAs?$AAz?$AAL?$AAi?$AAn?$AAe?$AAM?$AAe?$AAs?$AAs?$AAa?$AAg?$AAe?$AA?0?$AA?5?$AA4?$AA0@ 100bf3e8     LIBCMTD:dbgrptt.obj
 0002:00011438       ??_C@_0CG@BNGLOCEO@Second?5Chance?5Assertion?5Failed?3?5@ 100bf438     LIBCMTD:dbgrptt.obj
 0002:00011460       ??_C@_0P@DFJNDPOP@?$DMfile?5unknown?$DO?$AA@ 100bf460     LIBCMTD:dbgrptt.obj
 0002:00011470       ??_C@_07BHGABMGB@?0?5Line?5?$AA@ 100bf470     LIBCMTD:dbgrptt.obj
 0002:00011478       ??_C@_1JI@GAALPGBM@?$AAs?$AAt?$AAr?$AAc?$AAp?$AAy?$AA_?$AAs?$AA?$CI?$AAs?$AAz?$AAU?$AAs?$AAe?$AAr?$AAM?$AAe?$AAs?$AAs?$AAa?$AAg?$AAe?$AA?0?$AA?5?$AA4?$AA0?$AA9?$AA6?$AA?0?$AA?5?$AA?$CC?$AA_@ 100bf478     LIBCMTD:dbgrptt.obj
 0002:00011510       ??_C@_0CL@EACFGMNB@_CrtDbgReport?3?5String?5too?5long?5o@ 100bf510     LIBCMTD:dbgrptt.obj
 0002:00011540       ??_C@_1KK@GIGAEDMO@?$AAs?$AAt?$AAr?$AAc?$AAp?$AAy?$AA_?$AAs?$AA?$CI?$AAs?$AAz?$AAL?$AAi?$AAn?$AAe?$AAM?$AAe?$AAs?$AAs?$AAa?$AAg?$AAe?$AA?0?$AA?5?$AA4?$AA0?$AA9?$AA6?$AA?0?$AA?5?$AAs?$AAz@ 100bf540     LIBCMTD:dbgrptt.obj
 0002:000115ec       ??_C@_0BD@CAENFOHP@Assertion?5failed?3?5?$AA@ 100bf5ec     LIBCMTD:dbgrptt.obj
 0002:00011600       ??_C@_0BC@LAIDCHCH@Assertion?5failed?$CB?$AA@ 100bf600     LIBCMTD:dbgrptt.obj
 0002:00011618       ??_C@_1FK@NPGBPOFO@?$AAs?$AAt?$AAr?$AAc?$AAa?$AAt?$AA_?$AAs?$AA?$CI?$AAs?$AAz?$AAL?$AAi?$AAn?$AAe?$AAM?$AAe?$AAs?$AAs?$AAa?$AAg?$AAe?$AA?0?$AA?5?$AA4?$AA0?$AA9?$AA6?$AA?0?$AA?5?$AAs?$AAz@ 100bf618     LIBCMTD:dbgrptt.obj
 0002:00011678       ??_C@_1EI@CACDLAFK@?$AAs?$AAt?$AAr?$AAc?$AAa?$AAt?$AA_?$AAs?$AA?$CI?$AAs?$AAz?$AAL?$AAi?$AAn?$AAe?$AAM?$AAe?$AAs?$AAs?$AAa?$AAg?$AAe?$AA?0?$AA?5?$AA4?$AA0?$AA9?$AA6?$AA?0?$AA?5?$AA?$CC?$AA?2@ 100bf678     LIBCMTD:dbgrptt.obj
 0002:000116c0       ??_C@_01LIIJDEN@?$AN?$AA@  100bf6c0     LIBCMTD:dbgrptt.obj
 0002:000116c8       ??_C@_1EI@LDHJEDO@?$AAs?$AAt?$AAr?$AAc?$AAa?$AAt?$AA_?$AAs?$AA?$CI?$AAs?$AAz?$AAL?$AAi?$AAn?$AAe?$AAM?$AAe?$AAs?$AAs?$AAa?$AAg?$AAe?$AA?0?$AA?5?$AA4?$AA0?$AA9?$AA6?$AA?0?$AA?5?$AA?$CC?$AA?2@ 100bf6c8     LIBCMTD:dbgrptt.obj
 0002:00011710       ??_C@_0M@IPILFDFN@?$CFs?$CI?$CFd?$CJ?5?3?5?$CFs?$AA@ 100bf710     LIBCMTD:dbgrptt.obj
 0002:00011720       ??_C@_1JG@CPKCIOEE@?$AAs?$AAt?$AAr?$AAc?$AAp?$AAy?$AA_?$AAs?$AA?$CI?$AAs?$AAz?$AAO?$AAu?$AAt?$AAM?$AAe?$AAs?$AAs?$AAa?$AAg?$AAe?$AA?0?$AA?5?$AA4?$AA0?$AA9?$AA6?$AA?0?$AA?5?$AA?$CC?$AA_?$AAC@ 100bf720     LIBCMTD:dbgrptt.obj
 0002:000117b8       ??_C@_1FI@IBIOIHEG@?$AAs?$AAt?$AAr?$AAc?$AAp?$AAy?$AA_?$AAs?$AA?$CI?$AAs?$AAz?$AAO?$AAu?$AAt?$AAM?$AAe?$AAs?$AAs?$AAa?$AAg?$AAe?$AA?0?$AA?5?$AA4?$AA0?$AA9?$AA6?$AA?0?$AA?5?$AAs?$AAz?$AAL@ 100bf7b8     LIBCMTD:dbgrptt.obj
 0002:00011810       ??_C@_1IM@OOKIFKOH@?$AAe?$AA?5?$AA?$DN?$AA?5?$AAm?$AAb?$AAs?$AAt?$AAo?$AAw?$AAc?$AAs?$AA_?$AAs?$AA?$CI?$AA?$CG?$AAr?$AAe?$AAt?$AA?0?$AA?5?$AAs?$AAz?$AAO?$AAu?$AAt?$AAM?$AAe?$AAs?$AAs?$AAa?$AAg@ 100bf810     LIBCMTD:dbgrptt.obj
 0002:000118a0       ??_C@_1MC@IGEECMDB@?$AAw?$AAc?$AAs?$AAc?$AAp?$AAy?$AA_?$AAs?$AA?$CI?$AAs?$AAz?$AAO?$AAu?$AAt?$AAM?$AAe?$AAs?$AAs?$AAa?$AAg?$AAe?$AA2?$AA?0?$AA?5?$AA4?$AA0?$AA9?$AA6?$AA?0?$AA?5?$AAL?$AA?$CC@ 100bf8a0     LIBCMTD:dbgrptt.obj
 0002:00011968       ??_C@_1HO@PJOFIKFE@?$AA_?$AAC?$AAr?$AAt?$AAD?$AAb?$AAg?$AAR?$AAe?$AAp?$AAo?$AAr?$AAt?$AA?3?$AA?5?$AAS?$AAt?$AAr?$AAi?$AAn?$AAg?$AA?5?$AAt?$AAo?$AAo?$AA?5?$AAl?$AAo?$AAn?$AAg?$AA?5?$AAo@ 100bf968     LIBCMTD:dbgrptt.obj
 0002:000119e8       ??_C@_1CA@HPALHDOD@?$AA_?$AAV?$AAC?$AAr?$AAt?$AAD?$AAb?$AAg?$AAR?$AAe?$AAp?$AAo?$AAr?$AAt?$AAW?$AA?$AA@ 100bf9e8     LIBCMTD:dbgrptt.obj
 0002:00011a08       ??_C@_1FA@CNLLOMHI@?$AA_?$AAi?$AAt?$AAo?$AAw?$AA_?$AAs?$AA?$CI?$AAn?$AAL?$AAi?$AAn?$AAe?$AA?0?$AA?5?$AAs?$AAz?$AAL?$AAi?$AAn?$AAe?$AAM?$AAe?$AAs?$AAs?$AAa?$AAg?$AAe?$AA?0?$AA?5?$AA4?$AA0@ 100bfa08     LIBCMTD:dbgrptt.obj
 0002:00011a58       ??_C@_1EM@MJFLEDMB@?$AAS?$AAe?$AAc?$AAo?$AAn?$AAd?$AA?5?$AAC?$AAh?$AAa?$AAn?$AAc?$AAe?$AA?5?$AAA?$AAs?$AAs?$AAe?$AAr?$AAt?$AAi?$AAo?$AAn?$AA?5?$AAF?$AAa?$AAi?$AAl?$AAe?$AAd?$AA?3?$AA?5@ 100bfa58     LIBCMTD:dbgrptt.obj
 0002:00011aa4       ??_C@_1BO@OCHMLCAG@?$AA?$DM?$AAf?$AAi?$AAl?$AAe?$AA?5?$AAu?$AAn?$AAk?$AAn?$AAo?$AAw?$AAn?$AA?$DO?$AA?$AA@ 100bfaa4     LIBCMTD:dbgrptt.obj
 0002:00011ac4       ??_C@_1BA@ELMMDCFC@?$AA?0?$AA?5?$AAL?$AAi?$AAn?$AAe?$AA?5?$AA?$AA@ 100bfac4     LIBCMTD:dbgrptt.obj
 0002:00011ad4       ??_C@_13LBAGMAIH@?$AA?6?$AA?$AA@ 100bfad4     LIBCMTD:dbgrptt.obj
 0002:00011ad8       ??_C@_1JK@KHFABAEO@?$AAw?$AAc?$AAs?$AAc?$AAp?$AAy?$AA_?$AAs?$AA?$CI?$AAs?$AAz?$AAU?$AAs?$AAe?$AAr?$AAM?$AAe?$AAs?$AAs?$AAa?$AAg?$AAe?$AA?0?$AA?5?$AA4?$AA0?$AA9?$AA6?$AA?0?$AA?5?$AAL?$AA?$CC@ 100bfad8     LIBCMTD:dbgrptt.obj
 0002:00011b78       ??_C@_1KO@DGAHENCH@?$AAw?$AAc?$AAs?$AAc?$AAp?$AAy?$AA_?$AAs?$AA?$CI?$AAs?$AAz?$AAL?$AAi?$AAn?$AAe?$AAM?$AAe?$AAs?$AAs?$AAa?$AAg?$AAe?$AA?0?$AA?5?$AA4?$AA0?$AA9?$AA6?$AA?0?$AA?5?$AAs?$AAz@ 100bfb78     LIBCMTD:dbgrptt.obj
 0002:00011c28       ??_C@_1CG@FFFGGODN@?$AAA?$AAs?$AAs?$AAe?$AAr?$AAt?$AAi?$AAo?$AAn?$AA?5?$AAf?$AAa?$AAi?$AAl?$AAe?$AAd?$AA?3?$AA?5?$AA?$AA@ 100bfc28     LIBCMTD:dbgrptt.obj
 0002:00011c50       ??_C@_1CE@OJBNHDMO@?$AAA?$AAs?$AAs?$AAe?$AAr?$AAt?$AAi?$AAo?$AAn?$AA?5?$AAf?$AAa?$AAi?$AAl?$AAe?$AAd?$AA?$CB?$AA?$AA@ 100bfc50     LIBCMTD:dbgrptt.obj
 0002:00011c78       ??_C@_1FK@HPADHBBD@?$AAw?$AAc?$AAs?$AAc?$AAa?$AAt?$AA_?$AAs?$AA?$CI?$AAs?$AAz?$AAL?$AAi?$AAn?$AAe?$AAM?$AAe?$AAs?$AAs?$AAa?$AAg?$AAe?$AA?0?$AA?5?$AA4?$AA0?$AA9?$AA6?$AA?0?$AA?5?$AAs?$AAz@ 100bfc78     LIBCMTD:dbgrptt.obj
 0002:00011cd8       ??_C@_1EK@NMDFGHMF@?$AAw?$AAc?$AAs?$AAc?$AAa?$AAt?$AA_?$AAs?$AA?$CI?$AAs?$AAz?$AAL?$AAi?$AAn?$AAe?$AAM?$AAe?$AAs?$AAs?$AAa?$AAg?$AAe?$AA?0?$AA?5?$AA4?$AA0?$AA9?$AA6?$AA?0?$AA?5?$AAL?$AA?$CC@ 100bfcd8     LIBCMTD:dbgrptt.obj
 0002:00011d24       ??_C@_13CMNBPIDO@?$AA?$AN?$AA?$AA@ 100bfd24     LIBCMTD:dbgrptt.obj
 0002:00011d28       ??_C@_1EK@PHCBEDKB@?$AAw?$AAc?$AAs?$AAc?$AAa?$AAt?$AA_?$AAs?$AA?$CI?$AAs?$AAz?$AAL?$AAi?$AAn?$AAe?$AAM?$AAe?$AAs?$AAs?$AAa?$AAg?$AAe?$AA?0?$AA?5?$AA4?$AA0?$AA9?$AA6?$AA?0?$AA?5?$AAL?$AA?$CC@ 100bfd28     LIBCMTD:dbgrptt.obj
 0002:00011d74       ??_C@_1BI@JIDBEPIG@?$AA?$CF?$AAs?$AA?$CI?$AA?$CF?$AAd?$AA?$CJ?$AA?5?$AA?3?$AA?5?$AA?$CF?$AAs?$AA?$AA@ 100bfd74     LIBCMTD:dbgrptt.obj
 0002:00011d90       ??_C@_1FI@DBAIJPJE@?$AAw?$AAc?$AAs?$AAc?$AAp?$AAy?$AA_?$AAs?$AA?$CI?$AAs?$AAz?$AAO?$AAu?$AAt?$AAM?$AAe?$AAs?$AAs?$AAa?$AAg?$AAe?$AA?0?$AA?5?$AA4?$AA0?$AA9?$AA6?$AA?0?$AA?5?$AAs?$AAz?$AAL@ 100bfd90     LIBCMTD:dbgrptt.obj
 0002:00011de8       ??_C@_1JC@EOAPFDLN@?$AAw?$AAc?$AAs?$AAt?$AAo?$AAm?$AAb?$AAs?$AA_?$AAs?$AA?$CI?$AA?$CI?$AA?$CI?$AAv?$AAo?$AAi?$AAd?$AA?5?$AA?$CK?$AA?$CJ?$AA0?$AA?$CJ?$AA?0?$AA?5?$AAs?$AAz?$AAO?$AAu?$AAt?$AAM?$AAe?$AAs@ 100bfde8     LIBCMTD:dbgrptt.obj
 0002:00011e80       ??_C@_1MA@LBAMNNOB@?$AAs?$AAt?$AAr?$AAc?$AAp?$AAy?$AA_?$AAs?$AA?$CI?$AAs?$AAz?$AAO?$AAu?$AAt?$AAM?$AAe?$AAs?$AAs?$AAa?$AAg?$AAe?$AA2?$AA?0?$AA?5?$AA4?$AA0?$AA9?$AA6?$AA?0?$AA?5?$AA?$CC?$AA_@ 100bfe80     LIBCMTD:dbgrptt.obj
 0002:00011f40       ??_C@_0DP@GNPEPHJD@_CrtDbgReport?3?5String?5too?5long?5o@ 100bff40     LIBCMTD:dbgrptt.obj
 0002:00011f80       ??_C@_1IE@CPGKIAGP@?$AAw?$AAc?$AAs?$AAt?$AAo?$AAm?$AAb?$AAs?$AA_?$AAs?$AA?$CI?$AA?$CG?$AAr?$AAe?$AAt?$AA?0?$AA?5?$AAs?$AAz?$AAa?$AAO?$AAu?$AAt?$AAM?$AAe?$AAs?$AAs?$AAa?$AAg?$AAe?$AA?0?$AA?5@ 100bff80     LIBCMTD:dbgrptt.obj
 0002:00012004       ??_C@_1CI@JELMFMDH@?$AAc?$AA?5?$AA?$DO?$AA?$DN?$AA?5?$AA?9?$AA1?$AA?5?$AA?$CG?$AA?$CG?$AA?5?$AAc?$AA?5?$AA?$DM?$AA?$DN?$AA?5?$AA2?$AA5?$AA5?$AA?$AA@ 100c0004     LIBCMTD:isctype.obj
 0002:00012030       ??_C@_1GC@CHGJNMHG@?$AAf?$AA?3?$AA?2?$AAd?$AAd?$AA?2?$AAv?$AAc?$AAt?$AAo?$AAo?$AAl?$AAs?$AA?2?$AAc?$AAr?$AAt?$AA_?$AAb?$AAl?$AAd?$AA?2?$AAs?$AAe?$AAl?$AAf?$AA_?$AAx?$AA8?$AA6?$AA?2?$AAc@ 100c0030     LIBCMTD:isctype.obj
 0002:00012094       ??_C@_1BO@KFIJIAEA@?$AAp?$AAB?$AAl?$AAo?$AAc?$AAk?$AA?5?$AA?$CB?$AA?$DN?$AA?5?$AAN?$AAU?$AAL?$AAL?$AA?$AA@ 100c0094     LIBCMTD:expand.obj
 0002:000120b8       ??_C@_1GA@EBHFLDNH@?$AAf?$AA?3?$AA?2?$AAd?$AAd?$AA?2?$AAv?$AAc?$AAt?$AAo?$AAo?$AAl?$AAs?$AA?2?$AAc?$AAr?$AAt?$AA_?$AAb?$AAl?$AAd?$AA?2?$AAs?$AAe?$AAl?$AAf?$AA_?$AAx?$AA8?$AA6?$AA?2?$AAc@ 100c00b8     LIBCMTD:expand.obj
 0002:00012118       ??_C@_1BK@JMCGJOCC@?$AA_?$AAe?$AAx?$AAp?$AAa?$AAn?$AAd?$AA_?$AAb?$AAa?$AAs?$AAe?$AA?$AA@ 100c0118     LIBCMTD:expand.obj
 0002:00012134       ??_C@_0DB@KIKNCIEC@f?3?2dd?2vctools?2crt_bld?2self_x86?2c@ 100c0134     LIBCMTD:osfinfo.obj
 0002:00012168       ??_C@_1GC@MLKLDJJG@?$AAf?$AA?3?$AA?2?$AAd?$AAd?$AA?2?$AAv?$AAc?$AAt?$AAo?$AAo?$AAl?$AAs?$AA?2?$AAc?$AAr?$AAt?$AA_?$AAb?$AAl?$AAd?$AA?2?$AAs?$AAe?$AAl?$AAf?$AA_?$AAx?$AA8?$AA6?$AA?2?$AAc@ 100c0168     LIBCMTD:osfinfo.obj
 0002:000121cc       ??_C@_1BO@EMBOBGKE@?$AA_?$AAg?$AAe?$AAt?$AA_?$AAo?$AAs?$AAf?$AAh?$AAa?$AAn?$AAd?$AAl?$AAe?$AA?$AA@ 100c01cc     LIBCMTD:osfinfo.obj
 0002:000121f0       ??_C@_1HC@KFLBHHBC@?$AA?$CI?$AAf?$AAi?$AAl?$AAe?$AAd?$AAe?$AAs?$AA?5?$AA?$DO?$AA?$DN?$AA?5?$AA0?$AA?5?$AA?$CG?$AA?$CG?$AA?5?$AA?$CI?$AAu?$AAn?$AAs?$AAi?$AAg?$AAn?$AAe?$AAd?$AA?$CJ?$AAf?$AAi?$AAl?$AAe?$AAd@ 100c01f0     LIBCMTD:commit.obj
 0002:00012268       ??_C@_1GA@BOPCOCFN@?$AAf?$AA?3?$AA?2?$AAd?$AAd?$AA?2?$AAv?$AAc?$AAt?$AAo?$AAo?$AAl?$AAs?$AA?2?$AAc?$AAr?$AAt?$AA_?$AAb?$AAl?$AAd?$AA?2?$AAs?$AAe?$AAl?$AAf?$AA_?$AAx?$AA8?$AA6?$AA?2?$AAc@ 100c0268     LIBCMTD:commit.obj
 0002:000122c8       ??_C@_1BA@FLNMBBIM@?$AA_?$AAc?$AAo?$AAm?$AAm?$AAi?$AAt?$AA?$AA@ 100c02c8     LIBCMTD:commit.obj
 0002:000122d8       ??_C@_1DG@LNNHNFHJ@?$AA?$CI?$AA_?$AAo?$AAs?$AAf?$AAi?$AAl?$AAe?$AA?$CI?$AAf?$AAi?$AAl?$AAe?$AAd?$AAe?$AAs?$AA?$CJ?$AA?5?$AA?$CG?$AA?5?$AAF?$AAO?$AAP?$AAE?$AAN?$AA?$CJ?$AA?$AA@ 100c02d8     LIBCMTD:commit.obj
 0002:00012310       ??_C@_1BO@DPAOGEII@?$AA?$CI?$AAp?$AAa?$AAt?$AAh?$AA?5?$AA?$CB?$AA?$DN?$AA?5?$AAN?$AAU?$AAL?$AAL?$AA?$CJ?$AA?$AA@ 100c0310     LIBCMTD:open.obj
 0002:00012330       ??_C@_1FM@LFKHNNH@?$AAf?$AA?3?$AA?2?$AAd?$AAd?$AA?2?$AAv?$AAc?$AAt?$AAo?$AAo?$AAl?$AAs?$AA?2?$AAc?$AAr?$AAt?$AA_?$AAb?$AAl?$AAd?$AA?2?$AAs?$AAe?$AAl?$AAf?$AA_?$AAx?$AA8?$AA6?$AA?2?$AAc@ 100c0330     LIBCMTD:open.obj
 0002:0001238c       ??_C@_1M@MFLJCMFJ@?$AA_?$AAo?$AAp?$AAe?$AAn?$AA?$AA@ 100c038c     LIBCMTD:open.obj
 0002:00012398       ??_C@_1BM@PGEEHLHE@?$AA?$CI?$AAp?$AAf?$AAh?$AA?5?$AA?$CB?$AA?$DN?$AA?5?$AAN?$AAU?$AAL?$AAL?$AA?$CJ?$AA?$AA@ 100c0398     LIBCMTD:open.obj
 0002:000123b4       ??_C@_1BM@IOBAMMHO@?$AA_?$AAs?$AAo?$AAp?$AAe?$AAn?$AA_?$AAh?$AAe?$AAl?$AAp?$AAe?$AAr?$AA?$AA@ 100c03b4     LIBCMTD:open.obj
 0002:000123d0       ??_C@_1FG@NFINBJCM@?$AA?$CI?$AA?$CI?$AAp?$AAm?$AAo?$AAd?$AAe?$AA?5?$AA?$CG?$AA?5?$AA?$CI?$AA?$HO?$AA?$CI?$AA_?$AAS?$AA_?$AAI?$AAR?$AAE?$AAA?$AAD?$AA?5?$AA?$HM?$AA?5?$AA_?$AAS?$AA_?$AAI?$AAW?$AAR?$AAI?$AAT@ 100c03d0     LIBCMTD:open.obj
 0002:00012428       ??_C@_1BG@MODEICJK@?$AAs?$AA1?$AA?5?$AA?$CB?$AA?$DN?$AA?5?$AAN?$AAU?$AAL?$AAL?$AA?$AA@ 100c0428     LIBCMTD:mbsnbcmp.obj
 0002:00012440       ??_C@_1GE@IIBFGEPN@?$AAf?$AA?3?$AA?2?$AAd?$AAd?$AA?2?$AAv?$AAc?$AAt?$AAo?$AAo?$AAl?$AAs?$AA?2?$AAc?$AAr?$AAt?$AA_?$AAb?$AAl?$AAd?$AA?2?$AAs?$AAe?$AAl?$AAf?$AA_?$AAx?$AA8?$AA6?$AA?2?$AAc@ 100c0440     LIBCMTD:mbsnbcmp.obj
 0002:000124a4       ??_C@_1BI@LPHOHGHI@?$AA_?$AAm?$AAb?$AAs?$AAn?$AAb?$AAc?$AAm?$AAp?$AA_?$AAl?$AA?$AA@ 100c04a4     LIBCMTD:mbsnbcmp.obj
 0002:000124bc       ??_C@_1BG@GBJNMPFA@?$AAs?$AA2?$AA?5?$AA?$CB?$AA?$DN?$AA?5?$AAN?$AAU?$AAL?$AAL?$AA?$AA@ 100c04bc     LIBCMTD:mbsnbcmp.obj
 0002:000124d8       ??_C@_1GE@JLFFJINF@?$AAf?$AA?3?$AA?2?$AAd?$AAd?$AA?2?$AAv?$AAc?$AAt?$AAo?$AAo?$AAl?$AAs?$AA?2?$AAc?$AAr?$AAt?$AA_?$AAb?$AAl?$AAd?$AA?2?$AAs?$AAe?$AAl?$AAf?$AA_?$AAx?$AA8?$AA6?$AA?2?$AAc@ 100c04d8     LIBCMTD:mbsnbicm.obj
 0002:0001253c       ??_C@_1BK@GEJONGBG@?$AA_?$AAm?$AAb?$AAs?$AAn?$AAb?$AAi?$AAc?$AAm?$AAp?$AA_?$AAl?$AA?$AA@ 100c053c     LIBCMTD:mbsnbicm.obj
 0002:00012558       ___lookuptable_s           100c0558     LIBCMTD:outputs.obj
 0002:000125b4       ??_C@_1BI@COFBLHCG@?$AA_?$AAo?$AAu?$AAt?$AAp?$AAu?$AAt?$AA_?$AAs?$AA_?$AAl?$AA?$AA@ 100c05b4     LIBCMTD:outputs.obj
 0002:000125d0       ??_C@_1GA@LPGDJDEN@?$AAf?$AA?3?$AA?2?$AAd?$AAd?$AA?2?$AAv?$AAc?$AAt?$AAo?$AAo?$AAl?$AAs?$AA?2?$AAc?$AAr?$AAt?$AA_?$AAb?$AAl?$AAd?$AA?2?$AAs?$AAe?$AAl?$AAf?$AA_?$AAx?$AA8?$AA6?$AA?2?$AAc@ 100c05d0     LIBCMTD:isatty.obj
 0002:00012630       ??_C@_1BA@LEBDGIHM@?$AA_?$AAi?$AAs?$AAa?$AAt?$AAt?$AAy?$AA?$AA@ 100c0630     LIBCMTD:isatty.obj
 0002:00012640       ??_C@_1CO@HFMIILNF@?$AAs?$AAi?$AAz?$AAe?$AAI?$AAn?$AAB?$AAy?$AAt?$AAe?$AAs?$AA?5?$AA?$DM?$AA?$DN?$AA?5?$AAI?$AAN?$AAT?$AA_?$AAM?$AAA?$AAX?$AA?$AA@ 100c0640     LIBCMTD:wctomb.obj
 0002:00012670       ??_C@_1GA@LDLHPOO@?$AAf?$AA?3?$AA?2?$AAd?$AAd?$AA?2?$AAv?$AAc?$AAt?$AAo?$AAo?$AAl?$AAs?$AA?2?$AAc?$AAr?$AAt?$AA_?$AAb?$AAl?$AAd?$AA?2?$AAs?$AAe?$AAl?$AAf?$AA_?$AAx?$AA8?$AA6?$AA?2?$AAc@ 100c0670     LIBCMTD:wctomb.obj
 0002:000126d0       ??_C@_1BI@IEADNOHF@?$AA_?$AAw?$AAc?$AAt?$AAo?$AAm?$AAb?$AA_?$AAs?$AA_?$AAl?$AA?$AA@ 100c06d0     LIBCMTD:wctomb.obj
 0002:000126e8       ??_C@_1GC@DKMGNNCC@?$AAf?$AA?3?$AA?2?$AAd?$AAd?$AA?2?$AAv?$AAc?$AAt?$AAo?$AAo?$AAl?$AAs?$AA?2?$AAc?$AAr?$AAt?$AA_?$AAb?$AAl?$AAd?$AA?2?$AAs?$AAe?$AAl?$AAf?$AA_?$AAx?$AA8?$AA6?$AA?2?$AAc@ 100c06e8     LIBCMTD:_getbuf.obj
 0002:0001274c       ??_C@_0DB@JEHOCBEJ@f?3?2dd?2vctools?2crt_bld?2self_x86?2c@ 100c074c     LIBCMTD:_getbuf.obj
 0002:00012780       ??_C@_1GE@MINKPNPH@?$AAf?$AA?3?$AA?2?$AAd?$AAd?$AA?2?$AAv?$AAc?$AAt?$AAo?$AAo?$AAl?$AAs?$AA?2?$AAc?$AAr?$AAt?$AA_?$AAb?$AAl?$AAd?$AA?2?$AAs?$AAe?$AAl?$AAf?$AA_?$AAx?$AA8?$AA6?$AA?2?$AAc@ 100c0780     LIBCMTD:lseeki64.obj
 0002:000127e4       ??_C@_1BE@KHFBJMNM@?$AA_?$AAl?$AAs?$AAe?$AAe?$AAk?$AAi?$AA6?$AA4?$AA?$AA@ 100c07e4     LIBCMTD:lseeki64.obj
 0002:000127f8       ??_C@_1NC@EINCOKCO@?$AA_?$AAl?$AAo?$AAc?$AA_?$AAu?$AAp?$AAd?$AAa?$AAt?$AAe?$AA?4?$AAG?$AAe?$AAt?$AAL?$AAo?$AAc?$AAa?$AAl?$AAe?$AAT?$AA?$CI?$AA?$CJ?$AA?9?$AA?$DO?$AAl?$AAo?$AAc?$AAi?$AAn?$AAf@ 100c07f8     LIBCMTD:mbtowc.obj
 0002:000128d0       ??_C@_1GA@GFFDGGFH@?$AAf?$AA?3?$AA?2?$AAd?$AAd?$AA?2?$AAv?$AAc?$AAt?$AAo?$AAo?$AAl?$AAs?$AA?2?$AAc?$AAr?$AAt?$AA_?$AAb?$AAl?$AAd?$AA?2?$AAs?$AAe?$AAl?$AAf?$AA_?$AAx?$AA8?$AA6?$AA?2?$AAc@ 100c08d0     LIBCMTD:mbtowc.obj
 0002:00012930       __atan_table               100c0930     LIBCMTD:atan_table.obj
 0002:00014140       ??_C@_1GI@NOKGIAGA@?$AAf?$AA?3?$AA?2?$AAd?$AAd?$AA?2?$AAv?$AAc?$AAt?$AAo?$AAo?$AAl?$AAs?$AA?2?$AAc?$AAr?$AAt?$AA_?$AAb?$AAl?$AAd?$AA?2?$AAs?$AAe?$AAl?$AAf?$AA_?$AAx?$AA8?$AA6?$AA?2?$AAc@ 100c2140     LIBCMTD:wcscat_s.obj
 0002:000141a8       ??_C@_1BC@PLIEPKPJ@?$AAw?$AAc?$AAs?$AAc?$AAa?$AAt?$AA_?$AAs?$AA?$AA@ 100c21a8     LIBCMTD:wcscat_s.obj
 0002:000141bc       ??_C@_1DM@FHLMIEG@?$AAS?$AAt?$AAr?$AAi?$AAn?$AAg?$AA?5?$AAi?$AAs?$AA?5?$AAn?$AAo?$AAt?$AA?5?$AAn?$AAu?$AAl?$AAl?$AA?5?$AAt?$AAe?$AAr?$AAm?$AAi?$AAn?$AAa?$AAt?$AAe?$AAd?$AA?$AA@ 100c21bc     LIBCMTD:wcscat_s.obj
 0002:000141f8       ??_C@_1FA@MJKDNFFB@?$AA?$CI?$AAL?$AA?$CC?$AAS?$AAt?$AAr?$AAi?$AAn?$AAg?$AA?5?$AAi?$AAs?$AA?5?$AAn?$AAo?$AAt?$AA?5?$AAn?$AAu?$AAl?$AAl?$AA?5?$AAt?$AAe?$AAr?$AAm?$AAi?$AAn?$AAa?$AAt?$AAe?$AAd@ 100c21f8     LIBCMTD:wcscat_s.obj
 0002:00014248       ??_C@_1GK@PAJJBKJF@?$AAf?$AA?3?$AA?2?$AAd?$AAd?$AA?2?$AAv?$AAc?$AAt?$AAo?$AAo?$AAl?$AAs?$AA?2?$AAc?$AAr?$AAt?$AA_?$AAb?$AAl?$AAd?$AA?2?$AAs?$AAe?$AAl?$AAf?$AA_?$AAx?$AA8?$AA6?$AA?2?$AAc@ 100c2248     LIBCMTD:wcsncpy_s.obj
 0002:000142b4       ??_C@_1BE@PMMBFFCC@?$AAw?$AAc?$AAs?$AAn?$AAc?$AAp?$AAy?$AA_?$AAs?$AA?$AA@ 100c22b4     LIBCMTD:wcsncpy_s.obj
 0002:000142c8       ??_C@_1DE@BCNCAIK@?$AA?$CI?$AA?$CC?$AAI?$AAn?$AAv?$AAa?$AAl?$AAi?$AAd?$AA?5?$AAe?$AAr?$AAr?$AAo?$AAr?$AA_?$AAm?$AAo?$AAd?$AAe?$AA?$CC?$AA?0?$AA?5?$AA0?$AA?$CJ?$AA?$AA@ 100c22c8     LIBCMTD:errmode.obj
 0002:00014300       ??_C@_1GC@FGMGFCNB@?$AAf?$AA?3?$AA?2?$AAd?$AAd?$AA?2?$AAv?$AAc?$AAt?$AAo?$AAo?$AAl?$AAs?$AA?2?$AAc?$AAr?$AAt?$AA_?$AAb?$AAl?$AAd?$AA?2?$AAs?$AAe?$AAl?$AAf?$AA_?$AAx?$AA8?$AA6?$AA?2?$AAc@ 100c2300     LIBCMTD:errmode.obj
 0002:00014364       ??_C@_1CA@LFDHAMEM@?$AA_?$AAs?$AAe?$AAt?$AA_?$AAe?$AAr?$AAr?$AAo?$AAr?$AA_?$AAm?$AAo?$AAd?$AAe?$AA?$AA@ 100c2364     LIBCMTD:errmode.obj
 0002:00014384       ??_C@_1BE@NDMJHJJG@?$AAs?$AAt?$AAr?$AAn?$AAc?$AAp?$AAy?$AA_?$AAs?$AA?$AA@ 100c2384     LIBCMTD:strncpy_s.obj
 0002:00014398       ??_C@_1FE@KNPCCODH@?$AA?$CI?$AA?$CC?$AAC?$AAo?$AAr?$AAr?$AAu?$AAp?$AAt?$AAe?$AAd?$AA?5?$AAp?$AAo?$AAi?$AAn?$AAt?$AAe?$AAr?$AA?5?$AAp?$AAa?$AAs?$AAs?$AAe?$AAd?$AA?5?$AAt?$AAo?$AA?5?$AA_?$AAf@ 100c2398     LIBCMTD:a_loc.obj
 0002:000143f0       ??_C@_1GA@INJGGEBC@?$AAf?$AA?3?$AA?2?$AAd?$AAd?$AA?2?$AAv?$AAc?$AAt?$AAo?$AAo?$AAl?$AAs?$AA?2?$AAc?$AAr?$AAt?$AA_?$AAb?$AAl?$AAd?$AA?2?$AAs?$AAe?$AAl?$AAf?$AA_?$AAx?$AA8?$AA6?$AA?2?$AAc@ 100c23f0     LIBCMTD:a_loc.obj
 0002:00014450       ??_C@_1M@ELCKCCJJ@?$AAm?$AAi?$AA?9?$AAn?$AAz?$AA?$AA@ 100c2450     LIBCMTD:winapinls.obj
 0002:0001445c       ??_C@_1M@CBOOLAPA@?$AAm?$AAk?$AA?9?$AAm?$AAk?$AA?$AA@ 100c245c     LIBCMTD:winapinls.obj
 0002:00014468       ??_C@_1M@GPHNBJKN@?$AAm?$AAl?$AA?9?$AAi?$AAn?$AA?$AA@ 100c2468     LIBCMTD:winapinls.obj
 0002:00014474       ??_C@_1M@PABJILIG@?$AAm?$AAn?$AA?9?$AAm?$AAn?$AA?$AA@ 100c2474     LIBCMTD:winapinls.obj
 0002:00014480       ??_C@_1M@FGBKKIPG@?$AAm?$AAr?$AA?9?$AAi?$AAn?$AA?$AA@ 100c2480     LIBCMTD:winapinls.obj
 0002:0001448c       ??_C@_1M@NDBPDDAL@?$AAm?$AAs?$AA?9?$AAb?$AAn?$AA?$AA@ 100c248c     LIBCMTD:winapinls.obj
 0002:00014498       ??_C@_1M@OPIHOOPI@?$AAm?$AAs?$AA?9?$AAm?$AAy?$AA?$AA@ 100c2498     LIBCMTD:winapinls.obj
 0002:000144a4       ??_C@_1M@PPDBCNFM@?$AAm?$AAt?$AA?9?$AAm?$AAt?$AA?$AA@ 100c24a4     LIBCMTD:winapinls.obj
 0002:000144b0       ??_C@_1M@KDJDKMDD@?$AAn?$AAb?$AA?9?$AAn?$AAo?$AA?$AA@ 100c24b0     LIBCMTD:winapinls.obj
 0002:000144bc       ??_C@_1M@KFCFLMJP@?$AAn?$AAl?$AA?9?$AAb?$AAe?$AA?$AA@ 100c24bc     LIBCMTD:winapinls.obj
 0002:000144c8       ??_C@_1M@KPOPDDGO@?$AAn?$AAl?$AA?9?$AAn?$AAl?$AA?$AA@ 100c24c8     LIBCMTD:winapinls.obj
 0002:000144d4       ??_C@_1M@LJKPEMLN@?$AAn?$AAn?$AA?9?$AAn?$AAo?$AA?$AA@ 100c24d4     LIBCMTD:winapinls.obj
 0002:000144e0       ??_C@_1M@BDGHHBFL@?$AAn?$AAs?$AA?9?$AAz?$AAa?$AA?$AA@ 100c24e0     LIBCMTD:winapinls.obj
 0002:000144ec       ??_C@_1M@IDEHOAP@?$AAp?$AAa?$AA?9?$AAi?$AAn?$AA?$AA@ 100c24ec     LIBCMTD:winapinls.obj
 0002:000144f8       ??_C@_1M@HDBKGOGH@?$AAp?$AAl?$AA?9?$AAp?$AAl?$AA?$AA@ 100c24f8     LIBCMTD:winapinls.obj
 0002:00014504       ??_C@_1M@LJLLCMEH@?$AAp?$AAt?$AA?9?$AAb?$AAr?$AA?$AA@ 100c2504     LIBCMTD:winapinls.obj
 0002:00014510       ??_C@_1M@NCMONAAL@?$AAp?$AAt?$AA?9?$AAp?$AAt?$AA?$AA@ 100c2510     LIBCMTD:winapinls.obj
 0002:0001451c       ??_C@_1O@EAKMAJDN@?$AAq?$AAu?$AAz?$AA?9?$AAb?$AAo?$AA?$AA@ 100c251c     LIBCMTD:winapinls.obj
 0002:0001452c       ??_C@_1O@BHHPIGDN@?$AAq?$AAu?$AAz?$AA?9?$AAe?$AAc?$AA?$AA@ 100c252c     LIBCMTD:winapinls.obj
 0002:0001453c       ??_C@_1O@GBAPEKMJ@?$AAq?$AAu?$AAz?$AA?9?$AAp?$AAe?$AA?$AA@ 100c253c     LIBCMTD:winapinls.obj
 0002:0001454c       ??_C@_1M@CLGLEFBO@?$AAr?$AAo?$AA?9?$AAr?$AAo?$AA?$AA@ 100c254c     LIBCMTD:winapinls.obj
 0002:00014558       ??_C@_1M@CEEDODME@?$AAr?$AAu?$AA?9?$AAr?$AAu?$AA?$AA@ 100c2558     LIBCMTD:winapinls.obj
 0002:00014564       ??_C@_1M@HPKKKMPP@?$AAs?$AAa?$AA?9?$AAi?$AAn?$AA?$AA@ 100c2564     LIBCMTD:winapinls.obj
 0002:00014570       ??_C@_1M@BKMAIGOJ@?$AAs?$AAe?$AA?9?$AAf?$AAi?$AA?$AA@ 100c2570     LIBCMTD:winapinls.obj
 0002:0001457c       ??_C@_1M@NDPIFLFI@?$AAs?$AAe?$AA?9?$AAn?$AAo?$AA?$AA@ 100c257c     LIBCMTD:winapinls.obj
 0002:00014588       ??_C@_1M@DANKKHJ@?$AAs?$AAe?$AA?9?$AAs?$AAe?$AA?$AA@ 100c2588     LIBCMTD:winapinls.obj
 0002:00014594       ??_C@_1M@PNBLONPJ@?$AAs?$AAk?$AA?9?$AAs?$AAk?$AA?$AA@ 100c2594     LIBCMTD:winapinls.obj
 0002:000145a0       ??_C@_1M@LFMODOAL@?$AAs?$AAl?$AA?9?$AAs?$AAi?$AA?$AA@ 100c25a0     LIBCMTD:winapinls.obj
 0002:000145ac       ??_C@_1O@DFKOMPG@?$AAs?$AAm?$AAa?$AA?9?$AAn?$AAo?$AA?$AA@ 100c25ac     LIBCMTD:winapinls.obj
 0002:000145bc       ??_C@_1O@NDKPBNNH@?$AAs?$AAm?$AAa?$AA?9?$AAs?$AAe?$AA?$AA@ 100c25bc     LIBCMTD:winapinls.obj
 0002:000145cc       ??_C@_1O@PLLKBHAB@?$AAs?$AAm?$AAj?$AA?9?$AAn?$AAo?$AA?$AA@ 100c25cc     LIBCMTD:winapinls.obj
 0002:000145dc       ??_C@_1O@CLEPOGCA@?$AAs?$AAm?$AAj?$AA?9?$AAs?$AAe?$AA?$AA@ 100c25dc     LIBCMTD:winapinls.obj
 0002:000145ec       ??_C@_1O@DLGJGKMK@?$AAs?$AAm?$AAn?$AA?9?$AAf?$AAi?$AA?$AA@ 100c25ec     LIBCMTD:winapinls.obj
 0002:000145fc       ??_C@_1O@OJDJGAJC@?$AAs?$AAm?$AAs?$AA?9?$AAf?$AAi?$AA?$AA@ 100c25fc     LIBCMTD:winapinls.obj
 0002:0001460c       ??_C@_1M@BOFOGHPB@?$AAs?$AAq?$AA?9?$AAa?$AAl?$AA?$AA@ 100c260c     LIBCMTD:winapinls.obj
 0002:00014618       ??_C@_1BG@LJBBIPGB@?$AAs?$AAr?$AA?9?$AAb?$AAa?$AA?9?$AAc?$AAy?$AAr?$AAl?$AA?$AA@ 100c2618     LIBCMTD:winapinls.obj
 0002:00014630       ??_C@_1BG@JLBENFOE@?$AAs?$AAr?$AA?9?$AAb?$AAa?$AA?9?$AAl?$AAa?$AAt?$AAn?$AA?$AA@ 100c2630     LIBCMTD:winapinls.obj
 0002:00014648       ??_C@_1BG@KODPNHE@?$AAs?$AAr?$AA?9?$AAs?$AAp?$AA?9?$AAc?$AAy?$AAr?$AAl?$AA?$AA@ 100c2648     LIBCMTD:winapinls.obj
 0002:00014660       ??_C@_1BG@CIOGKHPB@?$AAs?$AAr?$AA?9?$AAs?$AAp?$AA?9?$AAl?$AAa?$AAt?$AAn?$AA?$AA@ 100c2660     LIBCMTD:winapinls.obj
 0002:00014678       ??_C@_1M@NGFJLMAC@?$AAs?$AAv?$AA?9?$AAf?$AAi?$AA?$AA@ 100c2678     LIBCMTD:winapinls.obj
 0002:00014684       ??_C@_1M@MPJEJAJC@?$AAs?$AAv?$AA?9?$AAs?$AAe?$AA?$AA@ 100c2684     LIBCMTD:winapinls.obj
 0002:00014690       ??_C@_1M@MPNDHLFK@?$AAs?$AAw?$AA?9?$AAk?$AAe?$AA?$AA@ 100c2690     LIBCMTD:winapinls.obj
 0002:0001469c       ??_C@_1O@KOHBJJI@?$AAs?$AAy?$AAr?$AA?9?$AAs?$AAy?$AA?$AA@ 100c269c     LIBCMTD:winapinls.obj
 0002:000146ac       ??_C@_1M@LDCEFHA@?$AAt?$AAa?$AA?9?$AAi?$AAn?$AA?$AA@ 100c26ac     LIBCMTD:winapinls.obj
 0002:000146b8       ??_C@_1M@CNJOFAK@?$AAt?$AAe?$AA?9?$AAi?$AAn?$AA?$AA@ 100c26b8     LIBCMTD:winapinls.obj
 0002:000146c4       ??_C@_1M@GNAECACD@?$AAt?$AAh?$AA?9?$AAt?$AAh?$AA?$AA@ 100c26c4     LIBCMTD:winapinls.obj
 0002:000146d0       ??_C@_1M@CHBIHOJO@?$AAt?$AAn?$AA?9?$AAz?$AAa?$AA?$AA@ 100c26d0     LIBCMTD:winapinls.obj
 0002:000146dc       ??_C@_1M@GCCMIGPJ@?$AAt?$AAr?$AA?9?$AAt?$AAr?$AA?$AA@ 100c26dc     LIBCMTD:winapinls.obj
 0002:000146e8       ??_C@_1M@CELMCNBK@?$AAt?$AAt?$AA?9?$AAr?$AAu?$AA?$AA@ 100c26e8     LIBCMTD:winapinls.obj
 0002:000146f4       ??_C@_1M@KLMCELGA@?$AAu?$AAk?$AA?9?$AAu?$AAa?$AA?$AA@ 100c26f4     LIBCMTD:winapinls.obj
 0002:00014700       ??_C@_1M@EPAJJAJF@?$AAu?$AAr?$AA?9?$AAp?$AAk?$AA?$AA@ 100c2700     LIBCMTD:winapinls.obj
 0002:0001470c       ??_C@_1BG@GEGPMCDJ@?$AAu?$AAz?$AA?9?$AAu?$AAz?$AA?9?$AAc?$AAy?$AAr?$AAl?$AA?$AA@ 100c270c     LIBCMTD:winapinls.obj
 0002:00014724       ??_C@_1BG@EGGKJILM@?$AAu?$AAz?$AA?9?$AAu?$AAz?$AA?9?$AAl?$AAa?$AAt?$AAn?$AA?$AA@ 100c2724     LIBCMTD:winapinls.obj
 0002:0001473c       ??_C@_1M@GFOCLFF@?$AAv?$AAi?$AA?9?$AAv?$AAn?$AA?$AA@ 100c273c     LIBCMTD:winapinls.obj
 0002:00014748       ??_C@_1M@CPAMEDFI@?$AAx?$AAh?$AA?9?$AAz?$AAa?$AA?$AA@ 100c2748     LIBCMTD:winapinls.obj
 0002:00014754       ??_C@_1O@EBKIFIGN@?$AAz?$AAh?$AA?9?$AAc?$AAh?$AAs?$AA?$AA@ 100c2754     LIBCMTD:winapinls.obj
 0002:00014764       ??_C@_1O@NMHPGANE@?$AAz?$AAh?$AA?9?$AAc?$AAh?$AAt?$AA?$AA@ 100c2764     LIBCMTD:winapinls.obj
 0002:00014774       ??_C@_1M@LPINJOMC@?$AAz?$AAh?$AA?9?$AAc?$AAn?$AA?$AA@ 100c2774     LIBCMTD:winapinls.obj
 0002:00014780       ??_C@_1M@OCJEJODD@?$AAz?$AAh?$AA?9?$AAh?$AAk?$AA?$AA@ 100c2780     LIBCMTD:winapinls.obj
 0002:0001478c       ??_C@_1M@DNDLJINH@?$AAz?$AAh?$AA?9?$AAm?$AAo?$AA?$AA@ 100c278c     LIBCMTD:winapinls.obj
 0002:00014798       ??_C@_1M@MBFDNDND@?$AAz?$AAh?$AA?9?$AAs?$AAg?$AA?$AA@ 100c2798     LIBCMTD:winapinls.obj
 0002:000147a4       ??_C@_1M@IMEPLEPE@?$AAz?$AAh?$AA?9?$AAt?$AAw?$AA?$AA@ 100c27a4     LIBCMTD:winapinls.obj
 0002:000147b0       ??_C@_1M@BBGHNHJP@?$AAz?$AAu?$AA?9?$AAz?$AAa?$AA?$AA@ 100c27b0     LIBCMTD:winapinls.obj
 0002:000147c0       _LcidToLocaleNameTable     100c27c0     LIBCMTD:winapinls.obj
 0002:00014ee0       _LocaleNameToIndexTable    100c2ee0     LIBCMTD:winapinls.obj
 0002:00015600       ??_C@_15EMKDOKLE@?$AAa?$AAr?$AA?$AA@ 100c3600     LIBCMTD:winapinls.obj
 0002:00015608       ??_C@_15KNPADPLH@?$AAb?$AAg?$AA?$AA@ 100c3608     LIBCMTD:winapinls.obj
 0002:00015610       ??_C@_15EDMHLDMO@?$AAc?$AAa?$AA?$AA@ 100c3610     LIBCMTD:winapinls.obj
 0002:00015618       ??_C@_1O@BPEAJADD@?$AAz?$AAh?$AA?9?$AAC?$AAH?$AAS?$AA?$AA@ 100c3618     LIBCMTD:winapinls.obj
 0002:00015628       ??_C@_15LJNHCMNK@?$AAc?$AAs?$AA?$AA@ 100c3628     LIBCMTD:winapinls.obj
 0002:00015630       ??_C@_15FOMCIDHG@?$AAd?$AAa?$AA?$AA@ 100c3630     LIBCMTD:winapinls.obj
 0002:00015638       ??_C@_15NBKABECB@?$AAd?$AAe?$AA?$AA@ 100c3638     LIBCMTD:winapinls.obj
 0002:00015640       ??_C@_15GHPEIIAO@?$AAe?$AAl?$AA?$AA@ 100c3640     LIBCMTD:winapinls.obj
 0002:00015648       ??_C@_15MNPNEAIF@?$AAe?$AAn?$AA?$AA@ 100c3648     LIBCMTD:winapinls.obj
 0002:00015650       ??_C@_15GPIOMPMH@?$AAe?$AAs?$AA?$AA@ 100c3650     LIBCMTD:winapinls.obj
 0002:00015658       ??_C@_15NGLOAKJC@?$AAf?$AAi?$AA?$AA@ 100c3658     LIBCMTD:winapinls.obj
 0002:00015660       ??_C@_15FBKGNKAM@?$AAf?$AAr?$AA?$AA@ 100c3660     LIBCMTD:winapinls.obj
 0002:00015668       ??_C@_15KGGCNEFK@?$AAh?$AAe?$AA?$AA@ 100c3668     LIBCMTD:winapinls.obj
 0002:00015670       ??_C@_15PGHLIDMF@?$AAh?$AAu?$AA?$AA@ 100c3670     LIBCMTD:winapinls.obj
 0002:00015678       ??_C@_15BIEMAPLM@?$AAi?$AAs?$AA?$AA@ 100c3678     LIBCMTD:winapinls.obj
 0002:00015680       ??_C@_15IFJLDHAF@?$AAi?$AAt?$AA?$AA@ 100c3680     LIBCMTD:winapinls.obj
 0002:00015688       ??_C@_15GEMIOCAG@?$AAj?$AAa?$AA?$AA@ 100c3688     LIBCMTD:winapinls.obj
 0002:00015690       ??_C@_15EPELEGJA@?$AAk?$AAo?$AA?$AA@ 100c3690     LIBCMTD:winapinls.obj
 0002:00015698       ??_C@_15NDDHIMN@?$AAn?$AAl?$AA?$AA@ 100c3698     LIBCMTD:winapinls.obj
 0002:000156a0       ??_C@_15BPIGNHCD@?$AAn?$AAo?$AA?$AA@ 100c36a0     LIBCMTD:winapinls.obj
 0002:000156a8       ??_C@_15DEOPBLCG@?$AAp?$AAl?$AA?$AA@ 100c36a8     LIBCMTD:winapinls.obj
 0002:000156b0       ??_C@_15KBECGEFG@?$AAp?$AAt?$AA?$AA@ 100c36b0     LIBCMTD:winapinls.obj
 0002:000156b8       ??_C@_15GLJCBFMD@?$AAr?$AAo?$AA?$AA@ 100c36b8     LIBCMTD:winapinls.obj
 0002:000156c0       ??_C@_15FEDGKCDI@?$AAr?$AAu?$AA?$AA@ 100c36c0     LIBCMTD:winapinls.obj
 0002:000156c8       ??_C@_15GLKMLLHM@?$AAh?$AAr?$AA?$AA@ 100c36c8     LIBCMTD:winapinls.obj
 0002:000156d0       ??_C@_15CPKMFBDB@?$AAs?$AAk?$AA?$AA@ 100c36d0     LIBCMTD:winapinls.obj
 0002:000156d8       ??_C@_15BAAIOGMK@?$AAs?$AAq?$AA?$AA@ 100c36d8     LIBCMTD:winapinls.obj
 0002:000156e0       ??_C@_15INNPNOHD@?$AAs?$AAv?$AA?$AA@ 100c36e0     LIBCMTD:winapinls.obj
 0002:000156e8       ??_C@_15CABMMOGH@?$AAt?$AAh?$AA?$AA@ 100c36e8     LIBCMTD:winapinls.obj
 0002:000156f0       ??_C@_15BPLIHJJM@?$AAt?$AAr?$AA?$AA@ 100c36f0     LIBCMTD:winapinls.obj
 0002:000156f8       ??_C@_15NEOEKKDJ@?$AAu?$AAr?$AA?$AA@ 100c36f8     LIBCMTD:winapinls.obj
 0002:00015700       ??_C@_15NFICGAJK@?$AAi?$AAd?$AA?$AA@ 100c3700     LIBCMTD:winapinls.obj
 0002:00015708       ??_C@_15PJPFLCCM@?$AAu?$AAk?$AA?$AA@ 100c3708     LIBCMTD:winapinls.obj
 0002:00015710       ??_C@_15HPJPHDM@?$AAb?$AAe?$AA?$AA@ 100c3710     LIBCMTD:winapinls.obj
 0002:00015718       ??_C@_15LCHLGJII@?$AAs?$AAl?$AA?$AA@ 100c3718     LIBCMTD:winapinls.obj
 0002:00015720       ??_C@_15PCFJPHHO@?$AAe?$AAt?$AA?$AA@ 100c3720     LIBCMTD:winapinls.obj
 0002:00015728       ??_C@_15HPFPGODN@?$AAl?$AAv?$AA?$AA@ 100c3728     LIBCMTD:winapinls.obj
 0002:00015730       ??_C@_15NFFGKGLG@?$AAl?$AAt?$AA?$AA@ 100c3730     LIBCMTD:winapinls.obj
 0002:00015738       ??_C@_15BDAKCCHN@?$AAf?$AAa?$AA?$AA@ 100c3738     LIBCMTD:winapinls.obj
 0002:00015740       ??_C@_15NFGIAIAJ@?$AAv?$AAi?$AA?$AA@ 100c3740     LIBCMTD:winapinls.obj
 0002:00015748       ??_C@_15LMKNDMHN@?$AAh?$AAy?$AA?$AA@ 100c3748     LIBCMTD:winapinls.obj
 0002:00015750       ??_C@_15IJBHMCFL@?$AAa?$AAz?$AA?$AA@ 100c3750     LIBCMTD:winapinls.obj
 0002:00015758       ??_C@_15EKOFJABL@?$AAe?$AAu?$AA?$AA@ 100c3758     LIBCMTD:winapinls.obj
 0002:00015760       ??_C@_15BGHADCNK@?$AAm?$AAk?$AA?$AA@ 100c3760     LIBCMTD:winapinls.obj
 0002:00015768       ??_C@_15JDNICKHM@?$AAa?$AAf?$AA?$AA@ 100c3768     LIBCMTD:winapinls.obj
 0002:00015770       ??_C@_15KPJEDBKD@?$AAk?$AAa?$AA?$AA@ 100c3770     LIBCMTD:winapinls.obj
 0002:00015778       ??_C@_15PDNFFFEO@?$AAf?$AAo?$AA?$AA@ 100c3778     LIBCMTD:winapinls.obj
 0002:00015780       ??_C@_15OMLEGLOC@?$AAh?$AAi?$AA?$AA@ 100c3780     LIBCMTD:winapinls.obj
 0002:00015788       ??_C@_15IDNNENKK@?$AAm?$AAs?$AA?$AA@ 100c3788     LIBCMTD:winapinls.obj
 0002:00015790       ??_C@_15MACJNBMH@?$AAk?$AAk?$AA?$AA@ 100c3790     LIBCMTD:winapinls.obj
 0002:00015798       ??_C@_15DKDJEOND@?$AAk?$AAy?$AA?$AA@ 100c3798     LIBCMTD:winapinls.obj
 0002:000157a0       ??_C@_15DFGDLJBG@?$AAs?$AAw?$AA?$AA@ 100c37a0     LIBCMTD:winapinls.obj
 0002:000157a8       ??_C@_15BBFAICNG@?$AAu?$AAz?$AA?$AA@ 100c37a8     LIBCMTD:winapinls.obj
 0002:000157b0       ??_C@_15DKNDCGEA@?$AAt?$AAt?$AA?$AA@ 100c37b0     LIBCMTD:winapinls.obj
 0002:000157b8       ??_C@_15MGIFMDPL@?$AAp?$AAa?$AA?$AA@ 100c37b8     LIBCMTD:winapinls.obj
 0002:000157c0       ??_C@_15HCNDBBA@?$AAg?$AAu?$AA?$AA@ 100c37c0     LIBCMTD:winapinls.obj
 0002:000157c8       ??_C@_15FNBEIBON@?$AAt?$AAa?$AA?$AA@ 100c37c8     LIBCMTD:winapinls.obj
 0002:000157d0       ??_C@_15NCHGBGLK@?$AAt?$AAe?$AA?$AA@ 100c37d0     LIBCMTD:winapinls.obj
 0002:000157d8       ??_C@_15PHPHCBPF@?$AAk?$AAn?$AA?$AA@ 100c37d8     LIBCMTD:winapinls.obj
 0002:000157e0       ??_C@_15DLGBCKMP@?$AAm?$AAr?$AA?$AA@ 100c37e0     LIBCMTD:winapinls.obj
 0002:000157e8       ??_C@_15EABBLBFF@?$AAs?$AAa?$AA?$AA@ 100c37e8     LIBCMTD:winapinls.obj
 0002:000157f0       ??_C@_15CBKOMCOI@?$AAm?$AAn?$AA?$AA@ 100c37f0     LIBCMTD:winapinls.obj
 0002:000157f8       ??_C@_15CKDMCJAF@?$AAg?$AAl?$AA?$AA@ 100c37f8     LIBCMTD:winapinls.obj
 0002:00015800       ??_C@_17CNJFBPG@?$AAk?$AAo?$AAk?$AA?$AA@ 100c3800     LIBCMTD:winapinls.obj
 0002:00015808       ??_C@_17FFBJICPL@?$AAs?$AAy?$AAr?$AA?$AA@ 100c3808     LIBCMTD:winapinls.obj
 0002:00015810       ??_C@_17KPNDCPAF@?$AAd?$AAi?$AAv?$AA?$AA@ 100c3810     LIBCMTD:winapinls.obj
 0002:00015818       ??_C@_1M@OKAHONE@?$AAa?$AAr?$AA?9?$AAS?$AAA?$AA?$AA@ 100c3818     LIBCMTD:winapinls.obj
 0002:00015824       ??_C@_1M@FFFIGIGK@?$AAb?$AAg?$AA?9?$AAB?$AAG?$AA?$AA@ 100c3824     LIBCMTD:winapinls.obj
 0002:00015830       ??_C@_1M@BJNKEDC@?$AAc?$AAa?$AA?9?$AAE?$AAS?$AA?$AA@ 100c3830     LIBCMTD:winapinls.obj
 0002:0001583c       ??_C@_1M@IJJHFJHA@?$AAc?$AAs?$AA?9?$AAC?$AAZ?$AA?$AA@ 100c383c     LIBCMTD:winapinls.obj
 0002:00015848       ??_C@_1M@CLPEOBGI@?$AAd?$AAa?$AA?9?$AAD?$AAK?$AA?$AA@ 100c3848     LIBCMTD:winapinls.obj
 0002:00015854       ??_C@_1M@MCMADGCB@?$AAd?$AAe?$AA?9?$AAD?$AAE?$AA?$AA@ 100c3854     LIBCMTD:winapinls.obj
 0002:00015860       ??_C@_1M@OOCKEMAM@?$AAe?$AAl?$AA?9?$AAG?$AAR?$AA?$AA@ 100c3860     LIBCMTD:winapinls.obj
 0002:0001586c       ??_C@_1M@DDNJFGID@?$AAf?$AAi?$AA?9?$AAF?$AAI?$AA?$AA@ 100c386c     LIBCMTD:winapinls.obj
 0002:00015878       ??_C@_1M@GLIPPMAC@?$AAf?$AAr?$AA?9?$AAF?$AAR?$AA?$AA@ 100c3878     LIBCMTD:winapinls.obj
 0002:00015884       ??_C@_1M@GFMCHPE@?$AAh?$AAe?$AA?9?$AAI?$AAL?$AA?$AA@ 100c3884     LIBCMTD:winapinls.obj
 0002:00015890       ??_C@_1M@MHLPGNKM@?$AAh?$AAu?$AA?9?$AAH?$AAU?$AA?$AA@ 100c3890     LIBCMTD:winapinls.obj
 0002:0001589c       ??_C@_1M@LPDDNNPN@?$AAi?$AAs?$AA?9?$AAI?$AAS?$AA?$AA@ 100c389c     LIBCMTD:winapinls.obj
 0002:000158a8       ??_C@_1M@MADIPODN@?$AAi?$AAt?$AA?9?$AAI?$AAT?$AA?$AA@ 100c38a8     LIBCMTD:winapinls.obj
 0002:000158b4       ??_C@_1M@IHBJJGG@?$AAn?$AAl?$AA?9?$AAN?$AAL?$AA?$AA@ 100c38b4     LIBCMTD:winapinls.obj
 0002:000158c0       ??_C@_1M@EANAGDL@?$AAn?$AAb?$AA?9?$AAN?$AAO?$AA?$AA@ 100c38c0     LIBCMTD:winapinls.obj
 0002:000158cc       ??_C@_1M@NEIEMEGP@?$AAp?$AAl?$AA?9?$AAP?$AAL?$AA?$AA@ 100c38cc     LIBCMTD:winapinls.obj
 0002:000158d8       ??_C@_1M@BOCFIGEP@?$AAp?$AAt?$AA?9?$AAB?$AAR?$AA?$AA@ 100c38d8     LIBCMTD:winapinls.obj
 0002:000158e4       ??_C@_1M@IMPFOPBG@?$AAr?$AAo?$AA?9?$AAR?$AAO?$AA?$AA@ 100c38e4     LIBCMTD:winapinls.obj
 0002:000158f0       ??_C@_1M@IDNNEJMM@?$AAr?$AAu?$AA?9?$AAR?$AAU?$AA?$AA@ 100c38f0     LIBCMTD:winapinls.obj
 0002:000158fc       ??_C@_1M@LILEEOGM@?$AAh?$AAr?$AA?9?$AAH?$AAR?$AA?$AA@ 100c38fc     LIBCMTD:winapinls.obj
 0002:00015908       ??_C@_1M@FKIFEHPB@?$AAs?$AAk?$AA?9?$AAS?$AAK?$AA?$AA@ 100c3908     LIBCMTD:winapinls.obj
 0002:00015914       ??_C@_1M@LJMAMNPJ@?$AAs?$AAq?$AA?9?$AAA?$AAL?$AA?$AA@ 100c3914     LIBCMTD:winapinls.obj
 0002:00015920       ??_C@_1M@GIAKDKJK@?$AAs?$AAv?$AA?9?$AAS?$AAE?$AA?$AA@ 100c3920     LIBCMTD:winapinls.obj
 0002:0001592c       ??_C@_1M@MKJKIKCL@?$AAt?$AAh?$AA?9?$AAT?$AAH?$AA?$AA@ 100c392c     LIBCMTD:winapinls.obj
 0002:00015938       ??_C@_1M@MFLCCMPB@?$AAt?$AAr?$AA?9?$AAT?$AAR?$AA?$AA@ 100c3938     LIBCMTD:winapinls.obj
 0002:00015944       ??_C@_1M@OIJHDKJN@?$AAu?$AAr?$AA?9?$AAP?$AAK?$AA?$AA@ 100c3944     LIBCMTD:winapinls.obj
 0002:00015950       ??_C@_1M@LHIPCIEK@?$AAi?$AAd?$AA?9?$AAI?$AAD?$AA?$AA@ 100c3950     LIBCMTD:winapinls.obj
 0002:0001595c       ??_C@_1M@MFMOBGI@?$AAu?$AAk?$AA?9?$AAU?$AAA?$AA?$AA@ 100c395c     LIBCMTD:winapinls.obj
 0002:00015968       ??_C@_1M@OBGLJIPL@?$AAb?$AAe?$AA?9?$AAB?$AAY?$AA?$AA@ 100c3968     LIBCMTD:winapinls.obj
 0002:00015974       ??_C@_1M@BCFAJEAD@?$AAs?$AAl?$AA?9?$AAS?$AAI?$AA?$AA@ 100c3974     LIBCMTD:winapinls.obj
 0002:00015980       ??_C@_1M@FKFFEDDN@?$AAe?$AAt?$AA?9?$AAE?$AAE?$AA?$AA@ 100c3980     LIBCMTD:winapinls.obj
 0002:0001598c       ??_C@_1M@KGKKAACI@?$AAl?$AAv?$AA?9?$AAL?$AAV?$AA?$AA@ 100c398c     LIBCMTD:winapinls.obj
 0002:00015998       ??_C@_1M@IFGBIJO@?$AAl?$AAt?$AA?9?$AAL?$AAT?$AA?$AA@ 100c3998     LIBCMTD:winapinls.obj
 0002:000159a4       ??_C@_1M@FGEAHEDM@?$AAf?$AAa?$AA?9?$AAI?$AAR?$AA?$AA@ 100c39a4     LIBCMTD:winapinls.obj
 0002:000159b0       ??_C@_1M@KBMAIBFN@?$AAv?$AAi?$AA?9?$AAV?$AAN?$AA?$AA@ 100c39b0     LIBCMTD:winapinls.obj
 0002:000159bc       ??_C@_1M@GPCBKDJK@?$AAh?$AAy?$AA?9?$AAA?$AAM?$AA?$AA@ 100c39bc     LIBCMTD:winapinls.obj
 0002:000159c8       ??_C@_1BG@BECMDDJB@?$AAa?$AAz?$AA?9?$AAA?$AAZ?$AA?9?$AAL?$AAa?$AAt?$AAn?$AA?$AA@ 100c39c8     LIBCMTD:winapinls.obj
 0002:000159e0       ??_C@_1M@MAOFCAEA@?$AAe?$AAu?$AA?9?$AAE?$AAS?$AA?$AA@ 100c39e0     LIBCMTD:winapinls.obj
 0002:000159ec       ??_C@_1M@IGHABKPI@?$AAm?$AAk?$AA?9?$AAM?$AAK?$AA?$AA@ 100c39ec     LIBCMTD:winapinls.obj
 0002:000159f8       ??_C@_1M@IAIGNEJG@?$AAt?$AAn?$AA?9?$AAZ?$AAA?$AA?$AA@ 100c39f8     LIBCMTD:winapinls.obj
 0002:00015a04       ??_C@_1M@IIJCOJFA@?$AAx?$AAh?$AA?9?$AAZ?$AAA?$AA?$AA@ 100c3a04     LIBCMTD:winapinls.obj
 0002:00015a10       ??_C@_1M@LGPJHNJH@?$AAz?$AAu?$AA?9?$AAZ?$AAA?$AA?$AA@ 100c3a10     LIBCMTD:winapinls.obj
 0002:00015a1c       ??_C@_1M@HOKAOIO@?$AAa?$AAf?$AA?9?$AAZ?$AAA?$AA?$AA@ 100c3a1c     LIBCMTD:winapinls.obj
 0002:00015a28       ??_C@_1M@DPCLHLIE@?$AAk?$AAa?$AA?9?$AAG?$AAE?$AA?$AA@ 100c3a28     LIBCMTD:winapinls.obj
 0002:00015a34       ??_C@_1M@BLKMHJBI@?$AAf?$AAo?$AA?9?$AAF?$AAO?$AA?$AA@ 100c3a34     LIBCMTD:winapinls.obj
 0002:00015a40       ??_C@_1M@LGGJAPPB@?$AAh?$AAi?$AA?9?$AAI?$AAN?$AA?$AA@ 100c3a40     LIBCMTD:winapinls.obj
 0002:00015a4c       ??_C@_1M@FIKPIHFE@?$AAm?$AAt?$AA?9?$AAM?$AAT?$AA?$AA@ 100c3a4c     LIBCMTD:winapinls.obj
 0002:00015a58       ??_C@_1M@HEGGPBFA@?$AAs?$AAe?$AA?9?$AAN?$AAO?$AA?$AA@ 100c3a58     LIBCMTD:winapinls.obj
 0002:00015a64       ??_C@_1M@EIBJEEPA@?$AAm?$AAs?$AA?9?$AAM?$AAY?$AA?$AA@ 100c3a64     LIBCMTD:winapinls.obj
 0002:00015a70       ??_C@_1M@FHLBGMPP@?$AAk?$AAk?$AA?9?$AAK?$AAZ?$AA?$AA@ 100c3a70     LIBCMTD:winapinls.obj
 0002:00015a7c       ??_C@_1M@NGJJLCGI@?$AAk?$AAy?$AA?9?$AAK?$AAG?$AA?$AA@ 100c3a7c     LIBCMTD:winapinls.obj
 0002:00015a88       ??_C@_1M@GIENNBFC@?$AAs?$AAw?$AA?9?$AAK?$AAE?$AA?$AA@ 100c3a88     LIBCMTD:winapinls.obj
 0002:00015a94       ??_C@_1BG@NDGMJIMJ@?$AAu?$AAz?$AA?9?$AAU?$AAZ?$AA?9?$AAL?$AAa?$AAt?$AAn?$AA?$AA@ 100c3a94     LIBCMTD:winapinls.obj
 0002:00015aac       ??_C@_1M@IDCCIHBC@?$AAt?$AAt?$AA?9?$AAR?$AAU?$AA?$AA@ 100c3aac     LIBCMTD:winapinls.obj
 0002:00015ab8       ??_C@_1M@LOICPMOJ@?$AAb?$AAn?$AA?9?$AAI?$AAN?$AA?$AA@ 100c3ab8     LIBCMTD:winapinls.obj
 0002:00015ac4       ??_C@_1M@KPKKNEAH@?$AAp?$AAa?$AA?9?$AAI?$AAN?$AA?$AA@ 100c3ac4     LIBCMTD:winapinls.obj
 0002:00015ad0       ??_C@_1M@PJGPPBOG@?$AAg?$AAu?$AA?9?$AAI?$AAN?$AA?$AA@ 100c3ad0     LIBCMTD:winapinls.obj
 0002:00015adc       ??_C@_1M@KMKMOPHI@?$AAt?$AAa?$AA?9?$AAI?$AAN?$AA?$AA@ 100c3adc     LIBCMTD:winapinls.obj
 0002:00015ae8       ??_C@_1M@KFEHEPAC@?$AAt?$AAe?$AA?9?$AAI?$AAN?$AA?$AA@ 100c3ae8     LIBCMTD:winapinls.obj
 0002:00015af4       ??_C@_1M@CDCLMGHI@?$AAk?$AAn?$AA?9?$AAI?$AAN?$AA?$AA@ 100c3af4     LIBCMTD:winapinls.obj
 0002:00015b00       ??_C@_1M@MIODLDKF@?$AAm?$AAl?$AA?9?$AAI?$AAN?$AA?$AA@ 100c3b00     LIBCMTD:winapinls.obj
 0002:00015b0c       ??_C@_1M@PBIEACPO@?$AAm?$AAr?$AA?9?$AAI?$AAN?$AA?$AA@ 100c3b0c     LIBCMTD:winapinls.obj
 0002:00015b18       ??_C@_1M@NIDEAGPH@?$AAs?$AAa?$AA?9?$AAI?$AAN?$AA?$AA@ 100c3b18     LIBCMTD:winapinls.obj
 0002:00015b24       ??_C@_1M@FHIHCBIO@?$AAm?$AAn?$AA?9?$AAM?$AAN?$AA?$AA@ 100c3b24     LIBCMTD:winapinls.obj
 0002:00015b30       ??_C@_1M@JAIJPENP@?$AAc?$AAy?$AA?9?$AAG?$AAB?$AA?$AA@ 100c3b30     LIBCMTD:winapinls.obj
 0002:00015b3c       ??_C@_1M@PHGFBEPN@?$AAg?$AAl?$AA?9?$AAE?$AAS?$AA?$AA@ 100c3b3c     LIBCMTD:winapinls.obj
 0002:00015b48       ??_C@_1O@KPIPDNCP@?$AAk?$AAo?$AAk?$AA?9?$AAI?$AAN?$AA?$AA@ 100c3b48     LIBCMTD:winapinls.obj
 0002:00015b58       ??_C@_1O@KNHJLDJA@?$AAs?$AAy?$AAr?$AA?9?$AAS?$AAY?$AA?$AA@ 100c3b58     LIBCMTD:winapinls.obj
 0002:00015b68       ??_C@_1O@MKEKBLAH@?$AAd?$AAi?$AAv?$AA?9?$AAM?$AAV?$AA?$AA@ 100c3b68     LIBCMTD:winapinls.obj
 0002:00015b78       ??_C@_1O@OHDCKDDF@?$AAq?$AAu?$AAz?$AA?9?$AAB?$AAO?$AA?$AA@ 100c3b78     LIBCMTD:winapinls.obj
 0002:00015b88       ??_C@_1M@LEPJNLFD@?$AAn?$AAs?$AA?9?$AAZ?$AAA?$AA?$AA@ 100c3b88     LIBCMTD:winapinls.obj
 0002:00015b94       ??_C@_1M@OMLEIIJB@?$AAm?$AAi?$AA?9?$AAN?$AAZ?$AA?$AA@ 100c3b94     LIBCMTD:winapinls.obj
 0002:00015ba0       ??_C@_1M@PMPEAILG@?$AAa?$AAr?$AA?9?$AAI?$AAQ?$AA?$AA@ 100c3ba0     LIBCMTD:winapinls.obj
 0002:00015bac       ??_C@_1M@CNKPNOEE@?$AAd?$AAe?$AA?9?$AAC?$AAH?$AA?$AA@ 100c3bac     LIBCMTD:winapinls.obj
 0002:00015bb8       ??_C@_1M@LKMGMLKO@?$AAe?$AAn?$AA?9?$AAG?$AAB?$AA?$AA@ 100c3bb8     LIBCMTD:winapinls.obj
 0002:00015bc4       ??_C@_1M@PGKJFFGL@?$AAe?$AAs?$AA?9?$AAM?$AAX?$AA?$AA@ 100c3bc4     LIBCMTD:winapinls.obj
 0002:00015bd0       ??_C@_1M@DNNANBDC@?$AAf?$AAr?$AA?9?$AAB?$AAE?$AA?$AA@ 100c3bd0     LIBCMTD:winapinls.obj
 0002:00015bdc       ??_C@_1M@HLGMDFHM@?$AAi?$AAt?$AA?9?$AAC?$AAH?$AA?$AA@ 100c3bdc     LIBCMTD:winapinls.obj
 0002:00015be8       ??_C@_1M@CLLBGJH@?$AAn?$AAl?$AA?9?$AAB?$AAE?$AA?$AA@ 100c3be8     LIBCMTD:winapinls.obj
 0002:00015bf4       ??_C@_1M@BODBOGLF@?$AAn?$AAn?$AA?9?$AAN?$AAO?$AA?$AA@ 100c3bf4     LIBCMTD:winapinls.obj
 0002:00015c00       ??_C@_1M@HFFAHKAD@?$AAp?$AAt?$AA?9?$AAP?$AAT?$AA?$AA@ 100c3c00     LIBCMTD:winapinls.obj
 0002:00015c0c       ??_C@_1BG@LNOAKHIE@?$AAs?$AAr?$AA?9?$AAS?$AAP?$AA?9?$AAL?$AAa?$AAt?$AAn?$AA?$AA@ 100c3c0c     LIBCMTD:winapinls.obj
 0002:00015c24       ??_C@_1M@HBMHBGAK@?$AAs?$AAv?$AA?9?$AAF?$AAI?$AA?$AA@ 100c3c24     LIBCMTD:winapinls.obj
 0002:00015c30       ??_C@_1BG@DGCJGJBE@?$AAa?$AAz?$AA?9?$AAA?$AAZ?$AA?9?$AAC?$AAy?$AAr?$AAl?$AA?$AA@ 100c3c30     LIBCMTD:winapinls.obj
 0002:00015c48       ??_C@_1M@KEJDAAHB@?$AAs?$AAe?$AA?9?$AAS?$AAE?$AA?$AA@ 100c3c48     LIBCMTD:winapinls.obj
 0002:00015c54       ??_C@_1M@HEIBJJAD@?$AAm?$AAs?$AA?9?$AAB?$AAN?$AA?$AA@ 100c3c54     LIBCMTD:winapinls.obj
 0002:00015c60       ??_C@_1BG@PBGJMCEM@?$AAu?$AAz?$AA?9?$AAU?$AAZ?$AA?9?$AAC?$AAy?$AAr?$AAl?$AA?$AA@ 100c3c60     LIBCMTD:winapinls.obj
 0002:00015c78       ??_C@_1O@LAOBCMDF@?$AAq?$AAu?$AAz?$AA?9?$AAE?$AAC?$AA?$AA@ 100c3c78     LIBCMTD:winapinls.obj
 0002:00015c88       ??_C@_1M@POEEMAIO@?$AAa?$AAr?$AA?9?$AAE?$AAG?$AA?$AA@ 100c3c88     LIBCMTD:winapinls.obj
 0002:00015c94       ??_C@_1M@EFAKDEDL@?$AAz?$AAh?$AA?9?$AAH?$AAK?$AA?$AA@ 100c3c94     LIBCMTD:winapinls.obj
 0002:00015ca0       ??_C@_1M@HKKIJHGI@?$AAd?$AAe?$AA?9?$AAA?$AAT?$AA?$AA@ 100c3ca0     LIBCMTD:winapinls.obj
 0002:00015cac       ??_C@_1M@KBFBEHJF@?$AAe?$AAn?$AA?9?$AAA?$AAU?$AA?$AA@ 100c3cac     LIBCMTD:winapinls.obj
 0002:00015cb8       ??_C@_1M@MNPLFAAH@?$AAe?$AAs?$AA?9?$AAE?$AAS?$AA?$AA@ 100c3cb8     LIBCMTD:winapinls.obj
 0002:00015cc4       ??_C@_1M@HJOOJFMA@?$AAf?$AAr?$AA?9?$AAC?$AAA?$AA?$AA@ 100c3cc4     LIBCMTD:winapinls.obj
 0002:00015cd0       ??_C@_1BG@JPOFPNAB@?$AAs?$AAr?$AA?9?$AAS?$AAP?$AA?9?$AAC?$AAy?$AAr?$AAl?$AA?$AA@ 100c3cd0     LIBCMTD:winapinls.obj
 0002:00015ce8       ??_C@_1M@LNFOCMOB@?$AAs?$AAe?$AA?9?$AAF?$AAI?$AA?$AA@ 100c3ce8     LIBCMTD:winapinls.obj
 0002:00015cf4       ??_C@_1O@MGJBOAMB@?$AAq?$AAu?$AAz?$AA?9?$AAP?$AAE?$AA?$AA@ 100c3cf4     LIBCMTD:winapinls.obj
 0002:00015d04       ??_C@_1M@GJINLBOK@?$AAa?$AAr?$AA?9?$AAL?$AAY?$AA?$AA@ 100c3d04     LIBCMTD:winapinls.obj
 0002:00015d10       ??_C@_1M@GGMNHJNL@?$AAz?$AAh?$AA?9?$AAS?$AAG?$AA?$AA@ 100c3d10     LIBCMTD:winapinls.obj
 0002:00015d1c       ??_C@_1M@HOIKODND@?$AAd?$AAe?$AA?9?$AAL?$AAU?$AA?$AA@ 100c3d1c     LIBCMTD:winapinls.obj
 0002:00015d28       ??_C@_1M@DDOCCGFG@?$AAe?$AAn?$AA?9?$AAC?$AAA?$AA?$AA@ 100c3d28     LIBCMTD:winapinls.obj
 0002:00015d34       ??_C@_1M@BNOEMJLF@?$AAe?$AAs?$AA?9?$AAG?$AAT?$AA?$AA@ 100c3d34     LIBCMTD:winapinls.obj
 0002:00015d40       ??_C@_1M@EOGNKEK@?$AAf?$AAr?$AA?9?$AAC?$AAH?$AA?$AA@ 100c3d40     LIBCMTD:winapinls.obj
 0002:00015d4c       ??_C@_1M@FLIDJFHL@?$AAh?$AAr?$AA?9?$AAB?$AAA?$AA?$AA@ 100c3d4c     LIBCMTD:winapinls.obj
 0002:00015d58       ??_C@_1O@FMCELNAJ@?$AAs?$AAm?$AAj?$AA?9?$AAN?$AAO?$AA?$AA@ 100c3d58     LIBCMTD:winapinls.obj
 0002:00015d68       ??_C@_1M@JHGLJMGJ@?$AAa?$AAr?$AA?9?$AAD?$AAZ?$AA?$AA@ 100c3d68     LIBCMTD:winapinls.obj
 0002:00015d74       ??_C@_1M@JKKFDCNP@?$AAz?$AAh?$AA?9?$AAM?$AAO?$AA?$AA@ 100c3d74     LIBCMTD:winapinls.obj
 0002:00015d80       ??_C@_1M@GEEFALPE@?$AAd?$AAe?$AA?9?$AAL?$AAI?$AA?$AA@ 100c3d80     LIBCMTD:winapinls.obj
 0002:00015d8c       ??_C@_1M@IGEOFBG@?$AAe?$AAn?$AA?9?$AAN?$AAZ?$AA?$AA@ 100c3d8c     LIBCMTD:winapinls.obj
 0002:00015d98       ??_C@_1M@KDBONEHP@?$AAe?$AAs?$AA?9?$AAC?$AAR?$AA?$AA@ 100c3d98     LIBCMTD:winapinls.obj
 0002:00015da4       ??_C@_1M@FHMDOHNN@?$AAf?$AAr?$AA?9?$AAL?$AAU?$AA?$AA@ 100c3da4     LIBCMTD:winapinls.obj
 0002:00015db0       ??_C@_1BG@NFKKMAFG@?$AAb?$AAs?$AA?9?$AAB?$AAA?$AA?9?$AAL?$AAa?$AAt?$AAn?$AA?$AA@ 100c3db0     LIBCMTD:winapinls.obj
 0002:00015dc8       ??_C@_1O@IMNBEMCI@?$AAs?$AAm?$AAj?$AA?9?$AAS?$AAE?$AA?$AA@ 100c3dc8     LIBCMTD:winapinls.obj
 0002:00015dd8       ??_C@_1M@DHHMBNDP@?$AAa?$AAr?$AA?9?$AAM?$AAA?$AA?$AA@ 100c3dd8     LIBCMTD:winapinls.obj
 0002:00015de4       ??_C@_1M@BNBLJCGH@?$AAe?$AAn?$AA?9?$AAI?$AAE?$AA?$AA@ 100c3de4     LIBCMTD:winapinls.obj
 0002:00015df0       ??_C@_1M@GEPAFMDL@?$AAe?$AAs?$AA?9?$AAP?$AAA?$AA?$AA@ 100c3df0     LIBCMTD:winapinls.obj
 0002:00015dfc       ??_C@_1M@OJONDMDL@?$AAf?$AAr?$AA?9?$AAM?$AAC?$AA?$AA@ 100c3dfc     LIBCMTD:winapinls.obj
 0002:00015e08       ??_C@_1BG@OBCNFJB@?$AAs?$AAr?$AA?9?$AAB?$AAA?$AA?9?$AAL?$AAa?$AAt?$AAn?$AA?$AA@ 100c3e08     LIBCMTD:winapinls.obj
 0002:00015e20       ??_C@_1O@KEMEEGPO@?$AAs?$AAm?$AAa?$AA?9?$AAN?$AAO?$AA?$AA@ 100c3e20     LIBCMTD:winapinls.obj
 0002:00015e30       ??_C@_1M@ELMGFODK@?$AAa?$AAr?$AA?9?$AAT?$AAN?$AA?$AA@ 100c3e30     LIBCMTD:winapinls.obj
 0002:00015e3c       ??_C@_1M@BHDLHFAF@?$AAe?$AAn?$AA?9?$AAZ?$AAA?$AA?$AA@ 100c3e3c     LIBCMTD:winapinls.obj
 0002:00015e48       ??_C@_1M@BMGIGLIF@?$AAe?$AAs?$AA?9?$AAD?$AAO?$AA?$AA@ 100c3e48     LIBCMTD:winapinls.obj
 0002:00015e54       ??_C@_1BG@CMBHIPBE@?$AAs?$AAr?$AA?9?$AAB?$AAA?$AA?9?$AAC?$AAy?$AAr?$AAl?$AA?$AA@ 100c3e54     LIBCMTD:winapinls.obj
 0002:00015e6c       ??_C@_1O@HEDBLHNP@?$AAs?$AAm?$AAa?$AA?9?$AAS?$AAE?$AA?$AA@ 100c3e6c     LIBCMTD:winapinls.obj
 0002:00015e7c       ??_C@_1M@DAGCADIM@?$AAa?$AAr?$AA?9?$AAO?$AAM?$AA?$AA@ 100c3e7c     LIBCMTD:winapinls.obj
 0002:00015e88       ??_C@_1M@FODLMICG@?$AAe?$AAn?$AA?9?$AAJ?$AAM?$AA?$AA@ 100c3e88     LIBCMTD:winapinls.obj
 0002:00015e94       ??_C@_1M@DNMLCIHB@?$AAe?$AAs?$AA?9?$AAV?$AAE?$AA?$AA@ 100c3e94     LIBCMTD:winapinls.obj
 0002:00015ea0       ??_C@_1O@EOKHMKJK@?$AAs?$AAm?$AAs?$AA?9?$AAF?$AAI?$AA?$AA@ 100c3ea0     LIBCMTD:winapinls.obj
 0002:00015eb0       ??_C@_1M@CAFJMKOF@?$AAa?$AAr?$AA?9?$AAY?$AAE?$AA?$AA@ 100c3eb0     LIBCMTD:winapinls.obj
 0002:00015ebc       ??_C@_1M@CBFHIJLI@?$AAe?$AAn?$AA?9?$AAC?$AAB?$AA?$AA@ 100c3ebc     LIBCMTD:winapinls.obj
 0002:00015ec8       ??_C@_1M@BGNFLDN@?$AAe?$AAs?$AA?9?$AAC?$AAO?$AA?$AA@ 100c3ec8     LIBCMTD:winapinls.obj
 0002:00015ed4       ??_C@_1O@JMPHMAMC@?$AAs?$AAm?$AAn?$AA?9?$AAF?$AAI?$AA?$AA@ 100c3ed4     LIBCMTD:winapinls.obj
 0002:00015ee4       ??_C@_1M@JLANABKE@?$AAa?$AAr?$AA?9?$AAS?$AAY?$AA?$AA@ 100c3ee4     LIBCMTD:winapinls.obj
 0002:00015ef0       ??_C@_1M@HPKGCFGN@?$AAe?$AAn?$AA?9?$AAB?$AAZ?$AA?$AA@ 100c3ef0     LIBCMTD:winapinls.obj
 0002:00015efc       ??_C@_1M@OLJCMLGM@?$AAe?$AAs?$AA?9?$AAP?$AAE?$AA?$AA@ 100c3efc     LIBCMTD:winapinls.obj
 0002:00015f08       ??_C@_1M@MKKGFKLE@?$AAa?$AAr?$AA?9?$AAJ?$AAO?$AA?$AA@ 100c3f08     LIBCMTD:winapinls.obj
 0002:00015f14       ??_C@_1M@EKPGLDNI@?$AAe?$AAn?$AA?9?$AAT?$AAT?$AA?$AA@ 100c3f14     LIBCMTD:winapinls.obj
 0002:00015f20       ??_C@_1M@OONGHFHE@?$AAe?$AAs?$AA?9?$AAA?$AAR?$AA?$AA@ 100c3f20     LIBCMTD:winapinls.obj
 0002:00015f2c       ??_C@_1M@OOJFGBHE@?$AAa?$AAr?$AA?9?$AAL?$AAB?$AA?$AA@ 100c3f2c     LIBCMTD:winapinls.obj
 0002:00015f38       ??_C@_1M@GCEJHNEG@?$AAe?$AAn?$AA?9?$AAZ?$AAW?$AA?$AA@ 100c3f38     LIBCMTD:winapinls.obj
 0002:00015f44       ??_C@_1M@JNOCAHJI@?$AAe?$AAs?$AA?9?$AAE?$AAC?$AA?$AA@ 100c3f44     LIBCMTD:winapinls.obj
 0002:00015f50       ??_C@_1M@JEFHPGGB@?$AAa?$AAr?$AA?9?$AAK?$AAW?$AA?$AA@ 100c3f50     LIBCMTD:winapinls.obj
 0002:00015f5c       ??_C@_1M@MLKIBJOJ@?$AAe?$AAn?$AA?9?$AAP?$AAH?$AA?$AA@ 100c3f5c     LIBCMTD:winapinls.obj
 0002:00015f68       ??_C@_1M@BDNIPEND@?$AAe?$AAs?$AA?9?$AAC?$AAL?$AA?$AA@ 100c3f68     LIBCMTD:winapinls.obj
 0002:00015f74       ??_C@_1M@MPNMEKBD@?$AAa?$AAr?$AA?9?$AAA?$AAE?$AA?$AA@ 100c3f74     LIBCMTD:winapinls.obj
 0002:00015f80       ??_C@_1M@KBJALCPI@?$AAe?$AAs?$AA?9?$AAU?$AAY?$AA?$AA@ 100c3f80     LIBCMTD:winapinls.obj
 0002:00015f8c       ??_C@_1M@LLCCOAGA@?$AAa?$AAr?$AA?9?$AAB?$AAH?$AA?$AA@ 100c3f8c     LIBCMTD:winapinls.obj
 0002:00015f98       ??_C@_1M@PBFNCDEL@?$AAe?$AAs?$AA?9?$AAP?$AAY?$AA?$AA@ 100c3f98     LIBCMTD:winapinls.obj
 0002:00015fa4       ??_C@_1M@EDGINPNP@?$AAa?$AAr?$AA?9?$AAQ?$AAA?$AA?$AA@ 100c3fa4     LIBCMTD:winapinls.obj
 0002:00015fb0       ??_C@_1M@MKDBIIJI@?$AAe?$AAs?$AA?9?$AAB?$AAO?$AA?$AA@ 100c3fb0     LIBCMTD:winapinls.obj
 0002:00015fbc       ??_C@_1M@CPKKEBLD@?$AAe?$AAs?$AA?9?$AAS?$AAV?$AA?$AA@ 100c3fbc     LIBCMTD:winapinls.obj
 0002:00015fc8       ??_C@_1M@NDBGMMJL@?$AAe?$AAs?$AA?9?$AAH?$AAN?$AA?$AA@ 100c3fc8     LIBCMTD:winapinls.obj
 0002:00015fd4       ??_C@_1M@JIJIBHDP@?$AAe?$AAs?$AA?9?$AAN?$AAI?$AA?$AA@ 100c3fd4     LIBCMTD:winapinls.obj
 0002:00015fe0       ??_C@_1M@CGFMKEEK@?$AAe?$AAs?$AA?9?$AAP?$AAR?$AA?$AA@ 100c3fe0     LIBCMTD:winapinls.obj
 0002:00015fec       ??_C@_1O@ICJHKIIK@?$AAz?$AAh?$AA?9?$AAC?$AAH?$AAT?$AA?$AA@ 100c3fec     LIBCMTD:winapinls.obj
 0002:00015ffc       ??_C@_15CLNEJCE@?$AAs?$AAr?$AA?$AA@ 100c3ffc     LIBCMTD:winapinls.obj
 0002:00016004       ??_C@_1M@KAHEKEIG@?$AAa?$AAf?$AA?9?$AAz?$AAa?$AA?$AA@ 100c4004     LIBCMTD:winapinls.obj
 0002:00016010       ??_C@_1M@GIECOABL@?$AAa?$AAr?$AA?9?$AAa?$AAe?$AA?$AA@ 100c4010     LIBCMTD:winapinls.obj
 0002:0001601c       ??_C@_1M@BMLMEKGI@?$AAa?$AAr?$AA?9?$AAb?$AAh?$AA?$AA@ 100c401c     LIBCMTD:winapinls.obj
 0002:00016028       ??_C@_1M@DAPFDGGB@?$AAa?$AAr?$AA?9?$AAd?$AAz?$AA?$AA@ 100c4028     LIBCMTD:winapinls.obj
 0002:00016034       ??_C@_1M@FJNKGKIG@?$AAa?$AAr?$AA?9?$AAe?$AAg?$AA?$AA@ 100c4034     LIBCMTD:winapinls.obj
 0002:00016040       ??_C@_1M@FLGKKCLO@?$AAa?$AAr?$AA?9?$AAi?$AAq?$AA?$AA@ 100c4040     LIBCMTD:winapinls.obj
 0002:0001604c       ??_C@_1M@GNDIPALM@?$AAa?$AAr?$AA?9?$AAj?$AAo?$AA?$AA@ 100c404c     LIBCMTD:winapinls.obj
 0002:00016058       ??_C@_1M@DDMJFMGJ@?$AAa?$AAr?$AA?9?$AAk?$AAw?$AA?$AA@ 100c4058     LIBCMTD:winapinls.obj
 0002:00016064       ??_C@_1M@EJALMLHM@?$AAa?$AAr?$AA?9?$AAl?$AAb?$AA?$AA@ 100c4064     LIBCMTD:winapinls.obj
 0002:00016070       ??_C@_1M@MOBDBLOC@?$AAa?$AAr?$AA?9?$AAl?$AAy?$AA?$AA@ 100c4070     LIBCMTD:winapinls.obj
 0002:0001607c       ??_C@_1M@JAOCLHDH@?$AAa?$AAr?$AA?9?$AAm?$AAa?$AA?$AA@ 100c407c     LIBCMTD:winapinls.obj
 0002:00016088       ??_C@_1M@JHPMKJIE@?$AAa?$AAr?$AA?9?$AAo?$AAm?$AA?$AA@ 100c4088     LIBCMTD:winapinls.obj
 0002:00016094       ??_C@_1M@OEPGHFNH@?$AAa?$AAr?$AA?9?$AAq?$AAa?$AA?$AA@ 100c4094     LIBCMTD:winapinls.obj
 0002:000160a0       ??_C@_1M@KJDONENM@?$AAa?$AAr?$AA?9?$AAs?$AAa?$AA?$AA@ 100c40a0     LIBCMTD:winapinls.obj
 0002:000160ac       ??_C@_1M@DMJDKLKM@?$AAa?$AAr?$AA?9?$AAs?$AAy?$AA?$AA@ 100c40ac     LIBCMTD:winapinls.obj
 0002:000160b8       ??_C@_1M@OMFIPEDC@?$AAa?$AAr?$AA?9?$AAt?$AAn?$AA?$AA@ 100c40b8     LIBCMTD:winapinls.obj
 0002:000160c4       ??_C@_1M@IHMHGAON@?$AAa?$AAr?$AA?9?$AAy?$AAe?$AA?$AA@ 100c40c4     LIBCMTD:winapinls.obj
 0002:000160d0       ??_C@_1BG@KDCPGJGB@?$AAa?$AAz?$AA?9?$AAa?$AAz?$AA?9?$AAc?$AAy?$AAr?$AAl?$AA?$AA@ 100c40d0     LIBCMTD:winapinls.obj
 0002:000160e8       ??_C@_1BG@IBCKDDOE@?$AAa?$AAz?$AA?9?$AAa?$AAz?$AA?9?$AAl?$AAa?$AAt?$AAn?$AA?$AA@ 100c40e8     LIBCMTD:winapinls.obj
 0002:00016100       ??_C@_1M@EGPFDCPD@?$AAb?$AAe?$AA?9?$AAb?$AAy?$AA?$AA@ 100c4100     LIBCMTD:winapinls.obj
 0002:0001610c       ??_C@_1M@PCMGMCGC@?$AAb?$AAg?$AA?9?$AAb?$AAg?$AA?$AA@ 100c410c     LIBCMTD:winapinls.obj
 0002:00016118       ??_C@_1M@BJBMFGOB@?$AAb?$AAn?$AA?9?$AAi?$AAn?$AA?$AA@ 100c4118     LIBCMTD:winapinls.obj
 0002:00016124       ??_C@_1BG@EAKMMACD@?$AAb?$AAs?$AA?9?$AAb?$AAa?$AA?9?$AAl?$AAa?$AAt?$AAn?$AA?$AA@ 100c4124     LIBCMTD:winapinls.obj
 0002:0001613c       ??_C@_1M@KGADAODK@?$AAc?$AAa?$AA?9?$AAe?$AAs?$AA?$AA@ 100c413c     LIBCMTD:winapinls.obj
 0002:00016148       ??_C@_1M@COAJPDHI@?$AAc?$AAs?$AA?9?$AAc?$AAz?$AA?$AA@ 100c4148     LIBCMTD:winapinls.obj
 0002:00016154       ??_C@_1M@DHBHFONH@?$AAc?$AAy?$AA?9?$AAg?$AAb?$AA?$AA@ 100c4154     LIBCMTD:winapinls.obj
 0002:00016160       ??_C@_1M@IMGKELGA@?$AAd?$AAa?$AA?9?$AAd?$AAk?$AA?$AA@ 100c4160     LIBCMTD:winapinls.obj
 0002:0001616c       ??_C@_1M@NNDGDNGA@?$AAd?$AAe?$AA?9?$AAa?$AAt?$AA?$AA@ 100c416c     LIBCMTD:winapinls.obj
 0002:00016178       ??_C@_1M@IKDBHEEM@?$AAd?$AAe?$AA?9?$AAc?$AAh?$AA?$AA@ 100c4178     LIBCMTD:winapinls.obj
 0002:00016184       ??_C@_1M@GFFOJMCJ@?$AAd?$AAe?$AA?9?$AAd?$AAe?$AA?$AA@ 100c4184     LIBCMTD:winapinls.obj
 0002:00016190       ??_C@_1M@MDNLKBPM@?$AAd?$AAe?$AA?9?$AAl?$AAi?$AA?$AA@ 100c4190     LIBCMTD:winapinls.obj
 0002:0001619c       ??_C@_1M@NJBEEJNL@?$AAd?$AAe?$AA?9?$AAl?$AAu?$AA?$AA@ 100c419c     LIBCMTD:winapinls.obj
 0002:000161a8       ??_C@_1O@GNNELBAP@?$AAd?$AAi?$AAv?$AA?9?$AAm?$AAv?$AA?$AA@ 100c41a8     LIBCMTD:winapinls.obj
 0002:000161b8       ??_C@_1M@EJLEOGAE@?$AAe?$AAl?$AA?9?$AAg?$AAr?$AA?$AA@ 100c41b8     LIBCMTD:winapinls.obj
 0002:000161c4       ??_C@_1M@GMPONJN@?$AAe?$AAn?$AA?9?$AAa?$AAu?$AA?$AA@ 100c41c4     LIBCMTD:winapinls.obj
 0002:000161d0       ??_C@_1M@NIDIIPGF@?$AAe?$AAn?$AA?9?$AAb?$AAz?$AA?$AA@ 100c41d0     LIBCMTD:winapinls.obj
 0002:000161dc       ??_C@_1M@JEHMIMFO@?$AAe?$AAn?$AA?9?$AAc?$AAa?$AA?$AA@ 100c41dc     LIBCMTD:winapinls.obj
 0002:000161e8       ??_C@_1M@IGMJCDLA@?$AAe?$AAn?$AA?9?$AAc?$AAb?$AA?$AA@ 100c41e8     LIBCMTD:winapinls.obj
 0002:000161f4       ??_C@_1M@BNFIGBKG@?$AAe?$AAn?$AA?9?$AAg?$AAb?$AA?$AA@ 100c41f4     LIBCMTD:winapinls.obj
 0002:00016200       ??_C@_1M@LKIFDIGP@?$AAe?$AAn?$AA?9?$AAi?$AAe?$AA?$AA@ 100c4200     LIBCMTD:winapinls.obj
 0002:0001620c       ??_C@_1M@PJKFGCCO@?$AAe?$AAn?$AA?9?$AAj?$AAm?$AA?$AA@ 100c420c     LIBCMTD:winapinls.obj
 0002:00016218       ??_C@_1M@KPPKEPBO@?$AAe?$AAn?$AA?9?$AAn?$AAz?$AA?$AA@ 100c4218     LIBCMTD:winapinls.obj
 0002:00016224       ??_C@_1M@GMDGLDOB@?$AAe?$AAn?$AA?9?$AAp?$AAh?$AA?$AA@ 100c4224     LIBCMTD:winapinls.obj
 0002:00016230       ??_C@_1M@ONGIBJNA@?$AAe?$AAn?$AA?9?$AAt?$AAt?$AA?$AA@ 100c4230     LIBCMTD:winapinls.obj
 0002:0001623c       ??_C@_1M@LLODPCMM@?$AAe?$AAn?$AA?9?$AAu?$AAs?$AA?$AA@ 100c423c     LIBCMTD:winapinls.obj
 0002:00016248       ??_C@_1M@LAKFNPAN@?$AAe?$AAn?$AA?9?$AAz?$AAa?$AA?$AA@ 100c4248     LIBCMTD:winapinls.obj
 0002:00016254       ??_C@_1M@MFNHNHEO@?$AAe?$AAn?$AA?9?$AAz?$AAw?$AA?$AA@ 100c4254     LIBCMTD:winapinls.obj
 0002:00016260       ??_C@_1M@EJEINPHM@?$AAe?$AAs?$AA?9?$AAa?$AAr?$AA?$AA@ 100c4260     LIBCMTD:winapinls.obj
 0002:0001626c       ??_C@_1M@GNKPCCJA@?$AAe?$AAs?$AA?9?$AAb?$AAo?$AA?$AA@ 100c426c     LIBCMTD:winapinls.obj
 0002:00016278       ??_C@_1M@LEEGFONL@?$AAe?$AAs?$AA?9?$AAc?$AAl?$AA?$AA@ 100c4278     LIBCMTD:winapinls.obj
 0002:00016284       ??_C@_1M@KGPDPBDF@?$AAe?$AAs?$AA?9?$AAc?$AAo?$AA?$AA@ 100c4284     LIBCMTD:winapinls.obj
 0002:00016290       ??_C@_1M@EIAHOHH@?$AAe?$AAs?$AA?9?$AAc?$AAr?$AA?$AA@ 100c4290     LIBCMTD:winapinls.obj
 0002:0001629c       ??_C@_1M@LLPGMBIN@?$AAe?$AAs?$AA?9?$AAd?$AAo?$AA?$AA@ 100c429c     LIBCMTD:winapinls.obj
 0002:000162a8       ??_C@_1M@DKHMKNJA@?$AAe?$AAs?$AA?9?$AAe?$AAc?$AA?$AA@ 100c42a8     LIBCMTD:winapinls.obj
 0002:000162b4       ??_C@_1M@GKGFPKAP@?$AAe?$AAs?$AA?9?$AAe?$AAs?$AA?$AA@ 100c42b4     LIBCMTD:winapinls.obj
 0002:000162c0       ??_C@_1M@LKHKGDLN@?$AAe?$AAs?$AA?9?$AAg?$AAt?$AA?$AA@ 100c42c0     LIBCMTD:winapinls.obj
 0002:000162cc       ??_C@_1M@HEIIGGJD@?$AAe?$AAs?$AA?9?$AAh?$AAn?$AA?$AA@ 100c42cc     LIBCMTD:winapinls.obj
 0002:000162d8       ??_C@_1M@FBDHPPGD@?$AAe?$AAs?$AA?9?$AAm?$AAx?$AA?$AA@ 100c42d8     LIBCMTD:winapinls.obj
 0002:000162e4       ??_C@_1M@DPAGLNDH@?$AAe?$AAs?$AA?9?$AAn?$AAi?$AA?$AA@ 100c42e4     LIBCMTD:winapinls.obj
 0002:000162f0       ??_C@_1M@MDGOPGDD@?$AAe?$AAs?$AA?9?$AAp?$AAa?$AA?$AA@ 100c42f0     LIBCMTD:winapinls.obj
 0002:000162fc       ??_C@_1M@EMAMGBGE@?$AAe?$AAs?$AA?9?$AAp?$AAe?$AA?$AA@ 100c42fc     LIBCMTD:winapinls.obj
 0002:00016308       ??_C@_1M@IBMCAOEC@?$AAe?$AAs?$AA?9?$AAp?$AAr?$AA?$AA@ 100c4308     LIBCMTD:winapinls.obj
 0002:00016314       ??_C@_1M@FGMDIJED@?$AAe?$AAs?$AA?9?$AAp?$AAy?$AA?$AA@ 100c4314     LIBCMTD:winapinls.obj
 0002:00016320       ??_C@_1M@IIDEOLLL@?$AAe?$AAs?$AA?9?$AAs?$AAv?$AA?$AA@ 100c4320     LIBCMTD:winapinls.obj
 0002:0001632c       ??_C@_1M@GAOBIPA@?$AAe?$AAs?$AA?9?$AAu?$AAy?$AA?$AA@ 100c432c     LIBCMTD:winapinls.obj
 0002:00016338       ??_C@_1M@JKFFICHJ@?$AAe?$AAs?$AA?9?$AAv?$AAe?$AA?$AA@ 100c4338     LIBCMTD:winapinls.obj
 0002:00016344       ??_C@_1M@PNMLOJDF@?$AAe?$AAt?$AA?9?$AAe?$AAe?$AA?$AA@ 100c4344     LIBCMTD:winapinls.obj
 0002:00016350       ??_C@_1M@GHHLIKEI@?$AAe?$AAu?$AA?9?$AAe?$AAs?$AA?$AA@ 100c4350     LIBCMTD:winapinls.obj
 0002:0001635c       ??_C@_1M@PBNONODE@?$AAf?$AAa?$AA?9?$AAi?$AAr?$AA?$AA@ 100c435c     LIBCMTD:winapinls.obj
 0002:00016368       ??_C@_1M@JEEHPMIL@?$AAf?$AAi?$AA?9?$AAf?$AAi?$AA?$AA@ 100c4368     LIBCMTD:winapinls.obj
 0002:00016374       ??_C@_1M@LMDCNDBA@?$AAf?$AAo?$AA?9?$AAf?$AAo?$AA?$AA@ 100c4374     LIBCMTD:winapinls.obj
 0002:00016380       ??_C@_1M@JKEOHLDK@?$AAf?$AAr?$AA?9?$AAb?$AAe?$AA?$AA@ 100c4380     LIBCMTD:winapinls.obj
 0002:0001638c       ??_C@_1M@NOHADPMI@?$AAf?$AAr?$AA?9?$AAc?$AAa?$AA?$AA@ 100c438c     LIBCMTD:winapinls.obj
 0002:00016398       ??_C@_1M@KDHIHAEC@?$AAf?$AAr?$AA?9?$AAc?$AAh?$AA?$AA@ 100c4398     LIBCMTD:winapinls.obj
 0002:000163a4       ??_C@_1M@MMBBFGAK@?$AAf?$AAr?$AA?9?$AAf?$AAr?$AA?$AA@ 100c43a4     LIBCMTD:winapinls.obj
 0002:000163b0       ??_C@_1M@PAFNENNF@?$AAf?$AAr?$AA?9?$AAl?$AAu?$AA?$AA@ 100c43b0     LIBCMTD:winapinls.obj
 0002:000163bc       ??_C@_1M@EOHDJGDD@?$AAf?$AAr?$AA?9?$AAm?$AAc?$AA?$AA@ 100c43bc     LIBCMTD:winapinls.obj
 0002:000163c8       ??_C@_1M@FAPLLOPF@?$AAg?$AAl?$AA?9?$AAe?$AAs?$AA?$AA@ 100c43c8     LIBCMTD:winapinls.obj
 0002:000163d4       ??_C@_1M@FOPBFLOO@?$AAg?$AAu?$AA?9?$AAi?$AAn?$AA?$AA@ 100c43d4     LIBCMTD:winapinls.obj
 0002:000163e0       ??_C@_1M@KBMCINPM@?$AAh?$AAe?$AA?9?$AAi?$AAl?$AA?$AA@ 100c43e0     LIBCMTD:winapinls.obj
 0002:000163ec       ??_C@_1M@BBPHKFPJ@?$AAh?$AAi?$AA?9?$AAi?$AAn?$AA?$AA@ 100c43ec     LIBCMTD:winapinls.obj
 0002:000163f8       ??_C@_1M@PMBNDPHD@?$AAh?$AAr?$AA?9?$AAb?$AAa?$AA?$AA@ 100c43f8     LIBCMTD:winapinls.obj
 0002:00016404       ??_C@_1M@BPCKOEGE@?$AAh?$AAr?$AA?9?$AAh?$AAr?$AA?$AA@ 100c4404     LIBCMTD:winapinls.obj
 0002:00016410       ??_C@_1M@GACBMHKE@?$AAh?$AAu?$AA?9?$AAh?$AAu?$AA?$AA@ 100c4410     LIBCMTD:winapinls.obj
 0002:0001641c       ??_C@_1M@MILPAJJC@?$AAh?$AAy?$AA?9?$AAa?$AAm?$AA?$AA@ 100c441c     LIBCMTD:winapinls.obj
 0002:00016428       ??_C@_1M@BABBICEC@?$AAi?$AAd?$AA?9?$AAi?$AAd?$AA?$AA@ 100c4428     LIBCMTD:winapinls.obj
 0002:00016434       ??_C@_1M@BIKNHHPF@?$AAi?$AAs?$AA?9?$AAi?$AAs?$AA?$AA@ 100c4434     LIBCMTD:winapinls.obj
 0002:00016440       ??_C@_1M@NMPCJPHE@?$AAi?$AAt?$AA?9?$AAc?$AAh?$AA?$AA@ 100c4440     LIBCMTD:winapinls.obj
 0002:0001644c       ??_C@_1M@GHKGFEDF@?$AAi?$AAt?$AA?9?$AAi?$AAt?$AA?$AA@ 100c444c     LIBCMTD:winapinls.obj
 0002:00016458       ??_C@_1M@NIEJCJJA@?$AAj?$AAa?$AA?9?$AAj?$AAp?$AA?$AA@ 100c4458     LIBCMTD:winapinls.obj
 0002:00016464       ??_C@_1M@JILFNBIM@?$AAk?$AAa?$AA?9?$AAg?$AAe?$AA?$AA@ 100c4464     LIBCMTD:winapinls.obj
 0002:00016470       ??_C@_1M@PACPMGPH@?$AAk?$AAk?$AA?9?$AAk?$AAz?$AA?$AA@ 100c4470     LIBCMTD:winapinls.obj
 0002:0001647c       ??_C@_1M@IELFGMHA@?$AAk?$AAn?$AA?9?$AAi?$AAn?$AA?$AA@ 100c447c     LIBCMTD:winapinls.obj
 0002:00016488       ??_C@_1O@IBBJHCH@?$AAk?$AAo?$AAk?$AA?9?$AAi?$AAn?$AA?$AA@ 100c4488     LIBCMTD:winapinls.obj
 0002:00016498       ??_C@_1M@DMHAEOGC@?$AAk?$AAo?$AA?9?$AAk?$AAr?$AA?$AA@ 100c4498     LIBCMTD:winapinls.obj
 0002:000164a4       ??_C@_1M@HBAHBIGA@?$AAk?$AAy?$AA?9?$AAk?$AAg?$AA?$AA@ 100c44a4     LIBCMTD:winapinls.obj
 0002:000164b0       ??_C@_1M@KPMILCJG@?$AAl?$AAt?$AA?9?$AAl?$AAt?$AA?$AA@ 100c44b0     LIBCMTD:winapinls.obj
 0002:000164bc       ??_C@_1M@BDEKKCA@?$AAl?$AAv?$AA?9?$AAl?$AAv?$AA?$AA@ 100c44bc     LIBCMTD:winapinls.obj
 0002:000164c8       ??_C@_1GG@BCIJGKDA@?$AAf?$AA?3?$AA?2?$AAd?$AAd?$AA?2?$AAv?$AAc?$AAt?$AAo?$AAo?$AAl?$AAs?$AA?2?$AAc?$AAr?$AAt?$AA_?$AAb?$AAl?$AAd?$AA?2?$AAs?$AAe?$AAl?$AAf?$AA_?$AAx?$AA8?$AA6?$AA?2?$AAc@ 100c44c8     LIBCMTD:winapinls.obj
 0002:00016530       ??_C@_1DO@MBHJDOGM@?$AA_?$AA_?$AAc?$AAr?$AAt?$AAD?$AAo?$AAw?$AAn?$AAl?$AAe?$AAv?$AAe?$AAl?$AAL?$AAC?$AAI?$AAD?$AAT?$AAo?$AAL?$AAo?$AAc?$AAa?$AAl?$AAe?$AAN?$AAa?$AAm?$AAe?$AA?$AA@ 100c4530     LIBCMTD:winapinls.obj
 0002:00016570       ??_C@_1FO@LFACCMJH@?$AAw?$AAc?$AAs?$AAc?$AAp?$AAy?$AA_?$AAs?$AA?$CI?$AAo?$AAu?$AAt?$AAL?$AAo?$AAc?$AAa?$AAl?$AAe?$AAN?$AAa?$AAm?$AAe?$AA?0?$AA?5?$AAc?$AAc?$AAh?$AAL?$AAo?$AAc?$AAa?$AAl@ 100c4570     LIBCMTD:winapinls.obj
 0002:000165d0       ??_C@_1BK@LAOAACLJ@?$AAn?$AAp?$AAt?$AAr?$AA?5?$AA?$CB?$AA?$DN?$AA?5?$AAN?$AAU?$AAL?$AAL?$AA?$AA@ 100c45d0     LIBCMTD:strtol.obj
 0002:000165f0       ??_C@_1GA@IPHKKOEI@?$AAf?$AA?3?$AA?2?$AAd?$AAd?$AA?2?$AAv?$AAc?$AAt?$AAo?$AAo?$AAl?$AAs?$AA?2?$AAc?$AAr?$AAt?$AA_?$AAb?$AAl?$AAd?$AA?2?$AAs?$AAe?$AAl?$AAf?$AA_?$AAx?$AA8?$AA6?$AA?2?$AAc@ 100c45f0     LIBCMTD:strtol.obj
 0002:00016650       ??_C@_1BA@LOLAMAJG@?$AAs?$AAt?$AAr?$AAt?$AAo?$AAx?$AAl?$AA?$AA@ 100c4650     LIBCMTD:strtol.obj
 0002:00016660       ??_C@_1FE@CEHLKAHD@?$AAi?$AAb?$AAa?$AAs?$AAe?$AA?5?$AA?$DN?$AA?$DN?$AA?5?$AA0?$AA?5?$AA?$HM?$AA?$HM?$AA?5?$AA?$CI?$AA2?$AA?5?$AA?$DM?$AA?$DN?$AA?5?$AAi?$AAb?$AAa?$AAs?$AAe?$AA?5?$AA?$CG?$AA?$CG?$AA?5?$AAi?$AAb?$AAa@ 100c4660     LIBCMTD:strtol.obj
 0002:000166b8       ??_C@_1GO@DHMODCKM@?$AAf?$AA?3?$AA?2?$AAd?$AAd?$AA?2?$AAv?$AAc?$AAt?$AAo?$AAo?$AAl?$AAs?$AA?2?$AAc?$AAr?$AAt?$AA_?$AAb?$AAl?$AAd?$AA?2?$AAs?$AAe?$AAl?$AAf?$AA_?$AAx?$AA8?$AA6?$AA?2?$AAc@ 100c46b8     LIBCMTD:wmakepath_s.obj
 0002:00016728       ??_C@_1BK@KHBCJPCH@?$AA_?$AAw?$AAm?$AAa?$AAk?$AAe?$AAp?$AAa?$AAt?$AAh?$AA_?$AAs?$AA?$AA@ 100c4728     LIBCMTD:wmakepath_s.obj
 0002:00016744       ??_C@_1CI@MLPLHPBP@?$AA?$CI?$AA?$CI?$AA?$CI?$AA_?$AAP?$AAa?$AAt?$AAh?$AA?$CJ?$AA?$CJ?$AA?$CJ?$AA?5?$AA?$CB?$AA?$DN?$AA?5?$AAN?$AAU?$AAL?$AAL?$AA?$AA@ 100c4744     LIBCMTD:wsplitpath_s.obj
 0002:00016770       ??_C@_1HA@GHKPFCBF@?$AAf?$AA?3?$AA?2?$AAd?$AAd?$AA?2?$AAv?$AAc?$AAt?$AAo?$AAo?$AAl?$AAs?$AA?2?$AAc?$AAr?$AAt?$AA_?$AAb?$AAl?$AAd?$AA?2?$AAs?$AAe?$AAl?$AAf?$AA_?$AAx?$AA8?$AA6?$AA?2?$AAc@ 100c4770     LIBCMTD:wsplitpath_s.obj
 0002:000167e0       ??_C@_1BM@OEAFIBCF@?$AA_?$AAw?$AAs?$AAp?$AAl?$AAi?$AAt?$AAp?$AAa?$AAt?$AAh?$AA_?$AAs?$AA?$AA@ 100c47e0     LIBCMTD:wsplitpath_s.obj
 0002:000167fc       ??_C@_1DE@MLEJGPLF@?$AA?$CI?$AAL?$AA?$CC?$AAI?$AAn?$AAv?$AAa?$AAl?$AAi?$AAd?$AA?5?$AAp?$AAa?$AAr?$AAa?$AAm?$AAe?$AAt?$AAe?$AAr?$AA?$CC?$AA?0?$AA?5?$AA0?$AA?$CJ?$AA?$AA@ 100c47fc     LIBCMTD:wsplitpath_s.obj
 0002:00016830       ??_C@_0DB@BECNGFDL@f?3?2dd?2vctools?2crt_bld?2self_x86?2c@ 100c4830     LIBCMTD:initmon.obj
 0002:00016864       ??_C@_1DM@GKAPAMDO@?$AAp?$AAl?$AAo?$AAc?$AAi?$AA?9?$AA?$DO?$AAl?$AAc?$AAo?$AAn?$AAv?$AA_?$AAm?$AAo?$AAn?$AA_?$AAr?$AAe?$AAf?$AAc?$AAo?$AAu?$AAn?$AAt?$AA?5?$AA?$DO?$AA?5?$AA0?$AA?$AA@ 100c4864     LIBCMTD:initmon.obj
 0002:000168a0       ??_C@_1GC@IKADOFBJ@?$AAf?$AA?3?$AA?2?$AAd?$AAd?$AA?2?$AAv?$AAc?$AAt?$AAo?$AAo?$AAl?$AAs?$AA?2?$AAc?$AAr?$AAt?$AA_?$AAb?$AAl?$AAd?$AA?2?$AAs?$AAe?$AAl?$AAf?$AA_?$AAx?$AA8?$AA6?$AA?2?$AAc@ 100c48a0     LIBCMTD:initmon.obj
 0002:00016904       ??_C@_0DB@KKFMDHFI@f?3?2dd?2vctools?2crt_bld?2self_x86?2c@ 100c4904     LIBCMTD:initnum.obj
 0002:00016938       ??_C@_1DM@IFKAINNE@?$AAp?$AAl?$AAo?$AAc?$AAi?$AA?9?$AA?$DO?$AAl?$AAc?$AAo?$AAn?$AAv?$AA_?$AAn?$AAu?$AAm?$AA_?$AAr?$AAe?$AAf?$AAc?$AAo?$AAu?$AAn?$AAt?$AA?5?$AA?$DO?$AA?5?$AA0?$AA?$AA@ 100c4938     LIBCMTD:initnum.obj
 0002:00016978       ??_C@_1GC@EDJOCBCL@?$AAf?$AA?3?$AA?2?$AAd?$AAd?$AA?2?$AAv?$AAc?$AAt?$AAo?$AAo?$AAl?$AAs?$AA?2?$AAc?$AAr?$AAt?$AA_?$AAb?$AAl?$AAd?$AA?2?$AAs?$AAe?$AAl?$AAf?$AA_?$AAx?$AA8?$AA6?$AA?2?$AAc@ 100c4978     LIBCMTD:initnum.obj
 0002:000169dc       ??_C@_0DC@KICHHNFK@f?3?2dd?2vctools?2crt_bld?2self_x86?2c@ 100c49dc     LIBCMTD:inittime.obj
 0002:00016a10       ??_C@_1EE@FDHCFDHN@?$AAp?$AAl?$AAo?$AAc?$AAi?$AA?9?$AA?$DO?$AAl?$AAc?$AA_?$AAt?$AAi?$AAm?$AAe?$AA_?$AAc?$AAu?$AAr?$AAr?$AA?9?$AA?$DO?$AAr?$AAe?$AAf?$AAc?$AAo?$AAu?$AAn?$AAt?$AA?5?$AA?$DO?$AA?5@ 100c4a10     LIBCMTD:inittime.obj
 0002:00016a58       ??_C@_1GE@GJCMHHMH@?$AAf?$AA?3?$AA?2?$AAd?$AAd?$AA?2?$AAv?$AAc?$AAt?$AAo?$AAo?$AAl?$AAs?$AA?2?$AAc?$AAr?$AAt?$AA_?$AAb?$AAl?$AAd?$AA?2?$AAs?$AAe?$AAl?$AAf?$AA_?$AAx?$AA8?$AA6?$AA?2?$AAc@ 100c4a58     LIBCMTD:inittime.obj
 0002:00016ac0       ___lc_category             100c4ac0     LIBCMTD:wsetloca.obj
 0002:00016b08       ??_C@_1O@GIFLHMA@?$AAL?$AAC?$AA_?$AAA?$AAL?$AAL?$AA?$AA@ 100c4b08     LIBCMTD:wsetloca.obj
 0002:00016b18       ??_C@_1BG@PPOMIBNJ@?$AAL?$AAC?$AA_?$AAC?$AAO?$AAL?$AAL?$AAA?$AAT?$AAE?$AA?$AA@ 100c4b18     LIBCMTD:wsetloca.obj
 0002:00016b30       ??_C@_1BC@FFJGAPJM@?$AAL?$AAC?$AA_?$AAC?$AAT?$AAY?$AAP?$AAE?$AA?$AA@ 100c4b30     LIBCMTD:wsetloca.obj
 0002:00016b44       ??_C@_1BI@PCKFNJFB@?$AAL?$AAC?$AA_?$AAM?$AAO?$AAN?$AAE?$AAT?$AAA?$AAR?$AAY?$AA?$AA@ 100c4b44     LIBCMTD:wsetloca.obj
 0002:00016b5c       ??_C@_1BG@ENIEDKID@?$AAL?$AAC?$AA_?$AAN?$AAU?$AAM?$AAE?$AAR?$AAI?$AAC?$AA?$AA@ 100c4b5c     LIBCMTD:wsetloca.obj
 0002:00016b74       ??_C@_1BA@HAAOMIIG@?$AAL?$AAC?$AA_?$AAT?$AAI?$AAM?$AAE?$AA?$AA@ 100c4b74     LIBCMTD:wsetloca.obj
 0002:00016c08       ??_C@_1GA@LDEGDKD@?$AA?$CI?$AA?$CC?$AAI?$AAn?$AAv?$AAa?$AAl?$AAi?$AAd?$AA?5?$AAp?$AAa?$AAr?$AAa?$AAm?$AAe?$AAt?$AAe?$AAr?$AA?5?$AAf?$AAo?$AAr?$AA?5?$AA_?$AAc?$AAo?$AAn?$AAf?$AAi?$AAg?$AAt@ 100c4c08     LIBCMTD:wsetloca.obj
 0002:00016c68       ??_C@_1GE@GBFCCMHH@?$AAf?$AA?3?$AA?2?$AAd?$AAd?$AA?2?$AAv?$AAc?$AAt?$AAo?$AAo?$AAl?$AAs?$AA?2?$AAc?$AAr?$AAt?$AA_?$AAb?$AAl?$AAd?$AA?2?$AAs?$AAe?$AAl?$AAf?$AA_?$AAx?$AA8?$AA6?$AA?2?$AAc@ 100c4c68     LIBCMTD:wsetloca.obj
 0002:00016ccc       ??_C@_1CI@FGIONOJM@?$AA_?$AAc?$AAo?$AAn?$AAf?$AAi?$AAg?$AAt?$AAh?$AAr?$AAe?$AAa?$AAd?$AAl?$AAo?$AAc?$AAa?$AAl?$AAe?$AA?$AA@ 100c4ccc     LIBCMTD:wsetloca.obj
 0002:00016cf4       ??_C@_0DC@NCPJHDFJ@f?3?2dd?2vctools?2crt_bld?2self_x86?2c@ 100c4cf4     LIBCMTD:wsetloca.obj
 0002:00016d28       ??_C@_1FG@OHLFEKMC@?$AAL?$AAC?$AA_?$AAM?$AAI?$AAN?$AA?5?$AA?$DM?$AA?$DN?$AA?5?$AA_?$AAc?$AAa?$AAt?$AAe?$AAg?$AAo?$AAr?$AAy?$AA?5?$AA?$CG?$AA?$CG?$AA?5?$AA_?$AAc?$AAa?$AAt?$AAe?$AAg?$AAo?$AAr?$AAy@ 100c4d28     LIBCMTD:wsetloca.obj
 0002:00016d80       ??_C@_1BI@KJNPAEHL@?$AA_?$AAw?$AAs?$AAe?$AAt?$AAl?$AAo?$AAc?$AAa?$AAl?$AAe?$AA?$AA@ 100c4d80     LIBCMTD:wsetloca.obj
 0002:00016d98       ??_C@_15NBPDDFIP@?$AA?$DN?$AA?$DL?$AA?$AA@ 100c4d98     LIBCMTD:wsetloca.obj
 0002:00016da0       ??_C@_13PJJBFPED@?$AA?$DL?$AA?$AA@ 100c4da0     LIBCMTD:wsetloca.obj
 0002:00016da4       ??_C@_1CG@DKJCBBPP@?$AA_?$AAw?$AAs?$AAe?$AAt?$AAl?$AAo?$AAc?$AAa?$AAl?$AAe?$AA_?$AAn?$AAo?$AAl?$AAo?$AAc?$AAk?$AA?$AA@ 100c4da4     LIBCMTD:wsetloca.obj
 0002:00016dd0       ??_C@_1IA@DGCOPCLP@?$AAw?$AAc?$AAs?$AAn?$AAc?$AAp?$AAy?$AA_?$AAs?$AA?$CI?$AAl?$AAc?$AAt?$AAe?$AAm?$AAp?$AA?0?$AA?5?$AA?$CI?$AAs?$AAi?$AAz?$AAe?$AAo?$AAf?$AA?$CI?$AAl?$AAc?$AAt?$AAe?$AAm?$AAp@ 100c4dd0     LIBCMTD:wsetloca.obj
 0002:00016e50       ??_C@_1CI@ODOPEMNJ@?$AA_?$AAw?$AAs?$AAe?$AAt?$AAl?$AAo?$AAc?$AAa?$AAl?$AAe?$AA_?$AAs?$AAe?$AAt?$AA_?$AAc?$AAa?$AAt?$AA?$AA@ 100c4e50     LIBCMTD:wsetloca.obj
 0002:00016e78       ??_C@_1EM@MHOCNIAA@?$AAw?$AAc?$AAs?$AAc?$AAp?$AAy?$AA_?$AAs?$AA?$CI?$AAp?$AAc?$AAh?$AA_?$AAc?$AAa?$AAt?$AA_?$AAl?$AAo?$AAc?$AAa?$AAl?$AAe?$AA?0?$AA?5?$AAc?$AAc?$AAh?$AA?0?$AA?5?$AAl?$AAc@ 100c4e78     LIBCMTD:wsetloca.obj
 0002:00016ec4       ??_C@_13NMPKAAJP@?$AA?$DN?$AA?$AA@ 100c4ec4     LIBCMTD:wsetloca.obj
 0002:00016ec8       ??_C@_1CI@LKOPFFBD@?$AA_?$AAw?$AAs?$AAe?$AAt?$AAl?$AAo?$AAc?$AAa?$AAl?$AAe?$AA_?$AAg?$AAe?$AAt?$AA_?$AAa?$AAl?$AAl?$AA?$AA@ 100c4ec8     LIBCMTD:wsetloca.obj
 0002:00016ef0       ??_C@_1DC@HMLJMODP@?$AAw?$AAc?$AAs?$AAc?$AAa?$AAt?$AA_?$AAs?$AA?$CI?$AAp?$AAc?$AAh?$AA?0?$AA?5?$AAc?$AAc?$AAh?$AA?0?$AA?5?$AAL?$AA?$CC?$AA?$DL?$AA?$CC?$AA?$CJ?$AA?$AA@ 100c4ef0     LIBCMTD:wsetloca.obj
 0002:00016f24       ??_C@_1BM@OIIBLEFG@?$AA_?$AAe?$AAx?$AAp?$AAa?$AAn?$AAd?$AAl?$AAo?$AAc?$AAa?$AAl?$AAe?$AA?$AA@ 100c4f24     LIBCMTD:wsetloca.obj
 0002:00016f40       ??_C@_1BFG@FHLOBJGM@?$AAw?$AAc?$AAs?$AAn?$AAc?$AAp?$AAy?$AA_?$AAs?$AA?$CI?$AAl?$AAo?$AAc?$AAa?$AAl?$AAe?$AAN?$AAa?$AAm?$AAe?$AAO?$AAu?$AAt?$AAp?$AAu?$AAt?$AA?0?$AA?5?$AAl?$AAo?$AAc?$AAa@ 100c4f40     LIBCMTD:wsetloca.obj
 0002:00017098       ??_C@_1EI@OCINLCHN@?$AAw?$AAc?$AAs?$AAc?$AAp?$AAy?$AA_?$AAs?$AA?$CI?$AAo?$AAu?$AAt?$AAp?$AAu?$AAt?$AA?0?$AA?5?$AAs?$AAi?$AAz?$AAe?$AAI?$AAn?$AAC?$AAh?$AAa?$AAr?$AAs?$AA?0?$AA?5?$AAL?$AA?$CC@ 100c5098     LIBCMTD:wsetloca.obj
 0002:000170e0       ??_C@_13FHBKNHDA@?$AAC?$AA?$AA@ 100c50e0     LIBCMTD:wsetloca.obj
 0002:000170e8       ??_C@_1MO@NNCNEOAP@?$AAw?$AAc?$AAs?$AAn?$AAc?$AAp?$AAy?$AA_?$AAs?$AA?$CI?$AAl?$AAo?$AAc?$AAa?$AAl?$AAe?$AAN?$AAa?$AAm?$AAe?$AAO?$AAu?$AAt?$AAp?$AAu?$AAt?$AA?0?$AA?5?$AAl?$AAo?$AAc?$AAa@ 100c50e8     LIBCMTD:wsetloca.obj
 0002:000171b8       ??_C@_1IG@MKDIEKFD@?$AAw?$AAc?$AAs?$AAn?$AAc?$AAp?$AAy?$AA_?$AAs?$AA?$CI?$AAc?$AAa?$AAc?$AAh?$AAe?$AAo?$AAu?$AAt?$AA?0?$AA?5?$AAc?$AAa?$AAc?$AAh?$AAe?$AAo?$AAu?$AAt?$AAL?$AAe?$AAn?$AA?0@ 100c51b8     LIBCMTD:wsetloca.obj
 0002:00017240       ??_C@_1KK@KMIFPBBC@?$AAw?$AAc?$AAs?$AAn?$AAc?$AAp?$AAy?$AA_?$AAs?$AA?$CI?$AAl?$AAo?$AAc?$AAa?$AAl?$AAe?$AAN?$AAa?$AAm?$AAe?$AAO?$AAu?$AAt?$AAp?$AAu?$AAt?$AA?0?$AA?5?$AAl?$AAo?$AAc?$AAa@ 100c5240     LIBCMTD:wsetloca.obj
 0002:000172f0       ??_C@_1BEK@OJDMMIMP@?$AAw?$AAc?$AAs?$AAn?$AAc?$AAp?$AAy?$AA_?$AAs?$AA?$CI?$AA_?$AAp?$AAs?$AAe?$AAt?$AAl?$AAo?$AAc?$AA_?$AAd?$AAa?$AAt?$AAa?$AA?9?$AA?$DO?$AA_?$AAc?$AAa?$AAc?$AAh?$AAe?$AAL@ 100c52f0     LIBCMTD:wsetloca.obj
 0002:00017440       ??_C@_1BGG@FCLLNAOE@?$AAw?$AAc?$AAs?$AAn?$AAc?$AAp?$AAy?$AA_?$AAs?$AA?$CI?$AA_?$AAp?$AAs?$AAe?$AAt?$AAl?$AAo?$AAc?$AA_?$AAd?$AAa?$AAt?$AAa?$AA?9?$AA?$DO?$AA_?$AAc?$AAa?$AAc?$AAh?$AAe?$AAL@ 100c5440     LIBCMTD:wsetloca.obj
 0002:000175a8       ??_C@_1IC@FCCDBGLL@?$AAw?$AAc?$AAs?$AAn?$AAc?$AAp?$AAy?$AA_?$AAs?$AA?$CI?$AAc?$AAa?$AAc?$AAh?$AAe?$AAi?$AAn?$AA?0?$AA?5?$AAc?$AAa?$AAc?$AAh?$AAe?$AAi?$AAn?$AAL?$AAe?$AAn?$AA?0?$AA?5?$AAe@ 100c55a8     LIBCMTD:wsetloca.obj
 0002:00017630       ??_C@_1FA@HOOAAHFF@?$AAw?$AAc?$AAs?$AAc?$AAp?$AAy?$AA_?$AAs?$AA?$CI?$AAo?$AAu?$AAt?$AAp?$AAu?$AAt?$AA?0?$AA?5?$AAs?$AAi?$AAz?$AAe?$AAI?$AAn?$AAC?$AAh?$AAa?$AAr?$AAs?$AA?0?$AA?5?$AAc?$AAa@ 100c5630     LIBCMTD:wsetloca.obj
 0002:00017680       ??_C@_1BC@LEOKFFML@?$AA_?$AAw?$AAc?$AAs?$AAc?$AAa?$AAt?$AAs?$AA?$AA@ 100c5680     LIBCMTD:wsetloca.obj
 0002:00017698       ??_C@_1BII@IONPPCCF@?$AAw?$AAc?$AAs?$AAc?$AAa?$AAt?$AA_?$AAs?$AA?$CI?$AAo?$AAu?$AAt?$AAs?$AAt?$AAr?$AA?0?$AA?5?$AAn?$AAu?$AAm?$AAb?$AAe?$AAr?$AAO?$AAf?$AAE?$AAl?$AAe?$AAm?$AAe?$AAn?$AAt@ 100c5698     LIBCMTD:wsetloca.obj
 0002:00017820       ??_C@_1BK@GNCHCGCN@?$AA_?$AA_?$AAl?$AAc?$AA_?$AAw?$AAc?$AAs?$AAt?$AAo?$AAl?$AAc?$AA?$AA@ 100c5820     LIBCMTD:wsetloca.obj
 0002:00017840       ??_C@_1NI@NELJHJBO@?$AAw?$AAc?$AAs?$AAn?$AAc?$AAp?$AAy?$AA_?$AAs?$AA?$CI?$AAn?$AAa?$AAm?$AAe?$AAs?$AA?9?$AA?$DO?$AAs?$AAz?$AAC?$AAo?$AAd?$AAe?$AAP?$AAa?$AAg?$AAe?$AA?0?$AA?5?$AA?$CI?$AAs?$AAi@ 100c5840     LIBCMTD:wsetloca.obj
 0002:00017918       ??_C@_17MBJJLFDM@?$AA_?$AA?4?$AA?0?$AA?$AA@ 100c5918     LIBCMTD:wsetloca.obj
 0002:00017920       ??_C@_1MO@PBGOIBFL@?$AAw?$AAc?$AAs?$AAn?$AAc?$AAp?$AAy?$AA_?$AAs?$AA?$CI?$AAn?$AAa?$AAm?$AAe?$AAs?$AA?9?$AA?$DO?$AAs?$AAz?$AAL?$AAa?$AAn?$AAg?$AAu?$AAa?$AAg?$AAe?$AA?0?$AA?5?$AA?$CI?$AAs?$AAi@ 100c5920     LIBCMTD:wsetloca.obj
 0002:000179f0       ??_C@_1MI@CLMFNAAJ@?$AAw?$AAc?$AAs?$AAn?$AAc?$AAp?$AAy?$AA_?$AAs?$AA?$CI?$AAn?$AAa?$AAm?$AAe?$AAs?$AA?9?$AA?$DO?$AAs?$AAz?$AAC?$AAo?$AAu?$AAn?$AAt?$AAr?$AAy?$AA?0?$AA?5?$AA?$CI?$AAs?$AAi?$AAz@ 100c59f0     LIBCMTD:wsetloca.obj
 0002:00017ab8       ??_C@_1MO@NBFBMKCB@?$AAw?$AAc?$AAs?$AAn?$AAc?$AAp?$AAy?$AA_?$AAs?$AA?$CI?$AAn?$AAa?$AAm?$AAe?$AAs?$AA?9?$AA?$DO?$AAs?$AAz?$AAC?$AAo?$AAd?$AAe?$AAP?$AAa?$AAg?$AAe?$AA?0?$AA?5?$AA?$CI?$AAs?$AAi@ 100c5ab8     LIBCMTD:wsetloca.obj
 0002:00017b88       ??_C@_1BK@HEBMGPEK@?$AA_?$AA_?$AAl?$AAc?$AA_?$AAl?$AAc?$AAt?$AAo?$AAw?$AAc?$AAs?$AA?$AA@ 100c5b88     LIBCMTD:wsetloca.obj
 0002:00017ba8       ??_C@_1GM@FOFMGOEK@?$AAw?$AAc?$AAs?$AAc?$AAp?$AAy?$AA_?$AAs?$AA?$CI?$AAl?$AAo?$AAc?$AAa?$AAl?$AAe?$AA?0?$AA?5?$AAn?$AAu?$AAm?$AAb?$AAe?$AAr?$AAO?$AAf?$AAE?$AAl?$AAe?$AAm?$AAe?$AAn?$AAt@ 100c5ba8     LIBCMTD:wsetloca.obj
 0002:00017c14       ??_C@_13ENNFDPBH@?$AA_?$AA?$AA@ 100c5c14     LIBCMTD:wsetloca.obj
 0002:00017c18       ??_C@_13JOFGPIOO@?$AA?4?$AA?$AA@ 100c5c18     LIBCMTD:wsetloca.obj
 0002:00017c1c       ??_C@_1CG@HCGEAFEA@?$AA_?$AA_?$AAc?$AAo?$AAp?$AAy?$AA_?$AAl?$AAo?$AAc?$AAa?$AAl?$AAe?$AA_?$AAn?$AAa?$AAm?$AAe?$AA?$AA@ 100c5c1c     LIBCMTD:wsetloca.obj
 0002:00017c48       ??_C@_1GI@HBNMCKGD@?$AAw?$AAc?$AAs?$AAn?$AAc?$AAp?$AAy?$AA_?$AAs?$AA?$CI?$AAl?$AAo?$AAc?$AAa?$AAl?$AAe?$AAN?$AAa?$AAm?$AAe?$AAC?$AAo?$AAp?$AAy?$AA?0?$AA?5?$AAc?$AAc?$AAh?$AA?$CL?$AA1?$AA?0@ 100c5c48     LIBCMTD:wsetloca.obj
 0002:00017cb0       ??_C@_1CA@MBDBOHIB@?$AA_?$AAL?$AAo?$AAc?$AAa?$AAl?$AAe?$AA?5?$AA?$CB?$AA?$DN?$AA?5?$AAN?$AAU?$AAL?$AAL?$AA?$AA@ 100c5cb0     LIBCMTD:strgtold.obj
 0002:00017cd0       ??_C@_1IG@IGKPPFIM@?$AAf?$AA?3?$AA?2?$AAd?$AAd?$AA?2?$AAv?$AAc?$AAt?$AAo?$AAo?$AAl?$AAs?$AA?2?$AAc?$AAr?$AAt?$AA_?$AAb?$AAl?$AAd?$AA?2?$AAs?$AAe?$AAl?$AAf?$AA_?$AAx?$AA8?$AA6?$AA?2?$AAc@ 100c5cd0     LIBCMTD:strgtold.obj
 0002:00017d58       ??_C@_1BO@IHLJHOPI@?$AA_?$AA_?$AAs?$AAt?$AAr?$AAg?$AAt?$AAo?$AAl?$AAd?$AA1?$AA2?$AA_?$AAl?$AA?$AA@ 100c5d58     LIBCMTD:strgtold.obj
 0002:00017d78       ??_C@_1HG@HFJMHCFK@?$AAf?$AA?3?$AA?2?$AAd?$AAd?$AA?2?$AAv?$AAc?$AAt?$AAo?$AAo?$AAl?$AAs?$AA?2?$AAc?$AAr?$AAt?$AA_?$AAb?$AAl?$AAd?$AA?2?$AAs?$AAe?$AAl?$AAf?$AA_?$AAx?$AA8?$AA6?$AA?2?$AAc@ 100c5d78     LIBCMTD:x10fout.obj
 0002:00017df0       ??_C@_1BI@ELMAAFLN@?$AA$?$AAI?$AA1?$AA0?$AA_?$AAO?$AAU?$AAT?$AAP?$AAU?$AAT?$AA?$AA@ 100c5df0     LIBCMTD:x10fout.obj
 0002:00017e08       ??_C@_1EG@CDDBFNOB@?$AAs?$AAt?$AAr?$AAc?$AAp?$AAy?$AA_?$AAs?$AA?$CI?$AAf?$AAo?$AAs?$AA?9?$AA?$DO?$AAm?$AAa?$AAn?$AA?0?$AA?5?$AA2?$AA1?$AA?$CL?$AA1?$AA?0?$AA?5?$AA?$CC?$AA1?$AA?$CD?$AAS?$AAN?$AAA?$AAN@ 100c5e08     LIBCMTD:x10fout.obj
 0002:00017e50       ??_C@_06PGGFOGJG@1?$CDSNAN?$AA@ 100c5e50     LIBCMTD:x10fout.obj
 0002:00017e58       ??_C@_1EE@MADEBIHF@?$AAs?$AAt?$AAr?$AAc?$AAp?$AAy?$AA_?$AAs?$AA?$CI?$AAf?$AAo?$AAs?$AA?9?$AA?$DO?$AAm?$AAa?$AAn?$AA?0?$AA?5?$AA2?$AA1?$AA?$CL?$AA1?$AA?0?$AA?5?$AA?$CC?$AA1?$AA?$CD?$AAI?$AAN?$AAD?$AA?$CC@ 100c5e58     LIBCMTD:x10fout.obj
 0002:00017e9c       ??_C@_05PHHOCPM@1?$CDIND?$AA@ 100c5e9c     LIBCMTD:x10fout.obj
 0002:00017ea8       ??_C@_1EE@ICBBBPAI@?$AAs?$AAt?$AAr?$AAc?$AAp?$AAy?$AA_?$AAs?$AA?$CI?$AAf?$AAo?$AAs?$AA?9?$AA?$DO?$AAm?$AAa?$AAn?$AA?0?$AA?5?$AA2?$AA1?$AA?$CL?$AA1?$AA?0?$AA?5?$AA?$CC?$AA1?$AA?$CD?$AAI?$AAN?$AAF?$AA?$CC@ 100c5ea8     LIBCMTD:x10fout.obj
 0002:00017eec       ??_C@_05DNEBIAHO@1?$CDINF?$AA@ 100c5eec     LIBCMTD:x10fout.obj
 0002:00017ef8       ??_C@_1EG@MCFPJJEM@?$AAs?$AAt?$AAr?$AAc?$AAp?$AAy?$AA_?$AAs?$AA?$CI?$AAf?$AAo?$AAs?$AA?9?$AA?$DO?$AAm?$AAa?$AAn?$AA?0?$AA?5?$AA2?$AA1?$AA?$CL?$AA1?$AA?0?$AA?5?$AA?$CC?$AA1?$AA?$CD?$AAQ?$AAN?$AAA?$AAN@ 100c5ef8     LIBCMTD:x10fout.obj
 0002:00017f40       ??_C@_06IMKFLFPG@1?$CDQNAN?$AA@ 100c5f40     LIBCMTD:x10fout.obj
 0002:00017f48       ___newctype                100c5f48     LIBCMTD:ctype.obj
 0002:00018248       __wctype                   100c6248     LIBCMTD:ctype.obj
 0002:00018450       ___newclmap                100c6450     LIBCMTD:ctype.obj
 0002:000185d0       ___newcumap                100c65d0     LIBCMTD:ctype.obj
 0002:00018750       ?commonFlags@?1??_control87@@9@9 100c6750     LIBCMTD:ieee87.obj
 0002:00018758       ??_C@_1HO@BFDKGHOI@?$AAf?$AA?3?$AA?2?$AAd?$AAd?$AA?2?$AAv?$AAc?$AAt?$AAo?$AAo?$AAl?$AAs?$AA?2?$AAc?$AAr?$AAt?$AA_?$AAb?$AAl?$AAd?$AA?2?$AAs?$AAe?$AAl?$AAf?$AA_?$AAx?$AA8?$AA6?$AA?2?$AAc@ 100c6758     LIBCMTD:ieee87.obj
 0002:000187d8       ??_C@_1BO@OFDNCLL@?$AA_?$AAs?$AAe?$AAt?$AA_?$AAc?$AAo?$AAn?$AAt?$AAr?$AAo?$AAl?$AAf?$AAp?$AA?$AA@ 100c67d8     LIBCMTD:ieee87.obj
 0002:000187f8       ??_C@_1GO@OKJGOMCB@?$AA_?$AAc?$AAo?$AAn?$AAt?$AAr?$AAo?$AAl?$AAf?$AAp?$AA_?$AAs?$AA?$CI?$AA?$CI?$AA?$CI?$AAv?$AAo?$AAi?$AAd?$AA?5?$AA?$CK?$AA?$CJ?$AA0?$AA?$CJ?$AA?0?$AA?5?$AAn?$AAe?$AAw?$AAc?$AAt?$AAr@ 100c67f8     LIBCMTD:ieee87.obj
 0002:00018868       ??_C@_1GE@KINELFI@?$AAf?$AA?3?$AA?2?$AAd?$AAd?$AA?2?$AAv?$AAc?$AAt?$AAo?$AAo?$AAl?$AAs?$AA?2?$AAc?$AAr?$AAt?$AA_?$AAb?$AAl?$AAd?$AA?2?$AAs?$AAe?$AAl?$AAf?$AA_?$AAx?$AA8?$AA6?$AA?2?$AAc@ 100c6868     LIBCMTD:vswprint.obj
 0002:000188cc       ??_C@_1BK@EPLNBKAK@?$AA_?$AAv?$AAs?$AAw?$AAp?$AAr?$AAi?$AAn?$AAt?$AAf?$AA_?$AAl?$AA?$AA@ 100c68cc     LIBCMTD:vswprint.obj
 0002:000188e8       ??_C@_1CG@IMMIEPNA@?$AA_?$AAv?$AAs?$AAc?$AAw?$AAp?$AAr?$AAi?$AAn?$AAt?$AAf?$AA_?$AAh?$AAe?$AAl?$AAp?$AAe?$AAr?$AA?$AA@ 100c68e8     LIBCMTD:vswprint.obj
 0002:00018910       ??_C@_1CE@IGKFIJFD@?$AA_?$AAv?$AAs?$AAw?$AAp?$AAr?$AAi?$AAn?$AAt?$AAf?$AA_?$AAh?$AAe?$AAl?$AAp?$AAe?$AAr?$AA?$AA@ 100c6910     LIBCMTD:vswprnc.obj
 0002:00018934       ??_C@_1BO@OALHJLCI@?$AA_?$AAv?$AAs?$AAw?$AAp?$AAr?$AAi?$AAn?$AAt?$AAf?$AA_?$AAs?$AA_?$AAl?$AA?$AA@ 100c6934     LIBCMTD:vswprnc.obj
 0002:00018958       ??_C@_1EE@MPCHJFGP@?$AAs?$AAt?$AAr?$AAi?$AAn?$AAg?$AA?5?$AA?$CB?$AA?$DN?$AA?5?$AAN?$AAU?$AAL?$AAL?$AA?5?$AA?$CG?$AA?$CG?$AA?5?$AAs?$AAi?$AAz?$AAe?$AAI?$AAn?$AAW?$AAo?$AAr?$AAd?$AAs?$AA?5?$AA?$DO?$AA?5@ 100c6958     LIBCMTD:vswprnc.obj
 0002:0001899c       ??_C@_1CA@BKFKMJFF@?$AA_?$AAv?$AAs?$AAn?$AAw?$AAp?$AAr?$AAi?$AAn?$AAt?$AAf?$AA_?$AAs?$AA_?$AAl?$AA?$AA@ 100c699c     LIBCMTD:vswprnc.obj
 0002:000189bc       ??_C@_1BG@BBCDFOMA@?$AA_?$AAw?$AAo?$AAu?$AAt?$AAp?$AAu?$AAt?$AA_?$AAl?$AA?$AA@ 100c69bc     LIBCMTD:woutput.obj
 0002:000189d4       ??_C@_1BC@HGPNAKGC@?$AAs?$AAt?$AAr?$AAc?$AAa?$AAt?$AA_?$AAs?$AA?$AA@ 100c69d4     LIBCMTD:strcat_s.obj
 0002:000189e8       ??_C@_1FM@MFCBFCGB@?$AAf?$AA?3?$AA?2?$AAd?$AAd?$AA?2?$AAv?$AAc?$AAt?$AAo?$AAo?$AAl?$AAs?$AA?2?$AAc?$AAr?$AAt?$AA_?$AAb?$AAl?$AAd?$AA?2?$AAs?$AAe?$AAl?$AAf?$AA_?$AAx?$AA8?$AA6?$AA?2?$AAc@ 100c69e8     LIBCMTD:xtoas.obj
 0002:00018a44       ??_C@_1O@GIMBNLEI@?$AAx?$AAt?$AAo?$AAa?$AA_?$AAs?$AA?$AA@ 100c6a44     LIBCMTD:xtoas.obj
 0002:00018a54       ??_C@_1CC@JNJFIMGE@?$AAs?$AAi?$AAz?$AAe?$AAI?$AAn?$AAT?$AAC?$AAh?$AAa?$AAr?$AAs?$AA?5?$AA?$DO?$AA?5?$AA0?$AA?$AA@ 100c6a54     LIBCMTD:xtoas.obj
 0002:00018a78       ??_C@_1FA@MKGGAGEI@?$AAs?$AAi?$AAz?$AAe?$AAI?$AAn?$AAT?$AAC?$AAh?$AAa?$AAr?$AAs?$AA?5?$AA?$DO?$AA?5?$AA?$CI?$AAs?$AAi?$AAz?$AAe?$AA_?$AAt?$AA?$CJ?$AA?$CI?$AAi?$AAs?$AA_?$AAn?$AAe?$AAg?$AA?5?$AA?$DP@ 100c6a78     LIBCMTD:xtoas.obj
 0002:00018ac8       ??_C@_1DE@PCJGDBBD@?$AA2?$AA?5?$AA?$DM?$AA?$DN?$AA?5?$AAr?$AAa?$AAd?$AAi?$AAx?$AA?5?$AA?$CG?$AA?$CG?$AA?5?$AAr?$AAa?$AAd?$AAi?$AAx?$AA?5?$AA?$DM?$AA?$DN?$AA?5?$AA3?$AA6?$AA?$AA@ 100c6ac8     LIBCMTD:xtoas.obj
 0002:00018afc       ??_C@_1CM@HABGDNLJ@?$AAl?$AAe?$AAn?$AAg?$AAt?$AAh?$AA?5?$AA?$DM?$AA?5?$AAs?$AAi?$AAz?$AAe?$AAI?$AAn?$AAT?$AAC?$AAh?$AAa?$AAr?$AAs?$AA?$AA@ 100c6afc     LIBCMTD:xtoas.obj
 0002:00018b28       ??_C@_1BC@MJJNBNFN@?$AAx?$AA6?$AA4?$AAt?$AAo?$AAa?$AA_?$AAs?$AA?$AA@ 100c6b28     LIBCMTD:xtoas.obj
 0002:00018b3c       ??_C@_1BE@EEKACIGI@?$AAs?$AA?5?$AA?$CB?$AA?$DN?$AA?5?$AAN?$AAU?$AAL?$AAL?$AA?$AA@ 100c6b3c     LIBCMTD:mbstowcs.obj
 0002:00018b50       ??_C@_1GE@LCCDHBMH@?$AAf?$AA?3?$AA?2?$AAd?$AAd?$AA?2?$AAv?$AAc?$AAt?$AAo?$AAo?$AAl?$AAs?$AA?2?$AAc?$AAr?$AAt?$AA_?$AAb?$AAl?$AAd?$AA?2?$AAs?$AAe?$AAl?$AAf?$AA_?$AAx?$AA8?$AA6?$AA?2?$AAc@ 100c6b50     LIBCMTD:mbstowcs.obj
 0002:00018bb4       ??_C@_1CG@JEHFHLNG@?$AA_?$AAm?$AAb?$AAs?$AAt?$AAo?$AAw?$AAc?$AAs?$AA_?$AAl?$AA_?$AAh?$AAe?$AAl?$AAp?$AAe?$AAr?$AA?$AA@ 100c6bb4     LIBCMTD:mbstowcs.obj
 0002:00018be0       ??_C@_1JA@JKDFMOPO@?$AA?$CI?$AAp?$AAw?$AAc?$AAs?$AA?5?$AA?$DN?$AA?$DN?$AA?5?$AAN?$AAU?$AAL?$AAL?$AA?5?$AA?$CG?$AA?$CG?$AA?5?$AAs?$AAi?$AAz?$AAe?$AAI?$AAn?$AAW?$AAo?$AAr?$AAd?$AAs?$AA?5?$AA?$DN?$AA?$DN?$AA?5@ 100c6be0     LIBCMTD:mbstowcs.obj
 0002:00018c70       ??_C@_1BM@PHENIGHD@?$AA_?$AAm?$AAb?$AAs?$AAt?$AAo?$AAw?$AAc?$AAs?$AA_?$AAs?$AA_?$AAl?$AA?$AA@ 100c6c70     LIBCMTD:mbstowcs.obj
 0002:00018c8c       ??_C@_1CM@LLECFMFH@?$AAb?$AAu?$AAf?$AAf?$AAe?$AAr?$AAS?$AAi?$AAz?$AAe?$AA?5?$AA?$DM?$AA?$DN?$AA?5?$AAI?$AAN?$AAT?$AA_?$AAM?$AAA?$AAX?$AA?$AA@ 100c6c8c     LIBCMTD:mbstowcs.obj
 0002:00018cb8       ??_C@_1CO@JNPEPJAL@?$AAr?$AAe?$AAt?$AAs?$AAi?$AAz?$AAe?$AA?5?$AA?$DM?$AA?$DN?$AA?5?$AAs?$AAi?$AAz?$AAe?$AAI?$AAn?$AAW?$AAo?$AAr?$AAd?$AAs?$AA?$AA@ 100c6cb8     LIBCMTD:mbstowcs.obj
 0002:00018ce8       ??_C@_1BK@OIBENBPM@?$AAp?$AAw?$AAc?$AAs?$AA?5?$AA?$CB?$AA?$DN?$AA?5?$AAN?$AAU?$AAL?$AAL?$AA?$AA@ 100c6ce8     LIBCMTD:wcstombs.obj
 0002:00018d08       ??_C@_1GE@OAENIBOD@?$AAf?$AA?3?$AA?2?$AAd?$AAd?$AA?2?$AAv?$AAc?$AAt?$AAo?$AAo?$AAl?$AAs?$AA?2?$AAc?$AAr?$AAt?$AA_?$AAb?$AAl?$AAd?$AA?2?$AAs?$AAe?$AAl?$AAf?$AA_?$AAx?$AA8?$AA6?$AA?2?$AAc@ 100c6d08     LIBCMTD:wcstombs.obj
 0002:00018d6c       ??_C@_1CG@LLJCAOHF@?$AA_?$AAw?$AAc?$AAs?$AAt?$AAo?$AAm?$AAb?$AAs?$AA_?$AAl?$AA_?$AAh?$AAe?$AAl?$AAp?$AAe?$AAr?$AA?$AA@ 100c6d6c     LIBCMTD:wcstombs.obj
 0002:00018d98       ??_C@_1IM@MFGKHGBP@?$AA?$CI?$AAd?$AAs?$AAt?$AA?5?$AA?$CB?$AA?$DN?$AA?5?$AAN?$AAU?$AAL?$AAL?$AA?5?$AA?$CG?$AA?$CG?$AA?5?$AAs?$AAi?$AAz?$AAe?$AAI?$AAn?$AAB?$AAy?$AAt?$AAe?$AAs?$AA?5?$AA?$DO?$AA?5?$AA0?$AA?$CJ@ 100c6d98     LIBCMTD:wcstombs.obj
 0002:00018e24       ??_C@_1BM@BDMCLLDL@?$AA_?$AAw?$AAc?$AAs?$AAt?$AAo?$AAm?$AAb?$AAs?$AA_?$AAs?$AA_?$AAl?$AA?$AA@ 100c6e24     LIBCMTD:wcstombs.obj
 0002:00018e40       ??_C@_1CM@KEOGBFLI@?$AAs?$AAi?$AAz?$AAe?$AAI?$AAn?$AAB?$AAy?$AAt?$AAe?$AAs?$AA?5?$AA?$DO?$AA?5?$AAr?$AAe?$AAt?$AAs?$AAi?$AAz?$AAe?$AA?$AA@ 100c6e40     LIBCMTD:wcstombs.obj
 0002:00018e6c       ??_C@_1O@NCBFODOE@?$AAx?$AAt?$AAo?$AAw?$AA_?$AAs?$AA?$AA@ 100c6e6c     LIBCMTD:xtows.obj
 0002:00018e7c       ??_C@_1BC@HDEJCFPB@?$AAx?$AA6?$AA4?$AAt?$AAo?$AAw?$AA_?$AAs?$AA?$AA@ 100c6e7c     LIBCMTD:xtows.obj
 0002:00018e90       ??_C@_1O@HFEBJM@?$AA_?$AAw?$AAo?$AAp?$AAe?$AAn?$AA?$AA@ 100c6e90     LIBCMTD:wopen.obj
 0002:00018ea0       ??_C@_1BO@NAANLDBI@?$AA_?$AAw?$AAs?$AAo?$AAp?$AAe?$AAn?$AA_?$AAh?$AAe?$AAl?$AAp?$AAe?$AAr?$AA?$AA@ 100c6ea0     LIBCMTD:wopen.obj
 0002:00018ec0       ??_C@_0M@HHGEPIBF@CreateFile2?$AA@ 100c6ec0     LIBCMTD:wopen.obj
 0002:00018ecc       ??_C@_1BO@JMCLMIEA@?$AA_?$AAw?$AAs?$AAo?$AAp?$AAe?$AAn?$AA_?$AAn?$AAo?$AAl?$AAo?$AAc?$AAk?$AA?$AA@ 100c6ecc     LIBCMTD:wopen.obj
 0002:00018eec       ??_C@_1CG@ICBEBDJJ@?$AA_?$AAg?$AAe?$AAt?$AA_?$AAf?$AAm?$AAo?$AAd?$AAe?$AA?$CI?$AA?$CG?$AAf?$AAm?$AAo?$AAd?$AAe?$AA?$CJ?$AA?$AA@ 100c6eec     LIBCMTD:wopen.obj
 0002:00018f14       ??_C@_1DI@DGKIFCCE@?$AA?$CI?$AA?5?$AA?$CC?$AAI?$AAn?$AAv?$AAa?$AAl?$AAi?$AAd?$AA?5?$AAo?$AAp?$AAe?$AAn?$AA?5?$AAf?$AAl?$AAa?$AAg?$AA?$CC?$AA?5?$AA?0?$AA?5?$AA0?$AA?5?$AA?$CJ?$AA?$AA@ 100c6f14     LIBCMTD:wopen.obj
 0002:00018f4c       ??_C@_1DO@PJLMOANO@?$AA?$CI?$AA?5?$AA?$CC?$AAI?$AAn?$AAv?$AAa?$AAl?$AAi?$AAd?$AA?5?$AAs?$AAh?$AAa?$AAr?$AAi?$AAn?$AAg?$AA?5?$AAf?$AAl?$AAa?$AAg?$AA?$CC?$AA?5?$AA?0?$AA?5?$AA0?$AA?5?$AA?$CJ?$AA?$AA@ 100c6f4c     LIBCMTD:wopen.obj
 0002:00018f90       ??_C@_1HM@GJANBLHJ@?$AA?$CI?$AAo?$AAf?$AAl?$AAa?$AAg?$AA?5?$AA?$CG?$AA?5?$AA?$CI?$AA_?$AAO?$AA_?$AAT?$AAE?$AAX?$AAT?$AA?5?$AA?$HM?$AA?5?$AA_?$AAO?$AA_?$AAW?$AAT?$AAE?$AAX?$AAT?$AA?5?$AA?$HM?$AA?5?$AA_@ 100c6f90     LIBCMTD:wopen.obj
 0002:0001900c       ??_C@_1CM@IDLMKMPG@?$AA0?$AA?5?$AA?$CG?$AA?$CG?$AA?5?$AA?$CC?$AAI?$AAn?$AAt?$AAe?$AAr?$AAn?$AAa?$AAl?$AA?5?$AAE?$AAr?$AAr?$AAo?$AAr?$AA?$CC?$AA?$AA@ 100c700c     LIBCMTD:wopen.obj
 0002:00019038       ??_C@_1IA@IENOJNJF@?$AA0?$AA?5?$AA?$CG?$AA?$CG?$AA?5?$AA?$CC?$AAO?$AAn?$AAl?$AAy?$AA?5?$AAU?$AAT?$AAF?$AA?9?$AA1?$AA6?$AA?5?$AAl?$AAi?$AAt?$AAt?$AAl?$AAe?$AA?5?$AAe?$AAn?$AAd?$AAi?$AAa?$AAn?$AA?5@ 100c7038     LIBCMTD:wopen.obj
 0002:000190b8       ??_C@_1GE@CONPOJMA@?$AAf?$AA?3?$AA?2?$AAd?$AAd?$AA?2?$AAv?$AAc?$AAt?$AAo?$AAo?$AAl?$AAs?$AA?2?$AAc?$AAr?$AAt?$AA_?$AAb?$AAl?$AAd?$AA?2?$AAs?$AAe?$AAl?$AAf?$AA_?$AAx?$AA8?$AA6?$AA?2?$AAc@ 100c70b8     LIBCMTD:strnicmp.obj
 0002:0001911c       ??_C@_1BI@BJLEPLEF@?$AA_?$AAs?$AAt?$AAr?$AAn?$AAi?$AAc?$AAm?$AAp?$AA_?$AAl?$AA?$AA@ 100c711c     LIBCMTD:strnicmp.obj
 0002:00019134       ??_C@_1CC@JLPHKJPH@?$AAc?$AAo?$AAu?$AAn?$AAt?$AA?5?$AA?$DM?$AA?$DN?$AA?5?$AAI?$AAN?$AAT?$AA_?$AAM?$AAA?$AAX?$AA?$AA@ 100c7134     LIBCMTD:strnicmp.obj
 0002:00019158       ??_C@_1BE@BHJDFFNA@?$AA_?$AAs?$AAt?$AAr?$AAn?$AAi?$AAc?$AAm?$AAp?$AA?$AA@ 100c7158     LIBCMTD:strnicmp.obj
 0002:0001916c       ??_C@_0DC@EHLBFILA@f?3?2dd?2vctools?2crt_bld?2self_x86?2c@ 100c716c     LIBCMTD:initctyp.obj
 0002:000191a0       ??_C@_1GE@OCPKBDKE@?$AAf?$AA?3?$AA?2?$AAd?$AAd?$AA?2?$AAv?$AAc?$AAt?$AAo?$AAo?$AAl?$AAs?$AA?2?$AAc?$AAr?$AAt?$AA_?$AAb?$AAl?$AAd?$AA?2?$AAs?$AAe?$AAl?$AAf?$AA_?$AAx?$AA8?$AA6?$AA?2?$AAc@ 100c71a0     LIBCMTD:initctyp.obj
 0002:00019204       ??_C@_1DG@NMBGBDM@?$AAp?$AAl?$AAo?$AAc?$AAi?$AA?9?$AA?$DO?$AAc?$AAt?$AAy?$AAp?$AAe?$AA1?$AA_?$AAr?$AAe?$AAf?$AAc?$AAo?$AAu?$AAn?$AAt?$AA?5?$AA?$DO?$AA?5?$AA0?$AA?$AA@ 100c7204     LIBCMTD:initctyp.obj
 0002:0001923c       ??_C@_1BA@BALFACEM@?$AAC?$AAO?$AAN?$AAO?$AAU?$AAT?$AA$?$AA?$AA@ 100c723c     LIBCMTD:initcon.obj
 0002:00019250       ??_C@_1GA@GIMEIKLC@?$AAf?$AA?3?$AA?2?$AAd?$AAd?$AA?2?$AAv?$AAc?$AAt?$AAo?$AAo?$AAl?$AAs?$AA?2?$AAc?$AAr?$AAt?$AA_?$AAb?$AAl?$AAd?$AA?2?$AAs?$AAe?$AAl?$AAf?$AA_?$AAx?$AA8?$AA6?$AA?2?$AAc@ 100c7250     LIBCMTD:strtoq.obj
 0002:000192b0       ??_C@_1BA@BMMDEPNE@?$AAs?$AAt?$AAr?$AAt?$AAo?$AAx?$AAq?$AA?$AA@ 100c72b0     LIBCMTD:strtoq.obj
 0002:000192c0       ___rg_language             100c72c0     LIBCMTD:getqloc.obj
 0002:000195cc       ??_C@_1BC@LLOKLNP@?$AAa?$AAm?$AAe?$AAr?$AAi?$AAc?$AAa?$AAn?$AA?$AA@ 100c75cc     LIBCMTD:getqloc.obj
 0002:000195e0       ??_C@_1CC@HEIGCDGG@?$AAa?$AAm?$AAe?$AAr?$AAi?$AAc?$AAa?$AAn?$AA?5?$AAe?$AAn?$AAg?$AAl?$AAi?$AAs?$AAh?$AA?$AA@ 100c75e0     LIBCMTD:getqloc.obj
 0002:00019604       ??_C@_1CC@IHCNOMIN@?$AAa?$AAm?$AAe?$AAr?$AAi?$AAc?$AAa?$AAn?$AA?9?$AAe?$AAn?$AAg?$AAl?$AAi?$AAs?$AAh?$AA?$AA@ 100c7604     LIBCMTD:getqloc.obj
 0002:00019628       ??_C@_1BG@GKAGPCGG@?$AAa?$AAu?$AAs?$AAt?$AAr?$AAa?$AAl?$AAi?$AAa?$AAn?$AA?$AA@ 100c7628     LIBCMTD:getqloc.obj
 0002:00019640       ??_C@_1BA@GMENCENF@?$AAb?$AAe?$AAl?$AAg?$AAi?$AAa?$AAn?$AA?$AA@ 100c7640     LIBCMTD:getqloc.obj
 0002:00019650       ??_C@_1BC@PJMIIAAN@?$AAc?$AAa?$AAn?$AAa?$AAd?$AAi?$AAa?$AAn?$AA?$AA@ 100c7650     LIBCMTD:getqloc.obj
 0002:00019664       ??_C@_17NOIMNFBF@?$AAc?$AAh?$AAh?$AA?$AA@ 100c7664     LIBCMTD:getqloc.obj
 0002:0001966c       ??_C@_17GGDALCHA@?$AAc?$AAh?$AAi?$AA?$AA@ 100c766c     LIBCMTD:getqloc.obj
 0002:00019674       ??_C@_1BA@NPNJKIBL@?$AAc?$AAh?$AAi?$AAn?$AAe?$AAs?$AAe?$AA?$AA@ 100c7674     LIBCMTD:getqloc.obj
 0002:00019684       ??_C@_1CC@DINBAMMJ@?$AAc?$AAh?$AAi?$AAn?$AAe?$AAs?$AAe?$AA?9?$AAh?$AAo?$AAn?$AAg?$AAk?$AAo?$AAn?$AAg?$AA?$AA@ 100c7684     LIBCMTD:getqloc.obj
 0002:000196a8       ??_C@_1CG@IOBJPACO@?$AAc?$AAh?$AAi?$AAn?$AAe?$AAs?$AAe?$AA?9?$AAs?$AAi?$AAm?$AAp?$AAl?$AAi?$AAf?$AAi?$AAe?$AAd?$AA?$AA@ 100c76a8     LIBCMTD:getqloc.obj
 0002:000196d0       ??_C@_1CE@GAJNDCKG@?$AAc?$AAh?$AAi?$AAn?$AAe?$AAs?$AAe?$AA?9?$AAs?$AAi?$AAn?$AAg?$AAa?$AAp?$AAo?$AAr?$AAe?$AA?$AA@ 100c76d0     LIBCMTD:getqloc.obj
 0002:000196f4       ??_C@_1CI@PAJPIOOD@?$AAc?$AAh?$AAi?$AAn?$AAe?$AAs?$AAe?$AA?9?$AAt?$AAr?$AAa?$AAd?$AAi?$AAt?$AAi?$AAo?$AAn?$AAa?$AAl?$AA?$AA@ 100c76f4     LIBCMTD:getqloc.obj
 0002:0001971c       ??_C@_1BM@NILJBMMD@?$AAd?$AAu?$AAt?$AAc?$AAh?$AA?9?$AAb?$AAe?$AAl?$AAg?$AAi?$AAa?$AAn?$AA?$AA@ 100c771c     LIBCMTD:getqloc.obj
 0002:00019738       ??_C@_1CC@OOJPJNEJ@?$AAe?$AAn?$AAg?$AAl?$AAi?$AAs?$AAh?$AA?9?$AAa?$AAm?$AAe?$AAr?$AAi?$AAc?$AAa?$AAn?$AA?$AA@ 100c7738     LIBCMTD:getqloc.obj
 0002:0001975c       ??_C@_1BI@IOLFEEM@?$AAe?$AAn?$AAg?$AAl?$AAi?$AAs?$AAh?$AA?9?$AAa?$AAu?$AAs?$AA?$AA@ 100c775c     LIBCMTD:getqloc.obj
 0002:00019774       ??_C@_1BO@HFFNLENJ@?$AAe?$AAn?$AAg?$AAl?$AAi?$AAs?$AAh?$AA?9?$AAb?$AAe?$AAl?$AAi?$AAz?$AAe?$AA?$AA@ 100c7774     LIBCMTD:getqloc.obj
 0002:00019794       ??_C@_1BI@HAPKJMPO@?$AAe?$AAn?$AAg?$AAl?$AAi?$AAs?$AAh?$AA?9?$AAc?$AAa?$AAn?$AA?$AA@ 100c7794     LIBCMTD:getqloc.obj
 0002:000197ac       ??_C@_1CE@HLNDMIOJ@?$AAe?$AAn?$AAg?$AAl?$AAi?$AAs?$AAh?$AA?9?$AAc?$AAa?$AAr?$AAi?$AAb?$AAb?$AAe?$AAa?$AAn?$AA?$AA@ 100c77ac     LIBCMTD:getqloc.obj
 0002:000197d0       ??_C@_1BI@LDHJHHAC@?$AAe?$AAn?$AAg?$AAl?$AAi?$AAs?$AAh?$AA?9?$AAi?$AAr?$AAe?$AA?$AA@ 100c77d0     LIBCMTD:getqloc.obj
 0002:000197e8       ??_C@_1CA@NJMMCFOC@?$AAe?$AAn?$AAg?$AAl?$AAi?$AAs?$AAh?$AA?9?$AAj?$AAa?$AAm?$AAa?$AAi?$AAc?$AAa?$AA?$AA@ 100c77e8     LIBCMTD:getqloc.obj
 0002:00019808       ??_C@_1BG@BHJEBBGG@?$AAe?$AAn?$AAg?$AAl?$AAi?$AAs?$AAh?$AA?9?$AAn?$AAz?$AA?$AA@ 100c7808     LIBCMTD:getqloc.obj
 0002:00019820       ??_C@_1CK@FGOEJJCO@?$AAe?$AAn?$AAg?$AAl?$AAi?$AAs?$AAh?$AA?9?$AAs?$AAo?$AAu?$AAt?$AAh?$AA?5?$AAa?$AAf?$AAr?$AAi?$AAc?$AAa?$AA?$AA@ 100c7820     LIBCMTD:getqloc.obj
 0002:0001984c       ??_C@_1DE@PDBJPCJ@?$AAe?$AAn?$AAg?$AAl?$AAi?$AAs?$AAh?$AA?9?$AAt?$AAr?$AAi?$AAn?$AAi?$AAd?$AAa?$AAd?$AA?5?$AAy?$AA?5?$AAt?$AAo?$AAb?$AAa?$AAg?$AAo?$AA?$AA@ 100c784c     LIBCMTD:getqloc.obj
 0002:00019880       ??_C@_1BG@JGCANDME@?$AAe?$AAn?$AAg?$AAl?$AAi?$AAs?$AAh?$AA?9?$AAu?$AAk?$AA?$AA@ 100c7880     LIBCMTD:getqloc.obj
 0002:00019898       ??_C@_1BG@DINKMLE@?$AAe?$AAn?$AAg?$AAl?$AAi?$AAs?$AAh?$AA?9?$AAu?$AAs?$AA?$AA@ 100c7898     LIBCMTD:getqloc.obj
 0002:000198b0       ??_C@_1BI@NMFDBHJE@?$AAe?$AAn?$AAg?$AAl?$AAi?$AAs?$AAh?$AA?9?$AAu?$AAs?$AAa?$AA?$AA@ 100c78b0     LIBCMTD:getqloc.obj
 0002:000198c8       ??_C@_1BO@OIHKJKII@?$AAf?$AAr?$AAe?$AAn?$AAc?$AAh?$AA?9?$AAb?$AAe?$AAl?$AAg?$AAi?$AAa?$AAn?$AA?$AA@ 100c78c8     LIBCMTD:getqloc.obj
 0002:000198e8       ??_C@_1CA@NKAELJKI@?$AAf?$AAr?$AAe?$AAn?$AAc?$AAh?$AA?9?$AAc?$AAa?$AAn?$AAa?$AAd?$AAi?$AAa?$AAn?$AA?$AA@ 100c78e8     LIBCMTD:getqloc.obj
 0002:00019908       ??_C@_1CE@MGKCNLGN@?$AAf?$AAr?$AAe?$AAn?$AAc?$AAh?$AA?9?$AAl?$AAu?$AAx?$AAe?$AAm?$AAb?$AAo?$AAu?$AAr?$AAg?$AA?$AA@ 100c7908     LIBCMTD:getqloc.obj
 0002:0001992c       ??_C@_1BK@CEGEAILM@?$AAf?$AAr?$AAe?$AAn?$AAc?$AAh?$AA?9?$AAs?$AAw?$AAi?$AAs?$AAs?$AA?$AA@ 100c792c     LIBCMTD:getqloc.obj
 0002:00019948       ??_C@_1CA@PAFKEOCC@?$AAg?$AAe?$AAr?$AAm?$AAa?$AAn?$AA?9?$AAa?$AAu?$AAs?$AAt?$AAr?$AAi?$AAa?$AAn?$AA?$AA@ 100c7948     LIBCMTD:getqloc.obj
 0002:00019968       ??_C@_1CI@HCFHGOFD@?$AAg?$AAe?$AAr?$AAm?$AAa?$AAn?$AA?9?$AAl?$AAi?$AAc?$AAh?$AAt?$AAe?$AAn?$AAs?$AAt?$AAe?$AAi?$AAn?$AA?$AA@ 100c7968     LIBCMTD:getqloc.obj
 0002:00019990       ??_C@_1CE@FEDDNPDG@?$AAg?$AAe?$AAr?$AAm?$AAa?$AAn?$AA?9?$AAl?$AAu?$AAx?$AAe?$AAm?$AAb?$AAo?$AAu?$AAr?$AAg?$AA?$AA@ 100c7990     LIBCMTD:getqloc.obj
 0002:000199b4       ??_C@_1BK@LIMINNMN@?$AAg?$AAe?$AAr?$AAm?$AAa?$AAn?$AA?9?$AAs?$AAw?$AAi?$AAs?$AAs?$AA?$AA@ 100c79b4     LIBCMTD:getqloc.obj
 0002:000199d0       ??_C@_1BM@LGMDBEPD@?$AAi?$AAr?$AAi?$AAs?$AAh?$AA?9?$AAe?$AAn?$AAg?$AAl?$AAi?$AAs?$AAh?$AA?$AA@ 100c79d0     LIBCMTD:getqloc.obj
 0002:000199ec       ??_C@_1BM@NNCFBAEE@?$AAi?$AAt?$AAa?$AAl?$AAi?$AAa?$AAn?$AA?9?$AAs?$AAw?$AAi?$AAs?$AAs?$AA?$AA@ 100c79ec     LIBCMTD:getqloc.obj
 0002:00019a08       ??_C@_1BE@FEDJNPIB@?$AAn?$AAo?$AAr?$AAw?$AAe?$AAg?$AAi?$AAa?$AAn?$AA?$AA@ 100c7a08     LIBCMTD:getqloc.obj
 0002:00019a1c       ??_C@_1CC@CILKDEIE@?$AAn?$AAo?$AAr?$AAw?$AAe?$AAg?$AAi?$AAa?$AAn?$AA?9?$AAb?$AAo?$AAk?$AAm?$AAa?$AAl?$AA?$AA@ 100c7a1c     LIBCMTD:getqloc.obj
 0002:00019a40       ??_C@_1CE@DHMMHEPL@?$AAn?$AAo?$AAr?$AAw?$AAe?$AAg?$AAi?$AAa?$AAn?$AA?9?$AAn?$AAy?$AAn?$AAo?$AAr?$AAs?$AAk?$AA?$AA@ 100c7a40     LIBCMTD:getqloc.obj
 0002:00019a64       ??_C@_1CK@OPNMHECD@?$AAp?$AAo?$AAr?$AAt?$AAu?$AAg?$AAu?$AAe?$AAs?$AAe?$AA?9?$AAb?$AAr?$AAa?$AAz?$AAi?$AAl?$AAi?$AAa?$AAn?$AA?$AA@ 100c7a64     LIBCMTD:getqloc.obj
 0002:00019a90       ??_C@_1CE@KEEHCDB@?$AAs?$AAp?$AAa?$AAn?$AAi?$AAs?$AAh?$AA?9?$AAa?$AAr?$AAg?$AAe?$AAn?$AAt?$AAi?$AAn?$AAa?$AA?$AA@ 100c7a90     LIBCMTD:getqloc.obj
 0002:00019ab4       ??_C@_1CA@GIAOLHJD@?$AAs?$AAp?$AAa?$AAn?$AAi?$AAs?$AAh?$AA?9?$AAb?$AAo?$AAl?$AAi?$AAv?$AAi?$AAa?$AA?$AA@ 100c7ab4     LIBCMTD:getqloc.obj
 0002:00019ad4       ??_C@_1BM@OJNDFNPD@?$AAs?$AAp?$AAa?$AAn?$AAi?$AAs?$AAh?$AA?9?$AAc?$AAh?$AAi?$AAl?$AAe?$AA?$AA@ 100c7ad4     LIBCMTD:getqloc.obj
 0002:00019af0       ??_C@_1CC@OCOLPALL@?$AAs?$AAp?$AAa?$AAn?$AAi?$AAs?$AAh?$AA?9?$AAc?$AAo?$AAl?$AAo?$AAm?$AAb?$AAi?$AAa?$AA?$AA@ 100c7af0     LIBCMTD:getqloc.obj
 0002:00019b14       ??_C@_1CG@BPOFMKBB@?$AAs?$AAp?$AAa?$AAn?$AAi?$AAs?$AAh?$AA?9?$AAc?$AAo?$AAs?$AAt?$AAa?$AA?5?$AAr?$AAi?$AAc?$AAa?$AA?$AA@ 100c7b14     LIBCMTD:getqloc.obj
 0002:00019b3c       ??_C@_1DG@IGOBAPBB@?$AAs?$AAp?$AAa?$AAn?$AAi?$AAs?$AAh?$AA?9?$AAd?$AAo?$AAm?$AAi?$AAn?$AAi?$AAc?$AAa?$AAn?$AA?5?$AAr?$AAe?$AAp?$AAu?$AAb?$AAl?$AAi?$AAc?$AA?$AA@ 100c7b3c     LIBCMTD:getqloc.obj
 0002:00019b74       ??_C@_1CA@JHAPGEGI@?$AAs?$AAp?$AAa?$AAn?$AAi?$AAs?$AAh?$AA?9?$AAe?$AAc?$AAu?$AAa?$AAd?$AAo?$AAr?$AA?$AA@ 100c7b74     LIBCMTD:getqloc.obj
 0002:00019b94       ??_C@_1CI@LAPALJPP@?$AAs?$AAp?$AAa?$AAn?$AAi?$AAs?$AAh?$AA?9?$AAe?$AAl?$AA?5?$AAs?$AAa?$AAl?$AAv?$AAa?$AAd?$AAo?$AAr?$AA?$AA@ 100c7b94     LIBCMTD:getqloc.obj
 0002:00019bbc       ??_C@_1CE@PDGBOFOM@?$AAs?$AAp?$AAa?$AAn?$AAi?$AAs?$AAh?$AA?9?$AAg?$AAu?$AAa?$AAt?$AAe?$AAm?$AAa?$AAl?$AAa?$AA?$AA@ 100c7bbc     LIBCMTD:getqloc.obj
 0002:00019be0       ??_C@_1CC@NBEBAODI@?$AAs?$AAp?$AAa?$AAn?$AAi?$AAs?$AAh?$AA?9?$AAh?$AAo?$AAn?$AAd?$AAu?$AAr?$AAa?$AAs?$AA?$AA@ 100c7be0     LIBCMTD:getqloc.obj
 0002:00019c04       ??_C@_1CA@LLKGHBMF@?$AAs?$AAp?$AAa?$AAn?$AAi?$AAs?$AAh?$AA?9?$AAm?$AAe?$AAx?$AAi?$AAc?$AAa?$AAn?$AA?$AA@ 100c7c04     LIBCMTD:getqloc.obj
 0002:00019c24       ??_C@_1BO@LKNDOIGD@?$AAs?$AAp?$AAa?$AAn?$AAi?$AAs?$AAh?$AA?9?$AAm?$AAo?$AAd?$AAe?$AAr?$AAn?$AA?$AA@ 100c7c24     LIBCMTD:getqloc.obj
 0002:00019c44       ??_C@_1CE@NMDMOEEB@?$AAs?$AAp?$AAa?$AAn?$AAi?$AAs?$AAh?$AA?9?$AAn?$AAi?$AAc?$AAa?$AAr?$AAa?$AAg?$AAu?$AAa?$AA?$AA@ 100c7c44     LIBCMTD:getqloc.obj
 0002:00019c68       ??_C@_1BO@LLCBEJGB@?$AAs?$AAp?$AAa?$AAn?$AAi?$AAs?$AAh?$AA?9?$AAp?$AAa?$AAn?$AAa?$AAm?$AAa?$AA?$AA@ 100c7c68     LIBCMTD:getqloc.obj
 0002:00019c88       ??_C@_1CC@FKPGGIHO@?$AAs?$AAp?$AAa?$AAn?$AAi?$AAs?$AAh?$AA?9?$AAp?$AAa?$AAr?$AAa?$AAg?$AAu?$AAa?$AAy?$AA?$AA@ 100c7c88     LIBCMTD:getqloc.obj
 0002:00019cac       ??_C@_1BK@CDEIHOOP@?$AAs?$AAp?$AAa?$AAn?$AAi?$AAs?$AAh?$AA?9?$AAp?$AAe?$AAr?$AAu?$AA?$AA@ 100c7cac     LIBCMTD:getqloc.obj
 0002:00019cc8       ??_C@_1CI@GAHAKKGP@?$AAs?$AAp?$AAa?$AAn?$AAi?$AAs?$AAh?$AA?9?$AAp?$AAu?$AAe?$AAr?$AAt?$AAo?$AA?5?$AAr?$AAi?$AAc?$AAo?$AA?$AA@ 100c7cc8     LIBCMTD:getqloc.obj
 0002:00019cf0       ??_C@_1CA@NKJBCAGP@?$AAs?$AAp?$AAa?$AAn?$AAi?$AAs?$AAh?$AA?9?$AAu?$AAr?$AAu?$AAg?$AAu?$AAa?$AAy?$AA?$AA@ 100c7cf0     LIBCMTD:getqloc.obj
 0002:00019d10       ??_C@_1CE@ODILCONM@?$AAs?$AAp?$AAa?$AAn?$AAi?$AAs?$AAh?$AA?9?$AAv?$AAe?$AAn?$AAe?$AAz?$AAu?$AAe?$AAl?$AAa?$AA?$AA@ 100c7d10     LIBCMTD:getqloc.obj
 0002:00019d34       ??_C@_1CA@OBNMCGFO@?$AAs?$AAw?$AAe?$AAd?$AAi?$AAs?$AAh?$AA?9?$AAf?$AAi?$AAn?$AAl?$AAa?$AAn?$AAd?$AA?$AA@ 100c7d34     LIBCMTD:getqloc.obj
 0002:00019d54       ??_C@_1M@PIPDDPPI@?$AAs?$AAw?$AAi?$AAs?$AAs?$AA?$AA@ 100c7d54     LIBCMTD:getqloc.obj
 0002:00019d60       ??_C@_15GMFIMNFM@?$AAu?$AAs?$AA?$AA@ 100c7d60     LIBCMTD:getqloc.obj
 0002:00019d68       ??_C@_17HAEBFAGL@?$AAu?$AAs?$AAa?$AA?$AA@ 100c7d68     LIBCMTD:getqloc.obj
 0002:00019d70       ___rg_country              100c7d70     LIBCMTD:getqloc.obj
 0002:00019e84       ??_C@_1BA@DPFJEPHB@?$AAa?$AAm?$AAe?$AAr?$AAi?$AAc?$AAa?$AA?$AA@ 100c7e84     LIBCMTD:getqloc.obj
 0002:00019e94       ??_C@_1BA@ELOGGFK@?$AAb?$AAr?$AAi?$AAt?$AAa?$AAi?$AAn?$AA?$AA@ 100c7e94     LIBCMTD:getqloc.obj
 0002:00019ea4       ??_C@_1M@GHBGIGDA@?$AAc?$AAh?$AAi?$AAn?$AAa?$AA?$AA@ 100c7ea4     LIBCMTD:getqloc.obj
 0002:00019eb0       ??_C@_1M@NCHEJOPO@?$AAc?$AAz?$AAe?$AAc?$AAh?$AA?$AA@ 100c7eb0     LIBCMTD:getqloc.obj
 0002:00019ebc       ??_C@_1BA@BKPAPBLA@?$AAe?$AAn?$AAg?$AAl?$AAa?$AAn?$AAd?$AA?$AA@ 100c7ebc     LIBCMTD:getqloc.obj
 0002:00019ecc       ??_C@_1BM@HKBCKIPC@?$AAg?$AAr?$AAe?$AAa?$AAt?$AA?5?$AAb?$AAr?$AAi?$AAt?$AAa?$AAi?$AAn?$AA?$AA@ 100c7ecc     LIBCMTD:getqloc.obj
 0002:00019ee8       ??_C@_1BA@PPCHPGJB@?$AAh?$AAo?$AAl?$AAl?$AAa?$AAn?$AAd?$AA?$AA@ 100c7ee8     LIBCMTD:getqloc.obj
 0002:00019ef8       ??_C@_1BE@JBMPEGDG@?$AAh?$AAo?$AAn?$AAg?$AA?9?$AAk?$AAo?$AAn?$AAg?$AA?$AA@ 100c7ef8     LIBCMTD:getqloc.obj
 0002:00019f0c       ??_C@_1BI@KOELBBPJ@?$AAn?$AAe?$AAw?$AA?9?$AAz?$AAe?$AAa?$AAl?$AAa?$AAn?$AAd?$AA?$AA@ 100c7f0c     LIBCMTD:getqloc.obj
 0002:00019f24       ??_C@_15HIEBHAIO@?$AAn?$AAz?$AA?$AA@ 100c7f24     LIBCMTD:getqloc.obj
 0002:00019f2c       ??_C@_1BC@CHBCPFPI@?$AAp?$AAr?$AA?5?$AAc?$AAh?$AAi?$AAn?$AAa?$AA?$AA@ 100c7f2c     LIBCMTD:getqloc.obj
 0002:00019f40       ??_C@_1BC@JAOIIFKD@?$AAp?$AAr?$AA?9?$AAc?$AAh?$AAi?$AAn?$AAa?$AA?$AA@ 100c7f40     LIBCMTD:getqloc.obj
 0002:00019f54       ??_C@_1BI@BEHPPHKC@?$AAp?$AAu?$AAe?$AAr?$AAt?$AAo?$AA?9?$AAr?$AAi?$AAc?$AAo?$AA?$AA@ 100c7f54     LIBCMTD:getqloc.obj
 0002:00019f6c       ??_C@_1O@PAEOFKDI@?$AAs?$AAl?$AAo?$AAv?$AAa?$AAk?$AA?$AA@ 100c7f6c     LIBCMTD:getqloc.obj
 0002:00019f7c       ??_C@_1BK@FIHMCKAM@?$AAs?$AAo?$AAu?$AAt?$AAh?$AA?5?$AAa?$AAf?$AAr?$AAi?$AAc?$AAa?$AA?$AA@ 100c7f7c     LIBCMTD:getqloc.obj
 0002:00019f98       ??_C@_1BI@NAEOODKB@?$AAs?$AAo?$AAu?$AAt?$AAh?$AA?5?$AAk?$AAo?$AAr?$AAe?$AAa?$AA?$AA@ 100c7f98     LIBCMTD:getqloc.obj
 0002:00019fb0       ??_C@_1BK@FBDGGIFF@?$AAs?$AAo?$AAu?$AAt?$AAh?$AA?9?$AAa?$AAf?$AAr?$AAi?$AAc?$AAa?$AA?$AA@ 100c7fb0     LIBCMTD:getqloc.obj
 0002:00019fcc       ??_C@_1BI@GHLEJDPK@?$AAs?$AAo?$AAu?$AAt?$AAh?$AA?9?$AAk?$AAo?$AAr?$AAe?$AAa?$AA?$AA@ 100c7fcc     LIBCMTD:getqloc.obj
 0002:00019fe4       ??_C@_1CE@PLHLOMJF@?$AAt?$AAr?$AAi?$AAn?$AAi?$AAd?$AAa?$AAd?$AA?5?$AA?$CG?$AA?5?$AAt?$AAo?$AAb?$AAa?$AAg?$AAo?$AA?$AA@ 100c7fe4     LIBCMTD:getqloc.obj
 0002:0001a008       ??_C@_1BO@MODIMHHI@?$AAu?$AAn?$AAi?$AAt?$AAe?$AAd?$AA?9?$AAk?$AAi?$AAn?$AAg?$AAd?$AAo?$AAm?$AA?$AA@ 100c8008     LIBCMTD:getqloc.obj
 0002:0001a028       ??_C@_1BM@FFHJONBJ@?$AAu?$AAn?$AAi?$AAt?$AAe?$AAd?$AA?9?$AAs?$AAt?$AAa?$AAt?$AAe?$AAs?$AA?$AA@ 100c8028     LIBCMTD:getqloc.obj
 0002:0001a044       ___rg_language_count       100c8044     LIBCMTD:getqloc.obj
 0002:0001a048       ___rg_country_count        100c8048     LIBCMTD:getqloc.obj
 0002:0001a050       ??_C@_1GC@FECJGAE@?$AAf?$AA?3?$AA?2?$AAd?$AAd?$AA?2?$AAv?$AAc?$AAt?$AAo?$AAo?$AAl?$AAs?$AA?2?$AAc?$AAr?$AAt?$AA_?$AAb?$AAl?$AAd?$AA?2?$AAs?$AAe?$AAl?$AAf?$AA_?$AAx?$AA8?$AA6?$AA?2?$AAc@ 100c8050     LIBCMTD:getqloc.obj
 0002:0001a0b4       ??_C@_1CO@NJACLALJ@?$AA_?$AA_?$AAg?$AAe?$AAt?$AA_?$AAq?$AAu?$AAa?$AAl?$AAi?$AAf?$AAi?$AAe?$AAd?$AA_?$AAl?$AAo?$AAc?$AAa?$AAl?$AAe?$AA?$AA@ 100c80b4     LIBCMTD:getqloc.obj
 0002:0001a0e8       ??_C@_1BGM@FCCPEFDE@?$AAw?$AAc?$AAs?$AAn?$AAc?$AAp?$AAy?$AA_?$AAs?$AA?$CI?$AAl?$AAp?$AAO?$AAu?$AAt?$AAS?$AAt?$AAr?$AA?9?$AA?$DO?$AAs?$AAz?$AAL?$AAo?$AAc?$AAa?$AAl?$AAe?$AAN?$AAa?$AAm?$AAe@ 100c80e8     LIBCMTD:getqloc.obj
 0002:0001a254       ??_C@_1CM@OGEMFJNJ@?$AAL?$AAa?$AAn?$AAg?$AAC?$AAo?$AAu?$AAn?$AAt?$AAr?$AAy?$AAE?$AAn?$AAu?$AAm?$AAP?$AAr?$AAo?$AAc?$AAE?$AAx?$AA?$AA@ 100c8254     LIBCMTD:getqloc.obj
 0002:0001a280       ??_C@_1BFO@LLJKJAIC@?$AAw?$AAc?$AAs?$AAn?$AAc?$AAp?$AAy?$AA_?$AAs?$AA?$CI?$AA_?$AAp?$AAs?$AAe?$AAt?$AAl?$AAo?$AAc?$AA_?$AAd?$AAa?$AAt?$AAa?$AA?9?$AA?$DO?$AA_?$AAc?$AAa?$AAc?$AAh?$AAe?$AAL@ 100c8280     LIBCMTD:getqloc.obj
 0002:0001a3e0       ??_C@_1CG@PGLLICHO@?$AAL?$AAa?$AAn?$AAg?$AAu?$AAa?$AAg?$AAe?$AAE?$AAn?$AAu?$AAm?$AAP?$AAr?$AAo?$AAc?$AAE?$AAx?$AA?$AA@ 100c83e0     LIBCMTD:getqloc.obj
 0002:0001a408       ??_C@_1DC@CPKFANGP@?$AAG?$AAe?$AAt?$AAL?$AAo?$AAc?$AAa?$AAl?$AAe?$AAN?$AAa?$AAm?$AAe?$AAF?$AAr?$AAo?$AAm?$AAD?$AAe?$AAf?$AAa?$AAu?$AAl?$AAt?$AA?$AA@ 100c8408     LIBCMTD:getqloc.obj
 0002:0001a440       ??_C@_1BEO@EJBNGKHB@?$AAw?$AAc?$AAs?$AAn?$AAc?$AAp?$AAy?$AA_?$AAs?$AA?$CI?$AA_?$AAp?$AAs?$AAe?$AAt?$AAl?$AAo?$AAc?$AA_?$AAd?$AAa?$AAt?$AAa?$AA?9?$AA?$DO?$AA_?$AAc?$AAa?$AAc?$AAh?$AAe?$AAL@ 100c8440     LIBCMTD:getqloc.obj
 0002:0001a590       ??_C@_17DNCLJFIF@?$AAA?$AAC?$AAP?$AA?$AA@ 100c8590     LIBCMTD:getqloc.obj
 0002:0001a598       ??_C@_17CIKBIHLH@?$AAO?$AAC?$AAP?$AA?$AA@ 100c8598     LIBCMTD:getqloc.obj
 0002:0001a5a0       ___rglangidNotDefault      100c85a0     LIBCMTD:getqloc_downlevel.obj
 0002:0001a5b4       ??_C@_1BK@GDEKGMNC@?$AA_?$AAw?$AAo?$AAu?$AAt?$AAp?$AAu?$AAt?$AA_?$AAp?$AA_?$AAl?$AA?$AA@ 100c85b4     LIBCMTD:woutputp.obj
 0002:0001a5d0       ??_C@_1BK@ONMFGLDB@?$AA_?$AAw?$AAo?$AAu?$AAt?$AAp?$AAu?$AAt?$AA_?$AAs?$AA_?$AAl?$AA?$AA@ 100c85d0     LIBCMTD:woutputs.obj
 0002:0001a5f0       ??_C@_1GA@BJIGKGEA@?$AAf?$AA?3?$AA?2?$AAd?$AAd?$AA?2?$AAv?$AAc?$AAt?$AAo?$AAo?$AAl?$AAs?$AA?2?$AAc?$AAr?$AAt?$AA_?$AAb?$AAl?$AAd?$AA?2?$AAs?$AAe?$AAl?$AAf?$AA_?$AAx?$AA8?$AA6?$AA?2?$AAc@ 100c85f0     LIBCMTD:fputwc.obj
 0002:0001a650       ??_C@_1O@HJNPHHHB@?$AAf?$AAp?$AAu?$AAt?$AAw?$AAc?$AA?$AA@ 100c8650     LIBCMTD:fputwc.obj
 0002:0001a660       ??_C@_1GA@DBKMEDOF@?$AAf?$AA?3?$AA?2?$AAd?$AAd?$AA?2?$AAv?$AAc?$AAt?$AAo?$AAo?$AAl?$AAs?$AA?2?$AAc?$AAr?$AAt?$AA_?$AAb?$AAl?$AAd?$AA?2?$AAs?$AAe?$AAl?$AAf?$AA_?$AAx?$AA8?$AA6?$AA?2?$AAc@ 100c8660     LIBCMTD:chsize.obj
 0002:0001a6c0       ??_C@_1BE@MAFDNGED@?$AA_?$AAc?$AAh?$AAs?$AAi?$AAz?$AAe?$AA_?$AAs?$AA?$AA@ 100c86c0     LIBCMTD:chsize.obj
 0002:0001a6d4       ??_C@_1BI@GALBKMKE@?$AA?$CI?$AAs?$AAi?$AAz?$AAe?$AA?5?$AA?$DO?$AA?$DN?$AA?5?$AA0?$AA?$CJ?$AA?$AA@ 100c86d4     LIBCMTD:chsize.obj
 0002:0001a6f0       ??_C@_1OA@HGPJIFPM@?$AA?$CI?$AA?$CI?$AAm?$AAo?$AAd?$AAe?$AA?5?$AA?$DN?$AA?$DN?$AA?5?$AA_?$AAO?$AA_?$AAT?$AAE?$AAX?$AAT?$AA?$CJ?$AA?5?$AA?$HM?$AA?$HM?$AA?5?$AA?$CI?$AAm?$AAo?$AAd?$AAe?$AA?5?$AA?$DN?$AA?$DN?$AA?5?$AA_@ 100c86f0     LIBCMTD:setmode.obj
 0002:0001a7d0       ??_C@_1GC@KODPFLLJ@?$AAf?$AA?3?$AA?2?$AAd?$AAd?$AA?2?$AAv?$AAc?$AAt?$AAo?$AAo?$AAl?$AAs?$AA?2?$AAc?$AAr?$AAt?$AA_?$AAb?$AAl?$AAd?$AA?2?$AAs?$AAe?$AAl?$AAf?$AA_?$AAx?$AA8?$AA6?$AA?2?$AAc@ 100c87d0     LIBCMTD:setmode.obj
 0002:0001a834       ??_C@_1BC@JBGGJDCM@?$AA_?$AAs?$AAe?$AAt?$AAm?$AAo?$AAd?$AAe?$AA?$AA@ 100c8834     LIBCMTD:setmode.obj
 0002:0001a848       ??_C@_1IC@NDCJMLB@?$AA?$CI?$AA?$CI?$AAm?$AAo?$AAd?$AAe?$AA?5?$AA?$DN?$AA?$DN?$AA?5?$AA_?$AAO?$AA_?$AAT?$AAE?$AAX?$AAT?$AA?$CJ?$AA?5?$AA?$HM?$AA?$HM?$AA?5?$AA?$CI?$AAm?$AAo?$AAd?$AAe?$AA?5?$AA?$DN?$AA?$DN?$AA?5?$AA_@ 100c8848     LIBCMTD:setmode.obj
 0002:0001a8cc       ??_C@_1BG@IEEHLOCL@?$AA_?$AAs?$AAe?$AAt?$AA_?$AAf?$AAm?$AAo?$AAd?$AAe?$AA?$AA@ 100c88cc     LIBCMTD:setmode.obj
 0002:0001a8e4       ??_C@_1CA@GPIGPPFN@?$AA?$CI?$AAp?$AAM?$AAo?$AAd?$AAe?$AA?5?$AA?$CB?$AA?$DN?$AA?5?$AAN?$AAU?$AAL?$AAL?$AA?$CJ?$AA?$AA@ 100c88e4     LIBCMTD:setmode.obj
 0002:0001a904       ??_C@_1BG@CKGMPOFH@?$AA_?$AAg?$AAe?$AAt?$AA_?$AAf?$AAm?$AAo?$AAd?$AAe?$AA?$AA@ 100c8904     LIBCMTD:setmode.obj
 0002:0001a920       ??_C@_1GC@MHLPCCAP@?$AAf?$AA?3?$AA?2?$AAd?$AAd?$AA?2?$AAv?$AAc?$AAt?$AAo?$AAo?$AAl?$AAs?$AA?2?$AAc?$AAr?$AAt?$AA_?$AAb?$AAl?$AAd?$AA?2?$AAs?$AAe?$AAl?$AAf?$AA_?$AAx?$AA8?$AA6?$AA?2?$AAc@ 100c8920     LIBCMTD:wcsicmp.obj
 0002:0001a984       ??_C@_1BG@EELGPCPD@?$AA_?$AAw?$AAc?$AAs?$AAi?$AAc?$AAm?$AAp?$AA_?$AAl?$AA?$AA@ 100c8984     LIBCMTD:wcsicmp.obj
 0002:0001a99c       ??_C@_1BC@NHIBDOMC@?$AA_?$AAw?$AAc?$AAs?$AAi?$AAc?$AAm?$AAp?$AA?$AA@ 100c899c     LIBCMTD:wcsicmp.obj
 0002:0001a9b0       ??_C@_1BM@CBACDFHA@?$AAf?$AAi?$AAr?$AAs?$AAt?$AA?5?$AA?$CB?$AA?$DN?$AA?5?$AAN?$AAU?$AAL?$AAL?$AA?$AA@ 100c89b0     LIBCMTD:wcsnicmp.obj
 0002:0001a9d0       ??_C@_1GE@JMKOMBJH@?$AAf?$AA?3?$AA?2?$AAd?$AAd?$AA?2?$AAv?$AAc?$AAt?$AAo?$AAo?$AAl?$AAs?$AA?2?$AAc?$AAr?$AAt?$AA_?$AAb?$AAl?$AAd?$AA?2?$AAs?$AAe?$AAl?$AAf?$AA_?$AAx?$AA8?$AA6?$AA?2?$AAc@ 100c89d0     LIBCMTD:wcsnicmp.obj
 0002:0001aa34       ??_C@_1BI@KLMFNDBC@?$AA_?$AAw?$AAc?$AAs?$AAn?$AAi?$AAc?$AAm?$AAp?$AA_?$AAl?$AA?$AA@ 100c8a34     LIBCMTD:wcsnicmp.obj
 0002:0001aa4c       ??_C@_1BK@LKBOPAFJ@?$AAl?$AAa?$AAs?$AAt?$AA?5?$AA?$CB?$AA?$DN?$AA?5?$AAN?$AAU?$AAL?$AAL?$AA?$AA@ 100c8a4c     LIBCMTD:wcsnicmp.obj
 0002:0001aa68       ??_C@_1BE@JKOKKFEL@?$AA_?$AAw?$AAc?$AAs?$AAn?$AAi?$AAc?$AAm?$AAp?$AA?$AA@ 100c8a68     LIBCMTD:wcsnicmp.obj
 0002:0001aa80       ??_C@_1GA@CADFOND@?$AAf?$AA?3?$AA?2?$AAd?$AAd?$AA?2?$AAv?$AAc?$AAt?$AAo?$AAo?$AAl?$AAs?$AA?2?$AAc?$AAr?$AAt?$AA_?$AAb?$AAl?$AAd?$AA?2?$AAs?$AAe?$AAl?$AAf?$AA_?$AAx?$AA8?$AA6?$AA?2?$AAc@ 100c8a80     LIBCMTD:wcstol.obj
 0002:0001aae0       ??_C@_1BA@PCFLFGNC@?$AAw?$AAc?$AAs?$AAt?$AAo?$AAx?$AAl?$AA?$AA@ 100c8ae0     LIBCMTD:wcstol.obj
 0002:0001aaf0       ??_C@_1GA@OFLNHKCJ@?$AAf?$AA?3?$AA?2?$AAd?$AAd?$AA?2?$AAv?$AAc?$AAt?$AAo?$AAo?$AAl?$AAs?$AA?2?$AAc?$AAr?$AAt?$AA_?$AAb?$AAl?$AAd?$AA?2?$AAs?$AAe?$AAl?$AAf?$AA_?$AAx?$AA8?$AA6?$AA?2?$AAc@ 100c8af0     LIBCMTD:wcstoq.obj
 0002:0001ab50       ??_C@_1BA@FACINJJA@?$AAw?$AAc?$AAs?$AAt?$AAo?$AAx?$AAq?$AA?$AA@ 100c8b50     LIBCMTD:wcstoq.obj
 0002:0001ab60       __load_config_used         100c8b60     LIBCMTD:loadcfg.obj
 0002:0001fb1c       ??_R4TCarParam@@6B@        100cdb1c     unitcarparam.obj
 0002:0001fb34       ??_R3TCarParam@@8          100cdb34     unitcarparam.obj
 0002:0001fb48       ??_R2TCarParam@@8          100cdb48     unitcarparam.obj
 0002:0001fb50       ??_R1A@?0A@EA@TCarParam@@8 100cdb50     unitcarparam.obj
 0002:0001fb74       ??_R4TClothoidLane@@6B@    100cdb74     unitclothoid.obj
 0002:0001fb8c       ??_R3TClothoidLane@@8      100cdb8c     unitclothoid.obj
 0002:0001fba0       ??_R2TClothoidLane@@8      100cdba0     unitclothoid.obj
 0002:0001fbac       ??_R1A@?0A@EA@TClothoidLane@@8 100cdbac     unitclothoid.obj
 0002:0001fbd0       ??_R1A@?0A@EA@TLane@@8     100cdbd0     unitclothoid.obj
 0002:0001fbf4       ??_R3TLane@@8              100cdbf4     unitclothoid.obj
 0002:0001fc08       ??_R2TLane@@8              100cdc08     unitclothoid.obj
 0002:0001fc10       ??_R4TLane@@6B@            100cdc10     unitlane.obj
 0002:0001fc28       ??_R4TPidController@@6B@   100cdc28     unitpidctrl.obj
 0002:0001fc40       ??_R3TPidController@@8     100cdc40     unitpidctrl.obj
 0002:0001fc54       ??_R2TPidController@@8     100cdc54     unitpidctrl.obj
 0002:0001fc5c       ??_R1A@?0A@EA@TPidController@@8 100cdc5c     unitpidctrl.obj
 0002:0001fc80       ??_R4TPitLane@@6B@         100cdc80     unitpit.obj
 0002:0001fc98       ??_R3TPitLane@@8           100cdc98     unitpit.obj
 0002:0001fcac       ??_R2TPitLane@@8           100cdcac     unitpit.obj
 0002:0001fcbc       ??_R1A@?0A@EA@TPitLane@@8  100cdcbc     unitpit.obj
 0002:0001fce0       ??_R4TAbstractStrategy@@6B@ 100cdce0     unitstrategy.obj
 0002:0001fcf8       ??_R3TAbstractStrategy@@8  100cdcf8     unitstrategy.obj
 0002:0001fd0c       ??_R2TAbstractStrategy@@8  100cdd0c     unitstrategy.obj
 0002:0001fd14       ??_R1A@?0A@EA@TAbstractStrategy@@8 100cdd14     unitstrategy.obj
 0002:0001fd38       ??_R4TSimpleStrategy@@6B@  100cdd38     unitstrategy.obj
 0002:0001fd50       ??_R3TSimpleStrategy@@8    100cdd50     unitstrategy.obj
 0002:0001fd64       ??_R2TSimpleStrategy@@8    100cdd64     unitstrategy.obj
 0002:0001fd70       ??_R1A@?0A@EA@TSimpleStrategy@@8 100cdd70     unitstrategy.obj
 0002:0001fd94       ??_R4type_info@@6B@        100cdd94     LIBCMTD:typinfo.obj
 0002:0001fda8       ??_R3type_info@@8          100cdda8     LIBCMTD:typinfo.obj
 0002:0001fdb8       ??_R2type_info@@8          100cddb8     LIBCMTD:typinfo.obj
 0002:0001fdc0       ??_R1A@?0A@EA@type_info@@8 100cddc0     LIBCMTD:typinfo.obj
 0002:0001fddc       ??_R1A@?0A@EA@exception@std@@8 100cdddc     LIBCMTD:new.obj
 0002:0001fdf8       ??_R3exception@std@@8      100cddf8     LIBCMTD:new.obj
 0002:0001fe08       ??_R2exception@std@@8      100cde08     LIBCMTD:new.obj
 0002:0001fe10       ??_R4bad_alloc@std@@6B@    100cde10     LIBCMTD:new.obj
 0002:0001fe24       ??_R3bad_alloc@std@@8      100cde24     LIBCMTD:new.obj
 0002:0001fe34       ??_R2bad_alloc@std@@8      100cde34     LIBCMTD:new.obj
 0002:0001fe40       ??_R1A@?0A@EA@bad_alloc@std@@8 100cde40     LIBCMTD:new.obj
 0002:0001fe5c       ??_R4exception@std@@6B@    100cde5c     LIBCMTD:stdexcpt.obj
 0002:0001fe70       ??_R4bad_cast@std@@6B@     100cde70     LIBCMTD:stdexcpt.obj
 0002:0001fe84       ??_R3bad_cast@std@@8       100cde84     LIBCMTD:stdexcpt.obj
 0002:0001fe94       ??_R2bad_cast@std@@8       100cde94     LIBCMTD:stdexcpt.obj
 0002:0001fea0       ??_R1A@?0A@EA@bad_cast@std@@8 100cdea0     LIBCMTD:stdexcpt.obj
 0002:0001febc       ??_R4bad_typeid@std@@6B@   100cdebc     LIBCMTD:stdexcpt.obj
 0002:0001fed0       ??_R3bad_typeid@std@@8     100cded0     LIBCMTD:stdexcpt.obj
 0002:0001fee0       ??_R2bad_typeid@std@@8     100cdee0     LIBCMTD:stdexcpt.obj
 0002:0001feec       ??_R1A@?0A@EA@bad_typeid@std@@8 100cdeec     LIBCMTD:stdexcpt.obj
 0002:0001ff08       ??_R4__non_rtti_object@std@@6B@ 100cdf08     LIBCMTD:stdexcpt.obj
 0002:0001ff1c       ??_R3__non_rtti_object@std@@8 100cdf1c     LIBCMTD:stdexcpt.obj
 0002:0001ff2c       ??_R2__non_rtti_object@std@@8 100cdf2c     LIBCMTD:stdexcpt.obj
 0002:0001ff3c       ??_R1A@?0A@EA@__non_rtti_object@std@@8 100cdf3c     LIBCMTD:stdexcpt.obj
 0002:0001ff58       ??_R4bad_exception@std@@6B@ 100cdf58     LIBCMTD:frame.obj
 0002:0001ff6c       ??_R3bad_exception@std@@8  100cdf6c     LIBCMTD:frame.obj
 0002:0001ff7c       ??_R2bad_exception@std@@8  100cdf7c     LIBCMTD:frame.obj
 0002:0001ff88       ??_R1A@?0A@EA@bad_exception@std@@8 100cdf88     LIBCMTD:frame.obj
 0002:0001ffa4       ??_R4DNameNode@@6B@        100cdfa4     LIBCMTD:undname.obj
 0002:0001ffb8       ??_R3DNameNode@@8          100cdfb8     LIBCMTD:undname.obj
 0002:0001ffc8       ??_R2DNameNode@@8          100cdfc8     LIBCMTD:undname.obj
 0002:0001ffd0       ??_R1A@?0A@EA@DNameNode@@8 100cdfd0     LIBCMTD:undname.obj
 0002:0001ffec       ??_R4charNode@@6B@         100cdfec     LIBCMTD:undname.obj
 0002:00020000       ??_R3charNode@@8           100ce000     LIBCMTD:undname.obj
 0002:00020010       ??_R2charNode@@8           100ce010     LIBCMTD:undname.obj
 0002:0002001c       ??_R1A@?0A@EA@charNode@@8  100ce01c     LIBCMTD:undname.obj
 0002:00020038       ??_R4pcharNode@@6B@        100ce038     LIBCMTD:undname.obj
 0002:0002004c       ??_R3pcharNode@@8          100ce04c     LIBCMTD:undname.obj
 0002:0002005c       ??_R2pcharNode@@8          100ce05c     LIBCMTD:undname.obj
 0002:00020068       ??_R1A@?0A@EA@pcharNode@@8 100ce068     LIBCMTD:undname.obj
 0002:00020084       ??_R4pDNameNode@@6B@       100ce084     LIBCMTD:undname.obj
 0002:00020098       ??_R3pDNameNode@@8         100ce098     LIBCMTD:undname.obj
 0002:000200a8       ??_R2pDNameNode@@8         100ce0a8     LIBCMTD:undname.obj
 0002:000200b4       ??_R1A@?0A@EA@pDNameNode@@8 100ce0b4     LIBCMTD:undname.obj
 0002:000200d0       ??_R4DNameStatusNode@@6B@  100ce0d0     LIBCMTD:undname.obj
 0002:000200e4       ??_R3DNameStatusNode@@8    100ce0e4     LIBCMTD:undname.obj
 0002:000200f4       ??_R2DNameStatusNode@@8    100ce0f4     LIBCMTD:undname.obj
 0002:00020100       ??_R1A@?0A@EA@DNameStatusNode@@8 100ce100     LIBCMTD:undname.obj
 0002:0002011c       ??_R4pairNode@@6B@         100ce11c     LIBCMTD:undname.obj
 0002:00020130       ??_R3pairNode@@8           100ce130     LIBCMTD:undname.obj
 0002:00020140       ??_R2pairNode@@8           100ce140     LIBCMTD:undname.obj
 0002:0002014c       ??_R1A@?0A@EA@pairNode@@8  100ce14c     LIBCMTD:undname.obj
 0002:00020340       ___safe_se_handler_table   100ce340     <linker-defined>
 0002:00020500       ___rtc_iaa                 100ce500     LIBCMTD:initsect.obj
 0002:00020790       ___rtc_izz                 100ce790     LIBCMTD:initsect.obj
 0002:00020894       ___rtc_taa                 100ce894     LIBCMTD:initsect.obj
 0002:00020b24       ___rtc_tzz                 100ceb24     LIBCMTD:initsect.obj
 0002:00021294       __TI2?AVbad_alloc@std@@    100cf294     LIBCMTD:new.obj
 0002:000212a4       __CTA2?AVbad_alloc@std@@   100cf2a4     LIBCMTD:new.obj
 0002:000212b0       __CT??_R0?AVbad_alloc@std@@@8??0bad_alloc@std@@QAE@ABV01@@Z12 100cf2b0     LIBCMTD:new.obj
 0002:000212cc       __CT??_R0?AVexception@std@@@8??0exception@std@@QAE@ABV01@@Z12 100cf2cc     LIBCMTD:new.obj
 0002:00021a44       __TI2?AVbad_exception@std@@ 100cfa44     LIBCMTD:frame.obj
 0002:00021a54       __CTA2?AVbad_exception@std@@ 100cfa54     LIBCMTD:frame.obj
 0002:00021a60       __CT??_R0?AVbad_exception@std@@@8??0bad_exception@std@@QAE@ABV01@@Z12 100cfa60     LIBCMTD:frame.obj
 0003:00000000       ??_R0?AVTCarParam@@@8      100d1000     unitcarparam.obj
 0003:0000001c       ??_R0?AVTClothoidLane@@@8  100d101c     unitclothoid.obj
 0003:00000040       ??_R0?AVTLane@@@8          100d1040     unitclothoid.obj
 0003:00000068       ?NBBOTS@TDriver@@2HA       100d1068     unitdriver.obj
 0003:0000006c       ?MyBotName@TDriver@@2PADA  100d106c     unitdriver.obj
 0003:00000070       ?ROBOT_DIR@TDriver@@2PADA  100d1070     unitdriver.obj
 0003:00000074       ?SECT_PRIV@TDriver@@2PADA  100d1074     unitdriver.obj
 0003:00000078       ?DEFAULTCARTYPE@TDriver@@2PADA 100d1078     unitdriver.obj
 0003:000000e0       ?RtTicksPerSec@@3NA        100d10e0     unitmain.obj
 0003:00000100       ??_R0?AVTPidController@@@8 100d1100     unitpidctrl.obj
 0003:00000124       ??_R0?AVTPitLane@@@8       100d1124     unitpit.obj
 0003:00000140       ?cPIT_DAMAGE@TSimpleStrategy@@2HA 100d1140     unitstrategy.obj
 0003:00000144       ??_R0?AVTAbstractStrategy@@@8 100d1144     unitstrategy.obj
 0003:0000016c       ??_R0?AVTSimpleStrategy@@@8 100d116c     unitstrategy.obj
 0003:00000190       ?_sgdGravity@@3PANA        100d1190     sg_vs2008_32:sgd.obj
 0003:000001c8       ??_R0?AVtype_info@@@8      100d11c8     LIBCMTD:typinfo.obj
 0003:000001e0       __fltused                  100d11e0     LIBCMTD:fpinit.obj
 0003:000001e4       __ldused                   100d11e4     LIBCMTD:fpinit.obj
 0003:000001e8       ??_R0?AVbad_alloc@std@@@8  100d11e8     LIBCMTD:new.obj
 0003:00000204       ??_R0?AVexception@std@@@8  100d1204     LIBCMTD:new.obj
 0003:00000220       ___security_cookie         100d1220     LIBCMTD:gs_cookie.obj
 0003:00000224       ___security_cookie_complement 100d1224     LIBCMTD:gs_cookie.obj
 0003:00000288       __iob                      100d1288     LIBCMTD:_file.obj
 0003:00000510       ?_RTC_ErrorLevels@@3PAHA   100d1510     LIBCMTD:error.obj
 0003:00000524       __cfltcvt_tab              100d1524     LIBCMTD:cmiscdat.obj
 0003:0000054c       ??_R0?AVbad_cast@std@@@8   100d154c     LIBCMTD:stdexcpt.obj
 0003:00000568       ??_R0?AVbad_typeid@std@@@8 100d1568     LIBCMTD:stdexcpt.obj
 0003:00000588       ??_R0?AV__non_rtti_object@std@@@8 100d1588     LIBCMTD:stdexcpt.obj
 0003:000006dc       __crtDbgFlag               100d16dc     LIBCMTD:dbgheap.obj
 0003:000006e0       __crtBreakAlloc            100d16e0     LIBCMTD:dbgheap.obj
 0003:000006e4       ___crtDebugFillThreshold   100d16e4     LIBCMTD:dbgheap.obj
 0003:000006ec       ___isa_enabled             100d16ec     LIBCMTD:cpu_disp.obj
 0003:00000860       ___nullstring              100d1860     LIBCMTD:output.obj
 0003:00000864       ___wnullstring             100d1864     LIBCMTD:output.obj
 0003:00000868       ___badioinfo               100d1868     LIBCMTD:ioinit.obj
 0003:000008a8       __lookuptrailbytes         100d18a8     LIBCMTD:read.obj
 0003:00000a90       __d_inf                    100d1a90     LIBCMTD:util.obj
 0003:00000a98       __d_ind                    100d1a98     LIBCMTD:util.obj
 0003:00000aa0       __d_max                    100d1aa0     LIBCMTD:util.obj
 0003:00000aa8       __d_min                    100d1aa8     LIBCMTD:util.obj
 0003:00000ab0       __d_mzero                  100d1ab0     LIBCMTD:util.obj
 0003:00000ad4       ___flsindex                100d1ad4     LIBCMTD:tidtable.obj
 0003:00000ae0       ??_R0?AVbad_exception@std@@@8 100d1ae0     LIBCMTD:frame.obj
 0003:00000b10       ___abort_behavior          100d1b10     LIBCMTD:abort.obj
 0003:00000b24       ___ptmbcinfo               100d1b24     LIBCMTD:mbctype.obj
 0003:00000c18       __mbctype                  100d1c18     LIBCMTD:mbctype.obj
 0003:00000d20       __mbcasemap                100d1d20     LIBCMTD:mbctype.obj
 0003:00000e20       ___initialmbcinfo          100d1e20     LIBCMTD:mbctype.obj
 0003:00001044       ??_R0?AVDNameNode@@@8      100d2044     LIBCMTD:undname.obj
 0003:0000105c       ??_R0?AVcharNode@@@8       100d205c     LIBCMTD:undname.obj
 0003:00001074       ??_R0?AVpcharNode@@@8      100d2074     LIBCMTD:undname.obj
 0003:0000108c       ??_R0?AVpDNameNode@@@8     100d208c     LIBCMTD:undname.obj
 0003:000010a8       ??_R0?AVDNameStatusNode@@@8 100d20a8     LIBCMTD:undname.obj
 0003:000010c8       ??_R0?AVpairNode@@@8       100d20c8     LIBCMTD:undname.obj
 0003:000010e0       ___wclocalestr             100d20e0     LIBCMTD:nlsdata.obj
 0003:000010e8       ___lc_time_c               100d20e8     LIBCMTD:nlsdata.obj
 0003:0000124c       ___ptlocinfo               100d224c     LIBCMTD:nlsdata.obj
 0003:00001250       ___initiallocinfo          100d2250     LIBCMTD:nlsdata.obj
 0003:00001308       ___initiallocalestructinfo 100d2308     LIBCMTD:nlsdata.obj
 0003:00001310       ___mb_cur_max              100d2310     LIBCMTD:nlsdata.obj
 0003:00001314       ___globallocalestatus      100d2314     LIBCMTD:glstatus.obj
 0003:00001318       __CrtDbgMode               100d2318     LIBCMTD:dbgrptt.obj
 0003:00001324       __CrtDbgFile               100d2324     LIBCMTD:dbgrptt.obj
 0003:00001330       __crtAssertBusy            100d2330     LIBCMTD:dbgrptt.obj
 0003:00001340       __pfnAllocHook             100d2340     LIBCMTD:dbghook.obj
 0003:00001344       __matherr_flag             100d2344     LIBCMTD:matherr.obj
 0003:00001350       __NLG_Destination          100d2350     LIBCMTD:exsup.obj
 0003:00001360       ___lconv                   100d2360     LIBCMTD:lconv.obj
 0003:00001364       ___lconv_static_decimal    100d2364     LIBCMTD:lconv.obj
 0003:00001368       ___lconv_c                 100d2368     LIBCMTD:lconv.obj
 0003:000013b8       ___lconv_static_W_decimal  100d23b8     LIBCMTD:lconv.obj
 0003:000013f0       __pctype                   100d23f0     LIBCMTD:ctype.obj
 0003:000013f4       __pwctype                  100d23f4     LIBCMTD:ctype.obj
 0003:00001400       __confh                    100d2400     LIBCMTD:initcon.obj
 0003:00001408       __pow10pos                 100d2408     LIBCMTD:constpow.obj
 0003:00001568       __pow10neg                 100d2568     LIBCMTD:constpow.obj
 0003:00001c40       ?BasicLengthMargin@@3NA    100d2c40     unitdriver.obj
 0003:00001c48       ?DistLong@@3PAMA           100d2c48     unitdriver.obj
 0003:00001d10       ?FlyLevel@TDriver@@2MA     100d2d10     unitdriver.obj
 0003:00001d14       ?FlySection@TDriver@@2MA   100d2d14     unitdriver.obj
 0003:00001d18       ?RLFactor@TDriver@@2MA     100d2d18     unitdriver.obj
 0003:00001d1c       ?MaxCrvAngle@TDriver@@2MA  100d2d1c     unitdriver.obj
 0003:00001d20       ?Apex@TDriver@@2NA         100d2d20     unitdriver.obj
 0003:00001d28       ?LengthMargin@TDriver@@2NA 100d2d28     unitdriver.obj
 0003:00001d30       ?Qualifying@TDriver@@2_NA  100d2d30     unitdriver.obj
 0003:00001d31       ?AdvancedParameters@TDriver@@2_NA 100d2d31     unitdriver.obj
 0003:00003538       ___fastflag                100d4538     LIBCMTD:fpinit.obj
 0003:00003548       __aenvptr                  100d4548     LIBCMTD:dllcrt0.obj
 0003:0000354c       __wenvptr                  100d454c     LIBCMTD:dllcrt0.obj
 0003:00003554       __umaskval                 100d4554     LIBCMTD:crt0dat.obj
 0003:00003558       __exitflag                 100d4558     LIBCMTD:crt0dat.obj
 0003:0000355c       __C_Termination_Done       100d455c     LIBCMTD:crt0dat.obj
 0003:00003560       ___winitenv                100d4560     LIBCMTD:crt0dat.obj
 0003:00003564       ___initenv                 100d4564     LIBCMTD:crt0dat.obj
 0003:00003568       __C_Exit_Done              100d4568     LIBCMTD:crt0dat.obj
 0003:00003570       ___argc                    100d4570     LIBCMTD:crt0dat.obj
 0003:00003574       ___argv                    100d4574     LIBCMTD:crt0dat.obj
 0003:00003578       ___wargv                   100d4578     LIBCMTD:crt0dat.obj
 0003:0000357c       __environ                  100d457c     LIBCMTD:crt0dat.obj
 0003:00003580       __wenviron                 100d4580     LIBCMTD:crt0dat.obj
 0003:00003584       __pgmptr                   100d4584     LIBCMTD:crt0dat.obj
 0003:00003588       __wpgmptr                  100d4588     LIBCMTD:crt0dat.obj
 0003:0000358c       __cflush                   100d458c     LIBCMTD:_file.obj
 0003:00003590       ?wsprintffp@@3P6AHPADPBDZZA 100d4590     LIBCMTD:error.obj
 0003:000035a4       ?_pnhHeap@@3P6AHI@ZA       100d45a4     LIBCMTD:handler.obj
 0003:00003710       ___crtDebugCheckCount      100d4710     LIBCMTD:dbgheap.obj
 0003:00003718       ?_pfnDumpClient@@3P6AXPAXI@ZA 100d4718     LIBCMTD:dbgheap.obj
 0003:00003738       ___isa_available           100d4738     LIBCMTD:cpu_disp.obj
 0003:0000373c       ___favor                   100d473c     LIBCMTD:cpu_disp.obj
 0003:00003740       ___pInvalidArgHandler      100d4740     LIBCMTD:invarg.obj
 0003:00003744       __stdbuf                   100d4744     LIBCMTD:_sftbuf.obj
 0003:00003750       ___pioinfo                 100d4750     LIBCMTD:ioinit.obj
 0003:00003b70       ?__pInconsistency@@3P6AXXZA 100d4b70     LIBCMTD:hooks.obj
 0003:00003b78       ___app_type                100d4b78     LIBCMTD:crt0msg.obj
 0003:000041a8       ___pPurecall               100d51a8     LIBCMTD:inithelp.obj
 0003:000041ac       __crtheap                  100d51ac     LIBCMTD:heapinit.obj
 0003:000042d0       ___mblocalename            100d52d0     LIBCMTD:mbctype.obj
 0003:000042d4       ___mbcodepage              100d52d4     LIBCMTD:mbctype.obj
 0003:000042d8       ___ismbcodepage            100d52d8     LIBCMTD:mbctype.obj
 0003:000042dc       ___mbulinfo                100d52dc     LIBCMTD:mbctype.obj
 0003:000042f4       ?pArgList@UnDecorator@@0PAVReplicator@@A 100d52f4     LIBCMTD:undname.obj
 0003:000042f8       ?pZNameList@UnDecorator@@0PAVReplicator@@A 100d52f8     LIBCMTD:undname.obj
 0003:000042fc       ?pTemplateArgList@UnDecorator@@0PAVReplicator@@A 100d52fc     LIBCMTD:undname.obj
 0003:00004300       ?gName@UnDecorator@@0PBDB  100d5300     LIBCMTD:undname.obj
 0003:00004304       ?name@UnDecorator@@0PBDB   100d5304     LIBCMTD:undname.obj
 0003:00004308       ?outputString@UnDecorator@@0PADA 100d5308     LIBCMTD:undname.obj
 0003:0000430c       ?maxStringLength@UnDecorator@@0HA 100d530c     LIBCMTD:undname.obj
 0003:00004310       ?disableFlags@UnDecorator@@0KA 100d5310     LIBCMTD:undname.obj
 0003:00004314       ?fExplicitTemplateParams@UnDecorator@@0_NA 100d5314     LIBCMTD:undname.obj
 0003:00004315       ?fGetTemplateArgumentList@UnDecorator@@0_NA 100d5315     LIBCMTD:undname.obj
 0003:00004318       ?m_pGetParameter@UnDecorator@@0P6APADJ@ZA 100d5318     LIBCMTD:undname.obj
 0003:00004380       ?nodes@?1??make@DNameStatusNode@@SAPAV2@W4DNameStatus@@@Z@4PAV2@A 100d5380     LIBCMTD:undname.obj
 0003:000043b0       ??_B?1??make@DNameStatusNode@@SAPAV1@W4DNameStatus@@@Z@51 100d53b0     LIBCMTD:undname.obj
 0003:000043b4       __outputformat             100d53b4     LIBCMTD:outputformat.obj
 0003:000043b8       __newmode                  100d53b8     LIBCMTD:_newmode.obj
 0003:000043d0       __commode                  100d53d0     LIBCMTD:ncommode.obj
 0003:000043d4       ___error_mode              100d53d4     LIBCMTD:errmode.obj
 0003:000043dc       ___lconv_static_null       100d53dc     LIBCMTD:lconv.obj
 0003:000043e0       ___lconv_static_W_null     100d53e0     LIBCMTD:lconv.obj
 0003:000043e4       ___locale_changed          100d53e4     LIBCMTD:wsetloca.obj
 0003:000043e8       __fmode                    100d53e8     LIBCMTD:txtmode.obj
 0003:000043ec       ___unguarded_readlc_active 100d53ec     <common>
 0003:000043fc       ___setlc_active            100d53fc     <common>
 0003:00004400       __debugger_hook_dummy      100d5400     <common>
 0003:0000440c       __pReportHookListW         100d540c     <common>
 0003:0000441c       __pReportHookList          100d541c     <common>
 0003:00004420       __pfnReportHook            100d5420     <common>
 0003:00004440       _encodedKERNEL32Functions  100d5440     <common>
 0003:000044d4       __nhandle                  100d54d4     <common>
 0003:000044e0       ___use_sse2_mathfcns       100d54e0     <common>
 0003:000044ec       __pmatherr                 100d54ec     <common>
 0003:000044f8       ___piob                    100d54f8     <common>
 0003:00004838       __nstream                  100d5838     <common>
 0003:00004840       __bufin                    100d5840     <common>
 0003:00005840       ___dyn_tls_init_callback   100d6840     <common>
 0003:00005850       ___onexitend               100d6850     <common>
 0003:00005854       ___onexitbegin             100d6854     <common>
 0003:00005858       ___mbctype_initialized     100d6858     <common>
 0003:0000585c       ___env_initialized         100d685c     <common>
 0003:00005860       __acmdln                   100d6860     <common>
 0004:00000000       __IMPORT_DESCRIPTOR_tgf    100d7000     tgf:tgf.dll
 0004:00000014       __IMPORT_DESCRIPTOR_robottools 100d7014     robottools:robottools.dll
 0004:00000028       __IMPORT_DESCRIPTOR_KERNEL32 100d7028     kernel32:KERNEL32.dll
 0004:0000003c       __NULL_IMPORT_DESCRIPTOR   100d703c     tgf:tgf.dll
 0004:000002cc       __imp__ReadFile@20         100d72cc     kernel32:KERNEL32.dll
 0004:000002d0       __imp__CreateFileW@28      100d72d0     kernel32:KERNEL32.dll
 0004:000002d4       __imp__GetStringTypeW@16   100d72d4     kernel32:KERNEL32.dll
 0004:000002d8       __imp__EnumSystemLocalesW@8 100d72d8     kernel32:KERNEL32.dll
 0004:000002dc       __imp__GetUserDefaultLCID@0 100d72dc     kernel32:KERNEL32.dll
 0004:000002e0       __imp__IsValidLocale@8     100d72e0     kernel32:KERNEL32.dll
 0004:000002e4       __imp__GetLocaleInfoW@16   100d72e4     kernel32:KERNEL32.dll
 0004:000002e8       __imp__LCMapStringW@24     100d72e8     kernel32:KERNEL32.dll
 0004:000002ec       __imp__CompareStringW@24   100d72ec     kernel32:KERNEL32.dll
 0004:000002f0       __imp__GetTimeFormatW@24   100d72f0     kernel32:KERNEL32.dll
 0004:000002f4       __imp__GetDateFormatW@24   100d72f4     kernel32:KERNEL32.dll
 0004:000002f8       __imp__SetFilePointerEx@20 100d72f8     kernel32:KERNEL32.dll
 0004:000002fc       __imp__FlushFileBuffers@4  100d72fc     kernel32:KERNEL32.dll
 0004:00000300       __imp__SetStdHandle@8      100d7300     kernel32:KERNEL32.dll
 0004:00000304       __imp__HeapQueryInformation@20 100d7304     kernel32:KERNEL32.dll
 0004:00000308       __imp__HeapSize@12         100d7308     kernel32:KERNEL32.dll
 0004:0000030c       __imp__HeapReAlloc@16      100d730c     kernel32:KERNEL32.dll
 0004:00000310       __imp__WriteConsoleW@20    100d7310     kernel32:KERNEL32.dll
 0004:00000314       __imp__OutputDebugStringA@4 100d7314     kernel32:KERNEL32.dll
 0004:00000318       __imp__QueryPerformanceCounter@4 100d7318     kernel32:KERNEL32.dll
 0004:0000031c       __imp__QueryPerformanceFrequency@4 100d731c     kernel32:KERNEL32.dll
 0004:00000320       __imp__RtlUnwind@16        100d7320     kernel32:KERNEL32.dll
 0004:00000324       __imp__EncodePointer@4     100d7324     kernel32:KERNEL32.dll
 0004:00000328       __imp__DecodePointer@4     100d7328     kernel32:KERNEL32.dll
 0004:0000032c       __imp__GetSystemTimeAsFileTime@4 100d732c     kernel32:KERNEL32.dll
 0004:00000330       __imp__GetCommandLineA@0   100d7330     kernel32:KERNEL32.dll
 0004:00000334       __imp__GetCurrentThreadId@0 100d7334     kernel32:KERNEL32.dll
 0004:00000338       __imp__GetLastError@0      100d7338     kernel32:KERNEL32.dll
 0004:0000033c       __imp__InterlockedDecrement@4 100d733c     kernel32:KERNEL32.dll
 0004:00000340       __imp__ExitProcess@4       100d7340     kernel32:KERNEL32.dll
 0004:00000344       __imp__GetModuleHandleExW@12 100d7344     kernel32:KERNEL32.dll
 0004:00000348       __imp__GetProcAddress@8    100d7348     kernel32:KERNEL32.dll
 0004:0000034c       __imp__AreFileApisANSI@0   100d734c     kernel32:KERNEL32.dll
 0004:00000350       __imp__MultiByteToWideChar@24 100d7350     kernel32:KERNEL32.dll
 0004:00000354       __imp__EnterCriticalSection@4 100d7354     kernel32:KERNEL32.dll
 0004:00000358       __imp__LeaveCriticalSection@4 100d7358     kernel32:KERNEL32.dll
 0004:0000035c       __imp__IsDebuggerPresent@0 100d735c     kernel32:KERNEL32.dll
 0004:00000360       __imp__RaiseException@16   100d7360     kernel32:KERNEL32.dll
 0004:00000364       __imp__LoadLibraryExW@12   100d7364     kernel32:KERNEL32.dll
 0004:00000368       __imp__lstrlenA@4          100d7368     kernel32:KERNEL32.dll
 0004:0000036c       __imp__LoadLibraryW@4      100d736c     kernel32:KERNEL32.dll
 0004:00000370       __imp__WideCharToMultiByte@32 100d7370     kernel32:KERNEL32.dll
 0004:00000374       __imp__InitializeCriticalSectionAndSpinCount@8 100d7374     kernel32:KERNEL32.dll
 0004:00000378       __imp__DeleteCriticalSection@4 100d7378     kernel32:KERNEL32.dll
 0004:0000037c       __imp__FatalAppExitA@8     100d737c     kernel32:KERNEL32.dll
 0004:00000380       __imp__GetModuleFileNameW@12 100d7380     kernel32:KERNEL32.dll
 0004:00000384       __imp__HeapValidate@12     100d7384     kernel32:KERNEL32.dll
 0004:00000388       __imp__GetSystemInfo@4     100d7388     kernel32:KERNEL32.dll
 0004:0000038c       __imp__IsProcessorFeaturePresent@4 100d738c     kernel32:KERNEL32.dll
 0004:00000390       __imp__CloseHandle@4       100d7390     kernel32:KERNEL32.dll
 0004:00000394       __imp__GetStdHandle@4      100d7394     kernel32:KERNEL32.dll
 0004:00000398       __imp__GetFileType@4       100d7398     kernel32:KERNEL32.dll
 0004:0000039c       __imp__GetStartupInfoW@4   100d739c     kernel32:KERNEL32.dll
 0004:000003a0       __imp__SetEndOfFile@4      100d73a0     kernel32:KERNEL32.dll
 0004:000003a4       __imp__GetConsoleMode@8    100d73a4     kernel32:KERNEL32.dll
 0004:000003a8       __imp__ReadConsoleW@20     100d73a8     kernel32:KERNEL32.dll
 0004:000003ac       __imp__WriteFile@20        100d73ac     kernel32:KERNEL32.dll
 0004:000003b0       __imp__GetConsoleCP@0      100d73b0     kernel32:KERNEL32.dll
 0004:000003b4       __imp__SetLastError@4      100d73b4     kernel32:KERNEL32.dll
 0004:000003b8       __imp__InterlockedIncrement@4 100d73b8     kernel32:KERNEL32.dll
 0004:000003bc       __imp__GetCurrentThread@0  100d73bc     kernel32:KERNEL32.dll
 0004:000003c0       __imp__GetProcessHeap@0    100d73c0     kernel32:KERNEL32.dll
 0004:000003c4       __imp__GetModuleFileNameA@12 100d73c4     kernel32:KERNEL32.dll
 0004:000003c8       __imp__GetCurrentProcessId@0 100d73c8     kernel32:KERNEL32.dll
 0004:000003cc       __imp__GetEnvironmentStringsW@0 100d73cc     kernel32:KERNEL32.dll
 0004:000003d0       __imp__FreeEnvironmentStringsW@4 100d73d0     kernel32:KERNEL32.dll
 0004:000003d4       __imp__UnhandledExceptionFilter@4 100d73d4     kernel32:KERNEL32.dll
 0004:000003d8       __imp__SetUnhandledExceptionFilter@4 100d73d8     kernel32:KERNEL32.dll
 0004:000003dc       __imp__GetCurrentProcess@0 100d73dc     kernel32:KERNEL32.dll
 0004:000003e0       __imp__TerminateProcess@8  100d73e0     kernel32:KERNEL32.dll
 0004:000003e4       __imp__TlsAlloc@0          100d73e4     kernel32:KERNEL32.dll
 0004:000003e8       __imp__TlsGetValue@4       100d73e8     kernel32:KERNEL32.dll
 0004:000003ec       __imp__TlsSetValue@8       100d73ec     kernel32:KERNEL32.dll
 0004:000003f0       __imp__TlsFree@4           100d73f0     kernel32:KERNEL32.dll
 0004:000003f4       __imp__GetModuleHandleW@4  100d73f4     kernel32:KERNEL32.dll
 0004:000003f8       __imp__CreateSemaphoreW@16 100d73f8     kernel32:KERNEL32.dll
 0004:000003fc       __imp__InterlockedExchange@8 100d73fc     kernel32:KERNEL32.dll
 0004:00000400       __imp__FreeLibrary@4       100d7400     kernel32:KERNEL32.dll
 0004:00000404       __imp__SetConsoleCtrlHandler@8 100d7404     kernel32:KERNEL32.dll
 0004:00000408       __imp__IsValidCodePage@4   100d7408     kernel32:KERNEL32.dll
 0004:0000040c       __imp__GetACP@0            100d740c     kernel32:KERNEL32.dll
 0004:00000410       __imp__GetOEMCP@0          100d7410     kernel32:KERNEL32.dll
 0004:00000414       __imp__GetCPInfo@8         100d7414     kernel32:KERNEL32.dll
 0004:00000418       __imp__HeapAlloc@12        100d7418     kernel32:KERNEL32.dll
 0004:0000041c       __imp__HeapFree@12         100d741c     kernel32:KERNEL32.dll
 0004:00000420       __imp__VirtualQuery@12     100d7420     kernel32:KERNEL32.dll
 0004:00000424       __imp__OutputDebugStringW@4 100d7424     kernel32:KERNEL32.dll
 0004:00000428       __imp__WaitForSingleObjectEx@12 100d7428     kernel32:KERNEL32.dll
 0004:0000042c       __imp__CreateThread@24     100d742c     kernel32:KERNEL32.dll
 0004:00000430       \177KERNEL32_NULL_THUNK_DATA 100d7430     kernel32:KERNEL32.dll
 0004:000004a0       __imp_?RtGetDistFromStart2@@YAMPAUtTrkLocPos@@@Z 100d74a0     robottools:robottools.dll
 0004:000004a4       __imp_?RtDistToPit@@YAHPAUCarElt@@PAUtTrack@@PAM2@Z 100d74a4     robottools:robottools.dll
 0004:000004a8       __imp_?RtGetDistFromStart@@YAMPAUCarElt@@@Z 100d74a8     robottools:robottools.dll
 0004:000004ac       __imp_?RtTrackSideTgAngleL@@YAMPAUtTrkLocPos@@@Z 100d74ac     robottools:robottools.dll
 0004:000004b0       __imp_?RtTrackHeightL@@YAMPAUtTrkLocPos@@@Z 100d74b0     robottools:robottools.dll
 0004:000004b4       __imp_?RtTrackGlobal2Local@@YAXPAUtrackSeg@@MMPAUtTrkLocPos@@H@Z 100d74b4     robottools:robottools.dll
 0004:000004b8       \177robottools_NULL_THUNK_DATA 100d74b8     robottools:robottools.dll
 0004:000004e8       __imp_?GfParmSetNum@@YAHPAXPBD11M@Z 100d74e8     tgf:tgf.dll
 0004:000004ec       __imp_?GfCreateDir@@YAHPAD@Z 100d74ec     tgf:tgf.dll
 0004:000004f0       __imp_?GetLocalDir@@YAPADXZ 100d74f0     tgf:tgf.dll
 0004:000004f4       __imp_?GfParmGetEltNb@@YAHPAXPBD@Z 100d74f4     tgf:tgf.dll
 0004:000004f8       __imp_?GfParmGetStr@@YAPBDPAXPBD11@Z 100d74f8     tgf:tgf.dll
 0004:000004fc       __imp_?_tgf_win_strdup@@YAPADPBD@Z 100d74fc     tgf:tgf.dll
 0004:00000500       __imp_?_tgf_win_free@@YAXPAX@Z 100d7500     tgf:tgf.dll
 0004:00000504       __imp_?_tgf_win_malloc@@YAPAXI@Z 100d7504     tgf:tgf.dll
 0004:00000508       __imp_?GfParmMergeHandles@@YAPAXPAX0H@Z 100d7508     tgf:tgf.dll
 0004:0000050c       __imp_?GfParmReadFile@@YAPAXPBDH@Z 100d750c     tgf:tgf.dll
 0004:00000510       __imp_?GfParmGetNum@@YAMPAXPBD11M@Z 100d7510     tgf:tgf.dll
 0004:00000514       \177tgf_NULL_THUNK_DATA    100d7514     tgf:tgf.dll

 entry point at        0001:00041050

