 simuv2

 Timestamp is 51830471 (Fri May 03 02:27:29 2013)

 Preferred load address is 10000000

 Start         Length     Name                   Class
 0001:00000000 00094e52H .text                   CODE
 0001:00094e60 00002763H .text$x                 CODE
 0001:000975d0 0000150dH .text$yc                CODE
 0001:00098ae0 0000078fH .text$yd                CODE
 0002:00000000 00000194H .idata$5                DATA
 0002:00000194 00000004H .CRT$XCA                DATA
 0002:00000198 00000004H .CRT$XCC                DATA
 0002:0000019c 000000ecH .CRT$XCU                DATA
 0002:00000288 00000004H .CRT$XCZ                DATA
 0002:0000028c 00000004H .CRT$XIA                DATA
 0002:00000290 00000014H .CRT$XIC                DATA
 0002:000002a4 00000004H .CRT$XIZ                DATA
 0002:000002a8 00000004H .CRT$XPA                DATA
 0002:000002ac 00000008H .CRT$XPX                DATA
 0002:000002b4 00000004H .CRT$XPXA               DATA
 0002:000002b8 00000004H .CRT$XPZ                DATA
 0002:000002bc 00000004H .CRT$XTA                DATA
 0002:000002c0 00000004H .CRT$XTZ                DATA
 0002:000002d0 0001cf48H .rdata                  DATA
 0002:0001d218 00000088H .rdata$debug            DATA
 0002:0001d2a0 00000ae8H .rdata$r                DATA
 0002:0001dd90 000002d4H .rdata$sxdata           DATA
 0002:0001e064 00000004H .rtc$IAA                DATA
 0002:0001e068 00000078H .rtc$IMZ                DATA
 0002:0001e0e0 00000004H .rtc$IZZ                DATA
 0002:0001e0e4 00000004H .rtc$TAA                DATA
 0002:0001e0e8 00000078H .rtc$TMZ                DATA
 0002:0001e160 00000004H .rtc$TZZ                DATA
 0002:0001e168 000035a4H .xdata$x                DATA
 0002:0002170c 0000003cH .idata$2                DATA
 0002:00021748 00000014H .idata$3                DATA
 0002:0002175c 00000194H .idata$4                DATA
 0002:000218f0 0000074cH .idata$6                DATA
 0002:00022040 00000044H .edata                  DATA
 0003:00000000 00001810H .data                   DATA
 0003:00001820 00002ef8H .bss                    DATA

  Address         Publics by Value              Rva+Base       Lib:Object

 0000:00000000       __except_list              00000000     <absolute>
 0000:000000b5       ___safe_se_handler_count   000000b5     <absolute>
 0000:00000000       ___ImageBase               10000000     <linker-defined>
 0001:00000000       ?SimAeroConfig@@YAXPAUtCar@@@Z 10001000 f   aero.obj
 0001:00000140       ?SimAeroUpdate@@YAXPAUtCar@@PAUSituation@@@Z 10001140 f   aero.obj
 0001:00000820       ?SimWingConfig@@YAXPAUtCar@@H@Z 10001820 f   aero.obj
 0001:000009c0       ?SimWingUpdate@@YAXPAUtCar@@HPAUSituation@@@Z 100019c0 f   aero.obj
 0001:00000b00       ?atan2@@YAMMM@Z            10001b00 f i aero.obj
 0001:00000b30       ?exp@@YAMM@Z               10001b30 f i aero.obj
 0001:00000b50       ?fabs@@YAMM@Z              10001b50 f i aero.obj
 0001:00000b70       ?sgdMakeCoordMat4@@YAXQAY03NPBUsgdCoord@@@Z 10001b70 f i aero.obj
 0001:00000ba0       ?sgdMakeCoordMat4@@YAXQAY03NQBN1@Z 10001ba0 f i aero.obj
 0001:00000c50       ?sin@@YAMM@Z               10001c50 f i aero.obj
 0001:00000c70       ?sqrt@@YAMM@Z              10001c70 f i aero.obj
 0001:00000c90       _atan2f                    10001c90 f i aero.obj
 0001:00000cf0       _expf                      10001cf0 f i aero.obj
 0001:00000d50       _fabsf                     10001d50 f i aero.obj
 0001:00000db0       _sinf                      10001db0 f i aero.obj
 0001:00000e10       _sqrtf                     10001e10 f i aero.obj
 0001:00000e70       ?SimAxleConfig@@YAXPAUtCar@@H@Z 10001e70 f   axle.obj
 0001:000010b0       ?SimAxleUpdate@@YAXPAUtCar@@H@Z 100020b0 f   axle.obj
 0001:00001200       ?SimBrakeConfig@@YAXPAXPBDPAUtBrake@@@Z 10002200 f   brake.obj
 0001:00001310       ?SimBrakeUpdate@@YAXPAUtCar@@PAUtWheel@@PAUtBrake@@@Z 10002310 f   brake.obj
 0001:00001440       ?SimBrakeSystemConfig@@YAXPAUtCar@@@Z 10002440 f   brake.obj
 0001:000014c0       ?SimBrakeSystemUpdate@@YAXPAUtCar@@@Z 100024c0 f   brake.obj
 0001:000015a0       ?SimCarConfig@@YAXPAUtCar@@@Z 100025a0 f   car.obj
 0001:00002140       ?SimCarUpdate@@YAXPAUtCar@@PAUSituation@@@Z 10003140 f   car.obj
 0001:000021a0       ?SimCarUpdate2@@YAXPAUtCar@@PAUSituation@@@Z 100031a0 f   car.obj
 0001:000021d0       ?SimCarUpdateWheelPos@@YAXPAUtCar@@@Z 100031d0 f   car.obj
 0001:000034d0       ?SimTelemetryOut@@YAXPAUtCar@@@Z 100044d0 f   car.obj
 0001:000039b0       ?cos@@YAMM@Z               100049b0 f i car.obj
 0001:000039d0       _cosf                      100049d0 f i car.obj
 0001:00003a30       ?SimCarCollideZ@@YAXPAUtCar@@@Z 10004a30 f   collide.obj
 0001:00003cc0       ?SimCarCollideXYScene@@YAXPAUtCar@@@Z 10004cc0 f   collide.obj
 0001:000042d0       ?SimCarCollideCars@@YAXPAUSituation@@@Z 100052d0 f   collide.obj
 0001:00004490       ?SimCarCollideConfig@@YAXPAUtCar@@PAUtTrack@@@Z 10005490 f   collide.obj
 0001:00004520       ?SimCarCollideShutdown@@YAXH@Z 10005520 f   collide.obj
 0001:00004620       ?SimCarCollideInit@@YAXPAUtTrack@@@Z 10005620 f   collide.obj
 0001:00004740       ?SimCollideRemoveCar@@YAXPAUtCar@@H@Z 10005740 f   collide.obj
 0001:000061c0       ?buildWalls@@YAXPAUtrackSeg@@H@Z 100071c0 f   collide.obj
 0001:00006930       ?sgAddVec2@@YAXQAMQBM1@Z   10007930 f i collide.obj
 0001:000069a0       ?sgAddVec2@@YAXQAMQBM@Z    100079a0 f i collide.obj
 0001:00006a10       ?sgCopyVec2@@YAXQAMQBM@Z   10007a10 f i collide.obj
 0001:00006a50       ?sgFullXformPnt3@@YAXQAMQAY03$$CBM@Z 10007a50 f i collide.obj
 0001:00006a70       ?sgLengthVec2@@YAMQBM@Z    10007a70 f i collide.obj
 0001:00006aa0       ?sgNormaliseVec2@@YAXQAM@Z 10007aa0 f i collide.obj
 0001:00006af0       ?sgScalarProductVec2@@YAMQBM0@Z 10007af0 f i collide.obj
 0001:00006b50       ?sgScaleVec2@@YAXQAMM@Z    10007b50 f i collide.obj
 0001:00006ba0       ?sgScaleVec2@@YAXQAMQBMM@Z 10007ba0 f i collide.obj
 0001:00006bf0       ?sgSqrt@@YAMM@Z            10007bf0 f i collide.obj
 0001:00006c10       ?sgSubVec2@@YAXQAMQBM1@Z   10007c10 f i collide.obj
 0001:00006c80       ?sgSubVec2@@YAXQAMQBM@Z    10007c80 f i collide.obj
 0001:00006cf0       ?SimDifferentialConfig@@YAXPAXPBDPAUtDifferential@@@Z 10007cf0 f   differential.obj
 0001:00006fe0       ?SimDifferentialUpdate@@YAXPAUtCar@@PAUtDifferential@@H@Z 10007fe0 f   differential.obj
 0001:00007ba0       ?SimEngineConfig@@YAXPAUtCar@@@Z 10008ba0 f   engine.obj
 0001:00008100       ?SimEngineUpdateTq@@YAXPAUtCar@@@Z 10009100 f   engine.obj
 0001:00008330       ?SimEngineUpdateRpm@@YAMPAUtCar@@M@Z 10009330 f   engine.obj
 0001:000085f0       ?SimEngineShutdown@@YAXPAUtCar@@@Z 100095f0 f   engine.obj
 0001:00008610       ?urandom@@YAMXZ            10009610 f i engine.obj
 0001:00008650       ?SimConfig@@YAXPAUCarElt@@PAURmInfo@@@Z 10009650 f   simu.obj
 0001:00008820       ?SimReConfig@@YAXPAUCarElt@@@Z 10009820 f   simu.obj
 0001:000088f0       ?SimUpdate@@YAXPAUSituation@@NH@Z 100098f0 f   simu.obj
 0001:00008ed0       ?SimInit@@YAXHPAUtTrack@@@Z 10009ed0 f   simu.obj
 0001:00008f10       ?SimShutdown@@YAXXZ        10009f10 f   simu.obj
 0001:00009ff0       ?DllEntryPoint@@YGHPAUHINSTANCE__@@KPAX@Z 1000aff0 f   simuitf.obj
 0001:0000a050       _simuv2                    1000b050 f   simuitf.obj
 0001:0000a0b0       ?SimSteerConfig@@YAXPAUtCar@@@Z 1000b0b0 f   steer.obj
 0001:0000a150       ?SimSteerUpdate@@YAXPAUtCar@@@Z 1000b150 f   steer.obj
 0001:0000a340       ?tan@@YAMM@Z               1000b340 f i steer.obj
 0001:0000a360       _tanf                      1000b360 f i steer.obj
 0001:0000a3c0       ?SimSuspCheckIn@@YAXPAUSuspension@@@Z 1000b3c0 f   susp.obj
 0001:0000a440       ?SimSuspUpdate@@YAXPAUSuspension@@@Z 1000b440 f   susp.obj
 0001:0000a4b0       ?SimSuspConfig@@YAXPAXPBDPAUSuspension@@MM@Z 1000b4b0 f   susp.obj
 0001:0000a8d0       ?SimTransmissionConfig@@YAXPAUtCar@@@Z 1000b8d0 f   transmission.obj
 0001:0000b510       ?SimTransmissionUpdate@@YAXPAUtCar@@@Z 1000c510 f   transmission.obj
 0001:0000b8d0       ?SimGearboxUpdate@@YAXPAUtCar@@@Z 1000c8d0 f   transmission.obj
 0001:0000c060       ?SimWheelConfig@@YAXPAUtCar@@H@Z 1000d060 f   wheel.obj
 0001:0000c8d0       ?SimWheelUpdateRide@@YAXPAUtCar@@H@Z 1000d8d0 f   wheel.obj
 0001:0000ca70       ?SimWheelUpdateForce@@YAXPAUtCar@@H@Z 1000da70 f   wheel.obj
 0001:0000d390       ?SimWheelUpdateRotation@@YAXPAUtCar@@@Z 1000e390 f   wheel.obj
 0001:0000d560       ?SimUpdateFreeWheels@@YAXPAUtCar@@H@Z 1000e560 f   wheel.obj
 0001:0000d720       ?asin@@YAMM@Z              1000e720 f i wheel.obj
 0001:0000d740       ?atan@@YAMM@Z              1000e740 f i wheel.obj
 0001:0000d760       ?log@@YAMM@Z               1000e760 f i wheel.obj
 0001:0000d780       _asinf                     1000e780 f i wheel.obj
 0001:0000d7e0       _atanf                     1000e7e0 f i wheel.obj
 0001:0000d840       _logf                      1000e840 f i wheel.obj
 0001:0000d8a0       _dtBox                     1000e8a0 f   solid:C-api.obj
 0001:0000d920       _dtCone                    1000e920 f   solid:C-api.obj
 0001:0000d9a0       _dtCylinder                1000e9a0 f   solid:C-api.obj
 0001:0000da20       _dtSphere                  1000ea20 f   solid:C-api.obj
 0001:0000da90       _dtNewComplexShape         1000ea90 f   solid:C-api.obj
 0001:0000db00       _dtEndComplexShape         1000eb00 f   solid:C-api.obj
 0001:0000dce0       _dtBegin                   1000ece0 f   solid:C-api.obj
 0001:0000dcf0       _dtEnd                     1000ecf0 f   solid:C-api.obj
 0001:0000dda0       _dtVertex                  1000eda0 f   solid:C-api.obj
 0001:0000dec0       _dtVertexIndex             1000eec0 f   solid:C-api.obj
 0001:0000dee0       _dtVertexIndices           1000eee0 f   solid:C-api.obj
 0001:0000e0e0       _dtVertexRange             1000f0e0 f   solid:C-api.obj
 0001:0000e180       _dtDeleteShape             1000f180 f   solid:C-api.obj
 0001:0000e2c0       _dtCreateObject            1000f2c0 f   solid:C-api.obj
 0001:0000e350       _dtDeleteObject            1000f350 f   solid:C-api.obj
 0001:0000e470       _dtSelectObject            1000f470 f   solid:C-api.obj
 0001:0000e530       _dtLoadIdentity            1000f530 f   solid:C-api.obj
 0001:0000e550       _dtLoadMatrixf             1000f550 f   solid:C-api.obj
 0001:0000e580       _dtLoadMatrixd             1000f580 f   solid:C-api.obj
 0001:0000e5b0       _dtMultMatrixf             1000f5b0 f   solid:C-api.obj
 0001:0000e5e0       _dtMultMatrixd             1000f5e0 f   solid:C-api.obj
 0001:0000e610       _dtTranslate               1000f610 f   solid:C-api.obj
 0001:0000e6a0       _dtRotate                  1000f6a0 f   solid:C-api.obj
 0001:0000e740       _dtScale                   1000f740 f   solid:C-api.obj
 0001:0000e790       _dtSetDefaultResponse      1000f790 f   solid:C-api.obj
 0001:0000e7e0       _dtClearDefaultResponse    1000f7e0 f   solid:C-api.obj
 0001:0000e830       _dtSetObjectResponse       1000f830 f   solid:C-api.obj
 0001:0000e880       _dtClearObjectResponse     1000f880 f   solid:C-api.obj
 0001:0000e8d0       _dtResetObjectResponse     1000f8d0 f   solid:C-api.obj
 0001:0000e8f0       _dtSetPairResponse         1000f8f0 f   solid:C-api.obj
 0001:0000e940       _dtClearPairResponse       1000f940 f   solid:C-api.obj
 0001:0000e990       _dtResetPairResponse       1000f990 f   solid:C-api.obj
 0001:0000e9b0       _dtTest                    1000f9b0 f   solid:C-api.obj
 0001:0000ebd0       _dtProceed                 1000fbd0 f   solid:C-api.obj
 0001:0000ed00       _dtEnableCaching           1000fd00 f   solid:C-api.obj
 0001:0000edd0       _dtDisableCaching          1000fdd0 f   solid:C-api.obj
 0001:0000ede0       _dtSetTolerance            1000fde0 f   solid:C-api.obj
 0001:0000ee00       ?dtVertexBase@@YAXPBVPoint@@@Z 1000fe00 f   solid:C-api.obj
 0001:0000ee20       ?dtChangeVertexBase@@YAXPAXPBVPoint@@@Z 1000fe20 f   solid:C-api.obj
 0001:0000ef80       ?addPair@@YAXPBVObject@@0@Z 1000ff80 f   solid:C-api.obj
 0001:0000efe0       ?removePair@@YAXPBVObject@@0@Z 1000ffe0 f   solid:C-api.obj
 0001:0000f050       ?object_test@@YA_NAAVEncounter@@@Z 10010050 f   solid:C-api.obj
 0001:0000f310       ??$?0AAPAXAAPAX@?$pair@PAXPAX@std@@QAE@AAPAX0PAPAX@Z 10010310 f i solid:C-api.obj
 0001:0000f360       ??$?0AAV?$_Tree_const_iterator@V?$_Tree_val@U?$_Tree_simple_types@VEncounter@@@std@@@std@@@std@@AAV01@@?$pair@V?$_Tree_const_iterator@V?$_Tree_val@U?$_Tree_simple_types@VEncounter@@@std@@@std@@@std@@V12@@std@@QAE@AAV?$_Tree_const_iterator@V?$_Tree_val@U?$_Tree_simple_types@VEncounter@@@std@@@std@@@1@0PAPAX@Z 10010360 f i solid:C-api.obj
 0001:0000f3f0       ??$?0AAV?$_Tree_const_iterator@V?$_Tree_val@U?$_Tree_simple_types@VEncounter@@@std@@@std@@@std@@_N@?$pair@V?$_Tree_const_iterator@V?$_Tree_val@U?$_Tree_simple_types@VEncounter@@@std@@@std@@@std@@_N@std@@QAE@AAV?$_Tree_const_iterator@V?$_Tree_val@U?$_Tree_simple_types@VEncounter@@@std@@@std@@@1@$$QA_NPAPAX@Z 100103f0 f i solid:C-api.obj
 0001:0000f480       ??$?0AAV?$_Tree_iterator@V?$_Tree_val@U?$_Tree_simple_types@U?$pair@$$CBU?$pair@PAXPAX@std@@VResponse@@@std@@@std@@@std@@@std@@AAV01@@?$pair@V?$_Tree_iterator@V?$_Tree_val@U?$_Tree_simple_types@U?$pair@$$CBU?$pair@PAXPAX@std@@VResponse@@@std@@@std@@@std@@@std@@V12@@std@@QAE@AAV?$_Tree_iterator@V?$_Tree_val@U?$_Tree_simple_types@U?$pair@$$CBU?$pair@PAXPAX@std@@VResponse@@@std@@@std@@@std@@@1@0PAPAX@Z 10010480 f i solid:C-api.obj
 0001:0000f510       ??$?0AAV?$_Tree_iterator@V?$_Tree_val@U?$_Tree_simple_types@U?$pair@$$CBU?$pair@PAXPAX@std@@VResponse@@@std@@@std@@@std@@@std@@_N@?$pair@V?$_Tree_iterator@V?$_Tree_val@U?$_Tree_simple_types@U?$pair@$$CBU?$pair@PAXPAX@std@@VResponse@@@std@@@std@@@std@@@std@@_N@std@@QAE@AAV?$_Tree_iterator@V?$_Tree_val@U?$_Tree_simple_types@U?$pair@$$CBU?$pair@PAXPAX@std@@VResponse@@@std@@@std@@@std@@@1@$$QA_NPAPAX@Z 10010510 f i solid:C-api.obj
 0001:0000f5a0       ??$?0AAV?$_Tree_iterator@V?$_Tree_val@U?$_Tree_simple_types@U?$pair@QAXPAVObject@@@std@@@std@@@std@@@std@@_N@?$pair@V?$_Tree_iterator@V?$_Tree_val@U?$_Tree_simple_types@U?$pair@QAXPAVObject@@@std@@@std@@@std@@@std@@_N@std@@QAE@AAV?$_Tree_iterator@V?$_Tree_val@U?$_Tree_simple_types@U?$pair@QAXPAVObject@@@std@@@std@@@std@@@1@$$QA_NPAPAX@Z 100105a0 f i solid:C-api.obj
 0001:0000f630       ??$?0AAV?$_Tree_iterator@V?$_Tree_val@U?$_Tree_simple_types@U?$pair@QAXVResponse@@@std@@@std@@@std@@@std@@AAV01@@?$pair@V?$_Tree_iterator@V?$_Tree_val@U?$_Tree_simple_types@U?$pair@QAXVResponse@@@std@@@std@@@std@@@std@@V12@@std@@QAE@AAV?$_Tree_iterator@V?$_Tree_val@U?$_Tree_simple_types@U?$pair@QAXVResponse@@@std@@@std@@@std@@@1@0PAPAX@Z 10010630 f i solid:C-api.obj
 0001:0000f6c0       ??$?0AAV?$_Tree_iterator@V?$_Tree_val@U?$_Tree_simple_types@U?$pair@QAXVResponse@@@std@@@std@@@std@@@std@@_N@?$pair@V?$_Tree_iterator@V?$_Tree_val@U?$_Tree_simple_types@U?$pair@QAXVResponse@@@std@@@std@@@std@@@std@@_N@std@@QAE@AAV?$_Tree_iterator@V?$_Tree_val@U?$_Tree_simple_types@U?$pair@QAXVResponse@@@std@@@std@@@std@@@1@$$QA_NPAPAX@Z 100106c0 f i solid:C-api.obj
 0001:0000f750       ??$?0ABQAXPAVObject@@@?$pair@PAXPAVObject@@@std@@QAE@ABQAX$$QAPAVObject@@PAPAX@Z 10010750 f i solid:C-api.obj
 0001:0000f7a0       ??$?0ABQAXVResponse@@@?$pair@PAXVResponse@@@std@@QAE@ABQAX$$QAVResponse@@PAPAX@Z 100107a0 f i solid:C-api.obj
 0001:0000f800       ??$?0PAXPAVObject@@@?$pair@QAXPAVObject@@@std@@QAE@$$QAU?$pair@PAXPAVObject@@@1@PAPAX@Z 10010800 f i solid:C-api.obj
 0001:0000f850       ??$?0PAXPAX@?$pair@PAXPAX@std@@QAE@$$QAU01@PAPAX@Z 10010850 f i solid:C-api.obj
 0001:0000f8a0       ??$?0PAXVResponse@@@?$pair@QAXVResponse@@@std@@QAE@$$QAU?$pair@PAXVResponse@@@1@PAPAX@Z 100108a0 f i solid:C-api.obj
 0001:0000f900       ??$?0U?$_Tree_node@U?$pair@$$CBU?$pair@PAXPAX@std@@VResponse@@@std@@PAX@std@@@?$allocator@U_Container_proxy@std@@@std@@QAE@ABV?$allocator@U?$_Tree_node@U?$pair@$$CBU?$pair@PAXPAX@std@@VResponse@@@std@@PAX@std@@@1@@Z 10010900 f i solid:C-api.obj
 0001:0000f920       ??$?0U?$_Tree_node@U?$pair@QAXPAVObject@@@std@@PAX@std@@@?$allocator@U_Container_proxy@std@@@std@@QAE@ABV?$allocator@U?$_Tree_node@U?$pair@QAXPAVObject@@@std@@PAX@std@@@1@@Z 10010920 f i solid:C-api.obj
 0001:0000f940       ??$?0U?$_Tree_node@U?$pair@QAXVResponse@@@std@@PAX@std@@@?$allocator@U_Container_proxy@std@@@std@@QAE@ABV?$allocator@U?$_Tree_node@U?$pair@QAXVResponse@@@std@@PAX@std@@@1@@Z 10010940 f i solid:C-api.obj
 0001:0000f960       ??$?0U?$_Tree_node@VEncounter@@PAX@std@@@?$allocator@U_Container_proxy@std@@@std@@QAE@ABV?$allocator@U?$_Tree_node@VEncounter@@PAX@std@@@1@@Z 10010960 f i solid:C-api.obj
 0001:0000f980       ??$?0U?$_Wrap_alloc@V?$allocator@U?$_Tree_node@U?$pair@$$CBU?$pair@PAXPAX@std@@VResponse@@@std@@PAX@std@@@std@@@std@@@?$_Wrap_alloc@V?$allocator@U_Container_proxy@std@@@std@@@std@@QAE@ABU?$_Wrap_alloc@V?$allocator@U?$_Tree_node@U?$pair@$$CBU?$pair@PAXPAX@std@@VResponse@@@std@@PAX@std@@@std@@@1@@Z 10010980 f i solid:C-api.obj
 0001:0000f9b0       ??$?0U?$_Wrap_alloc@V?$allocator@U?$_Tree_node@U?$pair@QAXPAVObject@@@std@@PAX@std@@@std@@@std@@@?$_Wrap_alloc@V?$allocator@U_Container_proxy@std@@@std@@@std@@QAE@ABU?$_Wrap_alloc@V?$allocator@U?$_Tree_node@U?$pair@QAXPAVObject@@@std@@PAX@std@@@std@@@1@@Z 100109b0 f i solid:C-api.obj
 0001:0000f9e0       ??$?0U?$_Wrap_alloc@V?$allocator@U?$_Tree_node@U?$pair@QAXVResponse@@@std@@PAX@std@@@std@@@std@@@?$_Wrap_alloc@V?$allocator@U_Container_proxy@std@@@std@@@std@@QAE@ABU?$_Wrap_alloc@V?$allocator@U?$_Tree_node@U?$pair@QAXVResponse@@@std@@PAX@std@@@std@@@1@@Z 100109e0 f i solid:C-api.obj
 0001:0000fa10       ??$?0U?$_Wrap_alloc@V?$allocator@U?$_Tree_node@VEncounter@@PAX@std@@@std@@@std@@@?$_Wrap_alloc@V?$allocator@U_Container_proxy@std@@@std@@@std@@QAE@ABU?$_Wrap_alloc@V?$allocator@U?$_Tree_node@VEncounter@@PAX@std@@@std@@@1@@Z 10010a10 f i solid:C-api.obj
 0001:0000fa40       ??$?0U?$pair@PAXPAX@std@@VResponse@@@?$pair@$$CBU?$pair@PAXPAX@std@@VResponse@@@std@@QAE@$$QAU?$pair@U?$pair@PAXPAX@std@@VResponse@@@1@PAPAX@Z 10010a40 f i solid:C-api.obj
 0001:0000faa0       ??$?0U?$pair@PAXPAX@std@@VResponse@@@?$pair@U?$pair@PAXPAX@std@@VResponse@@@std@@QAE@$$QAU?$pair@PAXPAX@1@$$QAVResponse@@PAPAX@Z 10010aa0 f i solid:C-api.obj
 0001:0000fb00       ??$?0V?$_Tree_const_iterator@V?$_Tree_val@U?$_Tree_simple_types@VEncounter@@@std@@@std@@@std@@V01@@?$pair@V?$_Tree_const_iterator@V?$_Tree_val@U?$_Tree_simple_types@VEncounter@@@std@@@std@@@std@@V12@@std@@QAE@$$QAU01@PAPAX@Z 10010b00 f i solid:C-api.obj
 0001:0000fb90       ??$?0V?$_Tree_const_iterator@V?$_Tree_val@U?$_Tree_simple_types@VEncounter@@@std@@@std@@@std@@_N@?$pair@V?$_Tree_const_iterator@V?$_Tree_val@U?$_Tree_simple_types@VEncounter@@@std@@@std@@@std@@_N@std@@QAE@$$QAU01@PAPAX@Z 10010b90 f i solid:C-api.obj
 0001:0000fc20       ??$?0V?$_Tree_const_iterator@V?$_Tree_val@U?$_Tree_simple_types@VEncounter@@@std@@@std@@@std@@_N@?$pair@V?$_Tree_const_iterator@V?$_Tree_val@U?$_Tree_simple_types@VEncounter@@@std@@@std@@@std@@_N@std@@QAE@$$QAV?$_Tree_const_iterator@V?$_Tree_val@U?$_Tree_simple_types@VEncounter@@@std@@@std@@@1@$$QA_NPAPAX@Z 10010c20 f i solid:C-api.obj
 0001:0000fcb0       ??$?0V?$_Tree_iterator@V?$_Tree_val@U?$_Tree_simple_types@U?$pair@$$CBU?$pair@PAXPAX@std@@VResponse@@@std@@@std@@@std@@@std@@V01@@?$pair@V?$_Tree_iterator@V?$_Tree_val@U?$_Tree_simple_types@U?$pair@$$CBU?$pair@PAXPAX@std@@VResponse@@@std@@@std@@@std@@@std@@V12@@std@@QAE@$$QAU01@PAPAX@Z 10010cb0 f i solid:C-api.obj
 0001:0000fd40       ??$?0V?$_Tree_iterator@V?$_Tree_val@U?$_Tree_simple_types@U?$pair@$$CBU?$pair@PAXPAX@std@@VResponse@@@std@@@std@@@std@@@std@@_N@?$pair@V?$_Tree_iterator@V?$_Tree_val@U?$_Tree_simple_types@U?$pair@$$CBU?$pair@PAXPAX@std@@VResponse@@@std@@@std@@@std@@@std@@_N@std@@QAE@$$QAU01@PAPAX@Z 10010d40 f i solid:C-api.obj
 0001:0000fdd0       ??$?0V?$_Tree_iterator@V?$_Tree_val@U?$_Tree_simple_types@U?$pair@$$CBU?$pair@PAXPAX@std@@VResponse@@@std@@@std@@@std@@@std@@_N@?$pair@V?$_Tree_iterator@V?$_Tree_val@U?$_Tree_simple_types@U?$pair@$$CBU?$pair@PAXPAX@std@@VResponse@@@std@@@std@@@std@@@std@@_N@std@@QAE@$$QAV?$_Tree_iterator@V?$_Tree_val@U?$_Tree_simple_types@U?$pair@$$CBU?$pair@PAXPAX@std@@VResponse@@@std@@@std@@@std@@@1@$$QA_NPAPAX@Z 10010dd0 f i solid:C-api.obj
 0001:0000fe60       ??$?0V?$_Tree_iterator@V?$_Tree_val@U?$_Tree_simple_types@U?$pair@QAXPAVObject@@@std@@@std@@@std@@@std@@_N@?$pair@V?$_Tree_iterator@V?$_Tree_val@U?$_Tree_simple_types@U?$pair@QAXPAVObject@@@std@@@std@@@std@@@std@@_N@std@@QAE@$$QAU01@PAPAX@Z 10010e60 f i solid:C-api.obj
 0001:0000fef0       ??$?0V?$_Tree_iterator@V?$_Tree_val@U?$_Tree_simple_types@U?$pair@QAXPAVObject@@@std@@@std@@@std@@@std@@_N@?$pair@V?$_Tree_iterator@V?$_Tree_val@U?$_Tree_simple_types@U?$pair@QAXPAVObject@@@std@@@std@@@std@@@std@@_N@std@@QAE@$$QAV?$_Tree_iterator@V?$_Tree_val@U?$_Tree_simple_types@U?$pair@QAXPAVObject@@@std@@@std@@@std@@@1@$$QA_NPAPAX@Z 10010ef0 f i solid:C-api.obj
 0001:0000ff80       ??$?0V?$_Tree_iterator@V?$_Tree_val@U?$_Tree_simple_types@U?$pair@QAXVResponse@@@std@@@std@@@std@@@std@@V01@@?$pair@V?$_Tree_iterator@V?$_Tree_val@U?$_Tree_simple_types@U?$pair@QAXVResponse@@@std@@@std@@@std@@@std@@V12@@std@@QAE@$$QAU01@PAPAX@Z 10010f80 f i solid:C-api.obj
 0001:00010010       ??$?0V?$_Tree_iterator@V?$_Tree_val@U?$_Tree_simple_types@U?$pair@QAXVResponse@@@std@@@std@@@std@@@std@@_N@?$pair@V?$_Tree_iterator@V?$_Tree_val@U?$_Tree_simple_types@U?$pair@QAXVResponse@@@std@@@std@@@std@@@std@@_N@std@@QAE@$$QAU01@PAPAX@Z 10011010 f i solid:C-api.obj
 0001:000100a0       ??$?0V?$_Tree_iterator@V?$_Tree_val@U?$_Tree_simple_types@U?$pair@QAXVResponse@@@std@@@std@@@std@@@std@@_N@?$pair@V?$_Tree_iterator@V?$_Tree_val@U?$_Tree_simple_types@U?$pair@QAXVResponse@@@std@@@std@@@std@@@std@@_N@std@@QAE@$$QAV?$_Tree_iterator@V?$_Tree_val@U?$_Tree_simple_types@U?$pair@QAXVResponse@@@std@@@std@@@std@@@1@$$QA_NPAPAX@Z 100110a0 f i solid:C-api.obj
 0001:00010130       ??$?MPAXPAX@std@@YA_NABU?$pair@PAXPAX@0@0@Z 10011130 f i solid:C-api.obj
 0001:00010180       ??$_Allocate@D@std@@YAPADIPAD@Z 10011180 f i solid:C-api.obj
 0001:000101d0       ??$_Allocate@I@std@@YAPAIIPAI@Z 100111d0 f i solid:C-api.obj
 0001:00010230       ??$_Allocate@PAVComplex@@@std@@YAPAPAVComplex@@IPAPAV1@@Z 10011230 f i solid:C-api.obj
 0001:00010290       ??$_Allocate@PBVPolytope@@@std@@YAPAPBVPolytope@@IPAPBV1@@Z 10011290 f i solid:C-api.obj
 0001:000102f0       ??$_Allocate@U?$_Tree_node@U?$pair@$$CBU?$pair@PAXPAX@std@@VResponse@@@std@@PAX@std@@@std@@YAPAU?$_Tree_node@U?$pair@$$CBU?$pair@PAXPAX@std@@VResponse@@@std@@PAX@0@IPAU10@@Z 100112f0 f i solid:C-api.obj
 0001:00010350       ??$_Allocate@U?$_Tree_node@U?$pair@QAXPAVObject@@@std@@PAX@std@@@std@@YAPAU?$_Tree_node@U?$pair@QAXPAVObject@@@std@@PAX@0@IPAU10@@Z 10011350 f i solid:C-api.obj
 0001:000103b0       ??$_Allocate@U?$_Tree_node@U?$pair@QAXVResponse@@@std@@PAX@std@@@std@@YAPAU?$_Tree_node@U?$pair@QAXVResponse@@@std@@PAX@0@IPAU10@@Z 100113b0 f i solid:C-api.obj
 0001:00010410       ??$_Allocate@U?$_Tree_node@VEncounter@@PAX@std@@@std@@YAPAU?$_Tree_node@VEncounter@@PAX@0@IPAU10@@Z 10011410 f i solid:C-api.obj
 0001:00010470       ??$_Allocate@U_Container_proxy@std@@@std@@YAPAU_Container_proxy@0@IPAU10@@Z 10011470 f i solid:C-api.obj
 0001:000104d0       ??$_Allocate@VPoint@@@std@@YAPAVPoint@@IPAV1@@Z 100114d0 f i solid:C-api.obj
 0001:00010530       ??$_Buynode@U?$pair@PAXPAVObject@@@std@@@?$_Tree_buy@U?$pair@QAXPAVObject@@@std@@V?$allocator@U?$pair@QAXPAVObject@@@std@@@2@@std@@QAEPAU?$_Tree_node@U?$pair@QAXPAVObject@@@std@@PAX@1@$$QAU?$pair@PAXPAVObject@@@1@@Z 10011530 f i solid:C-api.obj
 0001:00010640       ??$_Buynode@U?$pair@PAXVResponse@@@std@@@?$_Tree_buy@U?$pair@QAXVResponse@@@std@@V?$allocator@U?$pair@QAXVResponse@@@std@@@2@@std@@QAEPAU?$_Tree_node@U?$pair@QAXVResponse@@@std@@PAX@1@$$QAU?$pair@PAXVResponse@@@1@@Z 10011640 f i solid:C-api.obj
 0001:00010750       ??$_Buynode@U?$pair@U?$pair@PAXPAX@std@@VResponse@@@std@@@?$_Tree_buy@U?$pair@$$CBU?$pair@PAXPAX@std@@VResponse@@@std@@V?$allocator@U?$pair@$$CBU?$pair@PAXPAX@std@@VResponse@@@std@@@2@@std@@QAEPAU?$_Tree_node@U?$pair@$$CBU?$pair@PAXPAX@std@@VResponse@@@std@@PAX@1@$$QAU?$pair@U?$pair@PAXPAX@std@@VResponse@@@1@@Z 10011750 f i solid:C-api.obj
 0001:00010860       ??$_Buynode@VEncounter@@@?$_Tree_buy@VEncounter@@V?$allocator@VEncounter@@@std@@@std@@QAEPAU?$_Tree_node@VEncounter@@PAX@1@$$QAVEncounter@@@Z 10011860 f i solid:C-api.obj
 0001:00010970       ??$_Buynode_if_nil@AAU?$pair@$$CBU?$pair@PAXPAX@std@@VResponse@@@std@@@?$_Tree@V?$_Tmap_traits@U?$pair@PAXPAX@std@@VResponse@@U?$less@U?$pair@PAXPAX@std@@@2@V?$allocator@U?$pair@$$CBU?$pair@PAXPAX@std@@VResponse@@@std@@@2@$0A@@std@@@std@@IAEPAU?$_Tree_node@U?$pair@$$CBU?$pair@PAXPAX@std@@VResponse@@@std@@PAX@1@PAU21@AAU?$pair@$$CBU?$pair@PAXPAX@std@@VResponse@@@1@@Z 10011970 f i solid:C-api.obj
 0001:00010990       ??$_Buynode_if_nil@AAU?$pair@QAXPAVObject@@@std@@@?$_Tree@V?$_Tmap_traits@PAXPAVObject@@U?$less@PAX@std@@V?$allocator@U?$pair@QAXPAVObject@@@std@@@3@$0A@@std@@@std@@IAEPAU?$_Tree_node@U?$pair@QAXPAVObject@@@std@@PAX@1@PAU21@AAU?$pair@QAXPAVObject@@@1@@Z 10011990 f i solid:C-api.obj
 0001:000109b0       ??$_Buynode_if_nil@AAU?$pair@QAXVResponse@@@std@@@?$_Tree@V?$_Tmap_traits@PAXVResponse@@U?$less@PAX@std@@V?$allocator@U?$pair@QAXVResponse@@@std@@@3@$0A@@std@@@std@@IAEPAU?$_Tree_node@U?$pair@QAXVResponse@@@std@@PAX@1@PAU21@AAU?$pair@QAXVResponse@@@1@@Z 100119b0 f i solid:C-api.obj
 0001:000109d0       ??$_Buynode_if_nil@VEncounter@@@?$_Tree@V?$_Tset_traits@VEncounter@@U?$less@VEncounter@@@std@@V?$allocator@VEncounter@@@3@$0A@@std@@@std@@IAEPAU?$_Tree_node@VEncounter@@PAX@1@U_Nil@1@$$QAVEncounter@@@Z 100119d0 f i solid:C-api.obj
 0001:00010a10       ??$_Copy_impl@PAVPoint@@PAV1@@std@@YAPAVPoint@@PAV1@00@Z 10011a10 f i solid:C-api.obj
 0001:00010a60       ??$_Copy_impl@PAVPoint@@PAV1@@std@@YAPAVPoint@@PAV1@00U?$integral_constant@_N$0A@@0@@Z 10011a60 f i solid:C-api.obj
 0001:00010ac0       ??$_Copy_impl@PAVPoint@@PAV1@@std@@YAPAVPoint@@PAV1@00U_Nonscalar_ptr_iterator_tag@0@@Z 10011ac0 f i solid:C-api.obj
 0001:00010b10       ??$_Copy_impl@PAVPoint@@PAV1@@std@@YAPAVPoint@@PAV1@00Urandom_access_iterator_tag@0@1@Z 10011b10 f i solid:C-api.obj
 0001:00010b60       ??$_Copy_impl@PBIPAI@std@@YAPAIPBI0PAI@Z 10011b60 f i solid:C-api.obj
 0001:00010bb0       ??$_Copy_impl@PBIPAI@std@@YAPAIPBI0PAIU?$integral_constant@_N$0A@@0@@Z 10011bb0 f i solid:C-api.obj
 0001:00010c10       ??$_Copy_impl@PBIPAI@std@@YAPAIPBI0PAIU_Scalar_ptr_iterator_tag@0@@Z 10011c10 f i solid:C-api.obj
 0001:00010c60       ??$_Copy_impl@PBIPAI@std@@YAPAIPBI0PAIUrandom_access_iterator_tag@0@2@Z 10011c60 f i solid:C-api.obj
 0001:00010cb0       ??$_Debug_lt_pred@U?$less@PAX@std@@PAXPAX@std@@YA_NU?$less@PAX@0@ABQAX1PB_WI@Z 10011cb0 f i solid:C-api.obj
 0001:00010d10       ??$_Debug_lt_pred@U?$less@U?$pair@PAXPAX@std@@@std@@U?$pair@PAXPAX@2@U32@@std@@YA_NU?$less@U?$pair@PAXPAX@std@@@0@ABU?$pair@PAXPAX@0@1PB_WI@Z 10011d10 f i solid:C-api.obj
 0001:00010d70       ??$_Debug_lt_pred@U?$less@VEncounter@@@std@@VEncounter@@V3@@std@@YA_NU?$less@VEncounter@@@0@ABVEncounter@@1PB_WI@Z 10011d70 f i solid:C-api.obj
 0001:00010dd0       ??$_Debug_pointer@D@std@@YAXPBDPB_WI@Z 10011dd0 f i solid:C-api.obj
 0001:00010e00       ??$_Debug_pointer@I@std@@YAXPAIPB_WI@Z 10011e00 f i solid:C-api.obj
 0001:00010e30       ??$_Debug_pointer@I@std@@YAXPBIPB_WI@Z 10011e30 f i solid:C-api.obj
 0001:00010e60       ??$_Debug_pointer@PAVComplex@@@std@@YAXPAPAVComplex@@PB_WI@Z 10011e60 f i solid:C-api.obj
 0001:00010e90       ??$_Debug_pointer@PBVPolytope@@@std@@YAXPAPBVPolytope@@PB_WI@Z 10011e90 f i solid:C-api.obj
 0001:00010ec0       ??$_Debug_pointer@V?$_Vector_iterator@V?$_Vector_val@U?$_Simple_types@PAVComplex@@@std@@@std@@@std@@@std@@YAXAAV?$_Vector_iterator@V?$_Vector_val@U?$_Simple_types@PAVComplex@@@std@@@std@@@0@PB_WI@Z 10011ec0 f i solid:C-api.obj
 0001:00010ed0       ??$_Debug_pointer@V?$_Vector_iterator@V?$_Vector_val@U?$_Simple_types@VPoint@@@std@@@std@@@std@@@std@@YAXAAV?$_Vector_iterator@V?$_Vector_val@U?$_Simple_types@VPoint@@@std@@@std@@@0@PB_WI@Z 10011ed0 f i solid:C-api.obj
 0001:00010ee0       ??$_Debug_pointer@VPoint@@@std@@YAXPAVPoint@@PB_WI@Z 10011ee0 f i solid:C-api.obj
 0001:00010f10       ??$_Debug_range2@PAI@std@@YAXPAI0PB_WIUrandom_access_iterator_tag@0@@Z 10011f10 f i solid:C-api.obj
 0001:00010f70       ??$_Debug_range2@PAPAVComplex@@@std@@YAXPAPAVComplex@@0PB_WIUrandom_access_iterator_tag@0@@Z 10011f70 f i solid:C-api.obj
 0001:00010fd0       ??$_Debug_range2@PAPBVPolytope@@@std@@YAXPAPBVPolytope@@0PB_WIUrandom_access_iterator_tag@0@@Z 10011fd0 f i solid:C-api.obj
 0001:00011030       ??$_Debug_range2@PAVPoint@@@std@@YAXPAVPoint@@0PB_WIUrandom_access_iterator_tag@0@@Z 10012030 f i solid:C-api.obj
 0001:00011090       ??$_Debug_range2@PBI@std@@YAXPBI0PB_WIUrandom_access_iterator_tag@0@@Z 10012090 f i solid:C-api.obj
 0001:000110f0       ??$_Debug_range2@V?$_Vector_iterator@V?$_Vector_val@U?$_Simple_types@PAVComplex@@@std@@@std@@@std@@@std@@YAXV?$_Vector_iterator@V?$_Vector_val@U?$_Simple_types@PAVComplex@@@std@@@std@@@0@0PB_WIUrandom_access_iterator_tag@0@@Z 100120f0 f i solid:C-api.obj
 0001:000111b0       ??$_Debug_range2@V?$_Vector_iterator@V?$_Vector_val@U?$_Simple_types@VPoint@@@std@@@std@@@std@@@std@@YAXV?$_Vector_iterator@V?$_Vector_val@U?$_Simple_types@VPoint@@@std@@@std@@@0@0PB_WIUrandom_access_iterator_tag@0@@Z 100121b0 f i solid:C-api.obj
 0001:00011270       ??$_Debug_range@PAI@std@@YAXPAI0PB_WI@Z 10012270 f i solid:C-api.obj
 0001:000112c0       ??$_Debug_range@PAPAVComplex@@@std@@YAXPAPAVComplex@@0PB_WI@Z 100122c0 f i solid:C-api.obj
 0001:00011310       ??$_Debug_range@PAPBVPolytope@@@std@@YAXPAPBVPolytope@@0PB_WI@Z 10012310 f i solid:C-api.obj
 0001:00011360       ??$_Debug_range@PAVPoint@@@std@@YAXPAVPoint@@0PB_WI@Z 10012360 f i solid:C-api.obj
 0001:000113b0       ??$_Debug_range@PBI@std@@YAXPBI0PB_WI@Z 100123b0 f i solid:C-api.obj
 0001:00011400       ??$_Debug_range@V?$_Vector_iterator@V?$_Vector_val@U?$_Simple_types@PAVComplex@@@std@@@std@@@std@@@std@@YAXV?$_Vector_iterator@V?$_Vector_val@U?$_Simple_types@PAVComplex@@@std@@@std@@@0@0PB_WI@Z 10012400 f i solid:C-api.obj
 0001:000114e0       ??$_Debug_range@V?$_Vector_iterator@V?$_Vector_val@U?$_Simple_types@VPoint@@@std@@@std@@@std@@@std@@YAXV?$_Vector_iterator@V?$_Vector_val@U?$_Simple_types@VPoint@@@std@@@std@@@0@0PB_WI@Z 100124e0 f i solid:C-api.obj
 0001:000115c0       ??$_Destroy_range@U?$_Wrap_alloc@V?$allocator@I@std@@@std@@@std@@YAXPAI0AAU?$_Wrap_alloc@V?$allocator@I@std@@@0@@Z 100125c0 f i solid:C-api.obj
 0001:00011610       ??$_Destroy_range@U?$_Wrap_alloc@V?$allocator@I@std@@@std@@@std@@YAXPAI0AAU?$_Wrap_alloc@V?$allocator@I@std@@@0@U_Scalar_ptr_iterator_tag@0@@Z 10012610 f i solid:C-api.obj
 0001:00011620       ??$_Destroy_range@U?$_Wrap_alloc@V?$allocator@PAVComplex@@@std@@@std@@@std@@YAXPAPAVComplex@@0AAU?$_Wrap_alloc@V?$allocator@PAVComplex@@@std@@@0@@Z 10012620 f i solid:C-api.obj
 0001:00011670       ??$_Destroy_range@U?$_Wrap_alloc@V?$allocator@PAVComplex@@@std@@@std@@@std@@YAXPAPAVComplex@@0AAU?$_Wrap_alloc@V?$allocator@PAVComplex@@@std@@@0@U_Scalar_ptr_iterator_tag@0@@Z 10012670 f i solid:C-api.obj
 0001:00011680       ??$_Destroy_range@U?$_Wrap_alloc@V?$allocator@PBVPolytope@@@std@@@std@@@std@@YAXPAPBVPolytope@@0AAU?$_Wrap_alloc@V?$allocator@PBVPolytope@@@std@@@0@@Z 10012680 f i solid:C-api.obj
 0001:000116d0       ??$_Destroy_range@U?$_Wrap_alloc@V?$allocator@PBVPolytope@@@std@@@std@@@std@@YAXPAPBVPolytope@@0AAU?$_Wrap_alloc@V?$allocator@PBVPolytope@@@std@@@0@U_Scalar_ptr_iterator_tag@0@@Z 100126d0 f i solid:C-api.obj
 0001:000116e0       ??$_Destroy_range@U?$_Wrap_alloc@V?$allocator@VPoint@@@std@@@std@@@std@@YAXPAVPoint@@0AAU?$_Wrap_alloc@V?$allocator@VPoint@@@std@@@0@@Z 100126e0 f i solid:C-api.obj
 0001:00011730       ??$_Destroy_range@U?$_Wrap_alloc@V?$allocator@VPoint@@@std@@@std@@@std@@YAXPAVPoint@@0AAU?$_Wrap_alloc@V?$allocator@VPoint@@@std@@@0@U_Nonscalar_ptr_iterator_tag@0@@Z 10012730 f i solid:C-api.obj
 0001:00011760       ??$_Distance2@V?$_Tree_const_iterator@V?$_Tree_val@U?$_Tree_simple_types@VEncounter@@@std@@@std@@@std@@I@std@@YAXV?$_Tree_const_iterator@V?$_Tree_val@U?$_Tree_simple_types@VEncounter@@@std@@@std@@@0@0AAIUbidirectional_iterator_tag@0@@Z 10012760 f i solid:C-api.obj
 0001:000117f0       ??$_Distance2@V?$_Tree_iterator@V?$_Tree_val@U?$_Tree_simple_types@U?$pair@$$CBU?$pair@PAXPAX@std@@VResponse@@@std@@@std@@@std@@@std@@I@std@@YAXV?$_Tree_iterator@V?$_Tree_val@U?$_Tree_simple_types@U?$pair@$$CBU?$pair@PAXPAX@std@@VResponse@@@std@@@std@@@std@@@0@0AAIUbidirectional_iterator_tag@0@@Z 100127f0 f i solid:C-api.obj
 0001:00011880       ??$_Distance2@V?$_Tree_iterator@V?$_Tree_val@U?$_Tree_simple_types@U?$pair@QAXVResponse@@@std@@@std@@@std@@@std@@I@std@@YAXV?$_Tree_iterator@V?$_Tree_val@U?$_Tree_simple_types@U?$pair@QAXVResponse@@@std@@@std@@@std@@@0@0AAIUbidirectional_iterator_tag@0@@Z 10012880 f i solid:C-api.obj
 0001:00011910       ??$_Distance@V?$_Tree_const_iterator@V?$_Tree_val@U?$_Tree_simple_types@VEncounter@@@std@@@std@@@std@@I@std@@YAXV?$_Tree_const_iterator@V?$_Tree_val@U?$_Tree_simple_types@VEncounter@@@std@@@std@@@0@0AAI@Z 10012910 f i solid:C-api.obj
 0001:000119e0       ??$_Distance@V?$_Tree_iterator@V?$_Tree_val@U?$_Tree_simple_types@U?$pair@$$CBU?$pair@PAXPAX@std@@VResponse@@@std@@@std@@@std@@@std@@I@std@@YAXV?$_Tree_iterator@V?$_Tree_val@U?$_Tree_simple_types@U?$pair@$$CBU?$pair@PAXPAX@std@@VResponse@@@std@@@std@@@std@@@0@0AAI@Z 100129e0 f i solid:C-api.obj
 0001:00011ab0       ??$_Distance@V?$_Tree_iterator@V?$_Tree_val@U?$_Tree_simple_types@U?$pair@QAXVResponse@@@std@@@std@@@std@@@std@@I@std@@YAXV?$_Tree_iterator@V?$_Tree_val@U?$_Tree_simple_types@U?$pair@QAXVResponse@@@std@@@std@@@std@@@0@0AAI@Z 10012ab0 f i solid:C-api.obj
 0001:00011b80       ??$_Find@PAPAVComplex@@PAV1@@std@@YAPAPAVComplex@@PAPAV1@0ABQAV1@@Z 10012b80 f i solid:C-api.obj
 0001:00011bb0       ??$_Insert_at@AAU?$pair@$$CBU?$pair@PAXPAX@std@@VResponse@@@std@@PAU?$_Tree_node@U?$pair@$$CBU?$pair@PAXPAX@std@@VResponse@@@std@@PAX@2@@?$_Tree@V?$_Tmap_traits@U?$pair@PAXPAX@std@@VResponse@@U?$less@U?$pair@PAXPAX@std@@@2@V?$allocator@U?$pair@$$CBU?$pair@PAXPAX@std@@VResponse@@@std@@@2@$0A@@std@@@std@@IAE?AV?$_Tree_iterator@V?$_Tree_val@U?$_Tree_simple_types@U?$pair@$$CBU?$pair@PAXPAX@std@@VResponse@@@std@@@std@@@std@@@1@_NPAU?$_Tree_node@U?$pair@$$CBU?$pair@PAXPAX@std@@VResponse@@@std@@PAX@1@AAU?$pair@$$CBU?$pair@PAXPAX@std@@VResponse@@@1@1@Z 10012bb0 f i solid:C-api.obj
 0001:00012000       ??$_Insert_at@AAU?$pair@QAXPAVObject@@@std@@PAU?$_Tree_node@U?$pair@QAXPAVObject@@@std@@PAX@2@@?$_Tree@V?$_Tmap_traits@PAXPAVObject@@U?$less@PAX@std@@V?$allocator@U?$pair@QAXPAVObject@@@std@@@3@$0A@@std@@@std@@IAE?AV?$_Tree_iterator@V?$_Tree_val@U?$_Tree_simple_types@U?$pair@QAXPAVObject@@@std@@@std@@@std@@@1@_NPAU?$_Tree_node@U?$pair@QAXPAVObject@@@std@@PAX@1@AAU?$pair@QAXPAVObject@@@1@1@Z 10013000 f i solid:C-api.obj
 0001:00012450       ??$_Insert_at@AAU?$pair@QAXVResponse@@@std@@PAU?$_Tree_node@U?$pair@QAXVResponse@@@std@@PAX@2@@?$_Tree@V?$_Tmap_traits@PAXVResponse@@U?$less@PAX@std@@V?$allocator@U?$pair@QAXVResponse@@@std@@@3@$0A@@std@@@std@@IAE?AV?$_Tree_iterator@V?$_Tree_val@U?$_Tree_simple_types@U?$pair@QAXVResponse@@@std@@@std@@@std@@@1@_NPAU?$_Tree_node@U?$pair@QAXVResponse@@@std@@PAX@1@AAU?$pair@QAXVResponse@@@1@1@Z 10013450 f i solid:C-api.obj
 0001:000128a0       ??$_Insert_at@VEncounter@@U_Nil@std@@@?$_Tree@V?$_Tset_traits@VEncounter@@U?$less@VEncounter@@@std@@V?$allocator@VEncounter@@@3@$0A@@std@@@std@@IAE?AV?$_Tree_const_iterator@V?$_Tree_val@U?$_Tree_simple_types@VEncounter@@@std@@@std@@@1@_NPAU?$_Tree_node@VEncounter@@PAX@1@$$QAVEncounter@@U_Nil@1@@Z 100138a0 f i solid:C-api.obj
 0001:00012d00       ??$_Insert_hint@AAU?$pair@$$CBU?$pair@PAXPAX@std@@VResponse@@@std@@PAU?$_Tree_node@U?$pair@$$CBU?$pair@PAXPAX@std@@VResponse@@@std@@PAX@2@@?$_Tree@V?$_Tmap_traits@U?$pair@PAXPAX@std@@VResponse@@U?$less@U?$pair@PAXPAX@std@@@2@V?$allocator@U?$pair@$$CBU?$pair@PAXPAX@std@@VResponse@@@std@@@2@$0A@@std@@@std@@IAE?AV?$_Tree_iterator@V?$_Tree_val@U?$_Tree_simple_types@U?$pair@$$CBU?$pair@PAXPAX@std@@VResponse@@@std@@@std@@@std@@@1@V?$_Tree_const_iterator@V?$_Tree_val@U?$_Tree_simple_types@U?$pair@$$CBU?$pair@PAXPAX@std@@VResponse@@@std@@@std@@@std@@@1@AAU?$pair@$$CBU?$pair@PAXPAX@std@@VResponse@@@1@PAU?$_Tree_node@U?$pair@$$CBU?$pair@PAXPAX@std@@VResponse@@@std@@PAX@1@@Z 10013d00 f i solid:C-api.obj
 0001:00013f40       ??$_Insert_hint@AAU?$pair@QAXPAVObject@@@std@@PAU?$_Tree_node@U?$pair@QAXPAVObject@@@std@@PAX@2@@?$_Tree@V?$_Tmap_traits@PAXPAVObject@@U?$less@PAX@std@@V?$allocator@U?$pair@QAXPAVObject@@@std@@@3@$0A@@std@@@std@@IAE?AV?$_Tree_iterator@V?$_Tree_val@U?$_Tree_simple_types@U?$pair@QAXPAVObject@@@std@@@std@@@std@@@1@V?$_Tree_const_iterator@V?$_Tree_val@U?$_Tree_simple_types@U?$pair@QAXPAVObject@@@std@@@std@@@std@@@1@AAU?$pair@QAXPAVObject@@@1@PAU?$_Tree_node@U?$pair@QAXPAVObject@@@std@@PAX@1@@Z 10014f40 f i solid:C-api.obj
 0001:00015180       ??$_Insert_hint@AAU?$pair@QAXVResponse@@@std@@PAU?$_Tree_node@U?$pair@QAXVResponse@@@std@@PAX@2@@?$_Tree@V?$_Tmap_traits@PAXVResponse@@U?$less@PAX@std@@V?$allocator@U?$pair@QAXVResponse@@@std@@@3@$0A@@std@@@std@@IAE?AV?$_Tree_iterator@V?$_Tree_val@U?$_Tree_simple_types@U?$pair@QAXVResponse@@@std@@@std@@@std@@@1@V?$_Tree_const_iterator@V?$_Tree_val@U?$_Tree_simple_types@U?$pair@QAXVResponse@@@std@@@std@@@std@@@1@AAU?$pair@QAXVResponse@@@1@PAU?$_Tree_node@U?$pair@QAXVResponse@@@std@@PAX@1@@Z 10016180 f i solid:C-api.obj
 0001:000163c0       ??$_Insert_nohint@AAU?$pair@$$CBU?$pair@PAXPAX@std@@VResponse@@@std@@PAU?$_Tree_node@U?$pair@$$CBU?$pair@PAXPAX@std@@VResponse@@@std@@PAX@2@@?$_Tree@V?$_Tmap_traits@U?$pair@PAXPAX@std@@VResponse@@U?$less@U?$pair@PAXPAX@std@@@2@V?$allocator@U?$pair@$$CBU?$pair@PAXPAX@std@@VResponse@@@std@@@2@$0A@@std@@@std@@IAE?AU?$pair@V?$_Tree_iterator@V?$_Tree_val@U?$_Tree_simple_types@U?$pair@$$CBU?$pair@PAXPAX@std@@VResponse@@@std@@@std@@@std@@@std@@_N@1@_NAAU?$pair@$$CBU?$pair@PAXPAX@std@@VResponse@@@1@PAU?$_Tree_node@U?$pair@$$CBU?$pair@PAXPAX@std@@VResponse@@@std@@PAX@1@@Z 100173c0 f i solid:C-api.obj
 0001:00016a50       ??$_Insert_nohint@AAU?$pair@QAXPAVObject@@@std@@PAU?$_Tree_node@U?$pair@QAXPAVObject@@@std@@PAX@2@@?$_Tree@V?$_Tmap_traits@PAXPAVObject@@U?$less@PAX@std@@V?$allocator@U?$pair@QAXPAVObject@@@std@@@3@$0A@@std@@@std@@IAE?AU?$pair@V?$_Tree_iterator@V?$_Tree_val@U?$_Tree_simple_types@U?$pair@QAXPAVObject@@@std@@@std@@@std@@@std@@_N@1@_NAAU?$pair@QAXPAVObject@@@1@PAU?$_Tree_node@U?$pair@QAXPAVObject@@@std@@PAX@1@@Z 10017a50 f i solid:C-api.obj
 0001:000170e0       ??$_Insert_nohint@AAU?$pair@QAXVResponse@@@std@@PAU?$_Tree_node@U?$pair@QAXVResponse@@@std@@PAX@2@@?$_Tree@V?$_Tmap_traits@PAXVResponse@@U?$less@PAX@std@@V?$allocator@U?$pair@QAXVResponse@@@std@@@3@$0A@@std@@@std@@IAE?AU?$pair@V?$_Tree_iterator@V?$_Tree_val@U?$_Tree_simple_types@U?$pair@QAXVResponse@@@std@@@std@@@std@@@std@@_N@1@_NAAU?$pair@QAXVResponse@@@1@PAU?$_Tree_node@U?$pair@QAXVResponse@@@std@@PAX@1@@Z 100180e0 f i solid:C-api.obj
 0001:00017770       ??$_Insert_nohint@VEncounter@@U_Nil@std@@@?$_Tree@V?$_Tset_traits@VEncounter@@U?$less@VEncounter@@@std@@V?$allocator@VEncounter@@@3@$0A@@std@@@std@@IAE?AU?$pair@V?$_Tree_const_iterator@V?$_Tree_val@U?$_Tree_simple_types@VEncounter@@@std@@@std@@@std@@_N@1@_N$$QAVEncounter@@U_Nil@1@@Z 10018770 f i solid:C-api.obj
 0001:00017e00       ??$_Is_checked@PAI@std@@YA?AU?$integral_constant@_N$0A@@0@PAI@Z 10018e00 f i solid:C-api.obj
 0001:00017e20       ??$_Is_checked@PAVPoint@@@std@@YA?AU?$integral_constant@_N$0A@@0@PAVPoint@@@Z 10018e20 f i solid:C-api.obj
 0001:00017e40       ??$_Iter_cat@PAI@std@@YA?AUrandom_access_iterator_tag@0@ABQAI@Z 10018e40 f i solid:C-api.obj
 0001:00017ea0       ??$_Iter_cat@PAPAVComplex@@@std@@YA?AUrandom_access_iterator_tag@0@ABQAPAVComplex@@@Z 10018ea0 f i solid:C-api.obj
 0001:00017f00       ??$_Iter_cat@PAPBVPolytope@@@std@@YA?AUrandom_access_iterator_tag@0@ABQAPBVPolytope@@@Z 10018f00 f i solid:C-api.obj
 0001:00017f60       ??$_Iter_cat@PAVPoint@@@std@@YA?AUrandom_access_iterator_tag@0@ABQAVPoint@@@Z 10018f60 f i solid:C-api.obj
 0001:00017fc0       ??$_Iter_cat@PBI@std@@YA?AUrandom_access_iterator_tag@0@ABQBI@Z 10018fc0 f i solid:C-api.obj
 0001:00018020       ??$_Iter_cat@V?$_Tree_const_iterator@V?$_Tree_val@U?$_Tree_simple_types@VEncounter@@@std@@@std@@@std@@@std@@YA?AUbidirectional_iterator_tag@0@ABV?$_Tree_const_iterator@V?$_Tree_val@U?$_Tree_simple_types@VEncounter@@@std@@@std@@@0@@Z 10019020 f i solid:C-api.obj
 0001:00018080       ??$_Iter_cat@V?$_Tree_iterator@V?$_Tree_val@U?$_Tree_simple_types@U?$pair@$$CBU?$pair@PAXPAX@std@@VResponse@@@std@@@std@@@std@@@std@@@std@@YA?AUbidirectional_iterator_tag@0@ABV?$_Tree_iterator@V?$_Tree_val@U?$_Tree_simple_types@U?$pair@$$CBU?$pair@PAXPAX@std@@VResponse@@@std@@@std@@@std@@@0@@Z 10019080 f i solid:C-api.obj
 0001:000180e0       ??$_Iter_cat@V?$_Tree_iterator@V?$_Tree_val@U?$_Tree_simple_types@U?$pair@QAXVResponse@@@std@@@std@@@std@@@std@@@std@@YA?AUbidirectional_iterator_tag@0@ABV?$_Tree_iterator@V?$_Tree_val@U?$_Tree_simple_types@U?$pair@QAXVResponse@@@std@@@std@@@std@@@0@@Z 100190e0 f i solid:C-api.obj
 0001:00018140       ??$_Iter_cat@V?$_Vector_iterator@V?$_Vector_val@U?$_Simple_types@PAVComplex@@@std@@@std@@@std@@@std@@YA?AUrandom_access_iterator_tag@0@ABV?$_Vector_iterator@V?$_Vector_val@U?$_Simple_types@PAVComplex@@@std@@@std@@@0@@Z 10019140 f i solid:C-api.obj
 0001:000181a0       ??$_Iter_cat@V?$_Vector_iterator@V?$_Vector_val@U?$_Simple_types@VPoint@@@std@@@std@@@std@@@std@@YA?AUrandom_access_iterator_tag@0@ABV?$_Vector_iterator@V?$_Vector_val@U?$_Simple_types@VPoint@@@std@@@std@@@0@@Z 100191a0 f i solid:C-api.obj
 0001:00018200       ??$_Kfn@$$CBU?$pair@PAXPAX@std@@VResponse@@@?$_Tmap_traits@U?$pair@PAXPAX@std@@VResponse@@U?$less@U?$pair@PAXPAX@std@@@2@V?$allocator@U?$pair@$$CBU?$pair@PAXPAX@std@@VResponse@@@std@@@2@$0A@@std@@SAABU?$pair@PAXPAX@1@ABU?$pair@$$CBU?$pair@PAXPAX@std@@VResponse@@@1@@Z 10019200 f i solid:C-api.obj
 0001:00018210       ??$_Kfn@QAXPAVObject@@@?$_Tmap_traits@PAXPAVObject@@U?$less@PAX@std@@V?$allocator@U?$pair@QAXPAVObject@@@std@@@3@$0A@@std@@SAABQAXABU?$pair@QAXPAVObject@@@1@@Z 10019210 f i solid:C-api.obj
 0001:00018220       ??$_Kfn@QAXVResponse@@@?$_Tmap_traits@PAXVResponse@@U?$less@PAX@std@@V?$allocator@U?$pair@QAXVResponse@@@std@@@3@$0A@@std@@SAABQAXABU?$pair@QAXVResponse@@@1@@Z 10019220 f i solid:C-api.obj
 0001:00018230       ??$_Move@AAD@std@@YA$$QADAAD@Z 10019230 f i solid:C-api.obj
 0001:00018240       ??$_Move@PAIPAI@std@@YAPAIPAI00@Z 10019240 f i solid:C-api.obj
 0001:00018290       ??$_Move@PAIPAI@std@@YAPAIPAI00U_Scalar_ptr_iterator_tag@0@@Z 10019290 f i solid:C-api.obj
 0001:000182e0       ??$_Move@PAPAVComplex@@PAPAV1@@std@@YAPAPAVComplex@@PAPAV1@00@Z 100192e0 f i solid:C-api.obj
 0001:00018330       ??$_Move@PAPAVComplex@@PAPAV1@@std@@YAPAPAVComplex@@PAPAV1@00U_Scalar_ptr_iterator_tag@0@@Z 10019330 f i solid:C-api.obj
 0001:00018380       ??$_Move@PAPBVPolytope@@PAPBV1@@std@@YAPAPBVPolytope@@PAPBV1@00@Z 10019380 f i solid:C-api.obj
 0001:000183d0       ??$_Move@PAPBVPolytope@@PAPBV1@@std@@YAPAPBVPolytope@@PAPBV1@00U_Scalar_ptr_iterator_tag@0@@Z 100193d0 f i solid:C-api.obj
 0001:00018420       ??$_Move@PAVPoint@@PAV1@@std@@YAPAVPoint@@PAV1@00@Z 10019420 f i solid:C-api.obj
 0001:00018470       ??$_Move@PAVPoint@@PAV1@@std@@YAPAVPoint@@PAV1@00U_Nonscalar_ptr_iterator_tag@0@@Z 10019470 f i solid:C-api.obj
 0001:000184d0       ??$_Ptr_cat@II@std@@YA?AU_Scalar_ptr_iterator_tag@0@PAI0@Z 100194d0 f i solid:C-api.obj
 0001:00018520       ??$_Ptr_cat@II@std@@YA?AU_Scalar_ptr_iterator_tag@0@PBIPAI@Z 10019520 f i solid:C-api.obj
 0001:00018570       ??$_Ptr_cat@PAVComplex@@PAV1@@std@@YA?AU_Scalar_ptr_iterator_tag@0@PAPAVComplex@@0@Z 10019570 f i solid:C-api.obj
 0001:000185c0       ??$_Ptr_cat@PBVPolytope@@PBV1@@std@@YA?AU_Scalar_ptr_iterator_tag@0@PAPBVPolytope@@0@Z 100195c0 f i solid:C-api.obj
 0001:00018610       ??$_Ptr_cat@VPoint@@V1@@std@@YA?AU_Nonscalar_ptr_iterator_tag@0@PAVPoint@@0@Z 10019610 f i solid:C-api.obj
 0001:00018660       ??$_Rechecked@V?$_Vector_val@U?$_Simple_types@PAVComplex@@@std@@@std@@@std@@YAAAV?$_Vector_iterator@V?$_Vector_val@U?$_Simple_types@PAVComplex@@@std@@@std@@@0@AAV10@PAPAVComplex@@@Z 10019660 f i solid:C-api.obj
 0001:00018680       ??$_Umove@PAI@?$vector@IV?$allocator@I@std@@@std@@IAEPAIPAI00@Z 10019680 f i solid:C-api.obj
 0001:00018700       ??$_Umove@PAPAVComplex@@@?$vector@PAVComplex@@V?$allocator@PAVComplex@@@std@@@std@@IAEPAPAVComplex@@PAPAV2@00@Z 10019700 f i solid:C-api.obj
 0001:00018780       ??$_Umove@PAPBVPolytope@@@?$vector@PBVPolytope@@V?$allocator@PBVPolytope@@@std@@@std@@IAEPAPBVPolytope@@PAPBV2@00@Z 10019780 f i solid:C-api.obj
 0001:00018800       ??$_Umove@PAVPoint@@@?$vector@VPoint@@V?$allocator@VPoint@@@std@@@std@@IAEPAVPoint@@PAV2@00@Z 10019800 f i solid:C-api.obj
 0001:00018880       ??$_Unchecked@PAI@std@@YAPAIPAI@Z 10019880 f i solid:C-api.obj
 0001:00018890       ??$_Unchecked@PAVPoint@@@std@@YAPAVPoint@@PAV1@@Z 10019890 f i solid:C-api.obj
 0001:000188a0       ??$_Unchecked@PBI@std@@YAPBIPBI@Z 100198a0 f i solid:C-api.obj
 0001:000188b0       ??$_Unchecked@V?$_Vector_val@U?$_Simple_types@PAVComplex@@@std@@@std@@@std@@YAPAPAVComplex@@V?$_Vector_iterator@V?$_Vector_val@U?$_Simple_types@PAVComplex@@@std@@@std@@@0@@Z 100198b0 f i solid:C-api.obj
 0001:00018920       ??$_Unchecked@V?$_Vector_val@U?$_Simple_types@VPoint@@@std@@@std@@@std@@YAPAVPoint@@V?$_Vector_iterator@V?$_Vector_val@U?$_Simple_types@VPoint@@@std@@@std@@@0@@Z 10019920 f i solid:C-api.obj
 0001:00018990       ??$_Uninit_move@III@std@@YAPAIPAI00AAU?$_Wrap_alloc@V?$allocator@I@std@@@0@0U_Scalar_ptr_iterator_tag@0@@Z 10019990 f i solid:C-api.obj
 0001:00018a10       ??$_Uninit_move@PAVComplex@@PAV1@PAV1@@std@@YAPAPAVComplex@@PAPAV1@00AAU?$_Wrap_alloc@V?$allocator@PAVComplex@@@std@@@0@0U_Scalar_ptr_iterator_tag@0@@Z 10019a10 f i solid:C-api.obj
 0001:00018a90       ??$_Uninit_move@PAVPoint@@PAV1@V?$allocator@VPoint@@@std@@V1@@std@@YAPAVPoint@@PAV1@00AAU?$_Wrap_alloc@V?$allocator@VPoint@@@std@@@0@0U_Nonscalar_ptr_iterator_tag@0@@Z 10019a90 f i solid:C-api.obj
 0001:00018b90       ??$_Uninit_move@PBVPolytope@@PBV1@PBV1@@std@@YAPAPBVPolytope@@PAPBV1@00AAU?$_Wrap_alloc@V?$allocator@PBVPolytope@@@std@@@0@0U_Scalar_ptr_iterator_tag@0@@Z 10019b90 f i solid:C-api.obj
 0001:00018c10       ??$_Uninitialized_move@PAIPAIU?$_Wrap_alloc@V?$allocator@I@std@@@std@@@std@@YAPAIPAI00AAU?$_Wrap_alloc@V?$allocator@I@std@@@0@@Z 10019c10 f i solid:C-api.obj
 0001:00018c70       ??$_Uninitialized_move@PAPAVComplex@@PAPAV1@U?$_Wrap_alloc@V?$allocator@PAVComplex@@@std@@@std@@@std@@YAPAPAVComplex@@PAPAV1@00AAU?$_Wrap_alloc@V?$allocator@PAVComplex@@@std@@@0@@Z 10019c70 f i solid:C-api.obj
 0001:00018cd0       ??$_Uninitialized_move@PAPBVPolytope@@PAPBV1@U?$_Wrap_alloc@V?$allocator@PBVPolytope@@@std@@@std@@@std@@YAPAPBVPolytope@@PAPBV1@00AAU?$_Wrap_alloc@V?$allocator@PBVPolytope@@@std@@@0@@Z 10019cd0 f i solid:C-api.obj
 0001:00018d30       ??$_Uninitialized_move@PAVPoint@@PAV1@U?$_Wrap_alloc@V?$allocator@VPoint@@@std@@@std@@@std@@YAPAVPoint@@PAV1@00AAU?$_Wrap_alloc@V?$allocator@VPoint@@@std@@@0@@Z 10019d30 f i solid:C-api.obj
 0001:00018d90       ??$_Val_type@PAI@std@@YAPAIPAI@Z 10019d90 f i solid:C-api.obj
 0001:00018da0       ??$_Val_type@PAPAVComplex@@@std@@YAPAPAVComplex@@PAPAV1@@Z 10019da0 f i solid:C-api.obj
 0001:00018db0       ??$_Val_type@PAPBVPolytope@@@std@@YAPAPBVPolytope@@PAPBV1@@Z 10019db0 f i solid:C-api.obj
 0001:00018dc0       ??$_Val_type@PAVPoint@@@std@@YAPAVPoint@@PAV1@@Z 10019dc0 f i solid:C-api.obj
 0001:00018dd0       ??$addressof@$$CBI@std@@YAPBIABI@Z 10019dd0 f i solid:C-api.obj
 0001:00018de0       ??$addressof@$$CBVPoint@@@std@@YAPBVPoint@@ABV1@@Z 10019de0 f i solid:C-api.obj
 0001:00018df0       ??$addressof@D@std@@YAPADAAD@Z 10019df0 f i solid:C-api.obj
 0001:00018e00       ??$addressof@PAU?$_Tree_node@U?$pair@$$CBU?$pair@PAXPAX@std@@VResponse@@@std@@PAX@std@@@std@@YAPAPAU?$_Tree_node@U?$pair@$$CBU?$pair@PAXPAX@std@@VResponse@@@std@@PAX@0@AAPAU10@@Z 10019e00 f i solid:C-api.obj
 0001:00018e10       ??$addressof@PAU?$_Tree_node@U?$pair@QAXPAVObject@@@std@@PAX@std@@@std@@YAPAPAU?$_Tree_node@U?$pair@QAXPAVObject@@@std@@PAX@0@AAPAU10@@Z 10019e10 f i solid:C-api.obj
 0001:00018e20       ??$addressof@PAU?$_Tree_node@U?$pair@QAXVResponse@@@std@@PAX@std@@@std@@YAPAPAU?$_Tree_node@U?$pair@QAXVResponse@@@std@@PAX@0@AAPAU10@@Z 10019e20 f i solid:C-api.obj
 0001:00018e30       ??$addressof@PAU?$_Tree_node@VEncounter@@PAX@std@@@std@@YAPAPAU?$_Tree_node@VEncounter@@PAX@0@AAPAU10@@Z 10019e30 f i solid:C-api.obj
 0001:00018e40       ??$addressof@QAVComplex@@@std@@YAPBQAVComplex@@ABQAV1@@Z 10019e40 f i solid:C-api.obj
 0001:00018e50       ??$addressof@QBVPolytope@@@std@@YAPBQBVPolytope@@ABQBV1@@Z 10019e50 f i solid:C-api.obj
 0001:00018e60       ??$addressof@U?$pair@$$CBU?$pair@PAXPAX@std@@VResponse@@@std@@@std@@YAPAU?$pair@$$CBU?$pair@PAXPAX@std@@VResponse@@@0@AAU10@@Z 10019e60 f i solid:C-api.obj
 0001:00018e70       ??$addressof@U?$pair@QAXPAVObject@@@std@@@std@@YAPAU?$pair@QAXPAVObject@@@0@AAU10@@Z 10019e70 f i solid:C-api.obj
 0001:00018e80       ??$addressof@U?$pair@QAXVResponse@@@std@@@std@@YAPAU?$pair@QAXVResponse@@@0@AAU10@@Z 10019e80 f i solid:C-api.obj
 0001:00018e90       ??$addressof@VEncounter@@@std@@YAPAVEncounter@@AAV1@@Z 10019e90 f i solid:C-api.obj
 0001:00018ea0       ??$construct@IAAI@?$_Wrap_alloc@V?$allocator@I@std@@@std@@QAEXPAIAAI@Z 10019ea0 f i solid:C-api.obj
 0001:00018ee0       ??$construct@IAAI@?$allocator@I@std@@QAEXPAIAAI@Z 10019ee0 f i solid:C-api.obj
 0001:00018f90       ??$construct@IAAI@?$allocator_traits@V?$allocator@I@std@@@std@@SAXAAV?$allocator@I@1@PAIAAI@Z 10019f90 f i solid:C-api.obj
 0001:00018fc0       ??$construct@IABI@?$_Wrap_alloc@V?$allocator@I@std@@@std@@QAEXPAIABI@Z 10019fc0 f i solid:C-api.obj
 0001:00019000       ??$construct@IABI@?$allocator_traits@V?$allocator@I@std@@@std@@SAXAAV?$allocator@I@1@PAIABI@Z 1001a000 f i solid:C-api.obj
 0001:00019030       ??$construct@PADAAPAD@?$_Wrap_alloc@V?$allocator@D@std@@@std@@QAEXPAPADAAPAD@Z 1001a030 f i solid:C-api.obj
 0001:00019070       ??$construct@PADAAPAD@?$allocator@D@std@@QAEXPAPADAAPAD@Z 1001a070 f i solid:C-api.obj
 0001:00019120       ??$construct@PADAAPAD@?$allocator_traits@V?$allocator@D@std@@@std@@SAXAAV?$allocator@D@1@PAPADAAPAD@Z 1001a120 f i solid:C-api.obj
 0001:00019150       ??$construct@PAU?$_Tree_node@U?$pair@$$CBU?$pair@PAXPAX@std@@VResponse@@@std@@PAX@std@@AAPAU12@@?$_Wrap_alloc@V?$allocator@U?$_Tree_node@U?$pair@$$CBU?$pair@PAXPAX@std@@VResponse@@@std@@PAX@std@@@std@@@std@@QAEXPAPAU?$_Tree_node@U?$pair@$$CBU?$pair@PAXPAX@std@@VResponse@@@std@@PAX@1@AAPAU21@@Z 1001a150 f i solid:C-api.obj
 0001:00019190       ??$construct@PAU?$_Tree_node@U?$pair@$$CBU?$pair@PAXPAX@std@@VResponse@@@std@@PAX@std@@AAPAU12@@?$allocator@U?$_Tree_node@U?$pair@$$CBU?$pair@PAXPAX@std@@VResponse@@@std@@PAX@std@@@std@@QAEXPAPAU?$_Tree_node@U?$pair@$$CBU?$pair@PAXPAX@std@@VResponse@@@std@@PAX@1@AAPAU21@@Z 1001a190 f i solid:C-api.obj
 0001:00019240       ??$construct@PAU?$_Tree_node@U?$pair@$$CBU?$pair@PAXPAX@std@@VResponse@@@std@@PAX@std@@AAPAU12@@?$allocator_traits@V?$allocator@U?$_Tree_node@U?$pair@$$CBU?$pair@PAXPAX@std@@VResponse@@@std@@PAX@std@@@std@@@std@@SAXAAV?$allocator@U?$_Tree_node@U?$pair@$$CBU?$pair@PAXPAX@std@@VResponse@@@std@@PAX@std@@@1@PAPAU?$_Tree_node@U?$pair@$$CBU?$pair@PAXPAX@std@@VResponse@@@std@@PAX@1@AAPAU31@@Z 1001a240 f i solid:C-api.obj
 0001:00019270       ??$construct@PAU?$_Tree_node@U?$pair@QAXPAVObject@@@std@@PAX@std@@AAPAU12@@?$_Wrap_alloc@V?$allocator@U?$_Tree_node@U?$pair@QAXPAVObject@@@std@@PAX@std@@@std@@@std@@QAEXPAPAU?$_Tree_node@U?$pair@QAXPAVObject@@@std@@PAX@1@AAPAU21@@Z 1001a270 f i solid:C-api.obj
 0001:000192b0       ??$construct@PAU?$_Tree_node@U?$pair@QAXPAVObject@@@std@@PAX@std@@AAPAU12@@?$allocator@U?$_Tree_node@U?$pair@QAXPAVObject@@@std@@PAX@std@@@std@@QAEXPAPAU?$_Tree_node@U?$pair@QAXPAVObject@@@std@@PAX@1@AAPAU21@@Z 1001a2b0 f i solid:C-api.obj
 0001:00019360       ??$construct@PAU?$_Tree_node@U?$pair@QAXPAVObject@@@std@@PAX@std@@AAPAU12@@?$allocator_traits@V?$allocator@U?$_Tree_node@U?$pair@QAXPAVObject@@@std@@PAX@std@@@std@@@std@@SAXAAV?$allocator@U?$_Tree_node@U?$pair@QAXPAVObject@@@std@@PAX@std@@@1@PAPAU?$_Tree_node@U?$pair@QAXPAVObject@@@std@@PAX@1@AAPAU31@@Z 1001a360 f i solid:C-api.obj
 0001:00019390       ??$construct@PAU?$_Tree_node@U?$pair@QAXVResponse@@@std@@PAX@std@@AAPAU12@@?$_Wrap_alloc@V?$allocator@U?$_Tree_node@U?$pair@QAXVResponse@@@std@@PAX@std@@@std@@@std@@QAEXPAPAU?$_Tree_node@U?$pair@QAXVResponse@@@std@@PAX@1@AAPAU21@@Z 1001a390 f i solid:C-api.obj
 0001:000193d0       ??$construct@PAU?$_Tree_node@U?$pair@QAXVResponse@@@std@@PAX@std@@AAPAU12@@?$allocator@U?$_Tree_node@U?$pair@QAXVResponse@@@std@@PAX@std@@@std@@QAEXPAPAU?$_Tree_node@U?$pair@QAXVResponse@@@std@@PAX@1@AAPAU21@@Z 1001a3d0 f i solid:C-api.obj
 0001:00019480       ??$construct@PAU?$_Tree_node@U?$pair@QAXVResponse@@@std@@PAX@std@@AAPAU12@@?$allocator_traits@V?$allocator@U?$_Tree_node@U?$pair@QAXVResponse@@@std@@PAX@std@@@std@@@std@@SAXAAV?$allocator@U?$_Tree_node@U?$pair@QAXVResponse@@@std@@PAX@std@@@1@PAPAU?$_Tree_node@U?$pair@QAXVResponse@@@std@@PAX@1@AAPAU31@@Z 1001a480 f i solid:C-api.obj
 0001:000194b0       ??$construct@PAU?$_Tree_node@VEncounter@@PAX@std@@AAPAU12@@?$_Wrap_alloc@V?$allocator@U?$_Tree_node@VEncounter@@PAX@std@@@std@@@std@@QAEXPAPAU?$_Tree_node@VEncounter@@PAX@1@AAPAU21@@Z 1001a4b0 f i solid:C-api.obj
 0001:000194f0       ??$construct@PAU?$_Tree_node@VEncounter@@PAX@std@@AAPAU12@@?$allocator@U?$_Tree_node@VEncounter@@PAX@std@@@std@@QAEXPAPAU?$_Tree_node@VEncounter@@PAX@1@AAPAU21@@Z 1001a4f0 f i solid:C-api.obj
 0001:000195a0       ??$construct@PAU?$_Tree_node@VEncounter@@PAX@std@@AAPAU12@@?$allocator_traits@V?$allocator@U?$_Tree_node@VEncounter@@PAX@std@@@std@@@std@@SAXAAV?$allocator@U?$_Tree_node@VEncounter@@PAX@std@@@1@PAPAU?$_Tree_node@VEncounter@@PAX@1@AAPAU31@@Z 1001a5a0 f i solid:C-api.obj
 0001:000195d0       ??$construct@PAVComplex@@AAPAV1@@?$_Wrap_alloc@V?$allocator@PAVComplex@@@std@@@std@@QAEXPAPAVComplex@@AAPAV2@@Z 1001a5d0 f i solid:C-api.obj
 0001:00019610       ??$construct@PAVComplex@@AAPAV1@@?$allocator@PAVComplex@@@std@@QAEXPAPAVComplex@@AAPAV2@@Z 1001a610 f i solid:C-api.obj
 0001:000196c0       ??$construct@PAVComplex@@AAPAV1@@?$allocator_traits@V?$allocator@PAVComplex@@@std@@@std@@SAXAAV?$allocator@PAVComplex@@@1@PAPAVComplex@@AAPAV3@@Z 1001a6c0 f i solid:C-api.obj
 0001:000196f0       ??$construct@PAVComplex@@ABQAV1@@?$_Wrap_alloc@V?$allocator@PAVComplex@@@std@@@std@@QAEXPAPAVComplex@@ABQAV2@@Z 1001a6f0 f i solid:C-api.obj
 0001:00019730       ??$construct@PAVComplex@@ABQAV1@@?$allocator_traits@V?$allocator@PAVComplex@@@std@@@std@@SAXAAV?$allocator@PAVComplex@@@1@PAPAVComplex@@ABQAV3@@Z 1001a730 f i solid:C-api.obj
 0001:00019760       ??$construct@PBVPolytope@@AAPBV1@@?$_Wrap_alloc@V?$allocator@PBVPolytope@@@std@@@std@@QAEXPAPBVPolytope@@AAPBV2@@Z 1001a760 f i solid:C-api.obj
 0001:000197a0       ??$construct@PBVPolytope@@AAPBV1@@?$allocator@PBVPolytope@@@std@@QAEXPAPBVPolytope@@AAPBV2@@Z 1001a7a0 f i solid:C-api.obj
 0001:00019850       ??$construct@PBVPolytope@@AAPBV1@@?$allocator_traits@V?$allocator@PBVPolytope@@@std@@@std@@SAXAAV?$allocator@PBVPolytope@@@1@PAPBVPolytope@@AAPBV3@@Z 1001a850 f i solid:C-api.obj
 0001:00019880       ??$construct@PBVPolytope@@ABQBV1@@?$_Wrap_alloc@V?$allocator@PBVPolytope@@@std@@@std@@QAEXPAPBVPolytope@@ABQBV2@@Z 1001a880 f i solid:C-api.obj
 0001:000198c0       ??$construct@PBVPolytope@@ABQBV1@@?$allocator_traits@V?$allocator@PBVPolytope@@@std@@@std@@SAXAAV?$allocator@PBVPolytope@@@1@PAPBVPolytope@@ABQBV3@@Z 1001a8c0 f i solid:C-api.obj
 0001:000198f0       ??$construct@U?$pair@$$CBU?$pair@PAXPAX@std@@VResponse@@@std@@U?$pair@U?$pair@PAXPAX@std@@VResponse@@@2@@?$_Wrap_alloc@V?$allocator@U?$_Tree_node@U?$pair@$$CBU?$pair@PAXPAX@std@@VResponse@@@std@@PAX@std@@@std@@@std@@QAEXPAU?$pair@$$CBU?$pair@PAXPAX@std@@VResponse@@@1@$$QAU?$pair@U?$pair@PAXPAX@std@@VResponse@@@1@@Z 1001a8f0 f i solid:C-api.obj
 0001:00019930       ??$construct@U?$pair@$$CBU?$pair@PAXPAX@std@@VResponse@@@std@@U?$pair@U?$pair@PAXPAX@std@@VResponse@@@2@@?$allocator@U?$_Tree_node@U?$pair@$$CBU?$pair@PAXPAX@std@@VResponse@@@std@@PAX@std@@@std@@QAEXPAU?$pair@$$CBU?$pair@PAXPAX@std@@VResponse@@@1@$$QAU?$pair@U?$pair@PAXPAX@std@@VResponse@@@1@@Z 1001a930 f i solid:C-api.obj
 0001:000199e0       ??$construct@U?$pair@$$CBU?$pair@PAXPAX@std@@VResponse@@@std@@U?$pair@U?$pair@PAXPAX@std@@VResponse@@@2@@?$allocator_traits@V?$allocator@U?$_Tree_node@U?$pair@$$CBU?$pair@PAXPAX@std@@VResponse@@@std@@PAX@std@@@std@@@std@@SAXAAV?$allocator@U?$_Tree_node@U?$pair@$$CBU?$pair@PAXPAX@std@@VResponse@@@std@@PAX@std@@@1@PAU?$pair@$$CBU?$pair@PAXPAX@std@@VResponse@@@1@$$QAU?$pair@U?$pair@PAXPAX@std@@VResponse@@@1@@Z 1001a9e0 f i solid:C-api.obj
 0001:00019a10       ??$construct@U?$pair@QAXPAVObject@@@std@@U?$pair@PAXPAVObject@@@2@@?$_Wrap_alloc@V?$allocator@U?$_Tree_node@U?$pair@QAXPAVObject@@@std@@PAX@std@@@std@@@std@@QAEXPAU?$pair@QAXPAVObject@@@1@$$QAU?$pair@PAXPAVObject@@@1@@Z 1001aa10 f i solid:C-api.obj
 0001:00019a50       ??$construct@U?$pair@QAXPAVObject@@@std@@U?$pair@PAXPAVObject@@@2@@?$allocator@U?$_Tree_node@U?$pair@QAXPAVObject@@@std@@PAX@std@@@std@@QAEXPAU?$pair@QAXPAVObject@@@1@$$QAU?$pair@PAXPAVObject@@@1@@Z 1001aa50 f i solid:C-api.obj
 0001:00019b00       ??$construct@U?$pair@QAXPAVObject@@@std@@U?$pair@PAXPAVObject@@@2@@?$allocator_traits@V?$allocator@U?$_Tree_node@U?$pair@QAXPAVObject@@@std@@PAX@std@@@std@@@std@@SAXAAV?$allocator@U?$_Tree_node@U?$pair@QAXPAVObject@@@std@@PAX@std@@@1@PAU?$pair@QAXPAVObject@@@1@$$QAU?$pair@PAXPAVObject@@@1@@Z 1001ab00 f i solid:C-api.obj
 0001:00019b30       ??$construct@U?$pair@QAXVResponse@@@std@@U?$pair@PAXVResponse@@@2@@?$_Wrap_alloc@V?$allocator@U?$_Tree_node@U?$pair@QAXVResponse@@@std@@PAX@std@@@std@@@std@@QAEXPAU?$pair@QAXVResponse@@@1@$$QAU?$pair@PAXVResponse@@@1@@Z 1001ab30 f i solid:C-api.obj
 0001:00019b70       ??$construct@U?$pair@QAXVResponse@@@std@@U?$pair@PAXVResponse@@@2@@?$allocator@U?$_Tree_node@U?$pair@QAXVResponse@@@std@@PAX@std@@@std@@QAEXPAU?$pair@QAXVResponse@@@1@$$QAU?$pair@PAXVResponse@@@1@@Z 1001ab70 f i solid:C-api.obj
 0001:00019c20       ??$construct@U?$pair@QAXVResponse@@@std@@U?$pair@PAXVResponse@@@2@@?$allocator_traits@V?$allocator@U?$_Tree_node@U?$pair@QAXVResponse@@@std@@PAX@std@@@std@@@std@@SAXAAV?$allocator@U?$_Tree_node@U?$pair@QAXVResponse@@@std@@PAX@std@@@1@PAU?$pair@QAXVResponse@@@1@$$QAU?$pair@PAXVResponse@@@1@@Z 1001ac20 f i solid:C-api.obj
 0001:00019c50       ??$construct@U_Container_proxy@std@@U12@@?$_Wrap_alloc@V?$allocator@U_Container_proxy@std@@@std@@@std@@QAEXPAU_Container_proxy@1@$$QAU21@@Z 1001ac50 f i solid:C-api.obj
 0001:00019c90       ??$construct@U_Container_proxy@std@@U12@@?$allocator@U_Container_proxy@std@@@std@@QAEXPAU_Container_proxy@1@$$QAU21@@Z 1001ac90 f i solid:C-api.obj
 0001:00019d40       ??$construct@U_Container_proxy@std@@U12@@?$allocator_traits@V?$allocator@U_Container_proxy@std@@@std@@@std@@SAXAAV?$allocator@U_Container_proxy@std@@@1@PAU_Container_proxy@1@$$QAU31@@Z 1001ad40 f i solid:C-api.obj
 0001:00019d70       ??$construct@VEncounter@@V1@@?$_Wrap_alloc@V?$allocator@U?$_Tree_node@VEncounter@@PAX@std@@@std@@@std@@QAEXPAVEncounter@@$$QAV2@@Z 1001ad70 f i solid:C-api.obj
 0001:00019db0       ??$construct@VEncounter@@V1@@?$allocator@U?$_Tree_node@VEncounter@@PAX@std@@@std@@QAEXPAVEncounter@@$$QAV2@@Z 1001adb0 f i solid:C-api.obj
 0001:00019e60       ??$construct@VEncounter@@V1@@?$allocator_traits@V?$allocator@U?$_Tree_node@VEncounter@@PAX@std@@@std@@@std@@SAXAAV?$allocator@U?$_Tree_node@VEncounter@@PAX@std@@@1@PAVEncounter@@$$QAV3@@Z 1001ae60 f i solid:C-api.obj
 0001:00019e90       ??$construct@VPoint@@AAV1@@?$_Wrap_alloc@V?$allocator@VPoint@@@std@@@std@@QAEXPAVPoint@@AAV2@@Z 1001ae90 f i solid:C-api.obj
 0001:00019ed0       ??$construct@VPoint@@AAV1@@?$allocator@VPoint@@@std@@QAEXPAVPoint@@AAV2@@Z 1001aed0 f i solid:C-api.obj
 0001:00019f90       ??$construct@VPoint@@AAV1@@?$allocator_traits@V?$allocator@VPoint@@@std@@@std@@SAXAAV?$allocator@VPoint@@@1@PAVPoint@@AAV3@@Z 1001af90 f i solid:C-api.obj
 0001:00019fc0       ??$construct@VPoint@@ABV1@@?$_Wrap_alloc@V?$allocator@VPoint@@@std@@@std@@QAEXPAVPoint@@ABV2@@Z 1001afc0 f i solid:C-api.obj
 0001:0001a000       ??$construct@VPoint@@ABV1@@?$allocator_traits@V?$allocator@VPoint@@@std@@@std@@SAXAAV?$allocator@VPoint@@@1@PAVPoint@@ABV3@@Z 1001b000 f i solid:C-api.obj
 0001:0001a030       ??$construct@VPoint@@V1@@?$_Wrap_alloc@V?$allocator@VPoint@@@std@@@std@@QAEXPAVPoint@@$$QAV2@@Z 1001b030 f i solid:C-api.obj
 0001:0001a070       ??$construct@VPoint@@V1@@?$allocator@VPoint@@@std@@QAEXPAVPoint@@$$QAV2@@Z 1001b070 f i solid:C-api.obj
 0001:0001a130       ??$construct@VPoint@@V1@@?$allocator_traits@V?$allocator@VPoint@@@std@@@std@@SAXAAV?$allocator@VPoint@@@1@PAVPoint@@$$QAV3@@Z 1001b130 f i solid:C-api.obj
 0001:0001a160       ??$copy@PBIPAI@std@@YAPAIPBI0PAI@Z 1001b160 f i solid:C-api.obj
 0001:0001a200       ??$copy@V?$_Vector_iterator@V?$_Vector_val@U?$_Simple_types@VPoint@@@std@@@std@@@std@@PAVPoint@@@std@@YAPAVPoint@@V?$_Vector_iterator@V?$_Vector_val@U?$_Simple_types@VPoint@@@std@@@std@@@0@0PAV1@@Z 1001b200 f i solid:C-api.obj
 0001:0001a3a0       ??$destroy@PAD@?$_Wrap_alloc@V?$allocator@D@std@@@std@@QAEXPAPAD@Z 1001b3a0 f i solid:C-api.obj
 0001:0001a3d0       ??$destroy@PAD@?$allocator@D@std@@QAEXPAPAD@Z 1001b3d0 f i solid:C-api.obj
 0001:0001a3f0       ??$destroy@PAD@?$allocator_traits@V?$allocator@D@std@@@std@@SAXAAV?$allocator@D@1@PAPAD@Z 1001b3f0 f i solid:C-api.obj
 0001:0001a410       ??$destroy@PAU?$_Tree_node@U?$pair@$$CBU?$pair@PAXPAX@std@@VResponse@@@std@@PAX@std@@@?$_Wrap_alloc@V?$allocator@U?$_Tree_node@U?$pair@$$CBU?$pair@PAXPAX@std@@VResponse@@@std@@PAX@std@@@std@@@std@@QAEXPAPAU?$_Tree_node@U?$pair@$$CBU?$pair@PAXPAX@std@@VResponse@@@std@@PAX@1@@Z 1001b410 f i solid:C-api.obj
 0001:0001a440       ??$destroy@PAU?$_Tree_node@U?$pair@$$CBU?$pair@PAXPAX@std@@VResponse@@@std@@PAX@std@@@?$allocator@U?$_Tree_node@U?$pair@$$CBU?$pair@PAXPAX@std@@VResponse@@@std@@PAX@std@@@std@@QAEXPAPAU?$_Tree_node@U?$pair@$$CBU?$pair@PAXPAX@std@@VResponse@@@std@@PAX@1@@Z 1001b440 f i solid:C-api.obj
 0001:0001a460       ??$destroy@PAU?$_Tree_node@U?$pair@$$CBU?$pair@PAXPAX@std@@VResponse@@@std@@PAX@std@@@?$allocator_traits@V?$allocator@U?$_Tree_node@U?$pair@$$CBU?$pair@PAXPAX@std@@VResponse@@@std@@PAX@std@@@std@@@std@@SAXAAV?$allocator@U?$_Tree_node@U?$pair@$$CBU?$pair@PAXPAX@std@@VResponse@@@std@@PAX@std@@@1@PAPAU?$_Tree_node@U?$pair@$$CBU?$pair@PAXPAX@std@@VResponse@@@std@@PAX@1@@Z 1001b460 f i solid:C-api.obj
 0001:0001a480       ??$destroy@PAU?$_Tree_node@U?$pair@QAXPAVObject@@@std@@PAX@std@@@?$_Wrap_alloc@V?$allocator@U?$_Tree_node@U?$pair@QAXPAVObject@@@std@@PAX@std@@@std@@@std@@QAEXPAPAU?$_Tree_node@U?$pair@QAXPAVObject@@@std@@PAX@1@@Z 1001b480 f i solid:C-api.obj
 0001:0001a4b0       ??$destroy@PAU?$_Tree_node@U?$pair@QAXPAVObject@@@std@@PAX@std@@@?$allocator@U?$_Tree_node@U?$pair@QAXPAVObject@@@std@@PAX@std@@@std@@QAEXPAPAU?$_Tree_node@U?$pair@QAXPAVObject@@@std@@PAX@1@@Z 1001b4b0 f i solid:C-api.obj
 0001:0001a4d0       ??$destroy@PAU?$_Tree_node@U?$pair@QAXPAVObject@@@std@@PAX@std@@@?$allocator_traits@V?$allocator@U?$_Tree_node@U?$pair@QAXPAVObject@@@std@@PAX@std@@@std@@@std@@SAXAAV?$allocator@U?$_Tree_node@U?$pair@QAXPAVObject@@@std@@PAX@std@@@1@PAPAU?$_Tree_node@U?$pair@QAXPAVObject@@@std@@PAX@1@@Z 1001b4d0 f i solid:C-api.obj
 0001:0001a4f0       ??$destroy@PAU?$_Tree_node@U?$pair@QAXVResponse@@@std@@PAX@std@@@?$_Wrap_alloc@V?$allocator@U?$_Tree_node@U?$pair@QAXVResponse@@@std@@PAX@std@@@std@@@std@@QAEXPAPAU?$_Tree_node@U?$pair@QAXVResponse@@@std@@PAX@1@@Z 1001b4f0 f i solid:C-api.obj
 0001:0001a520       ??$destroy@PAU?$_Tree_node@U?$pair@QAXVResponse@@@std@@PAX@std@@@?$allocator@U?$_Tree_node@U?$pair@QAXVResponse@@@std@@PAX@std@@@std@@QAEXPAPAU?$_Tree_node@U?$pair@QAXVResponse@@@std@@PAX@1@@Z 1001b520 f i solid:C-api.obj
 0001:0001a540       ??$destroy@PAU?$_Tree_node@U?$pair@QAXVResponse@@@std@@PAX@std@@@?$allocator_traits@V?$allocator@U?$_Tree_node@U?$pair@QAXVResponse@@@std@@PAX@std@@@std@@@std@@SAXAAV?$allocator@U?$_Tree_node@U?$pair@QAXVResponse@@@std@@PAX@std@@@1@PAPAU?$_Tree_node@U?$pair@QAXVResponse@@@std@@PAX@1@@Z 1001b540 f i solid:C-api.obj
 0001:0001a560       ??$destroy@PAU?$_Tree_node@VEncounter@@PAX@std@@@?$_Wrap_alloc@V?$allocator@U?$_Tree_node@VEncounter@@PAX@std@@@std@@@std@@QAEXPAPAU?$_Tree_node@VEncounter@@PAX@1@@Z 1001b560 f i solid:C-api.obj
 0001:0001a590       ??$destroy@PAU?$_Tree_node@VEncounter@@PAX@std@@@?$allocator@U?$_Tree_node@VEncounter@@PAX@std@@@std@@QAEXPAPAU?$_Tree_node@VEncounter@@PAX@1@@Z 1001b590 f i solid:C-api.obj
 0001:0001a5b0       ??$destroy@PAU?$_Tree_node@VEncounter@@PAX@std@@@?$allocator_traits@V?$allocator@U?$_Tree_node@VEncounter@@PAX@std@@@std@@@std@@SAXAAV?$allocator@U?$_Tree_node@VEncounter@@PAX@std@@@1@PAPAU?$_Tree_node@VEncounter@@PAX@1@@Z 1001b5b0 f i solid:C-api.obj
 0001:0001a5d0       ??$destroy@U?$pair@$$CBU?$pair@PAXPAX@std@@VResponse@@@std@@@?$_Wrap_alloc@V?$allocator@U?$_Tree_node@U?$pair@$$CBU?$pair@PAXPAX@std@@VResponse@@@std@@PAX@std@@@std@@@std@@QAEXPAU?$pair@$$CBU?$pair@PAXPAX@std@@VResponse@@@1@@Z 1001b5d0 f i solid:C-api.obj
 0001:0001a600       ??$destroy@U?$pair@$$CBU?$pair@PAXPAX@std@@VResponse@@@std@@@?$allocator@U?$_Tree_node@U?$pair@$$CBU?$pair@PAXPAX@std@@VResponse@@@std@@PAX@std@@@std@@QAEXPAU?$pair@$$CBU?$pair@PAXPAX@std@@VResponse@@@1@@Z 1001b600 f i solid:C-api.obj
 0001:0001a620       ??$destroy@U?$pair@$$CBU?$pair@PAXPAX@std@@VResponse@@@std@@@?$allocator_traits@V?$allocator@U?$_Tree_node@U?$pair@$$CBU?$pair@PAXPAX@std@@VResponse@@@std@@PAX@std@@@std@@@std@@SAXAAV?$allocator@U?$_Tree_node@U?$pair@$$CBU?$pair@PAXPAX@std@@VResponse@@@std@@PAX@std@@@1@PAU?$pair@$$CBU?$pair@PAXPAX@std@@VResponse@@@1@@Z 1001b620 f i solid:C-api.obj
 0001:0001a640       ??$destroy@U?$pair@QAXPAVObject@@@std@@@?$_Wrap_alloc@V?$allocator@U?$_Tree_node@U?$pair@QAXPAVObject@@@std@@PAX@std@@@std@@@std@@QAEXPAU?$pair@QAXPAVObject@@@1@@Z 1001b640 f i solid:C-api.obj
 0001:0001a670       ??$destroy@U?$pair@QAXPAVObject@@@std@@@?$allocator@U?$_Tree_node@U?$pair@QAXPAVObject@@@std@@PAX@std@@@std@@QAEXPAU?$pair@QAXPAVObject@@@1@@Z 1001b670 f i solid:C-api.obj
 0001:0001a690       ??$destroy@U?$pair@QAXPAVObject@@@std@@@?$allocator_traits@V?$allocator@U?$_Tree_node@U?$pair@QAXPAVObject@@@std@@PAX@std@@@std@@@std@@SAXAAV?$allocator@U?$_Tree_node@U?$pair@QAXPAVObject@@@std@@PAX@std@@@1@PAU?$pair@QAXPAVObject@@@1@@Z 1001b690 f i solid:C-api.obj
 0001:0001a6b0       ??$destroy@U?$pair@QAXVResponse@@@std@@@?$_Wrap_alloc@V?$allocator@U?$_Tree_node@U?$pair@QAXVResponse@@@std@@PAX@std@@@std@@@std@@QAEXPAU?$pair@QAXVResponse@@@1@@Z 1001b6b0 f i solid:C-api.obj
 0001:0001a6e0       ??$destroy@U?$pair@QAXVResponse@@@std@@@?$allocator@U?$_Tree_node@U?$pair@QAXVResponse@@@std@@PAX@std@@@std@@QAEXPAU?$pair@QAXVResponse@@@1@@Z 1001b6e0 f i solid:C-api.obj
 0001:0001a700       ??$destroy@U?$pair@QAXVResponse@@@std@@@?$allocator_traits@V?$allocator@U?$_Tree_node@U?$pair@QAXVResponse@@@std@@PAX@std@@@std@@@std@@SAXAAV?$allocator@U?$_Tree_node@U?$pair@QAXVResponse@@@std@@PAX@std@@@1@PAU?$pair@QAXVResponse@@@1@@Z 1001b700 f i solid:C-api.obj
 0001:0001a720       ??$destroy@U_Container_proxy@std@@@?$_Wrap_alloc@V?$allocator@U_Container_proxy@std@@@std@@@std@@QAEXPAU_Container_proxy@1@@Z 1001b720 f i solid:C-api.obj
 0001:0001a750       ??$destroy@U_Container_proxy@std@@@?$allocator@U_Container_proxy@std@@@std@@QAEXPAU_Container_proxy@1@@Z 1001b750 f i solid:C-api.obj
 0001:0001a770       ??$destroy@U_Container_proxy@std@@@?$allocator_traits@V?$allocator@U_Container_proxy@std@@@std@@@std@@SAXAAV?$allocator@U_Container_proxy@std@@@1@PAU_Container_proxy@1@@Z 1001b770 f i solid:C-api.obj
 0001:0001a790       ??$destroy@VEncounter@@@?$_Wrap_alloc@V?$allocator@U?$_Tree_node@VEncounter@@PAX@std@@@std@@@std@@QAEXPAVEncounter@@@Z 1001b790 f i solid:C-api.obj
 0001:0001a7c0       ??$destroy@VEncounter@@@?$allocator@U?$_Tree_node@VEncounter@@PAX@std@@@std@@QAEXPAVEncounter@@@Z 1001b7c0 f i solid:C-api.obj
 0001:0001a7e0       ??$destroy@VEncounter@@@?$allocator_traits@V?$allocator@U?$_Tree_node@VEncounter@@PAX@std@@@std@@@std@@SAXAAV?$allocator@U?$_Tree_node@VEncounter@@PAX@std@@@1@PAVEncounter@@@Z 1001b7e0 f i solid:C-api.obj
 0001:0001a800       ??$destroy@VPoint@@@?$_Wrap_alloc@V?$allocator@VPoint@@@std@@@std@@QAEXPAVPoint@@@Z 1001b800 f i solid:C-api.obj
 0001:0001a830       ??$destroy@VPoint@@@?$allocator@VPoint@@@std@@QAEXPAVPoint@@@Z 1001b830 f i solid:C-api.obj
 0001:0001a850       ??$destroy@VPoint@@@?$allocator_traits@V?$allocator@VPoint@@@std@@@std@@SAXAAV?$allocator@VPoint@@@1@PAVPoint@@@Z 1001b850 f i solid:C-api.obj
 0001:0001a870       ??$find@V?$_Vector_iterator@V?$_Vector_val@U?$_Simple_types@PAVComplex@@@std@@@std@@@std@@PAVComplex@@@std@@YA?AV?$_Vector_iterator@V?$_Vector_val@U?$_Simple_types@PAVComplex@@@std@@@std@@@0@V10@0ABQAVComplex@@@Z 1001b870 f i solid:C-api.obj
 0001:0001a9b0       ??$forward@AAI@std@@YAAAIAAI@Z 1001b9b0 f i solid:C-api.obj
 0001:0001a9c0       ??$forward@AAPAD@std@@YAAAPADAAPAD@Z 1001b9c0 f i solid:C-api.obj
 0001:0001a9d0       ??$forward@AAPAU?$_Tree_node@U?$pair@$$CBU?$pair@PAXPAX@std@@VResponse@@@std@@PAX@std@@@std@@YAAAPAU?$_Tree_node@U?$pair@$$CBU?$pair@PAXPAX@std@@VResponse@@@std@@PAX@0@AAPAU10@@Z 1001b9d0 f i solid:C-api.obj
 0001:0001a9e0       ??$forward@AAPAU?$_Tree_node@U?$pair@QAXPAVObject@@@std@@PAX@std@@@std@@YAAAPAU?$_Tree_node@U?$pair@QAXPAVObject@@@std@@PAX@0@AAPAU10@@Z 1001b9e0 f i solid:C-api.obj
 0001:0001a9f0       ??$forward@AAPAU?$_Tree_node@U?$pair@QAXVResponse@@@std@@PAX@std@@@std@@YAAAPAU?$_Tree_node@U?$pair@QAXVResponse@@@std@@PAX@0@AAPAU10@@Z 1001b9f0 f i solid:C-api.obj
 0001:0001aa00       ??$forward@AAPAU?$_Tree_node@VEncounter@@PAX@std@@@std@@YAAAPAU?$_Tree_node@VEncounter@@PAX@0@AAPAU10@@Z 1001ba00 f i solid:C-api.obj
 0001:0001aa10       ??$forward@AAPAVComplex@@@std@@YAAAPAVComplex@@AAPAV1@@Z 1001ba10 f i solid:C-api.obj
 0001:0001aa20       ??$forward@AAPAX@std@@YAAAPAXAAPAX@Z 1001ba20 f i solid:C-api.obj
 0001:0001aa30       ??$forward@AAPBVPolytope@@@std@@YAAAPBVPolytope@@AAPBV1@@Z 1001ba30 f i solid:C-api.obj
 0001:0001aa40       ??$forward@AAU?$pair@$$CBU?$pair@PAXPAX@std@@VResponse@@@std@@@std@@YAAAU?$pair@$$CBU?$pair@PAXPAX@std@@VResponse@@@0@AAU10@@Z 1001ba40 f i solid:C-api.obj
 0001:0001aa50       ??$forward@AAU?$pair@QAXPAVObject@@@std@@@std@@YAAAU?$pair@QAXPAVObject@@@0@AAU10@@Z 1001ba50 f i solid:C-api.obj
 0001:0001aa60       ??$forward@AAU?$pair@QAXVResponse@@@std@@@std@@YAAAU?$pair@QAXVResponse@@@0@AAU10@@Z 1001ba60 f i solid:C-api.obj
 0001:0001aa70       ??$forward@AAV?$_Tree_const_iterator@V?$_Tree_val@U?$_Tree_simple_types@VEncounter@@@std@@@std@@@std@@@std@@YAAAV?$_Tree_const_iterator@V?$_Tree_val@U?$_Tree_simple_types@VEncounter@@@std@@@std@@@0@AAV10@@Z 1001ba70 f i solid:C-api.obj
 0001:0001aa80       ??$forward@AAV?$_Tree_iterator@V?$_Tree_val@U?$_Tree_simple_types@U?$pair@$$CBU?$pair@PAXPAX@std@@VResponse@@@std@@@std@@@std@@@std@@@std@@YAAAV?$_Tree_iterator@V?$_Tree_val@U?$_Tree_simple_types@U?$pair@$$CBU?$pair@PAXPAX@std@@VResponse@@@std@@@std@@@std@@@0@AAV10@@Z 1001ba80 f i solid:C-api.obj
 0001:0001aa90       ??$forward@AAV?$_Tree_iterator@V?$_Tree_val@U?$_Tree_simple_types@U?$pair@QAXPAVObject@@@std@@@std@@@std@@@std@@@std@@YAAAV?$_Tree_iterator@V?$_Tree_val@U?$_Tree_simple_types@U?$pair@QAXPAVObject@@@std@@@std@@@std@@@0@AAV10@@Z 1001ba90 f i solid:C-api.obj
 0001:0001aaa0       ??$forward@AAV?$_Tree_iterator@V?$_Tree_val@U?$_Tree_simple_types@U?$pair@QAXVResponse@@@std@@@std@@@std@@@std@@@std@@YAAAV?$_Tree_iterator@V?$_Tree_val@U?$_Tree_simple_types@U?$pair@QAXVResponse@@@std@@@std@@@std@@@0@AAV10@@Z 1001baa0 f i solid:C-api.obj
 0001:0001aab0       ??$forward@AAVPoint@@@std@@YAAAVPoint@@AAV1@@Z 1001bab0 f i solid:C-api.obj
 0001:0001aac0       ??$forward@ABI@std@@YAABIABI@Z 1001bac0 f i solid:C-api.obj
 0001:0001aad0       ??$forward@ABQAVComplex@@@std@@YAABQAVComplex@@ABQAV1@@Z 1001bad0 f i solid:C-api.obj
 0001:0001aae0       ??$forward@ABQAX@std@@YAABQAXABQAX@Z 1001bae0 f i solid:C-api.obj
 0001:0001aaf0       ??$forward@ABQBVPolytope@@@std@@YAABQBVPolytope@@ABQBV1@@Z 1001baf0 f i solid:C-api.obj
 0001:0001ab00       ??$forward@ABVPoint@@@std@@YAABVPoint@@ABV1@@Z 1001bb00 f i solid:C-api.obj
 0001:0001ab10       ??$forward@PAVObject@@@std@@YA$$QAPAVObject@@AAPAV1@@Z 1001bb10 f i solid:C-api.obj
 0001:0001ab20       ??$forward@PAX@std@@YA$$QAPAXAAPAX@Z 1001bb20 f i solid:C-api.obj
 0001:0001ab30       ??$forward@U?$pair@PAXPAVObject@@@std@@@std@@YA$$QAU?$pair@PAXPAVObject@@@0@AAU10@@Z 1001bb30 f i solid:C-api.obj
 0001:0001ab40       ??$forward@U?$pair@PAXPAX@std@@@std@@YA$$QAU?$pair@PAXPAX@0@AAU10@@Z 1001bb40 f i solid:C-api.obj
 0001:0001ab50       ??$forward@U?$pair@PAXVResponse@@@std@@@std@@YA$$QAU?$pair@PAXVResponse@@@0@AAU10@@Z 1001bb50 f i solid:C-api.obj
 0001:0001ab60       ??$forward@U?$pair@U?$pair@PAXPAX@std@@VResponse@@@std@@@std@@YA$$QAU?$pair@U?$pair@PAXPAX@std@@VResponse@@@0@AAU10@@Z 1001bb60 f i solid:C-api.obj
 0001:0001ab70       ??$forward@U_Container_proxy@std@@@std@@YA$$QAU_Container_proxy@0@AAU10@@Z 1001bb70 f i solid:C-api.obj
 0001:0001ab80       ??$forward@V?$_Tree_const_iterator@V?$_Tree_val@U?$_Tree_simple_types@VEncounter@@@std@@@std@@@std@@@std@@YA$$QAV?$_Tree_const_iterator@V?$_Tree_val@U?$_Tree_simple_types@VEncounter@@@std@@@std@@@0@AAV10@@Z 1001bb80 f i solid:C-api.obj
 0001:0001ab90       ??$forward@V?$_Tree_iterator@V?$_Tree_val@U?$_Tree_simple_types@U?$pair@$$CBU?$pair@PAXPAX@std@@VResponse@@@std@@@std@@@std@@@std@@@std@@YA$$QAV?$_Tree_iterator@V?$_Tree_val@U?$_Tree_simple_types@U?$pair@$$CBU?$pair@PAXPAX@std@@VResponse@@@std@@@std@@@std@@@0@AAV10@@Z 1001bb90 f i solid:C-api.obj
 0001:0001aba0       ??$forward@V?$_Tree_iterator@V?$_Tree_val@U?$_Tree_simple_types@U?$pair@QAXPAVObject@@@std@@@std@@@std@@@std@@@std@@YA$$QAV?$_Tree_iterator@V?$_Tree_val@U?$_Tree_simple_types@U?$pair@QAXPAVObject@@@std@@@std@@@std@@@0@AAV10@@Z 1001bba0 f i solid:C-api.obj
 0001:0001abb0       ??$forward@V?$_Tree_iterator@V?$_Tree_val@U?$_Tree_simple_types@U?$pair@QAXVResponse@@@std@@@std@@@std@@@std@@@std@@YA$$QAV?$_Tree_iterator@V?$_Tree_val@U?$_Tree_simple_types@U?$pair@QAXVResponse@@@std@@@std@@@std@@@0@AAV10@@Z 1001bbb0 f i solid:C-api.obj
 0001:0001abc0       ??$forward@VEncounter@@@std@@YA$$QAVEncounter@@AAV1@@Z 1001bbc0 f i solid:C-api.obj
 0001:0001abd0       ??$forward@VPoint@@@std@@YA$$QAVPoint@@AAV1@@Z 1001bbd0 f i solid:C-api.obj
 0001:0001abe0       ??$forward@VResponse@@@std@@YA$$QAVResponse@@AAV1@@Z 1001bbe0 f i solid:C-api.obj
 0001:0001abf0       ??$forward@_N@std@@YA$$QA_NAA_N@Z 1001bbf0 f i solid:C-api.obj
 0001:0001ac00       ??$insert@U?$pair@PAXPAVObject@@@std@@@?$_Tree@V?$_Tmap_traits@PAXPAVObject@@U?$less@PAX@std@@V?$allocator@U?$pair@QAXPAVObject@@@std@@@3@$0A@@std@@@std@@QAE?AV?$_Tree_iterator@V?$_Tree_val@U?$_Tree_simple_types@U?$pair@QAXPAVObject@@@std@@@std@@@std@@@1@V?$_Tree_const_iterator@V?$_Tree_val@U?$_Tree_simple_types@U?$pair@QAXPAVObject@@@std@@@std@@@std@@@1@$$QAU?$pair@PAXPAVObject@@@1@@Z 1001bc00 f i solid:C-api.obj
 0001:0001acd0       ??$insert@U?$pair@PAXVResponse@@@std@@@?$_Tree@V?$_Tmap_traits@PAXVResponse@@U?$less@PAX@std@@V?$allocator@U?$pair@QAXVResponse@@@std@@@3@$0A@@std@@@std@@QAE?AV?$_Tree_iterator@V?$_Tree_val@U?$_Tree_simple_types@U?$pair@QAXVResponse@@@std@@@std@@@std@@@1@V?$_Tree_const_iterator@V?$_Tree_val@U?$_Tree_simple_types@U?$pair@QAXVResponse@@@std@@@std@@@std@@@1@$$QAU?$pair@PAXVResponse@@@1@@Z 1001bcd0 f i solid:C-api.obj
 0001:0001ada0       ??$insert@U?$pair@U?$pair@PAXPAX@std@@VResponse@@@std@@@?$_Tree@V?$_Tmap_traits@U?$pair@PAXPAX@std@@VResponse@@U?$less@U?$pair@PAXPAX@std@@@2@V?$allocator@U?$pair@$$CBU?$pair@PAXPAX@std@@VResponse@@@std@@@2@$0A@@std@@@std@@QAE?AV?$_Tree_iterator@V?$_Tree_val@U?$_Tree_simple_types@U?$pair@$$CBU?$pair@PAXPAX@std@@VResponse@@@std@@@std@@@std@@@1@V?$_Tree_const_iterator@V?$_Tree_val@U?$_Tree_simple_types@U?$pair@$$CBU?$pair@PAXPAX@std@@VResponse@@@std@@@std@@@std@@@1@$$QAU?$pair@U?$pair@PAXPAX@std@@VResponse@@@1@@Z 1001bda0 f i solid:C-api.obj
 0001:0001ae70       ??$make_pair@AAPAXAAPAX@std@@YA?AU?$pair@PAXPAX@0@AAPAX0@Z 1001be70 f i solid:C-api.obj
 0001:0001aed0       ??$move@AAU?$pair@PAXPAX@std@@@std@@YA$$QAU?$pair@PAXPAX@0@AAU10@@Z 1001bed0 f i solid:C-api.obj
 0001:0001aee0       ??$move@AAVPoint@@@std@@YA$$QAVPoint@@AAV1@@Z 1001bee0 f i solid:C-api.obj
 0001:0001aef0       ??$swap@D@std@@YAXAAD0@Z   1001bef0 f i solid:C-api.obj
 0001:0001af80       ??0?$_Iterator012@Ubidirectional_iterator_tag@std@@U?$pair@$$CBU?$pair@PAXPAX@std@@VResponse@@@2@HPBU32@ABU32@U_Iterator_base12@2@@std@@QAE@ABU01@@Z 1001bf80 f i solid:C-api.obj
 0001:0001afb0       ??0?$_Iterator012@Ubidirectional_iterator_tag@std@@U?$pair@$$CBU?$pair@PAXPAX@std@@VResponse@@@2@HPBU32@ABU32@U_Iterator_base12@2@@std@@QAE@XZ 1001bfb0 f i solid:C-api.obj
 0001:0001afe0       ??0?$_Iterator012@Ubidirectional_iterator_tag@std@@U?$pair@QAXPAVObject@@@2@HPBU32@ABU32@U_Iterator_base12@2@@std@@QAE@ABU01@@Z 1001bfe0 f i solid:C-api.obj
 0001:0001b010       ??0?$_Iterator012@Ubidirectional_iterator_tag@std@@U?$pair@QAXPAVObject@@@2@HPBU32@ABU32@U_Iterator_base12@2@@std@@QAE@XZ 1001c010 f i solid:C-api.obj
 0001:0001b040       ??0?$_Iterator012@Ubidirectional_iterator_tag@std@@U?$pair@QAXVResponse@@@2@HPBU32@ABU32@U_Iterator_base12@2@@std@@QAE@ABU01@@Z 1001c040 f i solid:C-api.obj
 0001:0001b070       ??0?$_Iterator012@Ubidirectional_iterator_tag@std@@U?$pair@QAXVResponse@@@2@HPBU32@ABU32@U_Iterator_base12@2@@std@@QAE@XZ 1001c070 f i solid:C-api.obj
 0001:0001b0a0       ??0?$_Iterator012@Ubidirectional_iterator_tag@std@@VEncounter@@HPBV3@ABV3@U_Iterator_base12@2@@std@@QAE@ABU01@@Z 1001c0a0 f i solid:C-api.obj
 0001:0001b0d0       ??0?$_Iterator012@Ubidirectional_iterator_tag@std@@VEncounter@@HPBV3@ABV3@U_Iterator_base12@2@@std@@QAE@XZ 1001c0d0 f i solid:C-api.obj
 0001:0001b100       ??0?$_Iterator012@Urandom_access_iterator_tag@std@@IHPBIABIU_Iterator_base12@2@@std@@QAE@ABU01@@Z 1001c100 f i solid:C-api.obj
 0001:0001b130       ??0?$_Iterator012@Urandom_access_iterator_tag@std@@IHPBIABIU_Iterator_base12@2@@std@@QAE@XZ 1001c130 f i solid:C-api.obj
 0001:0001b160       ??0?$_Iterator012@Urandom_access_iterator_tag@std@@PAVComplex@@HPBQAV3@ABQAV3@U_Iterator_base12@2@@std@@QAE@ABU01@@Z 1001c160 f i solid:C-api.obj
 0001:0001b190       ??0?$_Iterator012@Urandom_access_iterator_tag@std@@PAVComplex@@HPBQAV3@ABQAV3@U_Iterator_base12@2@@std@@QAE@XZ 1001c190 f i solid:C-api.obj
 0001:0001b1c0       ??0?$_Iterator012@Urandom_access_iterator_tag@std@@PBVPolytope@@HPBQBV3@ABQBV3@U_Iterator_base12@2@@std@@QAE@ABU01@@Z 1001c1c0 f i solid:C-api.obj
 0001:0001b1f0       ??0?$_Iterator012@Urandom_access_iterator_tag@std@@PBVPolytope@@HPBQBV3@ABQBV3@U_Iterator_base12@2@@std@@QAE@XZ 1001c1f0 f i solid:C-api.obj
 0001:0001b220       ??0?$_Iterator012@Urandom_access_iterator_tag@std@@VPoint@@HPBV3@ABV3@U_Iterator_base12@2@@std@@QAE@ABU01@@Z 1001c220 f i solid:C-api.obj
 0001:0001b250       ??0?$_Iterator012@Urandom_access_iterator_tag@std@@VPoint@@HPBV3@ABV3@U_Iterator_base12@2@@std@@QAE@XZ 1001c250 f i solid:C-api.obj
 0001:0001b280       ??0?$_String_alloc@$0A@U?$_String_base_types@DV?$allocator@D@std@@@std@@@std@@QAE@ABV?$allocator@D@1@@Z 1001c280 f i solid:C-api.obj
 0001:0001b2f0       ??0?$_String_val@U?$_Simple_types@D@std@@@std@@QAE@XZ 1001c2f0 f i solid:C-api.obj
 0001:0001b330       ??0?$_Tree@V?$_Tmap_traits@PAXPAVObject@@U?$less@PAX@std@@V?$allocator@U?$pair@QAXPAVObject@@@std@@@3@$0A@@std@@@std@@QAE@ABU?$less@PAX@1@ABV?$allocator@U?$pair@QAXPAVObject@@@std@@@1@@Z 1001c330 f i solid:C-api.obj
 0001:0001b370       ??0?$_Tree@V?$_Tmap_traits@PAXVResponse@@U?$less@PAX@std@@V?$allocator@U?$pair@QAXVResponse@@@std@@@3@$0A@@std@@@std@@QAE@ABU?$less@PAX@1@ABV?$allocator@U?$pair@QAXVResponse@@@std@@@1@@Z 1001c370 f i solid:C-api.obj
 0001:0001b3b0       ??0?$_Tree@V?$_Tmap_traits@U?$pair@PAXPAX@std@@VResponse@@U?$less@U?$pair@PAXPAX@std@@@2@V?$allocator@U?$pair@$$CBU?$pair@PAXPAX@std@@VResponse@@@std@@@2@$0A@@std@@@std@@QAE@ABU?$less@U?$pair@PAXPAX@std@@@1@ABV?$allocator@U?$pair@$$CBU?$pair@PAXPAX@std@@VResponse@@@std@@@1@@Z 1001c3b0 f i solid:C-api.obj
 0001:0001b3f0       ??0?$_Tree@V?$_Tset_traits@VEncounter@@U?$less@VEncounter@@@std@@V?$allocator@VEncounter@@@3@$0A@@std@@@std@@QAE@ABU?$less@VEncounter@@@1@ABV?$allocator@VEncounter@@@1@@Z 1001c3f0 f i solid:C-api.obj
 0001:0001b430       ??0?$_Tree_alloc@$0A@U?$_Tree_base_types@U?$pair@$$CBU?$pair@PAXPAX@std@@VResponse@@@std@@V?$allocator@U?$pair@$$CBU?$pair@PAXPAX@std@@VResponse@@@std@@@2@@std@@@std@@QAE@ABV?$allocator@U?$pair@$$CBU?$pair@PAXPAX@std@@VResponse@@@std@@@1@@Z 1001c430 f i solid:C-api.obj
 0001:0001b4f0       ??0?$_Tree_alloc@$0A@U?$_Tree_base_types@U?$pair@QAXPAVObject@@@std@@V?$allocator@U?$pair@QAXPAVObject@@@std@@@2@@std@@@std@@QAE@ABV?$allocator@U?$pair@QAXPAVObject@@@std@@@1@@Z 1001c4f0 f i solid:C-api.obj
 0001:0001b5b0       ??0?$_Tree_alloc@$0A@U?$_Tree_base_types@U?$pair@QAXVResponse@@@std@@V?$allocator@U?$pair@QAXVResponse@@@std@@@2@@std@@@std@@QAE@ABV?$allocator@U?$pair@QAXVResponse@@@std@@@1@@Z 1001c5b0 f i solid:C-api.obj
 0001:0001b670       ??0?$_Tree_alloc@$0A@U?$_Tree_base_types@VEncounter@@V?$allocator@VEncounter@@@std@@@std@@@std@@QAE@ABV?$allocator@VEncounter@@@1@@Z 1001c670 f i solid:C-api.obj
 0001:0001b730       ??0?$_Tree_buy@U?$pair@$$CBU?$pair@PAXPAX@std@@VResponse@@@std@@V?$allocator@U?$pair@$$CBU?$pair@PAXPAX@std@@VResponse@@@std@@@2@@std@@QAE@ABV?$allocator@U?$pair@$$CBU?$pair@PAXPAX@std@@VResponse@@@std@@@1@@Z 1001c730 f i solid:C-api.obj
 0001:0001b760       ??0?$_Tree_buy@U?$pair@QAXPAVObject@@@std@@V?$allocator@U?$pair@QAXPAVObject@@@std@@@2@@std@@QAE@ABV?$allocator@U?$pair@QAXPAVObject@@@std@@@1@@Z 1001c760 f i solid:C-api.obj
 0001:0001b790       ??0?$_Tree_buy@U?$pair@QAXVResponse@@@std@@V?$allocator@U?$pair@QAXVResponse@@@std@@@2@@std@@QAE@ABV?$allocator@U?$pair@QAXVResponse@@@std@@@1@@Z 1001c790 f i solid:C-api.obj
 0001:0001b7c0       ??0?$_Tree_buy@VEncounter@@V?$allocator@VEncounter@@@std@@@std@@QAE@ABV?$allocator@VEncounter@@@1@@Z 1001c7c0 f i solid:C-api.obj
 0001:0001b7f0       ??0?$_Tree_comp@$0A@V?$_Tmap_traits@PAXPAVObject@@U?$less@PAX@std@@V?$allocator@U?$pair@QAXPAVObject@@@std@@@3@$0A@@std@@@std@@QAE@ABU?$less@PAX@1@ABV?$allocator@U?$pair@QAXPAVObject@@@std@@@1@@Z 1001c7f0 f i solid:C-api.obj
 0001:0001b820       ??0?$_Tree_comp@$0A@V?$_Tmap_traits@PAXVResponse@@U?$less@PAX@std@@V?$allocator@U?$pair@QAXVResponse@@@std@@@3@$0A@@std@@@std@@QAE@ABU?$less@PAX@1@ABV?$allocator@U?$pair@QAXVResponse@@@std@@@1@@Z 1001c820 f i solid:C-api.obj
 0001:0001b850       ??0?$_Tree_comp@$0A@V?$_Tmap_traits@U?$pair@PAXPAX@std@@VResponse@@U?$less@U?$pair@PAXPAX@std@@@2@V?$allocator@U?$pair@$$CBU?$pair@PAXPAX@std@@VResponse@@@std@@@2@$0A@@std@@@std@@QAE@ABU?$less@U?$pair@PAXPAX@std@@@1@ABV?$allocator@U?$pair@$$CBU?$pair@PAXPAX@std@@VResponse@@@std@@@1@@Z 1001c850 f i solid:C-api.obj
 0001:0001b880       ??0?$_Tree_comp@$0A@V?$_Tset_traits@VEncounter@@U?$less@VEncounter@@@std@@V?$allocator@VEncounter@@@3@$0A@@std@@@std@@QAE@ABU?$less@VEncounter@@@1@ABV?$allocator@VEncounter@@@1@@Z 1001c880 f i solid:C-api.obj
 0001:0001b8b0       ??0?$_Tree_const_iterator@V?$_Tree_val@U?$_Tree_simple_types@U?$pair@$$CBU?$pair@PAXPAX@std@@VResponse@@@std@@@std@@@std@@@std@@QAE@ABV01@@Z 1001c8b0 f i solid:C-api.obj
 0001:0001b8e0       ??0?$_Tree_const_iterator@V?$_Tree_val@U?$_Tree_simple_types@U?$pair@$$CBU?$pair@PAXPAX@std@@VResponse@@@std@@@std@@@std@@@std@@QAE@PAU?$_Tree_node@U?$pair@$$CBU?$pair@PAXPAX@std@@VResponse@@@std@@PAX@1@PBV?$_Tree_val@U?$_Tree_simple_types@U?$pair@$$CBU?$pair@PAXPAX@std@@VResponse@@@std@@@std@@@1@@Z 1001c8e0 f i solid:C-api.obj
 0001:0001b920       ??0?$_Tree_const_iterator@V?$_Tree_val@U?$_Tree_simple_types@U?$pair@$$CBU?$pair@PAXPAX@std@@VResponse@@@std@@@std@@@std@@@std@@QAE@XZ 1001c920 f i solid:C-api.obj
 0001:0001b950       ??0?$_Tree_const_iterator@V?$_Tree_val@U?$_Tree_simple_types@U?$pair@QAXPAVObject@@@std@@@std@@@std@@@std@@QAE@ABV01@@Z 1001c950 f i solid:C-api.obj
 0001:0001b980       ??0?$_Tree_const_iterator@V?$_Tree_val@U?$_Tree_simple_types@U?$pair@QAXPAVObject@@@std@@@std@@@std@@@std@@QAE@PAU?$_Tree_node@U?$pair@QAXPAVObject@@@std@@PAX@1@PBV?$_Tree_val@U?$_Tree_simple_types@U?$pair@QAXPAVObject@@@std@@@std@@@1@@Z 1001c980 f i solid:C-api.obj
 0001:0001b9c0       ??0?$_Tree_const_iterator@V?$_Tree_val@U?$_Tree_simple_types@U?$pair@QAXPAVObject@@@std@@@std@@@std@@@std@@QAE@XZ 1001c9c0 f i solid:C-api.obj
 0001:0001b9f0       ??0?$_Tree_const_iterator@V?$_Tree_val@U?$_Tree_simple_types@U?$pair@QAXVResponse@@@std@@@std@@@std@@@std@@QAE@ABV01@@Z 1001c9f0 f i solid:C-api.obj
 0001:0001ba20       ??0?$_Tree_const_iterator@V?$_Tree_val@U?$_Tree_simple_types@U?$pair@QAXVResponse@@@std@@@std@@@std@@@std@@QAE@PAU?$_Tree_node@U?$pair@QAXVResponse@@@std@@PAX@1@PBV?$_Tree_val@U?$_Tree_simple_types@U?$pair@QAXVResponse@@@std@@@std@@@1@@Z 1001ca20 f i solid:C-api.obj
 0001:0001ba60       ??0?$_Tree_const_iterator@V?$_Tree_val@U?$_Tree_simple_types@U?$pair@QAXVResponse@@@std@@@std@@@std@@@std@@QAE@XZ 1001ca60 f i solid:C-api.obj
 0001:0001ba90       ??0?$_Tree_const_iterator@V?$_Tree_val@U?$_Tree_simple_types@VEncounter@@@std@@@std@@@std@@QAE@ABV01@@Z 1001ca90 f i solid:C-api.obj
 0001:0001bac0       ??0?$_Tree_const_iterator@V?$_Tree_val@U?$_Tree_simple_types@VEncounter@@@std@@@std@@@std@@QAE@PAU?$_Tree_node@VEncounter@@PAX@1@PBV?$_Tree_val@U?$_Tree_simple_types@VEncounter@@@std@@@1@@Z 1001cac0 f i solid:C-api.obj
 0001:0001bb00       ??0?$_Tree_iterator@V?$_Tree_val@U?$_Tree_simple_types@U?$pair@$$CBU?$pair@PAXPAX@std@@VResponse@@@std@@@std@@@std@@@std@@QAE@ABV01@@Z 1001cb00 f i solid:C-api.obj
 0001:0001bb30       ??0?$_Tree_iterator@V?$_Tree_val@U?$_Tree_simple_types@U?$pair@$$CBU?$pair@PAXPAX@std@@VResponse@@@std@@@std@@@std@@@std@@QAE@PAU?$_Tree_node@U?$pair@$$CBU?$pair@PAXPAX@std@@VResponse@@@std@@PAX@1@PBV?$_Tree_val@U?$_Tree_simple_types@U?$pair@$$CBU?$pair@PAXPAX@std@@VResponse@@@std@@@std@@@1@@Z 1001cb30 f i solid:C-api.obj
 0001:0001bb70       ??0?$_Tree_iterator@V?$_Tree_val@U?$_Tree_simple_types@U?$pair@QAXPAVObject@@@std@@@std@@@std@@@std@@QAE@ABV01@@Z 1001cb70 f i solid:C-api.obj
 0001:0001bba0       ??0?$_Tree_iterator@V?$_Tree_val@U?$_Tree_simple_types@U?$pair@QAXPAVObject@@@std@@@std@@@std@@@std@@QAE@PAU?$_Tree_node@U?$pair@QAXPAVObject@@@std@@PAX@1@PBV?$_Tree_val@U?$_Tree_simple_types@U?$pair@QAXPAVObject@@@std@@@std@@@1@@Z 1001cba0 f i solid:C-api.obj
 0001:0001bbe0       ??0?$_Tree_iterator@V?$_Tree_val@U?$_Tree_simple_types@U?$pair@QAXVResponse@@@std@@@std@@@std@@@std@@QAE@ABV01@@Z 1001cbe0 f i solid:C-api.obj
 0001:0001bc10       ??0?$_Tree_iterator@V?$_Tree_val@U?$_Tree_simple_types@U?$pair@QAXVResponse@@@std@@@std@@@std@@@std@@QAE@PAU?$_Tree_node@U?$pair@QAXVResponse@@@std@@PAX@1@PBV?$_Tree_val@U?$_Tree_simple_types@U?$pair@QAXVResponse@@@std@@@std@@@1@@Z 1001cc10 f i solid:C-api.obj
 0001:0001bc50       ??0?$_Tree_unchecked_const_iterator@V?$_Tree_val@U?$_Tree_simple_types@U?$pair@$$CBU?$pair@PAXPAX@std@@VResponse@@@std@@@std@@@std@@U_Iterator_base12@2@@std@@QAE@ABV01@@Z 1001cc50 f i solid:C-api.obj
 0001:0001bc90       ??0?$_Tree_unchecked_const_iterator@V?$_Tree_val@U?$_Tree_simple_types@U?$pair@$$CBU?$pair@PAXPAX@std@@VResponse@@@std@@@std@@@std@@U_Iterator_base12@2@@std@@QAE@PAU?$_Tree_node@U?$pair@$$CBU?$pair@PAXPAX@std@@VResponse@@@std@@PAX@1@PBV?$_Tree_val@U?$_Tree_simple_types@U?$pair@$$CBU?$pair@PAXPAX@std@@VResponse@@@std@@@std@@@1@@Z 1001cc90 f i solid:C-api.obj
 0001:0001bd10       ??0?$_Tree_unchecked_const_iterator@V?$_Tree_val@U?$_Tree_simple_types@U?$pair@$$CBU?$pair@PAXPAX@std@@VResponse@@@std@@@std@@@std@@U_Iterator_base12@2@@std@@QAE@XZ 1001cd10 f i solid:C-api.obj
 0001:0001bd50       ??0?$_Tree_unchecked_const_iterator@V?$_Tree_val@U?$_Tree_simple_types@U?$pair@QAXPAVObject@@@std@@@std@@@std@@U_Iterator_base12@2@@std@@QAE@ABV01@@Z 1001cd50 f i solid:C-api.obj
 0001:0001bd90       ??0?$_Tree_unchecked_const_iterator@V?$_Tree_val@U?$_Tree_simple_types@U?$pair@QAXPAVObject@@@std@@@std@@@std@@U_Iterator_base12@2@@std@@QAE@PAU?$_Tree_node@U?$pair@QAXPAVObject@@@std@@PAX@1@PBV?$_Tree_val@U?$_Tree_simple_types@U?$pair@QAXPAVObject@@@std@@@std@@@1@@Z 1001cd90 f i solid:C-api.obj
 0001:0001be10       ??0?$_Tree_unchecked_const_iterator@V?$_Tree_val@U?$_Tree_simple_types@U?$pair@QAXPAVObject@@@std@@@std@@@std@@U_Iterator_base12@2@@std@@QAE@XZ 1001ce10 f i solid:C-api.obj
 0001:0001be50       ??0?$_Tree_unchecked_const_iterator@V?$_Tree_val@U?$_Tree_simple_types@U?$pair@QAXVResponse@@@std@@@std@@@std@@U_Iterator_base12@2@@std@@QAE@ABV01@@Z 1001ce50 f i solid:C-api.obj
 0001:0001be90       ??0?$_Tree_unchecked_const_iterator@V?$_Tree_val@U?$_Tree_simple_types@U?$pair@QAXVResponse@@@std@@@std@@@std@@U_Iterator_base12@2@@std@@QAE@PAU?$_Tree_node@U?$pair@QAXVResponse@@@std@@PAX@1@PBV?$_Tree_val@U?$_Tree_simple_types@U?$pair@QAXVResponse@@@std@@@std@@@1@@Z 1001ce90 f i solid:C-api.obj
 0001:0001bf10       ??0?$_Tree_unchecked_const_iterator@V?$_Tree_val@U?$_Tree_simple_types@U?$pair@QAXVResponse@@@std@@@std@@@std@@U_Iterator_base12@2@@std@@QAE@XZ 1001cf10 f i solid:C-api.obj
 0001:0001bf50       ??0?$_Tree_unchecked_const_iterator@V?$_Tree_val@U?$_Tree_simple_types@VEncounter@@@std@@@std@@U_Iterator_base12@2@@std@@QAE@ABV01@@Z 1001cf50 f i solid:C-api.obj
 0001:0001bf90       ??0?$_Tree_unchecked_const_iterator@V?$_Tree_val@U?$_Tree_simple_types@VEncounter@@@std@@@std@@U_Iterator_base12@2@@std@@QAE@PAU?$_Tree_node@VEncounter@@PAX@1@PBV?$_Tree_val@U?$_Tree_simple_types@VEncounter@@@std@@@1@@Z 1001cf90 f i solid:C-api.obj
 0001:0001c010       ??0?$_Tree_val@U?$_Tree_simple_types@U?$pair@$$CBU?$pair@PAXPAX@std@@VResponse@@@std@@@std@@@std@@QAE@XZ 1001d010 f i solid:C-api.obj
 0001:0001c050       ??0?$_Tree_val@U?$_Tree_simple_types@U?$pair@QAXPAVObject@@@std@@@std@@@std@@QAE@XZ 1001d050 f i solid:C-api.obj
 0001:0001c090       ??0?$_Tree_val@U?$_Tree_simple_types@U?$pair@QAXVResponse@@@std@@@std@@@std@@QAE@XZ 1001d090 f i solid:C-api.obj
 0001:0001c0d0       ??0?$_Tree_val@U?$_Tree_simple_types@VEncounter@@@std@@@std@@QAE@XZ 1001d0d0 f i solid:C-api.obj
 0001:0001c110       ??0?$_Vector_alloc@$0A@U?$_Vec_base_types@IV?$allocator@I@std@@@std@@@std@@QAE@ABV?$allocator@I@1@@Z 1001d110 f i solid:C-api.obj
 0001:0001c180       ??0?$_Vector_alloc@$0A@U?$_Vec_base_types@PAVComplex@@V?$allocator@PAVComplex@@@std@@@std@@@std@@QAE@ABV?$allocator@PAVComplex@@@1@@Z 1001d180 f i solid:C-api.obj
 0001:0001c1f0       ??0?$_Vector_alloc@$0A@U?$_Vec_base_types@PBVPolytope@@V?$allocator@PBVPolytope@@@std@@@std@@@std@@QAE@ABV?$allocator@PBVPolytope@@@1@@Z 1001d1f0 f i solid:C-api.obj
 0001:0001c260       ??0?$_Vector_alloc@$0A@U?$_Vec_base_types@VPoint@@V?$allocator@VPoint@@@std@@@std@@@std@@QAE@ABV?$allocator@VPoint@@@1@@Z 1001d260 f i solid:C-api.obj
 0001:0001c2d0       ??0?$_Vector_const_iterator@V?$_Vector_val@U?$_Simple_types@I@std@@@std@@@std@@QAE@ABV01@@Z 1001d2d0 f i solid:C-api.obj
 0001:0001c310       ??0?$_Vector_const_iterator@V?$_Vector_val@U?$_Simple_types@I@std@@@std@@@std@@QAE@PAIPBU_Container_base12@1@@Z 1001d310 f i solid:C-api.obj
 0001:0001c390       ??0?$_Vector_const_iterator@V?$_Vector_val@U?$_Simple_types@PAVComplex@@@std@@@std@@@std@@QAE@ABV01@@Z 1001d390 f i solid:C-api.obj
 0001:0001c3d0       ??0?$_Vector_const_iterator@V?$_Vector_val@U?$_Simple_types@PAVComplex@@@std@@@std@@@std@@QAE@PAPAVComplex@@PBU_Container_base12@1@@Z 1001d3d0 f i solid:C-api.obj
 0001:0001c450       ??0?$_Vector_const_iterator@V?$_Vector_val@U?$_Simple_types@PBVPolytope@@@std@@@std@@@std@@QAE@ABV01@@Z 1001d450 f i solid:C-api.obj
 0001:0001c490       ??0?$_Vector_const_iterator@V?$_Vector_val@U?$_Simple_types@PBVPolytope@@@std@@@std@@@std@@QAE@PAPBVPolytope@@PBU_Container_base12@1@@Z 1001d490 f i solid:C-api.obj
 0001:0001c510       ??0?$_Vector_const_iterator@V?$_Vector_val@U?$_Simple_types@VPoint@@@std@@@std@@@std@@QAE@ABV01@@Z 1001d510 f i solid:C-api.obj
 0001:0001c550       ??0?$_Vector_const_iterator@V?$_Vector_val@U?$_Simple_types@VPoint@@@std@@@std@@@std@@QAE@PAVPoint@@PBU_Container_base12@1@@Z 1001d550 f i solid:C-api.obj
 0001:0001c5d0       ??0?$_Vector_iterator@V?$_Vector_val@U?$_Simple_types@I@std@@@std@@@std@@QAE@PAIPBU_Container_base12@1@@Z 1001d5d0 f i solid:C-api.obj
 0001:0001c610       ??0?$_Vector_iterator@V?$_Vector_val@U?$_Simple_types@PAVComplex@@@std@@@std@@@std@@QAE@ABV01@@Z 1001d610 f i solid:C-api.obj
 0001:0001c640       ??0?$_Vector_iterator@V?$_Vector_val@U?$_Simple_types@PAVComplex@@@std@@@std@@@std@@QAE@PAPAVComplex@@PBU_Container_base12@1@@Z 1001d640 f i solid:C-api.obj
 0001:0001c680       ??0?$_Vector_iterator@V?$_Vector_val@U?$_Simple_types@PBVPolytope@@@std@@@std@@@std@@QAE@PAPBVPolytope@@PBU_Container_base12@1@@Z 1001d680 f i solid:C-api.obj
 0001:0001c6c0       ??0?$_Vector_iterator@V?$_Vector_val@U?$_Simple_types@VPoint@@@std@@@std@@@std@@QAE@ABV01@@Z 1001d6c0 f i solid:C-api.obj
 0001:0001c6f0       ??0?$_Vector_iterator@V?$_Vector_val@U?$_Simple_types@VPoint@@@std@@@std@@@std@@QAE@PAVPoint@@PBU_Container_base12@1@@Z 1001d6f0 f i solid:C-api.obj
 0001:0001c730       ??0?$_Vector_val@U?$_Simple_types@I@std@@@std@@QAE@XZ 1001d730 f i solid:C-api.obj
 0001:0001c780       ??0?$_Vector_val@U?$_Simple_types@PAVComplex@@@std@@@std@@QAE@XZ 1001d780 f i solid:C-api.obj
 0001:0001c7d0       ??0?$_Vector_val@U?$_Simple_types@PBVPolytope@@@std@@@std@@QAE@XZ 1001d7d0 f i solid:C-api.obj
 0001:0001c820       ??0?$_Vector_val@U?$_Simple_types@VPoint@@@std@@@std@@QAE@XZ 1001d820 f i solid:C-api.obj
 0001:0001c870       ??0?$_Wrap_alloc@V?$allocator@D@std@@@std@@QAE@XZ 1001d870 f i solid:C-api.obj
 0001:0001c8a0       ??0?$_Wrap_alloc@V?$allocator@I@std@@@std@@QAE@XZ 1001d8a0 f i solid:C-api.obj
 0001:0001c8d0       ??0?$_Wrap_alloc@V?$allocator@PAVComplex@@@std@@@std@@QAE@XZ 1001d8d0 f i solid:C-api.obj
 0001:0001c900       ??0?$_Wrap_alloc@V?$allocator@PBVPolytope@@@std@@@std@@QAE@XZ 1001d900 f i solid:C-api.obj
 0001:0001c930       ??0?$_Wrap_alloc@V?$allocator@U?$_Tree_node@U?$pair@$$CBU?$pair@PAXPAX@std@@VResponse@@@std@@PAX@std@@@std@@@std@@QAE@XZ 1001d930 f i solid:C-api.obj
 0001:0001c960       ??0?$_Wrap_alloc@V?$allocator@U?$_Tree_node@U?$pair@QAXPAVObject@@@std@@PAX@std@@@std@@@std@@QAE@XZ 1001d960 f i solid:C-api.obj
 0001:0001c990       ??0?$_Wrap_alloc@V?$allocator@U?$_Tree_node@U?$pair@QAXVResponse@@@std@@PAX@std@@@std@@@std@@QAE@XZ 1001d990 f i solid:C-api.obj
 0001:0001c9c0       ??0?$_Wrap_alloc@V?$allocator@U?$_Tree_node@VEncounter@@PAX@std@@@std@@@std@@QAE@XZ 1001d9c0 f i solid:C-api.obj
 0001:0001c9f0       ??0?$_Wrap_alloc@V?$allocator@VPoint@@@std@@@std@@QAE@XZ 1001d9f0 f i solid:C-api.obj
 0001:0001ca20       ??0?$allocator@D@std@@QAE@XZ 1001da20 f i solid:C-api.obj
 0001:0001ca40       ??0?$allocator@I@std@@QAE@XZ 1001da40 f i solid:C-api.obj
 0001:0001ca60       ??0?$allocator@PAVComplex@@@std@@QAE@XZ 1001da60 f i solid:C-api.obj
 0001:0001ca80       ??0?$allocator@PBVPolytope@@@std@@QAE@XZ 1001da80 f i solid:C-api.obj
 0001:0001caa0       ??0?$allocator@U?$_Tree_node@U?$pair@$$CBU?$pair@PAXPAX@std@@VResponse@@@std@@PAX@std@@@std@@QAE@XZ 1001daa0 f i solid:C-api.obj
 0001:0001cac0       ??0?$allocator@U?$_Tree_node@U?$pair@QAXPAVObject@@@std@@PAX@std@@@std@@QAE@XZ 1001dac0 f i solid:C-api.obj
 0001:0001cae0       ??0?$allocator@U?$_Tree_node@U?$pair@QAXVResponse@@@std@@PAX@std@@@std@@QAE@XZ 1001dae0 f i solid:C-api.obj
 0001:0001cb00       ??0?$allocator@U?$_Tree_node@VEncounter@@PAX@std@@@std@@QAE@XZ 1001db00 f i solid:C-api.obj
 0001:0001cb20       ??0?$allocator@U?$pair@$$CBU?$pair@PAXPAX@std@@VResponse@@@std@@@std@@QAE@XZ 1001db20 f i solid:C-api.obj
 0001:0001cb40       ??0?$allocator@U?$pair@QAXPAVObject@@@std@@@std@@QAE@XZ 1001db40 f i solid:C-api.obj
 0001:0001cb60       ??0?$allocator@U?$pair@QAXVResponse@@@std@@@std@@QAE@XZ 1001db60 f i solid:C-api.obj
 0001:0001cb80       ??0?$allocator@U_Container_proxy@std@@@std@@QAE@XZ 1001db80 f i solid:C-api.obj
 0001:0001cba0       ??0?$allocator@VEncounter@@@std@@QAE@XZ 1001dba0 f i solid:C-api.obj
 0001:0001cbc0       ??0?$allocator@VPoint@@@std@@QAE@XZ 1001dbc0 f i solid:C-api.obj
 0001:0001cbe0       ??0?$basic_string@DU?$char_traits@D@std@@V?$allocator@D@2@@std@@QAE@PBD@Z 1001dbe0 f i solid:C-api.obj
 0001:0001cc70       ??0?$map@PAXPAVObject@@U?$less@PAX@std@@V?$allocator@U?$pair@QAXPAVObject@@@std@@@3@@std@@QAE@XZ 1001dc70 f i solid:C-api.obj
 0001:0001ccb0       ??0?$map@PAXVResponse@@U?$less@PAX@std@@V?$allocator@U?$pair@QAXVResponse@@@std@@@3@@std@@QAE@XZ 1001dcb0 f i solid:C-api.obj
 0001:0001ccf0       ??0?$map@U?$pair@PAXPAX@std@@VResponse@@U?$less@U?$pair@PAXPAX@std@@@2@V?$allocator@U?$pair@$$CBU?$pair@PAXPAX@std@@VResponse@@@std@@@2@@std@@QAE@XZ 1001dcf0 f i solid:C-api.obj
 0001:0001cd30       ??0?$set@VEncounter@@U?$less@VEncounter@@@std@@V?$allocator@VEncounter@@@3@@std@@QAE@XZ 1001dd30 f i solid:C-api.obj
 0001:0001cd70       ??0?$vector@IV?$allocator@I@std@@@std@@QAE@XZ 1001dd70 f i solid:C-api.obj
 0001:0001cdb0       ??0?$vector@PAVComplex@@V?$allocator@PAVComplex@@@std@@@std@@QAE@XZ 1001ddb0 f i solid:C-api.obj
 0001:0001cdf0       ??0?$vector@PBVPolytope@@V?$allocator@PBVPolytope@@@std@@@std@@QAE@XZ 1001ddf0 f i solid:C-api.obj
 0001:0001ce30       ??0?$vector@VPoint@@V?$allocator@VPoint@@@std@@@std@@QAE@XZ 1001de30 f i solid:C-api.obj
 0001:0001ce70       ??0Box@@QAE@NNN@Z          1001de70 f i solid:C-api.obj
 0001:0001cf30       ??0Complex@@QAE@XZ         1001df30 f i solid:C-api.obj
 0001:0001cfb0       ??0Cone@@QAE@NN@Z          1001dfb0 f i solid:C-api.obj
 0001:0001d060       ??0Convex@@QAE@XZ          1001e060 f i solid:C-api.obj
 0001:0001d090       ??0Cylinder@@QAE@NN@Z      1001e090 f i solid:C-api.obj
 0001:0001d0f0       ??0Encounter@@QAE@PBVObject@@0@Z 1001e0f0 f i solid:C-api.obj
 0001:0001d220       ??0IndexArray@@QAE@HQBI@Z  1001e220 f i solid:C-api.obj
 0001:0001d2b0       ??0Matrix@@QAE@XZ          1001e2b0 f i solid:C-api.obj
 0001:0001d2d0       ??0Point@@QAE@NNN@Z        1001e2d0 f i solid:C-api.obj
 0001:0001d320       ??0Point@@QAE@XZ           1001e320 f i solid:C-api.obj
 0001:0001d350       ??0Polygon@@QAE@ABVVertexBase@@HQBI@Z 1001e350 f i solid:C-api.obj
 0001:0001d3a0       ??0Polytope@@QAE@ABVVertexBase@@HQBI@Z 1001e3a0 f i solid:C-api.obj
 0001:0001d430       ??0Quaternion@@QAE@NNNN@Z  1001e430 f i solid:C-api.obj
 0001:0001d490       ??0RespTable@@QAE@XZ       1001e490 f i solid:C-api.obj
 0001:0001d510       ??0Response@@QAE@P6AXPAX00PBUDtCollData@@@ZW4DtResponseType@@0@Z 1001e510 f i solid:C-api.obj
 0001:0001d550       ??0Shape@@QAE@XZ           1001e550 f i solid:C-api.obj
 0001:0001d570       ??0Simplex@@QAE@ABVVertexBase@@HQBI@Z 1001e570 f i solid:C-api.obj
 0001:0001d5b0       ??0Sphere@@QAE@N@Z         1001e5b0 f i solid:C-api.obj
 0001:0001d5f0       ??0Transform@@QAE@QBM@Z    1001e5f0 f i solid:C-api.obj
 0001:0001d630       ??0Transform@@QAE@QBN@Z    1001e630 f i solid:C-api.obj
 0001:0001d670       ??0Tuple3@@QAE@NNN@Z       1001e670 f i solid:C-api.obj
 0001:0001d6c0       ??0Tuple3@@QAE@XZ          1001e6c0 f i solid:C-api.obj
 0001:0001d6e0       ??0Tuple4@@QAE@NNNN@Z      1001e6e0 f i solid:C-api.obj
 0001:0001d740       ??0Vector@@QAE@NNN@Z       1001e740 f i solid:C-api.obj
 0001:0001d790       ??0Vector@@QAE@XZ          1001e790 f i solid:C-api.obj
 0001:0001d7c0       ??0VertexBase@@QAE@PBVPoint@@@Z 1001e7c0 f i solid:C-api.obj
 0001:0001d7e0       ??0VertexBase@@QAE@XZ      1001e7e0 f i solid:C-api.obj
 0001:0001d800       ??0_Container_base12@std@@QAE@XZ 1001e800 f i solid:C-api.obj
 0001:0001d820       ??0_Container_proxy@std@@QAE@XZ 1001e820 f i solid:C-api.obj
 0001:0001d850       ??0_Generic_error_category@std@@QAE@XZ 1001e850 f i solid:C-api.obj
 0001:0001d880       ??0_Iostream_error_category@std@@QAE@XZ 1001e880 f i solid:C-api.obj
 0001:0001d8b0       ??0_Iterator_base12@std@@QAE@ABU01@@Z 1001e8b0 f i solid:C-api.obj
 0001:0001d8f0       ??0_Iterator_base12@std@@QAE@XZ 1001e8f0 f i solid:C-api.obj
 0001:0001d920       ??0_System_error_category@std@@QAE@XZ 1001e920 f i solid:C-api.obj
 0001:0001d950       ??0error_category@std@@QAE@XZ 1001e950 f i solid:C-api.obj
 0001:0001d970       ??0error_condition@std@@QAE@HABVerror_category@1@@Z 1001e970 f i solid:C-api.obj
 0001:0001d9a0       ??0id@locale@std@@QAE@I@Z  1001e9a0 f i solid:C-api.obj
 0001:0001d9c0       ??1?$_Iterator012@Ubidirectional_iterator_tag@std@@U?$pair@$$CBU?$pair@PAXPAX@std@@VResponse@@@2@HPBU32@ABU32@U_Iterator_base12@2@@std@@QAE@XZ 1001e9c0 f i solid:C-api.obj
 0001:0001d9f0       ??1?$_Iterator012@Ubidirectional_iterator_tag@std@@U?$pair@QAXPAVObject@@@2@HPBU32@ABU32@U_Iterator_base12@2@@std@@QAE@XZ 1001e9f0 f i solid:C-api.obj
 0001:0001da20       ??1?$_Iterator012@Ubidirectional_iterator_tag@std@@U?$pair@QAXVResponse@@@2@HPBU32@ABU32@U_Iterator_base12@2@@std@@QAE@XZ 1001ea20 f i solid:C-api.obj
 0001:0001da50       ??1?$_Iterator012@Ubidirectional_iterator_tag@std@@VEncounter@@HPBV3@ABV3@U_Iterator_base12@2@@std@@QAE@XZ 1001ea50 f i solid:C-api.obj
 0001:0001da80       ??1?$_Iterator012@Urandom_access_iterator_tag@std@@IHPBIABIU_Iterator_base12@2@@std@@QAE@XZ 1001ea80 f i solid:C-api.obj
 0001:0001dab0       ??1?$_Iterator012@Urandom_access_iterator_tag@std@@PAVComplex@@HPBQAV3@ABQAV3@U_Iterator_base12@2@@std@@QAE@XZ 1001eab0 f i solid:C-api.obj
 0001:0001dae0       ??1?$_Iterator012@Urandom_access_iterator_tag@std@@PBVPolytope@@HPBQBV3@ABQBV3@U_Iterator_base12@2@@std@@QAE@XZ 1001eae0 f i solid:C-api.obj
 0001:0001db10       ??1?$_Iterator012@Urandom_access_iterator_tag@std@@VPoint@@HPBV3@ABV3@U_Iterator_base12@2@@std@@QAE@XZ 1001eb10 f i solid:C-api.obj
 0001:0001db40       ??1?$_String_alloc@$0A@U?$_String_base_types@DV?$allocator@D@std@@@std@@@std@@QAE@XZ 1001eb40 f i solid:C-api.obj
 0001:0001db70       ??1?$_String_val@U?$_Simple_types@D@std@@@std@@QAE@XZ 1001eb70 f i solid:C-api.obj
 0001:0001dba0       ??1?$_Tree@V?$_Tmap_traits@PAXPAVObject@@U?$less@PAX@std@@V?$allocator@U?$pair@QAXPAVObject@@@std@@@3@$0A@@std@@@std@@QAE@XZ 1001eba0 f i solid:C-api.obj
 0001:0001dbd0       ??1?$_Tree@V?$_Tmap_traits@PAXVResponse@@U?$less@PAX@std@@V?$allocator@U?$pair@QAXVResponse@@@std@@@3@$0A@@std@@@std@@QAE@XZ 1001ebd0 f i solid:C-api.obj
 0001:0001dc00       ??1?$_Tree@V?$_Tmap_traits@U?$pair@PAXPAX@std@@VResponse@@U?$less@U?$pair@PAXPAX@std@@@2@V?$allocator@U?$pair@$$CBU?$pair@PAXPAX@std@@VResponse@@@std@@@2@$0A@@std@@@std@@QAE@XZ 1001ec00 f i solid:C-api.obj
 0001:0001dc30       ??1?$_Tree@V?$_Tset_traits@VEncounter@@U?$less@VEncounter@@@std@@V?$allocator@VEncounter@@@3@$0A@@std@@@std@@QAE@XZ 1001ec30 f i solid:C-api.obj
 0001:0001dc60       ??1?$_Tree_alloc@$0A@U?$_Tree_base_types@U?$pair@$$CBU?$pair@PAXPAX@std@@VResponse@@@std@@V?$allocator@U?$pair@$$CBU?$pair@PAXPAX@std@@VResponse@@@std@@@2@@std@@@std@@QAE@XZ 1001ec60 f i solid:C-api.obj
 0001:0001dca0       ??1?$_Tree_alloc@$0A@U?$_Tree_base_types@U?$pair@QAXPAVObject@@@std@@V?$allocator@U?$pair@QAXPAVObject@@@std@@@2@@std@@@std@@QAE@XZ 1001eca0 f i solid:C-api.obj
 0001:0001dce0       ??1?$_Tree_alloc@$0A@U?$_Tree_base_types@U?$pair@QAXVResponse@@@std@@V?$allocator@U?$pair@QAXVResponse@@@std@@@2@@std@@@std@@QAE@XZ 1001ece0 f i solid:C-api.obj
 0001:0001dd20       ??1?$_Tree_alloc@$0A@U?$_Tree_base_types@VEncounter@@V?$allocator@VEncounter@@@std@@@std@@@std@@QAE@XZ 1001ed20 f i solid:C-api.obj
 0001:0001dd60       ??1?$_Tree_buy@U?$pair@$$CBU?$pair@PAXPAX@std@@VResponse@@@std@@V?$allocator@U?$pair@$$CBU?$pair@PAXPAX@std@@VResponse@@@std@@@2@@std@@QAE@XZ 1001ed60 f i solid:C-api.obj
 0001:0001dd90       ??1?$_Tree_buy@U?$pair@QAXPAVObject@@@std@@V?$allocator@U?$pair@QAXPAVObject@@@std@@@2@@std@@QAE@XZ 1001ed90 f i solid:C-api.obj
 0001:0001ddc0       ??1?$_Tree_buy@U?$pair@QAXVResponse@@@std@@V?$allocator@U?$pair@QAXVResponse@@@std@@@2@@std@@QAE@XZ 1001edc0 f i solid:C-api.obj
 0001:0001ddf0       ??1?$_Tree_buy@VEncounter@@V?$allocator@VEncounter@@@std@@@std@@QAE@XZ 1001edf0 f i solid:C-api.obj
 0001:0001de20       ??1?$_Tree_comp@$0A@V?$_Tmap_traits@PAXPAVObject@@U?$less@PAX@std@@V?$allocator@U?$pair@QAXPAVObject@@@std@@@3@$0A@@std@@@std@@QAE@XZ 1001ee20 f i solid:C-api.obj
 0001:0001de50       ??1?$_Tree_comp@$0A@V?$_Tmap_traits@PAXVResponse@@U?$less@PAX@std@@V?$allocator@U?$pair@QAXVResponse@@@std@@@3@$0A@@std@@@std@@QAE@XZ 1001ee50 f i solid:C-api.obj
 0001:0001de80       ??1?$_Tree_comp@$0A@V?$_Tmap_traits@U?$pair@PAXPAX@std@@VResponse@@U?$less@U?$pair@PAXPAX@std@@@2@V?$allocator@U?$pair@$$CBU?$pair@PAXPAX@std@@VResponse@@@std@@@2@$0A@@std@@@std@@QAE@XZ 1001ee80 f i solid:C-api.obj
 0001:0001deb0       ??1?$_Tree_comp@$0A@V?$_Tset_traits@VEncounter@@U?$less@VEncounter@@@std@@V?$allocator@VEncounter@@@3@$0A@@std@@@std@@QAE@XZ 1001eeb0 f i solid:C-api.obj
 0001:0001dee0       ??1?$_Tree_const_iterator@V?$_Tree_val@U?$_Tree_simple_types@U?$pair@$$CBU?$pair@PAXPAX@std@@VResponse@@@std@@@std@@@std@@@std@@QAE@XZ 1001eee0 f i solid:C-api.obj
 0001:0001df10       ??1?$_Tree_const_iterator@V?$_Tree_val@U?$_Tree_simple_types@U?$pair@QAXPAVObject@@@std@@@std@@@std@@@std@@QAE@XZ 1001ef10 f i solid:C-api.obj
 0001:0001df40       ??1?$_Tree_const_iterator@V?$_Tree_val@U?$_Tree_simple_types@U?$pair@QAXVResponse@@@std@@@std@@@std@@@std@@QAE@XZ 1001ef40 f i solid:C-api.obj
 0001:0001df70       ??1?$_Tree_const_iterator@V?$_Tree_val@U?$_Tree_simple_types@VEncounter@@@std@@@std@@@std@@QAE@XZ 1001ef70 f i solid:C-api.obj
 0001:0001dfa0       ??1?$_Tree_iterator@V?$_Tree_val@U?$_Tree_simple_types@U?$pair@$$CBU?$pair@PAXPAX@std@@VResponse@@@std@@@std@@@std@@@std@@QAE@XZ 1001efa0 f i solid:C-api.obj
 0001:0001dfd0       ??1?$_Tree_iterator@V?$_Tree_val@U?$_Tree_simple_types@U?$pair@QAXPAVObject@@@std@@@std@@@std@@@std@@QAE@XZ 1001efd0 f i solid:C-api.obj
 0001:0001e000       ??1?$_Tree_iterator@V?$_Tree_val@U?$_Tree_simple_types@U?$pair@QAXVResponse@@@std@@@std@@@std@@@std@@QAE@XZ 1001f000 f i solid:C-api.obj
 0001:0001e030       ??1?$_Tree_unchecked_const_iterator@V?$_Tree_val@U?$_Tree_simple_types@U?$pair@$$CBU?$pair@PAXPAX@std@@VResponse@@@std@@@std@@@std@@U_Iterator_base12@2@@std@@QAE@XZ 1001f030 f i solid:C-api.obj
 0001:0001e060       ??1?$_Tree_unchecked_const_iterator@V?$_Tree_val@U?$_Tree_simple_types@U?$pair@QAXPAVObject@@@std@@@std@@@std@@U_Iterator_base12@2@@std@@QAE@XZ 1001f060 f i solid:C-api.obj
 0001:0001e090       ??1?$_Tree_unchecked_const_iterator@V?$_Tree_val@U?$_Tree_simple_types@U?$pair@QAXVResponse@@@std@@@std@@@std@@U_Iterator_base12@2@@std@@QAE@XZ 1001f090 f i solid:C-api.obj
 0001:0001e0c0       ??1?$_Tree_unchecked_const_iterator@V?$_Tree_val@U?$_Tree_simple_types@VEncounter@@@std@@@std@@U_Iterator_base12@2@@std@@QAE@XZ 1001f0c0 f i solid:C-api.obj
 0001:0001e0f0       ??1?$_Tree_val@U?$_Tree_simple_types@U?$pair@$$CBU?$pair@PAXPAX@std@@VResponse@@@std@@@std@@@std@@QAE@XZ 1001f0f0 f i solid:C-api.obj
 0001:0001e120       ??1?$_Tree_val@U?$_Tree_simple_types@U?$pair@QAXPAVObject@@@std@@@std@@@std@@QAE@XZ 1001f120 f i solid:C-api.obj
 0001:0001e150       ??1?$_Tree_val@U?$_Tree_simple_types@U?$pair@QAXVResponse@@@std@@@std@@@std@@QAE@XZ 1001f150 f i solid:C-api.obj
 0001:0001e180       ??1?$_Tree_val@U?$_Tree_simple_types@VEncounter@@@std@@@std@@QAE@XZ 1001f180 f i solid:C-api.obj
 0001:0001e1b0       ??1?$_Vector_alloc@$0A@U?$_Vec_base_types@IV?$allocator@I@std@@@std@@@std@@QAE@XZ 1001f1b0 f i solid:C-api.obj
 0001:0001e1e0       ??1?$_Vector_alloc@$0A@U?$_Vec_base_types@PAVComplex@@V?$allocator@PAVComplex@@@std@@@std@@@std@@QAE@XZ 1001f1e0 f i solid:C-api.obj
 0001:0001e210       ??1?$_Vector_alloc@$0A@U?$_Vec_base_types@PBVPolytope@@V?$allocator@PBVPolytope@@@std@@@std@@@std@@QAE@XZ 1001f210 f i solid:C-api.obj
 0001:0001e240       ??1?$_Vector_alloc@$0A@U?$_Vec_base_types@VPoint@@V?$allocator@VPoint@@@std@@@std@@@std@@QAE@XZ 1001f240 f i solid:C-api.obj
 0001:0001e270       ??1?$_Vector_const_iterator@V?$_Vector_val@U?$_Simple_types@I@std@@@std@@@std@@QAE@XZ 1001f270 f i solid:C-api.obj
 0001:0001e2a0       ??1?$_Vector_const_iterator@V?$_Vector_val@U?$_Simple_types@PAVComplex@@@std@@@std@@@std@@QAE@XZ 1001f2a0 f i solid:C-api.obj
 0001:0001e2d0       ??1?$_Vector_const_iterator@V?$_Vector_val@U?$_Simple_types@PBVPolytope@@@std@@@std@@@std@@QAE@XZ 1001f2d0 f i solid:C-api.obj
 0001:0001e300       ??1?$_Vector_const_iterator@V?$_Vector_val@U?$_Simple_types@VPoint@@@std@@@std@@@std@@QAE@XZ 1001f300 f i solid:C-api.obj
 0001:0001e330       ??1?$_Vector_iterator@V?$_Vector_val@U?$_Simple_types@I@std@@@std@@@std@@QAE@XZ 1001f330 f i solid:C-api.obj
 0001:0001e360       ??1?$_Vector_iterator@V?$_Vector_val@U?$_Simple_types@PAVComplex@@@std@@@std@@@std@@QAE@XZ 1001f360 f i solid:C-api.obj
 0001:0001e390       ??1?$_Vector_iterator@V?$_Vector_val@U?$_Simple_types@PBVPolytope@@@std@@@std@@@std@@QAE@XZ 1001f390 f i solid:C-api.obj
 0001:0001e3c0       ??1?$_Vector_iterator@V?$_Vector_val@U?$_Simple_types@VPoint@@@std@@@std@@@std@@QAE@XZ 1001f3c0 f i solid:C-api.obj
 0001:0001e3f0       ??1?$_Vector_val@U?$_Simple_types@I@std@@@std@@QAE@XZ 1001f3f0 f i solid:C-api.obj
 0001:0001e420       ??1?$_Vector_val@U?$_Simple_types@PAVComplex@@@std@@@std@@QAE@XZ 1001f420 f i solid:C-api.obj
 0001:0001e450       ??1?$_Vector_val@U?$_Simple_types@PBVPolytope@@@std@@@std@@QAE@XZ 1001f450 f i solid:C-api.obj
 0001:0001e480       ??1?$_Vector_val@U?$_Simple_types@VPoint@@@std@@@std@@QAE@XZ 1001f480 f i solid:C-api.obj
 0001:0001e4b0       ??1?$map@PAXPAVObject@@U?$less@PAX@std@@V?$allocator@U?$pair@QAXPAVObject@@@std@@@3@@std@@QAE@XZ 1001f4b0 f i solid:C-api.obj
 0001:0001e4e0       ??1?$map@PAXVResponse@@U?$less@PAX@std@@V?$allocator@U?$pair@QAXVResponse@@@std@@@3@@std@@QAE@XZ 1001f4e0 f i solid:C-api.obj
 0001:0001e510       ??1?$map@U?$pair@PAXPAX@std@@VResponse@@U?$less@U?$pair@PAXPAX@std@@@2@V?$allocator@U?$pair@$$CBU?$pair@PAXPAX@std@@VResponse@@@std@@@2@@std@@QAE@XZ 1001f510 f i solid:C-api.obj
 0001:0001e540       ??1?$pair@V?$_Tree_const_iterator@V?$_Tree_val@U?$_Tree_simple_types@VEncounter@@@std@@@std@@@std@@V12@@std@@QAE@XZ 1001f540 f i solid:C-api.obj
 0001:0001e570       ??1?$pair@V?$_Tree_const_iterator@V?$_Tree_val@U?$_Tree_simple_types@VEncounter@@@std@@@std@@@std@@_N@std@@QAE@XZ 1001f570 f i solid:C-api.obj
 0001:0001e5a0       ??1?$pair@V?$_Tree_iterator@V?$_Tree_val@U?$_Tree_simple_types@U?$pair@$$CBU?$pair@PAXPAX@std@@VResponse@@@std@@@std@@@std@@@std@@V12@@std@@QAE@XZ 1001f5a0 f i solid:C-api.obj
 0001:0001e5d0       ??1?$pair@V?$_Tree_iterator@V?$_Tree_val@U?$_Tree_simple_types@U?$pair@$$CBU?$pair@PAXPAX@std@@VResponse@@@std@@@std@@@std@@@std@@_N@std@@QAE@XZ 1001f5d0 f i solid:C-api.obj
 0001:0001e600       ??1?$pair@V?$_Tree_iterator@V?$_Tree_val@U?$_Tree_simple_types@U?$pair@QAXPAVObject@@@std@@@std@@@std@@@std@@_N@std@@QAE@XZ 1001f600 f i solid:C-api.obj
 0001:0001e630       ??1?$pair@V?$_Tree_iterator@V?$_Tree_val@U?$_Tree_simple_types@U?$pair@QAXVResponse@@@std@@@std@@@std@@@std@@V12@@std@@QAE@XZ 1001f630 f i solid:C-api.obj
 0001:0001e660       ??1?$pair@V?$_Tree_iterator@V?$_Tree_val@U?$_Tree_simple_types@U?$pair@QAXVResponse@@@std@@@std@@@std@@@std@@_N@std@@QAE@XZ 1001f660 f i solid:C-api.obj
 0001:0001e690       ??1?$set@VEncounter@@U?$less@VEncounter@@@std@@V?$allocator@VEncounter@@@3@@std@@QAE@XZ 1001f690 f i solid:C-api.obj
 0001:0001e6c0       ??1?$vector@IV?$allocator@I@std@@@std@@QAE@XZ 1001f6c0 f i solid:C-api.obj
 0001:0001e6f0       ??1?$vector@PAVComplex@@V?$allocator@PAVComplex@@@std@@@std@@QAE@XZ 1001f6f0 f i solid:C-api.obj
 0001:0001e720       ??1?$vector@PBVPolytope@@V?$allocator@PBVPolytope@@@std@@@std@@QAE@XZ 1001f720 f i solid:C-api.obj
 0001:0001e750       ??1?$vector@VPoint@@V?$allocator@VPoint@@@std@@@std@@QAE@XZ 1001f750 f i solid:C-api.obj
 0001:0001e780       ??1Box@@UAE@XZ             1001f780 f i solid:C-api.obj
 0001:0001e7b0       ??1Cone@@UAE@XZ            1001f7b0 f i solid:C-api.obj
 0001:0001e7e0       ??1Convex@@UAE@XZ          1001f7e0 f i solid:C-api.obj
 0001:0001e810       ??1Cylinder@@UAE@XZ        1001f810 f i solid:C-api.obj
 0001:0001e840       ??1Endpoint@@QAE@XZ        1001f840 f i solid:C-api.obj
 0001:0001e870       ??1IndexArray@@QAE@XZ      1001f870 f i solid:C-api.obj
 0001:0001e8b0       ??1Object@@QAE@XZ          1001f8b0 f i solid:C-api.obj
 0001:0001e940       ??1Polygon@@UAE@XZ         1001f940 f i solid:C-api.obj
 0001:0001e970       ??1Polytope@@UAE@XZ        1001f970 f i solid:C-api.obj
 0001:0001e9e0       ??1RespTable@@QAE@XZ       1001f9e0 f i solid:C-api.obj
 0001:0001ea20       ??1Shape@@UAE@XZ           1001fa20 f i solid:C-api.obj
 0001:0001ea40       ??1Simplex@@UAE@XZ         1001fa40 f i solid:C-api.obj
 0001:0001ea70       ??1Sphere@@UAE@XZ          1001fa70 f i solid:C-api.obj
 0001:0001eaa0       ??1_Container_base12@std@@QAE@XZ 1001faa0 f i solid:C-api.obj
 0001:0001ead0       ??1_Generic_error_category@std@@UAE@XZ 1001fad0 f i solid:C-api.obj
 0001:0001eb00       ??1_Iostream_error_category@std@@UAE@XZ 1001fb00 f i solid:C-api.obj
 0001:0001eb30       ??1_Iterator_base12@std@@QAE@XZ 1001fb30 f i solid:C-api.obj
 0001:0001eba0       ??1_System_error_category@std@@UAE@XZ 1001fba0 f i solid:C-api.obj
 0001:0001ebd0       ??1error_category@std@@UAE@XZ 1001fbd0 f i solid:C-api.obj
 0001:0001ebf0       ??2@YAPAXIPAX@Z            1001fbf0 f i solid:C-api.obj
 0001:0001ec00       ??3@YAXPAX0@Z              1001fc00 f i solid:C-api.obj
 0001:0001ec10       ??4?$_Iterator012@Ubidirectional_iterator_tag@std@@U?$pair@$$CBU?$pair@PAXPAX@std@@VResponse@@@2@HPBU32@ABU32@U_Iterator_base12@2@@std@@QAEAAU01@ABU01@@Z 1001fc10 f i solid:C-api.obj
 0001:0001ec40       ??4?$_Iterator012@Ubidirectional_iterator_tag@std@@U?$pair@QAXPAVObject@@@2@HPBU32@ABU32@U_Iterator_base12@2@@std@@QAEAAU01@ABU01@@Z 1001fc40 f i solid:C-api.obj
 0001:0001ec70       ??4?$_Iterator012@Ubidirectional_iterator_tag@std@@U?$pair@QAXVResponse@@@2@HPBU32@ABU32@U_Iterator_base12@2@@std@@QAEAAU01@ABU01@@Z 1001fc70 f i solid:C-api.obj
 0001:0001eca0       ??4?$_Tree_const_iterator@V?$_Tree_val@U?$_Tree_simple_types@U?$pair@$$CBU?$pair@PAXPAX@std@@VResponse@@@std@@@std@@@std@@@std@@QAEAAV01@ABV01@@Z 1001fca0 f i solid:C-api.obj
 0001:0001ecd0       ??4?$_Tree_const_iterator@V?$_Tree_val@U?$_Tree_simple_types@U?$pair@QAXPAVObject@@@std@@@std@@@std@@@std@@QAEAAV01@ABV01@@Z 1001fcd0 f i solid:C-api.obj
 0001:0001ed00       ??4?$_Tree_const_iterator@V?$_Tree_val@U?$_Tree_simple_types@U?$pair@QAXVResponse@@@std@@@std@@@std@@@std@@QAEAAV01@ABV01@@Z 1001fd00 f i solid:C-api.obj
 0001:0001ed30       ??4?$_Tree_iterator@V?$_Tree_val@U?$_Tree_simple_types@U?$pair@$$CBU?$pair@PAXPAX@std@@VResponse@@@std@@@std@@@std@@@std@@QAEAAV01@ABV01@@Z 1001fd30 f i solid:C-api.obj
 0001:0001ed60       ??4?$_Tree_iterator@V?$_Tree_val@U?$_Tree_simple_types@U?$pair@QAXPAVObject@@@std@@@std@@@std@@@std@@QAEAAV01@ABV01@@Z 1001fd60 f i solid:C-api.obj
 0001:0001ed90       ??4?$_Tree_iterator@V?$_Tree_val@U?$_Tree_simple_types@U?$pair@QAXVResponse@@@std@@@std@@@std@@@std@@QAEAAV01@ABV01@@Z 1001fd90 f i solid:C-api.obj
 0001:0001edc0       ??4?$_Tree_unchecked_const_iterator@V?$_Tree_val@U?$_Tree_simple_types@U?$pair@$$CBU?$pair@PAXPAX@std@@VResponse@@@std@@@std@@@std@@U_Iterator_base12@2@@std@@QAEAAV01@ABV01@@Z 1001fdc0 f i solid:C-api.obj
 0001:0001ee00       ??4?$_Tree_unchecked_const_iterator@V?$_Tree_val@U?$_Tree_simple_types@U?$pair@QAXPAVObject@@@std@@@std@@@std@@U_Iterator_base12@2@@std@@QAEAAV01@ABV01@@Z 1001fe00 f i solid:C-api.obj
 0001:0001ee40       ??4?$_Tree_unchecked_const_iterator@V?$_Tree_val@U?$_Tree_simple_types@U?$pair@QAXVResponse@@@std@@@std@@@std@@U_Iterator_base12@2@@std@@QAEAAV01@ABV01@@Z 1001fe40 f i solid:C-api.obj
 0001:0001ee80       ??4_Iterator_base12@std@@QAEAAU01@ABU01@@Z 1001fe80 f i solid:C-api.obj
 0001:0001ef60       ??8?$_Tree_const_iterator@V?$_Tree_val@U?$_Tree_simple_types@U?$pair@$$CBU?$pair@PAXPAX@std@@VResponse@@@std@@@std@@@std@@@std@@QBE_NABV01@@Z 1001ff60 f i solid:C-api.obj
 0001:0001f040       ??8?$_Tree_const_iterator@V?$_Tree_val@U?$_Tree_simple_types@U?$pair@QAXPAVObject@@@std@@@std@@@std@@@std@@QBE_NABV01@@Z 10020040 f i solid:C-api.obj
 0001:0001f120       ??8?$_Tree_const_iterator@V?$_Tree_val@U?$_Tree_simple_types@U?$pair@QAXVResponse@@@std@@@std@@@std@@@std@@QBE_NABV01@@Z 10020120 f i solid:C-api.obj
 0001:0001f200       ??8?$_Tree_const_iterator@V?$_Tree_val@U?$_Tree_simple_types@VEncounter@@@std@@@std@@@std@@QBE_NABV01@@Z 10020200 f i solid:C-api.obj
 0001:0001f2e0       ??8?$_Vector_const_iterator@V?$_Vector_val@U?$_Simple_types@I@std@@@std@@@std@@QBE_NABV01@@Z 100202e0 f i solid:C-api.obj
 0001:0001f340       ??8?$_Vector_const_iterator@V?$_Vector_val@U?$_Simple_types@PAVComplex@@@std@@@std@@@std@@QBE_NABV01@@Z 10020340 f i solid:C-api.obj
 0001:0001f3a0       ??8?$_Vector_const_iterator@V?$_Vector_val@U?$_Simple_types@PBVPolytope@@@std@@@std@@@std@@QBE_NABV01@@Z 100203a0 f i solid:C-api.obj
 0001:0001f400       ??8?$_Vector_const_iterator@V?$_Vector_val@U?$_Simple_types@VPoint@@@std@@@std@@@std@@QBE_NABV01@@Z 10020400 f i solid:C-api.obj
 0001:0001f460       ??8@YA_NABVTuple3@@0@Z     10020460 f i solid:C-api.obj
 0001:0001f500       ??8error_category@std@@QBE_NABV01@@Z 10020500 f i solid:C-api.obj
 0001:0001f540       ??8error_condition@std@@QBE_NABV01@@Z 10020540 f i solid:C-api.obj
 0001:0001f5c0       ??9?$_Tree_const_iterator@V?$_Tree_val@U?$_Tree_simple_types@U?$pair@$$CBU?$pair@PAXPAX@std@@VResponse@@@std@@@std@@@std@@@std@@QBE_NABV01@@Z 100205c0 f i solid:C-api.obj
 0001:0001f610       ??9?$_Tree_const_iterator@V?$_Tree_val@U?$_Tree_simple_types@U?$pair@QAXPAVObject@@@std@@@std@@@std@@@std@@QBE_NABV01@@Z 10020610 f i solid:C-api.obj
 0001:0001f660       ??9?$_Tree_const_iterator@V?$_Tree_val@U?$_Tree_simple_types@U?$pair@QAXVResponse@@@std@@@std@@@std@@@std@@QBE_NABV01@@Z 10020660 f i solid:C-api.obj
 0001:0001f6b0       ??9?$_Tree_const_iterator@V?$_Tree_val@U?$_Tree_simple_types@VEncounter@@@std@@@std@@@std@@QBE_NABV01@@Z 100206b0 f i solid:C-api.obj
 0001:0001f700       ??9?$_Vector_const_iterator@V?$_Vector_val@U?$_Simple_types@I@std@@@std@@@std@@QBE_NABV01@@Z 10020700 f i solid:C-api.obj
 0001:0001f750       ??9?$_Vector_const_iterator@V?$_Vector_val@U?$_Simple_types@PAVComplex@@@std@@@std@@@std@@QBE_NABV01@@Z 10020750 f i solid:C-api.obj
 0001:0001f7a0       ??9?$_Vector_const_iterator@V?$_Vector_val@U?$_Simple_types@PBVPolytope@@@std@@@std@@@std@@QBE_NABV01@@Z 100207a0 f i solid:C-api.obj
 0001:0001f7f0       ??9?$_Vector_const_iterator@V?$_Vector_val@U?$_Simple_types@VPoint@@@std@@@std@@@std@@QBE_NABV01@@Z 100207f0 f i solid:C-api.obj
 0001:0001f840       ??A?$map@PAXPAVObject@@U?$less@PAX@std@@V?$allocator@U?$pair@QAXPAVObject@@@std@@@3@@std@@QAEAAPAVObject@@ABQAX@Z 10020840 f i solid:C-api.obj
 0001:0001fa00       ??A?$map@PAXVResponse@@U?$less@PAX@std@@V?$allocator@U?$pair@QAXVResponse@@@std@@@3@@std@@QAEAAVResponse@@ABQAX@Z 10020a00 f i solid:C-api.obj
 0001:0001fbd0       ??A?$map@U?$pair@PAXPAX@std@@VResponse@@U?$less@U?$pair@PAXPAX@std@@@2@V?$allocator@U?$pair@$$CBU?$pair@PAXPAX@std@@VResponse@@@std@@@2@@std@@QAEAAVResponse@@$$QAU?$pair@PAXPAX@1@@Z 10020bd0 f i solid:C-api.obj
 0001:0001fdb0       ??A?$vector@IV?$allocator@I@std@@@std@@QAEAAII@Z 10020db0 f i solid:C-api.obj
 0001:0001fe50       ??A?$vector@PBVPolytope@@V?$allocator@PBVPolytope@@@std@@@std@@QAEAAPBVPolytope@@I@Z 10020e50 f i solid:C-api.obj
 0001:0001fef0       ??A?$vector@VPoint@@V?$allocator@VPoint@@@std@@@std@@QAEAAVPoint@@I@Z 10020ef0 f i solid:C-api.obj
 0001:0001ff90       ??AMatrix@@QBEABVVector@@H@Z 10020f90 f i solid:C-api.obj
 0001:0001ffb0       ??ATuple3@@QBEABNH@Z       10020fb0 f i solid:C-api.obj
 0001:0001ffd0       ??C?$_Tree_iterator@V?$_Tree_val@U?$_Tree_simple_types@U?$pair@$$CBU?$pair@PAXPAX@std@@VResponse@@@std@@@std@@@std@@@std@@QBEPAU?$pair@$$CBU?$pair@PAXPAX@std@@VResponse@@@1@XZ 10020fd0 f i solid:C-api.obj
 0001:00020000       ??C?$_Tree_iterator@V?$_Tree_val@U?$_Tree_simple_types@U?$pair@QAXPAVObject@@@std@@@std@@@std@@@std@@QBEPAU?$pair@QAXPAVObject@@@1@XZ 10021000 f i solid:C-api.obj
 0001:00020030       ??C?$_Tree_iterator@V?$_Tree_val@U?$_Tree_simple_types@U?$pair@QAXVResponse@@@std@@@std@@@std@@@std@@QBEPAU?$pair@QAXVResponse@@@1@XZ 10021030 f i solid:C-api.obj
 0001:00020060       ??D?$_Tree_const_iterator@V?$_Tree_val@U?$_Tree_simple_types@U?$pair@$$CBU?$pair@PAXPAX@std@@VResponse@@@std@@@std@@@std@@@std@@QBEABU?$pair@$$CBU?$pair@PAXPAX@std@@VResponse@@@1@XZ 10021060 f i solid:C-api.obj
 0001:00020120       ??D?$_Tree_const_iterator@V?$_Tree_val@U?$_Tree_simple_types@U?$pair@QAXPAVObject@@@std@@@std@@@std@@@std@@QBEABU?$pair@QAXPAVObject@@@1@XZ 10021120 f i solid:C-api.obj
 0001:000201e0       ??D?$_Tree_const_iterator@V?$_Tree_val@U?$_Tree_simple_types@U?$pair@QAXVResponse@@@std@@@std@@@std@@@std@@QBEABU?$pair@QAXVResponse@@@1@XZ 100211e0 f i solid:C-api.obj
 0001:000202a0       ??D?$_Tree_const_iterator@V?$_Tree_val@U?$_Tree_simple_types@VEncounter@@@std@@@std@@@std@@QBEABVEncounter@@XZ 100212a0 f i solid:C-api.obj
 0001:00020360       ??D?$_Tree_iterator@V?$_Tree_val@U?$_Tree_simple_types@U?$pair@$$CBU?$pair@PAXPAX@std@@VResponse@@@std@@@std@@@std@@@std@@QBEAAU?$pair@$$CBU?$pair@PAXPAX@std@@VResponse@@@1@XZ 10021360 f i solid:C-api.obj
 0001:00020390       ??D?$_Tree_iterator@V?$_Tree_val@U?$_Tree_simple_types@U?$pair@QAXPAVObject@@@std@@@std@@@std@@@std@@QBEAAU?$pair@QAXPAVObject@@@1@XZ 10021390 f i solid:C-api.obj
 0001:000203c0       ??D?$_Tree_iterator@V?$_Tree_val@U?$_Tree_simple_types@U?$pair@QAXVResponse@@@std@@@std@@@std@@@std@@QBEAAU?$pair@QAXVResponse@@@1@XZ 100213c0 f i solid:C-api.obj
 0001:000203f0       ??D?$_Vector_const_iterator@V?$_Vector_val@U?$_Simple_types@PAVComplex@@@std@@@std@@@std@@QBEABQAVComplex@@XZ 100213f0 f i solid:C-api.obj
 0001:000204b0       ??D?$_Vector_iterator@V?$_Vector_val@U?$_Simple_types@PAVComplex@@@std@@@std@@@std@@QBEAAPAVComplex@@XZ 100214b0 f i solid:C-api.obj
 0001:000204e0       ??E?$_Tree_const_iterator@V?$_Tree_val@U?$_Tree_simple_types@U?$pair@$$CBU?$pair@PAXPAX@std@@VResponse@@@std@@@std@@@std@@@std@@QAE?AV01@H@Z 100214e0 f i solid:C-api.obj
 0001:000205c0       ??E?$_Tree_const_iterator@V?$_Tree_val@U?$_Tree_simple_types@U?$pair@$$CBU?$pair@PAXPAX@std@@VResponse@@@std@@@std@@@std@@@std@@QAEAAV01@XZ 100215c0 f i solid:C-api.obj
 0001:00020680       ??E?$_Tree_const_iterator@V?$_Tree_val@U?$_Tree_simple_types@U?$pair@QAXPAVObject@@@std@@@std@@@std@@@std@@QAE?AV01@H@Z 10021680 f i solid:C-api.obj
 0001:00020760       ??E?$_Tree_const_iterator@V?$_Tree_val@U?$_Tree_simple_types@U?$pair@QAXPAVObject@@@std@@@std@@@std@@@std@@QAEAAV01@XZ 10021760 f i solid:C-api.obj
 0001:00020820       ??E?$_Tree_const_iterator@V?$_Tree_val@U?$_Tree_simple_types@U?$pair@QAXVResponse@@@std@@@std@@@std@@@std@@QAE?AV01@H@Z 10021820 f i solid:C-api.obj
 0001:00020900       ??E?$_Tree_const_iterator@V?$_Tree_val@U?$_Tree_simple_types@U?$pair@QAXVResponse@@@std@@@std@@@std@@@std@@QAEAAV01@XZ 10021900 f i solid:C-api.obj
 0001:000209c0       ??E?$_Tree_const_iterator@V?$_Tree_val@U?$_Tree_simple_types@VEncounter@@@std@@@std@@@std@@QAE?AV01@H@Z 100219c0 f i solid:C-api.obj
 0001:00020aa0       ??E?$_Tree_const_iterator@V?$_Tree_val@U?$_Tree_simple_types@VEncounter@@@std@@@std@@@std@@QAEAAV01@XZ 10021aa0 f i solid:C-api.obj
 0001:00020b60       ??E?$_Tree_iterator@V?$_Tree_val@U?$_Tree_simple_types@U?$pair@$$CBU?$pair@PAXPAX@std@@VResponse@@@std@@@std@@@std@@@std@@QAEAAV01@XZ 10021b60 f i solid:C-api.obj
 0001:00020b90       ??E?$_Tree_iterator@V?$_Tree_val@U?$_Tree_simple_types@U?$pair@QAXVResponse@@@std@@@std@@@std@@@std@@QAEAAV01@XZ 10021b90 f i solid:C-api.obj
 0001:00020bc0       ??E?$_Tree_unchecked_const_iterator@V?$_Tree_val@U?$_Tree_simple_types@U?$pair@$$CBU?$pair@PAXPAX@std@@VResponse@@@std@@@std@@@std@@U_Iterator_base12@2@@std@@QAEAAV01@XZ 10021bc0 f i solid:C-api.obj
 0001:00020ca0       ??E?$_Tree_unchecked_const_iterator@V?$_Tree_val@U?$_Tree_simple_types@U?$pair@QAXPAVObject@@@std@@@std@@@std@@U_Iterator_base12@2@@std@@QAEAAV01@XZ 10021ca0 f i solid:C-api.obj
 0001:00020d80       ??E?$_Tree_unchecked_const_iterator@V?$_Tree_val@U?$_Tree_simple_types@U?$pair@QAXVResponse@@@std@@@std@@@std@@U_Iterator_base12@2@@std@@QAEAAV01@XZ 10021d80 f i solid:C-api.obj
 0001:00020e60       ??E?$_Tree_unchecked_const_iterator@V?$_Tree_val@U?$_Tree_simple_types@VEncounter@@@std@@@std@@U_Iterator_base12@2@@std@@QAEAAV01@XZ 10021e60 f i solid:C-api.obj
 0001:00020f40       ??E?$_Vector_const_iterator@V?$_Vector_val@U?$_Simple_types@PAVComplex@@@std@@@std@@@std@@QAEAAV01@XZ 10021f40 f i solid:C-api.obj
 0001:00021000       ??E?$_Vector_iterator@V?$_Vector_val@U?$_Simple_types@PAVComplex@@@std@@@std@@@std@@QAEAAV01@XZ 10022000 f i solid:C-api.obj
 0001:00021030       ??F?$_Tree_const_iterator@V?$_Tree_val@U?$_Tree_simple_types@U?$pair@$$CBU?$pair@PAXPAX@std@@VResponse@@@std@@@std@@@std@@@std@@QAEAAV01@XZ 10022030 f i solid:C-api.obj
 0001:00021160       ??F?$_Tree_const_iterator@V?$_Tree_val@U?$_Tree_simple_types@U?$pair@QAXPAVObject@@@std@@@std@@@std@@@std@@QAEAAV01@XZ 10022160 f i solid:C-api.obj
 0001:00021290       ??F?$_Tree_const_iterator@V?$_Tree_val@U?$_Tree_simple_types@U?$pair@QAXVResponse@@@std@@@std@@@std@@@std@@QAEAAV01@XZ 10022290 f i solid:C-api.obj
 0001:000213c0       ??F?$_Tree_const_iterator@V?$_Tree_val@U?$_Tree_simple_types@VEncounter@@@std@@@std@@@std@@QAEAAV01@XZ 100223c0 f i solid:C-api.obj
 0001:000214f0       ??F?$_Tree_iterator@V?$_Tree_val@U?$_Tree_simple_types@U?$pair@$$CBU?$pair@PAXPAX@std@@VResponse@@@std@@@std@@@std@@@std@@QAEAAV01@XZ 100224f0 f i solid:C-api.obj
 0001:00021520       ??F?$_Tree_iterator@V?$_Tree_val@U?$_Tree_simple_types@U?$pair@QAXPAVObject@@@std@@@std@@@std@@@std@@QAEAAV01@XZ 10022520 f i solid:C-api.obj
 0001:00021550       ??F?$_Tree_iterator@V?$_Tree_val@U?$_Tree_simple_types@U?$pair@QAXVResponse@@@std@@@std@@@std@@@std@@QAEAAV01@XZ 10022550 f i solid:C-api.obj
 0001:00021580       ??F?$_Tree_unchecked_const_iterator@V?$_Tree_val@U?$_Tree_simple_types@U?$pair@$$CBU?$pair@PAXPAX@std@@VResponse@@@std@@@std@@@std@@U_Iterator_base12@2@@std@@QAEAAV01@XZ 10022580 f i solid:C-api.obj
 0001:00021690       ??F?$_Tree_unchecked_const_iterator@V?$_Tree_val@U?$_Tree_simple_types@U?$pair@QAXPAVObject@@@std@@@std@@@std@@U_Iterator_base12@2@@std@@QAEAAV01@XZ 10022690 f i solid:C-api.obj
 0001:000217a0       ??F?$_Tree_unchecked_const_iterator@V?$_Tree_val@U?$_Tree_simple_types@U?$pair@QAXVResponse@@@std@@@std@@@std@@U_Iterator_base12@2@@std@@QAEAAV01@XZ 100227a0 f i solid:C-api.obj
 0001:000218b0       ??F?$_Tree_unchecked_const_iterator@V?$_Tree_val@U?$_Tree_simple_types@VEncounter@@@std@@@std@@U_Iterator_base12@2@@std@@QAEAAV01@XZ 100228b0 f i solid:C-api.obj
 0001:000219c0       ??G@YA?AVVector@@ABVPoint@@0@Z 100229c0 f i solid:C-api.obj
 0001:00021a50       ??M?$_Vector_const_iterator@V?$_Vector_val@U?$_Simple_types@I@std@@@std@@@std@@QBE_NABV01@@Z 10022a50 f i solid:C-api.obj
 0001:00021ab0       ??M?$_Vector_const_iterator@V?$_Vector_val@U?$_Simple_types@PAVComplex@@@std@@@std@@@std@@QBE_NABV01@@Z 10022ab0 f i solid:C-api.obj
 0001:00021b10       ??M?$_Vector_const_iterator@V?$_Vector_val@U?$_Simple_types@PBVPolytope@@@std@@@std@@@std@@QBE_NABV01@@Z 10022b10 f i solid:C-api.obj
 0001:00021b70       ??M?$_Vector_const_iterator@V?$_Vector_val@U?$_Simple_types@VPoint@@@std@@@std@@@std@@QBE_NABV01@@Z 10022b70 f i solid:C-api.obj
 0001:00021bd0       ??M@YA_NABVEncounter@@0@Z  10022bd0 f i solid:C-api.obj
 0001:00021c20       ??R?$less@PAX@std@@QBE_NABQAX0@Z 10022c20 f i solid:C-api.obj
 0001:00021c60       ??R?$less@U?$pair@PAXPAX@std@@@std@@QBE_NABU?$pair@PAXPAX@1@0@Z 10022c60 f i solid:C-api.obj
 0001:00021c90       ??R?$less@VEncounter@@@std@@QBE_NABVEncounter@@0@Z 10022c90 f i solid:C-api.obj
 0001:00021cc0       ??RTransform@@QBE?AVPoint@@ABV1@@Z 10022cc0 f i solid:C-api.obj
 0001:00021dc0       ??_GBox@@UAEPAXI@Z         10022dc0 f i solid:C-api.obj
 0001:00021dc0       ??_EBox@@UAEPAXI@Z         10022dc0 f i solid:C-api.obj
 0001:00021e00       ??_EComplex@@UAEPAXI@Z     10022e00 f i solid:C-api.obj
 0001:00021e00       ??_GComplex@@UAEPAXI@Z     10022e00 f i solid:C-api.obj
 0001:00021e40       ??_ECone@@UAEPAXI@Z        10022e40 f i solid:C-api.obj
 0001:00021e40       ??_GCone@@UAEPAXI@Z        10022e40 f i solid:C-api.obj
 0001:00021e80       ??_GConvex@@UAEPAXI@Z      10022e80 f i solid:C-api.obj
 0001:00021e80       ??_EConvex@@UAEPAXI@Z      10022e80 f i solid:C-api.obj
 0001:00021ec0       ??_GCylinder@@UAEPAXI@Z    10022ec0 f i solid:C-api.obj
 0001:00021ec0       ??_ECylinder@@UAEPAXI@Z    10022ec0 f i solid:C-api.obj
 0001:00021f00       ??_GObject@@QAEPAXI@Z      10022f00 f i solid:C-api.obj
 0001:00021f40       ??_GPolygon@@UAEPAXI@Z     10022f40 f i solid:C-api.obj
 0001:00021f40       ??_EPolygon@@UAEPAXI@Z     10022f40 f i solid:C-api.obj
 0001:00021f80       ??_EPolytope@@UAEPAXI@Z    10022f80 f i solid:C-api.obj
 0001:00021f80       ??_GPolytope@@UAEPAXI@Z    10022f80 f i solid:C-api.obj
 0001:00021fc0       ??_EShape@@UAEPAXI@Z       10022fc0 f i solid:C-api.obj
 0001:00021fc0       ??_GShape@@UAEPAXI@Z       10022fc0 f i solid:C-api.obj
 0001:00022000       ??_GSimplex@@UAEPAXI@Z     10023000 f i solid:C-api.obj
 0001:00022000       ??_ESimplex@@UAEPAXI@Z     10023000 f i solid:C-api.obj
 0001:00022040       ??_ESphere@@UAEPAXI@Z      10023040 f i solid:C-api.obj
 0001:00022040       ??_GSphere@@UAEPAXI@Z      10023040 f i solid:C-api.obj
 0001:00022080       ??_E_Generic_error_category@std@@UAEPAXI@Z 10023080 f i solid:C-api.obj
 0001:00022080       ??_G_Generic_error_category@std@@UAEPAXI@Z 10023080 f i solid:C-api.obj
 0001:000220c0       ??_G_Iostream_error_category@std@@UAEPAXI@Z 100230c0 f i solid:C-api.obj
 0001:000220c0       ??_E_Iostream_error_category@std@@UAEPAXI@Z 100230c0 f i solid:C-api.obj
 0001:00022100       ??_G_System_error_category@std@@UAEPAXI@Z 10023100 f i solid:C-api.obj
 0001:00022100       ??_E_System_error_category@std@@UAEPAXI@Z 10023100 f i solid:C-api.obj
 0001:00022140       ??_Gerror_category@std@@UAEPAXI@Z 10023140 f i solid:C-api.obj
 0001:00022140       ??_Eerror_category@std@@UAEPAXI@Z 10023140 f i solid:C-api.obj
 0001:00022180       ??_H@YGXPAXIHP6EPAX0@Z@Z   10023180 f i solid:C-api.obj
 0001:000221c0       ?_Adopt@_Iterator_base12@std@@QAEXPBU_Container_base12@2@@Z 100231c0 f i solid:C-api.obj
 0001:000222f0       ?_Alloc_proxy@?$_String_alloc@$0A@U?$_String_base_types@DV?$allocator@D@std@@@std@@@std@@QAEXXZ 100232f0 f i solid:C-api.obj
 0001:00022390       ?_Alloc_proxy@?$_Tree_alloc@$0A@U?$_Tree_base_types@U?$pair@$$CBU?$pair@PAXPAX@std@@VResponse@@@std@@V?$allocator@U?$pair@$$CBU?$pair@PAXPAX@std@@VResponse@@@std@@@2@@std@@@std@@QAEXXZ 10023390 f i solid:C-api.obj
 0001:00022440       ?_Alloc_proxy@?$_Tree_alloc@$0A@U?$_Tree_base_types@U?$pair@QAXPAVObject@@@std@@V?$allocator@U?$pair@QAXPAVObject@@@std@@@2@@std@@@std@@QAEXXZ 10023440 f i solid:C-api.obj
 0001:000224f0       ?_Alloc_proxy@?$_Tree_alloc@$0A@U?$_Tree_base_types@U?$pair@QAXVResponse@@@std@@V?$allocator@U?$pair@QAXVResponse@@@std@@@2@@std@@@std@@QAEXXZ 100234f0 f i solid:C-api.obj
 0001:000225a0       ?_Alloc_proxy@?$_Tree_alloc@$0A@U?$_Tree_base_types@VEncounter@@V?$allocator@VEncounter@@@std@@@std@@@std@@QAEXXZ 100235a0 f i solid:C-api.obj
 0001:00022650       ?_Alloc_proxy@?$_Vector_alloc@$0A@U?$_Vec_base_types@IV?$allocator@I@std@@@std@@@std@@QAEXXZ 10023650 f i solid:C-api.obj
 0001:000226f0       ?_Alloc_proxy@?$_Vector_alloc@$0A@U?$_Vec_base_types@PAVComplex@@V?$allocator@PAVComplex@@@std@@@std@@@std@@QAEXXZ 100236f0 f i solid:C-api.obj
 0001:00022790       ?_Alloc_proxy@?$_Vector_alloc@$0A@U?$_Vec_base_types@PBVPolytope@@V?$allocator@PBVPolytope@@@std@@@std@@@std@@QAEXXZ 10023790 f i solid:C-api.obj
 0001:00022830       ?_Alloc_proxy@?$_Vector_alloc@$0A@U?$_Vec_base_types@VPoint@@V?$allocator@VPoint@@@std@@@std@@@std@@QAEXXZ 10023830 f i solid:C-api.obj
 0001:000228d0       ?_Buyheadnode@?$_Tree_alloc@$0A@U?$_Tree_base_types@U?$pair@$$CBU?$pair@PAXPAX@std@@VResponse@@@std@@V?$allocator@U?$pair@$$CBU?$pair@PAXPAX@std@@VResponse@@@std@@@2@@std@@@std@@QAEPAU?$_Tree_node@U?$pair@$$CBU?$pair@PAXPAX@std@@VResponse@@@std@@PAX@2@XZ 100238d0 f i solid:C-api.obj
 0001:00022a80       ?_Buyheadnode@?$_Tree_alloc@$0A@U?$_Tree_base_types@U?$pair@QAXPAVObject@@@std@@V?$allocator@U?$pair@QAXPAVObject@@@std@@@2@@std@@@std@@QAEPAU?$_Tree_node@U?$pair@QAXPAVObject@@@std@@PAX@2@XZ 10023a80 f i solid:C-api.obj
 0001:00022c30       ?_Buyheadnode@?$_Tree_alloc@$0A@U?$_Tree_base_types@U?$pair@QAXVResponse@@@std@@V?$allocator@U?$pair@QAXVResponse@@@std@@@2@@std@@@std@@QAEPAU?$_Tree_node@U?$pair@QAXVResponse@@@std@@PAX@2@XZ 10023c30 f i solid:C-api.obj
 0001:00022de0       ?_Buyheadnode@?$_Tree_alloc@$0A@U?$_Tree_base_types@VEncounter@@V?$allocator@VEncounter@@@std@@@std@@@std@@QAEPAU?$_Tree_node@VEncounter@@PAX@2@XZ 10023de0 f i solid:C-api.obj
 0001:00022f90       ?_Buynode0@?$_Tree_buy@U?$pair@$$CBU?$pair@PAXPAX@std@@VResponse@@@std@@V?$allocator@U?$pair@$$CBU?$pair@PAXPAX@std@@VResponse@@@std@@@2@@std@@QAEPAU?$_Tree_node@U?$pair@$$CBU?$pair@PAXPAX@std@@VResponse@@@std@@PAX@2@XZ 10023f90 f i solid:C-api.obj
 0001:00023100       ?_Buynode0@?$_Tree_buy@U?$pair@QAXPAVObject@@@std@@V?$allocator@U?$pair@QAXPAVObject@@@std@@@2@@std@@QAEPAU?$_Tree_node@U?$pair@QAXPAVObject@@@std@@PAX@2@XZ 10024100 f i solid:C-api.obj
 0001:00023270       ?_Buynode0@?$_Tree_buy@U?$pair@QAXVResponse@@@std@@V?$allocator@U?$pair@QAXVResponse@@@std@@@2@@std@@QAEPAU?$_Tree_node@U?$pair@QAXVResponse@@@std@@PAX@2@XZ 10024270 f i solid:C-api.obj
 0001:000233e0       ?_Buynode0@?$_Tree_buy@VEncounter@@V?$allocator@VEncounter@@@std@@@std@@QAEPAU?$_Tree_node@VEncounter@@PAX@2@XZ 100243e0 f i solid:C-api.obj
 0001:00023550       ?_Clrcont@_Iterator_base12@std@@QAEXXZ 10024550 f i solid:C-api.obj
 0001:00023570       ?_Color@?$_Tree_val@U?$_Tree_simple_types@U?$pair@$$CBU?$pair@PAXPAX@std@@VResponse@@@std@@@std@@@std@@SAAADPAU?$_Tree_node@U?$pair@$$CBU?$pair@PAXPAX@std@@VResponse@@@std@@PAX@2@@Z 10024570 f i solid:C-api.obj
 0001:00023580       ?_Color@?$_Tree_val@U?$_Tree_simple_types@U?$pair@QAXPAVObject@@@std@@@std@@@std@@SAAADPAU?$_Tree_node@U?$pair@QAXPAVObject@@@std@@PAX@2@@Z 10024580 f i solid:C-api.obj
 0001:00023590       ?_Color@?$_Tree_val@U?$_Tree_simple_types@U?$pair@QAXVResponse@@@std@@@std@@@std@@SAAADPAU?$_Tree_node@U?$pair@QAXVResponse@@@std@@PAX@2@@Z 10024590 f i solid:C-api.obj
 0001:000235a0       ?_Color@?$_Tree_val@U?$_Tree_simple_types@VEncounter@@@std@@@std@@SAAADPAU?$_Tree_node@VEncounter@@PAX@2@@Z 100245a0 f i solid:C-api.obj
 0001:000235b0       ?_Compat@?$_Vector_const_iterator@V?$_Vector_val@U?$_Simple_types@I@std@@@std@@@std@@QBEXABV12@@Z 100245b0 f i solid:C-api.obj
 0001:00023660       ?_Compat@?$_Vector_const_iterator@V?$_Vector_val@U?$_Simple_types@PAVComplex@@@std@@@std@@@std@@QBEXABV12@@Z 10024660 f i solid:C-api.obj
 0001:00023710       ?_Compat@?$_Vector_const_iterator@V?$_Vector_val@U?$_Simple_types@PBVPolytope@@@std@@@std@@@std@@QBEXABV12@@Z 10024710 f i solid:C-api.obj
 0001:000237c0       ?_Compat@?$_Vector_const_iterator@V?$_Vector_val@U?$_Simple_types@VPoint@@@std@@@std@@@std@@QBEXABV12@@Z 100247c0 f i solid:C-api.obj
 0001:00023870       ?_Copy@?$basic_string@DU?$char_traits@D@std@@V?$allocator@D@2@@std@@QAEXII@Z 10024870 f i solid:C-api.obj
 0001:00023a70       ?_Destroy@?$vector@IV?$allocator@I@std@@@std@@IAEXPAI0@Z 10024a70 f i solid:C-api.obj
 0001:00023af0       ?_Destroy@?$vector@PAVComplex@@V?$allocator@PAVComplex@@@std@@@std@@IAEXPAPAVComplex@@0@Z 10024af0 f i solid:C-api.obj
 0001:00023b70       ?_Destroy@?$vector@PBVPolytope@@V?$allocator@PBVPolytope@@@std@@@std@@IAEXPAPBVPolytope@@0@Z 10024b70 f i solid:C-api.obj
 0001:00023bf0       ?_Destroy@?$vector@VPoint@@V?$allocator@VPoint@@@std@@@std@@IAEXPAVPoint@@0@Z 10024bf0 f i solid:C-api.obj
 0001:00023c70       ?_Destroy_if_not_nil@?$_Tree@V?$_Tmap_traits@PAXPAVObject@@U?$less@PAX@std@@V?$allocator@U?$pair@QAXPAVObject@@@std@@@3@$0A@@std@@@std@@IAEXPAU?$_Tree_node@U?$pair@QAXPAVObject@@@std@@PAX@2@@Z 10024c70 f i solid:C-api.obj
 0001:00023ce0       ?_Destroy_if_not_nil@?$_Tree@V?$_Tmap_traits@PAXVResponse@@U?$less@PAX@std@@V?$allocator@U?$pair@QAXVResponse@@@std@@@3@$0A@@std@@@std@@IAEXPAU?$_Tree_node@U?$pair@QAXVResponse@@@std@@PAX@2@@Z 10024ce0 f i solid:C-api.obj
 0001:00023d50       ?_Destroy_if_not_nil@?$_Tree@V?$_Tmap_traits@U?$pair@PAXPAX@std@@VResponse@@U?$less@U?$pair@PAXPAX@std@@@2@V?$allocator@U?$pair@$$CBU?$pair@PAXPAX@std@@VResponse@@@std@@@2@$0A@@std@@@std@@IAEXPAU?$_Tree_node@U?$pair@$$CBU?$pair@PAXPAX@std@@VResponse@@@std@@PAX@2@@Z 10024d50 f i solid:C-api.obj
 0001:00023dc0       ?_Destroy_if_not_nil@?$_Tree@V?$_Tset_traits@VEncounter@@U?$less@VEncounter@@@std@@V?$allocator@VEncounter@@@3@$0A@@std@@@std@@IAEXU_Nil@2@@Z 10024dc0 f i solid:C-api.obj
 0001:00023de0       ?_Eos@?$basic_string@DU?$char_traits@D@std@@V?$allocator@D@2@@std@@QAEXI@Z 10024de0 f i solid:C-api.obj
 0001:00023e30       ?_Eqrange@?$_Tree@V?$_Tmap_traits@PAXVResponse@@U?$less@PAX@std@@V?$allocator@U?$pair@QAXVResponse@@@std@@@3@$0A@@std@@@std@@IAE?AU?$pair@V?$_Tree_iterator@V?$_Tree_val@U?$_Tree_simple_types@U?$pair@QAXVResponse@@@std@@@std@@@std@@@std@@V12@@2@ABQAX@Z 10024e30 f i solid:C-api.obj
 0001:00024110       ?_Eqrange@?$_Tree@V?$_Tmap_traits@U?$pair@PAXPAX@std@@VResponse@@U?$less@U?$pair@PAXPAX@std@@@2@V?$allocator@U?$pair@$$CBU?$pair@PAXPAX@std@@VResponse@@@std@@@2@$0A@@std@@@std@@IAE?AU?$pair@V?$_Tree_iterator@V?$_Tree_val@U?$_Tree_simple_types@U?$pair@$$CBU?$pair@PAXPAX@std@@VResponse@@@std@@@std@@@std@@@std@@V12@@2@ABU?$pair@PAXPAX@2@@Z 10025110 f i solid:C-api.obj
 0001:000243f0       ?_Eqrange@?$_Tree@V?$_Tset_traits@VEncounter@@U?$less@VEncounter@@@std@@V?$allocator@VEncounter@@@3@$0A@@std@@@std@@IAE?AU?$pair@V?$_Tree_const_iterator@V?$_Tree_val@U?$_Tree_simple_types@VEncounter@@@std@@@std@@@std@@V12@@2@ABVEncounter@@@Z 100253f0 f i solid:C-api.obj
 0001:000246d0       ?_Erase@?$_Tree@V?$_Tmap_traits@PAXPAVObject@@U?$less@PAX@std@@V?$allocator@U?$pair@QAXPAVObject@@@std@@@3@$0A@@std@@@std@@IAEXPAU?$_Tree_node@U?$pair@QAXPAVObject@@@std@@PAX@2@@Z 100256d0 f i solid:C-api.obj
 0001:00024790       ?_Erase@?$_Tree@V?$_Tmap_traits@PAXVResponse@@U?$less@PAX@std@@V?$allocator@U?$pair@QAXVResponse@@@std@@@3@$0A@@std@@@std@@IAEXPAU?$_Tree_node@U?$pair@QAXVResponse@@@std@@PAX@2@@Z 10025790 f i solid:C-api.obj
 0001:00024850       ?_Erase@?$_Tree@V?$_Tmap_traits@U?$pair@PAXPAX@std@@VResponse@@U?$less@U?$pair@PAXPAX@std@@@2@V?$allocator@U?$pair@$$CBU?$pair@PAXPAX@std@@VResponse@@@std@@@2@$0A@@std@@@std@@IAEXPAU?$_Tree_node@U?$pair@$$CBU?$pair@PAXPAX@std@@VResponse@@@std@@PAX@2@@Z 10025850 f i solid:C-api.obj
 0001:00024910       ?_Erase@?$_Tree@V?$_Tset_traits@VEncounter@@U?$less@VEncounter@@@std@@V?$allocator@VEncounter@@@3@$0A@@std@@@std@@IAEXPAU?$_Tree_node@VEncounter@@PAX@2@@Z 10025910 f i solid:C-api.obj
 0001:000249d0       ?_Free_proxy@?$_String_alloc@$0A@U?$_String_base_types@DV?$allocator@D@std@@@std@@@std@@QAEXXZ 100259d0 f i solid:C-api.obj
 0001:00024a60       ?_Free_proxy@?$_Tree_alloc@$0A@U?$_Tree_base_types@U?$pair@$$CBU?$pair@PAXPAX@std@@VResponse@@@std@@V?$allocator@U?$pair@$$CBU?$pair@PAXPAX@std@@VResponse@@@std@@@2@@std@@@std@@QAEXXZ 10025a60 f i solid:C-api.obj
 0001:00024b00       ?_Free_proxy@?$_Tree_alloc@$0A@U?$_Tree_base_types@U?$pair@QAXPAVObject@@@std@@V?$allocator@U?$pair@QAXPAVObject@@@std@@@2@@std@@@std@@QAEXXZ 10025b00 f i solid:C-api.obj
 0001:00024ba0       ?_Free_proxy@?$_Tree_alloc@$0A@U?$_Tree_base_types@U?$pair@QAXVResponse@@@std@@V?$allocator@U?$pair@QAXVResponse@@@std@@@2@@std@@@std@@QAEXXZ 10025ba0 f i solid:C-api.obj
 0001:00024c40       ?_Free_proxy@?$_Tree_alloc@$0A@U?$_Tree_base_types@VEncounter@@V?$allocator@VEncounter@@@std@@@std@@@std@@QAEXXZ 10025c40 f i solid:C-api.obj
 0001:00024ce0       ?_Free_proxy@?$_Vector_alloc@$0A@U?$_Vec_base_types@IV?$allocator@I@std@@@std@@@std@@QAEXXZ 10025ce0 f i solid:C-api.obj
 0001:00024d70       ?_Free_proxy@?$_Vector_alloc@$0A@U?$_Vec_base_types@PAVComplex@@V?$allocator@PAVComplex@@@std@@@std@@@std@@QAEXXZ 10025d70 f i solid:C-api.obj
 0001:00024e00       ?_Free_proxy@?$_Vector_alloc@$0A@U?$_Vec_base_types@PBVPolytope@@V?$allocator@PBVPolytope@@@std@@@std@@@std@@QAEXXZ 10025e00 f i solid:C-api.obj
 0001:00024e90       ?_Free_proxy@?$_Vector_alloc@$0A@U?$_Vec_base_types@VPoint@@V?$allocator@VPoint@@@std@@@std@@@std@@QAEXXZ 10025e90 f i solid:C-api.obj
 0001:00024f20       ?_Freeheadnode@?$_Tree_alloc@$0A@U?$_Tree_base_types@U?$pair@$$CBU?$pair@PAXPAX@std@@VResponse@@@std@@V?$allocator@U?$pair@$$CBU?$pair@PAXPAX@std@@VResponse@@@std@@@2@@std@@@std@@QAEXPAU?$_Tree_node@U?$pair@$$CBU?$pair@PAXPAX@std@@VResponse@@@std@@PAX@2@@Z 10025f20 f i solid:C-api.obj
 0001:00024fe0       ?_Freeheadnode@?$_Tree_alloc@$0A@U?$_Tree_base_types@U?$pair@QAXPAVObject@@@std@@V?$allocator@U?$pair@QAXPAVObject@@@std@@@2@@std@@@std@@QAEXPAU?$_Tree_node@U?$pair@QAXPAVObject@@@std@@PAX@2@@Z 10025fe0 f i solid:C-api.obj
 0001:000250a0       ?_Freeheadnode@?$_Tree_alloc@$0A@U?$_Tree_base_types@U?$pair@QAXVResponse@@@std@@V?$allocator@U?$pair@QAXVResponse@@@std@@@2@@std@@@std@@QAEXPAU?$_Tree_node@U?$pair@QAXVResponse@@@std@@PAX@2@@Z 100260a0 f i solid:C-api.obj
 0001:00025160       ?_Freeheadnode@?$_Tree_alloc@$0A@U?$_Tree_base_types@VEncounter@@V?$allocator@VEncounter@@@std@@@std@@@std@@QAEXPAU?$_Tree_node@VEncounter@@PAX@2@@Z 10026160 f i solid:C-api.obj
 0001:00025220       ?_Freenode0@?$_Tree_buy@U?$pair@$$CBU?$pair@PAXPAX@std@@VResponse@@@std@@V?$allocator@U?$pair@$$CBU?$pair@PAXPAX@std@@VResponse@@@std@@@2@@std@@QAEXPAU?$_Tree_node@U?$pair@$$CBU?$pair@PAXPAX@std@@VResponse@@@std@@PAX@2@@Z 10026220 f i solid:C-api.obj
 0001:000252e0       ?_Freenode0@?$_Tree_buy@U?$pair@QAXPAVObject@@@std@@V?$allocator@U?$pair@QAXPAVObject@@@std@@@2@@std@@QAEXPAU?$_Tree_node@U?$pair@QAXPAVObject@@@std@@PAX@2@@Z 100262e0 f i solid:C-api.obj
 0001:000253a0       ?_Freenode0@?$_Tree_buy@U?$pair@QAXVResponse@@@std@@V?$allocator@U?$pair@QAXVResponse@@@std@@@2@@std@@QAEXPAU?$_Tree_node@U?$pair@QAXVResponse@@@std@@PAX@2@@Z 100263a0 f i solid:C-api.obj
 0001:00025460       ?_Freenode0@?$_Tree_buy@VEncounter@@V?$allocator@VEncounter@@@std@@@std@@QAEXPAU?$_Tree_node@VEncounter@@PAX@2@@Z 10026460 f i solid:C-api.obj
 0001:00025520       ?_Getal@?$_String_alloc@$0A@U?$_String_base_types@DV?$allocator@D@std@@@std@@@std@@QBE?AU?$_Wrap_alloc@V?$allocator@D@std@@@2@XZ 10026520 f i solid:C-api.obj
 0001:00025550       ?_Getal@?$_Tree_alloc@$0A@U?$_Tree_base_types@U?$pair@$$CBU?$pair@PAXPAX@std@@VResponse@@@std@@V?$allocator@U?$pair@$$CBU?$pair@PAXPAX@std@@VResponse@@@std@@@2@@std@@@std@@QBE?AU?$_Wrap_alloc@V?$allocator@U?$_Tree_node@U?$pair@$$CBU?$pair@PAXPAX@std@@VResponse@@@std@@PAX@std@@@std@@@2@XZ 10026550 f i solid:C-api.obj
 0001:00025580       ?_Getal@?$_Tree_alloc@$0A@U?$_Tree_base_types@U?$pair@QAXPAVObject@@@std@@V?$allocator@U?$pair@QAXPAVObject@@@std@@@2@@std@@@std@@QBE?AU?$_Wrap_alloc@V?$allocator@U?$_Tree_node@U?$pair@QAXPAVObject@@@std@@PAX@std@@@std@@@2@XZ 10026580 f i solid:C-api.obj
 0001:000255b0       ?_Getal@?$_Tree_alloc@$0A@U?$_Tree_base_types@U?$pair@QAXVResponse@@@std@@V?$allocator@U?$pair@QAXVResponse@@@std@@@2@@std@@@std@@QBE?AU?$_Wrap_alloc@V?$allocator@U?$_Tree_node@U?$pair@QAXVResponse@@@std@@PAX@std@@@std@@@2@XZ 100265b0 f i solid:C-api.obj
 0001:000255e0       ?_Getal@?$_Tree_alloc@$0A@U?$_Tree_base_types@VEncounter@@V?$allocator@VEncounter@@@std@@@std@@@std@@QBE?AU?$_Wrap_alloc@V?$allocator@U?$_Tree_node@VEncounter@@PAX@std@@@std@@@2@XZ 100265e0 f i solid:C-api.obj
 0001:00025610       ?_Getal@?$_Vector_alloc@$0A@U?$_Vec_base_types@IV?$allocator@I@std@@@std@@@std@@QBE?AU?$_Wrap_alloc@V?$allocator@I@std@@@2@XZ 10026610 f i solid:C-api.obj
 0001:00025640       ?_Getal@?$_Vector_alloc@$0A@U?$_Vec_base_types@PAVComplex@@V?$allocator@PAVComplex@@@std@@@std@@@std@@QBE?AU?$_Wrap_alloc@V?$allocator@PAVComplex@@@std@@@2@XZ 10026640 f i solid:C-api.obj
 0001:00025670       ?_Getal@?$_Vector_alloc@$0A@U?$_Vec_base_types@PBVPolytope@@V?$allocator@PBVPolytope@@@std@@@std@@@std@@QBE?AU?$_Wrap_alloc@V?$allocator@PBVPolytope@@@std@@@2@XZ 10026670 f i solid:C-api.obj
 0001:000256a0       ?_Getal@?$_Vector_alloc@$0A@U?$_Vec_base_types@VPoint@@V?$allocator@VPoint@@@std@@@std@@@std@@QBE?AU?$_Wrap_alloc@V?$allocator@VPoint@@@std@@@2@XZ 100266a0 f i solid:C-api.obj
 0001:000256d0       ?_Getcomp@?$_Tree_comp@$0A@V?$_Tmap_traits@PAXPAVObject@@U?$less@PAX@std@@V?$allocator@U?$pair@QAXPAVObject@@@std@@@3@$0A@@std@@@std@@QBE?AU?$less@PAX@2@XZ 100266d0 f i solid:C-api.obj
 0001:000256f0       ?_Getcomp@?$_Tree_comp@$0A@V?$_Tmap_traits@PAXVResponse@@U?$less@PAX@std@@V?$allocator@U?$pair@QAXVResponse@@@std@@@3@$0A@@std@@@std@@QBE?AU?$less@PAX@2@XZ 100266f0 f i solid:C-api.obj
 0001:00025710       ?_Getcomp@?$_Tree_comp@$0A@V?$_Tmap_traits@U?$pair@PAXPAX@std@@VResponse@@U?$less@U?$pair@PAXPAX@std@@@2@V?$allocator@U?$pair@$$CBU?$pair@PAXPAX@std@@VResponse@@@std@@@2@$0A@@std@@@std@@QBE?AU?$less@U?$pair@PAXPAX@std@@@2@XZ 10026710 f i solid:C-api.obj
 0001:00025730       ?_Getcomp@?$_Tree_comp@$0A@V?$_Tset_traits@VEncounter@@U?$less@VEncounter@@@std@@V?$allocator@VEncounter@@@3@$0A@@std@@@std@@QBE?AU?$less@VEncounter@@@2@XZ 10026730 f i solid:C-api.obj
 0001:00025750       ?_Getcont@_Iterator_base12@std@@QBEPBU_Container_base12@2@XZ 10026750 f i solid:C-api.obj
 0001:00025790       ?_Getpfirst@_Container_base12@std@@QBEPAPAU_Iterator_base12@2@XZ 10026790 f i solid:C-api.obj
 0001:000257d0       ?_Getpnext@_Iterator_base12@std@@QAEPAPAU12@XZ 100267d0 f i solid:C-api.obj
 0001:000257f0       ?_Grow@?$basic_string@DU?$char_traits@D@std@@V?$allocator@D@2@@std@@QAE_NI_N@Z 100267f0 f i solid:C-api.obj
 0001:000258c0       ?_Grow_to@?$vector@IV?$allocator@I@std@@@std@@IBEII@Z 100268c0 f i solid:C-api.obj
 0001:00025940       ?_Grow_to@?$vector@PAVComplex@@V?$allocator@PAVComplex@@@std@@@std@@IBEII@Z 10026940 f i solid:C-api.obj
 0001:000259c0       ?_Grow_to@?$vector@PBVPolytope@@V?$allocator@PBVPolytope@@@std@@@std@@IBEII@Z 100269c0 f i solid:C-api.obj
 0001:00025a40       ?_Grow_to@?$vector@VPoint@@V?$allocator@VPoint@@@std@@@std@@IBEII@Z 10026a40 f i solid:C-api.obj
 0001:00025ac0       ?_Inside@?$basic_string@DU?$char_traits@D@std@@V?$allocator@D@2@@std@@QAE_NPBD@Z 10026ac0 f i solid:C-api.obj
 0001:00025b10       ?_Inside@?$vector@IV?$allocator@I@std@@@std@@IBE_NPBI@Z 10026b10 f i solid:C-api.obj
 0001:00025b60       ?_Inside@?$vector@PAVComplex@@V?$allocator@PAVComplex@@@std@@@std@@IBE_NPBQAVComplex@@@Z 10026b60 f i solid:C-api.obj
 0001:00025bb0       ?_Inside@?$vector@PBVPolytope@@V?$allocator@PBVPolytope@@@std@@@std@@IBE_NPBQBVPolytope@@@Z 10026bb0 f i solid:C-api.obj
 0001:00025c00       ?_Inside@?$vector@VPoint@@V?$allocator@VPoint@@@std@@@std@@IBE_NPBVPoint@@@Z 10026c00 f i solid:C-api.obj
 0001:00025c50       ?_Isnil@?$_Tree_val@U?$_Tree_simple_types@U?$pair@$$CBU?$pair@PAXPAX@std@@VResponse@@@std@@@std@@@std@@SAAADPAU?$_Tree_node@U?$pair@$$CBU?$pair@PAXPAX@std@@VResponse@@@std@@PAX@2@@Z 10026c50 f i solid:C-api.obj
 0001:00025c60       ?_Isnil@?$_Tree_val@U?$_Tree_simple_types@U?$pair@QAXPAVObject@@@std@@@std@@@std@@SAAADPAU?$_Tree_node@U?$pair@QAXPAVObject@@@std@@PAX@2@@Z 10026c60 f i solid:C-api.obj
 0001:00025c70       ?_Isnil@?$_Tree_val@U?$_Tree_simple_types@U?$pair@QAXVResponse@@@std@@@std@@@std@@SAAADPAU?$_Tree_node@U?$pair@QAXVResponse@@@std@@PAX@2@@Z 10026c70 f i solid:C-api.obj
 0001:00025c80       ?_Isnil@?$_Tree_val@U?$_Tree_simple_types@VEncounter@@@std@@@std@@SAAADPAU?$_Tree_node@VEncounter@@PAX@2@@Z 10026c80 f i solid:C-api.obj
 0001:00025c90       ?_Key@?$_Tree@V?$_Tmap_traits@PAXPAVObject@@U?$less@PAX@std@@V?$allocator@U?$pair@QAXPAVObject@@@std@@@3@$0A@@std@@@std@@IBEABQAXPAU?$_Tree_node@U?$pair@QAXPAVObject@@@std@@PAX@2@@Z 10026c90 f i solid:C-api.obj
 0001:00025cd0       ?_Key@?$_Tree@V?$_Tmap_traits@PAXVResponse@@U?$less@PAX@std@@V?$allocator@U?$pair@QAXVResponse@@@std@@@3@$0A@@std@@@std@@IBEABQAXPAU?$_Tree_node@U?$pair@QAXVResponse@@@std@@PAX@2@@Z 10026cd0 f i solid:C-api.obj
 0001:00025d10       ?_Key@?$_Tree@V?$_Tmap_traits@U?$pair@PAXPAX@std@@VResponse@@U?$less@U?$pair@PAXPAX@std@@@2@V?$allocator@U?$pair@$$CBU?$pair@PAXPAX@std@@VResponse@@@std@@@2@$0A@@std@@@std@@IBEABU?$pair@PAXPAX@2@PAU?$_Tree_node@U?$pair@$$CBU?$pair@PAXPAX@std@@VResponse@@@std@@PAX@2@@Z 10026d10 f i solid:C-api.obj
 0001:00025d50       ?_Key@?$_Tree@V?$_Tset_traits@VEncounter@@U?$less@VEncounter@@@std@@V?$allocator@VEncounter@@@3@$0A@@std@@@std@@IBEABVEncounter@@PAU?$_Tree_node@VEncounter@@PAX@2@@Z 10026d50 f i solid:C-api.obj
 0001:00025d90       ?_Kfn@?$_Tree@V?$_Tmap_traits@PAXPAVObject@@U?$less@PAX@std@@V?$allocator@U?$pair@QAXPAVObject@@@std@@@3@$0A@@std@@@std@@IBEABQAXABU?$pair@QAXPAVObject@@@2@@Z 10026d90 f i solid:C-api.obj
 0001:00025dc0       ?_Kfn@?$_Tree@V?$_Tmap_traits@PAXVResponse@@U?$less@PAX@std@@V?$allocator@U?$pair@QAXVResponse@@@std@@@3@$0A@@std@@@std@@IBEABQAXABU?$pair@QAXVResponse@@@2@@Z 10026dc0 f i solid:C-api.obj
 0001:00025df0       ?_Kfn@?$_Tree@V?$_Tmap_traits@U?$pair@PAXPAX@std@@VResponse@@U?$less@U?$pair@PAXPAX@std@@@2@V?$allocator@U?$pair@$$CBU?$pair@PAXPAX@std@@VResponse@@@std@@@2@$0A@@std@@@std@@IBEABU?$pair@PAXPAX@2@ABU?$pair@$$CBU?$pair@PAXPAX@std@@VResponse@@@2@@Z 10026df0 f i solid:C-api.obj
 0001:00025e20       ?_Kfn@?$_Tree@V?$_Tset_traits@VEncounter@@U?$less@VEncounter@@@std@@V?$allocator@VEncounter@@@3@$0A@@std@@@std@@IBEABVEncounter@@ABV3@@Z 10026e20 f i solid:C-api.obj
 0001:00025e50       ?_Kfn@?$_Tset_traits@VEncounter@@U?$less@VEncounter@@@std@@V?$allocator@VEncounter@@@3@$0A@@std@@SAABVEncounter@@ABV3@@Z 10026e50 f i solid:C-api.obj
 0001:00025e60       ?_Lbound@?$_Tree@V?$_Tmap_traits@PAXPAVObject@@U?$less@PAX@std@@V?$allocator@U?$pair@QAXPAVObject@@@std@@@3@$0A@@std@@@std@@IAEPAU?$_Tree_node@U?$pair@QAXPAVObject@@@std@@PAX@2@ABQAX@Z 10026e60 f i solid:C-api.obj
 0001:00025f20       ?_Lbound@?$_Tree@V?$_Tmap_traits@PAXVResponse@@U?$less@PAX@std@@V?$allocator@U?$pair@QAXVResponse@@@std@@@3@$0A@@std@@@std@@IAEPAU?$_Tree_node@U?$pair@QAXVResponse@@@std@@PAX@2@ABQAX@Z 10026f20 f i solid:C-api.obj
 0001:00025fe0       ?_Lbound@?$_Tree@V?$_Tmap_traits@U?$pair@PAXPAX@std@@VResponse@@U?$less@U?$pair@PAXPAX@std@@@2@V?$allocator@U?$pair@$$CBU?$pair@PAXPAX@std@@VResponse@@@std@@@2@$0A@@std@@@std@@IAEPAU?$_Tree_node@U?$pair@$$CBU?$pair@PAXPAX@std@@VResponse@@@std@@PAX@2@ABU?$pair@PAXPAX@2@@Z 10026fe0 f i solid:C-api.obj
 0001:000260a0       ?_Left@?$_Tree_val@U?$_Tree_simple_types@U?$pair@$$CBU?$pair@PAXPAX@std@@VResponse@@@std@@@std@@@std@@SAAAPAU?$_Tree_node@U?$pair@$$CBU?$pair@PAXPAX@std@@VResponse@@@std@@PAX@2@PAU32@@Z 100270a0 f i solid:C-api.obj
 0001:000260b0       ?_Left@?$_Tree_val@U?$_Tree_simple_types@U?$pair@QAXPAVObject@@@std@@@std@@@std@@SAAAPAU?$_Tree_node@U?$pair@QAXPAVObject@@@std@@PAX@2@PAU32@@Z 100270b0 f i solid:C-api.obj
 0001:000260c0       ?_Left@?$_Tree_val@U?$_Tree_simple_types@U?$pair@QAXVResponse@@@std@@@std@@@std@@SAAAPAU?$_Tree_node@U?$pair@QAXVResponse@@@std@@PAX@2@PAU32@@Z 100270c0 f i solid:C-api.obj
 0001:000260d0       ?_Left@?$_Tree_val@U?$_Tree_simple_types@VEncounter@@@std@@@std@@SAAAPAU?$_Tree_node@VEncounter@@PAX@2@PAU32@@Z 100270d0 f i solid:C-api.obj
 0001:000260e0       ?_Lmost@?$_Tree@V?$_Tmap_traits@PAXPAVObject@@U?$less@PAX@std@@V?$allocator@U?$pair@QAXPAVObject@@@std@@@3@$0A@@std@@@std@@IBEAAPAU?$_Tree_node@U?$pair@QAXPAVObject@@@std@@PAX@2@XZ 100270e0 f i solid:C-api.obj
 0001:00026110       ?_Lmost@?$_Tree@V?$_Tmap_traits@PAXVResponse@@U?$less@PAX@std@@V?$allocator@U?$pair@QAXVResponse@@@std@@@3@$0A@@std@@@std@@IBEAAPAU?$_Tree_node@U?$pair@QAXVResponse@@@std@@PAX@2@XZ 10027110 f i solid:C-api.obj
 0001:00026140       ?_Lmost@?$_Tree@V?$_Tmap_traits@U?$pair@PAXPAX@std@@VResponse@@U?$less@U?$pair@PAXPAX@std@@@2@V?$allocator@U?$pair@$$CBU?$pair@PAXPAX@std@@VResponse@@@std@@@2@$0A@@std@@@std@@IBEAAPAU?$_Tree_node@U?$pair@$$CBU?$pair@PAXPAX@std@@VResponse@@@std@@PAX@2@XZ 10027140 f i solid:C-api.obj
 0001:00026170       ?_Lmost@?$_Tree@V?$_Tset_traits@VEncounter@@U?$less@VEncounter@@@std@@V?$allocator@VEncounter@@@3@$0A@@std@@@std@@IBEAAPAU?$_Tree_node@VEncounter@@PAX@2@XZ 10027170 f i solid:C-api.obj
 0001:000261a0       ?_Lrotate@?$_Tree@V?$_Tmap_traits@PAXPAVObject@@U?$less@PAX@std@@V?$allocator@U?$pair@QAXPAVObject@@@std@@@3@$0A@@std@@@std@@IAEXPAU?$_Tree_node@U?$pair@QAXPAVObject@@@std@@PAX@2@@Z 100271a0 f i solid:C-api.obj
 0001:000262f0       ?_Lrotate@?$_Tree@V?$_Tmap_traits@PAXVResponse@@U?$less@PAX@std@@V?$allocator@U?$pair@QAXVResponse@@@std@@@3@$0A@@std@@@std@@IAEXPAU?$_Tree_node@U?$pair@QAXVResponse@@@std@@PAX@2@@Z 100272f0 f i solid:C-api.obj
 0001:00026440       ?_Lrotate@?$_Tree@V?$_Tmap_traits@U?$pair@PAXPAX@std@@VResponse@@U?$less@U?$pair@PAXPAX@std@@@2@V?$allocator@U?$pair@$$CBU?$pair@PAXPAX@std@@VResponse@@@std@@@2@$0A@@std@@@std@@IAEXPAU?$_Tree_node@U?$pair@$$CBU?$pair@PAXPAX@std@@VResponse@@@std@@PAX@2@@Z 10027440 f i solid:C-api.obj
 0001:00026590       ?_Lrotate@?$_Tree@V?$_Tset_traits@VEncounter@@U?$less@VEncounter@@@std@@V?$allocator@VEncounter@@@3@$0A@@std@@@std@@IAEXPAU?$_Tree_node@VEncounter@@PAX@2@@Z 10027590 f i solid:C-api.obj
 0001:000266e0       ?_Make_iter@?$vector@IV?$allocator@I@std@@@std@@QBE?AV?$_Vector_iterator@V?$_Vector_val@U?$_Simple_types@I@std@@@std@@@2@V?$_Vector_const_iterator@V?$_Vector_val@U?$_Simple_types@I@std@@@std@@@2@@Z 100276e0 f i solid:C-api.obj
 0001:00026770       ?_Make_iter@?$vector@PAVComplex@@V?$allocator@PAVComplex@@@std@@@std@@QBE?AV?$_Vector_iterator@V?$_Vector_val@U?$_Simple_types@PAVComplex@@@std@@@std@@@2@V?$_Vector_const_iterator@V?$_Vector_val@U?$_Simple_types@PAVComplex@@@std@@@std@@@2@@Z 10027770 f i solid:C-api.obj
 0001:00026800       ?_Make_iter@?$vector@PBVPolytope@@V?$allocator@PBVPolytope@@@std@@@std@@QBE?AV?$_Vector_iterator@V?$_Vector_val@U?$_Simple_types@PBVPolytope@@@std@@@std@@@2@V?$_Vector_const_iterator@V?$_Vector_val@U?$_Simple_types@PBVPolytope@@@std@@@std@@@2@@Z 10027800 f i solid:C-api.obj
 0001:00026890       ?_Make_iter@?$vector@VPoint@@V?$allocator@VPoint@@@std@@@std@@QBE?AV?$_Vector_iterator@V?$_Vector_val@U?$_Simple_types@VPoint@@@std@@@std@@@2@V?$_Vector_const_iterator@V?$_Vector_val@U?$_Simple_types@VPoint@@@std@@@std@@@2@@Z 10027890 f i solid:C-api.obj
 0001:00026920       ?_Max@?$_Tree_val@U?$_Tree_simple_types@U?$pair@$$CBU?$pair@PAXPAX@std@@VResponse@@@std@@@std@@@std@@SAPAU?$_Tree_node@U?$pair@$$CBU?$pair@PAXPAX@std@@VResponse@@@std@@PAX@2@PAU32@@Z 10027920 f i solid:C-api.obj
 0001:00026960       ?_Max@?$_Tree_val@U?$_Tree_simple_types@U?$pair@QAXPAVObject@@@std@@@std@@@std@@SAPAU?$_Tree_node@U?$pair@QAXPAVObject@@@std@@PAX@2@PAU32@@Z 10027960 f i solid:C-api.obj
 0001:000269a0       ?_Max@?$_Tree_val@U?$_Tree_simple_types@U?$pair@QAXVResponse@@@std@@@std@@@std@@SAPAU?$_Tree_node@U?$pair@QAXVResponse@@@std@@PAX@2@PAU32@@Z 100279a0 f i solid:C-api.obj
 0001:000269e0       ?_Max@?$_Tree_val@U?$_Tree_simple_types@VEncounter@@@std@@@std@@SAPAU?$_Tree_node@VEncounter@@PAX@2@PAU32@@Z 100279e0 f i solid:C-api.obj
 0001:00026a20       ?_Min@?$_Tree_val@U?$_Tree_simple_types@U?$pair@$$CBU?$pair@PAXPAX@std@@VResponse@@@std@@@std@@@std@@SAPAU?$_Tree_node@U?$pair@$$CBU?$pair@PAXPAX@std@@VResponse@@@std@@PAX@2@PAU32@@Z 10027a20 f i solid:C-api.obj
 0001:00026a60       ?_Min@?$_Tree_val@U?$_Tree_simple_types@U?$pair@QAXPAVObject@@@std@@@std@@@std@@SAPAU?$_Tree_node@U?$pair@QAXPAVObject@@@std@@PAX@2@PAU32@@Z 10027a60 f i solid:C-api.obj
 0001:00026aa0       ?_Min@?$_Tree_val@U?$_Tree_simple_types@U?$pair@QAXVResponse@@@std@@@std@@@std@@SAPAU?$_Tree_node@U?$pair@QAXVResponse@@@std@@PAX@2@PAU32@@Z 10027aa0 f i solid:C-api.obj
 0001:00026ae0       ?_Min@?$_Tree_val@U?$_Tree_simple_types@VEncounter@@@std@@@std@@SAPAU?$_Tree_node@VEncounter@@PAX@2@PAU32@@Z 10027ae0 f i solid:C-api.obj
 0001:00026b20       ?_Mynode@?$_Tree_unchecked_const_iterator@V?$_Tree_val@U?$_Tree_simple_types@U?$pair@$$CBU?$pair@PAXPAX@std@@VResponse@@@std@@@std@@@std@@U_Iterator_base12@2@@std@@QBEPAU?$_Tree_node@U?$pair@$$CBU?$pair@PAXPAX@std@@VResponse@@@std@@PAX@2@XZ 10027b20 f i solid:C-api.obj
 0001:00026b40       ?_Mynode@?$_Tree_unchecked_const_iterator@V?$_Tree_val@U?$_Tree_simple_types@U?$pair@QAXPAVObject@@@std@@@std@@@std@@U_Iterator_base12@2@@std@@QBEPAU?$_Tree_node@U?$pair@QAXPAVObject@@@std@@PAX@2@XZ 10027b40 f i solid:C-api.obj
 0001:00026b60       ?_Mynode@?$_Tree_unchecked_const_iterator@V?$_Tree_val@U?$_Tree_simple_types@U?$pair@QAXVResponse@@@std@@@std@@@std@@U_Iterator_base12@2@@std@@QBEPAU?$_Tree_node@U?$pair@QAXVResponse@@@std@@PAX@2@XZ 10027b60 f i solid:C-api.obj
 0001:00026b80       ?_Mynode@?$_Tree_unchecked_const_iterator@V?$_Tree_val@U?$_Tree_simple_types@VEncounter@@@std@@@std@@U_Iterator_base12@2@@std@@QBEPAU?$_Tree_node@VEncounter@@PAX@2@XZ 10027b80 f i solid:C-api.obj
 0001:00026ba0       ?_Myptr@?$_String_val@U?$_Simple_types@D@std@@@std@@QAEPADXZ 10027ba0 f i solid:C-api.obj
 0001:00026bf0       ?_Myptr@?$_String_val@U?$_Simple_types@D@std@@@std@@QBEPBDXZ 10027bf0 f i solid:C-api.obj
 0001:00026c40       ?_Myval@?$_Tree_val@U?$_Tree_simple_types@U?$pair@$$CBU?$pair@PAXPAX@std@@VResponse@@@std@@@std@@@std@@SAAAU?$pair@$$CBU?$pair@PAXPAX@std@@VResponse@@@2@PAU?$_Tree_node@U?$pair@$$CBU?$pair@PAXPAX@std@@VResponse@@@std@@PAX@2@@Z 10027c40 f i solid:C-api.obj
 0001:00026c50       ?_Myval@?$_Tree_val@U?$_Tree_simple_types@U?$pair@QAXPAVObject@@@std@@@std@@@std@@SAAAU?$pair@QAXPAVObject@@@2@PAU?$_Tree_node@U?$pair@QAXPAVObject@@@std@@PAX@2@@Z 10027c50 f i solid:C-api.obj
 0001:00026c60       ?_Myval@?$_Tree_val@U?$_Tree_simple_types@U?$pair@QAXVResponse@@@std@@@std@@@std@@SAAAU?$pair@QAXVResponse@@@2@PAU?$_Tree_node@U?$pair@QAXVResponse@@@std@@PAX@2@@Z 10027c60 f i solid:C-api.obj
 0001:00026c70       ?_Myval@?$_Tree_val@U?$_Tree_simple_types@VEncounter@@@std@@@std@@SAAAVEncounter@@PAU?$_Tree_node@VEncounter@@PAX@2@@Z 10027c70 f i solid:C-api.obj
 0001:00026c80       ?_Orphan_all@_Container_base12@std@@QAEXXZ 10027c80 f i solid:C-api.obj
 0001:00026d30       ?_Orphan_me@_Iterator_base12@std@@QAEXXZ 10027d30 f i solid:C-api.obj
 0001:00026dc0       ?_Orphan_ptr@?$_Tree@V?$_Tmap_traits@PAXPAVObject@@U?$less@PAX@std@@V?$allocator@U?$pair@QAXPAVObject@@@std@@@3@$0A@@std@@@std@@IBEXAAV12@PAU?$_Tree_node@U?$pair@QAXPAVObject@@@std@@PAX@2@@Z 10027dc0 f i solid:C-api.obj
 0001:00026ed0       ?_Orphan_ptr@?$_Tree@V?$_Tmap_traits@PAXVResponse@@U?$less@PAX@std@@V?$allocator@U?$pair@QAXVResponse@@@std@@@3@$0A@@std@@@std@@IBEXAAV12@PAU?$_Tree_node@U?$pair@QAXVResponse@@@std@@PAX@2@@Z 10027ed0 f i solid:C-api.obj
 0001:00026fe0       ?_Orphan_ptr@?$_Tree@V?$_Tmap_traits@U?$pair@PAXPAX@std@@VResponse@@U?$less@U?$pair@PAXPAX@std@@@2@V?$allocator@U?$pair@$$CBU?$pair@PAXPAX@std@@VResponse@@@std@@@2@$0A@@std@@@std@@IBEXAAV12@PAU?$_Tree_node@U?$pair@$$CBU?$pair@PAXPAX@std@@VResponse@@@std@@PAX@2@@Z 10027fe0 f i solid:C-api.obj
 0001:000270f0       ?_Orphan_ptr@?$_Tree@V?$_Tset_traits@VEncounter@@U?$less@VEncounter@@@std@@V?$allocator@VEncounter@@@3@$0A@@std@@@std@@IBEXAAV12@PAU?$_Tree_node@VEncounter@@PAX@2@@Z 100280f0 f i solid:C-api.obj
 0001:00027200       ?_Orphan_range@?$vector@IV?$allocator@I@std@@@std@@IBEXPAI0@Z 10028200 f i solid:C-api.obj
 0001:00027310       ?_Orphan_range@?$vector@PAVComplex@@V?$allocator@PAVComplex@@@std@@@std@@IBEXPAPAVComplex@@0@Z 10028310 f i solid:C-api.obj
 0001:00027420       ?_Orphan_range@?$vector@PBVPolytope@@V?$allocator@PBVPolytope@@@std@@@std@@IBEXPAPBVPolytope@@0@Z 10028420 f i solid:C-api.obj
 0001:00027530       ?_Orphan_range@?$vector@VPoint@@V?$allocator@VPoint@@@std@@@std@@IBEXPAVPoint@@0@Z 10028530 f i solid:C-api.obj
 0001:00027640       ?_Parent@?$_Tree_val@U?$_Tree_simple_types@U?$pair@$$CBU?$pair@PAXPAX@std@@VResponse@@@std@@@std@@@std@@SAAAPAU?$_Tree_node@U?$pair@$$CBU?$pair@PAXPAX@std@@VResponse@@@std@@PAX@2@PAU32@@Z 10028640 f i solid:C-api.obj
 0001:00027650       ?_Parent@?$_Tree_val@U?$_Tree_simple_types@U?$pair@QAXPAVObject@@@std@@@std@@@std@@SAAAPAU?$_Tree_node@U?$pair@QAXPAVObject@@@std@@PAX@2@PAU32@@Z 10028650 f i solid:C-api.obj
 0001:00027660       ?_Parent@?$_Tree_val@U?$_Tree_simple_types@U?$pair@QAXVResponse@@@std@@@std@@@std@@SAAAPAU?$_Tree_node@U?$pair@QAXVResponse@@@std@@PAX@2@PAU32@@Z 10028660 f i solid:C-api.obj
 0001:00027670       ?_Parent@?$_Tree_val@U?$_Tree_simple_types@VEncounter@@@std@@@std@@SAAAPAU?$_Tree_node@VEncounter@@PAX@2@PAU32@@Z 10028670 f i solid:C-api.obj
 0001:00027680       ?_Reallocate@?$vector@IV?$allocator@I@std@@@std@@IAEXI@Z 10028680 f i solid:C-api.obj
 0001:000277e0       ?_Reallocate@?$vector@PAVComplex@@V?$allocator@PAVComplex@@@std@@@std@@IAEXI@Z 100287e0 f i solid:C-api.obj
 0001:00027940       ?_Reallocate@?$vector@PBVPolytope@@V?$allocator@PBVPolytope@@@std@@@std@@IAEXI@Z 10028940 f i solid:C-api.obj
 0001:00027aa0       ?_Reallocate@?$vector@VPoint@@V?$allocator@VPoint@@@std@@@std@@IAEXI@Z 10028aa0 f i solid:C-api.obj
 0001:00027c00       ?_Rechecked@?$_Vector_iterator@V?$_Vector_val@U?$_Simple_types@PAVComplex@@@std@@@std@@@std@@QAEAAV12@PAPAVComplex@@@Z 10028c00 f i solid:C-api.obj
 0001:00027c20       ?_Reserve@?$vector@IV?$allocator@I@std@@@std@@IAEXI@Z 10028c20 f i solid:C-api.obj
 0001:00027c90       ?_Reserve@?$vector@PAVComplex@@V?$allocator@PAVComplex@@@std@@@std@@IAEXI@Z 10028c90 f i solid:C-api.obj
 0001:00027d00       ?_Reserve@?$vector@PBVPolytope@@V?$allocator@PBVPolytope@@@std@@@std@@IAEXI@Z 10028d00 f i solid:C-api.obj
 0001:00027d70       ?_Reserve@?$vector@VPoint@@V?$allocator@VPoint@@@std@@@std@@IAEXI@Z 10028d70 f i solid:C-api.obj
 0001:00027de0       ?_Right@?$_Tree_val@U?$_Tree_simple_types@U?$pair@$$CBU?$pair@PAXPAX@std@@VResponse@@@std@@@std@@@std@@SAAAPAU?$_Tree_node@U?$pair@$$CBU?$pair@PAXPAX@std@@VResponse@@@std@@PAX@2@PAU32@@Z 10028de0 f i solid:C-api.obj
 0001:00027df0       ?_Right@?$_Tree_val@U?$_Tree_simple_types@U?$pair@QAXPAVObject@@@std@@@std@@@std@@SAAAPAU?$_Tree_node@U?$pair@QAXPAVObject@@@std@@PAX@2@PAU32@@Z 10028df0 f i solid:C-api.obj
 0001:00027e00       ?_Right@?$_Tree_val@U?$_Tree_simple_types@U?$pair@QAXVResponse@@@std@@@std@@@std@@SAAAPAU?$_Tree_node@U?$pair@QAXVResponse@@@std@@PAX@2@PAU32@@Z 10028e00 f i solid:C-api.obj
 0001:00027e10       ?_Right@?$_Tree_val@U?$_Tree_simple_types@VEncounter@@@std@@@std@@SAAAPAU?$_Tree_node@VEncounter@@PAX@2@PAU32@@Z 10028e10 f i solid:C-api.obj
 0001:00027e20       ?_Rmost@?$_Tree@V?$_Tmap_traits@PAXPAVObject@@U?$less@PAX@std@@V?$allocator@U?$pair@QAXPAVObject@@@std@@@3@$0A@@std@@@std@@IBEAAPAU?$_Tree_node@U?$pair@QAXPAVObject@@@std@@PAX@2@XZ 10028e20 f i solid:C-api.obj
 0001:00027e50       ?_Rmost@?$_Tree@V?$_Tmap_traits@PAXVResponse@@U?$less@PAX@std@@V?$allocator@U?$pair@QAXVResponse@@@std@@@3@$0A@@std@@@std@@IBEAAPAU?$_Tree_node@U?$pair@QAXVResponse@@@std@@PAX@2@XZ 10028e50 f i solid:C-api.obj
 0001:00027e80       ?_Rmost@?$_Tree@V?$_Tmap_traits@U?$pair@PAXPAX@std@@VResponse@@U?$less@U?$pair@PAXPAX@std@@@2@V?$allocator@U?$pair@$$CBU?$pair@PAXPAX@std@@VResponse@@@std@@@2@$0A@@std@@@std@@IBEAAPAU?$_Tree_node@U?$pair@$$CBU?$pair@PAXPAX@std@@VResponse@@@std@@PAX@2@XZ 10028e80 f i solid:C-api.obj
 0001:00027eb0       ?_Rmost@?$_Tree@V?$_Tset_traits@VEncounter@@U?$less@VEncounter@@@std@@V?$allocator@VEncounter@@@3@$0A@@std@@@std@@IBEAAPAU?$_Tree_node@VEncounter@@PAX@2@XZ 10028eb0 f i solid:C-api.obj
 0001:00027ee0       ?_Root@?$_Tree@V?$_Tmap_traits@PAXPAVObject@@U?$less@PAX@std@@V?$allocator@U?$pair@QAXPAVObject@@@std@@@3@$0A@@std@@@std@@IBEAAPAU?$_Tree_node@U?$pair@QAXPAVObject@@@std@@PAX@2@XZ 10028ee0 f i solid:C-api.obj
 0001:00027f10       ?_Root@?$_Tree@V?$_Tmap_traits@PAXVResponse@@U?$less@PAX@std@@V?$allocator@U?$pair@QAXVResponse@@@std@@@3@$0A@@std@@@std@@IBEAAPAU?$_Tree_node@U?$pair@QAXVResponse@@@std@@PAX@2@XZ 10028f10 f i solid:C-api.obj
 0001:00027f40       ?_Root@?$_Tree@V?$_Tmap_traits@U?$pair@PAXPAX@std@@VResponse@@U?$less@U?$pair@PAXPAX@std@@@2@V?$allocator@U?$pair@$$CBU?$pair@PAXPAX@std@@VResponse@@@std@@@2@$0A@@std@@@std@@IBEAAPAU?$_Tree_node@U?$pair@$$CBU?$pair@PAXPAX@std@@VResponse@@@std@@PAX@2@XZ 10028f40 f i solid:C-api.obj
 0001:00027f70       ?_Root@?$_Tree@V?$_Tset_traits@VEncounter@@U?$less@VEncounter@@@std@@V?$allocator@VEncounter@@@3@$0A@@std@@@std@@IBEAAPAU?$_Tree_node@VEncounter@@PAX@2@XZ 10028f70 f i solid:C-api.obj
 0001:00027fa0       ?_Rrotate@?$_Tree@V?$_Tmap_traits@PAXPAVObject@@U?$less@PAX@std@@V?$allocator@U?$pair@QAXPAVObject@@@std@@@3@$0A@@std@@@std@@IAEXPAU?$_Tree_node@U?$pair@QAXPAVObject@@@std@@PAX@2@@Z 10028fa0 f i solid:C-api.obj
 0001:000280f0       ?_Rrotate@?$_Tree@V?$_Tmap_traits@PAXVResponse@@U?$less@PAX@std@@V?$allocator@U?$pair@QAXVResponse@@@std@@@3@$0A@@std@@@std@@IAEXPAU?$_Tree_node@U?$pair@QAXVResponse@@@std@@PAX@2@@Z 100290f0 f i solid:C-api.obj
 0001:00028240       ?_Rrotate@?$_Tree@V?$_Tmap_traits@U?$pair@PAXPAX@std@@VResponse@@U?$less@U?$pair@PAXPAX@std@@@2@V?$allocator@U?$pair@$$CBU?$pair@PAXPAX@std@@VResponse@@@std@@@2@$0A@@std@@@std@@IAEXPAU?$_Tree_node@U?$pair@$$CBU?$pair@PAXPAX@std@@VResponse@@@std@@PAX@2@@Z 10029240 f i solid:C-api.obj
 0001:00028390       ?_Rrotate@?$_Tree@V?$_Tset_traits@VEncounter@@U?$less@VEncounter@@@std@@V?$allocator@VEncounter@@@3@$0A@@std@@@std@@IAEXPAU?$_Tree_node@VEncounter@@PAX@2@@Z 10029390 f i solid:C-api.obj
 0001:000284e0       ?_Tidy@?$_Tree@V?$_Tmap_traits@PAXPAVObject@@U?$less@PAX@std@@V?$allocator@U?$pair@QAXPAVObject@@@std@@@3@$0A@@std@@@std@@IAEXXZ 100294e0 f i solid:C-api.obj
 0001:000285e0       ?_Tidy@?$_Tree@V?$_Tmap_traits@PAXVResponse@@U?$less@PAX@std@@V?$allocator@U?$pair@QAXVResponse@@@std@@@3@$0A@@std@@@std@@IAEXXZ 100295e0 f i solid:C-api.obj
 0001:000286e0       ?_Tidy@?$_Tree@V?$_Tmap_traits@U?$pair@PAXPAX@std@@VResponse@@U?$less@U?$pair@PAXPAX@std@@@2@V?$allocator@U?$pair@$$CBU?$pair@PAXPAX@std@@VResponse@@@std@@@2@$0A@@std@@@std@@IAEXXZ 100296e0 f i solid:C-api.obj
 0001:000287e0       ?_Tidy@?$_Tree@V?$_Tset_traits@VEncounter@@U?$less@VEncounter@@@std@@V?$allocator@VEncounter@@@3@$0A@@std@@@std@@IAEXXZ 100297e0 f i solid:C-api.obj
 0001:00028860       ?_Tidy@?$basic_string@DU?$char_traits@D@std@@V?$allocator@D@2@@std@@QAEX_NI@Z 10029860 f i solid:C-api.obj
 0001:00028930       ?_Tidy@?$vector@IV?$allocator@I@std@@@std@@IAEXXZ 10029930 f i solid:C-api.obj
 0001:000289d0       ?_Tidy@?$vector@PAVComplex@@V?$allocator@PAVComplex@@@std@@@std@@IAEXXZ 100299d0 f i solid:C-api.obj
 0001:00028a70       ?_Tidy@?$vector@PBVPolytope@@V?$allocator@PBVPolytope@@@std@@@std@@IAEXXZ 10029a70 f i solid:C-api.obj
 0001:00028b10       ?_Tidy@?$vector@VPoint@@V?$allocator@VPoint@@@std@@@std@@IAEXXZ 10029b10 f i solid:C-api.obj
 0001:00028bb0       ?_Unchecked@?$_Vector_iterator@V?$_Vector_val@U?$_Simple_types@PAVComplex@@@std@@@std@@@std@@QBEPAPAVComplex@@XZ 10029bb0 f i solid:C-api.obj
 0001:00028bd0       ?_Unchecked@?$_Vector_iterator@V?$_Vector_val@U?$_Simple_types@VPoint@@@std@@@std@@@std@@QBEPAVPoint@@XZ 10029bd0 f i solid:C-api.obj
 0001:00028bf0       ?_Unused_capacity@?$vector@IV?$allocator@I@std@@@std@@QBEIXZ 10029bf0 f i solid:C-api.obj
 0001:00028c20       ?_Unused_capacity@?$vector@PAVComplex@@V?$allocator@PAVComplex@@@std@@@std@@QBEIXZ 10029c20 f i solid:C-api.obj
 0001:00028c50       ?_Unused_capacity@?$vector@PBVPolytope@@V?$allocator@PBVPolytope@@@std@@@std@@QBEIXZ 10029c50 f i solid:C-api.obj
 0001:00028c80       ?_Unused_capacity@?$vector@VPoint@@V?$allocator@VPoint@@@std@@@std@@QBEIXZ 10029c80 f i solid:C-api.obj
 0001:00028cb0       ?_Xlen@?$basic_string@DU?$char_traits@D@std@@V?$allocator@D@2@@std@@QBEXXZ 10029cb0 f i solid:C-api.obj
 0001:00028ce0       ?_Xlen@?$vector@IV?$allocator@I@std@@@std@@IBEXXZ 10029ce0 f i solid:C-api.obj
 0001:00028d10       ?_Xlen@?$vector@PAVComplex@@V?$allocator@PAVComplex@@@std@@@std@@IBEXXZ 10029d10 f i solid:C-api.obj
 0001:00028d40       ?_Xlen@?$vector@PBVPolytope@@V?$allocator@PBVPolytope@@@std@@@std@@IBEXXZ 10029d40 f i solid:C-api.obj
 0001:00028d70       ?_Xlen@?$vector@VPoint@@V?$allocator@VPoint@@@std@@@std@@IBEXXZ 10029d70 f i solid:C-api.obj
 0001:00028da0       ?_Xran@?$basic_string@DU?$char_traits@D@std@@V?$allocator@D@2@@std@@QBEXXZ 10029da0 f i solid:C-api.obj
 0001:00028dd0       ?allocate@?$_Wrap_alloc@V?$allocator@D@std@@@std@@QAEPADI@Z 10029dd0 f i solid:C-api.obj
 0001:00028e00       ?allocate@?$_Wrap_alloc@V?$allocator@I@std@@@std@@QAEPAII@Z 10029e00 f i solid:C-api.obj
 0001:00028e30       ?allocate@?$_Wrap_alloc@V?$allocator@PAVComplex@@@std@@@std@@QAEPAPAVComplex@@I@Z 10029e30 f i solid:C-api.obj
 0001:00028e60       ?allocate@?$_Wrap_alloc@V?$allocator@PBVPolytope@@@std@@@std@@QAEPAPBVPolytope@@I@Z 10029e60 f i solid:C-api.obj
 0001:00028e90       ?allocate@?$_Wrap_alloc@V?$allocator@U?$_Tree_node@U?$pair@$$CBU?$pair@PAXPAX@std@@VResponse@@@std@@PAX@std@@@std@@@std@@QAEPAU?$_Tree_node@U?$pair@$$CBU?$pair@PAXPAX@std@@VResponse@@@std@@PAX@2@I@Z 10029e90 f i solid:C-api.obj
 0001:00028ec0       ?allocate@?$_Wrap_alloc@V?$allocator@U?$_Tree_node@U?$pair@QAXPAVObject@@@std@@PAX@std@@@std@@@std@@QAEPAU?$_Tree_node@U?$pair@QAXPAVObject@@@std@@PAX@2@I@Z 10029ec0 f i solid:C-api.obj
 0001:00028ef0       ?allocate@?$_Wrap_alloc@V?$allocator@U?$_Tree_node@U?$pair@QAXVResponse@@@std@@PAX@std@@@std@@@std@@QAEPAU?$_Tree_node@U?$pair@QAXVResponse@@@std@@PAX@2@I@Z 10029ef0 f i solid:C-api.obj
 0001:00028f20       ?allocate@?$_Wrap_alloc@V?$allocator@U?$_Tree_node@VEncounter@@PAX@std@@@std@@@std@@QAEPAU?$_Tree_node@VEncounter@@PAX@2@I@Z 10029f20 f i solid:C-api.obj
 0001:00028f50       ?allocate@?$_Wrap_alloc@V?$allocator@U_Container_proxy@std@@@std@@@std@@QAEPAU_Container_proxy@2@I@Z 10029f50 f i solid:C-api.obj
 0001:00028f80       ?allocate@?$_Wrap_alloc@V?$allocator@VPoint@@@std@@@std@@QAEPAVPoint@@I@Z 10029f80 f i solid:C-api.obj
 0001:00028fb0       ?allocate@?$allocator@D@std@@QAEPADI@Z 10029fb0 f i solid:C-api.obj
 0001:00028fe0       ?allocate@?$allocator@I@std@@QAEPAII@Z 10029fe0 f i solid:C-api.obj
 0001:00029010       ?allocate@?$allocator@PAVComplex@@@std@@QAEPAPAVComplex@@I@Z 1002a010 f i solid:C-api.obj
 0001:00029040       ?allocate@?$allocator@PBVPolytope@@@std@@QAEPAPBVPolytope@@I@Z 1002a040 f i solid:C-api.obj
 0001:00029070       ?allocate@?$allocator@U?$_Tree_node@U?$pair@$$CBU?$pair@PAXPAX@std@@VResponse@@@std@@PAX@std@@@std@@QAEPAU?$_Tree_node@U?$pair@$$CBU?$pair@PAXPAX@std@@VResponse@@@std@@PAX@2@I@Z 1002a070 f i solid:C-api.obj
 0001:000290a0       ?allocate@?$allocator@U?$_Tree_node@U?$pair@QAXPAVObject@@@std@@PAX@std@@@std@@QAEPAU?$_Tree_node@U?$pair@QAXPAVObject@@@std@@PAX@2@I@Z 1002a0a0 f i solid:C-api.obj
 0001:000290d0       ?allocate@?$allocator@U?$_Tree_node@U?$pair@QAXVResponse@@@std@@PAX@std@@@std@@QAEPAU?$_Tree_node@U?$pair@QAXVResponse@@@std@@PAX@2@I@Z 1002a0d0 f i solid:C-api.obj
 0001:00029100       ?allocate@?$allocator@U?$_Tree_node@VEncounter@@PAX@std@@@std@@QAEPAU?$_Tree_node@VEncounter@@PAX@2@I@Z 1002a100 f i solid:C-api.obj
 0001:00029130       ?allocate@?$allocator@U_Container_proxy@std@@@std@@QAEPAU_Container_proxy@2@I@Z 1002a130 f i solid:C-api.obj
 0001:00029160       ?allocate@?$allocator@VPoint@@@std@@QAEPAVPoint@@I@Z 1002a160 f i solid:C-api.obj
 0001:00029190       ?assign@?$basic_string@DU?$char_traits@D@std@@V?$allocator@D@2@@std@@QAEAAV12@ABV12@II@Z 1002a190 f i solid:C-api.obj
 0001:00029260       ?assign@?$basic_string@DU?$char_traits@D@std@@V?$allocator@D@2@@std@@QAEAAV12@PBD@Z 1002a260 f i solid:C-api.obj
 0001:000292b0       ?assign@?$basic_string@DU?$char_traits@D@std@@V?$allocator@D@2@@std@@QAEAAV12@PBDI@Z 1002a2b0 f i solid:C-api.obj
 0001:00029360       ?assign@?$char_traits@D@std@@SAXAADABD@Z 1002a360 f i solid:C-api.obj
 0001:00029370       ?begin@?$_Tree@V?$_Tmap_traits@PAXPAVObject@@U?$less@PAX@std@@V?$allocator@U?$pair@QAXPAVObject@@@std@@@3@$0A@@std@@@std@@QAE?AV?$_Tree_iterator@V?$_Tree_val@U?$_Tree_simple_types@U?$pair@QAXPAVObject@@@std@@@std@@@std@@@2@XZ 1002a370 f i solid:C-api.obj
 0001:000293b0       ?begin@?$_Tree@V?$_Tmap_traits@PAXVResponse@@U?$less@PAX@std@@V?$allocator@U?$pair@QAXVResponse@@@std@@@3@$0A@@std@@@std@@QAE?AV?$_Tree_iterator@V?$_Tree_val@U?$_Tree_simple_types@U?$pair@QAXVResponse@@@std@@@std@@@std@@@2@XZ 1002a3b0 f i solid:C-api.obj
 0001:000293f0       ?begin@?$_Tree@V?$_Tmap_traits@U?$pair@PAXPAX@std@@VResponse@@U?$less@U?$pair@PAXPAX@std@@@2@V?$allocator@U?$pair@$$CBU?$pair@PAXPAX@std@@VResponse@@@std@@@2@$0A@@std@@@std@@QAE?AV?$_Tree_iterator@V?$_Tree_val@U?$_Tree_simple_types@U?$pair@$$CBU?$pair@PAXPAX@std@@VResponse@@@std@@@std@@@std@@@2@XZ 1002a3f0 f i solid:C-api.obj
 0001:00029430       ?begin@?$_Tree@V?$_Tset_traits@VEncounter@@U?$less@VEncounter@@@std@@V?$allocator@VEncounter@@@3@$0A@@std@@@std@@QAE?AV?$_Tree_const_iterator@V?$_Tree_val@U?$_Tree_simple_types@VEncounter@@@std@@@std@@@2@XZ 1002a430 f i solid:C-api.obj
 0001:00029470       ?begin@?$vector@IV?$allocator@I@std@@@std@@QAE?AV?$_Vector_iterator@V?$_Vector_val@U?$_Simple_types@I@std@@@std@@@2@XZ 1002a470 f i solid:C-api.obj
 0001:000294b0       ?begin@?$vector@PAVComplex@@V?$allocator@PAVComplex@@@std@@@std@@QAE?AV?$_Vector_iterator@V?$_Vector_val@U?$_Simple_types@PAVComplex@@@std@@@std@@@2@XZ 1002a4b0 f i solid:C-api.obj
 0001:000294f0       ?begin@?$vector@PBVPolytope@@V?$allocator@PBVPolytope@@@std@@@std@@QAE?AV?$_Vector_iterator@V?$_Vector_val@U?$_Simple_types@PBVPolytope@@@std@@@std@@@2@XZ 1002a4f0 f i solid:C-api.obj
 0001:00029530       ?begin@?$vector@VPoint@@V?$allocator@VPoint@@@std@@@std@@QAE?AV?$_Vector_iterator@V?$_Vector_val@U?$_Simple_types@VPoint@@@std@@@std@@@2@XZ 1002a530 f i solid:C-api.obj
 0001:00029570       ?capacity@?$vector@IV?$allocator@I@std@@@std@@QBEIXZ 1002a570 f i solid:C-api.obj
 0001:000295a0       ?capacity@?$vector@PAVComplex@@V?$allocator@PAVComplex@@@std@@@std@@QBEIXZ 1002a5a0 f i solid:C-api.obj
 0001:000295d0       ?capacity@?$vector@PBVPolytope@@V?$allocator@PBVPolytope@@@std@@@std@@QBEIXZ 1002a5d0 f i solid:C-api.obj
 0001:00029600       ?capacity@?$vector@VPoint@@V?$allocator@VPoint@@@std@@@std@@QBEIXZ 1002a600 f i solid:C-api.obj
 0001:00029630       ?category@error_code@std@@QBEABVerror_category@2@XZ 1002a630 f i solid:C-api.obj
 0001:00029650       ?category@error_condition@std@@QBEABVerror_category@2@XZ 1002a650 f i solid:C-api.obj
 0001:00029670       ?clear@?$_Tree@V?$_Tmap_traits@PAXPAVObject@@U?$less@PAX@std@@V?$allocator@U?$pair@QAXPAVObject@@@std@@@3@$0A@@std@@@std@@QAEXXZ 1002a670 f i solid:C-api.obj
 0001:000296f0       ?clear@?$_Tree@V?$_Tmap_traits@PAXVResponse@@U?$less@PAX@std@@V?$allocator@U?$pair@QAXVResponse@@@std@@@3@$0A@@std@@@std@@QAEXXZ 1002a6f0 f i solid:C-api.obj
 0001:00029770       ?clear@?$_Tree@V?$_Tmap_traits@U?$pair@PAXPAX@std@@VResponse@@U?$less@U?$pair@PAXPAX@std@@@2@V?$allocator@U?$pair@$$CBU?$pair@PAXPAX@std@@VResponse@@@std@@@2@$0A@@std@@@std@@QAEXXZ 1002a770 f i solid:C-api.obj
 0001:000297f0       ?clear@?$_Tree@V?$_Tset_traits@VEncounter@@U?$less@VEncounter@@@std@@V?$allocator@VEncounter@@@3@$0A@@std@@@std@@QAEXXZ 1002a7f0 f i solid:C-api.obj
 0001:00029870       ?clear@?$vector@IV?$allocator@I@std@@@std@@QAEXXZ 1002a870 f i solid:C-api.obj
 0001:000298c0       ?clear@?$vector@PBVPolytope@@V?$allocator@PBVPolytope@@@std@@@std@@QAEXXZ 1002a8c0 f i solid:C-api.obj
 0001:00029910       ?clear@?$vector@VPoint@@V?$allocator@VPoint@@@std@@@std@@QAEXXZ 1002a910 f i solid:C-api.obj
 0001:00029960       ?construct@?$allocator@I@std@@QAEXPAIABI@Z 1002a960 f i solid:C-api.obj
 0001:000299c0       ?construct@?$allocator@PAVComplex@@@std@@QAEXPAPAVComplex@@ABQAV3@@Z 1002a9c0 f i solid:C-api.obj
 0001:00029a20       ?construct@?$allocator@PBVPolytope@@@std@@QAEXPAPBVPolytope@@ABQBV3@@Z 1002aa20 f i solid:C-api.obj
 0001:00029a80       ?construct@?$allocator@VPoint@@@std@@QAEXPAVPoint@@ABV3@@Z 1002aa80 f i solid:C-api.obj
 0001:00029b00       ?copy@?$char_traits@D@std@@SAPADPADPBDI@Z 1002ab00 f i solid:C-api.obj
 0001:00029b50       ?deallocate@?$_Wrap_alloc@V?$allocator@D@std@@@std@@QAEXPADI@Z 1002ab50 f i solid:C-api.obj
 0001:00029b80       ?deallocate@?$_Wrap_alloc@V?$allocator@I@std@@@std@@QAEXPAII@Z 1002ab80 f i solid:C-api.obj
 0001:00029bb0       ?deallocate@?$_Wrap_alloc@V?$allocator@PAVComplex@@@std@@@std@@QAEXPAPAVComplex@@I@Z 1002abb0 f i solid:C-api.obj
 0001:00029be0       ?deallocate@?$_Wrap_alloc@V?$allocator@PBVPolytope@@@std@@@std@@QAEXPAPBVPolytope@@I@Z 1002abe0 f i solid:C-api.obj
 0001:00029c10       ?deallocate@?$_Wrap_alloc@V?$allocator@U?$_Tree_node@U?$pair@$$CBU?$pair@PAXPAX@std@@VResponse@@@std@@PAX@std@@@std@@@std@@QAEXPAU?$_Tree_node@U?$pair@$$CBU?$pair@PAXPAX@std@@VResponse@@@std@@PAX@2@I@Z 1002ac10 f i solid:C-api.obj
 0001:00029c40       ?deallocate@?$_Wrap_alloc@V?$allocator@U?$_Tree_node@U?$pair@QAXPAVObject@@@std@@PAX@std@@@std@@@std@@QAEXPAU?$_Tree_node@U?$pair@QAXPAVObject@@@std@@PAX@2@I@Z 1002ac40 f i solid:C-api.obj
 0001:00029c70       ?deallocate@?$_Wrap_alloc@V?$allocator@U?$_Tree_node@U?$pair@QAXVResponse@@@std@@PAX@std@@@std@@@std@@QAEXPAU?$_Tree_node@U?$pair@QAXVResponse@@@std@@PAX@2@I@Z 1002ac70 f i solid:C-api.obj
 0001:00029ca0       ?deallocate@?$_Wrap_alloc@V?$allocator@U?$_Tree_node@VEncounter@@PAX@std@@@std@@@std@@QAEXPAU?$_Tree_node@VEncounter@@PAX@2@I@Z 1002aca0 f i solid:C-api.obj
 0001:00029cd0       ?deallocate@?$_Wrap_alloc@V?$allocator@U_Container_proxy@std@@@std@@@std@@QAEXPAU_Container_proxy@2@I@Z 1002acd0 f i solid:C-api.obj
 0001:00029d00       ?deallocate@?$_Wrap_alloc@V?$allocator@VPoint@@@std@@@std@@QAEXPAVPoint@@I@Z 1002ad00 f i solid:C-api.obj
 0001:00029d30       ?deallocate@?$allocator@D@std@@QAEXPADI@Z 1002ad30 f i solid:C-api.obj
 0001:00029d60       ?deallocate@?$allocator@I@std@@QAEXPAII@Z 1002ad60 f i solid:C-api.obj
 0001:00029d90       ?deallocate@?$allocator@PAVComplex@@@std@@QAEXPAPAVComplex@@I@Z 1002ad90 f i solid:C-api.obj
 0001:00029dc0       ?deallocate@?$allocator@PBVPolytope@@@std@@QAEXPAPBVPolytope@@I@Z 1002adc0 f i solid:C-api.obj
 0001:00029df0       ?deallocate@?$allocator@U?$_Tree_node@U?$pair@$$CBU?$pair@PAXPAX@std@@VResponse@@@std@@PAX@std@@@std@@QAEXPAU?$_Tree_node@U?$pair@$$CBU?$pair@PAXPAX@std@@VResponse@@@std@@PAX@2@I@Z 1002adf0 f i solid:C-api.obj
 0001:00029e20       ?deallocate@?$allocator@U?$_Tree_node@U?$pair@QAXPAVObject@@@std@@PAX@std@@@std@@QAEXPAU?$_Tree_node@U?$pair@QAXPAVObject@@@std@@PAX@2@I@Z 1002ae20 f i solid:C-api.obj
 0001:00029e50       ?deallocate@?$allocator@U?$_Tree_node@U?$pair@QAXVResponse@@@std@@PAX@std@@@std@@QAEXPAU?$_Tree_node@U?$pair@QAXVResponse@@@std@@PAX@2@I@Z 1002ae50 f i solid:C-api.obj
 0001:00029e80       ?deallocate@?$allocator@U?$_Tree_node@VEncounter@@PAX@std@@@std@@QAEXPAU?$_Tree_node@VEncounter@@PAX@2@I@Z 1002ae80 f i solid:C-api.obj
 0001:00029eb0       ?deallocate@?$allocator@U_Container_proxy@std@@@std@@QAEXPAU_Container_proxy@2@I@Z 1002aeb0 f i solid:C-api.obj
 0001:00029ee0       ?deallocate@?$allocator@VPoint@@@std@@QAEXPAVPoint@@I@Z 1002aee0 f i solid:C-api.obj
 0001:00029f10       ?default_error_condition@_System_error_category@std@@UBE?AVerror_condition@2@H@Z 1002af10 f i solid:C-api.obj
 0001:00029f70       ?default_error_condition@error_category@std@@UBE?AVerror_condition@2@H@Z 1002af70 f i solid:C-api.obj
 0001:00029fb0       ?dot@@YANABVVector@@0@Z    1002afb0 f i solid:C-api.obj
 0001:0002a060       ?end@?$_Tree@V?$_Tmap_traits@PAXPAVObject@@U?$less@PAX@std@@V?$allocator@U?$pair@QAXPAVObject@@@std@@@3@$0A@@std@@@std@@QAE?AV?$_Tree_iterator@V?$_Tree_val@U?$_Tree_simple_types@U?$pair@QAXPAVObject@@@std@@@std@@@std@@@2@XZ 1002b060 f i solid:C-api.obj
 0001:0002a0a0       ?end@?$_Tree@V?$_Tmap_traits@PAXVResponse@@U?$less@PAX@std@@V?$allocator@U?$pair@QAXVResponse@@@std@@@3@$0A@@std@@@std@@QAE?AV?$_Tree_iterator@V?$_Tree_val@U?$_Tree_simple_types@U?$pair@QAXVResponse@@@std@@@std@@@std@@@2@XZ 1002b0a0 f i solid:C-api.obj
 0001:0002a0e0       ?end@?$_Tree@V?$_Tmap_traits@U?$pair@PAXPAX@std@@VResponse@@U?$less@U?$pair@PAXPAX@std@@@2@V?$allocator@U?$pair@$$CBU?$pair@PAXPAX@std@@VResponse@@@std@@@2@$0A@@std@@@std@@QAE?AV?$_Tree_iterator@V?$_Tree_val@U?$_Tree_simple_types@U?$pair@$$CBU?$pair@PAXPAX@std@@VResponse@@@std@@@std@@@std@@@2@XZ 1002b0e0 f i solid:C-api.obj
 0001:0002a120       ?end@?$_Tree@V?$_Tset_traits@VEncounter@@U?$less@VEncounter@@@std@@V?$allocator@VEncounter@@@3@$0A@@std@@@std@@QAE?AV?$_Tree_const_iterator@V?$_Tree_val@U?$_Tree_simple_types@VEncounter@@@std@@@std@@@2@XZ 1002b120 f i solid:C-api.obj
 0001:0002a160       ?end@?$vector@IV?$allocator@I@std@@@std@@QAE?AV?$_Vector_iterator@V?$_Vector_val@U?$_Simple_types@I@std@@@std@@@2@XZ 1002b160 f i solid:C-api.obj
 0001:0002a1a0       ?end@?$vector@PAVComplex@@V?$allocator@PAVComplex@@@std@@@std@@QAE?AV?$_Vector_iterator@V?$_Vector_val@U?$_Simple_types@PAVComplex@@@std@@@std@@@2@XZ 1002b1a0 f i solid:C-api.obj
 0001:0002a1e0       ?end@?$vector@PBVPolytope@@V?$allocator@PBVPolytope@@@std@@@std@@QAE?AV?$_Vector_iterator@V?$_Vector_val@U?$_Simple_types@PBVPolytope@@@std@@@std@@@2@XZ 1002b1e0 f i solid:C-api.obj
 0001:0002a220       ?end@?$vector@VPoint@@V?$allocator@VPoint@@@std@@@std@@QAE?AV?$_Vector_iterator@V?$_Vector_val@U?$_Simple_types@VPoint@@@std@@@std@@@2@XZ 1002b220 f i solid:C-api.obj
 0001:0002a260       ?equal_range@?$_Tree@V?$_Tmap_traits@PAXVResponse@@U?$less@PAX@std@@V?$allocator@U?$pair@QAXVResponse@@@std@@@3@$0A@@std@@@std@@QAE?AU?$pair@V?$_Tree_iterator@V?$_Tree_val@U?$_Tree_simple_types@U?$pair@QAXVResponse@@@std@@@std@@@std@@@std@@V12@@2@ABQAX@Z 1002b260 f i solid:C-api.obj
 0001:0002a310       ?equal_range@?$_Tree@V?$_Tmap_traits@U?$pair@PAXPAX@std@@VResponse@@U?$less@U?$pair@PAXPAX@std@@@2@V?$allocator@U?$pair@$$CBU?$pair@PAXPAX@std@@VResponse@@@std@@@2@$0A@@std@@@std@@QAE?AU?$pair@V?$_Tree_iterator@V?$_Tree_val@U?$_Tree_simple_types@U?$pair@$$CBU?$pair@PAXPAX@std@@VResponse@@@std@@@std@@@std@@@std@@V12@@2@ABU?$pair@PAXPAX@2@@Z 1002b310 f i solid:C-api.obj
 0001:0002a3c0       ?equal_range@?$_Tree@V?$_Tset_traits@VEncounter@@U?$less@VEncounter@@@std@@V?$allocator@VEncounter@@@3@$0A@@std@@@std@@QAE?AU?$pair@V?$_Tree_const_iterator@V?$_Tree_val@U?$_Tree_simple_types@VEncounter@@@std@@@std@@@std@@V12@@2@ABVEncounter@@@Z 1002b3c0 f i solid:C-api.obj
 0001:0002a470       ?equivalent@error_category@std@@UBE_NABVerror_code@2@H@Z 1002b470 f i solid:C-api.obj
 0001:0002a4d0       ?equivalent@error_category@std@@UBE_NHABVerror_condition@2@@Z 1002b4d0 f i solid:C-api.obj
 0001:0002a530       ?erase@?$_Tree@V?$_Tmap_traits@PAXPAVObject@@U?$less@PAX@std@@V?$allocator@U?$pair@QAXPAVObject@@@std@@@3@$0A@@std@@@std@@QAE?AV?$_Tree_iterator@V?$_Tree_val@U?$_Tree_simple_types@U?$pair@QAXPAVObject@@@std@@@std@@@std@@@2@V?$_Tree_const_iterator@V?$_Tree_val@U?$_Tree_simple_types@U?$pair@QAXPAVObject@@@std@@@std@@@std@@@2@0@Z 1002b530 f i solid:C-api.obj
 0001:0002a730       ?erase@?$_Tree@V?$_Tmap_traits@PAXPAVObject@@U?$less@PAX@std@@V?$allocator@U?$pair@QAXPAVObject@@@std@@@3@$0A@@std@@@std@@QAE?AV?$_Tree_iterator@V?$_Tree_val@U?$_Tree_simple_types@U?$pair@QAXPAVObject@@@std@@@std@@@std@@@2@V?$_Tree_const_iterator@V?$_Tree_val@U?$_Tree_simple_types@U?$pair@QAXPAVObject@@@std@@@std@@@std@@@2@@Z 1002b730 f i solid:C-api.obj
 0001:0002af70       ?erase@?$_Tree@V?$_Tmap_traits@PAXVResponse@@U?$less@PAX@std@@V?$allocator@U?$pair@QAXVResponse@@@std@@@3@$0A@@std@@@std@@QAE?AV?$_Tree_iterator@V?$_Tree_val@U?$_Tree_simple_types@U?$pair@QAXVResponse@@@std@@@std@@@std@@@2@V?$_Tree_const_iterator@V?$_Tree_val@U?$_Tree_simple_types@U?$pair@QAXVResponse@@@std@@@std@@@std@@@2@0@Z 1002bf70 f i solid:C-api.obj
 0001:0002b170       ?erase@?$_Tree@V?$_Tmap_traits@PAXVResponse@@U?$less@PAX@std@@V?$allocator@U?$pair@QAXVResponse@@@std@@@3@$0A@@std@@@std@@QAE?AV?$_Tree_iterator@V?$_Tree_val@U?$_Tree_simple_types@U?$pair@QAXVResponse@@@std@@@std@@@std@@@2@V?$_Tree_const_iterator@V?$_Tree_val@U?$_Tree_simple_types@U?$pair@QAXVResponse@@@std@@@std@@@std@@@2@@Z 1002c170 f i solid:C-api.obj
 0001:0002b9b0       ?erase@?$_Tree@V?$_Tmap_traits@PAXVResponse@@U?$less@PAX@std@@V?$allocator@U?$pair@QAXVResponse@@@std@@@3@$0A@@std@@@std@@QAEIABQAX@Z 1002c9b0 f i solid:C-api.obj
 0001:0002bb50       ?erase@?$_Tree@V?$_Tmap_traits@U?$pair@PAXPAX@std@@VResponse@@U?$less@U?$pair@PAXPAX@std@@@2@V?$allocator@U?$pair@$$CBU?$pair@PAXPAX@std@@VResponse@@@std@@@2@$0A@@std@@@std@@QAE?AV?$_Tree_iterator@V?$_Tree_val@U?$_Tree_simple_types@U?$pair@$$CBU?$pair@PAXPAX@std@@VResponse@@@std@@@std@@@std@@@2@V?$_Tree_const_iterator@V?$_Tree_val@U?$_Tree_simple_types@U?$pair@$$CBU?$pair@PAXPAX@std@@VResponse@@@std@@@std@@@std@@@2@0@Z 1002cb50 f i solid:C-api.obj
 0001:0002bd50       ?erase@?$_Tree@V?$_Tmap_traits@U?$pair@PAXPAX@std@@VResponse@@U?$less@U?$pair@PAXPAX@std@@@2@V?$allocator@U?$pair@$$CBU?$pair@PAXPAX@std@@VResponse@@@std@@@2@$0A@@std@@@std@@QAE?AV?$_Tree_iterator@V?$_Tree_val@U?$_Tree_simple_types@U?$pair@$$CBU?$pair@PAXPAX@std@@VResponse@@@std@@@std@@@std@@@2@V?$_Tree_const_iterator@V?$_Tree_val@U?$_Tree_simple_types@U?$pair@$$CBU?$pair@PAXPAX@std@@VResponse@@@std@@@std@@@std@@@2@@Z 1002cd50 f i solid:C-api.obj
 0001:0002c590       ?erase@?$_Tree@V?$_Tmap_traits@U?$pair@PAXPAX@std@@VResponse@@U?$less@U?$pair@PAXPAX@std@@@2@V?$allocator@U?$pair@$$CBU?$pair@PAXPAX@std@@VResponse@@@std@@@2@$0A@@std@@@std@@QAEIABU?$pair@PAXPAX@2@@Z 1002d590 f i solid:C-api.obj
 0001:0002c730       ?erase@?$_Tree@V?$_Tset_traits@VEncounter@@U?$less@VEncounter@@@std@@V?$allocator@VEncounter@@@3@$0A@@std@@@std@@QAE?AV?$_Tree_const_iterator@V?$_Tree_val@U?$_Tree_simple_types@VEncounter@@@std@@@std@@@2@V32@0@Z 1002d730 f i solid:C-api.obj
 0001:0002c930       ?erase@?$_Tree@V?$_Tset_traits@VEncounter@@U?$less@VEncounter@@@std@@V?$allocator@VEncounter@@@3@$0A@@std@@@std@@QAE?AV?$_Tree_const_iterator@V?$_Tree_val@U?$_Tree_simple_types@VEncounter@@@std@@@std@@@2@V32@@Z 1002d930 f i solid:C-api.obj
 0001:0002d170       ?erase@?$_Tree@V?$_Tset_traits@VEncounter@@U?$less@VEncounter@@@std@@V?$allocator@VEncounter@@@3@$0A@@std@@@std@@QAEIABVEncounter@@@Z 1002e170 f i solid:C-api.obj
 0001:0002d310       ?erase@?$basic_string@DU?$char_traits@D@std@@V?$allocator@D@2@@std@@QAEAAV12@I@Z 1002e310 f i solid:C-api.obj
 0001:0002d350       ?erase@?$basic_string@DU?$char_traits@D@std@@V?$allocator@D@2@@std@@QAEAAV12@II@Z 1002e350 f i solid:C-api.obj
 0001:0002d400       ?erase@?$vector@IV?$allocator@I@std@@@std@@QAE?AV?$_Vector_iterator@V?$_Vector_val@U?$_Simple_types@I@std@@@std@@@2@V?$_Vector_const_iterator@V?$_Vector_val@U?$_Simple_types@I@std@@@std@@@2@0@Z 1002e400 f i solid:C-api.obj
 0001:0002d700       ?erase@?$vector@PAVComplex@@V?$allocator@PAVComplex@@@std@@@std@@QAE?AV?$_Vector_iterator@V?$_Vector_val@U?$_Simple_types@PAVComplex@@@std@@@std@@@2@V?$_Vector_const_iterator@V?$_Vector_val@U?$_Simple_types@PAVComplex@@@std@@@std@@@2@@Z 1002e700 f i solid:C-api.obj
 0001:0002d840       ?erase@?$vector@PBVPolytope@@V?$allocator@PBVPolytope@@@std@@@std@@QAE?AV?$_Vector_iterator@V?$_Vector_val@U?$_Simple_types@PBVPolytope@@@std@@@std@@@2@V?$_Vector_const_iterator@V?$_Vector_val@U?$_Simple_types@PBVPolytope@@@std@@@std@@@2@0@Z 1002e840 f i solid:C-api.obj
 0001:0002db40       ?erase@?$vector@VPoint@@V?$allocator@VPoint@@@std@@@std@@QAE?AV?$_Vector_iterator@V?$_Vector_val@U?$_Simple_types@VPoint@@@std@@@std@@@2@V?$_Vector_const_iterator@V?$_Vector_val@U?$_Simple_types@VPoint@@@std@@@std@@@2@0@Z 1002eb40 f i solid:C-api.obj
 0001:0002de40       ?find@?$_Tree@V?$_Tmap_traits@PAXPAVObject@@U?$less@PAX@std@@V?$allocator@U?$pair@QAXPAVObject@@@std@@@3@$0A@@std@@@std@@QAE?AV?$_Tree_iterator@V?$_Tree_val@U?$_Tree_simple_types@U?$pair@QAXPAVObject@@@std@@@std@@@std@@@2@ABQAX@Z 1002ee40 f i solid:C-api.obj
 0001:0002e030       ?generic_category@std@@YAABVerror_category@1@XZ 1002f030 f i solid:C-api.obj
 0001:0002e040       ?getBase@Complex@@QBEABVVertexBase@@XZ 1002f040 f i solid:C-api.obj
 0001:0002e060       ?getPointer@VertexBase@@QBEPBVPoint@@XZ 1002f060 f i solid:C-api.obj
 0001:0002e080       ?getType@Complex@@UBE?AW4ShapeType@@XZ 1002f080 f i solid:C-api.obj
 0001:0002e0a0       ?getType@Convex@@UBE?AW4ShapeType@@XZ 1002f0a0 f i solid:C-api.obj
 0001:0002e0c0       ?insert@?$_Tree@V?$_Tset_traits@VEncounter@@U?$less@VEncounter@@@std@@V?$allocator@VEncounter@@@3@$0A@@std@@@std@@QAE?AU?$pair@V?$_Tree_const_iterator@V?$_Tree_val@U?$_Tree_simple_types@VEncounter@@@std@@@std@@@std@@_N@2@$$QAVEncounter@@@Z 1002f0c0 f i solid:C-api.obj
 0001:0002e190       ?insert@?$set@VEncounter@@U?$less@VEncounter@@@std@@V?$allocator@VEncounter@@@3@@std@@QAE?AU?$pair@V?$_Tree_const_iterator@V?$_Tree_val@U?$_Tree_simple_types@VEncounter@@@std@@@std@@@std@@_N@2@$$QAVEncounter@@@Z 1002f190 f i solid:C-api.obj
 0001:0002e250       ?length@?$char_traits@D@std@@SAIPBD@Z 1002f250 f i solid:C-api.obj
 0001:0002e290       ?lower_bound@?$_Tree@V?$_Tmap_traits@PAXPAVObject@@U?$less@PAX@std@@V?$allocator@U?$pair@QAXPAVObject@@@std@@@3@$0A@@std@@@std@@QAE?AV?$_Tree_iterator@V?$_Tree_val@U?$_Tree_simple_types@U?$pair@QAXPAVObject@@@std@@@std@@@std@@@2@ABQAX@Z 1002f290 f i solid:C-api.obj
 0001:0002e2f0       ?lower_bound@?$_Tree@V?$_Tmap_traits@PAXVResponse@@U?$less@PAX@std@@V?$allocator@U?$pair@QAXVResponse@@@std@@@3@$0A@@std@@@std@@QAE?AV?$_Tree_iterator@V?$_Tree_val@U?$_Tree_simple_types@U?$pair@QAXVResponse@@@std@@@std@@@std@@@2@ABQAX@Z 1002f2f0 f i solid:C-api.obj
 0001:0002e350       ?lower_bound@?$_Tree@V?$_Tmap_traits@U?$pair@PAXPAX@std@@VResponse@@U?$less@U?$pair@PAXPAX@std@@@2@V?$allocator@U?$pair@$$CBU?$pair@PAXPAX@std@@VResponse@@@std@@@2@$0A@@std@@@std@@QAE?AV?$_Tree_iterator@V?$_Tree_val@U?$_Tree_simple_types@U?$pair@$$CBU?$pair@PAXPAX@std@@VResponse@@@std@@@std@@@std@@@2@ABU?$pair@PAXPAX@2@@Z 1002f350 f i solid:C-api.obj
 0001:0002e3b0       ?make_ObjPair@@YA?AU?$pair@PAXPAX@std@@PAX0@Z 1002f3b0 f i solid:C-api.obj
 0001:0002e440       ?max_size@?$_Tree@V?$_Tmap_traits@PAXPAVObject@@U?$less@PAX@std@@V?$allocator@U?$pair@QAXPAVObject@@@std@@@3@$0A@@std@@@std@@QBEIXZ 1002f440 f i solid:C-api.obj
 0001:0002e480       ?max_size@?$_Tree@V?$_Tmap_traits@PAXVResponse@@U?$less@PAX@std@@V?$allocator@U?$pair@QAXVResponse@@@std@@@3@$0A@@std@@@std@@QBEIXZ 1002f480 f i solid:C-api.obj
 0001:0002e4c0       ?max_size@?$_Tree@V?$_Tmap_traits@U?$pair@PAXPAX@std@@VResponse@@U?$less@U?$pair@PAXPAX@std@@@2@V?$allocator@U?$pair@$$CBU?$pair@PAXPAX@std@@VResponse@@@std@@@2@$0A@@std@@@std@@QBEIXZ 1002f4c0 f i solid:C-api.obj
 0001:0002e500       ?max_size@?$_Tree@V?$_Tset_traits@VEncounter@@U?$less@VEncounter@@@std@@V?$allocator@VEncounter@@@3@$0A@@std@@@std@@QBEIXZ 1002f500 f i solid:C-api.obj
 0001:0002e540       ?max_size@?$_Wrap_alloc@V?$allocator@D@std@@@std@@QBEIXZ 1002f540 f i solid:C-api.obj
 0001:0002e570       ?max_size@?$_Wrap_alloc@V?$allocator@I@std@@@std@@QBEIXZ 1002f570 f i solid:C-api.obj
 0001:0002e5a0       ?max_size@?$_Wrap_alloc@V?$allocator@PAVComplex@@@std@@@std@@QBEIXZ 1002f5a0 f i solid:C-api.obj
 0001:0002e5d0       ?max_size@?$_Wrap_alloc@V?$allocator@PBVPolytope@@@std@@@std@@QBEIXZ 1002f5d0 f i solid:C-api.obj
 0001:0002e600       ?max_size@?$_Wrap_alloc@V?$allocator@U?$_Tree_node@U?$pair@$$CBU?$pair@PAXPAX@std@@VResponse@@@std@@PAX@std@@@std@@@std@@QBEIXZ 1002f600 f i solid:C-api.obj
 0001:0002e630       ?max_size@?$_Wrap_alloc@V?$allocator@U?$_Tree_node@U?$pair@QAXPAVObject@@@std@@PAX@std@@@std@@@std@@QBEIXZ 1002f630 f i solid:C-api.obj
 0001:0002e660       ?max_size@?$_Wrap_alloc@V?$allocator@U?$_Tree_node@U?$pair@QAXVResponse@@@std@@PAX@std@@@std@@@std@@QBEIXZ 1002f660 f i solid:C-api.obj
 0001:0002e690       ?max_size@?$_Wrap_alloc@V?$allocator@U?$_Tree_node@VEncounter@@PAX@std@@@std@@@std@@QBEIXZ 1002f690 f i solid:C-api.obj
 0001:0002e6c0       ?max_size@?$_Wrap_alloc@V?$allocator@VPoint@@@std@@@std@@QBEIXZ 1002f6c0 f i solid:C-api.obj
 0001:0002e6f0       ?max_size@?$allocator@D@std@@QBEIXZ 1002f6f0 f i solid:C-api.obj
 0001:0002e710       ?max_size@?$allocator@I@std@@QBEIXZ 1002f710 f i solid:C-api.obj
 0001:0002e730       ?max_size@?$allocator@PAVComplex@@@std@@QBEIXZ 1002f730 f i solid:C-api.obj
 0001:0002e750       ?max_size@?$allocator@PBVPolytope@@@std@@QBEIXZ 1002f750 f i solid:C-api.obj
 0001:0002e770       ?max_size@?$allocator@U?$_Tree_node@U?$pair@$$CBU?$pair@PAXPAX@std@@VResponse@@@std@@PAX@std@@@std@@QBEIXZ 1002f770 f i solid:C-api.obj
 0001:0002e790       ?max_size@?$allocator@U?$_Tree_node@U?$pair@QAXPAVObject@@@std@@PAX@std@@@std@@QBEIXZ 1002f790 f i solid:C-api.obj
 0001:0002e7b0       ?max_size@?$allocator@U?$_Tree_node@U?$pair@QAXVResponse@@@std@@PAX@std@@@std@@QBEIXZ 1002f7b0 f i solid:C-api.obj
 0001:0002e7d0       ?max_size@?$allocator@U?$_Tree_node@VEncounter@@PAX@std@@@std@@QBEIXZ 1002f7d0 f i solid:C-api.obj
 0001:0002e7f0       ?max_size@?$allocator@VPoint@@@std@@QBEIXZ 1002f7f0 f i solid:C-api.obj
 0001:0002e810       ?max_size@?$allocator_traits@V?$allocator@D@std@@@std@@SAIABV?$allocator@D@2@@Z 1002f810 f i solid:C-api.obj
 0001:0002e830       ?max_size@?$allocator_traits@V?$allocator@I@std@@@std@@SAIABV?$allocator@I@2@@Z 1002f830 f i solid:C-api.obj
 0001:0002e850       ?max_size@?$allocator_traits@V?$allocator@PAVComplex@@@std@@@std@@SAIABV?$allocator@PAVComplex@@@2@@Z 1002f850 f i solid:C-api.obj
 0001:0002e870       ?max_size@?$allocator_traits@V?$allocator@PBVPolytope@@@std@@@std@@SAIABV?$allocator@PBVPolytope@@@2@@Z 1002f870 f i solid:C-api.obj
 0001:0002e890       ?max_size@?$allocator_traits@V?$allocator@U?$_Tree_node@U?$pair@$$CBU?$pair@PAXPAX@std@@VResponse@@@std@@PAX@std@@@std@@@std@@SAIABV?$allocator@U?$_Tree_node@U?$pair@$$CBU?$pair@PAXPAX@std@@VResponse@@@std@@PAX@std@@@2@@Z 1002f890 f i solid:C-api.obj
 0001:0002e8b0       ?max_size@?$allocator_traits@V?$allocator@U?$_Tree_node@U?$pair@QAXPAVObject@@@std@@PAX@std@@@std@@@std@@SAIABV?$allocator@U?$_Tree_node@U?$pair@QAXPAVObject@@@std@@PAX@std@@@2@@Z 1002f8b0 f i solid:C-api.obj
 0001:0002e8d0       ?max_size@?$allocator_traits@V?$allocator@U?$_Tree_node@U?$pair@QAXVResponse@@@std@@PAX@std@@@std@@@std@@SAIABV?$allocator@U?$_Tree_node@U?$pair@QAXVResponse@@@std@@PAX@std@@@2@@Z 1002f8d0 f i solid:C-api.obj
 0001:0002e8f0       ?max_size@?$allocator_traits@V?$allocator@U?$_Tree_node@VEncounter@@PAX@std@@@std@@@std@@SAIABV?$allocator@U?$_Tree_node@VEncounter@@PAX@std@@@2@@Z 1002f8f0 f i solid:C-api.obj
 0001:0002e910       ?max_size@?$allocator_traits@V?$allocator@VPoint@@@std@@@std@@SAIABV?$allocator@VPoint@@@2@@Z 1002f910 f i solid:C-api.obj
 0001:0002e930       ?max_size@?$basic_string@DU?$char_traits@D@std@@V?$allocator@D@2@@std@@QBEIXZ 1002f930 f i solid:C-api.obj
 0001:0002e990       ?max_size@?$vector@IV?$allocator@I@std@@@std@@QBEIXZ 1002f990 f i solid:C-api.obj
 0001:0002e9d0       ?max_size@?$vector@PAVComplex@@V?$allocator@PAVComplex@@@std@@@std@@QBEIXZ 1002f9d0 f i solid:C-api.obj
 0001:0002ea10       ?max_size@?$vector@PBVPolytope@@V?$allocator@PBVPolytope@@@std@@@std@@QBEIXZ 1002fa10 f i solid:C-api.obj
 0001:0002ea50       ?max_size@?$vector@VPoint@@V?$allocator@VPoint@@@std@@@std@@QBEIXZ 1002fa50 f i solid:C-api.obj
 0001:0002ea90       ?message@_Generic_error_category@std@@UBE?AV?$basic_string@DU?$char_traits@D@std@@V?$allocator@D@2@@2@H@Z 1002fa90 f i solid:C-api.obj
 0001:0002eb00       ?message@_Iostream_error_category@std@@UBE?AV?$basic_string@DU?$char_traits@D@std@@V?$allocator@D@2@@2@H@Z 1002fb00 f i solid:C-api.obj
 0001:0002eb70       ?message@_System_error_category@std@@UBE?AV?$basic_string@DU?$char_traits@D@std@@V?$allocator@D@2@@2@H@Z 1002fb70 f i solid:C-api.obj
 0001:0002ebe0       ?move@?$char_traits@D@std@@SAPADPADPBDI@Z 1002fbe0 f i solid:C-api.obj
 0001:0002ec30       ?move@@YAXXZ               1002fc30 f i solid:C-api.obj
 0001:0002ec60       ?multMatrix@Object@@QAEXQBM@Z 1002fc60 f i solid:C-api.obj
 0001:0002ecc0       ?multMatrix@Object@@QAEXQBN@Z 1002fcc0 f i solid:C-api.obj
 0001:0002ed20       ?name@_Generic_error_category@std@@UBEPBDXZ 1002fd20 f i solid:C-api.obj
 0001:0002ed40       ?name@_Iostream_error_category@std@@UBEPBDXZ 1002fd40 f i solid:C-api.obj
 0001:0002ed60       ?name@_System_error_category@std@@UBEPBDXZ 1002fd60 f i solid:C-api.obj
 0001:0002ed80       ?pointer_to@?$pointer_traits@PAU?$pair@$$CBU?$pair@PAXPAX@std@@VResponse@@@std@@@std@@SAPAU?$pair@$$CBU?$pair@PAXPAX@std@@VResponse@@@2@AAU32@@Z 1002fd80 f i solid:C-api.obj
 0001:0002eda0       ?pointer_to@?$pointer_traits@PAU?$pair@QAXPAVObject@@@std@@@std@@SAPAU?$pair@QAXPAVObject@@@2@AAU32@@Z 1002fda0 f i solid:C-api.obj
 0001:0002edc0       ?pointer_to@?$pointer_traits@PAU?$pair@QAXVResponse@@@std@@@std@@SAPAU?$pair@QAXVResponse@@@2@AAU32@@Z 1002fdc0 f i solid:C-api.obj
 0001:0002ede0       ?proceed@Complex@@QAEXXZ   1002fde0 f i solid:C-api.obj
 0001:0002ee00       ?push_back@?$vector@IV?$allocator@I@std@@@std@@QAEXABI@Z 1002fe00 f i solid:C-api.obj
 0001:0002ef30       ?push_back@?$vector@PAVComplex@@V?$allocator@PAVComplex@@@std@@@std@@QAEXABQAVComplex@@@Z 1002ff30 f i solid:C-api.obj
 0001:0002f060       ?push_back@?$vector@PBVPolytope@@V?$allocator@PBVPolytope@@@std@@@std@@QAEXABQBVPolytope@@@Z 10030060 f i solid:C-api.obj
 0001:0002f190       ?push_back@?$vector@VPoint@@V?$allocator@VPoint@@@std@@@std@@QAEXABVPoint@@@Z 10030190 f i solid:C-api.obj
 0001:0002f2c0       ?remove@Endpoint@@AAEXXZ   100302c0 f i solid:C-api.obj
 0001:0002f2f0       ?resetPair@RespTable@@QAEXPAX0@Z 100302f0 f i solid:C-api.obj
 0001:0002f340       ?resetSingle@RespTable@@QAEXPAX@Z 10030340 f i solid:C-api.obj
 0001:0002f370       ?rotate@Object@@QAEXABVQuaternion@@@Z 10030370 f i solid:C-api.obj
 0001:0002f3a0       ?scale@Object@@QAEXNNN@Z   100303a0 f i solid:C-api.obj
 0001:0002f3f0       ?setBase@Complex@@QAEXPBVPoint@@_N@Z 100303f0 f i solid:C-api.obj
 0001:0002f440       ?setDefault@RespTable@@QAEXABVResponse@@@Z 10030440 f i solid:C-api.obj
 0001:0002f470       ?setIdentity@Object@@QAEXXZ 10030470 f i solid:C-api.obj
 0001:0002f4a0       ?setMatrix@Object@@QAEXQBM@Z 100304a0 f i solid:C-api.obj
 0001:0002f4d0       ?setMatrix@Object@@QAEXQBN@Z 100304d0 f i solid:C-api.obj
 0001:0002f500       ?setPair@RespTable@@QAEXPAX0ABVResponse@@@Z 10030500 f i solid:C-api.obj
 0001:0002f570       ?setSingle@RespTable@@QAEXPAXABVResponse@@@Z 10030570 f i solid:C-api.obj
 0001:0002f5c0       ?setValue@Tuple3@@QAEXNNN@Z 100305c0 f i solid:C-api.obj
 0001:0002f620       ?setValue@Tuple4@@QAEXNNNN@Z 10030620 f i solid:C-api.obj
 0001:0002f690       ?size@?$_Tree@V?$_Tmap_traits@PAXPAVObject@@U?$less@PAX@std@@V?$allocator@U?$pair@QAXPAVObject@@@std@@@3@$0A@@std@@@std@@QBEIXZ 10030690 f i solid:C-api.obj
 0001:0002f6b0       ?size@?$_Tree@V?$_Tmap_traits@PAXVResponse@@U?$less@PAX@std@@V?$allocator@U?$pair@QAXVResponse@@@std@@@3@$0A@@std@@@std@@QBEIXZ 100306b0 f i solid:C-api.obj
 0001:0002f6d0       ?size@?$_Tree@V?$_Tmap_traits@U?$pair@PAXPAX@std@@VResponse@@U?$less@U?$pair@PAXPAX@std@@@2@V?$allocator@U?$pair@$$CBU?$pair@PAXPAX@std@@VResponse@@@std@@@2@$0A@@std@@@std@@QBEIXZ 100306d0 f i solid:C-api.obj
 0001:0002f6f0       ?size@?$basic_string@DU?$char_traits@D@std@@V?$allocator@D@2@@std@@QBEIXZ 100306f0 f i solid:C-api.obj
 0001:0002f710       ?size@?$vector@IV?$allocator@I@std@@@std@@QBEIXZ 10030710 f i solid:C-api.obj
 0001:0002f740       ?size@?$vector@PAVComplex@@V?$allocator@PAVComplex@@@std@@@std@@QBEIXZ 10030740 f i solid:C-api.obj
 0001:0002f770       ?size@?$vector@PBVPolytope@@V?$allocator@PBVPolytope@@@std@@@std@@QBEIXZ 10030770 f i solid:C-api.obj
 0001:0002f7a0       ?size@?$vector@VPoint@@V?$allocator@VPoint@@@std@@@std@@QBEIXZ 100307a0 f i solid:C-api.obj
 0001:0002f7d0       ?system_category@std@@YAABVerror_category@1@XZ 100307d0 f i solid:C-api.obj
 0001:0002f7e0       ?translate@Object@@QAEXABVVector@@@Z 100307e0 f i solid:C-api.obj
 0001:0002f810       ?value@error_code@std@@QBEHXZ 10030810 f i solid:C-api.obj
 0001:0002f830       ?value@error_condition@std@@QBEHXZ 10030830 f i solid:C-api.obj
 0001:0002f850       ?setValue@Transform@@QAEXQBM@Z 10030850 f   solid:Transform.obj
 0001:0002f8a0       ?setValue@Transform@@QAEXQBN@Z 100308a0 f   solid:Transform.obj
 0001:0002f8f0       ?setIdentity@Transform@@QAEXXZ 100308f0 f   solid:Transform.obj
 0001:0002f960       ??XTransform@@QAEAAV0@ABV0@@Z 10030960 f   solid:Transform.obj
 0001:0002f9f0       ?translate@Transform@@QAEXABVVector@@@Z 100309f0 f   solid:Transform.obj
 0001:0002fa70       ?rotate@Transform@@QAEXABVQuaternion@@@Z 10030a70 f   solid:Transform.obj
 0001:0002fae0       ?scale@Transform@@QAEXNNN@Z 10030ae0 f   solid:Transform.obj
 0001:0002fb70       ?invert@Transform@@QAEXABV1@@Z 10030b70 f   solid:Transform.obj
 0001:0002fce0       ?mult@Transform@@QAEXABV1@0@Z 10030ce0 f   solid:Transform.obj
 0001:0002fd90       ?multInverseLeft@Transform@@QAEXABV1@0@Z 10030d90 f   solid:Transform.obj
 0001:0002fef0       ??0Matrix@@QAE@ABVQuaternion@@@Z 10030ef0 f i solid:Transform.obj
 0001:0002ff20       ??0Matrix@@QAE@NNN@Z       10030f20 f i solid:Transform.obj
 0001:0002ff70       ??0Matrix@@QAE@NNNNNNNNN@Z 10030f70 f i solid:Transform.obj
 0001:00030010       ??4Point@@QAEAAV0@ABVVector@@@Z 10031010 f i solid:Transform.obj
 0001:00030090       ??AMatrix@@QAEAAVVector@@H@Z 10031090 f i solid:Transform.obj
 0001:000300b0       ??ATuple3@@QAEAANH@Z       100310b0 f i solid:Transform.obj
 0001:000300d0       ??ATuple4@@QBEABNH@Z       100310d0 f i solid:Transform.obj
 0001:000300f0       ??D@YA?AVMatrix@@ABV0@0@Z  100310f0 f i solid:Transform.obj
 0001:00030790       ??D@YA?AVVector@@ABV0@ABVMatrix@@@Z 10031790 f i solid:Transform.obj
 0001:000307f0       ??D@YA?AVVector@@ABVMatrix@@ABV0@@Z 100317f0 f i solid:Transform.obj
 0001:00030850       ??XMatrix@@QAEAAV0@ABV0@@Z 10031850 f i solid:Transform.obj
 0001:00030ed0       ??YPoint@@QAEAAV0@ABVVector@@@Z 10031ed0 f i solid:Transform.obj
 0001:00030f80       ?dot@@YANABVQuaternion@@0@Z 10031f80 f i solid:Transform.obj
 0001:00031060       ?eqz@@YA_NN@Z              10032060 f i solid:Transform.obj
 0001:000310d0       ?inverse@@YA?AVMatrix@@ABV1@@Z 100320d0 f i solid:Transform.obj
 0001:000310f0       ?inverse@Matrix@@QBE?AV1@XZ 100320f0 f i solid:Transform.obj
 0001:000315f0       ?length2@Quaternion@@QBENXZ 100325f0 f i solid:Transform.obj
 0001:00031620       ?multTransposeLeft@@YA?AVMatrix@@ABV1@0@Z 10032620 f i solid:Transform.obj
 0001:00031cc0       ?setIdentity@Matrix@@QAEXXZ 10032cc0 f i solid:Transform.obj
 0001:00031d80       ?setRotation@Matrix@@QAEXABVQuaternion@@@Z 10032d80 f i solid:Transform.obj
 0001:00031ff0       ?setScaling@Matrix@@QAEXNNN@Z 10032ff0 f i solid:Transform.obj
 0001:000320a0       ?setValue@Matrix@@QAEXNNNNNNNNN@Z 100330a0 f i solid:Transform.obj
 0001:000321c0       ?setValue@Matrix@@QAEXPBM@Z 100331c0 f i solid:Transform.obj
 0001:00032340       ?setValue@Matrix@@QAEXPBN@Z 10033340 f i solid:Transform.obj
 0001:000324c0       ?setValue@Tuple3@@QAEXQBM@Z 100334c0 f i solid:Transform.obj
 0001:00032540       ?setValue@Tuple3@@QAEXQBN@Z 10033540 f i solid:Transform.obj
 0001:000325c0       ?tdot@Matrix@@QBENHABVVector@@@Z 100335c0 f i solid:Transform.obj
 0001:00032680       ?transpose@@YA?AVMatrix@@ABV1@@Z 10033680 f i solid:Transform.obj
 0001:000326a0       ?transpose@Matrix@@QBE?AV1@XZ 100336a0 f i solid:Transform.obj
 0001:000327f0       ?bbox@Convex@@UBE?AVBBox@@ABVTransform@@@Z 100337f0 f   solid:Convex.obj
 0001:00032bc0       ?intersect@@YA_NABVConvex@@0ABVTransform@@1AAVVector@@@Z 10033bc0 f   solid:Convex.obj
 0001:00032e20       ?intersect@@YA_NABVConvex@@0ABVTransform@@AAVVector@@@Z 10033e20 f   solid:Convex.obj
 0001:00033060       ?common_point@@YA_NABVConvex@@0ABVTransform@@1AAVVector@@AAVPoint@@3@Z 10034060 f   solid:Convex.obj
 0001:00033360       ?common_point@@YA_NABVConvex@@0ABVTransform@@AAVVector@@AAVPoint@@3@Z 10034360 f   solid:Convex.obj
 0001:00033630       ?closest_points@@YAXABVConvex@@0ABVTransform@@1AAVPoint@@2@Z 10034630 f   solid:Convex.obj
 0001:00033ad0       ?compute_det@@YAXXZ        10034ad0 f   solid:Convex.obj
 0001:000342b0       ??0BBox@@QAE@ABVPoint@@0@Z 100352b0 f i solid:Convex.obj
 0001:00034300       ??D@YA?AVVector@@ABV0@N@Z  10035300 f i solid:Convex.obj
 0001:00034370       ??G@YA?AVVector@@ABV0@@Z   10035370 f i solid:Convex.obj
 0001:000343f0       ??H@YA?AVPoint@@ABV0@ABVVector@@@Z 100353f0 f i solid:Convex.obj
 0001:00034480       ??K@YA?AVVector@@ABV0@N@Z  10035480 f i solid:Convex.obj
 0001:000344f0       ??XVector@@QAEAAV0@N@Z     100354f0 f i solid:Convex.obj
 0001:00034580       ??YVector@@QAEAAV0@ABV0@@Z 10035580 f i solid:Convex.obj
 0001:00034630       ?approxZero@@YA_NABVVector@@@Z 10035630 f i solid:Convex.obj
 0001:00034650       ?approxZero@Vector@@QBE_NXZ 10035650 f i solid:Convex.obj
 0001:000346b0       ?closest@@YA_NAAVVector@@@Z 100356b0 f i solid:Convex.obj
 0001:000347a0       ?compute_points@@YAXHAAVPoint@@0@Z 100357a0 f i solid:Convex.obj
 0001:00034970       ?compute_vector@@YAXHAAVVector@@@Z 10035970 f i solid:Convex.obj
 0001:00034aa0       ?degenerate@@YA_NABVVector@@@Z 10035aa0 f i solid:Convex.obj
 0001:00034b20       ?getBasis@Transform@@QBEABVMatrix@@XZ 10035b20 f i solid:Convex.obj
 0001:00034b40       ?getOrigin@Transform@@QBEABVPoint@@XZ 10035b40 f i solid:Convex.obj
 0001:00034b60       ?length2@Vector@@QBENXZ    10035b60 f i solid:Convex.obj
 0001:00034b90       ?length@Vector@@QBENXZ     10035b90 f i solid:Convex.obj
 0001:00034bd0       ?setValue@BBox@@QAEXABVPoint@@0@Z 10035bd0 f i solid:Convex.obj
 0001:00034cb0       ?set_max@@YAXAANN@Z        10035cb0 f i solid:Convex.obj
 0001:00034cd0       ?valid@@YA_NH@Z            10035cd0 f i solid:Convex.obj
 0001:00034d70       ?support@Box@@UBE?AVPoint@@ABVVector@@@Z 10035d70 f   solid:Box.obj
 0001:00034ec0       ?support@Cone@@UBE?AVPoint@@ABVVector@@@Z 10035ec0 f   solid:Cone.obj
 0001:00035090       ?support@Cylinder@@UBE?AVPoint@@ABVVector@@@Z 10036090 f   solid:Cylinder.obj
 0001:00035250       ?support@Sphere@@UBE?AVPoint@@ABVVector@@@Z 10036250 f   solid:Sphere.obj
 0001:00035350       ??1Complex@@UAE@XZ         10036350 f   solid:Complex.obj
 0001:00035490       ?bbox@Complex@@UBE?AVBBox@@ABVTransform@@@Z 10036490 f   solid:Complex.obj
 0001:000355f0       ?changeBase@Complex@@QAEXPBVPoint@@@Z 100365f0 f   solid:Complex.obj
 0001:00035690       ?finish@Complex@@QAEXHPAPBVPolytope@@@Z 10036690 f   solid:Complex.obj
 0001:000358d0       ?intersect@@YA_NABVComplex@@ABVConvex@@ABVTransform@@2AAVVector@@@Z 100368d0 f   solid:Complex.obj
 0001:000359b0       ?intersect@@YA_NABVComplex@@0ABVTransform@@1AAVVector@@@Z 100369b0 f   solid:Complex.obj
 0001:00035af0       ?find_prim@@YA_NABVComplex@@ABVConvex@@ABVTransform@@2AAVVector@@AAPBVShape@@@Z 10036af0 f   solid:Complex.obj
 0001:00035bd0       ?find_prim@@YA_NABVComplex@@0ABVTransform@@1AAVVector@@AAPBVShape@@3@Z 10036bd0 f   solid:Complex.obj
 0001:00035d20       ?common_point@@YA_NABVComplex@@ABVConvex@@ABVTransform@@2AAVVector@@AAVPoint@@4@Z 10036d20 f   solid:Complex.obj
 0001:00035e00       ?common_point@@YA_NABVComplex@@0ABVTransform@@1AAVVector@@AAVPoint@@3@Z 10036e00 f   solid:Complex.obj
 0001:00035f50       ??0BBox@@QAE@XZ            10036f50 f i solid:Complex.obj
 0001:00035f90       ??0BBoxInternal@@QAE@XZ    10036f90 f i solid:Complex.obj
 0001:00035fc0       ??0BBoxLeaf@@QAE@PBVPolytope@@@Z 10036fc0 f i solid:Complex.obj
 0001:00036010       ??0BBoxLeaf@@QAE@XZ        10037010 f i solid:Complex.obj
 0001:00036040       ??0BBoxNode@@QAE@XZ        10037040 f i solid:Complex.obj
 0001:00036070       ??0Transform@@QAE@XZ       10037070 f i solid:Complex.obj
 0001:000360b0       ?absolute@@YA?AVMatrix@@ABV1@@Z 100370b0 f i solid:Complex.obj
 0001:000360d0       ?absolute@Matrix@@QBE?AV1@XZ 100370d0 f i solid:Complex.obj
 0001:00036260       ?enclose@BBox@@QAEXABV1@0@Z 10037260 f i solid:Complex.obj
 0001:00036400       ?getCenter@BBox@@QBEABVPoint@@XZ 10037400 f i solid:Complex.obj
 0001:00036420       ?getExtent@BBox@@QBEABVVector@@XZ 10037420 f i solid:Complex.obj
 0001:00036440       ?getLower@BBox@@QBENH@Z    10037440 f i solid:Complex.obj
 0001:000364a0       ?getUpper@BBox@@QBENH@Z    100374a0 f i solid:Complex.obj
 0001:00036500       ?max@@YANNN@Z              10037500 f i solid:Complex.obj
 0001:00036540       ?min@@YANNN@Z              10037540 f i solid:Complex.obj
 0001:00036580       ?refitBBox@BBoxInternal@@QAEXXZ 10037580 f i solid:Complex.obj
 0001:000365c0       ?setCenter@BBox@@QAEXABVPoint@@@Z 100375c0 f i solid:Complex.obj
 0001:00036600       ?setExtent@BBox@@QAEXABVVector@@@Z 10037600 f i solid:Complex.obj
 0001:00036640       ??0Object@@QAE@PAXPBVShape@@@Z 10037640 f   solid:Object.obj
 0001:000369b0       ?move@Object@@QAEXXZ       100379b0 f   solid:Object.obj
 0001:00036b40       ?proceed@Object@@QAEXXZ    10037b40 f   solid:Object.obj
 0001:00036b70       ?intersect@@YA_NABVObject@@0AAVVector@@@Z 10037b70 f   solid:Object.obj
 0001:00036c70       ?common_point@@YA_NABVObject@@0AAVVector@@AAVPoint@@2@Z 10037c70 f   solid:Object.obj
 0001:00036d80       ?prev_closest_points@@YA_NABVObject@@0AAVVector@@AAVPoint@@2@Z 10037d80 f   solid:Object.obj
 0001:00036fe0       ?intersectConvexConvex@@YA_NABVShape@@0ABVTransform@@1AAVVector@@@Z 10037fe0 f   solid:Object.obj
 0001:00037010       ?intersectComplexConvex@@YA_NABVShape@@0ABVTransform@@1AAVVector@@@Z 10038010 f   solid:Object.obj
 0001:00037040       ?intersectComplexComplex@@YA_NABVShape@@0ABVTransform@@1AAVVector@@@Z 10038040 f   solid:Object.obj
 0001:00037070       ?intersectInitialize@@YAPAV?$AlgoTable@P6A_NABVShape@@0ABVTransform@@1AAVVector@@@Z@@XZ 10038070 f   solid:Object.obj
 0001:000370c0       ?common_pointConvexConvex@@YA_NABVShape@@0ABVTransform@@1AAVVector@@AAVPoint@@3@Z 100380c0 f   solid:Object.obj
 0001:000370f0       ?common_pointComplexConvex@@YA_NABVShape@@0ABVTransform@@1AAVVector@@AAVPoint@@3@Z 100380f0 f   solid:Object.obj
 0001:00037120       ?common_pointComplexComplex@@YA_NABVShape@@0ABVTransform@@1AAVVector@@AAVPoint@@3@Z 10038120 f   solid:Object.obj
 0001:00037150       ?common_pointInitialize@@YAPAV?$AlgoTable@P6A_NABVShape@@0ABVTransform@@1AAVVector@@AAVPoint@@3@Z@@XZ 10038150 f   solid:Object.obj
 0001:000371a0       ??$_Move@AAVVertexBase@@@std@@YA$$QAVVertexBase@@AAV1@@Z 100381a0 f i solid:Object.obj
 0001:000371b0       ??$swap@VVertexBase@@@std@@YAXAAVVertexBase@@0@Z 100381b0 f i solid:Object.obj
 0001:00037240       ??0Endpoint@@QAE@XZ        10038240 f i solid:Object.obj
 0001:00037260       ?addEntry@?$AlgoTable@P6A_NABVShape@@0ABVTransform@@1AAVVector@@@Z@@QAEXW4ShapeType@@0P6A_NABVShape@@1ABVTransform@@2AAVVector@@@Z@Z 10038260 f i solid:Object.obj
 0001:000372a0       ?addEntry@?$AlgoTable@P6A_NABVShape@@0ABVTransform@@1AAVVector@@AAVPoint@@3@Z@@QAEXW4ShapeType@@0P6A_NABVShape@@1ABVTransform@@2AAVVector@@AAVPoint@@4@Z@Z 100382a0 f i solid:Object.obj
 0001:000372e0       ?lookup@?$AlgoTable@P6A_NABVShape@@0ABVTransform@@1AAVVector@@@Z@@QBEP6A_NABVShape@@0ABVTransform@@1AAVVector@@@ZW4ShapeType@@3@Z 100382e0 f i solid:Object.obj
 0001:00037310       ?lookup@?$AlgoTable@P6A_NABVShape@@0ABVTransform@@1AAVVector@@AAVPoint@@3@Z@@QBEP6A_NABVShape@@0ABVTransform@@1AAVVector@@AAVPoint@@3@ZW4ShapeType@@4@Z 10038310 f i solid:Object.obj
 0001:00037340       ?swapBase@Complex@@QAEXXZ  10038340 f i solid:Object.obj
 0001:00037380       ?support@Simplex@@UBE?AVPoint@@ABVVector@@@Z 10038380 f   solid:Simplex.obj
 0001:00037470       ??AIndexArray@@QBEHH@Z     10038470 f i solid:Simplex.obj
 0001:00037490       ??APolytope@@QBEABVPoint@@H@Z 10038490 f i solid:Simplex.obj
 0001:000374d0       ??AVertexBase@@QBEABVPoint@@H@Z 100384d0 f i solid:Simplex.obj
 0001:000374f0       ?numVerts@Polytope@@QBEHXZ 100384f0 f i solid:Simplex.obj
 0001:00037520       ?size@IndexArray@@QBEHXZ   10038520 f i solid:Simplex.obj
 0001:00037540       ?support@Polygon@@UBE?AVPoint@@ABVVector@@@Z 10038540 f   solid:Polygon.obj
 0001:00037710       ??0Polyhedron@@QAE@ABVVertexBase@@HQBI@Z 10038710 f   solid:Polyhedron.obj
 0001:00037770       ??1Polyhedron@@UAE@XZ      10038770 f   solid:Polyhedron.obj
 0001:000377a0       ?support@Polyhedron@@UBE?AVPoint@@ABVVector@@@Z 100387a0 f   solid:Polyhedron.obj
 0001:00037890       ??_EPolyhedron@@UAEPAXI@Z  10038890 f i solid:Polyhedron.obj
 0001:00037890       ??_GPolyhedron@@UAEPAXI@Z  10038890 f i solid:Polyhedron.obj
 0001:000378d0       ??RResponse@@QBEXPAX0ABVPoint@@1ABVVector@@@Z 100388d0 f   solid:Response.obj
 0001:00037a30       ??RResponse@@QBEXPAX0@Z    10038a30 f   solid:Response.obj
 0001:00037a80       ?find@RespTable@@QBEABVResponse@@PAX0@Z 10038a80 f   solid:RespTable.obj
 0001:00037d40       ?cleanObject@RespTable@@QAEXPAX@Z 10038d40 f   solid:RespTable.obj
 0001:00037ee0       ??$_Allocate@PAX@std@@YAPAPAXIPAPAX@Z 10038ee0 f i solid:RespTable.obj
 0001:00037f40       ??$_Debug_pointer@PAX@std@@YAXPAPAXPB_WI@Z 10038f40 f i solid:RespTable.obj
 0001:00037f70       ??$_Debug_range2@PAPAX@std@@YAXPAPAX0PB_WIUrandom_access_iterator_tag@0@@Z 10038f70 f i solid:RespTable.obj
 0001:00037fd0       ??$_Debug_range@PAPAX@std@@YAXPAPAX0PB_WI@Z 10038fd0 f i solid:RespTable.obj
 0001:00038020       ??$_Destroy_range@U?$_Wrap_alloc@V?$allocator@PAX@std@@@std@@@std@@YAXPAPAX0AAU?$_Wrap_alloc@V?$allocator@PAX@std@@@0@@Z 10039020 f i solid:RespTable.obj
 0001:00038070       ??$_Destroy_range@U?$_Wrap_alloc@V?$allocator@PAX@std@@@std@@@std@@YAXPAPAX0AAU?$_Wrap_alloc@V?$allocator@PAX@std@@@0@U_Scalar_ptr_iterator_tag@0@@Z 10039070 f i solid:RespTable.obj
 0001:00038080       ??$_Iter_cat@PAPAX@std@@YA?AUrandom_access_iterator_tag@0@ABQAPAX@Z 10039080 f i solid:RespTable.obj
 0001:000380e0       ??$_Ptr_cat@PAXPAX@std@@YA?AU_Scalar_ptr_iterator_tag@0@PAPAX0@Z 100390e0 f i solid:RespTable.obj
 0001:00038130       ??$_Umove@PAPAX@?$vector@PAXV?$allocator@PAX@std@@@std@@IAEPAPAXPAPAX00@Z 10039130 f i solid:RespTable.obj
 0001:000381b0       ??$_Uninit_move@PAXPAXPAX@std@@YAPAPAXPAPAX00AAU?$_Wrap_alloc@V?$allocator@PAX@std@@@0@0U_Scalar_ptr_iterator_tag@0@@Z 100391b0 f i solid:RespTable.obj
 0001:00038230       ??$_Uninitialized_move@PAPAXPAPAXU?$_Wrap_alloc@V?$allocator@PAX@std@@@std@@@std@@YAPAPAXPAPAX00AAU?$_Wrap_alloc@V?$allocator@PAX@std@@@0@@Z 10039230 f i solid:RespTable.obj
 0001:00038290       ??$_Val_type@PAPAX@std@@YAPAPAXPAPAX@Z 10039290 f i solid:RespTable.obj
 0001:000382a0       ??$addressof@QAX@std@@YAPBQAXABQAX@Z 100392a0 f i solid:RespTable.obj
 0001:000382b0       ??$construct@PAXAAPAX@?$_Wrap_alloc@V?$allocator@PAX@std@@@std@@QAEXPAPAXAAPAX@Z 100392b0 f i solid:RespTable.obj
 0001:000382f0       ??$construct@PAXAAPAX@?$allocator@PAX@std@@QAEXPAPAXAAPAX@Z 100392f0 f i solid:RespTable.obj
 0001:000383a0       ??$construct@PAXAAPAX@?$allocator_traits@V?$allocator@PAX@std@@@std@@SAXAAV?$allocator@PAX@1@PAPAXAAPAX@Z 100393a0 f i solid:RespTable.obj
 0001:000383d0       ??$construct@PAXABQAX@?$_Wrap_alloc@V?$allocator@PAX@std@@@std@@QAEXPAPAXABQAX@Z 100393d0 f i solid:RespTable.obj
 0001:00038410       ??$construct@PAXABQAX@?$allocator_traits@V?$allocator@PAX@std@@@std@@SAXAAV?$allocator@PAX@1@PAPAXABQAX@Z 10039410 f i solid:RespTable.obj
 0001:00038440       ??$destroy@PAX@?$_Wrap_alloc@V?$allocator@PAX@std@@@std@@QAEXPAPAX@Z 10039440 f i solid:RespTable.obj
 0001:00038470       ??$destroy@PAX@?$allocator@PAX@std@@QAEXPAPAX@Z 10039470 f i solid:RespTable.obj
 0001:00038490       ??$destroy@PAX@?$allocator_traits@V?$allocator@PAX@std@@@std@@SAXAAV?$allocator@PAX@1@PAPAX@Z 10039490 f i solid:RespTable.obj
 0001:000384b0       ??0?$_Iterator012@Urandom_access_iterator_tag@std@@PAXHPBQAXABQAXU_Iterator_base12@2@@std@@QAE@ABU01@@Z 100394b0 f i solid:RespTable.obj
 0001:000384e0       ??0?$_Iterator012@Urandom_access_iterator_tag@std@@PAXHPBQAXABQAXU_Iterator_base12@2@@std@@QAE@XZ 100394e0 f i solid:RespTable.obj
 0001:00038510       ??0?$_Vector_alloc@$0A@U?$_Vec_base_types@PAXV?$allocator@PAX@std@@@std@@@std@@QAE@ABV?$allocator@PAX@1@@Z 10039510 f i solid:RespTable.obj
 0001:00038580       ??0?$_Vector_const_iterator@V?$_Vector_val@U?$_Simple_types@PAX@std@@@std@@@std@@QAE@ABV01@@Z 10039580 f i solid:RespTable.obj
 0001:000385c0       ??0?$_Vector_const_iterator@V?$_Vector_val@U?$_Simple_types@PAX@std@@@std@@@std@@QAE@PAPAXPBU_Container_base12@1@@Z 100395c0 f i solid:RespTable.obj
 0001:00038640       ??0?$_Vector_iterator@V?$_Vector_val@U?$_Simple_types@PAX@std@@@std@@@std@@QAE@ABV01@@Z 10039640 f i solid:RespTable.obj
 0001:00038670       ??0?$_Vector_iterator@V?$_Vector_val@U?$_Simple_types@PAX@std@@@std@@@std@@QAE@PAPAXPBU_Container_base12@1@@Z 10039670 f i solid:RespTable.obj
 0001:000386b0       ??0?$_Vector_val@U?$_Simple_types@PAX@std@@@std@@QAE@XZ 100396b0 f i solid:RespTable.obj
 0001:00038700       ??0?$_Wrap_alloc@V?$allocator@PAX@std@@@std@@QAE@XZ 10039700 f i solid:RespTable.obj
 0001:00038730       ??0?$allocator@PAX@std@@QAE@XZ 10039730 f i solid:RespTable.obj
 0001:00038750       ??0?$vector@PAXV?$allocator@PAX@std@@@std@@QAE@XZ 10039750 f i solid:RespTable.obj
 0001:00038790       ??1?$_Iterator012@Urandom_access_iterator_tag@std@@PAXHPBQAXABQAXU_Iterator_base12@2@@std@@QAE@XZ 10039790 f i solid:RespTable.obj
 0001:000387c0       ??1?$_Vector_alloc@$0A@U?$_Vec_base_types@PAXV?$allocator@PAX@std@@@std@@@std@@QAE@XZ 100397c0 f i solid:RespTable.obj
 0001:000387f0       ??1?$_Vector_const_iterator@V?$_Vector_val@U?$_Simple_types@PAX@std@@@std@@@std@@QAE@XZ 100397f0 f i solid:RespTable.obj
 0001:00038820       ??1?$_Vector_iterator@V?$_Vector_val@U?$_Simple_types@PAX@std@@@std@@@std@@QAE@XZ 10039820 f i solid:RespTable.obj
 0001:00038850       ??1?$_Vector_val@U?$_Simple_types@PAX@std@@@std@@QAE@XZ 10039850 f i solid:RespTable.obj
 0001:00038880       ??1?$vector@PAXV?$allocator@PAX@std@@@std@@QAE@XZ 10039880 f i solid:RespTable.obj
 0001:000388b0       ??D?$_Vector_const_iterator@V?$_Vector_val@U?$_Simple_types@PAX@std@@@std@@@std@@QBEABQAXXZ 100398b0 f i solid:RespTable.obj
 0001:00038970       ??D?$_Vector_iterator@V?$_Vector_val@U?$_Simple_types@PAX@std@@@std@@@std@@QBEAAPAXXZ 10039970 f i solid:RespTable.obj
 0001:000389a0       ??G?$_Vector_iterator@V?$_Vector_val@U?$_Simple_types@PAX@std@@@std@@@std@@QBE?AV01@H@Z 100399a0 f i solid:RespTable.obj
 0001:00038a80       ??Y?$_Vector_const_iterator@V?$_Vector_val@U?$_Simple_types@PAX@std@@@std@@@std@@QAEAAV01@H@Z 10039a80 f i solid:RespTable.obj
 0001:00038b60       ??Y?$_Vector_iterator@V?$_Vector_val@U?$_Simple_types@PAX@std@@@std@@@std@@QAEAAV01@H@Z 10039b60 f i solid:RespTable.obj
 0001:00038b90       ??Z?$_Vector_iterator@V?$_Vector_val@U?$_Simple_types@PAX@std@@@std@@@std@@QAEAAV01@H@Z 10039b90 f i solid:RespTable.obj
 0001:00038bc0       ?_Alloc_proxy@?$_Vector_alloc@$0A@U?$_Vec_base_types@PAXV?$allocator@PAX@std@@@std@@@std@@QAEXXZ 10039bc0 f i solid:RespTable.obj
 0001:00038c60       ?_Destroy@?$vector@PAXV?$allocator@PAX@std@@@std@@IAEXPAPAX0@Z 10039c60 f i solid:RespTable.obj
 0001:00038ce0       ?_Free_proxy@?$_Vector_alloc@$0A@U?$_Vec_base_types@PAXV?$allocator@PAX@std@@@std@@@std@@QAEXXZ 10039ce0 f i solid:RespTable.obj
 0001:00038d70       ?_Getal@?$_Vector_alloc@$0A@U?$_Vec_base_types@PAXV?$allocator@PAX@std@@@std@@@std@@QBE?AU?$_Wrap_alloc@V?$allocator@PAX@std@@@2@XZ 10039d70 f i solid:RespTable.obj
 0001:00038da0       ?_Grow_to@?$vector@PAXV?$allocator@PAX@std@@@std@@IBEII@Z 10039da0 f i solid:RespTable.obj
 0001:00038e20       ?_Inside@?$vector@PAXV?$allocator@PAX@std@@@std@@IBE_NPBQAX@Z 10039e20 f i solid:RespTable.obj
 0001:00038e70       ?_Lbound@?$_Tree@V?$_Tmap_traits@PAXVResponse@@U?$less@PAX@std@@V?$allocator@U?$pair@QAXVResponse@@@std@@@3@$0A@@std@@@std@@IBEPAU?$_Tree_node@U?$pair@QAXVResponse@@@std@@PAX@2@ABQAX@Z 10039e70 f i solid:RespTable.obj
 0001:00038f30       ?_Lbound@?$_Tree@V?$_Tmap_traits@U?$pair@PAXPAX@std@@VResponse@@U?$less@U?$pair@PAXPAX@std@@@2@V?$allocator@U?$pair@$$CBU?$pair@PAXPAX@std@@VResponse@@@std@@@2@$0A@@std@@@std@@IBEPAU?$_Tree_node@U?$pair@$$CBU?$pair@PAXPAX@std@@VResponse@@@std@@PAX@2@ABU?$pair@PAXPAX@2@@Z 10039f30 f i solid:RespTable.obj
 0001:00038ff0       ?_Orphan_range@?$vector@PAXV?$allocator@PAX@std@@@std@@IBEXPAPAX0@Z 10039ff0 f i solid:RespTable.obj
 0001:00039100       ?_Reallocate@?$vector@PAXV?$allocator@PAX@std@@@std@@IAEXI@Z 1003a100 f i solid:RespTable.obj
 0001:00039260       ?_Reserve@?$vector@PAXV?$allocator@PAX@std@@@std@@IAEXI@Z 1003a260 f i solid:RespTable.obj
 0001:000392d0       ?_Tidy@?$vector@PAXV?$allocator@PAX@std@@@std@@IAEXXZ 1003a2d0 f i solid:RespTable.obj
 0001:00039370       ?_Unused_capacity@?$vector@PAXV?$allocator@PAX@std@@@std@@QBEIXZ 1003a370 f i solid:RespTable.obj
 0001:000393a0       ?_Xlen@?$vector@PAXV?$allocator@PAX@std@@@std@@IBEXXZ 1003a3a0 f i solid:RespTable.obj
 0001:000393d0       ?allocate@?$_Wrap_alloc@V?$allocator@PAX@std@@@std@@QAEPAPAXI@Z 1003a3d0 f i solid:RespTable.obj
 0001:00039400       ?allocate@?$allocator@PAX@std@@QAEPAPAXI@Z 1003a400 f i solid:RespTable.obj
 0001:00039430       ?back@?$vector@PAXV?$allocator@PAX@std@@@std@@QAEAAPAXXZ 1003a430 f i solid:RespTable.obj
 0001:000394f0       ?capacity@?$vector@PAXV?$allocator@PAX@std@@@std@@QBEIXZ 1003a4f0 f i solid:RespTable.obj
 0001:00039520       ?construct@?$allocator@PAX@std@@QAEXPAPAXABQAX@Z 1003a520 f i solid:RespTable.obj
 0001:00039580       ?deallocate@?$_Wrap_alloc@V?$allocator@PAX@std@@@std@@QAEXPAPAXI@Z 1003a580 f i solid:RespTable.obj
 0001:000395b0       ?deallocate@?$allocator@PAX@std@@QAEXPAPAXI@Z 1003a5b0 f i solid:RespTable.obj
 0001:000395e0       ?empty@?$vector@PAXV?$allocator@PAX@std@@@std@@QBE_NXZ 1003a5e0 f i solid:RespTable.obj
 0001:00039620       ?end@?$_Tree@V?$_Tmap_traits@PAXVResponse@@U?$less@PAX@std@@V?$allocator@U?$pair@QAXVResponse@@@std@@@3@$0A@@std@@@std@@QBE?AV?$_Tree_const_iterator@V?$_Tree_val@U?$_Tree_simple_types@U?$pair@QAXVResponse@@@std@@@std@@@std@@@2@XZ 1003a620 f i solid:RespTable.obj
 0001:00039660       ?end@?$_Tree@V?$_Tmap_traits@U?$pair@PAXPAX@std@@VResponse@@U?$less@U?$pair@PAXPAX@std@@@2@V?$allocator@U?$pair@$$CBU?$pair@PAXPAX@std@@VResponse@@@std@@@2@$0A@@std@@@std@@QBE?AV?$_Tree_const_iterator@V?$_Tree_val@U?$_Tree_simple_types@U?$pair@$$CBU?$pair@PAXPAX@std@@VResponse@@@std@@@std@@@std@@@2@XZ 1003a660 f i solid:RespTable.obj
 0001:000396a0       ?end@?$vector@PAXV?$allocator@PAX@std@@@std@@QAE?AV?$_Vector_iterator@V?$_Vector_val@U?$_Simple_types@PAX@std@@@std@@@2@XZ 1003a6a0 f i solid:RespTable.obj
 0001:000396e0       ?find@?$_Tree@V?$_Tmap_traits@PAXVResponse@@U?$less@PAX@std@@V?$allocator@U?$pair@QAXVResponse@@@std@@@3@$0A@@std@@@std@@QBE?AV?$_Tree_const_iterator@V?$_Tree_val@U?$_Tree_simple_types@U?$pair@QAXVResponse@@@std@@@std@@@std@@@2@ABQAX@Z 1003a6e0 f i solid:RespTable.obj
 0001:000398d0       ?find@?$_Tree@V?$_Tmap_traits@U?$pair@PAXPAX@std@@VResponse@@U?$less@U?$pair@PAXPAX@std@@@2@V?$allocator@U?$pair@$$CBU?$pair@PAXPAX@std@@VResponse@@@std@@@2@$0A@@std@@@std@@QBE?AV?$_Tree_const_iterator@V?$_Tree_val@U?$_Tree_simple_types@U?$pair@$$CBU?$pair@PAXPAX@std@@VResponse@@@std@@@std@@@std@@@2@ABU?$pair@PAXPAX@2@@Z 1003a8d0 f i solid:RespTable.obj
 0001:00039ac0       ?lower_bound@?$_Tree@V?$_Tmap_traits@PAXVResponse@@U?$less@PAX@std@@V?$allocator@U?$pair@QAXVResponse@@@std@@@3@$0A@@std@@@std@@QBE?AV?$_Tree_const_iterator@V?$_Tree_val@U?$_Tree_simple_types@U?$pair@QAXVResponse@@@std@@@std@@@std@@@2@ABQAX@Z 1003aac0 f i solid:RespTable.obj
 0001:00039b20       ?lower_bound@?$_Tree@V?$_Tmap_traits@U?$pair@PAXPAX@std@@VResponse@@U?$less@U?$pair@PAXPAX@std@@@2@V?$allocator@U?$pair@$$CBU?$pair@PAXPAX@std@@VResponse@@@std@@@2@$0A@@std@@@std@@QBE?AV?$_Tree_const_iterator@V?$_Tree_val@U?$_Tree_simple_types@U?$pair@$$CBU?$pair@PAXPAX@std@@VResponse@@@std@@@std@@@std@@@2@ABU?$pair@PAXPAX@2@@Z 1003ab20 f i solid:RespTable.obj
 0001:00039b80       ?max_size@?$_Wrap_alloc@V?$allocator@PAX@std@@@std@@QBEIXZ 1003ab80 f i solid:RespTable.obj
 0001:00039bb0       ?max_size@?$allocator@PAX@std@@QBEIXZ 1003abb0 f i solid:RespTable.obj
 0001:00039bd0       ?max_size@?$allocator_traits@V?$allocator@PAX@std@@@std@@SAIABV?$allocator@PAX@2@@Z 1003abd0 f i solid:RespTable.obj
 0001:00039bf0       ?max_size@?$vector@PAXV?$allocator@PAX@std@@@std@@QBEIXZ 1003abf0 f i solid:RespTable.obj
 0001:00039c30       ?pop_back@?$vector@PAXV?$allocator@PAX@std@@@std@@QAEXXZ 1003ac30 f i solid:RespTable.obj
 0001:00039cd0       ?push_back@?$vector@PAXV?$allocator@PAX@std@@@std@@QAEXABQAX@Z 1003acd0 f i solid:RespTable.obj
 0001:00039e00       ?size@?$vector@PAXV?$allocator@PAX@std@@@std@@QBEIXZ 1003ae00 f i solid:RespTable.obj
 0001:00039e30       ?fitBBox@BBoxLeaf@@QAEXXZ  1003ae30 f   solid:BBoxTree.obj
 0001:00039ea0       ??0BBoxInternal@@QAE@HPAVBBoxLeaf@@@Z 1003aea0 f   solid:BBoxTree.obj
 0001:0003a100       ?intersect@@YA_NPBVBBoxNode@@ABVConvex@@ABVBBox@@ABVTransform@@AAVVector@@@Z 1003b100 f   solid:BBoxTree.obj
 0001:0003a1c0       ?intersect@@YA_NPBVBBoxNode@@0ABVTransform@@ABVMatrix@@12AAVVector@@@Z 1003b1c0 f   solid:BBoxTree.obj
 0001:0003a390       ?find_prim@@YA_NPBVBBoxNode@@ABVConvex@@ABVBBox@@ABVTransform@@AAVVector@@AAPBVShape@@@Z 1003b390 f   solid:BBoxTree.obj
 0001:0003a470       ?find_prim@@YA_NPBVBBoxNode@@0ABVTransform@@ABVMatrix@@12AAVVector@@AAPBVShape@@4@Z 1003b470 f   solid:BBoxTree.obj
 0001:0003a680       ?common_point@@YA_NPBVBBoxNode@@ABVConvex@@ABVBBox@@ABVTransform@@AAVVector@@AAVPoint@@5@Z 1003b680 f   solid:BBoxTree.obj
 0001:0003a760       ?common_point@@YA_NPBVBBoxNode@@0ABVTransform@@ABVMatrix@@12AAVVector@@AAVPoint@@4@Z 1003b760 f   solid:BBoxTree.obj
 0001:0003a950       ??$_Move@AAVBBoxLeaf@@@std@@YA$$QAVBBoxLeaf@@AAV1@@Z 1003b950 f i solid:BBoxTree.obj
 0001:0003a960       ??$swap@VBBoxLeaf@@@std@@YAXAAVBBoxLeaf@@0@Z 1003b960 f i solid:BBoxTree.obj
 0001:0003aa10       ??0BBoxCompAxis@@QAE@H@Z   1003ba10 f i solid:BBoxTree.obj
 0001:0003aa30       ?closestAxis@Vector@@QBEHXZ 1003ba30 f i solid:BBoxTree.obj
 0001:0003ab60       ?include@BBox@@QAEXABV1@@Z 1003bb60 f i solid:BBoxTree.obj
 0001:0003ab90       ?include@BBox@@QAEXABVPoint@@@Z 1003bb90 f i solid:BBoxTree.obj
 0001:0003ad60       ?intersect@@YA_NABVBBox@@0@Z 1003bd60 f i solid:BBoxTree.obj
 0001:0003aee0       ?intersect@@YA_NABVBBox@@0ABVTransform@@ABVMatrix@@12@Z 1003bee0 f i solid:BBoxTree.obj
 0001:0003afa0       ?longestAxis@BBox@@QBEHXZ  1003bfa0 f i solid:BBoxTree.obj
 0001:0003afd0       ?sep_axes_test@@YA_NABVVector@@0ABVMatrix@@010@Z 1003bfd0 f i solid:BBoxTree.obj
 0001:0003b290       ?setEmpty@BBox@@QAEXXZ     1003c290 f i solid:BBoxTree.obj
 0001:0003b340       ?size@BBox@@QBENXZ         1003c340 f i solid:BBoxTree.obj
 0001:0003b3c0       ??0Endpoint@@QAE@HHPBVObject@@@Z 1003c3c0 f   solid:Endpoint.obj
 0001:0003b420       ?move@Endpoint@@QAEXN@Z    1003c420 f   solid:Endpoint.obj
 0001:0003b5a0       ??0EndpointList@@QAE@XZ    1003c5a0 f i solid:Endpoint.obj
 0001:0003b650       ??1EndpointList@@QAE@XZ    1003c650 f i solid:Endpoint.obj
 0001:0003b6c0       ??M@YA_NABVEndpoint@@0@Z   1003c6c0 f i solid:Endpoint.obj
 0001:0003b720       ?getBBox@Object@@QBEABVBBox@@XZ 1003c720 f i solid:Endpoint.obj
 0001:0003b740       ?insert@Endpoint@@AAEXPAV1@@Z 1003c740 f i solid:Endpoint.obj
 0001:0003b780       ?sgn@@YAHN@Z               1003c780 f i solid:Endpoint.obj
 0001:0003b7e0       ?update@@YAXABVEndpoint@@0@Z 1003c7e0 f i solid:Endpoint.obj
 0001:0003b866       ?GfParmGetNum@@YAMPAXPBD11M@Z 1003c866 f   tgf:tgf.dll
 0001:0003b86c       ?GfParmGetStr@@YAPBDPAXPBD11@Z 1003c86c f   tgf:tgf.dll
 0001:0003b872       ?_tgf_win_malloc@@YAPAXI@Z 1003c872 f   tgf:tgf.dll
 0001:0003b878       ?_tgf_win_free@@YAXPAX@Z   1003c878 f   tgf:tgf.dll
 0001:0003b87e       ?GfParmGetEltNb@@YAHPAXPBD@Z 1003c87e f   tgf:tgf.dll
 0001:0003b884       ?_tgf_win_calloc@@YAPAXII@Z 1003c884 f   tgf:tgf.dll
 0001:0003b88a       ?_tgf_win_strdup@@YAPADPBD@Z 1003c88a f   tgf:tgf.dll
 0001:0003b890       ?RtTrackGlobal2Local@@YAXPAUtrackSeg@@MMPAUtTrkLocPos@@H@Z 1003c890 f   robottools:robottools.dll
 0001:0003b896       ?RtTrackSurfaceNormalL@@YAXPAUtTrkLocPos@@PAUt3Dd@@@Z 1003c896 f   robottools:robottools.dll
 0001:0003b89c       ?RtTrackLocal2Global@@YAXPAUtTrkLocPos@@PAM1H@Z 1003c89c f   robottools:robottools.dll
 0001:0003b8a2       ?RtTrackHeightL@@YAMPAUtTrkLocPos@@@Z 1003c8a2 f   robottools:robottools.dll
 0001:0003b8a8       ?RtTrackSideTgAngleL@@YAMPAUtTrkLocPos@@@Z 1003c8a8 f   robottools:robottools.dll
 0001:0003b8b0       ?sgdSqrt@@YANN@Z           1003c8b0 f i sg_vs2008_32:sgd.obj
 0001:0003b8c0       ?sgdSquare@@YANN@Z         1003c8c0 f i sg_vs2008_32:sgd.obj
 0001:0003b8d0       ?sgdAbs@@YANN@Z            1003c8d0 f i sg_vs2008_32:sgd.obj
 0001:0003b8f0       ?sgdASin@@YANN@Z           1003c8f0 f i sg_vs2008_32:sgd.obj
 0001:0003b900       ?sgdACos@@YANN@Z           1003c900 f i sg_vs2008_32:sgd.obj
 0001:0003b910       ?sgdATan2@@YANNN@Z         1003c910 f i sg_vs2008_32:sgd.obj
 0001:0003b930       ?sgdSin@@YANN@Z            1003c930 f i sg_vs2008_32:sgd.obj
 0001:0003b940       ?sgdCos@@YANN@Z            1003c940 f i sg_vs2008_32:sgd.obj
 0001:0003b950       ?sgdZeroVec3@@YAXQAN@Z     1003c950 f i sg_vs2008_32:sgd.obj
 0001:0003b960       ?sgdSetVec3@@YAXQANNNN@Z   1003c960 f i sg_vs2008_32:sgd.obj
 0001:0003b980       ?sgdSetVec4@@YAXQANNNNN@Z  1003c980 f i sg_vs2008_32:sgd.obj
 0001:0003b9a0       ?sgdCopyVec3@@YAXQANQBN@Z  1003c9a0 f i sg_vs2008_32:sgd.obj
 0001:0003b9c0       ?sgdCopyVec4@@YAXQANQBN@Z  1003c9c0 f i sg_vs2008_32:sgd.obj
 0001:0003b9e0       ?sgdAddVec3@@YAXQANQBN1@Z  1003c9e0 f i sg_vs2008_32:sgd.obj
 0001:0003ba10       ?sgdSubVec2@@YAXQANQBN1@Z  1003ca10 f i sg_vs2008_32:sgd.obj
 0001:0003ba30       ?sgdSubVec3@@YAXQANQBN1@Z  1003ca30 f i sg_vs2008_32:sgd.obj
 0001:0003ba60       ?sgdNegateVec3@@YAXQAN@Z   1003ca60 f i sg_vs2008_32:sgd.obj
 0001:0003ba80       ?sgdScaleVec2@@YAXQANN@Z   1003ca80 f i sg_vs2008_32:sgd.obj
 0001:0003baa0       ?sgdScaleVec3@@YAXQANN@Z   1003caa0 f i sg_vs2008_32:sgd.obj
 0001:0003bac0       ?sgdScaleVec3@@YAXQANQBNN@Z 1003cac0 f i sg_vs2008_32:sgd.obj
 0001:0003baf0       ?sgdScaleVec4@@YAXQANQBNN@Z 1003caf0 f i sg_vs2008_32:sgd.obj
 0001:0003bb20       ?sgdAddScaledVec3@@YAXQANQBN1N@Z 1003cb20 f i sg_vs2008_32:sgd.obj
 0001:0003bb50       ?sgdScalarProductVec2@@YANQBN0@Z 1003cb50 f i sg_vs2008_32:sgd.obj
 0001:0003bb70       ?sgdScalarProductVec3@@YANQBN0@Z 1003cb70 f i sg_vs2008_32:sgd.obj
 0001:0003bb90       ?sgdScalarProductVec4@@YANQBN0@Z 1003cb90 f i sg_vs2008_32:sgd.obj
 0001:0003bbc0       ?sgdDistanceSquaredVec3@@YANQBN0@Z 1003cbc0 f i sg_vs2008_32:sgd.obj
 0001:0003bbf0       ?sgdDistanceVec3@@YANQBN0@Z 1003cbf0 f i sg_vs2008_32:sgd.obj
 0001:0003bc20       ?sgdLengthVec2@@YANQBN@Z   1003cc20 f i sg_vs2008_32:sgd.obj
 0001:0003bc40       ?sgdLengthVec3@@YANQBN@Z   1003cc40 f i sg_vs2008_32:sgd.obj
 0001:0003bc70       ?sgdNormaliseVec2@@YAXQAN@Z 1003cc70 f i sg_vs2008_32:sgd.obj
 0001:0003bca0       ?sgdNormaliseVec3@@YAXQAN@Z 1003cca0 f i sg_vs2008_32:sgd.obj
 0001:0003bce0       ?sgdNormaliseVec3@@YAXQANQBN@Z 1003cce0 f i sg_vs2008_32:sgd.obj
 0001:0003bd20       ?sgdCopyMat4@@YAXQAY03NQAY03$$CBN@Z 1003cd20 f i sg_vs2008_32:sgd.obj
 0001:0003bd90       ?sgdScaleMat4@@YAXQAY03NQAY03$$CBNN@Z 1003cd90 f i sg_vs2008_32:sgd.obj
 0001:0003be20       ?sgdMakeIdentMat4@@YAXQAY03N@Z 1003ce20 f i sg_vs2008_32:sgd.obj
 0001:0003be60       ?sgdLineSegment3ToLine3@@YAXPAUsgdLine3@@UsgdLineSegment3@@@Z 1003ce60 f i sg_vs2008_32:sgd.obj
 0001:0003bed0       ?sgdAngleBetweenNormalizedVec3@@YANQAN0@Z 1003ced0 f i sg_vs2008_32:sgd.obj
 0001:0003bf40       ?getCenter@sgdSphere@@QBEPBNXZ 1003cf40 f i sg_vs2008_32:sgd.obj
 0001:0003bf50       ?getRadius@sgdSphere@@QBENXZ 1003cf50 f i sg_vs2008_32:sgd.obj
 0001:0003bf60       ?isEmpty@sgdSphere@@QBEHXZ 1003cf60 f i sg_vs2008_32:sgd.obj
 0001:0003bf80       ?getMin@sgdBox@@QBEPBNXZ   1003cf80 f i sg_vs2008_32:sgd.obj
 0001:0003bf90       ?getMax@sgdBox@@QBEPBNXZ   1003cf90 f i sg_vs2008_32:sgd.obj
 0001:0003bfa0       ?isEmpty@sgdBox@@QBEHXZ    1003cfa0 f i sg_vs2008_32:sgd.obj
 0001:0003bfd0       ?sgdVectorProductVec3@@YAXQANQBN1@Z 1003cfd0 f   sg_vs2008_32:sgd.obj
 0001:0003c010       ?_sgdClampToUnity@@YANN@Z  1003d010 f i sg_vs2008_32:sgd.obj
 0001:0003c040       ?sgdCompare3DSqdDist@@YAHQBN0N@Z 1003d040 f   sg_vs2008_32:sgd.obj
 0001:0003c0a0       ?sgdMakeRotMat4@@YAXQAY03NNQBN@Z 1003d0a0 f   sg_vs2008_32:sgd.obj
 0001:0003c1d0       ?sgdMakePickMatrix@@YAXQAY03NNNNNQAN@Z 1003d1d0 f   sg_vs2008_32:sgd.obj
 0001:0003c250       ?sgdMakeLookAtMat4@@YAXQAY03NQBN11@Z 1003d250 f   sg_vs2008_32:sgd.obj
 0001:0003c3d0       ?sgdAngleBetweenVec3@@YANQAN0@Z 1003d3d0 f   sg_vs2008_32:sgd.obj
 0001:0003c470       ?sgdAngleBetweenNormalizedVec3@@YANQAN00@Z 1003d470 f   sg_vs2008_32:sgd.obj
 0001:0003c600       ?sgdAngleBetweenVec3@@YANQAN00@Z 1003d600 f   sg_vs2008_32:sgd.obj
 0001:0003c6a0       ?extend@sgdBox@@QAEXQBN@Z  1003d6a0 f   sg_vs2008_32:sgd.obj
 0001:0003c770       ?extend@sgdBox@@QAEXPBV1@@Z 1003d770 f   sg_vs2008_32:sgd.obj
 0001:0003c800       ?extend@sgdBox@@QAEXPBVsgdSphere@@@Z 1003d800 f   sg_vs2008_32:sgd.obj
 0001:0003c870       ?intersects@sgdBox@@QBEHQBN@Z 1003d870 f   sg_vs2008_32:sgd.obj
 0001:0003c9b0       ?extend@sgdSphere@@QAEXQBN@Z 1003d9b0 f   sg_vs2008_32:sgd.obj
 0001:0003ca60       ?extend@sgdSphere@@QAEXPBVsgdBox@@@Z 1003da60 f   sg_vs2008_32:sgd.obj
 0001:0003cbf0       ?extend@sgdSphere@@QAEXPBV1@@Z 1003dbf0 f   sg_vs2008_32:sgd.obj
 0001:0003ccc0       ?intersects@sgdSphere@@QBEHPBVsgdBox@@@Z 1003dcc0 f   sg_vs2008_32:sgd.obj
 0001:0003cd70       ?update@sgdFrustum@@AAEXXZ 1003dd70 f   sg_vs2008_32:sgd.obj
 0001:0003d170       ?contains@sgdFrustum@@QBEHPBVsgdSphere@@@Z 1003e170 f   sg_vs2008_32:sgd.obj
 0001:0003d2e0       ?sgdDistSquaredToLineVec3@@YANUsgdLine3@@QBN@Z 1003e2e0 f   sg_vs2008_32:sgd.obj
 0001:0003d320       ?sgdDistSquaredToLineSegmentVec3@@YANUsgdLineSegment3@@QBN@Z 1003e320 f   sg_vs2008_32:sgd.obj
 0001:0003d430       ?sgdMakeCoordMat4@@YAXQAY03NNNNNNN@Z 1003e430 f   sg_vs2008_32:sgd.obj
 0001:0003d5f0       ?sgdMakeTransMat4@@YAXQAY03NQBN@Z 1003e5f0 f   sg_vs2008_32:sgd.obj
 0001:0003d640       ?sgdMakeTransMat4@@YAXQAY03NNNN@Z 1003e640 f   sg_vs2008_32:sgd.obj
 0001:0003d690       ?sgdSetCoord@@YAXPAUsgdCoord@@QAY03$$CBN@Z 1003e690 f   sg_vs2008_32:sgd.obj
 0001:0003d990       ?sgdMakeNormal@@YAXQANQBN1@Z 1003e990 f   sg_vs2008_32:sgd.obj
 0001:0003d9e0       ?sgdMakeNormal@@YAXQANQBN11@Z 1003e9e0 f   sg_vs2008_32:sgd.obj
 0001:0003da80       ?sgdMultMat4@@YAXQAY03NQAY03$$CBN1@Z 1003ea80 f   sg_vs2008_32:sgd.obj
 0001:0003db30       ?sgdTransposeNegateMat4@@YAXQAY03NQAY03$$CBN@Z 1003eb30 f   sg_vs2008_32:sgd.obj
 0001:0003dbd0       ?sgdTransposeNegateMat4@@YAXQAY03N@Z 1003ebd0 f   sg_vs2008_32:sgd.obj
 0001:0003dc00       ?sgdInvertMat4@@YAXQAY03NQAY03$$CBN@Z 1003ec00 f   sg_vs2008_32:sgd.obj
 0001:0003de20       ?sgdXformVec3@@YAXQANQBNQAY03$$CBN@Z 1003ee20 f   sg_vs2008_32:sgd.obj
 0001:0003de80       ?sgdXformPnt3@@YAXQANQBNQAY03$$CBN@Z 1003ee80 f   sg_vs2008_32:sgd.obj
 0001:0003dee0       ?sgdXformPnt4@@YAXQANQBNQAY03$$CBN@Z 1003eee0 f   sg_vs2008_32:sgd.obj
 0001:0003df70       ?sgdFullXformPnt3@@YAXQANQBNQAY03$$CBN@Z 1003ef70 f   sg_vs2008_32:sgd.obj
 0001:0003dfd0       ?sgdHPRfromVec3@@YAXQAN0@Z 1003efd0 f   sg_vs2008_32:sgd.obj
 0001:0003e070       ?sgdQuatToAngleAxis@@YAXPANQANQBN@Z 1003f070 f   sg_vs2008_32:sgd.obj
 0001:0003e0f0       ?sgdAngleAxisToQuat@@YAXQANNQBN@Z 1003f0f0 f   sg_vs2008_32:sgd.obj
 0001:0003e190       ?sgdMatrixToQuat@@YAXQANQAY03$$CBN@Z 1003f190 f   sg_vs2008_32:sgd.obj
 0001:0003e2f0       ?sgdMultQuat@@YAXQANQBN1@Z 1003f2f0 f   sg_vs2008_32:sgd.obj
 0001:0003e3c0       ?sgdMultQuat2@@YAXQANQBN1@Z 1003f3c0 f   sg_vs2008_32:sgd.obj
 0001:0003e490       ?sgdEulerToQuat@@YAXQANQBN@Z 1003f490 f   sg_vs2008_32:sgd.obj
 0001:0003e580       ?sgdQuatToEuler@@YAXQANQBN@Z 1003f580 f   sg_vs2008_32:sgd.obj
 0001:0003e6e0       ?sgdQuatToMatrix@@YAXQAY03NQBN@Z 1003f6e0 f   sg_vs2008_32:sgd.obj
 0001:0003e7b0       ?sgdMakeRotMat42@@YAXQAY03NQAN@Z 1003f7b0 f   sg_vs2008_32:sgd.obj
 0001:0003e880       ?sgdSlerpQuat2@@YAXQANQBN1N@Z 1003f880 f   sg_vs2008_32:sgd.obj
 0001:0003e9a0       ?sgdSlerpQuat@@YAXQANQBN1N@Z 1003f9a0 f   sg_vs2008_32:sgd.obj
 0001:0003ea90       ?sgdRotateVecQuat@@YAXQAN0@Z 1003fa90 f   sg_vs2008_32:sgd.obj
 0001:0003eb80       ?sgdRotateCoordQuat@@YAXQAN0@Z 1003fb80 f   sg_vs2008_32:sgd.obj
 0001:0003ec70       ?sgdDistSquaredToLineLineSegment@@YANUsgdLineSegment3@@UsgdLine3@@@Z 1003fc70 f   sg_vs2008_32:sgd.obj
 0001:0003ee80       ?sgdReflectInPlaneVec3@@YAXQANQBN1@Z 1003fe80 f   sg_vs2008_32:sgd.obj
 0001:0003eed0       ?sgdClassifyMat4@@YAHQAY03$$CBN@Z 1003fed0 f   sg_vs2008_32:sgd.obj
 0001:0003f190       ?sgdTriangleSolver_SAStoArea@@YANNNN@Z 10040190 f   sg_vs2008_32:sgd.obj
 0001:0003f1b0       ?sgdTriangleSolver_SSStoArea@@YANNNN@Z 100401b0 f   sg_vs2008_32:sgd.obj
 0001:0003f200       ?sgdTriangleSolver_SSStoAAA@@YAXNNNPAN00@Z 10040200 f   sg_vs2008_32:sgd.obj
 0001:0003f3a0       ?sgdTriangleSolver_SAStoASA@@YAXNNNPAN00@Z 100403a0 f   sg_vs2008_32:sgd.obj
 0001:0003f420       ?sgdTriangleSolver_ASAtoSAS@@YAXNNNPAN00@Z 10040420 f   sg_vs2008_32:sgd.obj
 0001:0003f4d0       ?sgdTriangleSolver_ASStoSAA@@YAXNNNHPAN00@Z 100404d0 f   sg_vs2008_32:sgd.obj
 0001:0003f560       ?sgdTriangleSolver_SAAtoASS@@YAXNNNPAN00@Z 10040560 f   sg_vs2008_32:sgd.obj
 0001:0003f5b0       ?sgdTriArea@@YANQAN00@Z    100405b0 f   sg_vs2008_32:sgd.obj
 0001:0003f690       ?getOutcode@sgdFrustum@@ABEHQBN@Z 10040690 f   sg_vs2008_32:sgd.obj
 0001:0003f770       ?contains@sgdFrustum@@QBEHQBN@Z 10040770 f   sg_vs2008_32:sgd.obj
 0001:0003f790       ?contains@sgdFrustum@@QBEHPBVsgdBox@@@Z 10040790 f   sg_vs2008_32:sgd.obj
 0001:0003f8b0       ?sgdPreMultMat4@@YAXQAY03NQAY03$$CBN@Z 100408b0 f   sg_vs2008_32:sgd.obj
 0001:0003f8f0       ?sgdPostMultMat4@@YAXQAY03NQAY03$$CBN@Z 100408f0 f   sg_vs2008_32:sgd.obj
 0001:0003f930       ?sgdQuatToAngleAxis@@YAXPAN000QBN@Z 10040930 f   sg_vs2008_32:sgd.obj
 0001:0003f970       ?sgdAngleAxisToQuat@@YAXQANNNNN@Z 10040970 f   sg_vs2008_32:sgd.obj
 0001:0003f9b0       ?sgdTriangleSolver_ASAtoArea@@YANNNN@Z 100409b0 f   sg_vs2008_32:sgd.obj
 0001:0003fa20       ?sgdTriangleSolver_ASStoArea@@YANNNNH@Z 10040a20 f   sg_vs2008_32:sgd.obj
 0001:0003fa80       ?sgdTriangleSolver_SAAtoArea@@YANNNN@Z 10040a80 f   sg_vs2008_32:sgd.obj
 0001:0003fae0       _acosf                     10040ae0 f i sg_vs2008_32:sg.obj
 0001:0003fb00       ?acos@@YAMM@Z              10040b00 f i sg_vs2008_32:sg.obj
 0001:0003fb20       ?sgSquare@@YAMM@Z          10040b20 f i sg_vs2008_32:sg.obj
 0001:0003fb30       ?sgAbs@@YAMM@Z             10040b30 f i sg_vs2008_32:sg.obj
 0001:0003fb50       ?sgASin@@YAMM@Z            10040b50 f i sg_vs2008_32:sg.obj
 0001:0003fb70       ?sgACos@@YAMM@Z            10040b70 f i sg_vs2008_32:sg.obj
 0001:0003fb90       ?sgATan2@@YAMMM@Z          10040b90 f i sg_vs2008_32:sg.obj
 0001:0003fbc0       ?sgSin@@YAMM@Z             10040bc0 f i sg_vs2008_32:sg.obj
 0001:0003fbe0       ?sgCos@@YAMM@Z             10040be0 f i sg_vs2008_32:sg.obj
 0001:0003fc00       ?sgZeroVec3@@YAXQAM@Z      10040c00 f i sg_vs2008_32:sg.obj
 0001:0003fc10       ?sgSetVec3@@YAXQAMMMM@Z    10040c10 f i sg_vs2008_32:sg.obj
 0001:0003fc30       ?sgSetVec4@@YAXQAMMMMM@Z   10040c30 f i sg_vs2008_32:sg.obj
 0001:0003fc50       ?sgCopyVec3@@YAXQAMQBM@Z   10040c50 f i sg_vs2008_32:sg.obj
 0001:0003fc70       ?sgCopyVec4@@YAXQAMQBM@Z   10040c70 f i sg_vs2008_32:sg.obj
 0001:0003fc90       ?sgAddVec3@@YAXQAMQBM1@Z   10040c90 f i sg_vs2008_32:sg.obj
 0001:0003fcc0       ?sgSubVec3@@YAXQAMQBM1@Z   10040cc0 f i sg_vs2008_32:sg.obj
 0001:0003fcf0       ?sgNegateVec3@@YAXQAM@Z    10040cf0 f i sg_vs2008_32:sg.obj
 0001:0003fd10       ?sgScaleVec3@@YAXQAMM@Z    10040d10 f i sg_vs2008_32:sg.obj
 0001:0003fd40       ?sgScaleVec3@@YAXQAMQBMM@Z 10040d40 f i sg_vs2008_32:sg.obj
 0001:0003fd70       ?sgScaleVec4@@YAXQAMQBMM@Z 10040d70 f i sg_vs2008_32:sg.obj
 0001:0003fda0       ?sgAddScaledVec3@@YAXQAMQBM1M@Z 10040da0 f i sg_vs2008_32:sg.obj
 0001:0003fde0       ?sgScalarProductVec3@@YAMQBM0@Z 10040de0 f i sg_vs2008_32:sg.obj
 0001:0003fe10       ?sgScalarProductVec4@@YAMQBM0@Z 10040e10 f i sg_vs2008_32:sg.obj
 0001:0003fe40       ?sgDistanceSquaredVec3@@YAMQBM0@Z 10040e40 f i sg_vs2008_32:sg.obj
 0001:0003feb0       ?sgDistanceVec3@@YAMQBM0@Z 10040eb0 f i sg_vs2008_32:sg.obj
 0001:0003ff20       ?sgLengthVec3@@YAMQBM@Z    10040f20 f i sg_vs2008_32:sg.obj
 0001:0003ff60       ?sgNormaliseVec3@@YAXQAM@Z 10040f60 f i sg_vs2008_32:sg.obj
 0001:0003ffc0       ?sgNormaliseVec3@@YAXQAMQBM@Z 10040fc0 f i sg_vs2008_32:sg.obj
 0001:00040020       ?sgCopyMat4@@YAXQAY03MQAY03$$CBM@Z 10041020 f i sg_vs2008_32:sg.obj
 0001:00040090       ?sgScaleMat4@@YAXQAY03MQAY03$$CBMM@Z 10041090 f i sg_vs2008_32:sg.obj
 0001:00040120       ?sgMakeIdentMat4@@YAXQAY03M@Z 10041120 f i sg_vs2008_32:sg.obj
 0001:00040160       ?sgLineSegment3ToLine3@@YAXPAUsgLine3@@UsgLineSegment3@@@Z 10041160 f i sg_vs2008_32:sg.obj
 0001:000401a0       ?sgAngleBetweenNormalizedVec3@@YAMQAM0@Z 100411a0 f i sg_vs2008_32:sg.obj
 0001:00040210       ?getCenter@sgSphere@@QBEPBMXZ 10041210 f i sg_vs2008_32:sg.obj
 0001:00040220       ?getRadius@sgSphere@@QBEMXZ 10041220 f i sg_vs2008_32:sg.obj
 0001:00040230       ?isEmpty@sgSphere@@QBEHXZ  10041230 f i sg_vs2008_32:sg.obj
 0001:00040250       ?getMin@sgBox@@QBEPBMXZ    10041250 f i sg_vs2008_32:sg.obj
 0001:00040260       ?getMax@sgBox@@QBEPBMXZ    10041260 f i sg_vs2008_32:sg.obj
 0001:00040270       ?isEmpty@sgBox@@QBEHXZ     10041270 f i sg_vs2008_32:sg.obj
 0001:000402b0       ?sgVectorProductVec3@@YAXQAMQBM1@Z 100412b0 f   sg_vs2008_32:sg.obj
 0001:000402f0       ?_sgClampToUnity@@YAMM@Z   100412f0 f i sg_vs2008_32:sg.obj
 0001:00040320       ?sgCompare3DSqdDist@@YAHQBM0M@Z 10041320 f   sg_vs2008_32:sg.obj
 0001:000403a0       ?sgMakeRotMat4@@YAXQAY03MMQBM@Z 100413a0 f   sg_vs2008_32:sg.obj
 0001:000404b0       ?sgMakePickMatrix@@YAXQAY03MMMMMQAM@Z 100414b0 f   sg_vs2008_32:sg.obj
 0001:00040550       ?sgMakeLookAtMat4@@YAXQAY03MQBM11@Z 10041550 f   sg_vs2008_32:sg.obj
 0001:00040740       ?sgAngleBetweenVec3@@YAMQAM0@Z 10041740 f   sg_vs2008_32:sg.obj
 0001:00040780       ?sgAngleBetweenNormalizedVec3@@YAMQAM00@Z 10041780 f   sg_vs2008_32:sg.obj
 0001:00040970       ?sgAngleBetweenVec3@@YAMQAM00@Z 10041970 f   sg_vs2008_32:sg.obj
 0001:000409b0       ?extend@sgBox@@QAEXQBM@Z   100419b0 f   sg_vs2008_32:sg.obj
 0001:00040a90       ?extend@sgBox@@QAEXPBV1@@Z 10041a90 f   sg_vs2008_32:sg.obj
 0001:00040b30       ?extend@sgBox@@QAEXPBVsgSphere@@@Z 10041b30 f   sg_vs2008_32:sg.obj
 0001:00040ba0       ?intersects@sgBox@@QBEHQBM@Z 10041ba0 f   sg_vs2008_32:sg.obj
 0001:00040d00       ?extend@sgSphere@@QAEXQBM@Z 10041d00 f   sg_vs2008_32:sg.obj
 0001:00040db0       ?extend@sgSphere@@QAEXPBVsgBox@@@Z 10041db0 f   sg_vs2008_32:sg.obj
 0001:00040f30       ?extend@sgSphere@@QAEXPBV1@@Z 10041f30 f   sg_vs2008_32:sg.obj
 0001:00041010       ?intersects@sgSphere@@QBEHPBVsgBox@@@Z 10042010 f   sg_vs2008_32:sg.obj
 0001:000410e0       ?update@sgFrustum@@AAEXXZ  100420e0 f   sg_vs2008_32:sg.obj
 0001:00041500       ?contains@sgFrustum@@QBEHPBVsgSphere@@@Z 10042500 f   sg_vs2008_32:sg.obj
 0001:000416a0       ?sgDistSquaredToLineVec3@@YAMUsgLine3@@QBM@Z 100426a0 f   sg_vs2008_32:sg.obj
 0001:00041730       ?sgDistSquaredToLineSegmentVec3@@YAMUsgLineSegment3@@QBM@Z 10042730 f   sg_vs2008_32:sg.obj
 0001:000418c0       ?sgMakeCoordMat4@@YAXQAY03MMMMMMM@Z 100428c0 f   sg_vs2008_32:sg.obj
 0001:00041ab0       ?sgMakeTransMat4@@YAXQAY03MQBM@Z 10042ab0 f   sg_vs2008_32:sg.obj
 0001:00041b00       ?sgMakeTransMat4@@YAXQAY03MMMM@Z 10042b00 f   sg_vs2008_32:sg.obj
 0001:00041b50       ?sgSetCoord@@YAXPAUsgCoord@@QAY03$$CBM@Z 10042b50 f   sg_vs2008_32:sg.obj
 0001:00041f10       ?sgMakeNormal@@YAXQAMQBM1@Z 10042f10 f   sg_vs2008_32:sg.obj
 0001:00041f90       ?sgMakeNormal@@YAXQAMQBM11@Z 10042f90 f   sg_vs2008_32:sg.obj
 0001:00042000       ?sgMultMat4@@YAXQAY03MQAY03$$CBM1@Z 10043000 f   sg_vs2008_32:sg.obj
 0001:000420b0       ?sgTransposeNegateMat4@@YAXQAY03MQAY03$$CBM@Z 100430b0 f   sg_vs2008_32:sg.obj
 0001:00042170       ?sgTransposeNegateMat4@@YAXQAY03M@Z 10043170 f   sg_vs2008_32:sg.obj
 0001:000421a0       ?sgInvertMat4@@YAXQAY03MQAY03$$CBM@Z 100431a0 f   sg_vs2008_32:sg.obj
 0001:000423f0       ?sgXformVec3@@YAXQAMQBMQAY03$$CBM@Z 100433f0 f   sg_vs2008_32:sg.obj
 0001:00042470       ?sgXformPnt3@@YAXQAMQBMQAY03$$CBM@Z 10043470 f   sg_vs2008_32:sg.obj
 0001:00042500       ?sgXformPnt4@@YAXQAMQBMQAY03$$CBM@Z 10043500 f   sg_vs2008_32:sg.obj
 0001:000425c0       ?sgFullXformPnt3@@YAXQAMQBMQAY03$$CBM@Z 100435c0 f   sg_vs2008_32:sg.obj
 0001:00042630       ?sgHPRfromVec3@@YAXQAMQBM@Z 10043630 f   sg_vs2008_32:sg.obj
 0001:00042730       ?sgQuatToAngleAxis@@YAXPAMQAMQBM@Z 10043730 f   sg_vs2008_32:sg.obj
 0001:000427e0       ?sgAngleAxisToQuat@@YAXQAMMQBM@Z 100437e0 f   sg_vs2008_32:sg.obj
 0001:00042860       ?sgMatrixToQuat@@YAXQAMQAY03$$CBM@Z 10043860 f   sg_vs2008_32:sg.obj
 0001:00042a10       ?sgMultQuat@@YAXQAMQBM1@Z  10043a10 f   sg_vs2008_32:sg.obj
 0001:00042b20       ?sgMultQuat2@@YAXQAMQBM1@Z 10043b20 f   sg_vs2008_32:sg.obj
 0001:00042c30       ?sgEulerToQuat@@YAXQAMQBM@Z 10043c30 f   sg_vs2008_32:sg.obj
 0001:00042d70       ?sgQuatToEuler@@YAXQAMQBM@Z 10043d70 f   sg_vs2008_32:sg.obj
 0001:00042f50       ?sgQuatToMatrix@@YAXQAY03MQBM@Z 10043f50 f   sg_vs2008_32:sg.obj
 0001:00043050       ?sgMakeRotMat42@@YAXQAY03MQAM@Z 10044050 f   sg_vs2008_32:sg.obj
 0001:00043180       ?sgSlerpQuat2@@YAXQAMQBM1M@Z 10044180 f   sg_vs2008_32:sg.obj
 0001:00043300       ?sgSlerpQuat@@YAXQAMQBM1M@Z 10044300 f   sg_vs2008_32:sg.obj
 0001:00043440       ?sgRotateVecQuat@@YAXQAM0@Z 10044440 f   sg_vs2008_32:sg.obj
 0001:00043570       ?sgRotateCoordQuat@@YAXQAM0@Z 10044570 f   sg_vs2008_32:sg.obj
 0001:000436a0       ?sgDistSquaredToLineLineSegment@@YAMUsgLineSegment3@@UsgLine3@@@Z 100446a0 f   sg_vs2008_32:sg.obj
 0001:00043960       ?sgReflectInPlaneVec3@@YAXQAMQBM1@Z 10044960 f   sg_vs2008_32:sg.obj
 0001:000439d0       ?sgClassifyMat4@@YAHQAY03$$CBM@Z 100449d0 f   sg_vs2008_32:sg.obj
 0001:00043d00       ?sgTriangleSolver_SAStoArea@@YAMMMM@Z 10044d00 f   sg_vs2008_32:sg.obj
 0001:00043d40       ?sgTriangleSolver_SSStoArea@@YAMMMM@Z 10044d40 f   sg_vs2008_32:sg.obj
 0001:00043dc0       ?sgTriangleSolver_SSStoAAA@@YAXMMMPAM00@Z 10044dc0 f   sg_vs2008_32:sg.obj
 0001:00043f90       ?sgTriangleSolver_SAStoASA@@YAXMMMPAM00@Z 10044f90 f   sg_vs2008_32:sg.obj
 0001:00044040       ?sgTriangleSolver_ASAtoSAS@@YAXMMMPAM00@Z 10045040 f   sg_vs2008_32:sg.obj
 0001:00044120       ?sgTriangleSolver_ASStoSAA@@YAXMMMHPAM00@Z 10045120 f   sg_vs2008_32:sg.obj
 0001:000441d0       ?sgTriangleSolver_SAAtoASS@@YAXMMMPAM00@Z 100451d0 f   sg_vs2008_32:sg.obj
 0001:00044220       ?sgTriArea@@YAMQAM00@Z     10045220 f   sg_vs2008_32:sg.obj
 0001:00044350       ?getOutcode@sgFrustum@@ABEHQBM@Z 10045350 f   sg_vs2008_32:sg.obj
 0001:00044440       ?contains@sgFrustum@@QBEHQBM@Z 10045440 f   sg_vs2008_32:sg.obj
 0001:00044460       ?contains@sgFrustum@@QBEHPBVsgBox@@@Z 10045460 f   sg_vs2008_32:sg.obj
 0001:00044550       ?sgPreMultMat4@@YAXQAY03MQAY03$$CBM@Z 10045550 f   sg_vs2008_32:sg.obj
 0001:00044580       ?sgPostMultMat4@@YAXQAY03MQAY03$$CBM@Z 10045580 f   sg_vs2008_32:sg.obj
 0001:000445b0       ?sgQuatToAngleAxis@@YAXPAM000QBM@Z 100455b0 f   sg_vs2008_32:sg.obj
 0001:000445f0       ?sgAngleAxisToQuat@@YAXQAMMMMM@Z 100455f0 f   sg_vs2008_32:sg.obj
 0001:00044630       ?sgTriangleSolver_ASAtoArea@@YAMMMM@Z 10045630 f   sg_vs2008_32:sg.obj
 0001:000446c0       ?sgTriangleSolver_ASStoArea@@YAMMMMH@Z 100456c0 f   sg_vs2008_32:sg.obj
 0001:00044720       ?sgTriangleSolver_SAAtoArea@@YAMMMM@Z 10045720 f   sg_vs2008_32:sg.obj
 0001:00044770       ?ulSetError@@YAXW4ulSeverity@@PBDZZ 10045770 f   ul_vs2008_32:ulError.obj
 0001:000447e0       ?ulGetError@@YAPADXZ       100457e0 f   ul_vs2008_32:ulError.obj
 0001:000447f0       ?ulClearError@@YAXXZ       100457f0 f   ul_vs2008_32:ulError.obj
 0001:00044800       ?ulGetErrorCallback@@YAP6AXW4ulSeverity@@PAD@ZXZ 10045800 f   ul_vs2008_32:ulError.obj
 0001:00044810       ?ulSetErrorCallback@@YAXP6AXW4ulSeverity@@PAD@Z@Z 10045810 f   ul_vs2008_32:ulError.obj
 0001:00044820       ??0_Init_locks@std@@QAE@XZ 10045820 f   libcpmtd:xlock.obj
 0001:00044870       ??0_Lockit@std@@QAE@H@Z    10045870 f   libcpmtd:xlock.obj
 0001:000448c0       ??0_Lockit@std@@QAE@XZ     100458c0 f   libcpmtd:xlock.obj
 0001:00044910       ??1_Init_locks@std@@QAE@XZ 10045910 f   libcpmtd:xlock.obj
 0001:00044960       ??1_Lockit@std@@QAE@XZ     10045960 f   libcpmtd:xlock.obj
 0001:000449a0       ?_Init_locks_ctor@_Init_locks@std@@CAXPAV12@@Z 100459a0 f   libcpmtd:xlock.obj
 0001:000449f0       ?_Init_locks_dtor@_Init_locks@std@@CAXPAV12@@Z 100459f0 f   libcpmtd:xlock.obj
 0001:00044a40       ?_Lockit_ctor@_Lockit@std@@CAXPAV12@@Z 10045a40 f   libcpmtd:xlock.obj
 0001:00044a60       ?_Lockit_ctor@_Lockit@std@@CAXPAV12@H@Z 10045a60 f   libcpmtd:xlock.obj
 0001:00044aa0       ?_Lockit_ctor@_Lockit@std@@SAXH@Z 10045aa0 f   libcpmtd:xlock.obj
 0001:00044ad0       ?_Lockit_dtor@_Lockit@std@@CAXPAV12@@Z 10045ad0 f   libcpmtd:xlock.obj
 0001:00044af0       ?_Lockit_dtor@_Lockit@std@@SAXH@Z 10045af0 f   libcpmtd:xlock.obj
 0001:00044b20       ??_U@YAPAXI@Z              10045b20 f   libcpmtd:newaop.obj
 0001:00044b40       ?_Debug_message@std@@YAXPBG0I@Z 10045b40 f   libcpmtd:stdthrow.obj
 0001:00044b60       ?_Debug_message@std@@YAXPB_W0I@Z 10045b60 f   libcpmtd:stdthrow.obj
 0001:00044b90       ??0_Ignore@std@@QAE@XZ     10045b90 f i libcpmtd:xthrow.obj
 0001:00044ba0       ??0bad_alloc@std@@QAE@ABV01@@Z 10045ba0 f i libcpmtd:xthrow.obj
 0001:00044bd0       ??0bad_alloc@std@@QAE@XZ   10045bd0 f i libcpmtd:xthrow.obj
 0001:00044c00       ??0bad_function_call@std@@QAE@ABV01@@Z 10045c00 f i libcpmtd:xthrow.obj
 0001:00044c30       ??0bad_function_call@std@@QAE@PBD@Z 10045c30 f i libcpmtd:xthrow.obj
 0001:00044c60       ??0invalid_argument@std@@QAE@ABV01@@Z 10045c60 f i libcpmtd:xthrow.obj
 0001:00044c90       ??0invalid_argument@std@@QAE@PBD@Z 10045c90 f i libcpmtd:xthrow.obj
 0001:00044cc0       ??0length_error@std@@QAE@ABV01@@Z 10045cc0 f i libcpmtd:xthrow.obj
 0001:00044cf0       ??0length_error@std@@QAE@PBD@Z 10045cf0 f i libcpmtd:xthrow.obj
 0001:00044d20       ??0logic_error@std@@QAE@ABV01@@Z 10045d20 f i libcpmtd:xthrow.obj
 0001:00044d50       ??0logic_error@std@@QAE@PBD@Z 10045d50 f i libcpmtd:xthrow.obj
 0001:00044d80       ??0out_of_range@std@@QAE@ABV01@@Z 10045d80 f i libcpmtd:xthrow.obj
 0001:00044db0       ??0out_of_range@std@@QAE@PBD@Z 10045db0 f i libcpmtd:xthrow.obj
 0001:00044de0       ??0overflow_error@std@@QAE@ABV01@@Z 10045de0 f i libcpmtd:xthrow.obj
 0001:00044e10       ??0overflow_error@std@@QAE@PBD@Z 10045e10 f i libcpmtd:xthrow.obj
 0001:00044e40       ??0regex_error@std@@QAE@ABV01@@Z 10045e40 f i libcpmtd:xthrow.obj
 0001:00044e80       ??0regex_error@std@@QAE@W4error_type@regex_constants@1@@Z 10045e80 f i libcpmtd:xthrow.obj
 0001:00044ec0       ??0runtime_error@std@@QAE@ABV01@@Z 10045ec0 f i libcpmtd:xthrow.obj
 0001:00044ef0       ??0runtime_error@std@@QAE@PBD@Z 10045ef0 f i libcpmtd:xthrow.obj
 0001:00044f20       ??1bad_alloc@std@@UAE@XZ   10045f20 f i libcpmtd:xthrow.obj
 0001:00044f40       ??1bad_function_call@std@@UAE@XZ 10045f40 f i libcpmtd:xthrow.obj
 0001:00044f60       ??1invalid_argument@std@@UAE@XZ 10045f60 f i libcpmtd:xthrow.obj
 0001:00044f80       ??1length_error@std@@UAE@XZ 10045f80 f i libcpmtd:xthrow.obj
 0001:00044fa0       ??1logic_error@std@@UAE@XZ 10045fa0 f i libcpmtd:xthrow.obj
 0001:00044fc0       ??1out_of_range@std@@UAE@XZ 10045fc0 f i libcpmtd:xthrow.obj
 0001:00044fe0       ??1overflow_error@std@@UAE@XZ 10045fe0 f i libcpmtd:xthrow.obj
 0001:00045000       ??1regex_error@std@@UAE@XZ 10046000 f i libcpmtd:xthrow.obj
 0001:00045020       ??1runtime_error@std@@UAE@XZ 10046020 f i libcpmtd:xthrow.obj
 0001:00045040       ??_Gbad_alloc@std@@UAEPAXI@Z 10046040 f i libcpmtd:xthrow.obj
 0001:00045040       ??_Ebad_alloc@std@@UAEPAXI@Z 10046040 f i libcpmtd:xthrow.obj
 0001:00045070       ??_Ebad_function_call@std@@UAEPAXI@Z 10046070 f i libcpmtd:xthrow.obj
 0001:00045070       ??_Gbad_function_call@std@@UAEPAXI@Z 10046070 f i libcpmtd:xthrow.obj
 0001:000450a0       ??_Ginvalid_argument@std@@UAEPAXI@Z 100460a0 f i libcpmtd:xthrow.obj
 0001:000450a0       ??_Einvalid_argument@std@@UAEPAXI@Z 100460a0 f i libcpmtd:xthrow.obj
 0001:000450d0       ??_Elength_error@std@@UAEPAXI@Z 100460d0 f i libcpmtd:xthrow.obj
 0001:000450d0       ??_Glength_error@std@@UAEPAXI@Z 100460d0 f i libcpmtd:xthrow.obj
 0001:00045100       ??_Glogic_error@std@@UAEPAXI@Z 10046100 f i libcpmtd:xthrow.obj
 0001:00045100       ??_Elogic_error@std@@UAEPAXI@Z 10046100 f i libcpmtd:xthrow.obj
 0001:00045130       ??_Gout_of_range@std@@UAEPAXI@Z 10046130 f i libcpmtd:xthrow.obj
 0001:00045130       ??_Eout_of_range@std@@UAEPAXI@Z 10046130 f i libcpmtd:xthrow.obj
 0001:00045160       ??_Goverflow_error@std@@UAEPAXI@Z 10046160 f i libcpmtd:xthrow.obj
 0001:00045160       ??_Eoverflow_error@std@@UAEPAXI@Z 10046160 f i libcpmtd:xthrow.obj
 0001:00045190       ??_Eregex_error@std@@UAEPAXI@Z 10046190 f i libcpmtd:xthrow.obj
 0001:00045190       ??_Gregex_error@std@@UAEPAXI@Z 10046190 f i libcpmtd:xthrow.obj
 0001:000451c0       ??_Eruntime_error@std@@UAEPAXI@Z 100461c0 f i libcpmtd:xthrow.obj
 0001:000451c0       ??_Gruntime_error@std@@UAEPAXI@Z 100461c0 f i libcpmtd:xthrow.obj
 0001:000451f0       ?_Stringify@regex_error@std@@CAPBDW4error_type@regex_constants@2@@Z 100461f0 f i libcpmtd:xthrow.obj
 0001:000452c0       ?_Xbad_alloc@std@@YAXXZ    100462c0 f   libcpmtd:xthrow.obj
 0001:000452e0       ?_Xbad_function_call@std@@YAXXZ 100462e0 f   libcpmtd:xthrow.obj
 0001:00045310       ?_Xinvalid_argument@std@@YAXPBD@Z 10046310 f   libcpmtd:xthrow.obj
 0001:00045340       ?_Xlength_error@std@@YAXPBD@Z 10046340 f   libcpmtd:xthrow.obj
 0001:00045370       ?_Xout_of_range@std@@YAXPBD@Z 10046370 f   libcpmtd:xthrow.obj
 0001:000453a0       ?_Xoverflow_error@std@@YAXPBD@Z 100463a0 f   libcpmtd:xthrow.obj
 0001:000453d0       ?_Xregex_error@std@@YAXW4error_type@regex_constants@1@@Z 100463d0 f   libcpmtd:xthrow.obj
 0001:00045400       ?_Xruntime_error@std@@YAXPBD@Z 10046400 f   libcpmtd:xthrow.obj
 0001:00045430       ?what@bad_function_call@std@@UBEPBDXZ 10046430 f i libcpmtd:xthrow.obj
 0001:00045440       ?_Syserror_map@std@@YAPBDH@Z 10046440 f   libcpmtd:syserror.obj
 0001:00045490       ?_Winerror_map@std@@YAPBDH@Z 10046490 f   libcpmtd:syserror.obj
 0001:000454e0       __Mtxdst                   100464e0 f   libcpmtd:xmtx.obj
 0001:000454f0       __Mtxinit                  100464f0 f   libcpmtd:xmtx.obj
 0001:00045510       __Mtxlock                  10046510 f   libcpmtd:xmtx.obj
 0001:00045520       __Mtxunlock                10046520 f   libcpmtd:xmtx.obj
 0001:00045530       __Once                     10046530 f   libcpmtd:xmtx.obj
 0001:00045590       _atan2                     10046590 f   LIBCMTD:87ctriga.obj
 0001:0004559a       __CIatan2                  1004659a f   LIBCMTD:87ctriga.obj
 0001:000455b0       _exp                       100465b0 f   LIBCMTD:87ctran.obj
 0001:000455ec       __CIexp                    100465ec f   LIBCMTD:87ctran.obj
 0001:00045627       __exp_default              10046627 f   LIBCMTD:87ctran.obj
 0001:00045631       __CIexp_default            10046631 f   LIBCMTD:87ctran.obj
 0001:00045640       _fabs                      10046640 f   LIBCMTD:fabs.obj
 0001:00045740       _sin                       10046740 f   LIBCMTD:sin.obj
 0001:00045780       __CIsin                    10046780 f   LIBCMTD:sin.obj
 0001:000457bb       __CIsin_default            100467bb f   LIBCMTD:sin.obj
 0001:000457cf       __sin_default              100467cf     LIBCMTD:sin.obj
 0001:00045870       __CIsqrt                   10046870 f   LIBCMTD:sqrt.obj
 0001:00045884       _sqrt                      10046884     LIBCMTD:sqrt.obj
 0001:00045930       @_RTC_AllocaHelper@12      10046930 f   LIBCMTD:stack.obj
 0001:00045970       @_RTC_CheckStackVars2@12   10046970 f   LIBCMTD:stack.obj
 0001:00045a50       @_RTC_CheckStackVars@8     10046a50 f   LIBCMTD:stack.obj
 0001:00045ab0       __RTC_CheckEsp             10046ab0 f   LIBCMTD:stack.obj
 0001:00045ae0       __RTC_InitBase             10046ae0 f   LIBCMTD:init.obj
 0001:00045b10       __RTC_Shutdown             10046b10 f   LIBCMTD:init.obj
 0001:00045b30       __fpmath                   10046b30 f   LIBCMTD:fpinit.obj
 0001:00045b50       ___setfflag                10046b50 f   LIBCMTD:fpinit.obj
 0001:00045b70       __cfltcvt_init             10046b70 f   LIBCMTD:fpinit.obj
 0001:00045c30       __get_printf_count_output  10046c30 f   LIBCMTD:printf.obj
 0001:00045c60       __printf_l                 10046c60 f   LIBCMTD:printf.obj
 0001:00045c90       __printf_p                 10046c90 f   LIBCMTD:printf.obj
 0001:00045cb0       __printf_p_l               10046cb0 f   LIBCMTD:printf.obj
 0001:00045ce0       __printf_s_l               10046ce0 f   LIBCMTD:printf.obj
 0001:00045d10       __set_printf_count_output  10046d10 f   LIBCMTD:printf.obj
 0001:00045d70       _printf                    10046d70 f   LIBCMTD:printf.obj
 0001:00045ee0       _printf_s                  10046ee0 f   LIBCMTD:printf.obj
 0001:00045f00       _cos                       10046f00 f   LIBCMTD:cos.obj
 0001:00045f40       __CIcos                    10046f40 f   LIBCMTD:cos.obj
 0001:00045f7b       __CIcos_default            10046f7b f   LIBCMTD:cos.obj
 0001:00045f8f       __cos_default              10046f8f     LIBCMTD:cos.obj
 0001:00046030       @__security_check_cookie@4 10047030 f   LIBCMTD:secchk.obj
 0001:00046040       _memset                    10047040 f   LIBCMTD:memset.obj
 0001:000460d0       _strcmp                    100470d0 f   LIBCMTD:strcmp.obj
 0001:00046160       __snprintf                 10047160 f   LIBCMTD:snprintf.obj
 0001:00046340       __snprintf_l               10047340 f   LIBCMTD:snprintf.obj
 0001:00046370       _rand                      10047370 f   LIBCMTD:rand.obj
 0001:000463b0       _srand                     100473b0 f   LIBCMTD:rand.obj
 0001:000463c0       __chgsign                  100473c0 f   LIBCMTD:ieeemisc.obj
 0001:00046400       __copysign                 10047400 f   LIBCMTD:ieeemisc.obj
 0001:00046430       __finite                   10047430 f   LIBCMTD:ieeemisc.obj
 0001:00046450       __fpclass                  10047450 f   LIBCMTD:ieeemisc.obj
 0001:00046540       __isnan                    10047540 f   LIBCMTD:ieeemisc.obj
 0001:00046580       __logb                     10047580 f   LIBCMTD:ieeemisc.obj
 0001:000466b0       __nextafter                100476b0 f   LIBCMTD:ieeemisc.obj
 0001:000469d0       __scalb                    100479d0 f   LIBCMTD:ieeemisc.obj
 0001:000469f0       _tan                       100479f0 f   LIBCMTD:tan.obj
 0001:00046a30       __CItan                    10047a30 f   LIBCMTD:tan.obj
 0001:00046a6b       __CItan_default            10047a6b f   LIBCMTD:tan.obj
 0001:00046a7f       __tan_default              10047a7f     LIBCMTD:tan.obj
 0001:00046b20       _asin                      10047b20 f   LIBCMTD:asin.obj
 0001:00046b60       __CIasin                   10047b60 f   LIBCMTD:asin.obj
 0001:00046b9b       __CIasin_default           10047b9b f   LIBCMTD:asin.obj
 0001:00046baf       __asin_default             10047baf     LIBCMTD:asin.obj
 0001:00046c70       _atan                      10047c70 f   LIBCMTD:atan.obj
 0001:00046cb0       __CIatan                   10047cb0 f   LIBCMTD:atan.obj
 0001:00046ceb       __CIatan_default           10047ceb f   LIBCMTD:atan.obj
 0001:00046cff       __atan_default             10047cff     LIBCMTD:atan.obj
 0001:00046d90       _log                       10047d90 f   LIBCMTD:log.obj
 0001:00046dd0       __CIlog                    10047dd0 f   LIBCMTD:log.obj
 0001:00046e0b       __CIlog_default            10047e0b f   LIBCMTD:log.obj
 0001:00046e1f       __log_default              10047e1f     LIBCMTD:log.obj
 0001:00046ee0       __CRT_INIT@12              10047ee0 f   LIBCMTD:dllcrt0.obj
 0001:00047110       __DllMainCRTStartup@12     10048110 f   LIBCMTD:dllcrt0.obj
 0001:00047300       ___DllXcptFilter           10048300 f   LIBCMTD:dllcrt0.obj
 0001:00047330       ??_M@YGXPAXIHP6EX0@Z@Z     10048330 f   LIBCMTD:ehvecdtr.obj
 0001:00047410       ?__ArrayUnwind@@YGXPAXIHP6EX0@Z@Z 10048410 f   LIBCMTD:ehvecdtr.obj
 0001:000474a0       __get_purecall_handler     100484a0 f   LIBCMTD:purevirt.obj
 0001:000474c0       __purecall                 100484c0 f   LIBCMTD:purevirt.obj
 0001:00047500       __set_purecall_handler     10048500 f   LIBCMTD:purevirt.obj
 0001:00047530       ??2@YAPAXI@Z               10048530 f   LIBCMTD:new.obj
 0001:00047580       ??3@YAXPAX@Z               10048580 f   LIBCMTD:dbgdel.obj
 0001:00047670       ___onexitinit              10048670 f   LIBCMTD:onexit.obj
 0001:000476d0       __onexit                   100486d0 f   LIBCMTD:onexit.obj
 0001:00047890       _atexit                    10048890 f   LIBCMTD:onexit.obj
 0001:000478c0       ?_invalid_parameter@@YAXPBG00II@Z 100488c0 f   LIBCMTD:invarg.obj
 0001:000478f0       ?_invoke_watson@@YAXPBG00II@Z 100488f0 f   LIBCMTD:invarg.obj
 0001:00047910       __call_reportfault         10048910 f   LIBCMTD:invarg.obj
 0001:00047a70       __get_invalid_parameter_handler 10048a70 f   LIBCMTD:invarg.obj
 0001:00047aa0       __initp_misc_invarg        10048aa0 f   LIBCMTD:invarg.obj
 0001:00047ab0       __invalid_parameter        10048ab0 f   LIBCMTD:invarg.obj
 0001:00047b10       __invoke_watson            10048b10 f   LIBCMTD:invarg.obj
 0001:00047b50       __set_invalid_parameter_handler 10048b50 f   LIBCMTD:invarg.obj
 0001:00047b90       _memmove                   10048b90 f   LIBCMTD:memmove.obj
 0001:000481e0       _memcpy                    100491e0 f   LIBCMTD:memcpy.obj
 0001:00048830       _strlen                    10049830 f   LIBCMTD:strlen.obj
 0001:000488c0       ??_V@YAXPAX@Z              100498c0 f   LIBCMTD:delete2.obj
 0001:000488e0       ?_CrtDbgReportW@@YAHHPBGH00ZZ 100498e0 f   LIBCMTD:dbgrptw.obj
 0001:00048930       __CrtDbgReportW            10049930 f   LIBCMTD:dbgrptw.obj
 0001:00048980       __CrtDbgReportWV           10049980 f i LIBCMTD:dbgrptw.obj
 0001:000489b0       __CrtSetReportHookW2       100499b0 f   LIBCMTD:dbgrptw.obj
 0001:00048d00       ___crtMessageWindowW       10049d00 f   LIBCMTD:dbgrptw.obj
 0001:000491b0       __invoke_watson_if_error   1004a1b0 f i LIBCMTD:dbgrptw.obj
 0001:000491e0       __invoke_watson_if_oneof   1004a1e0 f i LIBCMTD:dbgrptw.obj
 0001:00049220       __CxxThrowException@8      1004a220 f   LIBCMTD:throw.obj
 0001:000493b0       ?_CallCatchBlock2@@YAPAXPAUEHRegistrationNode@@PBU_s_FuncInfo@@PAXHK@Z 1004a3b0 f   LIBCMTD:_trnsctrl_.obj
 0001:00049420       ?_CallMemberFunction0@@YGXPAX0@Z 1004a420 f   LIBCMTD:_trnsctrl_.obj
 0001:00049430       ?_CallMemberFunction1@@YGXPAX00@Z 1004a430 f   LIBCMTD:_trnsctrl_.obj
 0001:00049440       ?_CallMemberFunction2@@YGXPAX00H@Z 1004a440 f   LIBCMTD:_trnsctrl_.obj
 0001:00049450       ?_CallSETranslator@@YAHPAUEHExceptionRecord@@PAUEHRegistrationNode@@PAX2PBU_s_FuncInfo@@H1@Z 1004a450 f   LIBCMTD:_trnsctrl_.obj
 0001:00049540       ?_GetRangeOfTrysToCheck@@YAPBU_s_TryBlockMapEntry@@PBU_s_FuncInfo@@HHPAI1@Z 1004a540 f   LIBCMTD:_trnsctrl_.obj
 0001:000495d0       ?_JumpToContinuation@@YGXPAXPAUEHRegistrationNode@@@Z 1004a5d0 f   LIBCMTD:_trnsctrl_.obj
 0001:00049610       ?_UnwindNestedFrames@@YGXPAUEHRegistrationNode@@PAUEHExceptionRecord@@@Z 1004a610 f   LIBCMTD:_trnsctrl_.obj
 0001:00049670       __CreateFrameInfo          1004a670 f   LIBCMTD:_trnsctrl_.obj
 0001:000496a0       __FindAndUnlinkFrame       1004a6a0 f   LIBCMTD:_trnsctrl_.obj
 0001:00049700       __IsExceptionObjectToBeDestroyed 1004a700 f   LIBCMTD:_trnsctrl_.obj
 0001:00049730       ___CxxFrameHandler         1004a730 f   LIBCMTD:_trnsctrl_.obj
 0001:00049770       ___CxxFrameHandler2        1004a770 f   LIBCMTD:_trnsctrl_.obj
 0001:000497b0       ___CxxFrameHandler3        1004a7b0 f   LIBCMTD:_trnsctrl_.obj
 0001:000497f0       ___CxxLongjmpUnwind@4      1004a7f0 f   LIBCMTD:_trnsctrl_.obj
 0001:00049820       ??0type_info@@AAE@ABV0@@Z  1004a820 f   LIBCMTD:typinfo.obj
 0001:00049840       ??1type_info@@UAE@XZ       1004a840 f   LIBCMTD:typinfo.obj
 0001:00049860       ??4type_info@@AAEAAV0@ABV0@@Z 1004a860 f   LIBCMTD:typinfo.obj
 0001:00049870       ??8type_info@@QBE_NABV0@@Z 1004a870 f   LIBCMTD:typinfo.obj
 0001:000498b0       ??9type_info@@QBE_NABV0@@Z 1004a8b0 f   LIBCMTD:typinfo.obj
 0001:000498f0       ??_Gtype_info@@UAEPAXI@Z   1004a8f0 f i LIBCMTD:typinfo.obj
 0001:000498f0       ??_Etype_info@@UAEPAXI@Z   1004a8f0 f i LIBCMTD:typinfo.obj
 0001:00049920       ?_name_internal_method@type_info@@QBEPBDPAU__type_info_node@@@Z 1004a920 f   LIBCMTD:typinfo.obj
 0001:00049940       ?_type_info_dtor_internal_method@type_info@@QAEXXZ 1004a940 f   LIBCMTD:typinfo.obj
 0001:00049960       ?before@type_info@@QBE_NABV1@@Z 1004a960 f   LIBCMTD:typinfo.obj
 0001:000499a0       ?name@type_info@@QBEPBDPAU__type_info_node@@@Z 1004a9a0 f   LIBCMTD:typinfo.obj
 0001:000499c0       ?raw_name@type_info@@QBEPBDXZ 1004a9c0 f   LIBCMTD:typinfo.obj
 0001:000499e0       __wassert                  1004a9e0 f   LIBCMTD:wassert.obj
 0001:0004a620       ??_L@YGXPAXIHP6EX0@Z1@Z    1004b620 f   LIBCMTD:ehvecctr.obj
 0001:0004a6d0       _acos                      1004b6d0 f   LIBCMTD:acos.obj
 0001:0004a710       __CIacos                   1004b710 f   LIBCMTD:acos.obj
 0001:0004a74b       __CIacos_default           1004b74b f   LIBCMTD:acos.obj
 0001:0004a75f       __acos_default             1004b75f     LIBCMTD:acos.obj
 0001:0004a820       ___copy_path_to_wide_string 1004b820 f   LIBCMTD:crt0dat.obj
 0001:0004aa10       ___crtCorExitProcess       1004ba10 f   LIBCMTD:crt0dat.obj
 0001:0004aa50       ___crtExitProcess          1004ba50 f   LIBCMTD:crt0dat.obj
 0001:0004aa70       ___freeCrtMemory           1004ba70 f   LIBCMTD:crt0dat.obj
 0001:0004ac40       __amsg_exit                1004bc40 f   LIBCMTD:crt0dat.obj
 0001:0004ac60       __c_exit                   1004bc60 f   LIBCMTD:crt0dat.obj
 0001:0004ac80       __cexit                    1004bc80 f   LIBCMTD:crt0dat.obj
 0001:0004aca0       __cinit                    1004bca0 f   LIBCMTD:crt0dat.obj
 0001:0004ad40       __exit                     1004bd40 f   LIBCMTD:crt0dat.obj
 0001:0004ad60       __get_pgmptr               1004bd60 f   LIBCMTD:crt0dat.obj
 0001:0004ae80       __get_wpgmptr              1004be80 f   LIBCMTD:crt0dat.obj
 0001:0004afa0       __init_pointers            1004bfa0 f   LIBCMTD:crt0dat.obj
 0001:0004b030       __initterm_e               1004c030 f   LIBCMTD:crt0dat.obj
 0001:0004b070       __lockexit                 1004c070 f   LIBCMTD:crt0dat.obj
 0001:0004b080       __unlockexit               1004c080 f   LIBCMTD:crt0dat.obj
 0001:0004b290       _exit                      1004c290 f   LIBCMTD:crt0dat.obj
 0001:0004b2b0       __fprintf_l                1004c2b0 f   LIBCMTD:fprintf.obj
 0001:0004b2e0       __fprintf_p                1004c2e0 f   LIBCMTD:fprintf.obj
 0001:0004b310       __fprintf_p_l              1004c310 f   LIBCMTD:fprintf.obj
 0001:0004b340       __fprintf_s_l              1004c340 f   LIBCMTD:fprintf.obj
 0001:0004b370       _fprintf                   1004c370 f   LIBCMTD:fprintf.obj
 0001:0004b640       _fprintf_s                 1004c640 f   LIBCMTD:fprintf.obj
 0001:0004b670       ___initstdio               1004c670 f   LIBCMTD:_file.obj
 0001:0004b740       ___endstdio                1004c740 f   LIBCMTD:_file.obj
 0001:0004b780       ___iob_func                1004c780 f   LIBCMTD:_file.obj
 0001:0004b790       __lock_file                1004c790 f   LIBCMTD:_file.obj
 0001:0004b7f0       __lock_file2               1004c7f0 f   LIBCMTD:_file.obj
 0001:0004b830       __unlock_file              1004c830 f   LIBCMTD:_file.obj
 0001:0004b890       __unlock_file2             1004c890 f   LIBCMTD:_file.obj
 0001:0004b8d0       __vscprintf                1004c8d0 f   LIBCMTD:vsprintf.obj
 0001:0004b8f0       __vscprintf_helper         1004c8f0 f   LIBCMTD:vsprintf.obj
 0001:0004b9e0       __vscprintf_l              1004c9e0 f   LIBCMTD:vsprintf.obj
 0001:0004ba00       __vscprintf_p              1004ca00 f   LIBCMTD:vsprintf.obj
 0001:0004ba20       __vscprintf_p_l            1004ca20 f   LIBCMTD:vsprintf.obj
 0001:0004ba40       __vsprintf_l               1004ca40 f   LIBCMTD:vsprintf.obj
 0001:0004bc00       _vsprintf                  1004cc00 f   LIBCMTD:vsprintf.obj
 0001:0004bc20       __lock                     1004cc20 f   LIBCMTD:mlock.obj
 0001:0004bc60       __lockerr_exit             1004cc60 f   LIBCMTD:mlock.obj
 0001:0004bc90       __mtdeletelocks            1004cc90 f   LIBCMTD:mlock.obj
 0001:0004bd50       __mtinitlocknum            1004cd50 f   LIBCMTD:mlock.obj
 0001:0004be70       __mtinitlocks              1004ce70 f   LIBCMTD:mlock.obj
 0001:0004bef0       __unlock                   1004cef0 f   LIBCMTD:mlock.obj
 0001:0004bf10       ??0__non_rtti_object@std@@QAE@ABV01@@Z 1004cf10 f   LIBCMTD:stdexcpt.obj
 0001:0004bf40       ??0__non_rtti_object@std@@QAE@PBD@Z 1004cf40 f   LIBCMTD:stdexcpt.obj
 0001:0004bf70       ??0bad_cast@std@@QAE@ABV01@@Z 1004cf70 f   LIBCMTD:stdexcpt.obj
 0001:0004bfa0       ??0bad_cast@std@@QAE@PBD@Z 1004cfa0 f   LIBCMTD:stdexcpt.obj
 0001:0004bfd0       ??0bad_typeid@std@@QAE@ABV01@@Z 1004cfd0 f   LIBCMTD:stdexcpt.obj
 0001:0004c000       ??0bad_typeid@std@@QAE@PBD@Z 1004d000 f   LIBCMTD:stdexcpt.obj
 0001:0004c030       ??0exception@std@@QAE@ABQBD@Z 1004d030 f   LIBCMTD:stdexcpt.obj
 0001:0004c070       ??0exception@std@@QAE@ABQBDH@Z 1004d070 f   LIBCMTD:stdexcpt.obj
 0001:0004c0a0       ??0exception@std@@QAE@ABV01@@Z 1004d0a0 f   LIBCMTD:stdexcpt.obj
 0001:0004c0e0       ??0exception@std@@QAE@XZ   1004d0e0 f   LIBCMTD:stdexcpt.obj
 0001:0004c110       ??1__non_rtti_object@std@@UAE@XZ 1004d110 f   LIBCMTD:stdexcpt.obj
 0001:0004c130       ??1bad_cast@std@@UAE@XZ    1004d130 f   LIBCMTD:stdexcpt.obj
 0001:0004c150       ??1bad_typeid@std@@UAE@XZ  1004d150 f   LIBCMTD:stdexcpt.obj
 0001:0004c170       ??1exception@std@@UAE@XZ   1004d170 f   LIBCMTD:stdexcpt.obj
 0001:0004c190       ??4exception@std@@QAEAAV01@ABV01@@Z 1004d190 f   LIBCMTD:stdexcpt.obj
 0001:0004c1e0       ??_G__non_rtti_object@std@@UAEPAXI@Z 1004d1e0 f i LIBCMTD:stdexcpt.obj
 0001:0004c1e0       ??_E__non_rtti_object@std@@UAEPAXI@Z 1004d1e0 f i LIBCMTD:stdexcpt.obj
 0001:0004c210       ??_Gbad_cast@std@@UAEPAXI@Z 1004d210 f i LIBCMTD:stdexcpt.obj
 0001:0004c210       ??_Ebad_cast@std@@UAEPAXI@Z 1004d210 f i LIBCMTD:stdexcpt.obj
 0001:0004c240       ??_Gbad_typeid@std@@UAEPAXI@Z 1004d240 f i LIBCMTD:stdexcpt.obj
 0001:0004c240       ??_Ebad_typeid@std@@UAEPAXI@Z 1004d240 f i LIBCMTD:stdexcpt.obj
 0001:0004c270       ??_Eexception@std@@UAEPAXI@Z 1004d270 f i LIBCMTD:stdexcpt.obj
 0001:0004c270       ??_Gexception@std@@UAEPAXI@Z 1004d270 f i LIBCMTD:stdexcpt.obj
 0001:0004c2a0       ?_Copy_str@exception@std@@AAEXPBD@Z 1004d2a0 f   LIBCMTD:stdexcpt.obj
 0001:0004c300       ?_Tidy@exception@std@@AAEXXZ 1004d300 f   LIBCMTD:stdexcpt.obj
 0001:0004c340       ?what@exception@std@@UBEPBDXZ 1004d340 f   LIBCMTD:stdexcpt.obj
 0001:0004c3c0       ___crtCloseThreadpoolTimer 1004d3c0 f   LIBCMTD:winapisupp.obj
 0001:0004c3f0       ___crtCloseThreadpoolWait  1004d3f0 f   LIBCMTD:winapisupp.obj
 0001:0004c420       ___crtCreateSemaphoreExW@24 1004d420 f   LIBCMTD:winapisupp.obj
 0001:0004c480       ___crtCreateSymbolicLinkW  1004d480 f   LIBCMTD:winapisupp.obj
 0001:0004c4c0       ___crtCreateThreadpoolTimer 1004d4c0 f   LIBCMTD:winapisupp.obj
 0001:0004c500       ___crtCreateThreadpoolWait 1004d500 f   LIBCMTD:winapisupp.obj
 0001:0004c540       ___crtFlsAlloc             1004d540 f   LIBCMTD:winapisupp.obj
 0001:0004c570       ___crtFlsFree              1004d570 f   LIBCMTD:winapisupp.obj
 0001:0004c5b0       ___crtFlsGetValue          1004d5b0 f   LIBCMTD:winapisupp.obj
 0001:0004c5f0       ___crtFlsSetValue          1004d5f0 f   LIBCMTD:winapisupp.obj
 0001:0004c630       ___crtFlushProcessWriteBuffers 1004d630 f   LIBCMTD:winapisupp.obj
 0001:0004c660       ___crtFreeLibraryWhenCallbackReturns 1004d660 f   LIBCMTD:winapisupp.obj
 0001:0004c690       ___crtGetCurrentProcessorNumber 1004d690 f   LIBCMTD:winapisupp.obj
 0001:0004c6c0       ___crtGetLogicalProcessorInformation 1004d6c0 f   LIBCMTD:winapisupp.obj
 0001:0004c700       ___crtGetShowWindowMode    1004d700 f   LIBCMTD:winapisupp.obj
 0001:0004c730       ___crtInitializeCriticalSectionEx 1004d730 f   LIBCMTD:winapisupp.obj
 0001:0004c780       ___crtIsPackagedApp        1004d780 f   LIBCMTD:winapisupp.obj
 0001:0004c7c0       ___crtLoadWinApiPointers   1004d7c0 f   LIBCMTD:winapisupp.obj
 0001:0004cbd0       ___crtSetThreadStackGuarantee 1004dbd0 f   LIBCMTD:winapisupp.obj
 0001:0004cc00       ___crtSetThreadpoolTimer   1004dc00 f   LIBCMTD:winapisupp.obj
 0001:0004cc40       ___crtSetThreadpoolWait    1004dc40 f   LIBCMTD:winapisupp.obj
 0001:0004cc70       ___crtSetUnhandledExceptionFilter 1004dc70 f   LIBCMTD:winapisupp.obj
 0001:0004cc80       ___crtTerminateProcess     1004dc80 f   LIBCMTD:winapisupp.obj
 0001:0004cca0       ___crtUnhandledException   1004dca0 f   LIBCMTD:winapisupp.obj
 0001:0004ccc0       ___crtWaitForThreadpoolTimerCallbacks 1004dcc0 f   LIBCMTD:winapisupp.obj
 0001:0004cd0c       __fFATN2                   1004dd0c     LIBCMTD:87triga.obj
 0001:0004cd5c       __rtpiby2                  1004dd5c     LIBCMTD:87triga.obj
 0001:0004cda0       __cintrindisp2             1004dda0 f   LIBCMTD:87cdisp.obj
 0001:0004cdde       __cintrindisp1             1004ddde f   LIBCMTD:87cdisp.obj
 0001:0004ce1b       __ctrandisp2               1004de1b f   LIBCMTD:87cdisp.obj
 0001:0004cfaa       __ctrandisp1               1004dfaa f   LIBCMTD:87cdisp.obj
 0001:0004cfdd       __fload                    1004dfdd f   LIBCMTD:87cdisp.obj
 0001:0004d020       __sse2_mathfcns_init       1004e020 f   LIBCMTD:mathfcns.obj
 0001:0004d040       __set_SSE2_enable          1004e040 f   LIBCMTD:mathfcns.obj
 0001:0004d090       __CIexp_pentium4           1004e090 f   LIBCMTD:exp_pentium4.obj
 0001:0004d0a8       __exp_pentium4             1004e0a8     LIBCMTD:exp_pentium4.obj
 0001:0004d361       __fFEXP                    1004e361     LIBCMTD:87tran.obj
 0001:0004d3b8       __rtinfpopse               1004e3b8     LIBCMTD:87tran.obj
 0001:0004d3ba       __rtinfnpopse              1004e3ba     LIBCMTD:87tran.obj
 0001:0004d3ca       __fFLN                     1004e3ca     LIBCMTD:87tran.obj
 0001:0004d47f       __rtinfpop                 1004e47f     LIBCMTD:87tran.obj
 0001:0004d481       __rtinfnpop                1004e481     LIBCMTD:87tran.obj
 0001:0004d49e       __ffexpm1                  1004e49e     LIBCMTD:87tran.obj
 0001:0004d550       __errcode                  1004e550 f   LIBCMTD:fpexcept.obj
 0001:0004d5c0       __except1                  1004e5c0 f   LIBCMTD:fpexcept.obj
 0001:0004d6c0       __except2                  1004e6c0 f   LIBCMTD:fpexcept.obj
 0001:0004d810       __handle_exc               1004e810 f   LIBCMTD:fpexcept.obj
 0001:0004db30       __handle_qnan1             1004eb30 f   LIBCMTD:fpexcept.obj
 0001:0004db90       __handle_qnan2             1004eb90 f   LIBCMTD:fpexcept.obj
 0001:0004dc00       __raise_exc                1004ec00 f   LIBCMTD:fpexcept.obj
 0001:0004dc30       __raise_exc_ex             1004ec30 f   LIBCMTD:fpexcept.obj
 0001:0004e1a0       __raise_excf               1004f1a0 f   LIBCMTD:fpexcept.obj
 0001:0004e1d0       __set_errno_from_matherr   1004f1d0 f   LIBCMTD:fpexcept.obj
 0001:0004e210       __umatherr                 1004f210 f   LIBCMTD:fpexcept.obj
 0001:0004e2b0       __add_exp                  1004f2b0 f   LIBCMTD:util.obj
 0001:0004e2e0       __decomp                   1004f2e0 f   LIBCMTD:util.obj
 0001:0004e400       __get_exp                  1004f400 f   LIBCMTD:util.obj
 0001:0004e430       __set_bexp                 1004f430 f   LIBCMTD:util.obj
 0001:0004e460       __set_exp                  1004f460 f   LIBCMTD:util.obj
 0001:0004e4a0       __sptype                   1004f4a0 f   LIBCMTD:util.obj
 0001:0004e520       ___clrfp_sse2              1004f520 f   LIBCMTD:fpctrl.obj
 0001:0004e560       ___ctrlfp_sse2             1004f560 f   LIBCMTD:fpctrl.obj
 0001:0004e5c0       ___fclrf_sse2              1004f5c0 f   LIBCMTD:fpctrl.obj
 0001:0004e5e0       ___get_fpsr_sse2           1004f5e0 f   LIBCMTD:fpctrl.obj
 0001:0004e610       ___set_fpsr_sse2           1004f610 f   LIBCMTD:fpctrl.obj
 0001:0004e6f0       ___set_statfp_sse2         1004f6f0 f   LIBCMTD:fpctrl.obj
 0001:0004e720       ___statfp_sse2             1004f720 f   LIBCMTD:fpctrl.obj
 0001:0004e750       __clrfp                    1004f750 f   LIBCMTD:fpctrl.obj
 0001:0004e770       __ctrlfp                   1004f770 f   LIBCMTD:fpctrl.obj
 0001:0004e7a0       __set_statfp               1004f7a0 f   LIBCMTD:fpctrl.obj
 0001:0004e810       __statfp                   1004f810 f   LIBCMTD:fpctrl.obj
 0001:0004e820       __CIsin_pentium4           1004f820 f   LIBCMTD:sin_pentium4.obj
 0001:0004e838       __sin_pentium4             1004f838     LIBCMTD:sin_pentium4.obj
 0001:0004e9f0       __trandisp1                1004f9f0 f   LIBCMTD:87disp.obj
 0001:0004ea57       __trandisp2                1004fa57 f   LIBCMTD:87disp.obj
 0001:0004eae3       __rttospopde               1004fae3     LIBCMTD:87disp.obj
 0001:0004eae8       __rttospop                 1004fae8     LIBCMTD:87disp.obj
 0001:0004eaea       __rtnospop                 1004faea     LIBCMTD:87disp.obj
 0001:0004eaec       __rttosnpop                1004faec     LIBCMTD:87disp.obj
 0001:0004eaed       __rtnospopde               1004faed     LIBCMTD:87disp.obj
 0001:0004eaf4       __rtzeropop                1004faf4     LIBCMTD:87disp.obj
 0001:0004eaf6       __rtzeronpop               1004faf6     LIBCMTD:87disp.obj
 0001:0004eafb       __rtonepop                 1004fafb     LIBCMTD:87disp.obj
 0001:0004eafd       __rtonenpop                1004fafd     LIBCMTD:87disp.obj
 0001:0004eb02       __tosnan1                  1004fb02     LIBCMTD:87disp.obj
 0001:0004eb2d       __nosnan2                  1004fb2d     LIBCMTD:87disp.obj
 0001:0004eb2f       __tosnan2                  1004fb2f     LIBCMTD:87disp.obj
 0001:0004eb57       __nan2                     1004fb57     LIBCMTD:87disp.obj
 0001:0004eb96       __rtindfpop                1004fb96     LIBCMTD:87disp.obj
 0001:0004eb98       __rtindfnpop               1004fb98     LIBCMTD:87disp.obj
 0001:0004eba9       __rttosnpopde              1004fba9     LIBCMTD:87disp.obj
 0001:0004ebb3       __rtchsifneg               1004fbb3     LIBCMTD:87disp.obj
 0001:0004ebc0       __twoToTOS                 1004fbc0 f   LIBCMTD:common.obj
 0001:0004ebd5       __load_CW                  1004fbd5 f   LIBCMTD:common.obj
 0001:0004ebec       __convertTOStoQNaN         1004fbec f   LIBCMTD:common.obj
 0001:0004ec05       __fload_withFB             1004fc05 f   LIBCMTD:common.obj
 0001:0004ec48       __checkTOS_withFB          1004fc48 f   LIBCMTD:common.obj
 0001:0004ec5e       __fast_exit                1004fc5e f   LIBCMTD:common.obj
 0001:0004ec6b       __math_exit                1004fc6b f   LIBCMTD:common.obj
 0001:0004ec95       __check_overflow_exit      1004fc95 f   LIBCMTD:common.obj
 0001:0004eca9       __check_range_exit         1004fca9 f   LIBCMTD:common.obj
 0001:0004ed50       __startTwoArgErrorHandling 1004fd50 f   LIBCMTD:genexcep.obj
 0001:0004ed67       __startOneArgErrorHandling 1004fd67 f   LIBCMTD:genexcep.obj
 0001:0004ef00       ?_RTC_AllocaFailure@@YAXPAXPAU_RTC_ALLOCA_NODE@@H@Z 1004ff00 f   LIBCMTD:error.obj
 0001:0004f070       ?_RTC_Failure@@YAXPAXH@Z   10050070 f   LIBCMTD:error.obj
 0001:0004f0c0       ?_RTC_StackFailure@@YAXPAXPBD@Z 100500c0 f   LIBCMTD:error.obj
 0001:0004f420       __RTC_UninitUse            10050420 f   LIBCMTD:error.obj
 0001:0004f520       ?_RTC_GetErrorFunc@@YAP6AHHPBDH00ZZPBX@Z 10050520 f   LIBCMTD:userapi.obj
 0001:0004f530       ?_RTC_GetErrorFuncW@@YAP6AHHPB_WH00ZZPBX@Z 10050530 f   LIBCMTD:userapi.obj
 0001:0004f540       __RTC_GetErrDesc           10050540 f   LIBCMTD:userapi.obj
 0001:0004f560       __RTC_NumErrors            10050560 f   LIBCMTD:userapi.obj
 0001:0004f570       __RTC_SetErrorFunc         10050570 f   LIBCMTD:userapi.obj
 0001:0004f590       __RTC_SetErrorFuncW        10050590 f   LIBCMTD:userapi.obj
 0001:0004f5b0       __RTC_SetErrorType         100505b0 f   LIBCMTD:userapi.obj
 0001:0004f5e0       __CRT_RTC_INIT             100505e0 f   LIBCMTD:chkesp.obj
 0001:0004f5f0       __CRT_RTC_INITW            100505f0 f   LIBCMTD:chkesp.obj
 0001:0004f600       __chkesp                   10050600 f   LIBCMTD:chkesp.obj
 0001:0004f640       ??0_LocaleUpdate@@QAE@PAUlocaleinfo_struct@@@Z 10050640 f i LIBCMTD:cvt.obj
 0001:0004f720       ??1_LocaleUpdate@@QAE@XZ   10050720 f i LIBCMTD:cvt.obj
 0001:0004f750       ?GetLocaleT@_LocaleUpdate@@QAEPAUlocaleinfo_struct@@XZ 10050750 f i LIBCMTD:cvt.obj
 0001:0004f760       ?strrchr@@YAPADPADH@Z      10050760 f i LIBCMTD:cvt.obj
 0001:0004f780       __cfltcvt                  10050780 f   LIBCMTD:cvt.obj
 0001:0004f7b0       __cfltcvt_l                100507b0 f   LIBCMTD:cvt.obj
 0001:0004f870       __cftoa                    10050870 f   LIBCMTD:cvt.obj
 0001:0004f8a0       __cftoa_l                  100508a0 f   LIBCMTD:cvt.obj
 0001:00050110       __cftoe                    10051110 f   LIBCMTD:cvt.obj
 0001:00050550       __cftoe_l                  10051550 f   LIBCMTD:cvt.obj
 0001:00050780       __cftof                    10051780 f   LIBCMTD:cvt.obj
 0001:00050a30       __cftof_l                  10051a30 f   LIBCMTD:cvt.obj
 0001:00050c30       __cftog                    10051c30 f   LIBCMTD:cvt.obj
 0001:00050c60       __cftog_l                  10051c60 f   LIBCMTD:cvt.obj
 0001:00050ef0       __cropzeros                10051ef0 f   LIBCMTD:cvt.obj
 0001:00050f10       __cropzeros_l              10051f10 f   LIBCMTD:cvt.obj
 0001:00051030       __fassign                  10052030 f   LIBCMTD:cvt.obj
 0001:00051050       __fassign_l                10052050 f   LIBCMTD:cvt.obj
 0001:000510a0       __forcdecpt                100520a0 f   LIBCMTD:cvt.obj
 0001:000510c0       __forcdecpt_l              100520c0 f   LIBCMTD:cvt.obj
 0001:00051190       __positive                 10052190 f   LIBCMTD:cvt.obj
 0001:000511f0       __setdefaultprecision      100521f0 f   LIBCMTD:fp8.obj
 0001:00051230       __initp_misc_cfltcvt_tab   10052230 f   LIBCMTD:cmiscdat.obj
 0001:00051270       __vprintf_l                10052270 f   LIBCMTD:vprintf.obj
 0001:00051290       __vprintf_p                10052290 f   LIBCMTD:vprintf.obj
 0001:000512b0       __vprintf_p_l              100522b0 f   LIBCMTD:vprintf.obj
 0001:000512d0       __vprintf_s_l              100522d0 f   LIBCMTD:vprintf.obj
 0001:000512f0       _vprintf                   100522f0 f   LIBCMTD:vprintf.obj
 0001:00051310       _vprintf_helper            10052310 f   LIBCMTD:vprintf.obj
 0001:00051450       _vprintf_s                 10052450 f   LIBCMTD:vprintf.obj
 0001:00051470       __ftbuf                    10052470 f   LIBCMTD:_sftbuf.obj
 0001:00051500       __stbuf                    10052500 f   LIBCMTD:_sftbuf.obj
 0001:00051670       __output_l                 10052670 f   LIBCMTD:output.obj
 0001:00052d10       _get_int64_arg             10053d10 f i LIBCMTD:output.obj
 0001:00052d30       _get_int_arg               10053d30 f i LIBCMTD:output.obj
 0001:00052d50       _get_short_arg             10053d50 f i LIBCMTD:output.obj
 0001:00052f10       ___doserrno                10053f10 f   LIBCMTD:dosmap.obj
 0001:00052f40       __dosmaperr                10053f40 f   LIBCMTD:dosmap.obj
 0001:00052f70       __errno                    10053f70 f   LIBCMTD:dosmap.obj
 0001:00052fa0       __get_doserrno             10053fa0 f   LIBCMTD:dosmap.obj
 0001:00053030       __get_errno                10054030 f   LIBCMTD:dosmap.obj
 0001:000530c0       __get_errno_from_oserr     100540c0 f   LIBCMTD:dosmap.obj
 0001:00053140       __set_doserrno             10054140 f   LIBCMTD:dosmap.obj
 0001:00053170       __set_errno                10054170 f   LIBCMTD:dosmap.obj
 0001:00053200       __except_handler4          10054200 f   LIBCMTD:chandler4.obj
 0001:000533c0       __CIcos_pentium4           100543c0 f   LIBCMTD:cos_pentium4.obj
 0001:000533d8       __cos_pentium4             100543d8     LIBCMTD:cos_pentium4.obj
 0001:00053570       ___raise_securityfailure   10054570 f   LIBCMTD:gs_report.obj
 0001:000535c0       ___report_gsfailure        100545c0 f   LIBCMTD:gs_report.obj
 0001:000536d0       ___report_rangecheckfailure 100546d0 f   LIBCMTD:gs_report.obj
 0001:000536e0       ___report_securityfailure  100546e0 f   LIBCMTD:gs_report.obj
 0001:000537c0       ___report_securityfailureEx 100547c0 f   LIBCMTD:gs_report.obj
 0001:000538f0       __VEC_memset               100548f0 f   LIBCMTD:p4_memset.obj
 0001:000539c0       ___isa_available_init      100549c0 f   LIBCMTD:cpu_disp.obj
 0001:00053bc0       __flsbuf                   10054bc0 f   LIBCMTD:_flsbuf.obj
 0001:00053e90       __vsnprintf                10054e90 f   LIBCMTD:vsnprint.obj
 0001:00053eb0       __vsnprintf_l              10054eb0 f   LIBCMTD:vsnprint.obj
 0001:00054090       ___get_flsindex            10055090 f   LIBCMTD:tidtable.obj
 0001:000540a0       ___threadhandle            100550a0 f   LIBCMTD:tidtable.obj
 0001:000540b0       ___threadid                100550b0 f   LIBCMTD:tidtable.obj
 0001:000540c0       __freefls@4                100550c0 f   LIBCMTD:tidtable.obj
 0001:000542c0       __freeptd                  100552c0 f   LIBCMTD:tidtable.obj
 0001:00054300       __getptd                   10055300 f   LIBCMTD:tidtable.obj
 0001:00054330       __getptd_noexit            10055330 f   LIBCMTD:tidtable.obj
 0001:000543e0       __initptd                  100553e0 f   LIBCMTD:tidtable.obj
 0001:00054520       __mtinit                   10055520 f   LIBCMTD:tidtable.obj
 0001:000545d0       __mtterm                   100555d0 f   LIBCMTD:tidtable.obj
 0001:00054600       _ldexp                     10055600 f   LIBCMTD:ldexp.obj
 0001:000548e0       __CItan_pentium4           100558e0 f   LIBCMTD:tan_pentium4.obj
 0001:000548f8       __tan_pentium4             100558f8     LIBCMTD:tan_pentium4.obj
 0001:00054b40       __CIasin_pentium4          10055b40 f   LIBCMTD:asin_pentium4.obj
 0001:00054b58       __asin_pentium4            10055b58     LIBCMTD:asin_pentium4.obj
 0001:000550c0       __CIatan_pentium4          100560c0 f   LIBCMTD:atan_pentium4.obj
 0001:000550d8       __atan_pentium4            100560d8     LIBCMTD:atan_pentium4.obj
 0001:000553b0       __CIlog_pentium4           100563b0 f   LIBCMTD:log_pentium4.obj
 0001:000553c8       __log_pentium4             100563c8     LIBCMTD:log_pentium4.obj
 0001:00055620       __XcptFilter               10056620 f   LIBCMTD:winxfltr.obj
 0001:00055820       ___CppXcptFilter           10056820 f   LIBCMTD:winxfltr.obj
 0001:000558b0       __get_heap_handle          100568b0 f   LIBCMTD:heapinit.obj
 0001:000558f0       __heap_init                100568f0 f   LIBCMTD:heapinit.obj
 0001:00055920       __heap_term                10056920 f   LIBCMTD:heapinit.obj
 0001:00055930       __ioinit                   10056930 f   LIBCMTD:ioinit.obj
 0001:00055e10       __ioterm                   10056e10 f   LIBCMTD:ioinit.obj
 0001:00055eb0       __set_pgmptr               10056eb0 f i LIBCMTD:stdargv.obj
 0001:00055ec0       __setargv                  10056ec0 f   LIBCMTD:stdargv.obj
 0001:00056390       __setenvp                  10057390 f   LIBCMTD:stdenvp.obj
 0001:000569c0       __CrtCheckMemory           100579c0 f   LIBCMTD:dbgheap.obj
 0001:00056e20       __CrtDoForAllClientObjects 10057e20 f   LIBCMTD:dbgheap.obj
 0001:00056f50       __CrtDumpMemoryLeaks       10057f50 f   LIBCMTD:dbgheap.obj
 0001:00056ff0       __CrtGetAllocHook          10057ff0 f   LIBCMTD:dbgheap.obj
 0001:00057000       __CrtGetCheckCount         10058000 f   LIBCMTD:dbgheap.obj
 0001:00057010       __CrtGetDumpClient         10058010 f   LIBCMTD:dbgheap.obj
 0001:00057020       __CrtIsMemoryBlock         10058020 f   LIBCMTD:dbgheap.obj
 0001:00057190       __CrtIsValidHeapPointer    10058190 f   LIBCMTD:dbgheap.obj
 0001:000571d0       __CrtIsValidPointer        100581d0 f   LIBCMTD:dbgheap.obj
 0001:00057200       __CrtMemCheckpoint         10058200 f   LIBCMTD:dbgheap.obj
 0001:00057430       __CrtMemDifference         10058430 f   LIBCMTD:dbgheap.obj
 0001:00057690       __CrtMemDumpAllObjectsSince 10058690 f   LIBCMTD:dbgheap.obj
 0001:000576d0       __CrtMemDumpStatistics     100586d0 f   LIBCMTD:dbgheap.obj
 0001:000577f0       __CrtReportBlockType       100587f0 f   LIBCMTD:dbgheap.obj
 0001:00057820       __CrtSetAllocHook          10058820 f   LIBCMTD:dbgheap.obj
 0001:00057840       __CrtSetBreakAlloc         10058840 f   LIBCMTD:dbgheap.obj
 0001:00057860       __CrtSetCheckCount         10058860 f   LIBCMTD:dbgheap.obj
 0001:00057880       __CrtSetDbgBlockType       10058880 f   LIBCMTD:dbgheap.obj
 0001:00057970       __CrtSetDbgFlag            10058970 f   LIBCMTD:dbgheap.obj
 0001:00057ac0       __CrtSetDebugFillThreshold 10058ac0 f   LIBCMTD:dbgheap.obj
 0001:00057ae0       __CrtSetDumpClient         10058ae0 f   LIBCMTD:dbgheap.obj
 0001:00057b00       __aligned_free             10058b00 f   LIBCMTD:dbgheap.obj
 0001:00057b20       __aligned_free_dbg         10058b20 f   LIBCMTD:dbgheap.obj
 0001:00057bd0       __aligned_malloc           10058bd0 f   LIBCMTD:dbgheap.obj
 0001:00057bf0       __aligned_malloc_dbg       10058bf0 f   LIBCMTD:dbgheap.obj
 0001:00057c10       __aligned_msize            10058c10 f   LIBCMTD:dbgheap.obj
 0001:00057c30       __aligned_msize_dbg        10058c30 f   LIBCMTD:dbgheap.obj
 0001:00057d50       __aligned_offset_malloc    10058d50 f   LIBCMTD:dbgheap.obj
 0001:00057d70       __aligned_offset_malloc_dbg 10058d70 f   LIBCMTD:dbgheap.obj
 0001:00057f50       __aligned_offset_realloc   10058f50 f   LIBCMTD:dbgheap.obj
 0001:00057f80       __aligned_offset_realloc_dbg 10058f80 f   LIBCMTD:dbgheap.obj
 0001:00058290       __aligned_offset_recalloc  10059290 f   LIBCMTD:dbgheap.obj
 0001:000582c0       __aligned_offset_recalloc_dbg 100592c0 f   LIBCMTD:dbgheap.obj
 0001:00058380       __aligned_realloc          10059380 f   LIBCMTD:dbgheap.obj
 0001:000583a0       __aligned_realloc_dbg      100593a0 f   LIBCMTD:dbgheap.obj
 0001:000583d0       __aligned_recalloc         100593d0 f   LIBCMTD:dbgheap.obj
 0001:00058400       __aligned_recalloc_dbg     10059400 f   LIBCMTD:dbgheap.obj
 0001:00058430       __calloc_dbg               10059430 f   LIBCMTD:dbgheap.obj
 0001:00058490       __calloc_dbg_impl          10059490 f   LIBCMTD:dbgheap.obj
 0001:00058510       __expand                   10059510 f   LIBCMTD:dbgheap.obj
 0001:00058540       __expand_dbg               10059540 f   LIBCMTD:dbgheap.obj
 0001:00058660       __free_dbg                 10059660 f   LIBCMTD:dbgheap.obj
 0001:000586e0       __free_dbg_nolock          100596e0 f   LIBCMTD:dbgheap.obj
 0001:00058be0       __free_nolock              10059be0 f   LIBCMTD:dbgheap.obj
 0001:00058c00       __heap_alloc               10059c00 f   LIBCMTD:dbgheap.obj
 0001:00058c20       __heap_alloc_dbg           10059c20 f   LIBCMTD:dbgheap.obj
 0001:00059040       __malloc_dbg               1005a040 f   LIBCMTD:dbgheap.obj
 0001:00059070       __msize                    1005a070 f   LIBCMTD:dbgheap.obj
 0001:00059090       __msize_dbg                1005a090 f   LIBCMTD:dbgheap.obj
 0001:000592a0       __nh_malloc                1005a2a0 f   LIBCMTD:dbgheap.obj
 0001:000592c0       __nh_malloc_dbg            1005a2c0 f   LIBCMTD:dbgheap.obj
 0001:00059550       __realloc_dbg              1005a550 f   LIBCMTD:dbgheap.obj
 0001:000595e0       __recalloc                 1005a5e0 f   LIBCMTD:dbgheap.obj
 0001:00059610       __recalloc_dbg             1005a610 f   LIBCMTD:dbgheap.obj
 0001:00059cd0       ___security_init_cookie    1005acd0 f   LIBCMTD:gs_support.obj
 0001:00059db0       _DllMain@12                1005adb0 f   LIBCMTD:dllmain.obj
 0001:00059dc0       ___crtGetEnvironmentStringsA 1005adc0 f   LIBCMTD:a_env.obj
 0001:00059ec0       __RTC_Initialize           1005aec0 f   LIBCMTD:initsect.obj
 0001:00059ef0       __RTC_Terminate            1005aef0 f   LIBCMTD:initsect.obj
 0001:00059f20       ?_inconsistency@@YAXXZ     1005af20 f   LIBCMTD:hooks.obj
 0001:00059fb0       ?terminate@@YAXXZ          1005afb0 f   LIBCMTD:hooks.obj
 0001:0005a030       ?unexpected@@YAXXZ         1005b030 f   LIBCMTD:hooks.obj
 0001:0005a060       __initp_eh_hooks           1005b060 f   LIBCMTD:hooks.obj
 0001:0005a080       __FF_MSGBANNER             1005b080 f   LIBCMTD:crt0msg.obj
 0001:0005a0d0       __GET_RTERRMSG             1005b0d0 f   LIBCMTD:crt0msg.obj
 0001:0005a110       __NMSG_WRITE               1005b110 f   LIBCMTD:crt0msg.obj
 0001:0005a4d0       __set_abort_behavior       1005b4d0 f   LIBCMTD:abort.obj
 0001:0005a500       _abort                     1005b500 f   LIBCMTD:abort.obj
 0001:0005a570       ___getlocaleinfo           1005b570 f   LIBCMTD:inithelp.obj
 0001:0005a870       __initp_misc_purevirt      1005b870 f   LIBCMTD:inithelp.obj
 0001:0005a880       _malloc                    1005b880 f   LIBCMTD:dbgmalloc.obj
 0001:0005a8b0       ?_query_new_handler@@YAP6AHI@ZXZ 1005b8b0 f   LIBCMTD:handler.obj
 0001:0005a8d0       ?_set_new_handler@@YAP6AHI@ZH@Z 1005b8d0 f   LIBCMTD:handler.obj
 0001:0005a910       ?_set_new_handler@@YAP6AHI@ZP6AHI@Z@Z 1005b910 f   LIBCMTD:handler.obj
 0001:0005a950       __callnewh                 1005b950 f   LIBCMTD:handler.obj
 0001:0005a990       __initp_heap_handler       1005b990 f   LIBCMTD:handler.obj
 0001:0005a9a0       __CrtDefaultAllocHook      1005b9a0 f   LIBCMTD:dbghook.obj
 0001:0005a9b0       __crt_debugger_hook        1005b9b0 f   LIBCMTD:dbghook.obj
 0001:0005a9c0       _memcpy_s                  1005b9c0 f   LIBCMTD:memcpy_s.obj
 0001:0005ab90       _wcscpy_s                  1005bb90 f   LIBCMTD:wcscpy_s.obj
 0001:0005aea0       _wcslen                    1005bea0 f   LIBCMTD:wcslen.obj
 0001:0005aee0       ___swprintf_l              1005bee0 f   LIBCMTD:swprintf.obj
 0001:0005af10       __scwprintf                1005bf10 f   LIBCMTD:swprintf.obj
 0001:0005af30       __scwprintf_l              1005bf30 f   LIBCMTD:swprintf.obj
 0001:0005af60       __scwprintf_p              1005bf60 f   LIBCMTD:swprintf.obj
 0001:0005af80       __scwprintf_p_l            1005bf80 f   LIBCMTD:swprintf.obj
 0001:0005afb0       __snwprintf_s              1005bfb0 f   LIBCMTD:swprintf.obj
 0001:0005afe0       __snwprintf_s_l            1005bfe0 f   LIBCMTD:swprintf.obj
 0001:0005b010       __swprintf                 1005c010 f   LIBCMTD:swprintf.obj
 0001:0005b230       __swprintf_p               1005c230 f   LIBCMTD:swprintf.obj
 0001:0005b260       __swprintf_p_l             1005c260 f   LIBCMTD:swprintf.obj
 0001:0005b290       __swprintf_s_l             1005c290 f   LIBCMTD:swprintf.obj
 0001:0005b2c0       _swprintf_s                1005c2c0 f   LIBCMTD:swprintf.obj
 0001:0005b2f0       ___fpecode                 1005c2f0 f   LIBCMTD:winsig.obj
 0001:0005b300       ___get_sigabrt             1005c300 f   LIBCMTD:winsig.obj
 0001:0005b320       ___pxcptinfoptrs           1005c320 f   LIBCMTD:winsig.obj
 0001:0005b330       __initp_misc_winsig        1005c330 f   LIBCMTD:winsig.obj
 0001:0005b450       _raise                     1005c450 f   LIBCMTD:winsig.obj
 0001:0005b7c0       _signal                    1005c7c0 f   LIBCMTD:winsig.obj
 0001:0005bb70       ___crtMessageBoxW          1005cb70 f   LIBCMTD:crtmboxw.obj
 0001:0005be80       ___crtMessageBoxWaitThreadW@4 1005ce80 f   LIBCMTD:crtmboxw.obj
 0001:0005bec0       __CrtDbgBreak              1005cec0 f   LIBCMTD:dbgrptt.obj
 0001:0005bed0       __CrtGetReportHook         1005ced0 f   LIBCMTD:dbgrptt.obj
 0001:0005bee0       __CrtSetReportFile         1005cee0 f   LIBCMTD:dbgrptt.obj
 0001:0005bfe0       __CrtSetReportHook         1005cfe0 f   LIBCMTD:dbgrptt.obj
 0001:0005c000       __CrtSetReportMode         1005d000 f   LIBCMTD:dbgrptt.obj
 0001:0005c140       __VCrtDbgReportA           1005d140 f   LIBCMTD:dbgrptt.obj
 0001:0005c9b0       __VCrtDbgReportW           1005d9b0 f   LIBCMTD:dbgrptt.obj
 0001:0005d320       __chkstk                   1005e320 f   LIBCMTD:chkstk.obj
 0001:0005d320       __alloca_probe             1005e320     LIBCMTD:chkstk.obj
 0001:0005d350       __CallSettingFrame@12      1005e350 f   LIBCMTD:lowhelpr.obj
 0001:0005d377       __NLG_Return               1005e377     LIBCMTD:lowhelpr.obj
 0001:0005d3a0       ___DestructExceptionObject 1005e3a0 f   LIBCMTD:frame.obj
 0001:0005d4c0       ??0bad_exception@std@@QAE@ABV01@@Z 1005e4c0 f i LIBCMTD:frame.obj
 0001:0005d4f0       ??0bad_exception@std@@QAE@PBD@Z 1005e4f0 f i LIBCMTD:frame.obj
 0001:0005d520       ??1bad_exception@std@@UAE@XZ 1005e520 f i LIBCMTD:frame.obj
 0001:0005d540       ??_Gbad_exception@std@@UAEPAXI@Z 1005e540 f i LIBCMTD:frame.obj
 0001:0005d540       ??_Ebad_exception@std@@UAEPAXI@Z 1005e540 f i LIBCMTD:frame.obj
 0001:0005e140       ?__uncaught_exception@@YA_NXZ 1005f140 f   LIBCMTD:frame.obj
 0001:0005e170       ?_is_exception_typeof@@YAHABVtype_info@@PAU_EXCEPTION_POINTERS@@@Z 1005f170 f   LIBCMTD:frame.obj
 0001:0005e250       ___AdjustPointer           1005f250 f   LIBCMTD:frame.obj
 0001:0005e2a0       ___BuildCatchObject        1005f2a0 f   LIBCMTD:frame.obj
 0001:0005e3b0       ___BuildCatchObjectHelper  1005f3b0 f   LIBCMTD:frame.obj
 0001:0005e630       ___CxxDetectRethrow        1005f630 f   LIBCMTD:frame.obj
 0001:0005e6b0       ___CxxExceptionFilter      1005f6b0 f   LIBCMTD:frame.obj
 0001:0005e8b0       ___CxxQueryExceptionSize   1005f8b0 f   LIBCMTD:frame.obj
 0001:0005e8c0       ___CxxRegisterExceptionObject 1005f8c0 f   LIBCMTD:frame.obj
 0001:0005ea00       ___CxxUnregisterExceptionObject 1005fa00 f   LIBCMTD:frame.obj
 0001:0005eb80       ___FrameUnwindFilter       1005fb80 f   LIBCMTD:frame.obj
 0001:0005ec00       ___FrameUnwindToState      1005fc00 f   LIBCMTD:frame.obj
 0001:0005ed80       ___InternalCxxFrameHandler 1005fd80 f   LIBCMTD:frame.obj
 0001:0005eef0       ___TypeMatch               1005fef0 f   LIBCMTD:frame.obj
 0001:0005efb0       ?_Name_base@type_info@@CAPBDPBV1@PAU__type_info_node@@@Z 1005ffb0 f   LIBCMTD:typname.obj
 0001:0005f160       ?_Name_base_internal@type_info@@CAPBDPBV1@PAU__type_info_node@@@Z 10060160 f   LIBCMTD:typname.obj
 0001:0005f320       ?_Type_info_dtor@type_info@@CAXPAV1@@Z 10060320 f   LIBCMTD:typname.obj
 0001:0005f430       ?_Type_info_dtor_internal@type_info@@CAXPAV1@@Z 10060430 f   LIBCMTD:typname.obj
 0001:0005f540       ___clean_type_info_names_internal 10060540 f   LIBCMTD:typname.obj
 0001:0005f5f0       ___unDNameHelper           100605f0 f   LIBCMTD:typname.obj
 0001:0005f630       _wcscat_s                  10060630 f   LIBCMTD:wcscat_s.obj
 0001:0005fa40       _wcsncat_s                 10060a40 f   LIBCMTD:wcsncat_s.obj
 0001:0005ff30       ___set_app_type            10060f30 f   LIBCMTD:errmode.obj
 0001:0005ff40       __set_error_mode           10060f40 f   LIBCMTD:errmode.obj
 0001:00060440       __i64tow_s                 10061440 f   LIBCMTD:xtows.obj
 0001:00060490       __itow_s                   10061490 f   LIBCMTD:xtows.obj
 0001:000604f0       __ltow_s                   100614f0 f   LIBCMTD:xtows.obj
 0001:00060530       __ui64tow_s                10061530 f   LIBCMTD:xtows.obj
 0001:00060550       __ultow_s                  10061550 f   LIBCMTD:xtows.obj
 0001:00060970       __fflush_nolock            10061970 f   LIBCMTD:fflush.obj
 0001:000609e0       __flush                    100619e0 f   LIBCMTD:fflush.obj
 0001:00060aa0       __flushall                 10061aa0 f   LIBCMTD:fflush.obj
 0001:00060ab0       _fflush                    10061ab0 f   LIBCMTD:fflush.obj
 0001:00060cf0       _setvbuf                   10061cf0 f   LIBCMTD:setvbuf.obj
 0001:00060ff0       __fwprintf_l               10061ff0 f   LIBCMTD:fwprintf.obj
 0001:00061020       __fwprintf_p               10062020 f   LIBCMTD:fwprintf.obj
 0001:00061050       __fwprintf_p_l             10062050 f   LIBCMTD:fwprintf.obj
 0001:00061080       __fwprintf_s_l             10062080 f   LIBCMTD:fwprintf.obj
 0001:000610b0       _fwprintf                  100620b0 f   LIBCMTD:fwprintf.obj
 0001:00061260       _fwprintf_s                10062260 f   LIBCMTD:fwprintf.obj
 0001:00061290       __vsnwprintf_s             10062290 f   LIBCMTD:vswprnc.obj
 0001:000612c0       __vsnwprintf_s_l           100622c0 f   LIBCMTD:vswprnc.obj
 0001:000616a0       __vswprintf_c              100626a0 f   LIBCMTD:vswprnc.obj
 0001:000616f0       __vswprintf_c_l            100626f0 f   LIBCMTD:vswprnc.obj
 0001:00061740       __vswprintf_helper         10062740 f   LIBCMTD:vswprnc.obj
 0001:000619b0       __vswprintf_p              100629b0 f   LIBCMTD:vswprnc.obj
 0001:00061a00       __vswprintf_p_l            10062a00 f   LIBCMTD:vswprnc.obj
 0001:00061a50       __vswprintf_s_l            10062a50 f   LIBCMTD:vswprnc.obj
 0001:00061ce0       _vswprintf_s               10062ce0 f   LIBCMTD:vswprnc.obj
 0001:00061d00       __CIacos_pentium4          10062d00 f   LIBCMTD:acos_pentium4.obj
 0001:00061d18       __acos_pentium4            10062d18     LIBCMTD:acos_pentium4.obj
 0001:00062260       __FindPESection            10063260 f   LIBCMTD:pesect.obj
 0001:000622e0       __IsNonwritableInCurrentImage 100632e0 f   LIBCMTD:pesect.obj
 0001:00062410       __ValidateImageBase        10063410 f   LIBCMTD:pesect.obj
 0001:00062470       __initp_misc_rand_s        10063470 f   LIBCMTD:rand_s.obj
 0001:00062480       _rand_s                    10063480 f   LIBCMTD:rand_s.obj
 0001:000626f0       ___initmbctable            100636f0 f   LIBCMTD:mbctype.obj
 0001:00062d10       ___updatetmbcinfo          10063d10 f   LIBCMTD:mbctype.obj
 0001:00062e20       __getmbcp                  10063e20 f   LIBCMTD:mbctype.obj
 0001:00062e90       __setmbcp                  10063e90 f   LIBCMTD:mbctype.obj
 0001:00063130       __setmbcp_nolock           10064130 f   LIBCMTD:mbctype.obj
 0001:000634b0       __fileno                   100644b0 f   LIBCMTD:fileno.obj
 0001:00063540       __vfprintf_l               10064540 f   LIBCMTD:vfprintf.obj
 0001:00063570       __vfprintf_p               10064570 f   LIBCMTD:vfprintf.obj
 0001:00063590       __vfprintf_p_l             10064590 f   LIBCMTD:vfprintf.obj
 0001:000635c0       __vfprintf_s_l             100645c0 f   LIBCMTD:vfprintf.obj
 0001:000635f0       _vfprintf                  100645f0 f   LIBCMTD:vfprintf.obj
 0001:00063610       _vfprintf_helper           10064610 f   LIBCMTD:vfprintf.obj
 0001:000638e0       _vfprintf_s                100648e0 f   LIBCMTD:vfprintf.obj
 0001:00063900       __fcloseall                10064900 f   LIBCMTD:closeall.obj
 0001:00063a30       __output_p_l               10064a30 f   LIBCMTD:outputp.obj
 0001:00067820       __validate_param_reuseA    10068820 f   LIBCMTD:outputp.obj
 0001:00067b10       _get_crtdouble_arg         10068b10 f i LIBCMTD:outputp.obj
 0001:00067cd0       _free                      10068cd0 f   LIBCMTD:dbgfree.obj
 0001:00067cf0       _strcpy_s                  10068cf0 f   LIBCMTD:strcpy_s.obj
 0001:00067ff0       __87except                 10068ff0 f   LIBCMTD:87except.obj
 0001:000681f0       ___libm_error_support      100691f0 f   LIBCMTD:libm_error.obj
 0001:00068dc0       ___libm_setusermatherr     10069dc0 f   LIBCMTD:libm_error.obj
 0001:00068df0       __d_inttype                10069df0 f   LIBCMTD:powhlp.obj
 0001:00068e80       __powhlp                   10069e80 f   LIBCMTD:powhlp.obj
 0001:00069030       __matherr                  1006a030 f   LIBCMTD:matherr.obj
 0001:00069470       ?_RTC_GetSrcLine@@YAHPAEPA_WKPAH1K@Z 1006a470 f   LIBCMTD:pdblkup.obj
 0001:00069720       __CrtDbgReport             1006a720 f   LIBCMTD:dbgrpt.obj
 0001:00069770       __CrtDbgReportV            1006a770 f i LIBCMTD:dbgrpt.obj
 0001:000697a0       __CrtSetReportHook2        1006a7a0 f   LIBCMTD:dbgrpt.obj
 0001:00069af0       ___crtMessageWindowA       1006aaf0 f   LIBCMTD:dbgrpt.obj
 0001:00069f90       ___addlocaleref            1006af90 f   LIBCMTD:localref.obj
 0001:0006a0b0       ___freetlocinfo            1006b0b0 f   LIBCMTD:localref.obj
 0001:0006a3a0       ___removelocaleref         1006b3a0 f   LIBCMTD:localref.obj
 0001:0006a4c0       ___updatetlocinfo          1006b4c0 f   LIBCMTD:localref.obj
 0001:0006a590       __updatetlocinfoEx_nolock  1006b590 f   LIBCMTD:localref.obj
 0001:0006a610       ___isascii                 1006b610 f i LIBCMTD:_ctype.obj
 0001:0006a640       ___iscsym                  1006b640 f i LIBCMTD:_ctype.obj
 0001:0006a680       ___iscsymf                 1006b680 f i LIBCMTD:_ctype.obj
 0001:0006a6c0       ___toascii                 1006b6c0 f i LIBCMTD:_ctype.obj
 0001:0006a6d0       __isalnum_l                1006b6d0 f i LIBCMTD:_ctype.obj
 0001:0006a750       __isalpha_l                1006b750 f i LIBCMTD:_ctype.obj
 0001:0006a7d0       __iscntrl_l                1006b7d0 f i LIBCMTD:_ctype.obj
 0001:0006a850       __iscsym_l                 1006b850 f i LIBCMTD:_ctype.obj
 0001:0006a890       __iscsymf_l                1006b890 f i LIBCMTD:_ctype.obj
 0001:0006a8d0       __isdigit_l                1006b8d0 f i LIBCMTD:_ctype.obj
 0001:0006a950       __isgraph_l                1006b950 f i LIBCMTD:_ctype.obj
 0001:0006a9d0       __islower_l                1006b9d0 f i LIBCMTD:_ctype.obj
 0001:0006aa50       __isprint_l                1006ba50 f i LIBCMTD:_ctype.obj
 0001:0006aad0       __ispunct_l                1006bad0 f i LIBCMTD:_ctype.obj
 0001:0006ab50       __isspace_l                1006bb50 f i LIBCMTD:_ctype.obj
 0001:0006abd0       __isupper_l                1006bbd0 f i LIBCMTD:_ctype.obj
 0001:0006ac50       __isxdigit_l               1006bc50 f i LIBCMTD:_ctype.obj
 0001:0006acd0       _isalnum                   1006bcd0 f i LIBCMTD:_ctype.obj
 0001:0006ad10       _isalpha                   1006bd10 f i LIBCMTD:_ctype.obj
 0001:0006ad50       _iscntrl                   1006bd50 f i LIBCMTD:_ctype.obj
 0001:0006ad80       _isdigit                   1006bd80 f i LIBCMTD:_ctype.obj
 0001:0006adb0       _isgraph                   1006bdb0 f i LIBCMTD:_ctype.obj
 0001:0006adf0       _islower                   1006bdf0 f i LIBCMTD:_ctype.obj
 0001:0006ae20       _isprint                   1006be20 f i LIBCMTD:_ctype.obj
 0001:0006ae60       _ispunct                   1006be60 f i LIBCMTD:_ctype.obj
 0001:0006ae90       _isspace                   1006be90 f i LIBCMTD:_ctype.obj
 0001:0006aec0       _isupper                   1006bec0 f i LIBCMTD:_ctype.obj
 0001:0006aef0       _isxdigit                  1006bef0 f i LIBCMTD:_ctype.obj
 0001:0006af30       __tolower                  1006bf30 f   LIBCMTD:tolower.obj
 0001:0006af40       __tolower_l                1006bf40 f   LIBCMTD:tolower.obj
 0001:0006b180       _tolower                   1006c180 f   LIBCMTD:tolower.obj
 0001:0006b1d0       _strrchr                   1006c1d0 f   LIBCMTD:strrchr.obj
 0001:0006b310       __fptostr                  1006c310 f   LIBCMTD:_fptostr.obj
 0001:0006b630       __atodbl                   1006c630 f   LIBCMTD:atodbl.obj
 0001:0006b650       __atodbl_l                 1006c650 f   LIBCMTD:atodbl.obj
 0001:0006b750       __atoflt                   1006c750 f   LIBCMTD:atodbl.obj
 0001:0006b770       __atoflt_l                 1006c770 f   LIBCMTD:atodbl.obj
 0001:0006b870       __atoldbl                  1006c870 f   LIBCMTD:atodbl.obj
 0001:0006b890       __atoldbl_l                1006c890 f   LIBCMTD:atodbl.obj
 0001:0006b990       ___dtold                   1006c990 f   LIBCMTD:cfout.obj
 0001:0006baf0       __fltout2                  1006caf0 f   LIBCMTD:cfout.obj
 0001:0006bba0       __alldiv                   1006cba0 f   LIBCMTD:lldiv.obj
 0001:0006bc50       __allrem                   1006cc50 f   LIBCMTD:llrem.obj
 0001:0006bd10       __allshl                   1006cd10 f   LIBCMTD:llshl.obj
 0001:0006bd30       __aullshr                  1006cd30 f   LIBCMTD:ullshr.obj
 0001:0006bd50       __get_output_format        1006cd50 f   LIBCMTD:outputformat.obj
 0001:0006bd60       __set_output_format        1006cd60 f   LIBCMTD:outputformat.obj
 0001:0006be00       __controlfp_s              1006ce00 f   LIBCMTD:contrlfp.obj
 0001:0006bef0       __fptrap                   1006cef0 f   LIBCMTD:crt0fp.obj
 0001:0006bf00       __output_s_l               1006cf00 f   LIBCMTD:outputs.obj
 0001:0006d8a0       __isatty                   1006e8a0 f   LIBCMTD:isatty.obj
 0001:0006d960       ___iswcsym                 1006e960 f i LIBCMTD:_wctype.obj
 0001:0006d9a0       ___iswcsymf                1006e9a0 f i LIBCMTD:_wctype.obj
 0001:0006d9e0       __isleadbyte_l             1006e9e0 f i LIBCMTD:_wctype.obj
 0001:0006da30       __iswalnum_l               1006ea30 f i LIBCMTD:_wctype.obj
 0001:0006da50       __iswalpha_l               1006ea50 f i LIBCMTD:_wctype.obj
 0001:0006da70       __iswcntrl_l               1006ea70 f i LIBCMTD:_wctype.obj
 0001:0006da90       __iswcsym_l                1006ea90 f i LIBCMTD:_wctype.obj
 0001:0006dad0       __iswcsymf_l               1006ead0 f i LIBCMTD:_wctype.obj
 0001:0006db10       __iswdigit_l               1006eb10 f i LIBCMTD:_wctype.obj
 0001:0006db30       __iswgraph_l               1006eb30 f i LIBCMTD:_wctype.obj
 0001:0006db50       __iswlower_l               1006eb50 f i LIBCMTD:_wctype.obj
 0001:0006db70       __iswprint_l               1006eb70 f i LIBCMTD:_wctype.obj
 0001:0006db90       __iswpunct_l               1006eb90 f i LIBCMTD:_wctype.obj
 0001:0006dbb0       __iswspace_l               1006ebb0 f i LIBCMTD:_wctype.obj
 0001:0006dbd0       __iswupper_l               1006ebd0 f i LIBCMTD:_wctype.obj
 0001:0006dbf0       __iswxdigit_l              1006ebf0 f i LIBCMTD:_wctype.obj
 0001:0006dc10       _isleadbyte                1006ec10 f i LIBCMTD:_wctype.obj
 0001:0006dc30       _iswalnum                  1006ec30 f i LIBCMTD:_wctype.obj
 0001:0006dc50       _iswalpha                  1006ec50 f i LIBCMTD:_wctype.obj
 0001:0006dc70       _iswascii                  1006ec70 f i LIBCMTD:_wctype.obj
 0001:0006dca0       _iswcntrl                  1006eca0 f i LIBCMTD:_wctype.obj
 0001:0006dcc0       _iswdigit                  1006ecc0 f i LIBCMTD:_wctype.obj
 0001:0006dce0       _iswgraph                  1006ece0 f i LIBCMTD:_wctype.obj
 0001:0006dd00       _iswlower                  1006ed00 f i LIBCMTD:_wctype.obj
 0001:0006dd20       _iswprint                  1006ed20 f i LIBCMTD:_wctype.obj
 0001:0006dd40       _iswpunct                  1006ed40 f i LIBCMTD:_wctype.obj
 0001:0006dd60       _iswspace                  1006ed60 f i LIBCMTD:_wctype.obj
 0001:0006dd80       _iswupper                  1006ed80 f i LIBCMTD:_wctype.obj
 0001:0006dda0       _iswxdigit                 1006eda0 f i LIBCMTD:_wctype.obj
 0001:0006ddc0       __wctomb_l                 1006edc0 f   LIBCMTD:wctomb.obj
 0001:0006de40       __wctomb_s_l               1006ee40 f   LIBCMTD:wctomb.obj
 0001:0006e190       _wctomb                    1006f190 f   LIBCMTD:wctomb.obj
 0001:0006e1e0       _wctomb_s                  1006f1e0 f   LIBCMTD:wctomb.obj
 0001:0006e200       __aulldiv                  1006f200 f   LIBCMTD:ulldiv.obj
 0001:0006e270       __aullrem                  1006f270 f   LIBCMTD:ullrem.obj
 0001:0006e2f0       __local_unwind4            1006f2f0 f   LIBCMTD:exsup4.obj
 0001:0006e3c6       __seh_longjmp_unwind4@4    1006f3c6 f   LIBCMTD:exsup4.obj
 0001:0006e3e2       @_EH4_CallFilterFunc@8     1006f3e2 f   LIBCMTD:exsup4.obj
 0001:0006e3f9       @_EH4_TransferToHandler@8  1006f3f9 f   LIBCMTD:exsup4.obj
 0001:0006e412       @_EH4_GlobalUnwind2@8      1006f412 f   LIBCMTD:exsup4.obj
 0001:0006e42b       @_EH4_LocalUnwind@16       1006f42b f   LIBCMTD:exsup4.obj
 0001:0006e450       __write                    1006f450 f   LIBCMTD:write.obj
 0001:0006e6a0       __write_nolock             1006f6a0 f   LIBCMTD:write.obj
 0001:0006f430       __lseeki64                 10070430 f   LIBCMTD:lseeki64.obj
 0001:0006f6a0       __lseeki64_nolock          100706a0 f   LIBCMTD:lseeki64.obj
 0001:0006f770       __getbuf                   10070770 f   LIBCMTD:_getbuf.obj
 0001:0006f900       __ismbbalnum               10070900 f   LIBCMTD:ismbbyte.obj
 0001:0006f920       __ismbbalnum_l             10070920 f   LIBCMTD:ismbbyte.obj
 0001:0006f940       __ismbbalpha               10070940 f   LIBCMTD:ismbbyte.obj
 0001:0006f960       __ismbbalpha_l             10070960 f   LIBCMTD:ismbbyte.obj
 0001:0006f980       __ismbbgraph               10070980 f   LIBCMTD:ismbbyte.obj
 0001:0006f9a0       __ismbbgraph_l             100709a0 f   LIBCMTD:ismbbyte.obj
 0001:0006f9c0       __ismbbkalnum              100709c0 f   LIBCMTD:ismbbyte.obj
 0001:0006f9e0       __ismbbkalnum_l            100709e0 f   LIBCMTD:ismbbyte.obj
 0001:0006fa00       __ismbbkana                10070a00 f   LIBCMTD:ismbbyte.obj
 0001:0006fa20       __ismbbkana_l              10070a20 f   LIBCMTD:ismbbyte.obj
 0001:0006fa90       __ismbbkprint              10070a90 f   LIBCMTD:ismbbyte.obj
 0001:0006fab0       __ismbbkprint_l            10070ab0 f   LIBCMTD:ismbbyte.obj
 0001:0006fad0       __ismbbkpunct              10070ad0 f   LIBCMTD:ismbbyte.obj
 0001:0006faf0       __ismbbkpunct_l            10070af0 f   LIBCMTD:ismbbyte.obj
 0001:0006fb10       __ismbblead                10070b10 f   LIBCMTD:ismbbyte.obj
 0001:0006fb30       __ismbblead_l              10070b30 f   LIBCMTD:ismbbyte.obj
 0001:0006fb50       __ismbbprint               10070b50 f   LIBCMTD:ismbbyte.obj
 0001:0006fb70       __ismbbprint_l             10070b70 f   LIBCMTD:ismbbyte.obj
 0001:0006fb90       __ismbbpunct               10070b90 f   LIBCMTD:ismbbyte.obj
 0001:0006fbb0       __ismbbpunct_l             10070bb0 f   LIBCMTD:ismbbyte.obj
 0001:0006fbd0       __ismbbtrail               10070bd0 f   LIBCMTD:ismbbyte.obj
 0001:0006fbf0       __ismbbtrail_l             10070bf0 f   LIBCMTD:ismbbyte.obj
 0001:0006fc10       __chvalidator              10070c10 f   LIBCMTD:isctype.obj
 0001:0006fc60       __chvalidator_l            10070c60 f   LIBCMTD:isctype.obj
 0001:0006fd20       __isctype                  10070d20 f   LIBCMTD:isctype.obj
 0001:0006fd60       __isctype_l                10070d60 f   LIBCMTD:isctype.obj
 0001:0006feb0       __free_base                10070eb0 f   LIBCMTD:free.obj
 0001:0006ff00       __realloc_base             10070f00 f   LIBCMTD:realloc.obj
 0001:00070000       __expand_base              10071000 f   LIBCMTD:expand.obj
 0001:00070170       __heapchk                  10071170 f   LIBCMTD:heapchk.obj
 0001:000701a0       __heapset                  100711a0 f   LIBCMTD:heapchk.obj
 0001:000701b0       __scprintf                 100711b0 f   LIBCMTD:sprintf.obj
 0001:000701d0       __scprintf_l               100711d0 f   LIBCMTD:sprintf.obj
 0001:00070200       __scprintf_p               10071200 f   LIBCMTD:sprintf.obj
 0001:00070220       __scprintf_p_l             10071220 f   LIBCMTD:sprintf.obj
 0001:00070250       __snprintf_s               10071250 f   LIBCMTD:sprintf.obj
 0001:00070280       __snprintf_s_l             10071280 f   LIBCMTD:sprintf.obj
 0001:000702b0       __sprintf_l                100712b0 f   LIBCMTD:sprintf.obj
 0001:000702e0       __sprintf_p                100712e0 f   LIBCMTD:sprintf.obj
 0001:00070310       __sprintf_p_l              10071310 f   LIBCMTD:sprintf.obj
 0001:00070340       __sprintf_s_l              10071340 f   LIBCMTD:sprintf.obj
 0001:00070370       _sprintf                   10071370 f   LIBCMTD:sprintf.obj
 0001:00070530       _sprintf_s                 10071530 f   LIBCMTD:sprintf.obj
 0001:00070560       __heap_alloc_base          10071560 f i LIBCMTD:malloc.obj
 0001:000705c0       __malloc_base              100715c0 f   LIBCMTD:malloc.obj
 0001:00070650       _wcsncpy_s                 10071650 f   LIBCMTD:wcsncpy_s.obj
 0001:00070a80       _strncpy_s                 10071a80 f   LIBCMTD:strncpy_s.obj
 0001:00070fb0       __MarkAllocaS              10071fb0 f i LIBCMTD:a_loc.obj
 0001:00070fd0       ___crtGetLocaleInfoA       10071fd0 f   LIBCMTD:a_loc.obj
 0001:00071020       __freea                    10072020 f i LIBCMTD:a_loc.obj
 0001:00071090       _GetTableIndexFromLcid     10072090 f   LIBCMTD:winapinls.obj
 0001:00071100       _GetTableIndexFromLocaleName 10072100 f   LIBCMTD:winapinls.obj
 0001:00071190       ___crtCompareStringEx      10072190 f   LIBCMTD:winapinls.obj
 0001:00071200       ___crtDownlevelLCIDToLocaleName 10072200 f   LIBCMTD:winapinls.obj
 0001:000712d0       ___crtDownlevelLocaleNameToLCID 100722d0 f   LIBCMTD:winapinls.obj
 0001:00071330       ___crtEnumSystemLocalesEx  10072330 f   LIBCMTD:winapinls.obj
 0001:000713a0       ___crtGetDateFormatEx      100723a0 f   LIBCMTD:winapinls.obj
 0001:00071410       ___crtGetLocaleInfoEx      10072410 f   LIBCMTD:winapinls.obj
 0001:00071470       ___crtGetTimeFormatEx      10072470 f   LIBCMTD:winapinls.obj
 0001:000714e0       ___crtGetUserDefaultLocaleName 100724e0 f   LIBCMTD:winapinls.obj
 0001:00071530       ___crtIsValidLocaleName    10072530 f   LIBCMTD:winapinls.obj
 0001:00071570       ___crtLCMapStringEx        10072570 f   LIBCMTD:winapinls.obj
 0001:000715e0       ___wcsnicmp_ascii          100725e0 f   LIBCMTD:winapinls.obj
 0001:000716b0       ___vswprintf_l             100726b0 f   LIBCMTD:vswprint.obj
 0001:000716d0       __vscwprintf               100726d0 f   LIBCMTD:vswprint.obj
 0001:000716f0       __vscwprintf_helper        100726f0 f   LIBCMTD:vswprint.obj
 0001:000717e0       __vscwprintf_l             100727e0 f   LIBCMTD:vswprint.obj
 0001:00071800       __vscwprintf_p             10072800 f   LIBCMTD:vswprint.obj
 0001:00071820       __vscwprintf_p_l           10072820 f   LIBCMTD:vswprint.obj
 0001:00071840       __vswprintf                10072840 f   LIBCMTD:vswprint.obj
 0001:00071860       __vswprintf_l              10072860 f   LIBCMTD:vswprint.obj
 0001:00071a80       __woutput_l                10072a80 f   LIBCMTD:woutput.obj
 0001:00073060       _strcat_s                  10074060 f   LIBCMTD:strcat_s.obj
 0001:00073890       __i64toa_s                 10074890 f   LIBCMTD:xtoas.obj
 0001:000738e0       __itoa_s                   100748e0 f   LIBCMTD:xtoas.obj
 0001:00073940       __ltoa_s                   10074940 f   LIBCMTD:xtoas.obj
 0001:00073980       __ui64toa_s                10074980 f   LIBCMTD:xtoas.obj
 0001:000739a0       __ultoa_s                  100749a0 f   LIBCMTD:xtoas.obj
 0001:00073da0       __mbstowcs_l               10074da0 f   LIBCMTD:mbstowcs.obj
 0001:00073dc0       __mbstowcs_l_helper        10074dc0 f   LIBCMTD:mbstowcs.obj
 0001:00074150       __mbstowcs_s_l             10075150 f   LIBCMTD:mbstowcs.obj
 0001:00074510       _mbstowcs                  10075510 f   LIBCMTD:mbstowcs.obj
 0001:00074560       _mbstowcs_s                10075560 f   LIBCMTD:mbstowcs.obj
 0001:000745f0       __wcstombs_l               100755f0 f   LIBCMTD:wcstombs.obj
 0001:00074610       __wcstombs_l_helper        10075610 f   LIBCMTD:wcstombs.obj
 0001:00074b20       __wcstombs_s_l             10075b20 f   LIBCMTD:wcstombs.obj
 0001:00074e80       _wcstombs                  10075e80 f   LIBCMTD:wcstombs.obj
 0001:00074ea0       _wcstombs_s                10075ea0 f   LIBCMTD:wcstombs.obj
 0001:00074ed0       __vsnprintf_c              10075ed0 f   LIBCMTD:vsnprnc.obj
 0001:00074f20       __vsnprintf_c_l            10075f20 f   LIBCMTD:vsnprnc.obj
 0001:00074f70       __vsnprintf_helper         10075f70 f   LIBCMTD:vsnprnc.obj
 0001:00075170       __vsnprintf_s              10076170 f   LIBCMTD:vsnprnc.obj
 0001:000751a0       __vsnprintf_s_l            100761a0 f   LIBCMTD:vsnprnc.obj
 0001:00075560       __vsprintf_p               10076560 f   LIBCMTD:vsnprnc.obj
 0001:000755b0       __vsprintf_p_l             100765b0 f   LIBCMTD:vsnprnc.obj
 0001:00075600       __vsprintf_s_l             10076600 f   LIBCMTD:vsnprnc.obj
 0001:00075890       _vsprintf_s                10076890 f   LIBCMTD:vsnprnc.obj
 0001:000758b0       __global_unwind2           100768b0 f   LIBCMTD:exsup.obj
 0001:00075915       __local_unwind2            10076915 f   LIBCMTD:exsup.obj
 0001:00075999       __abnormal_termination     10076999 f   LIBCMTD:exsup.obj
 0001:000759bc       __NLG_Notify1              100769bc f   LIBCMTD:exsup.obj
 0001:000759c5       __NLG_Notify               100769c5 f   LIBCMTD:exsup.obj
 0001:000759dc       __NLG_Dispatch2            100769dc     LIBCMTD:exsup.obj
 0001:000759dc       __NLG_Dispatch             100769dc     LIBCMTD:exsup.obj
 0001:000759e4       __NLG_Call                 100769e4 f   LIBCMTD:exsup.obj
 0001:000759e6       __NLG_Return2              100769e6     LIBCMTD:exsup.obj
 0001:000759f0       ?_ValidateExecute@@YAHP6GHXZ@Z 100769f0 f   LIBCMTD:validate.obj
 0001:00075a10       ?_ValidateRead@@YAHPBXI@Z  10076a10 f   LIBCMTD:validate.obj
 0001:00075a30       ?_ValidateWrite@@YAHPAXI@Z 10076a30 f   LIBCMTD:validate.obj
 0001:00075a50       ??0Block@_HeapManager@@QAE@XZ 10076a50 f i LIBCMTD:undname.obj
 0001:00075a70       ??0DName@@QAE@AAPBDD@Z     10076a70 f   LIBCMTD:undname.obj
 0001:00075d30       ??0DName@@QAE@ABV0@@Z      10076d30 f i LIBCMTD:undname.obj
 0001:00075d50       ??0DName@@QAE@D@Z          10076d50 f   LIBCMTD:undname.obj
 0001:00075e30       ??0DName@@QAE@PAV0@@Z      10076e30 f   LIBCMTD:undname.obj
 0001:00075f70       ??0DName@@QAE@PBD@Z        10076f70 f   LIBCMTD:undname.obj
 0001:00076060       ??0DName@@QAE@W4DNameStatus@@@Z 10077060 f   LIBCMTD:undname.obj
 0001:00076180       ??0DName@@QAE@XZ           10077180 f i LIBCMTD:undname.obj
 0001:00076240       ??0DName@@QAE@_J@Z         10077240 f   LIBCMTD:undname.obj
 0001:000763c0       ??0DName@@QAE@_K@Z         100773c0 f   LIBCMTD:undname.obj
 0001:00076500       ??0DNameNode@@IAE@XZ       10077500 f   LIBCMTD:undname.obj
 0001:00076520       ??0DNameStatusNode@@AAE@W4DNameStatus@@@Z 10077520 f   LIBCMTD:undname.obj
 0001:00076570       ??0Replicator@@QAE@XZ      10077570 f i LIBCMTD:undname.obj
 0001:00076590       ??0UnDecorator@@QAE@PADPBDHP6APADJ@ZK@Z 10077590 f i LIBCMTD:undname.obj
 0001:00076630       ??0charNode@@QAE@D@Z       10077630 f   LIBCMTD:undname.obj
 0001:00076660       ??0pDNameNode@@QAE@PAVDName@@@Z 10077660 f   LIBCMTD:undname.obj
 0001:000766c0       ??0pairNode@@QAE@PAVDNameNode@@0@Z 100776c0 f   LIBCMTD:undname.obj
 0001:00076700       ??0pcharNode@@QAE@PBDH@Z   10077700 f   LIBCMTD:undname.obj
 0001:000767a0       ??2@YAPAXIAAV_HeapManager@@H@Z 100777a0 f i LIBCMTD:undname.obj
 0001:000767c0       ??4DName@@QAEAAV0@ABV0@@Z  100777c0 f   LIBCMTD:undname.obj
 0001:000767e0       ??4DName@@QAEAAV0@D@Z      100777e0 f i LIBCMTD:undname.obj
 0001:000768c0       ??4DName@@QAEAAV0@PAV0@@Z  100778c0 f   LIBCMTD:undname.obj
 0001:000769f0       ??4DName@@QAEAAV0@PBD@Z    100779f0 f   LIBCMTD:undname.obj
 0001:00076ad0       ??4DName@@QAEAAV0@W4DNameStatus@@@Z 10077ad0 f   LIBCMTD:undname.obj
 0001:00076bd0       ??AReplicator@@QBE?AVDName@@H@Z 10077bd0 f   LIBCMTD:undname.obj
 0001:00076c40       ??BUnDecorator@@QAEPADXZ   10077c40 f i LIBCMTD:undname.obj
 0001:00076ed0       ??H@YA?AVDName@@DABV0@@Z   10077ed0 f i LIBCMTD:undname.obj
 0001:00076f00       ??H@YA?AVDName@@PBDABV0@@Z 10077f00 f i LIBCMTD:undname.obj
 0001:00076f30       ??H@YA?AVDName@@W4DNameStatus@@ABV0@@Z 10077f30 f i LIBCMTD:undname.obj
 0001:00076f60       ??HDName@@QBE?AV0@ABV0@@Z  10077f60 f   LIBCMTD:undname.obj
 0001:00076fa0       ??HDName@@QBE?AV0@D@Z      10077fa0 f   LIBCMTD:undname.obj
 0001:00076fe0       ??HDName@@QBE?AV0@PAV0@@Z  10077fe0 f   LIBCMTD:undname.obj
 0001:00077020       ??HDName@@QBE?AV0@PBD@Z    10078020 f   LIBCMTD:undname.obj
 0001:00077060       ??HDName@@QBE?AV0@W4DNameStatus@@@Z 10078060 f   LIBCMTD:undname.obj
 0001:000770a0       ??YDName@@QAEAAV0@ABV0@@Z  100780a0 f   LIBCMTD:undname.obj
 0001:00077110       ??YDName@@QAEAAV0@D@Z      10078110 f   LIBCMTD:undname.obj
 0001:00077190       ??YDName@@QAEAAV0@PAV0@@Z  10078190 f   LIBCMTD:undname.obj
 0001:00077240       ??YDName@@QAEAAV0@PBD@Z    10078240 f   LIBCMTD:undname.obj
 0001:000772e0       ??YDName@@QAEAAV0@W4DNameStatus@@@Z 100782e0 f   LIBCMTD:undname.obj
 0001:00077340       ??YReplicator@@QAEAAV0@ABVDName@@@Z 10078340 f   LIBCMTD:undname.obj
 0001:000773d0       ??_5DName@@QAEAAV0@ABV0@@Z 100783d0 f   LIBCMTD:undname.obj
 0001:00077430       ?Constructor@_HeapManager@@QAEXP6APAXI@ZP6AXPAX@Z@Z 10078430 f i LIBCMTD:undname.obj
 0001:00077470       ?Destructor@_HeapManager@@QAEXXZ 10078470 f i LIBCMTD:undname.obj
 0001:000774c0       ?UScore@UnDecorator@@SAPBDW4Tokens@@@Z 100784c0 f   LIBCMTD:undname.obj
 0001:000774f0       ?append@DName@@AAEXPAVDNameNode@@@Z 100784f0 f   LIBCMTD:undname.obj
 0001:00077580       ?composeDeclaration@UnDecorator@@CA?AVDName@@ABV2@@Z 10078580 f i LIBCMTD:undname.obj
 0001:00079200       ?dbGetString@DName@@QBEPADXZ 1007a200 f   LIBCMTD:undname.obj
 0001:00079220       ?doAccessSpecifiers@UnDecorator@@SAHXZ 1007a220 f i LIBCMTD:undname.obj
 0001:00079250       ?doAllocationLanguage@UnDecorator@@SAHXZ 1007a250 f i LIBCMTD:undname.obj
 0001:00079280       ?doAllocationModel@UnDecorator@@SAHXZ 1007a280 f i LIBCMTD:undname.obj
 0001:000792b0       ?doEcsu@UnDecorator@@SAHXZ 1007a2b0 f i LIBCMTD:undname.obj
 0001:000792e0       ?doEllipsis@UnDecorator@@SAHXZ 1007a2e0 f i LIBCMTD:undname.obj
 0001:00079310       ?doFunctionReturns@UnDecorator@@SAHXZ 1007a310 f i LIBCMTD:undname.obj
 0001:00079340       ?doMSKeywords@UnDecorator@@SAHXZ 1007a340 f i LIBCMTD:undname.obj
 0001:00079370       ?doMemberTypes@UnDecorator@@SAHXZ 1007a370 f i LIBCMTD:undname.obj
 0001:000793a0       ?doNameOnly@UnDecorator@@SAHXZ 1007a3a0 f i LIBCMTD:undname.obj
 0001:000793b0       ?doNoIdentCharCheck@UnDecorator@@SAHXZ 1007a3b0 f i LIBCMTD:undname.obj
 0001:000793c0       ?doPchar@DName@@AAEXPBDH@Z 1007a3c0 f   LIBCMTD:undname.obj
 0001:00079500       ?doPtr64@UnDecorator@@SAHXZ 1007a500 f i LIBCMTD:undname.obj
 0001:00079530       ?doRestrictionSpec@UnDecorator@@SAHXZ 1007a530 f i LIBCMTD:undname.obj
 0001:00079560       ?doThisTypes@UnDecorator@@SAHXZ 1007a560 f i LIBCMTD:undname.obj
 0001:00079590       ?doThrowTypes@UnDecorator@@SAHXZ 1007a590 f i LIBCMTD:undname.obj
 0001:000795c0       ?doTypeOnly@UnDecorator@@SAHXZ 1007a5c0 f i LIBCMTD:undname.obj
 0001:000795d0       ?doUnderScore@UnDecorator@@SAHXZ 1007a5d0 f i LIBCMTD:undname.obj
 0001:00079600       ?getArgumentList@UnDecorator@@CA?AVDName@@XZ 1007a600 f   LIBCMTD:undname.obj
 0001:00079750       ?getArgumentTypes@UnDecorator@@CA?AVDName@@XZ 1007a750 f   LIBCMTD:undname.obj
 0001:000798b0       ?getArrayType@UnDecorator@@CA?AVDName@@ABV2@@Z 1007a8b0 f i LIBCMTD:undname.obj
 0001:00079af0       ?getBasedType@UnDecorator@@CA?AVDName@@XZ 1007aaf0 f   LIBCMTD:undname.obj
 0001:00079bb0       ?getBasicDataType@UnDecorator@@CA?AVDName@@ABV2@@Z 1007abb0 f   LIBCMTD:undname.obj
 0001:0007a170       ?getCallIndex@UnDecorator@@CA?AVDName@@XZ 1007b170 f i LIBCMTD:undname.obj
 0001:0007a190       ?getCallingConvention@UnDecorator@@CA?AVDName@@XZ 1007b190 f   LIBCMTD:undname.obj
 0001:0007a300       ?getDataIndirectType@UnDecorator@@CA?AVDName@@ABV2@PBD0H@Z 1007b300 f   LIBCMTD:undname.obj
 0001:0007aa10       ?getDataIndirectType@UnDecorator@@CA?AVDName@@XZ 1007ba10 f i LIBCMTD:undname.obj
 0001:0007aa50       ?getDataType@UnDecorator@@CA?AVDName@@PAV2@@Z 1007ba50 f   LIBCMTD:undname.obj
 0001:0007ab70       ?getDecoratedName@UnDecorator@@CA?AVDName@@XZ 1007bb70 f   LIBCMTD:undname.obj
 0001:0007aea0       ?getDimension@UnDecorator@@CA?AVDName@@_N@Z 1007bea0 f   LIBCMTD:undname.obj
 0001:0007b150       ?getDispatchTarget@UnDecorator@@CA?AVDName@@XZ 1007c150 f   LIBCMTD:undname.obj
 0001:0007b1f0       ?getDisplacement@UnDecorator@@CA?AVDName@@XZ 1007c1f0 f i LIBCMTD:undname.obj
 0001:0007b210       ?getECSUDataType@UnDecorator@@CA?AVDName@@XZ 1007c210 f   LIBCMTD:undname.obj
 0001:0007b3e0       ?getECSUName@UnDecorator@@CA?AVDName@@XZ 1007c3e0 f i LIBCMTD:undname.obj
 0001:0007b400       ?getEnumType@UnDecorator@@CA?AVDName@@XZ 1007c400 f i LIBCMTD:undname.obj
 0001:0007b550       ?getExtendedDataIndirectType@UnDecorator@@CA?AVDName@@AAPBDAA_NH@Z 1007c550 f   LIBCMTD:undname.obj
 0001:0007b7a0       ?getExternalDataType@UnDecorator@@CA?AVDName@@ABV2@@Z 1007c7a0 f i LIBCMTD:undname.obj
 0001:0007b830       ?getFunctionIndirectType@UnDecorator@@CA?AVDName@@ABV2@@Z 1007c830 f   LIBCMTD:undname.obj
 0001:0007bca0       ?getGuardNumber@UnDecorator@@CA?AVDName@@XZ 1007cca0 f i LIBCMTD:undname.obj
 0001:0007bcc0       ?getLastChar@DName@@QBEDXZ 1007ccc0 f i LIBCMTD:undname.obj
 0001:0007bcf0       ?getLastChar@DNameStatusNode@@UBEDXZ 1007ccf0 f i LIBCMTD:undname.obj
 0001:0007bd20       ?getLastChar@charNode@@UBEDXZ 1007cd20 f i LIBCMTD:undname.obj
 0001:0007bd40       ?getLastChar@pDNameNode@@UBEDXZ 1007cd40 f i LIBCMTD:undname.obj
 0001:0007bd70       ?getLastChar@pairNode@@UBEDXZ 1007cd70 f i LIBCMTD:undname.obj
 0001:0007bdc0       ?getLastChar@pcharNode@@UBEDXZ 1007cdc0 f i LIBCMTD:undname.obj
 0001:0007be00       ?getLexicalFrame@UnDecorator@@CA?AVDName@@XZ 1007ce00 f i LIBCMTD:undname.obj
 0001:0007be40       ?getMemory@_HeapManager@@QAEPAXIH@Z 1007ce40 f   LIBCMTD:undname.obj
 0001:0007bf50       ?getNumberOfDimensions@UnDecorator@@CAHXZ 1007cf50 f   LIBCMTD:undname.obj
 0001:0007c050       ?getOperatorName@UnDecorator@@CA?AVDName@@_NPA_N@Z 1007d050 f i LIBCMTD:undname.obj
 0001:0007c9e0       ?getPointerType@UnDecorator@@CA?AVDName@@ABV2@0@Z 1007d9e0 f i LIBCMTD:undname.obj
 0001:0007ca10       ?getPointerTypeArray@UnDecorator@@CA?AVDName@@ABV2@0@Z 1007da10 f i LIBCMTD:undname.obj
 0001:0007ca40       ?getPrimaryDataType@UnDecorator@@CA?AVDName@@ABV2@@Z 1007da40 f   LIBCMTD:undname.obj
 0001:0007cde0       ?getPtrRefDataType@UnDecorator@@CA?AVDName@@ABV2@H@Z 1007dde0 f i LIBCMTD:undname.obj
 0001:0007cf20       ?getPtrRefType@UnDecorator@@CA?AVDName@@ABV2@0PBD@Z 1007df20 f   LIBCMTD:undname.obj
 0001:0007d090       ?getReferenceType@UnDecorator@@CA?AVDName@@ABV2@0PBD@Z 1007e090 f i LIBCMTD:undname.obj
 0001:0007d0b0       ?getRestrictionSpec@UnDecorator@@CA?AVDName@@XZ 1007e0b0 f   LIBCMTD:undname.obj
 0001:0007d200       ?getReturnType@UnDecorator@@CA?AVDName@@PAV2@@Z 1007e200 f   LIBCMTD:undname.obj
 0001:0007d250       ?getScope@UnDecorator@@CA?AVDName@@XZ 1007e250 f   LIBCMTD:undname.obj
 0001:0007d740       ?getScopedName@UnDecorator@@CA?AVDName@@XZ 1007e740 f   LIBCMTD:undname.obj
 0001:0007d860       ?getSignedDimension@UnDecorator@@CA?AVDName@@XZ 1007e860 f   LIBCMTD:undname.obj
 0001:0007d8e0       ?getStorageConvention@UnDecorator@@CA?AVDName@@XZ 1007e8e0 f i LIBCMTD:undname.obj
 0001:0007d900       ?getString@DName@@QBEPADPAD0@Z 1007e900 f i LIBCMTD:undname.obj
 0001:0007d940       ?getString@DName@@QBEPADPADH@Z 1007e940 f i LIBCMTD:undname.obj
 0001:0007d9d0       ?getString@DNameStatusNode@@UBEPADPAD0@Z 1007e9d0 f i LIBCMTD:undname.obj
 0001:0007da10       ?getString@charNode@@UBEPADPAD0@Z 1007ea10 f i LIBCMTD:undname.obj
 0001:0007da40       ?getString@pDNameNode@@UBEPADPAD0@Z 1007ea40 f i LIBCMTD:undname.obj
 0001:0007da80       ?getString@pairNode@@UBEPADPAD0@Z 1007ea80 f i LIBCMTD:undname.obj
 0001:0007dae0       ?getString@pcharNode@@UBEPADPAD0@Z 1007eae0 f i LIBCMTD:undname.obj
 0001:0007db10       ?getStringEncoding@UnDecorator@@CA?AVDName@@PADH@Z 1007eb10 f   LIBCMTD:undname.obj
 0001:0007dc20       ?getStringHelper@@YAPADPAD00H@Z 1007ec20 f i LIBCMTD:undname.obj
 0001:0007dc60       ?getSymbolName@UnDecorator@@CA?AVDName@@XZ 1007ec60 f i LIBCMTD:undname.obj
 0001:0007dcf0       ?getTemplateArgumentList@UnDecorator@@CA?AVDName@@XZ 1007ecf0 f   LIBCMTD:undname.obj
 0001:0007df70       ?getTemplateConstant@UnDecorator@@CA?AVDName@@XZ 1007ef70 f   LIBCMTD:undname.obj
 0001:0007e440       ?getTemplateName@UnDecorator@@CA?AVDName@@_N@Z 1007f440 f   LIBCMTD:undname.obj
 0001:0007e610       ?getThisType@UnDecorator@@CA?AVDName@@XZ 1007f610 f i LIBCMTD:undname.obj
 0001:0007e650       ?getThrowTypes@UnDecorator@@CA?AVDName@@XZ 1007f650 f   LIBCMTD:undname.obj
 0001:0007e700       ?getTypeEncoding@UnDecorator@@CAHXZ 1007f700 f i LIBCMTD:undname.obj
 0001:0007f140       ?getVCallThunkType@UnDecorator@@CA?AVDName@@XZ 10080140 f i LIBCMTD:undname.obj
 0001:0007f1a0       ?getVbTableType@UnDecorator@@CA?AVDName@@ABV2@@Z 100801a0 f i LIBCMTD:undname.obj
 0001:0007f1c0       ?getVdispMapType@UnDecorator@@CA?AVDName@@ABV2@@Z 100801c0 f i LIBCMTD:undname.obj
 0001:0007f230       ?getVfTableType@UnDecorator@@CA?AVDName@@ABV2@@Z 10080230 f i LIBCMTD:undname.obj
 0001:0007f3f0       ?getZName@UnDecorator@@CA?AVDName@@_N0@Z 100803f0 f   LIBCMTD:undname.obj
 0001:0007f6a0       ?haveTemplateParameters@UnDecorator@@SAHXZ 100806a0 f i LIBCMTD:undname.obj
 0001:0007f6b0       ?isArray@DName@@QBEHXZ     100806b0 f i LIBCMTD:undname.obj
 0001:0007f6d0       ?isComArray@DName@@QBEHXZ  100806d0 f i LIBCMTD:undname.obj
 0001:0007f6f0       ?isEmpty@DName@@QBEHXZ     100806f0 f i LIBCMTD:undname.obj
 0001:0007f720       ?isFull@Replicator@@QBEHXZ 10080720 f i LIBCMTD:undname.obj
 0001:0007f750       ?isNoTE@DName@@QBEHXZ      10080750 f i LIBCMTD:undname.obj
 0001:0007f770       ?isPinPtr@DName@@QBEHXZ    10080770 f i LIBCMTD:undname.obj
 0001:0007f790       ?isPtrRef@DName@@QBEHXZ    10080790 f i LIBCMTD:undname.obj
 0001:0007f7b0       ?isUDC@DName@@QBEHXZ       100807b0 f i LIBCMTD:undname.obj
 0001:0007f7f0       ?isUDTThunk@DName@@QBEHXZ  100807f0 f i LIBCMTD:undname.obj
 0001:0007f830       ?isVCallThunk@DName@@QBEHXZ 10080830 f i LIBCMTD:undname.obj
 0001:0007f850       ?isValid@DName@@QBEHXZ     10080850 f i LIBCMTD:undname.obj
 0001:0007f890       ?length@DName@@QBEHXZ      10080890 f i LIBCMTD:undname.obj
 0001:0007f8c0       ?length@DNameStatusNode@@UBEHXZ 100808c0 f i LIBCMTD:undname.obj
 0001:0007f8e0       ?length@charNode@@UBEHXZ   100808e0 f i LIBCMTD:undname.obj
 0001:0007f8f0       ?length@pDNameNode@@UBEHXZ 100808f0 f i LIBCMTD:undname.obj
 0001:0007f920       ?length@pairNode@@UBEHXZ   10080920 f i LIBCMTD:undname.obj
 0001:0007f970       ?length@pcharNode@@UBEHXZ  10080970 f i LIBCMTD:undname.obj
 0001:0007f990       ?make@DNameStatusNode@@SAPAV1@W4DNameStatus@@@Z 10080990 f i LIBCMTD:undname.obj
 0001:0007fa40       ?setIsArray@DName@@QAEXXZ  10080a40 f i LIBCMTD:undname.obj
 0001:0007fa60       ?setIsComArray@DName@@QAEXXZ 10080a60 f i LIBCMTD:undname.obj
 0001:0007fa80       ?setIsNoTE@DName@@QAEXXZ   10080a80 f i LIBCMTD:undname.obj
 0001:0007faa0       ?setIsPinPtr@DName@@QAEXXZ 10080aa0 f i LIBCMTD:undname.obj
 0001:0007fac0       ?setIsUDC@DName@@QAEXXZ    10080ac0 f i LIBCMTD:undname.obj
 0001:0007faf0       ?setIsVCallThunk@DName@@QAEXXZ 10080af0 f i LIBCMTD:undname.obj
 0001:0007fb10       ?setPtrRef@DName@@QAEAAV1@XZ 10080b10 f i LIBCMTD:undname.obj
 0001:0007fb30       ?status@DName@@QBE?AW4DNameStatus@@XZ 10080b30 f i LIBCMTD:undname.obj
 0001:0007fc30       ___unDName                 10080c30 f   LIBCMTD:undname.obj
 0001:0007fd00       ___unDNameEx               10080d00 f   LIBCMTD:undname.obj
 0001:0007fde0       __commit                   10080de0 f   LIBCMTD:commit.obj
 0001:00080020       __freebuf                  10081020 f   LIBCMTD:_freebuf.obj
 0001:000800b0       __vfwprintf_l              100810b0 f   LIBCMTD:vfwprint.obj
 0001:000800e0       __vfwprintf_p              100810e0 f   LIBCMTD:vfwprint.obj
 0001:00080100       __vfwprintf_p_l            10081100 f   LIBCMTD:vfwprint.obj
 0001:00080130       __vfwprintf_s_l            10081130 f   LIBCMTD:vfwprint.obj
 0001:00080160       _vfwprintf                 10081160 f   LIBCMTD:vfwprint.obj
 0001:00080180       _vfwprintf_helper          10081180 f   LIBCMTD:vfwprint.obj
 0001:00080320       _vfwprintf_s               10081320 f   LIBCMTD:vfwprint.obj
 0001:00080340       __woutput_s_l              10081340 f   LIBCMTD:woutputs.obj
 0001:00081a80       __validate_param_reuseW    10082a80 f   LIBCMTD:woutputp.obj
 0001:00081d60       __woutput_p_l              10082d60 f   LIBCMTD:woutputp.obj
 0001:00085b40       ___crtLCMapStringA         10086b40 f   LIBCMTD:a_map.obj
 0001:00085cb0       ___crtGetStringTypeA       10086cb0 f   LIBCMTD:a_str.obj
 0001:00085d00       __fclose_nolock            10086d00 f   LIBCMTD:fclose.obj
 0001:00085e10       _fclose                    10086e10 f   LIBCMTD:fclose.obj
 0001:00086430       __strtol_l                 10087430 f   LIBCMTD:strtol.obj
 0001:00086450       __strtoul_l                10087450 f   LIBCMTD:strtol.obj
 0001:00086470       _strtol                    10087470 f   LIBCMTD:strtol.obj
 0001:000864c0       _strtoul                   100874c0 f   LIBCMTD:strtol.obj
 0001:00086510       __frnd                     10087510 f   LIBCMTD:frnd.obj
 0001:00086530       __wmakepath_s              10087530 f   LIBCMTD:wmakepath_s.obj
 0001:000868f0       __wsplitpath_s             100878f0 f   LIBCMTD:wsplitpath_s.obj
 0001:00086f30       ___free_lconv_mon          10087f30 f   LIBCMTD:initmon.obj
 0001:000870e0       ___init_monetary           100880e0 f   LIBCMTD:initmon.obj
 0001:000876f0       ___free_lconv_num          100886f0 f   LIBCMTD:initnum.obj
 0001:000877a0       ___init_numeric            100887a0 f   LIBCMTD:initnum.obj
 0001:00087b70       ___free_lc_time            10088b70 f   LIBCMTD:inittime.obj
 0001:000884a0       ___init_time               100894a0 f   LIBCMTD:inittime.obj
 0001:000894a0       _localeconv                1008a4a0 f   LIBCMTD:lconv.obj
 0001:000894f0       ___init_dummy              1008a4f0 f   LIBCMTD:wsetloca.obj
 0001:00089500       __locterm                  1008a500 f   LIBCMTD:wsetloca.obj
 0001:00089590       ____setlc_active_func      1008a590 f   LIBCMTD:wsetloca.obj
 0001:000895a0       ____unguarded_readlc_active_add_func 1008a5a0 f   LIBCMTD:wsetloca.obj
 0001:000895b0       ___copy_locale_name        1008a5b0 f   LIBCMTD:wsetloca.obj
 0001:00089650       ___create_locale           1008a650 f   LIBCMTD:wsetloca.obj
 0001:00089670       ___free_locale             1008a670 f   LIBCMTD:wsetloca.obj
 0001:00089690       ___get_current_locale      1008a690 f   LIBCMTD:wsetloca.obj
 0001:000896a0       ___lc_lctowcs              1008a6a0 f   LIBCMTD:wsetloca.obj
 0001:00089750       ___lc_wcstolc              1008a750 f   LIBCMTD:wsetloca.obj
 0001:00089970       __configthreadlocale       1008a970 f   LIBCMTD:wsetloca.obj
 0001:00089ad0       __create_locale            1008aad0 f   LIBCMTD:wsetloca.obj
 0001:00089b40       __expandlocale             1008ab40 f   LIBCMTD:wsetloca.obj
 0001:0008a030       __free_locale              1008b030 f   LIBCMTD:wsetloca.obj
 0001:0008a160       __get_current_locale       1008b160 f   LIBCMTD:wsetloca.obj
 0001:0008a280       __wcreate_locale           1008b280 f   LIBCMTD:wsetloca.obj
 0001:0008a460       __wcscats                  1008b460 f   LIBCMTD:wsetloca.obj
 0001:0008a4e0       __wsetlocale               1008b4e0 f   LIBCMTD:wsetloca.obj
 0001:0008b570       __CopyMan                  1008c570 f i LIBCMTD:intrncvt.obj
 0001:0008b5c0       __FillZeroMan              1008c5c0 f i LIBCMTD:intrncvt.obj
 0001:0008b5f0       __IncMan                   1008c5f0 f i LIBCMTD:intrncvt.obj
 0001:0008b6a0       __IsZeroMan                1008c6a0 f i LIBCMTD:intrncvt.obj
 0001:0008b6e0       __RoundMan                 1008c6e0 f i LIBCMTD:intrncvt.obj
 0001:0008b7c0       __ShrMan                   1008c7c0 f i LIBCMTD:intrncvt.obj
 0001:0008b8b0       __ZeroTail                 1008c8b0 f i LIBCMTD:intrncvt.obj
 0001:0008b940       ___addl                    1008c940 f i LIBCMTD:intrncvt.obj
 0001:0008b980       __ld12cvt                  1008c980 f i LIBCMTD:intrncvt.obj
 0001:0008bc40       __ld12tod                  1008cc40 f   LIBCMTD:intrncvt.obj
 0001:0008bc60       __ld12tof                  1008cc60 f   LIBCMTD:intrncvt.obj
 0001:0008bc80       __ld12told                 1008cc80 f   LIBCMTD:intrncvt.obj
 0001:0008bd80       ___STRINGTOLD_L            1008cd80 f   LIBCMTD:strgtold.obj
 0001:0008bdf0       ___ld12mul                 1008cdf0 f i LIBCMTD:strgtold.obj
 0001:0008c200       ___multtenpow12            1008d200 f i LIBCMTD:strgtold.obj
 0001:0008c2e0       ___shl_12                  1008d2e0 f i LIBCMTD:strgtold.obj
 0001:0008c360       ___shr_12                  1008d360 f i LIBCMTD:strgtold.obj
 0001:0008c3e0       ___strgtold12_l            1008d3e0 f   LIBCMTD:strgtold.obj
 0001:0008ceb0       _$I10_OUTPUT               1008deb0 f   LIBCMTD:x10fout.obj
 0001:0008d4c0       ___add_12                  1008e4c0 f i LIBCMTD:x10fout.obj
 0001:0008d570       ___pctype_func             1008e570 f   LIBCMTD:ctype.obj
 0001:0008d5c0       ___pwctype_func            1008e5c0 f   LIBCMTD:ctype.obj
 0001:0008d7d0       ___control87_2             1008e7d0 f   LIBCMTD:ieee87.obj
 0001:0008dc70       __clearfp                  1008ec70 f   LIBCMTD:ieee87.obj
 0001:0008dcb0       __control87                1008ecb0 f i LIBCMTD:ieee87.obj
 0001:0008dd60       __controlfp                1008ed60 f   LIBCMTD:ieee87.obj
 0001:0008dd80       __fpreset                  1008ed80 f   LIBCMTD:ieee87.obj
 0001:0008df40       __set_controlfp            1008ef40 f   LIBCMTD:ieee87.obj
 0001:0008dfd0       __statusfp                 1008efd0 f   LIBCMTD:ieee87.obj
 0001:0008e010       __statusfp2                1008f010 f   LIBCMTD:ieee87.obj
 0001:0008e050       __iswctype_l               1008f050 f   LIBCMTD:iswctype.obj
 0001:0008e070       _is_wctype                 1008f070 f   LIBCMTD:iswctype.obj
 0001:0008e090       _iswctype                  1008f090 f   LIBCMTD:iswctype.obj
 0001:0008e0f0       ____lc_codepage_func       1008f0f0 f   LIBCMTD:initctyp.obj
 0001:0008e140       ____lc_collate_cp_func     1008f140 f   LIBCMTD:initctyp.obj
 0001:0008e190       ____lc_locale_name_func    1008f190 f   LIBCMTD:initctyp.obj
 0001:0008e1e0       ____mb_cur_max_func        1008f1e0 f   LIBCMTD:initctyp.obj
 0001:0008e230       ____mb_cur_max_l_func      1008f230 f   LIBCMTD:initctyp.obj
 0001:0008e260       ___init_ctype              1008f260 f   LIBCMTD:initctyp.obj
 0001:0008e8a0       ___lock_fhandle            1008f8a0 f   LIBCMTD:osfinfo.obj
 0001:0008e990       __alloc_osfhnd             1008f990 f   LIBCMTD:osfinfo.obj
 0001:0008ec30       __free_osfhnd              1008fc30 f   LIBCMTD:osfinfo.obj
 0001:0008ed20       __get_osfhandle            1008fd20 f   LIBCMTD:osfinfo.obj
 0001:0008eea0       __open_osfhandle           1008fea0 f   LIBCMTD:osfinfo.obj
 0001:0008f0d0       __set_osfhnd               100900d0 f   LIBCMTD:osfinfo.obj
 0001:0008f1a0       __unlock_fhandle           100901a0 f   LIBCMTD:osfinfo.obj
 0001:0008f1d0       __mbtowc_l                 100901d0 f   LIBCMTD:mbtowc.obj
 0001:0008f410       _mbtowc                    10090410 f   LIBCMTD:mbtowc.obj
 0001:0008f430       __putwch                   10090430 f   LIBCMTD:putwch.obj
 0001:0008f4c0       __putwch_nolock            100904c0 f   LIBCMTD:putwch.obj
 0001:0008f510       _wcsnlen                   10090510 f   LIBCMTD:wcslen_s.obj
 0001:0008f550       __fputwc_nolock            10090550 f   LIBCMTD:fputwc.obj
 0001:0008f840       _fputwc                    10090840 f   LIBCMTD:fputwc.obj
 0001:0008f950       _putwc                     10090950 f   LIBCMTD:fputwc.obj
 0001:0008f970       __atoi64                   10090970 f   LIBCMTD:atox.obj
 0001:0008f990       __atoi64_l                 10090990 f   LIBCMTD:atox.obj
 0001:0008f9b0       __atoi_l                   100909b0 f   LIBCMTD:atox.obj
 0001:0008f9d0       __atol_l                   100909d0 f   LIBCMTD:atox.obj
 0001:0008f9f0       _atoi                      100909f0 f   LIBCMTD:atox.obj
 0001:0008fa10       _atol                      10090a10 f   LIBCMTD:atox.obj
 0001:0008fdf0       __wcstol_l                 10090df0 f   LIBCMTD:wcstol.obj
 0001:0008fe10       __wcstoul_l                10090e10 f   LIBCMTD:wcstol.obj
 0001:0008fe30       _wcstol                    10090e30 f   LIBCMTD:wcstol.obj
 0001:0008fe50       _wcstoul                   10090e50 f   LIBCMTD:wcstol.obj
 0001:0008fe70       __close                    10090e70 f   LIBCMTD:close.obj
 0001:000900a0       __close_nolock             100910a0 f   LIBCMTD:close.obj
 0001:00090180       ___init_collate            10091180 f   LIBCMTD:initcoll.obj
 0001:00090340       _memcmp                    10091340 f   LIBCMTD:memcmp.obj
 0001:00090c10       _wcscmp                    10091c10 f   LIBCMTD:wcscmp.obj
 0001:00090c70       _wcscspn                   10091c70 f   LIBCMTD:wcscspn.obj
 0001:00090ce0       _wcsncmp                   10091ce0 f   LIBCMTD:wcsncmp.obj
 0001:00090d40       _wcspbrk                   10091d40 f   LIBCMTD:wcspbrk.obj
 0001:000918e0       ___get_qualified_locale    100928e0 f   LIBCMTD:getqloc.obj
 0001:000928c0       ___get_qualified_locale_downlevel 100938c0 f   LIBCMTD:getqloc_downlevel.obj
 0001:00092b90       ___mtold12                 10093b90 f   LIBCMTD:mantold.obj
 0001:00092ce0       ___termconout              10093ce0 f   LIBCMTD:initcon.obj
 0001:00092d10       ___initconout              10093d10 f   LIBCMTD:initcon.obj
 0001:00092d40       __flswbuf                  10093d40 f   LIBCMTD:_flswbuf.obj
 0001:00093560       __strtoi64                 10094560 f   LIBCMTD:strtoq.obj
 0001:000935b0       __strtoi64_l               100945b0 f   LIBCMTD:strtoq.obj
 0001:000935d0       __strtoui64                100945d0 f   LIBCMTD:strtoq.obj
 0001:00093620       __strtoui64_l              10094620 f   LIBCMTD:strtoq.obj
 0001:00093640       __wchartodigit             10094640 f   LIBCMTD:wchtodig.obj
 0001:00093960       __wtoi                     10094960 f   LIBCMTD:wtox.obj
 0001:00093980       __wtoi64                   10094980 f   LIBCMTD:wtox.obj
 0001:000939a0       __wtoi64_l                 100949a0 f   LIBCMTD:wtox.obj
 0001:000939c0       __wtoi_l                   100949c0 f   LIBCMTD:wtox.obj
 0001:000939e0       __wtol                     100949e0 f   LIBCMTD:wtox.obj
 0001:00093a00       __wtol_l                   10094a00 f   LIBCMTD:wtox.obj
 0001:00093a20       _wcschr                    10094a20 f   LIBCMTD:wcschr.obj
 0001:00093ba0       __wcsicmp                  10094ba0 f   LIBCMTD:wcsicmp.obj
 0001:00093d70       __wcsicmp_l                10094d70 f   LIBCMTD:wcsicmp.obj
 0001:00093fe0       __wcsnicmp                 10094fe0 f   LIBCMTD:wcsnicmp.obj
 0001:000941d0       __wcsnicmp_l               100951d0 f   LIBCMTD:wcsnicmp.obj
 0001:00094430       __allmul                   10095430 f   LIBCMTD:llmul.obj
 0001:000949c0       __wcstoi64                 100959c0 f   LIBCMTD:wcstoq.obj
 0001:00094a10       __wcstoi64_l               10095a10 f   LIBCMTD:wcstoq.obj
 0001:00094a30       __wcstoui64                10095a30 f   LIBCMTD:wcstoq.obj
 0001:00094a80       __wcstoui64_l              10095a80 f   LIBCMTD:wcstoq.obj
 0001:00094aa0       __towlower_l               10095aa0 f   LIBCMTD:towlower.obj
 0001:00094bf0       _towlower                  10095bf0 f   LIBCMTD:towlower.obj
 0001:00094c10       ___crtLCMapStringW         10095c10 f   LIBCMTD:w_map.obj
 0001:00094c4e       _InterlockedIncrement@4    10095c4e f   kernel32:KERNEL32.dll
 0001:00094c54       _InterlockedDecrement@4    10095c54 f   kernel32:KERNEL32.dll
 0001:00094c5a       _EnterCriticalSection@4    10095c5a f   kernel32:KERNEL32.dll
 0001:00094c60       _LeaveCriticalSection@4    10095c60 f   kernel32:KERNEL32.dll
 0001:00094c66       _DeleteCriticalSection@4   10095c66 f   kernel32:KERNEL32.dll
 0001:00094c6c       _Sleep@4                   10095c6c f   kernel32:KERNEL32.dll
 0001:00094c72       _InterlockedExchange@8     10095c72 f   kernel32:KERNEL32.dll
 0001:00094c78       _GetCommandLineA@0         10095c78 f   kernel32:KERNEL32.dll
 0001:00094c7e       _GetCurrentThreadId@0      10095c7e f   kernel32:KERNEL32.dll
 0001:00094c84       _EncodePointer@4           10095c84 f   kernel32:KERNEL32.dll
 0001:00094c8a       _DecodePointer@4           10095c8a f   kernel32:KERNEL32.dll
 0001:00094c90       _IsDebuggerPresent@0       10095c90 f   kernel32:KERNEL32.dll
 0001:00094c96       _IsProcessorFeaturePresent@4 10095c96 f   kernel32:KERNEL32.dll
 0001:00094c9c       _GetModuleFileNameW@12     10095c9c f   kernel32:KERNEL32.dll
 0001:00094ca2       _GetModuleHandleExW@12     10095ca2 f   kernel32:KERNEL32.dll
 0001:00094ca8       _RaiseException@16         10095ca8 f   kernel32:KERNEL32.dll
 0001:00094cae       _RtlUnwind@16              10095cae f   kernel32:KERNEL32.dll
 0001:00094cb4       _GetStdHandle@4            10095cb4 f   kernel32:KERNEL32.dll
 0001:00094cba       _GetFileType@4             10095cba f   kernel32:KERNEL32.dll
 0001:00094cc0       _WriteConsoleW@20          10095cc0 f   kernel32:KERNEL32.dll
 0001:00094cc6       _GetLastError@0            10095cc6 f   kernel32:KERNEL32.dll
 0001:00094ccc       _ExitProcess@4             10095ccc f   kernel32:KERNEL32.dll
 0001:00094cd2       _GetProcAddress@8          10095cd2 f   kernel32:KERNEL32.dll
 0001:00094cd8       _AreFileApisANSI@0         10095cd8 f   kernel32:KERNEL32.dll
 0001:00094cde       _MultiByteToWideChar@24    10095cde f   kernel32:KERNEL32.dll
 0001:00094ce4       _InitializeCriticalSectionAndSpinCount@8 10095ce4 f   kernel32:KERNEL32.dll
 0001:00094cea       _FatalAppExitA@8           10095cea f   kernel32:KERNEL32.dll
 0001:00094cf0       _UnhandledExceptionFilter@4 10095cf0 f   kernel32:KERNEL32.dll
 0001:00094cf6       _SetUnhandledExceptionFilter@4 10095cf6 f   kernel32:KERNEL32.dll
 0001:00094cfc       _SetLastError@4            10095cfc f   kernel32:KERNEL32.dll
 0001:00094d02       _GetCurrentProcess@0       10095d02 f   kernel32:KERNEL32.dll
 0001:00094d08       _TerminateProcess@8        10095d08 f   kernel32:KERNEL32.dll
 0001:00094d0e       _TlsAlloc@0                10095d0e f   kernel32:KERNEL32.dll
 0001:00094d14       _TlsGetValue@4             10095d14 f   kernel32:KERNEL32.dll
 0001:00094d1a       _TlsSetValue@8             10095d1a f   kernel32:KERNEL32.dll
 0001:00094d20       _TlsFree@4                 10095d20 f   kernel32:KERNEL32.dll
 0001:00094d26       _GetStartupInfoW@4         10095d26 f   kernel32:KERNEL32.dll
 0001:00094d2c       _GetModuleHandleW@4        10095d2c f   kernel32:KERNEL32.dll
 0001:00094d32       _CreateSemaphoreW@16       10095d32 f   kernel32:KERNEL32.dll
 0001:00094d38       _LoadLibraryExW@12         10095d38 f   kernel32:KERNEL32.dll
 0001:00094d3e       _lstrlenA@4                10095d3e f   kernel32:KERNEL32.dll
 0001:00094d44       _LoadLibraryW@4            10095d44 f   kernel32:KERNEL32.dll
 0001:00094d4a       _WideCharToMultiByte@32    10095d4a f   kernel32:KERNEL32.dll
 0001:00094d50       _GetCurrentThread@0        10095d50 f   kernel32:KERNEL32.dll
 0001:00094d56       _GetProcessHeap@0          10095d56 f   kernel32:KERNEL32.dll
 0001:00094d5c       _GetModuleFileNameA@12     10095d5c f   kernel32:KERNEL32.dll
 0001:00094d62       _HeapValidate@12           10095d62 f   kernel32:KERNEL32.dll
 0001:00094d68       _GetSystemInfo@4           10095d68 f   kernel32:KERNEL32.dll
 0001:00094d6e       _QueryPerformanceCounter@4 10095d6e f   kernel32:KERNEL32.dll
 0001:00094d74       _GetCurrentProcessId@0     10095d74 f   kernel32:KERNEL32.dll
 0001:00094d7a       _GetSystemTimeAsFileTime@4 10095d7a f   kernel32:KERNEL32.dll
 0001:00094d80       _GetEnvironmentStringsW@0  10095d80 f   kernel32:KERNEL32.dll
 0001:00094d86       _FreeEnvironmentStringsW@4 10095d86 f   kernel32:KERNEL32.dll
 0001:00094d8c       _WriteFile@20              10095d8c f   kernel32:KERNEL32.dll
 0001:00094d92       _SetConsoleCtrlHandler@8   10095d92 f   kernel32:KERNEL32.dll
 0001:00094d98       _OutputDebugStringW@4      10095d98 f   kernel32:KERNEL32.dll
 0001:00094d9e       _WaitForSingleObjectEx@12  10095d9e f   kernel32:KERNEL32.dll
 0001:00094da4       _CreateThread@24           10095da4 f   kernel32:KERNEL32.dll
 0001:00094daa       _OutputDebugStringA@4      10095daa f   kernel32:KERNEL32.dll
 0001:00094db0       _FreeLibrary@4             10095db0 f   kernel32:KERNEL32.dll
 0001:00094db6       _IsValidCodePage@4         10095db6 f   kernel32:KERNEL32.dll
 0001:00094dbc       _GetACP@0                  10095dbc f   kernel32:KERNEL32.dll
 0001:00094dc2       _GetOEMCP@0                10095dc2 f   kernel32:KERNEL32.dll
 0001:00094dc8       _GetCPInfo@8               10095dc8 f   kernel32:KERNEL32.dll
 0001:00094dce       _HeapAlloc@12              10095dce f   kernel32:KERNEL32.dll
 0001:00094dd4       _HeapFree@12               10095dd4 f   kernel32:KERNEL32.dll
 0001:00094dda       _VirtualQuery@12           10095dda f   kernel32:KERNEL32.dll
 0001:00094de0       _GetConsoleCP@0            10095de0 f   kernel32:KERNEL32.dll
 0001:00094de6       _GetConsoleMode@8          10095de6 f   kernel32:KERNEL32.dll
 0001:00094dec       _SetFilePointerEx@20       10095dec f   kernel32:KERNEL32.dll
 0001:00094df2       _HeapReAlloc@16            10095df2 f   kernel32:KERNEL32.dll
 0001:00094df8       _HeapSize@12               10095df8 f   kernel32:KERNEL32.dll
 0001:00094dfe       _HeapQueryInformation@20   10095dfe f   kernel32:KERNEL32.dll
 0001:00094e04       _GetDateFormatW@24         10095e04 f   kernel32:KERNEL32.dll
 0001:00094e0a       _GetTimeFormatW@24         10095e0a f   kernel32:KERNEL32.dll
 0001:00094e10       _CompareStringW@24         10095e10 f   kernel32:KERNEL32.dll
 0001:00094e16       _LCMapStringW@24           10095e16 f   kernel32:KERNEL32.dll
 0001:00094e1c       _GetLocaleInfoW@16         10095e1c f   kernel32:KERNEL32.dll
 0001:00094e22       _IsValidLocale@8           10095e22 f   kernel32:KERNEL32.dll
 0001:00094e28       _GetUserDefaultLCID@0      10095e28 f   kernel32:KERNEL32.dll
 0001:00094e2e       _EnumSystemLocalesW@8      10095e2e f   kernel32:KERNEL32.dll
 0001:00094e34       _FlushFileBuffers@4        10095e34 f   kernel32:KERNEL32.dll
 0001:00094e3a       _GetStringTypeW@16         10095e3a f   kernel32:KERNEL32.dll
 0001:00094e40       _SetStdHandle@8            10095e40 f   kernel32:KERNEL32.dll
 0001:00094e46       _CloseHandle@4             10095e46 f   kernel32:KERNEL32.dll
 0001:00094e4c       _CreateFileW@28            10095e4c f   kernel32:KERNEL32.dll
 0002:00000000       __imp__GetStartupInfoW@4   1009b000     kernel32:KERNEL32.dll
 0002:00000004       __imp__CreateFileW@28      1009b004     kernel32:KERNEL32.dll
 0002:00000008       __imp__CloseHandle@4       1009b008     kernel32:KERNEL32.dll
 0002:0000000c       __imp__SetStdHandle@8      1009b00c     kernel32:KERNEL32.dll
 0002:00000010       __imp__GetStringTypeW@16   1009b010     kernel32:KERNEL32.dll
 0002:00000014       __imp__FlushFileBuffers@4  1009b014     kernel32:KERNEL32.dll
 0002:00000018       __imp__EnumSystemLocalesW@8 1009b018     kernel32:KERNEL32.dll
 0002:0000001c       __imp__GetUserDefaultLCID@0 1009b01c     kernel32:KERNEL32.dll
 0002:00000020       __imp__IsValidLocale@8     1009b020     kernel32:KERNEL32.dll
 0002:00000024       __imp__GetLocaleInfoW@16   1009b024     kernel32:KERNEL32.dll
 0002:00000028       __imp__LCMapStringW@24     1009b028     kernel32:KERNEL32.dll
 0002:0000002c       __imp__CompareStringW@24   1009b02c     kernel32:KERNEL32.dll
 0002:00000030       __imp__GetTimeFormatW@24   1009b030     kernel32:KERNEL32.dll
 0002:00000034       __imp__GetDateFormatW@24   1009b034     kernel32:KERNEL32.dll
 0002:00000038       __imp__InterlockedIncrement@4 1009b038     kernel32:KERNEL32.dll
 0002:0000003c       __imp__InterlockedDecrement@4 1009b03c     kernel32:KERNEL32.dll
 0002:00000040       __imp__EnterCriticalSection@4 1009b040     kernel32:KERNEL32.dll
 0002:00000044       __imp__LeaveCriticalSection@4 1009b044     kernel32:KERNEL32.dll
 0002:00000048       __imp__DeleteCriticalSection@4 1009b048     kernel32:KERNEL32.dll
 0002:0000004c       __imp__Sleep@4             1009b04c     kernel32:KERNEL32.dll
 0002:00000050       __imp__InterlockedExchange@8 1009b050     kernel32:KERNEL32.dll
 0002:00000054       __imp__GetCommandLineA@0   1009b054     kernel32:KERNEL32.dll
 0002:00000058       __imp__GetCurrentThreadId@0 1009b058     kernel32:KERNEL32.dll
 0002:0000005c       __imp__EncodePointer@4     1009b05c     kernel32:KERNEL32.dll
 0002:00000060       __imp__DecodePointer@4     1009b060     kernel32:KERNEL32.dll
 0002:00000064       __imp__IsDebuggerPresent@0 1009b064     kernel32:KERNEL32.dll
 0002:00000068       __imp__IsProcessorFeaturePresent@4 1009b068     kernel32:KERNEL32.dll
 0002:0000006c       __imp__GetModuleFileNameW@12 1009b06c     kernel32:KERNEL32.dll
 0002:00000070       __imp__GetModuleHandleExW@12 1009b070     kernel32:KERNEL32.dll
 0002:00000074       __imp__RaiseException@16   1009b074     kernel32:KERNEL32.dll
 0002:00000078       __imp__RtlUnwind@16        1009b078     kernel32:KERNEL32.dll
 0002:0000007c       __imp__GetStdHandle@4      1009b07c     kernel32:KERNEL32.dll
 0002:00000080       __imp__GetFileType@4       1009b080     kernel32:KERNEL32.dll
 0002:00000084       __imp__WriteConsoleW@20    1009b084     kernel32:KERNEL32.dll
 0002:00000088       __imp__GetLastError@0      1009b088     kernel32:KERNEL32.dll
 0002:0000008c       __imp__ExitProcess@4       1009b08c     kernel32:KERNEL32.dll
 0002:00000090       __imp__GetProcAddress@8    1009b090     kernel32:KERNEL32.dll
 0002:00000094       __imp__AreFileApisANSI@0   1009b094     kernel32:KERNEL32.dll
 0002:00000098       __imp__MultiByteToWideChar@24 1009b098     kernel32:KERNEL32.dll
 0002:0000009c       __imp__InitializeCriticalSectionAndSpinCount@8 1009b09c     kernel32:KERNEL32.dll
 0002:000000a0       __imp__FatalAppExitA@8     1009b0a0     kernel32:KERNEL32.dll
 0002:000000a4       __imp__UnhandledExceptionFilter@4 1009b0a4     kernel32:KERNEL32.dll
 0002:000000a8       __imp__SetUnhandledExceptionFilter@4 1009b0a8     kernel32:KERNEL32.dll
 0002:000000ac       __imp__SetLastError@4      1009b0ac     kernel32:KERNEL32.dll
 0002:000000b0       __imp__GetCurrentProcess@0 1009b0b0     kernel32:KERNEL32.dll
 0002:000000b4       __imp__TerminateProcess@8  1009b0b4     kernel32:KERNEL32.dll
 0002:000000b8       __imp__TlsAlloc@0          1009b0b8     kernel32:KERNEL32.dll
 0002:000000bc       __imp__TlsGetValue@4       1009b0bc     kernel32:KERNEL32.dll
 0002:000000c0       __imp__TlsSetValue@8       1009b0c0     kernel32:KERNEL32.dll
 0002:000000c4       __imp__TlsFree@4           1009b0c4     kernel32:KERNEL32.dll
 0002:000000c8       __imp__GetModuleHandleW@4  1009b0c8     kernel32:KERNEL32.dll
 0002:000000cc       __imp__CreateSemaphoreW@16 1009b0cc     kernel32:KERNEL32.dll
 0002:000000d0       __imp__LoadLibraryExW@12   1009b0d0     kernel32:KERNEL32.dll
 0002:000000d4       __imp__lstrlenA@4          1009b0d4     kernel32:KERNEL32.dll
 0002:000000d8       __imp__LoadLibraryW@4      1009b0d8     kernel32:KERNEL32.dll
 0002:000000dc       __imp__WideCharToMultiByte@32 1009b0dc     kernel32:KERNEL32.dll
 0002:000000e0       __imp__GetCurrentThread@0  1009b0e0     kernel32:KERNEL32.dll
 0002:000000e4       __imp__GetProcessHeap@0    1009b0e4     kernel32:KERNEL32.dll
 0002:000000e8       __imp__GetModuleFileNameA@12 1009b0e8     kernel32:KERNEL32.dll
 0002:000000ec       __imp__HeapValidate@12     1009b0ec     kernel32:KERNEL32.dll
 0002:000000f0       __imp__GetSystemInfo@4     1009b0f0     kernel32:KERNEL32.dll
 0002:000000f4       __imp__QueryPerformanceCounter@4 1009b0f4     kernel32:KERNEL32.dll
 0002:000000f8       __imp__GetCurrentProcessId@0 1009b0f8     kernel32:KERNEL32.dll
 0002:000000fc       __imp__GetSystemTimeAsFileTime@4 1009b0fc     kernel32:KERNEL32.dll
 0002:00000100       __imp__GetEnvironmentStringsW@0 1009b100     kernel32:KERNEL32.dll
 0002:00000104       __imp__FreeEnvironmentStringsW@4 1009b104     kernel32:KERNEL32.dll
 0002:00000108       __imp__WriteFile@20        1009b108     kernel32:KERNEL32.dll
 0002:0000010c       __imp__SetConsoleCtrlHandler@8 1009b10c     kernel32:KERNEL32.dll
 0002:00000110       __imp__OutputDebugStringW@4 1009b110     kernel32:KERNEL32.dll
 0002:00000114       __imp__WaitForSingleObjectEx@12 1009b114     kernel32:KERNEL32.dll
 0002:00000118       __imp__CreateThread@24     1009b118     kernel32:KERNEL32.dll
 0002:0000011c       __imp__OutputDebugStringA@4 1009b11c     kernel32:KERNEL32.dll
 0002:00000120       __imp__FreeLibrary@4       1009b120     kernel32:KERNEL32.dll
 0002:00000124       __imp__IsValidCodePage@4   1009b124     kernel32:KERNEL32.dll
 0002:00000128       __imp__GetACP@0            1009b128     kernel32:KERNEL32.dll
 0002:0000012c       __imp__GetOEMCP@0          1009b12c     kernel32:KERNEL32.dll
 0002:00000130       __imp__GetCPInfo@8         1009b130     kernel32:KERNEL32.dll
 0002:00000134       __imp__HeapAlloc@12        1009b134     kernel32:KERNEL32.dll
 0002:00000138       __imp__HeapFree@12         1009b138     kernel32:KERNEL32.dll
 0002:0000013c       __imp__VirtualQuery@12     1009b13c     kernel32:KERNEL32.dll
 0002:00000140       __imp__GetConsoleCP@0      1009b140     kernel32:KERNEL32.dll
 0002:00000144       __imp__GetConsoleMode@8    1009b144     kernel32:KERNEL32.dll
 0002:00000148       __imp__SetFilePointerEx@20 1009b148     kernel32:KERNEL32.dll
 0002:0000014c       __imp__HeapReAlloc@16      1009b14c     kernel32:KERNEL32.dll
 0002:00000150       __imp__HeapSize@12         1009b150     kernel32:KERNEL32.dll
 0002:00000154       __imp__HeapQueryInformation@20 1009b154     kernel32:KERNEL32.dll
 0002:00000158       \177KERNEL32_NULL_THUNK_DATA 1009b158     kernel32:KERNEL32.dll
 0002:0000015c       __imp_?RtTrackSideTgAngleL@@YAMPAUtTrkLocPos@@@Z 1009b15c     robottools:robottools.dll
 0002:00000160       __imp_?RtTrackHeightL@@YAMPAUtTrkLocPos@@@Z 1009b160     robottools:robottools.dll
 0002:00000164       __imp_?RtTrackLocal2Global@@YAXPAUtTrkLocPos@@PAM1H@Z 1009b164     robottools:robottools.dll
 0002:00000168       __imp_?RtTrackSurfaceNormalL@@YAXPAUtTrkLocPos@@PAUt3Dd@@@Z 1009b168     robottools:robottools.dll
 0002:0000016c       __imp_?RtTrackGlobal2Local@@YAXPAUtrackSeg@@MMPAUtTrkLocPos@@H@Z 1009b16c     robottools:robottools.dll
 0002:00000170       \177robottools_NULL_THUNK_DATA 1009b170     robottools:robottools.dll
 0002:00000174       __imp_?_tgf_win_strdup@@YAPADPBD@Z 1009b174     tgf:tgf.dll
 0002:00000178       __imp_?_tgf_win_calloc@@YAPAXII@Z 1009b178     tgf:tgf.dll
 0002:0000017c       __imp_?GfParmGetEltNb@@YAHPAXPBD@Z 1009b17c     tgf:tgf.dll
 0002:00000180       __imp_?_tgf_win_free@@YAXPAX@Z 1009b180     tgf:tgf.dll
 0002:00000184       __imp_?_tgf_win_malloc@@YAPAXI@Z 1009b184     tgf:tgf.dll
 0002:00000188       __imp_?GfParmGetStr@@YAPBDPAXPBD11@Z 1009b188     tgf:tgf.dll
 0002:0000018c       __imp_?GfParmGetNum@@YAMPAXPBD11M@Z 1009b18c     tgf:tgf.dll
 0002:00000190       \177tgf_NULL_THUNK_DATA    1009b190     tgf:tgf.dll
 0002:00000194       ___xc_a                    1009b194     LIBCMTD:crt0init.obj
 0002:00000288       ___xc_z                    1009b288     LIBCMTD:crt0init.obj
 0002:0000028c       ___xi_a                    1009b28c     LIBCMTD:crt0init.obj
 0002:000002a4       ___xi_z                    1009b2a4     LIBCMTD:crt0init.obj
 0002:000002a8       ___xp_a                    1009b2a8     LIBCMTD:crt0init.obj
 0002:000002b8       ___xp_z                    1009b2b8     LIBCMTD:crt0init.obj
 0002:000002bc       ___xt_a                    1009b2bc     LIBCMTD:crt0init.obj
 0002:000002c0       ___xt_z                    1009b2c0     LIBCMTD:crt0init.obj
 0002:000003b8       __real@00000000            1009b3b8     aero.obj
 0002:000003bc       __real@3e0ef34d            1009b3bc     aero.obj
 0002:000003c0       __real@3e19999a            1009b3c0     aero.obj
 0002:000003c4       __real@3ecccccd            1009b3c4     aero.obj
 0002:000003c8       __real@3f251eb8            1009b3c8     aero.obj
 0002:000003cc       __real@3f800000            1009b3cc     aero.obj
 0002:000003d0       __real@3fc00000            1009b3d0     aero.obj
 0002:000003d8       __real@3ff0000000000000    1009b3d8     aero.obj
 0002:000003e0       __real@40000000            1009b3e0     aero.obj
 0002:000003e8       __real@4000000000000000    1009b3e8     aero.obj
 0002:000003f0       __real@40200000            1009b3f0     aero.obj
 0002:000003f4       __real@403de4f7            1009b3f4     aero.obj
 0002:000003f8       __real@40800000            1009b3f8     aero.obj
 0002:000003fc       __real@41200000            1009b3fc     aero.obj
 0002:00000400       __real@461c4000            1009b400     aero.obj
 0002:00000404       __real@bf9d70a4            1009b404     aero.obj
 0002:00000408       __real@bff0000000000000    1009b408     aero.obj
 0002:00000410       __real@c0000000            1009b410     aero.obj
 0002:00000414       __real@c0400000            1009b414     aero.obj
 0002:00000418       __real@c1000000            1009b418     aero.obj
 0002:00000420       __xmm@80000000000000008000000000000000 1009b420     aero.obj
 0002:00000430       __xmm@80000000800000008000000080000000 1009b430     aero.obj
 0002:00000524       __real@3b03126f            1009b524     brake.obj
 0002:00000528       __real@3dcb7cdfd9d7bdbb    1009b528     brake.obj
 0002:00000530       __real@3e051eb8            1009b530     brake.obj
 0002:00000534       __real@3e4ccccd            1009b534     brake.obj
 0002:00000538       __real@3e99999a            1009b538     brake.obj
 0002:0000053c       __real@3f000000            1009b53c     brake.obj
 0002:00000540       __real@3f1a36e2eb1c432d    1009b540     brake.obj
 0002:00000548       __real@3f2a36e2eb1c432d    1009b548     brake.obj
 0002:00000550       __real@3fe0000000000000    1009b550     brake.obj
 0002:00000558       __real@49742400            1009b558     brake.obj
 0002:00000888       __real@3ee4f8b588e368f1    1009b888     car.obj
 0002:00000890       __real@3f99999a            1009b890     car.obj
 0002:00000898       __real@3fb999999999999a    1009b898     car.obj
 0002:000008a0       __real@3ff33333            1009b8a0     car.obj
 0002:000008a8       __real@4022000000000000    1009b8a8     car.obj
 0002:000008b0       __real@40239eb851eb851f    1009b8b0     car.obj
 0002:000008b8       __real@4028000000000000    1009b8b8     car.obj
 0002:000008c0       __real@40966666            1009b8c0     car.obj
 0002:000008c4       __real@42a00000            1009b8c4     car.obj
 0002:000008c8       __real@44bb8000            1009b8c8     car.obj
 0002:00000998       __real@0000000000000000    1009b998     collide.obj
 0002:000009a0       __real@3ba3d70a            1009b9a0     collide.obj
 0002:000009a8       __real@3f50624dd2f1a9fc    1009b9a8     collide.obj
 0002:000009b0       __real@3fa999999999999a    1009b9b0     collide.obj
 0002:000009b8       __real@4008000000000000    1009b9b8     collide.obj
 0002:000009c0       __real@4066800000000000    1009b9c0     collide.obj
 0002:000009c8       __real@bf800000            1009b9c8     collide.obj
 0002:000009cc       __real@c0a00000            1009b9cc     collide.obj
 0002:00000a94       __real@3d4ccccd            1009ba94     differential.obj
 0002:00000a98       __real@3dcccccd            1009ba98     differential.obj
 0002:00000a9c       __real@3f4ccccd            1009ba9c     differential.obj
 0002:00000aa0       __real@43960000            1009baa0     differential.obj
 0002:00000b74       __real@3a83126f            1009bb74     engine.obj
 0002:00000b78       __real@3c23d70a            1009bb78     engine.obj
 0002:00000b7c       __real@3d7ec56d            1009bb7c     engine.obj
 0002:00000b80       __real@3e781d7e            1009bb80     engine.obj
 0002:00000b88       __real@3e7ad7f29abcaf48    1009bb88     engine.obj
 0002:00000b90       __real@3ea8f5c3            1009bb90     engine.obj
 0002:00000b94       __real@3f666666            1009bb94     engine.obj
 0002:00000b98       __real@3f7d70a4            1009bb98     engine.obj
 0002:00000b9c       __real@40a00000            1009bb9c     engine.obj
 0002:00000ba0       __real@43160000            1009bba0     engine.obj
 0002:00000ba4       __real@44480000            1009bba4     engine.obj
 0002:00000ba8       __real@447a0000            1009bba8     engine.obj
 0002:00000bac       __real@46fffe00            1009bbac     engine.obj
 0002:00000bc0       __real@3fc999999999999a    1009bbc0     simu.obj
 0002:00000bc8       __real@403e000000000000    1009bbc8     simu.obj
 0002:00000bd0       __real@bdcccccd            1009bbd0     simu.obj
 0002:00000c28       __real@3edc28f6            1009bc28     steer.obj
 0002:00000c98       __real@4024000000000000    1009bc98     susp.obj
 0002:00000ca0       __real@482ae600            1009bca0     susp.obj
 0002:00000da8       __real@4010000000000000    1009bda8     transmission.obj
 0002:00000f90       __real@358637bd            1009bf90     wheel.obj
 0002:00000f94       __real@3951b717            1009bf94     wheel.obj
 0002:00000f98       __real@3e147ae1            1009bf98     wheel.obj
 0002:00000f9c       __real@3f333333            1009bf9c     wheel.obj
 0002:00000fa0       __real@3f400000            1009bfa0     wheel.obj
 0002:00000fa8       __real@3f847ae147ae147b    1009bfa8     wheel.obj
 0002:00000fb0       __real@3fcccccd            1009bfb0     wheel.obj
 0002:00000fb4       __real@41900000            1009bfb4     wheel.obj
 0002:00000fb8       __real@41a00000            1009bfb8     wheel.obj
 0002:00000fbc       __real@41f00000            1009bfbc     wheel.obj
 0002:00000fc0       __real@42480000            1009bfc0     wheel.obj
 0002:00000fc4       __real@48869200            1009bfc4     wheel.obj
 0002:00000fc8       ?has_denorm@_Num_base@std@@2W4float_denorm_style@2@B 1009bfc8     solid:C-api.obj
 0002:00000fcc       ?has_denorm_loss@_Num_base@std@@2_NB 1009bfcc     solid:C-api.obj
 0002:00000fcd       ?has_infinity@_Num_base@std@@2_NB 1009bfcd     solid:C-api.obj
 0002:00000fce       ?has_quiet_NaN@_Num_base@std@@2_NB 1009bfce     solid:C-api.obj
 0002:00000fcf       ?has_signaling_NaN@_Num_base@std@@2_NB 1009bfcf     solid:C-api.obj
 0002:00000fd0       ?is_bounded@_Num_base@std@@2_NB 1009bfd0     solid:C-api.obj
 0002:00000fd1       ?is_exact@_Num_base@std@@2_NB 1009bfd1     solid:C-api.obj
 0002:00000fd2       ?is_iec559@_Num_base@std@@2_NB 1009bfd2     solid:C-api.obj
 0002:00000fd3       ?is_integer@_Num_base@std@@2_NB 1009bfd3     solid:C-api.obj
 0002:00000fd4       ?is_modulo@_Num_base@std@@2_NB 1009bfd4     solid:C-api.obj
 0002:00000fd5       ?is_signed@_Num_base@std@@2_NB 1009bfd5     solid:C-api.obj
 0002:00000fd6       ?is_specialized@_Num_base@std@@2_NB 1009bfd6     solid:C-api.obj
 0002:00000fd7       ?tinyness_before@_Num_base@std@@2_NB 1009bfd7     solid:C-api.obj
 0002:00000fd8       ?traps@_Num_base@std@@2_NB 1009bfd8     solid:C-api.obj
 0002:00000fdc       ?round_style@_Num_base@std@@2W4float_round_style@2@B 1009bfdc     solid:C-api.obj
 0002:00000fe0       ?digits@_Num_base@std@@2HB 1009bfe0     solid:C-api.obj
 0002:00000fe4       ?digits10@_Num_base@std@@2HB 1009bfe4     solid:C-api.obj
 0002:00000fe8       ?max_digits10@_Num_base@std@@2HB 1009bfe8     solid:C-api.obj
 0002:00000fec       ?max_exponent@_Num_base@std@@2HB 1009bfec     solid:C-api.obj
 0002:00000ff0       ?max_exponent10@_Num_base@std@@2HB 1009bff0     solid:C-api.obj
 0002:00000ff4       ?min_exponent@_Num_base@std@@2HB 1009bff4     solid:C-api.obj
 0002:00000ff8       ?min_exponent10@_Num_base@std@@2HB 1009bff8     solid:C-api.obj
 0002:00000ffc       ?radix@_Num_base@std@@2HB  1009bffc     solid:C-api.obj
 0002:00001000       ?value@?$_Sizeof@HU_Nil@std@@U12@U12@U12@U12@U12@U12@@std@@2IB 1009c000     solid:C-api.obj
 0002:00001004       ?is_bounded@_Num_int_base@std@@2_NB 1009c004     solid:C-api.obj
 0002:00001005       ?is_exact@_Num_int_base@std@@2_NB 1009c005     solid:C-api.obj
 0002:00001006       ?is_integer@_Num_int_base@std@@2_NB 1009c006     solid:C-api.obj
 0002:00001007       ?is_modulo@_Num_int_base@std@@2_NB 1009c007     solid:C-api.obj
 0002:00001008       ?is_specialized@_Num_int_base@std@@2_NB 1009c008     solid:C-api.obj
 0002:0000100c       ?radix@_Num_int_base@std@@2HB 1009c00c     solid:C-api.obj
 0002:00001010       ?has_denorm@_Num_float_base@std@@2W4float_denorm_style@2@B 1009c010     solid:C-api.obj
 0002:00001014       ?has_denorm_loss@_Num_float_base@std@@2_NB 1009c014     solid:C-api.obj
 0002:00001015       ?has_infinity@_Num_float_base@std@@2_NB 1009c015     solid:C-api.obj
 0002:00001016       ?has_quiet_NaN@_Num_float_base@std@@2_NB 1009c016     solid:C-api.obj
 0002:00001017       ?has_signaling_NaN@_Num_float_base@std@@2_NB 1009c017     solid:C-api.obj
 0002:00001048       ?is_bounded@_Num_float_base@std@@2_NB 1009c048     solid:C-api.obj
 0002:00001049       ?is_exact@_Num_float_base@std@@2_NB 1009c049     solid:C-api.obj
 0002:0000104a       ?is_iec559@_Num_float_base@std@@2_NB 1009c04a     solid:C-api.obj
 0002:0000104b       ?is_integer@_Num_float_base@std@@2_NB 1009c04b     solid:C-api.obj
 0002:0000104c       ?is_modulo@_Num_float_base@std@@2_NB 1009c04c     solid:C-api.obj
 0002:0000104d       ?is_signed@_Num_float_base@std@@2_NB 1009c04d     solid:C-api.obj
 0002:0000104e       ?is_specialized@_Num_float_base@std@@2_NB 1009c04e     solid:C-api.obj
 0002:0000104f       ?tinyness_before@_Num_float_base@std@@2_NB 1009c04f     solid:C-api.obj
 0002:00001050       ?traps@_Num_float_base@std@@2_NB 1009c050     solid:C-api.obj
 0002:00001054       ?round_style@_Num_float_base@std@@2W4float_round_style@2@B 1009c054     solid:C-api.obj
 0002:00001058       ?radix@_Num_float_base@std@@2HB 1009c058     solid:C-api.obj
 0002:0000105c       ?is_signed@?$numeric_limits@D@std@@2_NB 1009c05c     solid:C-api.obj
 0002:00001060       ?digits@?$numeric_limits@D@std@@2HB 1009c060     solid:C-api.obj
 0002:00001064       ?digits10@?$numeric_limits@D@std@@2HB 1009c064     solid:C-api.obj
 0002:00001068       ?is_signed@?$numeric_limits@_W@std@@2_NB 1009c068     solid:C-api.obj
 0002:0000106c       ?digits@?$numeric_limits@_W@std@@2HB 1009c06c     solid:C-api.obj
 0002:00001070       ?digits10@?$numeric_limits@_W@std@@2HB 1009c070     solid:C-api.obj
 0002:00001074       ?skipws@?$_Iosb@H@std@@2W4_Fmtflags@12@B 1009c074     solid:C-api.obj
 0002:00001078       ?unitbuf@?$_Iosb@H@std@@2W4_Fmtflags@12@B 1009c078     solid:C-api.obj
 0002:0000107c       ?uppercase@?$_Iosb@H@std@@2W4_Fmtflags@12@B 1009c07c     solid:C-api.obj
 0002:00001080       ?showbase@?$_Iosb@H@std@@2W4_Fmtflags@12@B 1009c080     solid:C-api.obj
 0002:00001084       ?showpoint@?$_Iosb@H@std@@2W4_Fmtflags@12@B 1009c084     solid:C-api.obj
 0002:00001088       ?showpos@?$_Iosb@H@std@@2W4_Fmtflags@12@B 1009c088     solid:C-api.obj
 0002:0000108c       ?is_modulo@?$numeric_limits@_N@std@@2_NB 1009c08c     solid:C-api.obj
 0002:00001090       ?left@?$_Iosb@H@std@@2W4_Fmtflags@12@B 1009c090     solid:C-api.obj
 0002:00001094       ?is_signed@?$numeric_limits@_N@std@@2_NB 1009c094     solid:C-api.obj
 0002:00001098       ?right@?$_Iosb@H@std@@2W4_Fmtflags@12@B 1009c098     solid:C-api.obj
 0002:0000109c       ?digits@?$numeric_limits@_N@std@@2HB 1009c09c     solid:C-api.obj
 0002:000010a0       ?internal@?$_Iosb@H@std@@2W4_Fmtflags@12@B 1009c0a0     solid:C-api.obj
 0002:000010a4       ?digits10@?$numeric_limits@_N@std@@2HB 1009c0a4     solid:C-api.obj
 0002:000010a8       ?dec@?$_Iosb@H@std@@2W4_Fmtflags@12@B 1009c0a8     solid:C-api.obj
 0002:000010ac       ?oct@?$_Iosb@H@std@@2W4_Fmtflags@12@B 1009c0ac     solid:C-api.obj
 0002:000010b0       ?hex@?$_Iosb@H@std@@2W4_Fmtflags@12@B 1009c0b0     solid:C-api.obj
 0002:000010b4       ?scientific@?$_Iosb@H@std@@2W4_Fmtflags@12@B 1009c0b4     solid:C-api.obj
 0002:000010b8       ?fixed@?$_Iosb@H@std@@2W4_Fmtflags@12@B 1009c0b8     solid:C-api.obj
 0002:000010bc       ?hexfloat@?$_Iosb@H@std@@2W4_Fmtflags@12@B 1009c0bc     solid:C-api.obj
 0002:000010c0       ?boolalpha@?$_Iosb@H@std@@2W4_Fmtflags@12@B 1009c0c0     solid:C-api.obj
 0002:000010c4       ?collate@?$_Locbase@H@std@@2HB 1009c0c4     solid:C-api.obj
 0002:000010c8       ?ctype@?$_Locbase@H@std@@2HB 1009c0c8     solid:C-api.obj
 0002:000010cc       ?_Stdio@?$_Iosb@H@std@@2W4_Fmtflags@12@B 1009c0cc     solid:C-api.obj
 0002:000010d0       ?monetary@?$_Locbase@H@std@@2HB 1009c0d0     solid:C-api.obj
 0002:000010d4       ?adjustfield@?$_Iosb@H@std@@2W4_Fmtflags@12@B 1009c0d4     solid:C-api.obj
 0002:000010d8       ?numeric@?$_Locbase@H@std@@2HB 1009c0d8     solid:C-api.obj
 0002:000010dc       ?time@?$_Locbase@H@std@@2HB 1009c0dc     solid:C-api.obj
 0002:000010e0       ?basefield@?$_Iosb@H@std@@2W4_Fmtflags@12@B 1009c0e0     solid:C-api.obj
 0002:000010e4       ?is_signed@?$numeric_limits@C@std@@2_NB 1009c0e4     solid:C-api.obj
 0002:000010e8       ?messages@?$_Locbase@H@std@@2HB 1009c0e8     solid:C-api.obj
 0002:000010ec       ?floatfield@?$_Iosb@H@std@@2W4_Fmtflags@12@B 1009c0ec     solid:C-api.obj
 0002:000010f0       ?all@?$_Locbase@H@std@@2HB 1009c0f0     solid:C-api.obj
 0002:000010f4       ?digits@?$numeric_limits@C@std@@2HB 1009c0f4     solid:C-api.obj
 0002:000010f8       ?none@?$_Locbase@H@std@@2HB 1009c0f8     solid:C-api.obj
 0002:000010fc       ?digits10@?$numeric_limits@C@std@@2HB 1009c0fc     solid:C-api.obj
 0002:00001100       ?goodbit@?$_Iosb@H@std@@2W4_Iostate@12@B 1009c100     solid:C-api.obj
 0002:00001104       ?eofbit@?$_Iosb@H@std@@2W4_Iostate@12@B 1009c104     solid:C-api.obj
 0002:00001108       ?failbit@?$_Iosb@H@std@@2W4_Iostate@12@B 1009c108     solid:C-api.obj
 0002:0000110c       ?badbit@?$_Iosb@H@std@@2W4_Iostate@12@B 1009c10c     solid:C-api.obj
 0002:00001110       ?_Hardfail@?$_Iosb@H@std@@2W4_Iostate@12@B 1009c110     solid:C-api.obj
 0002:00001114       ?in@?$_Iosb@H@std@@2W4_Openmode@12@B 1009c114     solid:C-api.obj
 0002:00001118       ?out@?$_Iosb@H@std@@2W4_Openmode@12@B 1009c118     solid:C-api.obj
 0002:0000111c       ?ate@?$_Iosb@H@std@@2W4_Openmode@12@B 1009c11c     solid:C-api.obj
 0002:00001120       ?app@?$_Iosb@H@std@@2W4_Openmode@12@B 1009c120     solid:C-api.obj
 0002:00001124       ?is_signed@?$numeric_limits@E@std@@2_NB 1009c124     solid:C-api.obj
 0002:00001128       ?trunc@?$_Iosb@H@std@@2W4_Openmode@12@B 1009c128     solid:C-api.obj
 0002:0000112c       ?_Nocreate@?$_Iosb@H@std@@2W4_Openmode@12@B 1009c12c     solid:C-api.obj
 0002:00001130       ?digits@?$numeric_limits@E@std@@2HB 1009c130     solid:C-api.obj
 0002:00001134       ?digits10@?$numeric_limits@E@std@@2HB 1009c134     solid:C-api.obj
 0002:00001138       ?_Noreplace@?$_Iosb@H@std@@2W4_Openmode@12@B 1009c138     solid:C-api.obj
 0002:0000113c       ?binary@?$_Iosb@H@std@@2W4_Openmode@12@B 1009c13c     solid:C-api.obj
 0002:00001140       ?beg@?$_Iosb@H@std@@2W4_Seekdir@12@B 1009c140     solid:C-api.obj
 0002:00001144       ?cur@?$_Iosb@H@std@@2W4_Seekdir@12@B 1009c144     solid:C-api.obj
 0002:00001148       ?end@?$_Iosb@H@std@@2W4_Seekdir@12@B 1009c148     solid:C-api.obj
 0002:0000114c       ?is_signed@?$numeric_limits@F@std@@2_NB 1009c14c     solid:C-api.obj
 0002:00001150       ?digits@?$numeric_limits@F@std@@2HB 1009c150     solid:C-api.obj
 0002:00001154       ?digits10@?$numeric_limits@F@std@@2HB 1009c154     solid:C-api.obj
 0002:00001158       ?_Stream_err@failure@ios_base@std@@0W4io_errc@43@B 1009c158     solid:C-api.obj
 0002:0000115c       ?is_signed@?$numeric_limits@G@std@@2_NB 1009c15c     solid:C-api.obj
 0002:00001160       ?digits@?$numeric_limits@G@std@@2HB 1009c160     solid:C-api.obj
 0002:00001164       ?digits10@?$numeric_limits@G@std@@2HB 1009c164     solid:C-api.obj
 0002:00001168       ?is_signed@?$numeric_limits@H@std@@2_NB 1009c168     solid:C-api.obj
 0002:0000116c       ?digits@?$numeric_limits@H@std@@2HB 1009c16c     solid:C-api.obj
 0002:00001170       ?digits10@?$numeric_limits@H@std@@2HB 1009c170     solid:C-api.obj
 0002:00001174       ?is_signed@?$numeric_limits@I@std@@2_NB 1009c174     solid:C-api.obj
 0002:00001178       ?digits@?$numeric_limits@I@std@@2HB 1009c178     solid:C-api.obj
 0002:0000117c       ?digits10@?$numeric_limits@I@std@@2HB 1009c17c     solid:C-api.obj
 0002:00001180       ?table_size@?$ctype@D@std@@2IB 1009c180     solid:C-api.obj
 0002:00001184       ?is_signed@?$numeric_limits@J@std@@2_NB 1009c184     solid:C-api.obj
 0002:00001188       ?digits@?$numeric_limits@J@std@@2HB 1009c188     solid:C-api.obj
 0002:0000118c       ?digits10@?$numeric_limits@J@std@@2HB 1009c18c     solid:C-api.obj
 0002:00001190       ?is_signed@?$numeric_limits@K@std@@2_NB 1009c190     solid:C-api.obj
 0002:00001194       ?digits@?$numeric_limits@K@std@@2HB 1009c194     solid:C-api.obj
 0002:00001198       ?digits10@?$numeric_limits@K@std@@2HB 1009c198     solid:C-api.obj
 0002:0000119c       ?is_signed@?$numeric_limits@_J@std@@2_NB 1009c19c     solid:C-api.obj
 0002:000011a0       ?digits@?$numeric_limits@_J@std@@2HB 1009c1a0     solid:C-api.obj
 0002:000011a4       ?digits10@?$numeric_limits@_J@std@@2HB 1009c1a4     solid:C-api.obj
 0002:000011a8       ?is_signed@?$numeric_limits@_K@std@@2_NB 1009c1a8     solid:C-api.obj
 0002:000011ac       ?digits@?$numeric_limits@_K@std@@2HB 1009c1ac     solid:C-api.obj
 0002:000011b0       ?digits10@?$numeric_limits@_K@std@@2HB 1009c1b0     solid:C-api.obj
 0002:000011b4       ?digits@?$numeric_limits@M@std@@2HB 1009c1b4     solid:C-api.obj
 0002:000011b8       ?value@?$integral_constant@I$0A@@std@@2IB 1009c1b8     solid:C-api.obj
 0002:000011bc       ?digits10@?$numeric_limits@M@std@@2HB 1009c1bc     solid:C-api.obj
 0002:000011c0       ?max_digits10@?$numeric_limits@M@std@@2HB 1009c1c0     solid:C-api.obj
 0002:000011c4       ?max_exponent@?$numeric_limits@M@std@@2HB 1009c1c4     solid:C-api.obj
 0002:000011c8       ?max_exponent10@?$numeric_limits@M@std@@2HB 1009c1c8     solid:C-api.obj
 0002:000011cc       ?min_exponent@?$numeric_limits@M@std@@2HB 1009c1cc     solid:C-api.obj
 0002:000011d0       ?min_exponent10@?$numeric_limits@M@std@@2HB 1009c1d0     solid:C-api.obj
 0002:000011d4       ?digits@?$numeric_limits@N@std@@2HB 1009c1d4     solid:C-api.obj
 0002:000011d8       ?digits10@?$numeric_limits@N@std@@2HB 1009c1d8     solid:C-api.obj
 0002:000011dc       ?max_digits10@?$numeric_limits@N@std@@2HB 1009c1dc     solid:C-api.obj
 0002:000011e0       ?max_exponent@?$numeric_limits@N@std@@2HB 1009c1e0     solid:C-api.obj
 0002:000011e4       ?max_exponent10@?$numeric_limits@N@std@@2HB 1009c1e4     solid:C-api.obj
 0002:000011e8       ?min_exponent@?$numeric_limits@N@std@@2HB 1009c1e8     solid:C-api.obj
 0002:000011ec       ?min_exponent10@?$numeric_limits@N@std@@2HB 1009c1ec     solid:C-api.obj
 0002:000011f0       ?digits@?$numeric_limits@O@std@@2HB 1009c1f0     solid:C-api.obj
 0002:000011f4       ?digits10@?$numeric_limits@O@std@@2HB 1009c1f4     solid:C-api.obj
 0002:000011f8       ?max_digits10@?$numeric_limits@O@std@@2HB 1009c1f8     solid:C-api.obj
 0002:000011fc       ?max_exponent@?$numeric_limits@O@std@@2HB 1009c1fc     solid:C-api.obj
 0002:00001200       ?max_exponent10@?$numeric_limits@O@std@@2HB 1009c200     solid:C-api.obj
 0002:00001204       ?min_exponent@?$numeric_limits@O@std@@2HB 1009c204     solid:C-api.obj
 0002:00001208       ?min_exponent10@?$numeric_limits@O@std@@2HB 1009c208     solid:C-api.obj
 0002:0000120c       ?value@?$_Sizeof@U_Nil@std@@U12@U12@U12@U12@U12@U12@U12@@std@@2IB 1009c20c     solid:C-api.obj
 0002:00001210       ?value@?$integral_constant@_N$0A@@std@@2_NB 1009c210     solid:C-api.obj
 0002:00001211       ?value@?$integral_constant@_N$00@std@@2_NB 1009c211     solid:C-api.obj
 0002:00001218       ??_C@_1HI@INMNAKMP@?$AAD?$AA?3?$AA?2?$AAP?$AAr?$AAo?$AAg?$AAr?$AAa?$AAm?$AA?2?$AAM?$AAi?$AAc?$AAr?$AAo?$AAs?$AAo?$AAf?$AAt?$AA?5?$AAV?$AAi?$AAs?$AAu?$AAa?$AAl?$AA?5?$AAS?$AAt?$AAu?$AAd@ 1009c218     solid:C-api.obj
 0002:00001290       ??_C@_1DC@POOIKBAO@?$AAI?$AAT?$AAE?$AAR?$AAA?$AAT?$AAO?$AAR?$AA?5?$AAL?$AAI?$AAS?$AAT?$AA?5?$AAC?$AAO?$AAR?$AAR?$AAU?$AAP?$AAT?$AAE?$AAD?$AA?$CB?$AA?$AA@ 1009c290     solid:C-api.obj
 0002:000012c8       ??_7error_category@std@@6B@ 1009c2c8     solid:C-api.obj
 0002:000012e4       ??_7_Generic_error_category@std@@6B@ 1009c2e4     solid:C-api.obj
 0002:000012fc       ??_C@_07DCLBNMLN@generic?$AA@ 1009c2fc     solid:C-api.obj
 0002:00001304       ??_C@_0O@BFJCFAAK@unknown?5error?$AA@ 1009c304     solid:C-api.obj
 0002:00001318       ??_7_Iostream_error_category@std@@6B@ 1009c318     solid:C-api.obj
 0002:00001330       ??_C@_08LLGCOLLL@iostream?$AA@ 1009c330     solid:C-api.obj
 0002:0000133c       ??_C@_0BG@PADBLCHM@iostream?5stream?5error?$AA@ 1009c33c     solid:C-api.obj
 0002:00001358       ??_7_System_error_category@std@@6B@ 1009c358     solid:C-api.obj
 0002:00001370       ??_C@_06FHFOAHML@system?$AA@ 1009c370     solid:C-api.obj
 0002:0000137c       ??_7Shape@@6B@             1009c37c     solid:C-api.obj
 0002:0000138c       ??_7Convex@@6B@            1009c38c     solid:C-api.obj
 0002:000013a0       ??_7Box@@6B@               1009c3a0     solid:C-api.obj
 0002:000013b4       ??_7Cone@@6B@              1009c3b4     solid:C-api.obj
 0002:000013c8       ??_7Cylinder@@6B@          1009c3c8     solid:C-api.obj
 0002:000013dc       ??_7Sphere@@6B@            1009c3dc     solid:C-api.obj
 0002:000013f0       ??_7Complex@@6B@           1009c3f0     solid:C-api.obj
 0002:00001400       ??_7Polytope@@6B@          1009c400     solid:C-api.obj
 0002:00001414       ??_7Simplex@@6B@           1009c414     solid:C-api.obj
 0002:00001428       ??_7Polygon@@6B@           1009c428     solid:C-api.obj
 0002:00001438       ??_C@_1HG@HDDJJEAD@?$AAD?$AA?3?$AA?2?$AAP?$AAr?$AAo?$AAg?$AAr?$AAa?$AAm?$AA?2?$AAM?$AAi?$AAc?$AAr?$AAo?$AAs?$AAo?$AAf?$AAt?$AA?5?$AAV?$AAi?$AAs?$AAu?$AAa?$AAl?$AA?5?$AAS?$AAt?$AAu?$AAd@ 1009c438     solid:C-api.obj
 0002:000014b0       ??_C@_1HE@JKLHPCBN@?$AAD?$AA?3?$AA?2?$AAP?$AAr?$AAo?$AAg?$AAr?$AAa?$AAm?$AA?2?$AAM?$AAi?$AAc?$AAr?$AAo?$AAs?$AAo?$AAf?$AAt?$AA?5?$AAV?$AAi?$AAs?$AAu?$AAa?$AAl?$AA?5?$AAS?$AAt?$AAu?$AAd@ 1009c4b0     solid:C-api.obj
 0002:00001524       ??_C@_1DM@LHGCHCBA@?$AAv?$AAe?$AAc?$AAt?$AAo?$AAr?$AA?5?$AAs?$AAu?$AAb?$AAs?$AAc?$AAr?$AAi?$AAp?$AAt?$AA?5?$AAo?$AAu?$AAt?$AA?5?$AAo?$AAf?$AA?5?$AAr?$AAa?$AAn?$AAg?$AAe?$AA?$AA@ 1009c524     solid:C-api.obj
 0002:00001560       ??_C@_0CE@OFMIGAMM@Standard?5C?$CL?$CL?5Libraries?5Out?5of?5Ra@ 1009c560     solid:C-api.obj
 0002:00001588       ??_C@_1FG@IBPIFFN@?$AA?$CC?$AAS?$AAt?$AAa?$AAn?$AAd?$AAa?$AAr?$AAd?$AA?5?$AAC?$AA?$CL?$AA?$CL?$AA?5?$AAL?$AAi?$AAb?$AAr?$AAa?$AAr?$AAi?$AAe?$AAs?$AA?5?$AAO?$AAu?$AAt?$AA?5?$AAo?$AAf?$AA?5?$AAR@ 1009c588     solid:C-api.obj
 0002:000015e0       ??_C@_15GANGMFKL@?$AA?$CF?$AAs?$AA?$AA@ 1009c5e0     solid:C-api.obj
 0002:000015e8       ??_C@_1JC@OFJFCGFB@?$AAs?$AAt?$AAd?$AA?3?$AA?3?$AAv?$AAe?$AAc?$AAt?$AAo?$AAr?$AA?$DM?$AAc?$AAl?$AAa?$AAs?$AAs?$AA?5?$AAP?$AAo?$AAi?$AAn?$AAt?$AA?0?$AAc?$AAl?$AAa?$AAs?$AAs?$AA?5?$AAs?$AAt@ 1009c5e8     solid:C-api.obj
 0002:0000167c       ??_C@_1BO@MEPPHOO@?$AA?$CC?$AAo?$AAu?$AAt?$AA?5?$AAo?$AAf?$AA?5?$AAr?$AAa?$AAn?$AAg?$AAe?$AA?$CC?$AA?$AA@ 1009c67c     solid:C-api.obj
 0002:000016a0       ??_C@_1EI@HGIDLLCM@?$AAv?$AAe?$AAc?$AAt?$AAo?$AAr?$AA?5?$AAe?$AAr?$AAa?$AAs?$AAe?$AA?5?$AAi?$AAt?$AAe?$AAr?$AAa?$AAt?$AAo?$AAr?$AA?5?$AAo?$AAu?$AAt?$AAs?$AAi?$AAd?$AAe?$AA?5?$AAr?$AAa@ 1009c6a0     solid:C-api.obj
 0002:000016e8       ??_C@_1JG@ILDNFCDK@?$AAs?$AAt?$AAd?$AA?3?$AA?3?$AAv?$AAe?$AAc?$AAt?$AAo?$AAr?$AA?$DM?$AAu?$AAn?$AAs?$AAi?$AAg?$AAn?$AAe?$AAd?$AA?5?$AAi?$AAn?$AAt?$AA?0?$AAc?$AAl?$AAa?$AAs?$AAs?$AA?5?$AAs@ 1009c6e8     solid:C-api.obj
 0002:00001780       ??_C@_1LO@OGBBDEEL@?$AAs?$AAt?$AAd?$AA?3?$AA?3?$AAv?$AAe?$AAc?$AAt?$AAo?$AAr?$AA?$DM?$AAc?$AAl?$AAa?$AAs?$AAs?$AA?5?$AAP?$AAo?$AAl?$AAy?$AAt?$AAo?$AAp?$AAe?$AA?5?$AAc?$AAo?$AAn?$AAs?$AAt@ 1009c780     solid:C-api.obj
 0002:00001840       ??_C@_1HC@HOEIOBO@?$AAD?$AA?3?$AA?2?$AAP?$AAr?$AAo?$AAg?$AAr?$AAa?$AAm?$AA?2?$AAM?$AAi?$AAc?$AAr?$AAo?$AAs?$AAo?$AAf?$AAt?$AA?5?$AAV?$AAi?$AAs?$AAu?$AAa?$AAl?$AA?5?$AAS?$AAt?$AAu?$AAd@ 1009c840     solid:C-api.obj
 0002:000018b8       ??_C@_1EK@PPDBPCAN@?$AAm?$AAa?$AAp?$AA?1?$AAs?$AAe?$AAt?$AA?5?$AAe?$AAr?$AAa?$AAs?$AAe?$AA?5?$AAi?$AAt?$AAe?$AAr?$AAa?$AAt?$AAo?$AAr?$AA?5?$AAo?$AAu?$AAt?$AAs?$AAi?$AAd?$AAe?$AA?5?$AAr@ 1009c8b8     solid:C-api.obj
 0002:00001908       ??_C@_1EI@FHEHNNNM@?$AAm?$AAa?$AAp?$AA?1?$AAs?$AAe?$AAt?$AA?5?$AAi?$AAt?$AAe?$AAr?$AAa?$AAt?$AAo?$AAr?$AA?5?$AAn?$AAo?$AAt?$AA?5?$AAd?$AAe?$AAr?$AAe?$AAf?$AAe?$AAr?$AAe?$AAn?$AAc?$AAa@ 1009c908     solid:C-api.obj
 0002:00001950       ??_C@_1BBM@HBKHGCEO@?$AAs?$AAt?$AAd?$AA?3?$AA?3?$AA_?$AAT?$AAr?$AAe?$AAe?$AA_?$AAc?$AAo?$AAn?$AAs?$AAt?$AA_?$AAi?$AAt?$AAe?$AAr?$AAa?$AAt?$AAo?$AAr?$AA?$DM?$AAc?$AAl?$AAa?$AAs?$AAs?$AA?5@ 1009c950     solid:C-api.obj
 0002:00001a70       ??_C@_1EG@EHJFMBHJ@?$AAm?$AAa?$AAp?$AA?1?$AAs?$AAe?$AAt?$AA?5?$AAi?$AAt?$AAe?$AAr?$AAa?$AAt?$AAo?$AAr?$AA?5?$AAn?$AAo?$AAt?$AA?5?$AAi?$AAn?$AAc?$AAr?$AAe?$AAm?$AAe?$AAn?$AAt?$AAa?$AAb@ 1009ca70     solid:C-api.obj
 0002:00001ab8       ??_C@_1BBO@HBCJOIMC@?$AAs?$AAt?$AAd?$AA?3?$AA?3?$AA_?$AAT?$AAr?$AAe?$AAe?$AA_?$AAc?$AAo?$AAn?$AAs?$AAt?$AA_?$AAi?$AAt?$AAe?$AAr?$AAa?$AAt?$AAo?$AAr?$AA?$DM?$AAc?$AAl?$AAa?$AAs?$AAs?$AA?5@ 1009cab8     solid:C-api.obj
 0002:00001bd8       ??_C@_1NO@CJNOJGMC@?$AAs?$AAt?$AAd?$AA?3?$AA?3?$AA_?$AAT?$AAr?$AAe?$AAe?$AA_?$AAc?$AAo?$AAn?$AAs?$AAt?$AA_?$AAi?$AAt?$AAe?$AAr?$AAa?$AAt?$AAo?$AAr?$AA?$DM?$AAc?$AAl?$AAa?$AAs?$AAs?$AA?5@ 1009cbd8     solid:C-api.obj
 0002:00001cb8       ??_C@_1OA@FMMPFBPJ@?$AAs?$AAt?$AAd?$AA?3?$AA?3?$AA_?$AAT?$AAr?$AAe?$AAe?$AA_?$AAc?$AAo?$AAn?$AAs?$AAt?$AA_?$AAi?$AAt?$AAe?$AAr?$AAa?$AAt?$AAo?$AAr?$AA?$DM?$AAc?$AAl?$AAa?$AAs?$AAs?$AA?5@ 1009ccb8     solid:C-api.obj
 0002:00001d98       ??_C@_1DO@CFEEPGGJ@?$AAm?$AAa?$AAp?$AA?1?$AAs?$AAe?$AAt?$AA?5?$AAi?$AAt?$AAe?$AAr?$AAa?$AAt?$AAo?$AAr?$AAs?$AA?5?$AAi?$AAn?$AAc?$AAo?$AAm?$AAp?$AAa?$AAt?$AAi?$AAb?$AAl?$AAe?$AA?$AA@ 1009cd98     solid:C-api.obj
 0002:00001dd8       ??_C@_0CI@FNPHFCCM@Standard?5C?$CL?$CL?5Libraries?5Invalid?5A@ 1009cdd8     solid:C-api.obj
 0002:00001e00       ??_C@_1FO@GJIHNDLM@?$AA?$CC?$AAS?$AAt?$AAa?$AAn?$AAd?$AAa?$AAr?$AAd?$AA?5?$AAC?$AA?$CL?$AA?$CL?$AA?5?$AAL?$AAi?$AAb?$AAr?$AAa?$AAr?$AAi?$AAe?$AAs?$AA?5?$AAI?$AAn?$AAv?$AAa?$AAl?$AAi?$AAd?$AA?5@ 1009ce00     solid:C-api.obj
 0002:00001e60       ??_C@_1BBO@BGHMGHGL@?$AAs?$AAt?$AAd?$AA?3?$AA?3?$AA_?$AAT?$AAr?$AAe?$AAe?$AA_?$AAc?$AAo?$AAn?$AAs?$AAt?$AA_?$AAi?$AAt?$AAe?$AAr?$AAa?$AAt?$AAo?$AAr?$AA?$DM?$AAc?$AAl?$AAa?$AAs?$AAs?$AA?5@ 1009ce60     solid:C-api.obj
 0002:00001f80       ??_C@_1CG@JNLFBNGN@?$AA?$CC?$AAi?$AAn?$AAv?$AAa?$AAl?$AAi?$AAd?$AA?5?$AAa?$AAr?$AAg?$AAu?$AAm?$AAe?$AAn?$AAt?$AA?$CC?$AA?$AA@ 1009cf80     solid:C-api.obj
 0002:00001fa8       ??_C@_1BFC@MKLKEKAB@?$AAs?$AAt?$AAd?$AA?3?$AA?3?$AA_?$AAT?$AAr?$AAe?$AAe?$AA_?$AAc?$AAo?$AAn?$AAs?$AAt?$AA_?$AAi?$AAt?$AAe?$AAr?$AAa?$AAt?$AAo?$AAr?$AA?$DM?$AAc?$AAl?$AAa?$AAs?$AAs?$AA?5@ 1009cfa8     solid:C-api.obj
 0002:00002100       ??_C@_1EG@FOHJJHAC@?$AAv?$AAe?$AAc?$AAt?$AAo?$AAr?$AA?5?$AAi?$AAt?$AAe?$AAr?$AAa?$AAt?$AAo?$AAr?$AA?5?$AAn?$AAo?$AAt?$AA?5?$AAd?$AAe?$AAr?$AAe?$AAf?$AAe?$AAr?$AAe?$AAn?$AAc?$AAa?$AAb@ 1009d100     solid:C-api.obj
 0002:00002148       ??_C@_1NM@DKMLEOIJ@?$AAs?$AAt?$AAd?$AA?3?$AA?3?$AA_?$AAV?$AAe?$AAc?$AAt?$AAo?$AAr?$AA_?$AAc?$AAo?$AAn?$AAs?$AAt?$AA_?$AAi?$AAt?$AAe?$AAr?$AAa?$AAt?$AAo?$AAr?$AA?$DM?$AAc?$AAl?$AAa?$AAs@ 1009d148     solid:C-api.obj
 0002:00002228       ??_C@_1EE@EJDKCLKB@?$AAv?$AAe?$AAc?$AAt?$AAo?$AAr?$AA?5?$AAi?$AAt?$AAe?$AAr?$AAa?$AAt?$AAo?$AAr?$AA?5?$AAn?$AAo?$AAt?$AA?5?$AAi?$AAn?$AAc?$AAr?$AAe?$AAm?$AAe?$AAn?$AAt?$AAa?$AAb?$AAl@ 1009d228     solid:C-api.obj
 0002:00002270       ??_C@_1NO@MHEKIOME@?$AAs?$AAt?$AAd?$AA?3?$AA?3?$AA_?$AAV?$AAe?$AAc?$AAt?$AAo?$AAr?$AA_?$AAc?$AAo?$AAn?$AAs?$AAt?$AA_?$AAi?$AAt?$AAe?$AAr?$AAa?$AAt?$AAo?$AAr?$AA?$DM?$AAc?$AAl?$AAa?$AAs@ 1009d270     solid:C-api.obj
 0002:00002350       ??_C@_1BBO@NBNEABAH@?$AAs?$AAt?$AAd?$AA?3?$AA?3?$AA_?$AAT?$AAr?$AAe?$AAe?$AA_?$AAc?$AAo?$AAn?$AAs?$AAt?$AA_?$AAi?$AAt?$AAe?$AAr?$AAa?$AAt?$AAo?$AAr?$AA?$DM?$AAc?$AAl?$AAa?$AAs?$AAs?$AA?5@ 1009d350     solid:C-api.obj
 0002:00002470       ??_C@_1OA@PMDCLIDM@?$AAs?$AAt?$AAd?$AA?3?$AA?3?$AA_?$AAT?$AAr?$AAe?$AAe?$AA_?$AAc?$AAo?$AAn?$AAs?$AAt?$AA_?$AAi?$AAt?$AAe?$AAr?$AAa?$AAt?$AAo?$AAr?$AA?$DM?$AAc?$AAl?$AAa?$AAs?$AAs?$AA?5@ 1009d470     solid:C-api.obj
 0002:00002550       ??_C@_0BI@CFPLBAOH@invalid?5string?5position?$AA@ 1009d550     solid:C-api.obj
 0002:00002568       ??_C@_0BD@OLBABOEK@vector?$DMT?$DO?5too?5long?$AA@ 1009d568     solid:C-api.obj
 0002:0000257c       ??_C@_1DM@HINDPMBP@?$AAv?$AAe?$AAc?$AAt?$AAo?$AAr?$AA?5?$AAi?$AAt?$AAe?$AAr?$AAa?$AAt?$AAo?$AAr?$AAs?$AA?5?$AAi?$AAn?$AAc?$AAo?$AAm?$AAp?$AAa?$AAt?$AAi?$AAb?$AAl?$AAe?$AA?$AA@ 1009d57c     solid:C-api.obj
 0002:000025b8       ??_C@_1MO@NGPDBFEE@?$AAs?$AAt?$AAd?$AA?3?$AA?3?$AA_?$AAV?$AAe?$AAc?$AAt?$AAo?$AAr?$AA_?$AAc?$AAo?$AAn?$AAs?$AAt?$AA_?$AAi?$AAt?$AAe?$AAr?$AAa?$AAt?$AAo?$AAr?$AA?$DM?$AAc?$AAl?$AAa?$AAs@ 1009d5b8     solid:C-api.obj
 0002:00002688       ??_C@_1OE@EIKBNNGJ@?$AAs?$AAt?$AAd?$AA?3?$AA?3?$AA_?$AAV?$AAe?$AAc?$AAt?$AAo?$AAr?$AA_?$AAc?$AAo?$AAn?$AAs?$AAt?$AA_?$AAi?$AAt?$AAe?$AAr?$AAa?$AAt?$AAo?$AAr?$AA?$DM?$AAc?$AAl?$AAa?$AAs@ 1009d688     solid:C-api.obj
 0002:00002770       ??_C@_1NA@KDANOKNP@?$AAs?$AAt?$AAd?$AA?3?$AA?3?$AA_?$AAV?$AAe?$AAc?$AAt?$AAo?$AAr?$AA_?$AAc?$AAo?$AAn?$AAs?$AAt?$AA_?$AAi?$AAt?$AAe?$AAr?$AAa?$AAt?$AAo?$AAr?$AA?$DM?$AAc?$AAl?$AAa?$AAs@ 1009d770     solid:C-api.obj
 0002:00002840       ??_C@_1NG@GIOEHNJK@?$AAs?$AAt?$AAd?$AA?3?$AA?3?$AA_?$AAV?$AAe?$AAc?$AAt?$AAo?$AAr?$AA_?$AAc?$AAo?$AAn?$AAs?$AAt?$AA_?$AAi?$AAt?$AAe?$AAr?$AAa?$AAt?$AAo?$AAr?$AA?$DM?$AAc?$AAl?$AAa?$AAs@ 1009d840     solid:C-api.obj
 0002:00002918       ??_C@_1BBM@NFHCKCAC@?$AAs?$AAt?$AAd?$AA?3?$AA?3?$AA_?$AAT?$AAr?$AAe?$AAe?$AA_?$AAc?$AAo?$AAn?$AAs?$AAt?$AA_?$AAi?$AAt?$AAe?$AAr?$AAa?$AAt?$AAo?$AAr?$AA?$DM?$AAc?$AAl?$AAa?$AAs?$AAs?$AA?5@ 1009d918     solid:C-api.obj
 0002:00002a38       ??_C@_1BBO@LGIBIOKO@?$AAs?$AAt?$AAd?$AA?3?$AA?3?$AA_?$AAT?$AAr?$AAe?$AAe?$AA_?$AAc?$AAo?$AAn?$AAs?$AAt?$AA_?$AAi?$AAt?$AAe?$AAr?$AAa?$AAt?$AAo?$AAr?$AA?$DM?$AAc?$AAl?$AAa?$AAs?$AAs?$AA?5@ 1009da38     solid:C-api.obj
 0002:00002b58       ??_C@_1BFA@CPKNNGJI@?$AAs?$AAt?$AAd?$AA?3?$AA?3?$AA_?$AAT?$AAr?$AAe?$AAe?$AA_?$AAc?$AAo?$AAn?$AAs?$AAt?$AA_?$AAi?$AAt?$AAe?$AAr?$AAa?$AAt?$AAo?$AAr?$AA?$DM?$AAc?$AAl?$AAa?$AAs?$AAs?$AA?5@ 1009db58     solid:C-api.obj
 0002:00002ca8       ??_C@_1BFC@GKEHKDME@?$AAs?$AAt?$AAd?$AA?3?$AA?3?$AA_?$AAT?$AAr?$AAe?$AAe?$AA_?$AAc?$AAo?$AAn?$AAs?$AAt?$AA_?$AAi?$AAt?$AAe?$AAr?$AAa?$AAt?$AAo?$AAr?$AA?$DM?$AAc?$AAl?$AAa?$AAs?$AAs?$AA?5@ 1009dca8     solid:C-api.obj
 0002:00002dfc       ??_C@_0BA@JFNIOLAK@string?5too?5long?$AA@ 1009ddfc     solid:C-api.obj
 0002:00002e0c       ??_C@_1CK@EOPGIILJ@?$AAi?$AAn?$AAv?$AAa?$AAl?$AAi?$AAd?$AA?5?$AAn?$AAu?$AAl?$AAl?$AA?5?$AAp?$AAo?$AAi?$AAn?$AAt?$AAe?$AAr?$AA?$AA@ 1009de0c     solid:C-api.obj
 0002:00002e38       ??_C@_1CE@IGJMOCCK@?$AAi?$AAn?$AAv?$AAa?$AAl?$AAi?$AAd?$AA?5?$AAo?$AAp?$AAe?$AAr?$AAa?$AAt?$AAo?$AAr?$AA?$DM?$AA?$AA@ 1009de38     solid:C-api.obj
 0002:00002e60       ??_C@_1EG@OKCGOALM@?$AAm?$AAa?$AAp?$AA?1?$AAs?$AAe?$AAt?$AA?5?$AAi?$AAt?$AAe?$AAr?$AAa?$AAt?$AAo?$AAr?$AA?5?$AAn?$AAo?$AAt?$AA?5?$AAd?$AAe?$AAc?$AAr?$AAe?$AAm?$AAe?$AAn?$AAt?$AAa?$AAb@ 1009de60     solid:C-api.obj
 0002:00002ea8       ??_C@_1OA@KPPNONDI@?$AAs?$AAt?$AAd?$AA?3?$AA?3?$AA_?$AAT?$AAr?$AAe?$AAe?$AA_?$AAc?$AAo?$AAn?$AAs?$AAt?$AA_?$AAi?$AAt?$AAe?$AAr?$AAa?$AAt?$AAo?$AAr?$AA?$DM?$AAc?$AAl?$AAa?$AAs?$AAs?$AA?5@ 1009dea8     solid:C-api.obj
 0002:00002f88       ??_C@_1CO@DGLIKNHI@?$AAi?$AAn?$AAv?$AAa?$AAl?$AAi?$AAd?$AA?5?$AAi?$AAt?$AAe?$AAr?$AAa?$AAt?$AAo?$AAr?$AA?5?$AAr?$AAa?$AAn?$AAg?$AAe?$AA?$AA@ 1009df88     solid:C-api.obj
 0002:00002fb8       ??_C@_1EM@MHOKKPFH@?$AAm?$AAa?$AAp?$AA?1?$AAs?$AAe?$AAt?$AA?5?$AAi?$AAn?$AAs?$AAe?$AAr?$AAt?$AA?5?$AAi?$AAt?$AAe?$AAr?$AAa?$AAt?$AAo?$AAr?$AA?5?$AAo?$AAu?$AAt?$AAs?$AAi?$AAd?$AAe?$AA?5@ 1009dfb8     solid:C-api.obj
 0002:00003004       ??_C@_0BE@JONHPENG@map?1set?$DMT?$DO?5too?5long?$AA@ 1009e004     solid:C-api.obj
 0002:00003018       ??_C@_1BBO@EFLDDCGP@?$AAs?$AAt?$AAd?$AA?3?$AA?3?$AA_?$AAT?$AAr?$AAe?$AAe?$AA_?$AAc?$AAo?$AAn?$AAs?$AAt?$AA_?$AAi?$AAt?$AAe?$AAr?$AAa?$AAt?$AAo?$AAr?$AA?$DM?$AAc?$AAl?$AAa?$AAs?$AAs?$AA?5@ 1009e018     solid:C-api.obj
 0002:00003138       ??_C@_1BFC@JJHFBPAF@?$AAs?$AAt?$AAd?$AA?3?$AA?3?$AA_?$AAT?$AAr?$AAe?$AAe?$AA_?$AAc?$AAo?$AAn?$AAs?$AAt?$AA_?$AAi?$AAt?$AAe?$AAr?$AAa?$AAt?$AAo?$AAr?$AA?$DM?$AAc?$AAl?$AAa?$AAs?$AAs?$AA?5@ 1009e138     solid:C-api.obj
 0002:00003290       ??_C@_1BBO@ICBLFEAD@?$AAs?$AAt?$AAd?$AA?3?$AA?3?$AA_?$AAT?$AAr?$AAe?$AAe?$AA_?$AAc?$AAo?$AAn?$AAs?$AAt?$AA_?$AAi?$AAt?$AAe?$AAr?$AAa?$AAt?$AAo?$AAr?$AA?$DM?$AAc?$AAl?$AAa?$AAs?$AAs?$AA?5@ 1009e290     solid:C-api.obj
 0002:000033b0       ??_C@_1HG@JNLFGNNC@?$AAD?$AA?3?$AA?2?$AAP?$AAr?$AAo?$AAg?$AAr?$AAa?$AAm?$AA?2?$AAM?$AAi?$AAc?$AAr?$AAo?$AAs?$AAo?$AAf?$AAt?$AA?5?$AAV?$AAi?$AAs?$AAu?$AAa?$AAl?$AA?5?$AAS?$AAt?$AAu?$AAd@ 1009e3b0     solid:C-api.obj
 0002:00003450       ??_C@_1BA@JICFLDND@?$AA?$CB?$AAe?$AAq?$AAz?$AA?$CI?$AAd?$AA?$CJ?$AA?$AA@ 1009e450     solid:Transform.obj
 0002:00003460       ??_C@_1KA@HJHOFFCC@?$AAD?$AA?3?$AA?2?$AAS?$AAi?$AAm?$AAo?$AAn?$AA?2?$AAD?$AAo?$AAc?$AAu?$AAm?$AAe?$AAn?$AAt?$AAs?$AA?2?$AAG?$AAi?$AAt?$AAH?$AAu?$AAb?$AA?2?$AAK?$AAa?$AAn?$AAd?$AAi?$AAd@ 1009e460     solid:Transform.obj
 0002:00003530       ??_C@_1KA@PFPIPCJB@?$AAd?$AA?3?$AA?2?$AAs?$AAi?$AAm?$AAo?$AAn?$AA?2?$AAd?$AAo?$AAc?$AAu?$AAm?$AAe?$AAn?$AAt?$AAs?$AA?2?$AAg?$AAi?$AAt?$AAh?$AAu?$AAb?$AA?2?$AAk?$AAa?$AAn?$AAd?$AAi?$AAd@ 1009e530     solid:Convex.obj
 0002:000035d0       ??_C@_1BA@IGPGIBPA@?$AA?$CB?$AAe?$AAq?$AAz?$AA?$CI?$AAs?$AA?$CJ?$AA?$AA@ 1009e5d0     solid:Convex.obj
 0002:00003794       ??_7Polyhedron@@6B@        1009e794     solid:Polyhedron.obj
 0002:000037f8       ??_C@_1DA@JIKEAPDO@?$AAv?$AAe?$AAc?$AAt?$AAo?$AAr?$AA?5?$AAe?$AAm?$AAp?$AAt?$AAy?$AA?5?$AAb?$AAe?$AAf?$AAo?$AAr?$AAe?$AA?5?$AAp?$AAo?$AAp?$AA?$AA@ 1009e7f8     solid:RespTable.obj
 0002:00003828       ??_C@_1MK@JDIHKFIK@?$AAs?$AAt?$AAd?$AA?3?$AA?3?$AA_?$AAV?$AAe?$AAc?$AAt?$AAo?$AAr?$AA_?$AAc?$AAo?$AAn?$AAs?$AAt?$AA_?$AAi?$AAt?$AAe?$AAr?$AAa?$AAt?$AAo?$AAr?$AA?$DM?$AAc?$AAl?$AAa?$AAs@ 1009e828     solid:RespTable.obj
 0002:000038f8       ??_C@_1EM@FKAOCOMF@?$AAv?$AAe?$AAc?$AAt?$AAo?$AAr?$AA?5?$AAi?$AAt?$AAe?$AAr?$AAa?$AAt?$AAo?$AAr?$AA?5?$AA?$CL?$AA?5?$AAo?$AAf?$AAf?$AAs?$AAe?$AAt?$AA?5?$AAo?$AAu?$AAt?$AA?5?$AAo?$AAf?$AA?5@ 1009e8f8     solid:RespTable.obj
 0002:00003948       ??_C@_1MM@KOMNEHPI@?$AAs?$AAt?$AAd?$AA?3?$AA?3?$AA_?$AAV?$AAe?$AAc?$AAt?$AAo?$AAr?$AA_?$AAc?$AAo?$AAn?$AAs?$AAt?$AA_?$AAi?$AAt?$AAe?$AAr?$AAa?$AAt?$AAo?$AAr?$AA?$DM?$AAc?$AAl?$AAa?$AAs@ 1009e948     solid:RespTable.obj
 0002:00003a80       __real@404ca5dc1a63c1f8    1009ea80     sg_vs2008_32:sgd.obj
 0002:00003a88       __real@3f91df46a2529d39    1009ea88     sg_vs2008_32:sgd.obj
 0002:00003a90       __real@4022d97c7f3321d2    1009ea90     sg_vs2008_32:sgd.obj
 0002:00003a98       __real@400921fb54442d18    1009ea98     sg_vs2008_32:sgd.obj
 0002:00003aa0       __real@401921fb54442d18    1009eaa0     sg_vs2008_32:sgd.obj
 0002:00003aa8       __real@3ff921fb54442d18    1009eaa8     sg_vs2008_32:sgd.obj
 0002:00003ab0       __real@3fefffeb074a771d    1009eab0     sg_vs2008_32:sgd.obj
 0002:00003ab8       __real@bff921fb54442d18    1009eab8     sg_vs2008_32:sgd.obj
 0002:00003ac0       __real@bfefffeb074a771d    1009eac0     sg_vs2008_32:sgd.obj
 0002:00003ac8       ??_C@_0CL@MFADICKC@sgdGetAngleBetweenVectors?3?5Norma@ 1009eac8     sg_vs2008_32:sgd.obj
 0002:00003af8       __real@c000000000000000    1009eaf8     sg_vs2008_32:sgd.obj
 0002:00003b00       ??_C@_0ED@LKGOFPEJ@sgFrustum?3?5Can?8t?5support?5fields?5@ 1009eb00     sg_vs2008_32:sgd.obj
 0002:00003b44       ??_C@_0DF@MFOAFILF@sgFrustum?3?5Can?8t?5support?5width?5o@ 1009eb44     sg_vs2008_32:sgd.obj
 0002:00003b7c       ??_C@_0DE@FLABMHND@sgdFrustum?3?5Can?8t?5support?5depth?5@ 1009eb7c     sg_vs2008_32:sgd.obj
 0002:00003bb0       __real@bee4f8b588e368f1    1009ebb0     sg_vs2008_32:sgd.obj
 0002:00003bb8       ??_C@_0CE@HBHLABFJ@sgdMat4ToCoord?3?5ERROR?5?9?5Bad?5Matr@ 1009ebb8     sg_vs2008_32:sgd.obj
 0002:00003bdc       ??_C@_0CJ@BEEFNIHJ@sg?3?5ERROR?5?9?5Singular?5matrix?0?5no?5@ 1009ebdc     sg_vs2008_32:sgd.obj
 0002:00003c08       __real@3cb0000000000000    1009ec08     sg_vs2008_32:sgd.obj
 0002:00003c10       __real@c04ca5dc1a63c1f8    1009ec10     sg_vs2008_32:sgd.obj
 0002:00003c18       __real@3feffffde7210be9    1009ec18     sg_vs2008_32:sgd.obj
 0002:00003c20       __real@3eb0c6f7a0b5ed8d    1009ec20     sg_vs2008_32:sgd.obj
 0002:00003c28       __real@404e000000000000    1009ec28     sg_vs2008_32:sgd.obj
 0002:00003c30       __real@4056800000000000    1009ec30     sg_vs2008_32:sgd.obj
 0002:00003c40       __real@404ca5dc00000000    1009ec40     sg_vs2008_32:sg.obj
 0002:00003c48       __real@3f91df46a0000000    1009ec48     sg_vs2008_32:sg.obj
 0002:00003c50       __real@4022d97c80000000    1009ec50     sg_vs2008_32:sg.obj
 0002:00003c58       __real@400921fb60000000    1009ec58     sg_vs2008_32:sg.obj
 0002:00003c60       __real@401921fb60000000    1009ec60     sg_vs2008_32:sg.obj
 0002:00003c68       __real@3fc90fdb            1009ec68     sg_vs2008_32:sg.obj
 0002:00003c6c       __real@bfc90fdb            1009ec6c     sg_vs2008_32:sg.obj
 0002:00003c70       ??_C@_0CK@OJHHLHNC@sgGetAngleBetweenVectors?3?5Normal@ 1009ec70     sg_vs2008_32:sg.obj
 0002:00003c9c       ??_C@_0DD@OMGGIGK@sgFrustum?3?5Can?8t?5support?5depth?5o@ 1009ec9c     sg_vs2008_32:sg.obj
 0002:00003cd0       ??_C@_0CD@BHGGFOKB@sgMat4ToCoord?3?5ERROR?5?9?5Bad?5Matri@ 1009ecd0     sg_vs2008_32:sg.obj
 0002:00003cf4       __real@34000000            1009ecf4     sg_vs2008_32:sg.obj
 0002:00003cf8       __real@c04ca5dc00000000    1009ecf8     sg_vs2008_32:sg.obj
 0002:00003d00       __real@3feffffde0000000    1009ed00     sg_vs2008_32:sg.obj
 0002:00003d08       __real@42700000            1009ed08     sg_vs2008_32:sg.obj
 0002:00003d0c       __real@42b40000            1009ed0c     sg_vs2008_32:sg.obj
 0002:00003d10       ??_C@_05JLFELJNP@FATAL?$AA@ 1009ed10     ul_vs2008_32:ulError.obj
 0002:00003d18       ??_C@_07KCOHIFOP@WARNING?$AA@ 1009ed18     ul_vs2008_32:ulError.obj
 0002:00003d20       ??_C@_05KOLFGEDA@DEBUG?$AA@ 1009ed20     ul_vs2008_32:ulError.obj
 0002:00003d2c       ??_C@_07KJFPOMFC@?$CFs?3?5?$CFs?6?$AA@ 1009ed2c     ul_vs2008_32:ulError.obj
 0002:00003d34       ?_VBITS@?$vector@_NV?$allocator@_N@std@@@std@@2HB 1009ed34     libcpmtd:xthrow.obj
 0002:00003d38       ?value@?$integral_constant@H$0A@@std@@2HB 1009ed38     libcpmtd:xthrow.obj
 0002:00003d40       ?_Names@?$_Regex_traits@D@std@@0QBU?$_Cl_names@D@2@B 1009ed40     libcpmtd:xthrow.obj
 0002:00003e00       ??_C@_05IIMHCHIO@alnum?$AA@ 1009ee00     libcpmtd:xthrow.obj
 0002:00003e08       ??_C@_05IAEKHIAN@alpha?$AA@ 1009ee08     libcpmtd:xthrow.obj
 0002:00003e10       ??_C@_05BABJKOGB@blank?$AA@ 1009ee10     libcpmtd:xthrow.obj
 0002:00003e18       ??_C@_05JMDPEFNK@cntrl?$AA@ 1009ee18     libcpmtd:xthrow.obj
 0002:00003e20       ??_C@_01LPLHEDKD@d?$AA@    1009ee20     libcpmtd:xthrow.obj
 0002:00003e24       ??_C@_05ODNOIFML@digit?$AA@ 1009ee24     libcpmtd:xthrow.obj
 0002:00003e2c       ??_C@_05KCJBMLII@graph?$AA@ 1009ee2c     libcpmtd:xthrow.obj
 0002:00003e34       ??_C@_05IPJEPLHL@lower?$AA@ 1009ee34     libcpmtd:xthrow.obj
 0002:00003e3c       ??_C@_05IJDJACGD@print?$AA@ 1009ee3c     libcpmtd:xthrow.obj
 0002:00003e44       ??_C@_05KOBGHFJJ@punct?$AA@ 1009ee44     libcpmtd:xthrow.obj
 0002:00003e4c       ??_C@_05OLNILLAB@space?$AA@ 1009ee4c     libcpmtd:xthrow.obj
 0002:00003e54       ??_C@_01LKDEMHDF@s?$AA@    1009ee54     libcpmtd:xthrow.obj
 0002:00003e58       ??_C@_05NECKJAMC@upper?$AA@ 1009ee58     libcpmtd:xthrow.obj
 0002:00003e60       ??_C@_01NOFIACDB@w?$AA@    1009ee60     libcpmtd:xthrow.obj
 0002:00003e64       ??_C@_06BAPHGFFK@xdigit?$AA@ 1009ee64     libcpmtd:xthrow.obj
 0002:00003e70       ?_Names@?$_Regex_traits@_W@std@@0QBU?$_Cl_names@_W@2@B 1009ee70     libcpmtd:xthrow.obj
 0002:00003f30       ??_C@_1M@KLMEPMCM@?$AAa?$AAl?$AAn?$AAu?$AAm?$AA?$AA@ 1009ef30     libcpmtd:xthrow.obj
 0002:00003f3c       ??_C@_1M@DHGLHBMI@?$AAa?$AAl?$AAp?$AAh?$AAa?$AA?$AA@ 1009ef3c     libcpmtd:xthrow.obj
 0002:00003f48       ??_C@_1M@EJAAJBPE@?$AAb?$AAl?$AAa?$AAn?$AAk?$AA?$AA@ 1009ef48     libcpmtd:xthrow.obj
 0002:00003f54       ??_C@_1M@LMIMILA@?$AAc?$AAn?$AAt?$AAr?$AAl?$AA?$AA@ 1009ef54     libcpmtd:xthrow.obj
 0002:00003f60       ??_C@_13GKPPEALH@?$AAd?$AA?$AA@ 1009ef60     libcpmtd:xthrow.obj
 0002:00003f64       ??_C@_1M@JDAEIBKG@?$AAd?$AAi?$AAg?$AAi?$AAt?$AA?$AA@ 1009ef64     libcpmtd:xthrow.obj
 0002:00003f70       ??_C@_1M@MDKNJLLK@?$AAg?$AAr?$AAa?$AAp?$AAh?$AA?$AA@ 1009ef70     libcpmtd:xthrow.obj
 0002:00003f7c       ??_C@_1M@LGAECJJD@?$AAl?$AAo?$AAw?$AAe?$AAr?$AA?$AA@ 1009ef7c     libcpmtd:xthrow.obj
 0002:00003f88       ??_C@_1M@ELNLAPLA@?$AAp?$AAr?$AAi?$AAn?$AAt?$AA?$AA@ 1009ef88     libcpmtd:xthrow.obj
 0002:00003f94       ??_C@_1M@BPFMAOAO@?$AAp?$AAu?$AAn?$AAc?$AAt?$AA?$AA@ 1009ef94     libcpmtd:xthrow.obj
 0002:00003fa0       ??_C@_1M@LPGODFOM@?$AAs?$AAp?$AAa?$AAc?$AAe?$AA?$AA@ 1009efa0     libcpmtd:xthrow.obj
 0002:00003fac       ??_C@_13KHDBCPJB@?$AAs?$AA?$AA@ 1009efac     libcpmtd:xthrow.obj
 0002:00003fb0       ??_C@_1M@PLNFCNIC@?$AAu?$AAp?$AAp?$AAe?$AAr?$AA?$AA@ 1009efb0     libcpmtd:xthrow.obj
 0002:00003fbc       ??_C@_13CIFDLIMG@?$AAw?$AA?$AA@ 1009efbc     libcpmtd:xthrow.obj
 0002:00003fc0       ??_C@_1O@OAFMJDHN@?$AAx?$AAd?$AAi?$AAg?$AAi?$AAt?$AA?$AA@ 1009efc0     libcpmtd:xthrow.obj
 0002:00003fd4       ??_7bad_alloc@std@@6B@     1009efd4     libcpmtd:xthrow.obj
 0002:00003fdc       ??_C@_0P@GHFPNOJB@bad?5allocation?$AA@ 1009efdc     libcpmtd:xthrow.obj
 0002:00003ff0       ??_7logic_error@std@@6B@   1009eff0     libcpmtd:xthrow.obj
 0002:00003ffc       ??_7invalid_argument@std@@6B@ 1009effc     libcpmtd:xthrow.obj
 0002:00004008       ??_7length_error@std@@6B@  1009f008     libcpmtd:xthrow.obj
 0002:00004014       ??_7out_of_range@std@@6B@  1009f014     libcpmtd:xthrow.obj
 0002:00004020       ??_7runtime_error@std@@6B@ 1009f020     libcpmtd:xthrow.obj
 0002:0000402c       ??_7overflow_error@std@@6B@ 1009f02c     libcpmtd:xthrow.obj
 0002:00004038       ??_7bad_function_call@std@@6B@ 1009f038     libcpmtd:xthrow.obj
 0002:00004040       ??_C@_0BC@DPJNKNAF@bad?5function?5call?$AA@ 1009f040     libcpmtd:xthrow.obj
 0002:00004058       ??_7regex_error@std@@6B@   1009f058     libcpmtd:xthrow.obj
 0002:00004060       ??_C@_0FI@CMNGHIFF@regex_error?$CIerror_collate?$CJ?3?5The?5@ 1009f060     libcpmtd:xthrow.obj
 0002:000040b8       ??_C@_0FE@LJMHKIOC@regex_error?$CIerror_ctype?$CJ?3?5The?5ex@ 1009f0b8     libcpmtd:xthrow.obj
 0002:00004110       ??_C@_0GI@HEGGMMDL@regex_error?$CIerror_escape?$CJ?3?5The?5e@ 1009f110     libcpmtd:xthrow.obj
 0002:00004178       ??_C@_0FA@HFMLPGNN@regex_error?$CIerror_backref?$CJ?3?5The?5@ 1009f178     libcpmtd:xthrow.obj
 0002:000041c8       ??_C@_0EH@LGEANNAL@regex_error?$CIerror_brack?$CJ?3?5The?5ex@ 1009f1c8     libcpmtd:xthrow.obj
 0002:00004210       ??_C@_0EH@CAGOJGLE@regex_error?$CIerror_paren?$CJ?3?5The?5ex@ 1009f210     libcpmtd:xthrow.obj
 0002:00004258       ??_C@_0EH@DICJJKLO@regex_error?$CIerror_brace?$CJ?3?5The?5ex@ 1009f258     libcpmtd:xthrow.obj
 0002:000042a0       ??_C@_0FM@BLDIHIBB@regex_error?$CIerror_badbrace?$CJ?3?5The@ 1009f2a0     libcpmtd:xthrow.obj
 0002:00004300       ??_C@_0HA@ICNJLCMC@regex_error?$CIerror_range?$CJ?3?5The?5ex@ 1009f300     libcpmtd:xthrow.obj
 0002:00004370       ??_C@_0GP@PICOBCHA@regex_error?$CIerror_space?$CJ?3?5There?5@ 1009f370     libcpmtd:xthrow.obj
 0002:000043e0       ??_C@_0FK@LCHHHEOA@regex_error?$CIerror_badrepeat?$CJ?3?5On@ 1009f3e0     libcpmtd:xthrow.obj
 0002:00004440       ??_C@_0HL@NEKOFBJA@regex_error?$CIerror_complexity?$CJ?3?5T@ 1009f440     libcpmtd:xthrow.obj
 0002:000044c0       ??_C@_0JC@HCDLJLGO@regex_error?$CIerror_stack?$CJ?3?5There?5@ 1009f4c0     libcpmtd:xthrow.obj
 0002:00004554       ??_C@_0BJ@CHBLKGNM@regex_error?$CIerror_parse?$CJ?$AA@ 1009f554     libcpmtd:xthrow.obj
 0002:00004570       ??_C@_0BK@DFJCACNI@regex_error?$CIerror_syntax?$CJ?$AA@ 1009f570     libcpmtd:xthrow.obj
 0002:0000458c       ??_C@_0M@KGKAAGCA@regex_error?$AA@ 1009f58c     libcpmtd:xthrow.obj
 0002:00004598       ??_C@_1FO@BEGKGBFG@?$AAf?$AA?3?$AA?2?$AAd?$AAd?$AA?2?$AAv?$AAc?$AAt?$AAo?$AAo?$AAl?$AAs?$AA?2?$AAc?$AAr?$AAt?$AA_?$AAb?$AAl?$AAd?$AA?2?$AAs?$AAe?$AAl?$AAf?$AA_?$AAx?$AA8?$AA6?$AA?2?$AAc@ 1009f598     libcpmtd:xthrow.obj
 0002:00004ac8       ??_C@_0BC@CIJDGCDI@permission?5denied?$AA@ 1009fac8     libcpmtd:syserror.obj
 0002:00004adc       ??_C@_0M@MIDIAGJP@file?5exists?$AA@ 1009fadc     libcpmtd:syserror.obj
 0002:00004ae8       ??_C@_0P@FDINDDOK@no?5such?5device?$AA@ 1009fae8     libcpmtd:syserror.obj
 0002:00004af8       ??_C@_0BC@EJHOMAAK@filename?5too?5long?$AA@ 1009faf8     libcpmtd:syserror.obj
 0002:00004b0c       ??_C@_0BI@NGCEHDD@device?5or?5resource?5busy?$AA@ 1009fb0c     libcpmtd:syserror.obj
 0002:00004b24       ??_C@_08GLNPIFBN@io?5error?$AA@ 1009fb24     libcpmtd:syserror.obj
 0002:00004b30       ??_C@_0BE@JIDOCPHM@directory?5not?5empty?$AA@ 1009fb30     libcpmtd:syserror.obj
 0002:00004b44       ??_C@_0BB@FCMFBGOM@invalid?5argument?$AA@ 1009fb44     libcpmtd:syserror.obj
 0002:00004b58       ??_C@_0BD@IJDJKDEA@no?5space?5on?5device?$AA@ 1009fb58     libcpmtd:syserror.obj
 0002:00004b6c       ??_C@_0BK@NDOCBPGE@no?5such?5file?5or?5directory?$AA@ 1009fb6c     libcpmtd:syserror.obj
 0002:00004b88       ??_C@_0BH@KEFGLDAF@function?5not?5supported?$AA@ 1009fb88     libcpmtd:syserror.obj
 0002:00004ba0       ??_C@_0BC@NJECKMKE@no?5lock?5available?$AA@ 1009fba0     libcpmtd:syserror.obj
 0002:00004bb4       ??_C@_0BC@ENOOLCNF@not?5enough?5memory?$AA@ 1009fbb4     libcpmtd:syserror.obj
 0002:00004bc8       ??_C@_0BP@LKNGHENJ@resource?5unavailable?5try?5again?$AA@ 1009fbc8     libcpmtd:syserror.obj
 0002:00004be8       ??_C@_0BC@PPHBOELF@cross?5device?5link?$AA@ 1009fbe8     libcpmtd:syserror.obj
 0002:00004bfc       ??_C@_0BD@MOLBPMEA@operation?5canceled?$AA@ 1009fbfc     libcpmtd:syserror.obj
 0002:00004c10       ??_C@_0BE@GHAFMPAH@too?5many?5files?5open?$AA@ 1009fc10     libcpmtd:syserror.obj
 0002:00004c24       ??_C@_0BC@FNODOBAE@permission_denied?$AA@ 1009fc24     libcpmtd:syserror.obj
 0002:00004c38       ??_C@_0P@LNDJPBFK@address_in_use?$AA@ 1009fc38     libcpmtd:syserror.obj
 0002:00004c48       ??_C@_0BG@IPMGOJF@address_not_available?$AA@ 1009fc48     libcpmtd:syserror.obj
 0002:00004c60       ??_C@_0BN@LCBDHODA@address_family_not_supported?$AA@ 1009fc60     libcpmtd:syserror.obj
 0002:00004c80       ??_C@_0BP@FOJJHMCC@connection_already_in_progress?$AA@ 1009fc80     libcpmtd:syserror.obj
 0002:00004ca0       ??_C@_0BE@DLHHIBGN@bad_file_descriptor?$AA@ 1009fca0     libcpmtd:syserror.obj
 0002:00004cb4       ??_C@_0BD@OJMJDIGI@connection_aborted?$AA@ 1009fcb4     libcpmtd:syserror.obj
 0002:00004cc8       ??_C@_0BD@NGKCIFEP@connection_refused?$AA@ 1009fcc8     libcpmtd:syserror.obj
 0002:00004cdc       ??_C@_0BB@JOANDNCK@connection_reset?$AA@ 1009fcdc     libcpmtd:syserror.obj
 0002:00004cf0       ??_C@_0BN@JLJNLKLK@destination_address_required?$AA@ 1009fcf0     libcpmtd:syserror.obj
 0002:00004d10       ??_C@_0M@IJGMGFGP@bad_address?$AA@ 1009fd10     libcpmtd:syserror.obj
 0002:00004d1c       ??_C@_0BB@KKNHPPIN@host_unreachable?$AA@ 1009fd1c     libcpmtd:syserror.obj
 0002:00004d30       ??_C@_0BG@DJGBJIIK@operation_in_progress?$AA@ 1009fd30     libcpmtd:syserror.obj
 0002:00004d48       ??_C@_0M@EGEKIIMP@interrupted?$AA@ 1009fd48     libcpmtd:syserror.obj
 0002:00004d54       ??_C@_0BB@FFIHMIPJ@invalid_argument?$AA@ 1009fd54     libcpmtd:syserror.obj
 0002:00004d68       ??_C@_0BC@FIFLCHLO@already_connected?$AA@ 1009fd68     libcpmtd:syserror.obj
 0002:00004d7c       ??_C@_0BE@GJJJJDDA@too_many_files_open?$AA@ 1009fd7c     libcpmtd:syserror.obj
 0002:00004d90       ??_C@_0N@HPMLKHPL@message_size?$AA@ 1009fd90     libcpmtd:syserror.obj
 0002:00004da0       ??_C@_0BC@LEEIKBAL@filename_too_long?$AA@ 1009fda0     libcpmtd:syserror.obj
 0002:00004db4       ??_C@_0N@FCPALPJK@network_down?$AA@ 1009fdb4     libcpmtd:syserror.obj
 0002:00004dc4       ??_C@_0O@EHNDLHIG@network_reset?$AA@ 1009fdc4     libcpmtd:syserror.obj
 0002:00004dd4       ??_C@_0BE@JFNJIDNF@network_unreachable?$AA@ 1009fdd4     libcpmtd:syserror.obj
 0002:00004de8       ??_C@_0BA@FDIJKJCL@no_buffer_space?$AA@ 1009fde8     libcpmtd:syserror.obj
 0002:00004df8       ??_C@_0BD@JHIHCGKP@no_protocol_option?$AA@ 1009fdf8     libcpmtd:syserror.obj
 0002:00004e0c       ??_C@_0O@GBCLHHD@not_connected?$AA@ 1009fe0c     libcpmtd:syserror.obj
 0002:00004e1c       ??_C@_0N@IMHKKLEM@not_a_socket?$AA@ 1009fe1c     libcpmtd:syserror.obj
 0002:00004e2c       ??_C@_0BI@ICEIDKLJ@operation_not_supported?$AA@ 1009fe2c     libcpmtd:syserror.obj
 0002:00004e44       ??_C@_0BH@KAPBAIJF@protocol_not_supported?$AA@ 1009fe44     libcpmtd:syserror.obj
 0002:00004e5c       ??_C@_0BE@GAOJJFPC@wrong_protocol_type?$AA@ 1009fe5c     libcpmtd:syserror.obj
 0002:00004e70       ??_C@_09NCHNLHPG@timed_out?$AA@ 1009fe70     libcpmtd:syserror.obj
 0002:00004e7c       ??_C@_0BG@GDGHKFDH@operation_would_block?$AA@ 1009fe7c     libcpmtd:syserror.obj
 0002:00004e94       ??_C@_0BN@LKKBCCDB@address?5family?5not?5supported?$AA@ 1009fe94     libcpmtd:syserror.obj
 0002:00004eb4       ??_C@_0P@LDMLAFHI@address?5in?5use?$AA@ 1009feb4     libcpmtd:syserror.obj
 0002:00004ec4       ??_C@_0BG@DHPCNBJB@address?5not?5available?$AA@ 1009fec4     libcpmtd:syserror.obj
 0002:00004edc       ??_C@_0BC@DFIBIBIL@already?5connected?$AA@ 1009fedc     libcpmtd:syserror.obj
 0002:00004ef0       ??_C@_0BH@CAKOHOMI@argument?5list?5too?5long?$AA@ 1009fef0     libcpmtd:syserror.obj
 0002:00004f08       ??_C@_0BH@CGIMPKIM@argument?5out?5of?5domain?$AA@ 1009ff08     libcpmtd:syserror.obj
 0002:00004f20       ??_C@_0M@KGHGGJGL@bad?5address?$AA@ 1009ff20     libcpmtd:syserror.obj
 0002:00004f2c       ??_C@_0BE@MPJPGCEO@bad?5file?5descriptor?$AA@ 1009ff2c     libcpmtd:syserror.obj
 0002:00004f40       ??_C@_0M@PMMIEFCP@bad?5message?$AA@ 1009ff40     libcpmtd:syserror.obj
 0002:00004f4c       ??_C@_0M@KPHOFDBE@broken?5pipe?$AA@ 1009ff4c     libcpmtd:syserror.obj
 0002:00004f58       ??_C@_0BD@MGNDDEGM@connection?5aborted?$AA@ 1009ff58     libcpmtd:syserror.obj
 0002:00004f6c       ??_C@_0BP@KAIHPOGN@connection?5already?5in?5progress?$AA@ 1009ff6c     libcpmtd:syserror.obj
 0002:00004f8c       ??_C@_0BD@PJLIIJEL@connection?5refused?$AA@ 1009ff8c     libcpmtd:syserror.obj
 0002:00004fa0       ??_C@_0BB@IECNJNOI@connection?5reset?$AA@ 1009ffa0     libcpmtd:syserror.obj
 0002:00004fb4       ??_C@_0BN@KDMIFEIP@destination?5address?5required?$AA@ 1009ffb4     libcpmtd:syserror.obj
 0002:00004fd4       ??_C@_0BI@BNCLIGPB@executable?5format?5error?$AA@ 1009ffd4     libcpmtd:syserror.obj
 0002:00004fec       ??_C@_0P@DNAJLBJK@file?5too?5large?$AA@ 1009ffec     libcpmtd:syserror.obj
 0002:00004ffc       ??_C@_0BB@DHFDFGDM@host?5unreachable?$AA@ 1009fffc     libcpmtd:syserror.obj
 0002:00005010       ??_C@_0BD@JPHBMONG@identifier?5removed?$AA@ 100a0010     libcpmtd:syserror.obj
 0002:00005024       ??_C@_0BG@CDNPAGJK@illegal?5byte?5sequence?$AA@ 100a0024     libcpmtd:syserror.obj
 0002:0000503c       ??_C@_0CD@BNPLBMNA@inappropriate?5io?5control?5operati@ 100a003c     libcpmtd:syserror.obj
 0002:00005060       ??_C@_0N@OHAFKDEK@invalid?5seek?$AA@ 100a0060     libcpmtd:syserror.obj
 0002:00005070       ??_C@_0P@FLLDBIDK@is?5a?5directory?$AA@ 100a0070     libcpmtd:syserror.obj
 0002:00005080       ??_C@_0N@IFLPBIOP@message?5size?$AA@ 100a0080     libcpmtd:syserror.obj
 0002:00005090       ??_C@_0N@KIIEAAIO@network?5down?$AA@ 100a0090     libcpmtd:syserror.obj
 0002:000050a0       ??_C@_0O@FNPDBHEE@network?5reset?$AA@ 100a00a0     libcpmtd:syserror.obj
 0002:000050b0       ??_C@_0BE@IFNCKGE@network?5unreachable?$AA@ 100a00b0     libcpmtd:syserror.obj
 0002:000050c4       ??_C@_0BA@PFFCAOFK@no?5buffer?5space?$AA@ 100a00c4     libcpmtd:syserror.obj
 0002:000050d4       ??_C@_0BB@IEPBLJHK@no?5child?5process?$AA@ 100a00d4     libcpmtd:syserror.obj
 0002:000050e8       ??_C@_07PLECNNKG@no?5link?$AA@ 100a00e8     libcpmtd:syserror.obj
 0002:000050f0       ??_C@_0BF@PBGGPKKE@no?5message?5available?$AA@ 100a00f0     libcpmtd:syserror.obj
 0002:00005108       ??_C@_0L@EDOLMPAK@no?5message?$AA@ 100a0108     libcpmtd:syserror.obj
 0002:00005114       ??_C@_0BD@EAMBFIDF@no?5protocol?5option?$AA@ 100a0114     libcpmtd:syserror.obj
 0002:00005128       ??_C@_0BE@MKFDAFMP@no?5stream?5resources?$AA@ 100a0128     libcpmtd:syserror.obj
 0002:0000513c       ??_C@_0BK@IMCPHCBI@no?5such?5device?5or?5address?$AA@ 100a013c     libcpmtd:syserror.obj
 0002:00005158       ??_C@_0BA@ENLPPKBN@no?5such?5process?$AA@ 100a0158     libcpmtd:syserror.obj
 0002:00005168       ??_C@_0BA@DOCPFFJG@not?5a?5directory?$AA@ 100a0168     libcpmtd:syserror.obj
 0002:00005178       ??_C@_0N@POEIPGGF@not?5a?5socket?$AA@ 100a0178     libcpmtd:syserror.obj
 0002:00005188       ??_C@_0N@LGAPMMPI@not?5a?5stream?$AA@ 100a0188     libcpmtd:syserror.obj
 0002:00005198       ??_C@_0O@GLMIBBEG@not?5connected?$AA@ 100a0198     libcpmtd:syserror.obj
 0002:000051a8       ??_C@_0O@NHEDABJP@not?5supported?$AA@ 100a01a8     libcpmtd:syserror.obj
 0002:000051b8       ??_C@_0BG@KDKHOPCO@operation?5in?5progress?$AA@ 100a01b8     libcpmtd:syserror.obj
 0002:000051d0       ??_C@_0BI@OHIEJAAB@operation?5not?5permitted?$AA@ 100a01d0     libcpmtd:syserror.obj
 0002:000051e8       ??_C@_0BI@LNEGIFLN@operation?5not?5supported?$AA@ 100a01e8     libcpmtd:syserror.obj
 0002:00005200       ??_C@_0BG@OEMDKMEE@operation?5would?5block?$AA@ 100a0200     libcpmtd:syserror.obj
 0002:00005218       ??_C@_0L@BLPOFLNJ@owner?5dead?$AA@ 100a0218     libcpmtd:syserror.obj
 0002:00005224       ??_C@_0P@FNPOCJBE@protocol?5error?$AA@ 100a0224     libcpmtd:syserror.obj
 0002:00005234       ??_C@_0BH@JPPPLHJB@protocol?5not?5supported?$AA@ 100a0234     libcpmtd:syserror.obj
 0002:0000524c       ??_C@_0BG@EICBIHDP@read?5only?5file?5system?$AA@ 100a024c     libcpmtd:syserror.obj
 0002:00005264       ??_C@_0BO@BJBOMOEJ@resource?5deadlock?5would?5occur?$AA@ 100a0264     libcpmtd:syserror.obj
 0002:00005284       ??_C@_0BE@GOIPJJHG@result?5out?5of?5range?$AA@ 100a0284     libcpmtd:syserror.obj
 0002:00005298       ??_C@_0BG@MPLKFPAE@state?5not?5recoverable?$AA@ 100a0298     libcpmtd:syserror.obj
 0002:000052b0       ??_C@_0P@DIIFGFCG@stream?5timeout?$AA@ 100a02b0     libcpmtd:syserror.obj
 0002:000052c0       ??_C@_0P@IPFDMIFL@text?5file?5busy?$AA@ 100a02c0     libcpmtd:syserror.obj
 0002:000052d0       ??_C@_09KJPPMAOI@timed?5out?$AA@ 100a02d0     libcpmtd:syserror.obj
 0002:000052dc       ??_C@_0BO@HACHBEKI@too?5many?5files?5open?5in?5system?$AA@ 100a02dc     libcpmtd:syserror.obj
 0002:000052fc       ??_C@_0P@HCOMKFCC@too?5many?5links?$AA@ 100a02fc     libcpmtd:syserror.obj
 0002:0000530c       ??_C@_0BO@EFGOJEF@too?5many?5symbolic?5link?5levels?$AA@ 100a030c     libcpmtd:syserror.obj
 0002:0000532c       ??_C@_0BA@KGKGOOJA@value?5too?5large?$AA@ 100a032c     libcpmtd:syserror.obj
 0002:0000533c       ??_C@_0BE@MIEJDDNH@wrong?5protocol?5type?$AA@ 100a033c     libcpmtd:syserror.obj
 0002:00005350       __FPinit                   100a0350     LIBCMTD:fpinit.obj
 0002:00005354       ??_C@_1CC@MGIEJOME@?$AA?$CI?$AAf?$AAo?$AAr?$AAm?$AAa?$AAt?$AA?5?$AA?$CB?$AA?$DN?$AA?5?$AAN?$AAU?$AAL?$AAL?$AA?$CJ?$AA?$AA@ 100a0354     LIBCMTD:printf.obj
 0002:00005378       ??_C@_1GA@LHEGHOAF@?$AAf?$AA?3?$AA?2?$AAd?$AAd?$AA?2?$AAv?$AAc?$AAt?$AAo?$AAo?$AAl?$AAs?$AA?2?$AAc?$AAr?$AAt?$AA_?$AAb?$AAl?$AAd?$AA?2?$AAs?$AAe?$AAl?$AAf?$AA_?$AAx?$AA8?$AA6?$AA?2?$AAc@ 100a0378     LIBCMTD:printf.obj
 0002:000053d8       ??_C@_1O@GKDHFACN@?$AAp?$AAr?$AAi?$AAn?$AAt?$AAf?$AA?$AA@ 100a03d8     LIBCMTD:printf.obj
 0002:000053e8       ??_C@_1GC@BMNPEKNN@?$AAf?$AA?3?$AA?2?$AAd?$AAd?$AA?2?$AAv?$AAc?$AAt?$AAo?$AAo?$AAl?$AAs?$AA?2?$AAc?$AAr?$AAt?$AA_?$AAb?$AAl?$AAd?$AA?2?$AAs?$AAe?$AAl?$AAf?$AA_?$AAx?$AA8?$AA6?$AA?2?$AAc@ 100a03e8     LIBCMTD:snprintf.obj
 0002:0000544c       ??_C@_1BE@CHNFPLHD@?$AA_?$AAs?$AAn?$AAp?$AAr?$AAi?$AAn?$AAt?$AAf?$AA?$AA@ 100a044c     LIBCMTD:snprintf.obj
 0002:00005460       ??_C@_1EC@FABAOFFO@?$AA?$CI?$AAc?$AAo?$AAu?$AAn?$AAt?$AA?5?$AA?$DN?$AA?$DN?$AA?5?$AA0?$AA?$CJ?$AA?5?$AA?$HM?$AA?$HM?$AA?5?$AA?$CI?$AAs?$AAt?$AAr?$AAi?$AAn?$AAg?$AA?5?$AA?$CB?$AA?$DN?$AA?5?$AAN?$AAU?$AAL?$AAL?$AA?$CJ@ 100a0460     LIBCMTD:snprintf.obj
 0002:000054a4       __pRawDllMain              100a04a4     LIBCMTD:dllcrt0.obj
 0002:000054a4       __pDefaultRawDllMain       100a04a4     LIBCMTD:dllcrt0.obj
 0002:000054a8       ??_C@_0DB@OLNOAEGF@f?3?2dd?2vctools?2crt_bld?2self_x86?2c@ 100a04a8     LIBCMTD:dllcrt0.obj
 0002:000054e0       ??_C@_1EO@LHDAJOCM@?$AA_?$AAB?$AAL?$AAO?$AAC?$AAK?$AA_?$AAT?$AAY?$AAP?$AAE?$AA_?$AAI?$AAS?$AA_?$AAV?$AAA?$AAL?$AAI?$AAD?$AA?$CI?$AAp?$AAH?$AAe?$AAa?$AAd?$AA?9?$AA?$DO?$AAn?$AAB?$AAl?$AAo@ 100a04e0     LIBCMTD:dbgdel.obj
 0002:00005530       ??_C@_1GE@BDAODJCD@?$AAf?$AA?3?$AA?2?$AAd?$AAd?$AA?2?$AAv?$AAc?$AAt?$AAo?$AAo?$AAl?$AAs?$AA?2?$AAc?$AAr?$AAt?$AA_?$AAb?$AAl?$AAd?$AA?2?$AAs?$AAe?$AAl?$AAf?$AA_?$AAx?$AA8?$AA6?$AA?2?$AAc@ 100a0530     LIBCMTD:dbgdel.obj
 0002:00005594       ??_C@_0DA@HMCPFNKN@f?3?2dd?2vctools?2crt_bld?2self_x86?2c@ 100a0594     LIBCMTD:onexit.obj
 0002:000055c4       ?ProcessDetach@NativeDll@<CrtImplementationDetails>@@0IB 100a05c4     LIBCMTD:invarg.obj
 0002:000055c8       ?ProcessAttach@NativeDll@<CrtImplementationDetails>@@0IB 100a05c8     LIBCMTD:invarg.obj
 0002:000055cc       ?ThreadAttach@NativeDll@<CrtImplementationDetails>@@0IB 100a05cc     LIBCMTD:invarg.obj
 0002:000055d0       ?ThreadDetach@NativeDll@<CrtImplementationDetails>@@0IB 100a05d0     LIBCMTD:invarg.obj
 0002:000055d4       ?ProcessVerifier@NativeDll@<CrtImplementationDetails>@@0IB 100a05d4     LIBCMTD:invarg.obj
 0002:000055e4       ??_C@_1BA@GLMCNLEM@?$AAW?$AAa?$AAr?$AAn?$AAi?$AAn?$AAg?$AA?$AA@ 100a05e4     LIBCMTD:dbgrptw.obj
 0002:000055f4       ??_C@_1M@ILHOPKA@?$AAE?$AAr?$AAr?$AAo?$AAr?$AA?$AA@ 100a05f4     LIBCMTD:dbgrptw.obj
 0002:00005600       ??_C@_1CC@CGHMNGDG@?$AAA?$AAs?$AAs?$AAe?$AAr?$AAt?$AAi?$AAo?$AAn?$AA?5?$AAF?$AAa?$AAi?$AAl?$AAe?$AAd?$AA?$AA@ 100a0600     LIBCMTD:dbgrptw.obj
 0002:00005624       ??_C@_17LGKOMLJ@?$AA?4?$AA?4?$AA?4?$AA?$AA@ 100a0624     LIBCMTD:dbgrptw.obj
 0002:00005630       ??_C@_1HI@OFEHGPPC@?$AAm?$AAo?$AAd?$AAe?$AA?5?$AA?$DN?$AA?$DN?$AA?5?$AA_?$AAC?$AAR?$AAT?$AA_?$AAR?$AAP?$AAT?$AAH?$AAO?$AAO?$AAK?$AA_?$AAI?$AAN?$AAS?$AAT?$AAA?$AAL?$AAL?$AA?5?$AA?$HM?$AA?$HM?$AA?5@ 100a0630     LIBCMTD:dbgrptw.obj
 0002:000056a8       ??_C@_1GA@IBJGKIFE@?$AAf?$AA?3?$AA?2?$AAd?$AAd?$AA?2?$AAv?$AAc?$AAt?$AAo?$AAo?$AAl?$AAs?$AA?2?$AAc?$AAr?$AAt?$AA_?$AAb?$AAl?$AAd?$AA?2?$AAs?$AAe?$AAl?$AAf?$AA_?$AAx?$AA8?$AA6?$AA?2?$AAc@ 100a06a8     LIBCMTD:dbgrptw.obj
 0002:00005708       ??_C@_1CI@IIHEAKEI@?$AA_?$AAC?$AAr?$AAt?$AAS?$AAe?$AAt?$AAR?$AAe?$AAp?$AAo?$AAr?$AAt?$AAH?$AAo?$AAo?$AAk?$AAW?$AA2?$AA?$AA@ 100a0708     LIBCMTD:dbgrptw.obj
 0002:00005730       ??_C@_1CG@JBJEFOCM@?$AAp?$AAf?$AAn?$AAN?$AAe?$AAw?$AAH?$AAo?$AAo?$AAk?$AA?5?$AA?$CB?$AA?$DN?$AA?5?$AAN?$AAU?$AAL?$AAL?$AA?$AA@ 100a0730     LIBCMTD:dbgrptw.obj
 0002:00005758       ??_C@_1FI@PHIAFFHM@?$AA?$CI?$AA?$CC?$AAT?$AAh?$AAe?$AA?5?$AAh?$AAo?$AAo?$AAk?$AA?5?$AAf?$AAu?$AAn?$AAc?$AAt?$AAi?$AAo?$AAn?$AA?5?$AAi?$AAs?$AA?5?$AAn?$AAo?$AAt?$AA?5?$AAi?$AAn?$AA?5?$AAt?$AAh@ 100a0758     LIBCMTD:dbgrptw.obj
 0002:000057b0       ??_C@_0DA@PCCBBBID@f?3?2dd?2vctools?2crt_bld?2self_x86?2c@ 100a07b0     LIBCMTD:dbgrptw.obj
 0002:000057e0       ??_C@_1CI@PGJIFDEK@?$AA_?$AA_?$AAc?$AAr?$AAt?$AAM?$AAe?$AAs?$AAs?$AAa?$AAg?$AAe?$AAW?$AAi?$AAn?$AAd?$AAo?$AAw?$AAW?$AA?$AA@ 100a07e0     LIBCMTD:dbgrptw.obj
 0002:00005808       ??_C@_1GI@DEDNNLCI@?$AAw?$AAc?$AAs?$AAc?$AAp?$AAy?$AA_?$AAs?$AA?$CI?$AAs?$AAz?$AAE?$AAx?$AAe?$AAN?$AAa?$AAm?$AAe?$AA?0?$AA?5?$AA2?$AA6?$AA0?$AA?0?$AA?5?$AAL?$AA?$CC?$AA?$DM?$AAp?$AAr?$AAo?$AAg@ 100a0808     LIBCMTD:dbgrptw.obj
 0002:00005870       ??_C@_1CO@EAEJAADC@?$AA?$DM?$AAp?$AAr?$AAo?$AAg?$AAr?$AAa?$AAm?$AA?5?$AAn?$AAa?$AAm?$AAe?$AA?5?$AAu?$AAn?$AAk?$AAn?$AAo?$AAw?$AAn?$AA?$DO?$AA?$AA@ 100a0870     LIBCMTD:dbgrptw.obj
 0002:000058a0       ??_C@_1NO@LECLLHOL@?$AAm?$AAe?$AAm?$AAc?$AAp?$AAy?$AA_?$AAs?$AA?$CI?$AAs?$AAz?$AAS?$AAh?$AAo?$AAr?$AAt?$AAP?$AAr?$AAo?$AAg?$AAN?$AAa?$AAm?$AAe?$AA?0?$AA?5?$AAs?$AAi?$AAz?$AAe?$AAo?$AAf@ 100a08a0     LIBCMTD:dbgrptw.obj
 0002:00005980       ??_C@_1OG@PMPPFHAF@?$AA?6?$AA?6?$AAF?$AAo?$AAr?$AA?5?$AAi?$AAn?$AAf?$AAo?$AAr?$AAm?$AAa?$AAt?$AAi?$AAo?$AAn?$AA?5?$AAo?$AAn?$AA?5?$AAh?$AAo?$AAw?$AA?5?$AAy?$AAo?$AAu?$AAr?$AA?5?$AAp?$AAr@ 100a0980     LIBCMTD:dbgrptw.obj
 0002:00005a68       ??_C@_11LOCGONAA@?$AA?$AA@ 100a0a68     LIBCMTD:dbgrptw.obj
 0002:00005a6c       ??_C@_1BK@PEDCIPMA@?$AAE?$AAx?$AAp?$AAr?$AAe?$AAs?$AAs?$AAi?$AAo?$AAn?$AA?3?$AA?5?$AA?$AA@ 100a0a6c     LIBCMTD:dbgrptw.obj
 0002:00005a88       ??_C@_15IABLJNFO@?$AA?6?$AA?6?$AA?$AA@ 100a0a88     LIBCMTD:dbgrptw.obj
 0002:00005a90       ??_C@_1BA@GLLGCPCK@?$AA?6?$AAL?$AAi?$AAn?$AAe?$AA?3?$AA?5?$AA?$AA@ 100a0a90     LIBCMTD:dbgrptw.obj
 0002:00005aa0       ??_C@_1BA@LNHECFIM@?$AA?6?$AAF?$AAi?$AAl?$AAe?$AA?3?$AA?5?$AA?$AA@ 100a0aa0     LIBCMTD:dbgrptw.obj
 0002:00005ab0       ??_C@_1BE@CGCJKGHI@?$AA?6?$AAM?$AAo?$AAd?$AAu?$AAl?$AAe?$AA?3?$AA?5?$AA?$AA@ 100a0ab0     LIBCMTD:dbgrptw.obj
 0002:00005ac8       ??_C@_1KM@HNMIBKJH@?$AAD?$AAe?$AAb?$AAu?$AAg?$AA?5?$AA?$CF?$AAs?$AA?$CB?$AA?6?$AA?6?$AAP?$AAr?$AAo?$AAg?$AAr?$AAa?$AAm?$AA?3?$AA?5?$AA?$CF?$AAs?$AA?$CF?$AAs?$AA?$CF?$AAs?$AA?$CF?$AAs?$AA?$CF?$AAs?$AA?$CF?$AAs@ 100a0ac8     LIBCMTD:dbgrptw.obj
 0002:00005b74       ??_C@_1BI@KALLJECN@?$AA?$CI?$AA?$CK?$AA_?$AAe?$AAr?$AAr?$AAn?$AAo?$AA?$CI?$AA?$CJ?$AA?$CJ?$AA?$AA@ 100a0b74     LIBCMTD:dbgrptw.obj
 0002:00005b90       ??_C@_1JI@EACPGHID@?$AAw?$AAc?$AAs?$AAc?$AAp?$AAy?$AA_?$AAs?$AA?$CI?$AAs?$AAz?$AAO?$AAu?$AAt?$AAM?$AAe?$AAs?$AAs?$AAa?$AAg?$AAe?$AA?0?$AA?5?$AA4?$AA0?$AA9?$AA6?$AA?0?$AA?5?$AAL?$AA?$CC?$AA_@ 100a0b90     LIBCMTD:dbgrptw.obj
 0002:00005c28       ??_C@_1FG@BBOLDHGF@?$AA_?$AAC?$AAr?$AAt?$AAD?$AAb?$AAg?$AAR?$AAe?$AAp?$AAo?$AAr?$AAt?$AA?3?$AA?5?$AAS?$AAt?$AAr?$AAi?$AAn?$AAg?$AA?5?$AAt?$AAo?$AAo?$AA?5?$AAl?$AAo?$AAn?$AAg?$AA?5?$AAo@ 100a0c28     LIBCMTD:dbgrptw.obj
 0002:00005c80       ??_C@_1EK@MBDPDCGA@?$AAM?$AAi?$AAc?$AAr?$AAo?$AAs?$AAo?$AAf?$AAt?$AA?5?$AAV?$AAi?$AAs?$AAu?$AAa?$AAl?$AA?5?$AAC?$AA?$CL?$AA?$CL?$AA?5?$AAR?$AAu?$AAn?$AAt?$AAi?$AAm?$AAe?$AA?5?$AAL?$AAi?$AAb@ 100a0c80     LIBCMTD:dbgrptw.obj
 0002:00005cf0       ??_7type_info@@6B@         100a0cf0     LIBCMTD:typinfo.obj
 0002:00005cf4       ??_C@_13LBAGMAIH@?$AA?6?$AA?$AA@ 100a0cf4     LIBCMTD:wassert.obj
 0002:00005cf8       ??_C@_1GA@COEIABIF@?$AAf?$AA?3?$AA?2?$AAd?$AAd?$AA?2?$AAv?$AAc?$AAt?$AAo?$AAo?$AAl?$AAs?$AA?2?$AAc?$AAr?$AAt?$AA_?$AAb?$AAl?$AAd?$AA?2?$AAs?$AAe?$AAl?$AAf?$AA_?$AAx?$AA8?$AA6?$AA?2?$AAc@ 100a0cf8     LIBCMTD:wassert.obj
 0002:00005d58       ??_C@_1BC@LNOOMFNA@?$AA_?$AAw?$AAa?$AAs?$AAs?$AAe?$AAr?$AAt?$AA?$AA@ 100a0d58     LIBCMTD:wassert.obj
 0002:00005d70       ??_C@_1GM@PANFFKAD@?$AAw?$AAc?$AAs?$AAc?$AAp?$AAy?$AA_?$AAs?$AA?$CI?$AA?5?$AAa?$AAs?$AAs?$AAe?$AAr?$AAt?$AAb?$AAu?$AAf?$AA?0?$AA?5?$AA?$CI?$AA6?$AA4?$AA?5?$AA?$CK?$AA?5?$AA9?$AA?$CJ?$AA?0?$AA?5?$AAL@ 100a0d70     LIBCMTD:wassert.obj
 0002:00005ddc       ??_C@_1CE@OJBNHDMO@?$AAA?$AAs?$AAs?$AAe?$AAr?$AAt?$AAi?$AAo?$AAn?$AA?5?$AAf?$AAa?$AAi?$AAl?$AAe?$AAd?$AA?$CB?$AA?$AA@ 100a0ddc     LIBCMTD:wassert.obj
 0002:00005e00       ??_C@_1FI@OJONHFCN@?$AAw?$AAc?$AAs?$AAc?$AAa?$AAt?$AA_?$AAs?$AA?$CI?$AA?5?$AAa?$AAs?$AAs?$AAe?$AAr?$AAt?$AAb?$AAu?$AAf?$AA?0?$AA?5?$AA?$CI?$AA6?$AA4?$AA?5?$AA?$CK?$AA?5?$AA9?$AA?$CJ?$AA?0?$AA?5?$AAd@ 100a0e00     LIBCMTD:wassert.obj
 0002:00005e58       ??_C@_1FM@JONFCKBO@?$AAw?$AAc?$AAs?$AAc?$AAa?$AAt?$AA_?$AAs?$AA?$CI?$AA?5?$AAa?$AAs?$AAs?$AAe?$AAr?$AAt?$AAb?$AAu?$AAf?$AA?0?$AA?5?$AA?$CI?$AA6?$AA4?$AA?5?$AA?$CK?$AA?5?$AA9?$AA?$CJ?$AA?0?$AA?5?$AAL@ 100a0e58     LIBCMTD:wassert.obj
 0002:00005eb4       ??_C@_1BE@PHKBBGE@?$AAP?$AAr?$AAo?$AAg?$AAr?$AAa?$AAm?$AA?3?$AA?5?$AA?$AA@ 100a0eb4     LIBCMTD:wassert.obj
 0002:00005ec8       ??_C@_1HA@EPFCONEE@?$AAw?$AAc?$AAs?$AAc?$AAp?$AAy?$AA_?$AAs?$AA?$CI?$AA?5?$AAp?$AAr?$AAo?$AAg?$AAn?$AAa?$AAm?$AAe?$AA?0?$AA?5?$AA2?$AA6?$AA0?$AA?5?$AA?$CL?$AA?5?$AA1?$AA?0?$AA?5?$AAL?$AA?$CC?$AA?$DM@ 100a0ec8     LIBCMTD:wassert.obj
 0002:00005f38       ??_C@_1LK@LGFOFOMH@?$AAm?$AAe?$AAm?$AAc?$AAp?$AAy?$AA_?$AAs?$AA?$CI?$AAp?$AAc?$AAh?$AA?0?$AA?5?$AAs?$AAi?$AAz?$AAe?$AAo?$AAf?$AA?$CI?$AAT?$AAC?$AAH?$AAA?$AAR?$AA?$CJ?$AA?5?$AA?$CK?$AA?5?$AA?$CI?$AA?$CI@ 100a0f38     LIBCMTD:wassert.obj
 0002:00005ff8       ??_C@_1EK@BFAHOLDO@?$AAw?$AAc?$AAs?$AAc?$AAa?$AAt?$AA_?$AAs?$AA?$CI?$AA?5?$AAa?$AAs?$AAs?$AAe?$AAr?$AAt?$AAb?$AAu?$AAf?$AA?0?$AA?5?$AA?$CI?$AA6?$AA4?$AA?5?$AA?$CK?$AA?5?$AA9?$AA?$CJ?$AA?0?$AA?5?$AAp@ 100a0ff8     LIBCMTD:wassert.obj
 0002:00006048       ??_C@_1FC@GNPGDADJ@?$AAw?$AAc?$AAs?$AAc?$AAa?$AAt?$AA_?$AAs?$AA?$CI?$AA?5?$AAa?$AAs?$AAs?$AAe?$AAr?$AAt?$AAb?$AAu?$AAf?$AA?0?$AA?5?$AA?$CI?$AA6?$AA4?$AA?5?$AA?$CK?$AA?5?$AA9?$AA?$CJ?$AA?0?$AA?5?$AAn@ 100a1048     LIBCMTD:wassert.obj
 0002:000060a0       ??_C@_1FG@NHACFNEK@?$AAw?$AAc?$AAs?$AAc?$AAa?$AAt?$AA_?$AAs?$AA?$CI?$AA?5?$AAa?$AAs?$AAs?$AAe?$AAr?$AAt?$AAb?$AAu?$AAf?$AA?0?$AA?5?$AA?$CI?$AA6?$AA4?$AA?5?$AA?$CK?$AA?5?$AA9?$AA?$CJ?$AA?0?$AA?5?$AAL@ 100a10a0     LIBCMTD:wassert.obj
 0002:000060f8       ??_C@_1O@HEMHKNDC@?$AAF?$AAi?$AAl?$AAe?$AA?3?$AA?5?$AA?$AA@ 100a10f8     LIBCMTD:wassert.obj
 0002:00006108       ??_C@_1GG@PKOIFPHI@?$AAw?$AAc?$AAs?$AAn?$AAc?$AAa?$AAt?$AA_?$AAs?$AA?$CI?$AA?5?$AAa?$AAs?$AAs?$AAe?$AAr?$AAt?$AAb?$AAu?$AAf?$AA?0?$AA?5?$AA?$CI?$AA6?$AA4?$AA?5?$AA?$CK?$AA?5?$AA9?$AA?$CJ?$AA?0?$AA?5@ 100a1108     LIBCMTD:wassert.obj
 0002:00006170       ??_C@_1FG@PLMFGJFG@?$AAw?$AAc?$AAs?$AAc?$AAa?$AAt?$AA_?$AAs?$AA?$CI?$AA?5?$AAa?$AAs?$AAs?$AAe?$AAr?$AAt?$AAb?$AAu?$AAf?$AA?0?$AA?5?$AA?$CI?$AA6?$AA4?$AA?5?$AA?$CK?$AA?5?$AA9?$AA?$CJ?$AA?0?$AA?5?$AAd@ 100a1170     LIBCMTD:wassert.obj
 0002:000061c8       ??_C@_1FO@HPHMICDB@?$AAw?$AAc?$AAs?$AAc?$AAa?$AAt?$AA_?$AAs?$AA?$CI?$AA?5?$AAa?$AAs?$AAs?$AAe?$AAr?$AAt?$AAb?$AAu?$AAf?$AA?0?$AA?5?$AA?$CI?$AA6?$AA4?$AA?5?$AA?$CK?$AA?5?$AA9?$AA?$CJ?$AA?0?$AA?5?$AAp@ 100a11c8     LIBCMTD:wassert.obj
 0002:00006228       ??_C@_1GO@KNIHEHNA@?$AAw?$AAc?$AAs?$AAn?$AAc?$AAa?$AAt?$AA_?$AAs?$AA?$CI?$AA?5?$AAa?$AAs?$AAs?$AAe?$AAr?$AAt?$AAb?$AAu?$AAf?$AA?0?$AA?5?$AA?$CI?$AA6?$AA4?$AA?5?$AA?$CK?$AA?5?$AA9?$AA?$CJ?$AA?0?$AA?5@ 100a1228     LIBCMTD:wassert.obj
 0002:00006298       ??_C@_1HG@FHHFPPED@?$AAw?$AAc?$AAs?$AAn?$AAc?$AAa?$AAt?$AA_?$AAs?$AA?$CI?$AA?5?$AAa?$AAs?$AAs?$AAe?$AAr?$AAt?$AAb?$AAu?$AAf?$AA?0?$AA?5?$AA?$CI?$AA6?$AA4?$AA?5?$AA?$CK?$AA?5?$AA9?$AA?$CJ?$AA?0?$AA?5@ 100a1298     LIBCMTD:wassert.obj
 0002:00006310       ??_C@_1IC@JGCGJJHO@?$AAw?$AAc?$AAs?$AAc?$AAa?$AAt?$AA_?$AAs?$AA?$CI?$AA?5?$AAa?$AAs?$AAs?$AAe?$AAr?$AAt?$AAb?$AAu?$AAf?$AA?0?$AA?5?$AA?$CI?$AA6?$AA4?$AA?5?$AA?$CK?$AA?5?$AA9?$AA?$CJ?$AA?0?$AA?5?$AAp@ 100a1310     LIBCMTD:wassert.obj
 0002:00006398       ??_C@_1FE@NDOBOCBD@?$AAw?$AAc?$AAs?$AAc?$AAa?$AAt?$AA_?$AAs?$AA?$CI?$AA?5?$AAa?$AAs?$AAs?$AAe?$AAr?$AAt?$AAb?$AAu?$AAf?$AA?0?$AA?5?$AA?$CI?$AA6?$AA4?$AA?5?$AA?$CK?$AA?5?$AA9?$AA?$CJ?$AA?0?$AA?5?$AAf@ 100a1398     LIBCMTD:wassert.obj
 0002:000063f0       ??_C@_1FG@HLHNIBH@?$AAw?$AAc?$AAs?$AAc?$AAa?$AAt?$AA_?$AAs?$AA?$CI?$AA?5?$AAa?$AAs?$AAs?$AAe?$AAr?$AAt?$AAb?$AAu?$AAf?$AA?0?$AA?5?$AA?$CI?$AA6?$AA4?$AA?5?$AA?$CK?$AA?5?$AA9?$AA?$CJ?$AA?0?$AA?5?$AAL@ 100a13f0     LIBCMTD:wassert.obj
 0002:00006448       ??_C@_1O@KCAFKHJE@?$AAL?$AAi?$AAn?$AAe?$AA?3?$AA?5?$AA?$AA@ 100a1448     LIBCMTD:wassert.obj
 0002:00006458       ??_C@_1KG@NJJPHNOK@?$AA_?$AAi?$AAt?$AAo?$AAw?$AA_?$AAs?$AA?$CI?$AA?5?$AAl?$AAi?$AAn?$AAe?$AAn?$AAo?$AA?0?$AA?5?$AAa?$AAs?$AAs?$AAe?$AAr?$AAt?$AAb?$AAu?$AAf?$AA?5?$AA?$CL?$AA?5?$AAw?$AAc?$AAs@ 100a1458     LIBCMTD:wassert.obj
 0002:00006500       ??_C@_1GC@CFDADAM@?$AAw?$AAc?$AAs?$AAc?$AAa?$AAt?$AA_?$AAs?$AA?$CI?$AA?5?$AAa?$AAs?$AAs?$AAe?$AAr?$AAt?$AAb?$AAu?$AAf?$AA?0?$AA?5?$AA?$CI?$AA6?$AA4?$AA?5?$AA?$CK?$AA?5?$AA9?$AA?$CJ?$AA?0?$AA?5?$AAL@ 100a1500     LIBCMTD:wassert.obj
 0002:00006568       ??_C@_1CHM@HIHGOMKE@?$AAw?$AAc?$AAs?$AAn?$AAc?$AAa?$AAt?$AA_?$AAs?$AA?$CI?$AA?5?$AAa?$AAs?$AAs?$AAe?$AAr?$AAt?$AAb?$AAu?$AAf?$AA?0?$AA?5?$AA?$CI?$AA6?$AA4?$AA?5?$AA?$CK?$AA?5?$AA9?$AA?$CJ?$AA?0?$AA?5@ 100a1568     LIBCMTD:wassert.obj
 0002:000067e8       ??_C@_1EM@DAMJKKKC@?$AAw?$AAc?$AAs?$AAc?$AAa?$AAt?$AA_?$AAs?$AA?$CI?$AA?5?$AAa?$AAs?$AAs?$AAe?$AAr?$AAt?$AAb?$AAu?$AAf?$AA?0?$AA?5?$AA?$CI?$AA6?$AA4?$AA?5?$AA?$CK?$AA?5?$AA9?$AA?$CJ?$AA?0?$AA?5?$AAe@ 100a17e8     LIBCMTD:wassert.obj
 0002:00006838       ??_C@_1BCO@GAGHDLIF@?$AAw?$AAc?$AAs?$AAc?$AAa?$AAt?$AA_?$AAs?$AA?$CI?$AAa?$AAs?$AAs?$AAe?$AAr?$AAt?$AAb?$AAu?$AAf?$AA?0?$AA?5?$AA?$CI?$AA6?$AA4?$AA?5?$AA?$CK?$AA?5?$AA9?$AA?$CJ?$AA?0?$AA?5?$AAL?$AA?$CC@ 100a1838     LIBCMTD:wassert.obj
 0002:00006968       ??_C@_1OA@EGMLFBHJ@?$AAF?$AAo?$AAr?$AA?5?$AAi?$AAn?$AAf?$AAo?$AAr?$AAm?$AAa?$AAt?$AAi?$AAo?$AAn?$AA?5?$AAo?$AAn?$AA?5?$AAh?$AAo?$AAw?$AA?5?$AAy?$AAo?$AAu?$AAr?$AA?5?$AAp?$AAr?$AAo?$AAg@ 100a1968     LIBCMTD:wassert.obj
 0002:00006a48       ??_C@_1FG@IFIHHMNM@?$AAw?$AAc?$AAs?$AAc?$AAa?$AAt?$AA_?$AAs?$AA?$CI?$AAa?$AAs?$AAs?$AAe?$AAr?$AAt?$AAb?$AAu?$AAf?$AA?0?$AA?5?$AA?$CI?$AA6?$AA4?$AA?5?$AA?$CK?$AA?5?$AA9?$AA?$CJ?$AA?0?$AA?5?$AAd?$AAb@ 100a1a48     LIBCMTD:wassert.obj
 0002:00006aa0       ??_C@_1LO@CHAFGADE@?$AAw?$AAc?$AAs?$AAc?$AAa?$AAt?$AA_?$AAs?$AA?$CI?$AAa?$AAs?$AAs?$AAe?$AAr?$AAt?$AAb?$AAu?$AAf?$AA?0?$AA?5?$AA?$CI?$AA6?$AA4?$AA?5?$AA?$CK?$AA?5?$AA9?$AA?$CJ?$AA?0?$AA?5?$AAL?$AA?$CC@ 100a1aa0     LIBCMTD:wassert.obj
 0002:00006b60       ??_C@_1HK@POCJMFGK@?$AA?$CI?$AAP?$AAr?$AAe?$AAs?$AAs?$AA?5?$AAR?$AAe?$AAt?$AAr?$AAy?$AA?5?$AAt?$AAo?$AA?5?$AAd?$AAe?$AAb?$AAu?$AAg?$AA?5?$AAt?$AAh?$AAe?$AA?5?$AAa?$AAp?$AAp?$AAl?$AAi?$AAc@ 100a1b60     LIBCMTD:wassert.obj
 0002:00006bdc       ??_C@_1BI@BGOHAHKC@?$AAm?$AAs?$AAc?$AAo?$AAr?$AAe?$AAe?$AA?4?$AAd?$AAl?$AAl?$AA?$AA@ 100a1bdc     LIBCMTD:crt0dat.obj
 0002:00006bf4       ??_C@_0P@MIGLKIOC@CorExitProcess?$AA@ 100a1bf4     LIBCMTD:crt0dat.obj
 0002:00006c04       ??_C@_1BO@LKEBEKJP@?$AAp?$AAV?$AAa?$AAl?$AAu?$AAe?$AA?5?$AA?$CB?$AA?$DN?$AA?5?$AAN?$AAU?$AAL?$AAL?$AA?$AA@ 100a1c04     LIBCMTD:crt0dat.obj
 0002:00006c28       ??_C@_1GC@DGCPEDNJ@?$AAf?$AA?3?$AA?2?$AAd?$AAd?$AA?2?$AAv?$AAc?$AAt?$AAo?$AAo?$AAl?$AAs?$AA?2?$AAc?$AAr?$AAt?$AA_?$AAb?$AAl?$AAd?$AA?2?$AAs?$AAe?$AAl?$AAf?$AA_?$AAx?$AA8?$AA6?$AA?2?$AAc@ 100a1c28     LIBCMTD:crt0dat.obj
 0002:00006c8c       ??_C@_1BK@PNLDCCDP@?$AA_?$AAg?$AAe?$AAt?$AA_?$AAw?$AAp?$AAg?$AAm?$AAp?$AAt?$AAr?$AA?$AA@ 100a1c8c     LIBCMTD:crt0dat.obj
 0002:00006ca8       ??_C@_1CC@CDIPMFPD@?$AA_?$AAw?$AAp?$AAg?$AAm?$AAp?$AAt?$AAr?$AA?5?$AA?$CB?$AA?$DN?$AA?5?$AAN?$AAU?$AAL?$AAL?$AA?$AA@ 100a1ca8     LIBCMTD:crt0dat.obj
 0002:00006ccc       ??_C@_1BI@COAAPHJK@?$AA_?$AAg?$AAe?$AAt?$AA_?$AAp?$AAg?$AAm?$AAp?$AAt?$AAr?$AA?$AA@ 100a1ccc     LIBCMTD:crt0dat.obj
 0002:00006ce4       ??_C@_1CA@BBNAFCKO@?$AA_?$AAp?$AAg?$AAm?$AAp?$AAt?$AAr?$AA?5?$AA?$CB?$AA?$DN?$AA?5?$AAN?$AAU?$AAL?$AAL?$AA?$AA@ 100a1ce4     LIBCMTD:crt0dat.obj
 0002:00006d04       ??_C@_1BK@DJNILIMN@?$AAp?$AAa?$AAt?$AAh?$AA?5?$AA?$CB?$AA?$DN?$AA?5?$AAN?$AAU?$AAL?$AAL?$AA?$AA@ 100a1d04     LIBCMTD:crt0dat.obj
 0002:00006d20       ??_C@_1DG@KANBJOCK@?$AA_?$AA_?$AAc?$AAo?$AAp?$AAy?$AA_?$AAp?$AAa?$AAt?$AAh?$AA_?$AAt?$AAo?$AA_?$AAw?$AAi?$AAd?$AAe?$AA_?$AAs?$AAt?$AAr?$AAi?$AAn?$AAg?$AA?$AA@ 100a1d20     LIBCMTD:crt0dat.obj
 0002:00006d58       ??_C@_1CA@BGODLPHH@?$AAo?$AAu?$AAt?$AAP?$AAa?$AAt?$AAh?$AA?5?$AA?$CB?$AA?$DN?$AA?5?$AAN?$AAU?$AAL?$AAL?$AA?$AA@ 100a1d58     LIBCMTD:crt0dat.obj
 0002:00006d78       ??_C@_0DB@LJJKGJFF@f?3?2dd?2vctools?2crt_bld?2self_x86?2c@ 100a1d78     LIBCMTD:crt0dat.obj
 0002:00006dac       ??_C@_1BM@JMKHIAHP@?$AA?$CI?$AAs?$AAt?$AAr?$AA?5?$AA?$CB?$AA?$DN?$AA?5?$AAN?$AAU?$AAL?$AAL?$AA?$CJ?$AA?$AA@ 100a1dac     LIBCMTD:fprintf.obj
 0002:00006dc8       ??_C@_1GC@NHJDDBOH@?$AAf?$AA?3?$AA?2?$AAd?$AAd?$AA?2?$AAv?$AAc?$AAt?$AAo?$AAo?$AAl?$AAs?$AA?2?$AAc?$AAr?$AAt?$AA_?$AAb?$AAl?$AAd?$AA?2?$AAs?$AAe?$AAl?$AAf?$AA_?$AAx?$AA8?$AA6?$AA?2?$AAc@ 100a1dc8     LIBCMTD:fprintf.obj
 0002:00006e2c       ??_C@_1BA@DNOHIGNM@?$AAf?$AAp?$AAr?$AAi?$AAn?$AAt?$AAf?$AA?$AA@ 100a1e2c     LIBCMTD:fprintf.obj
 0002:00006e40       ??_C@_1BAA@ODEGEDCK@?$AA?$CI?$AA?5?$AA?$CI?$AA_?$AAS?$AAt?$AAr?$AAe?$AAa?$AAm?$AA?9?$AA?$DO?$AA_?$AAf?$AAl?$AAa?$AAg?$AA?5?$AA?$CG?$AA?5?$AA_?$AAI?$AAO?$AAS?$AAT?$AAR?$AAG?$AA?$CJ?$AA?5?$AA?$HM?$AA?$HM?$AA?5@ 100a1e40     LIBCMTD:fprintf.obj
 0002:00006f40       ??_C@_0CP@BNKDODJJ@f?3?2dd?2vctools?2crt_bld?2self_x86?2c@ 100a1f40     LIBCMTD:_file.obj
 0002:00006f70       ??_C@_1GE@DPADKNCG@?$AAf?$AA?3?$AA?2?$AAd?$AAd?$AA?2?$AAv?$AAc?$AAt?$AAo?$AAo?$AAl?$AAs?$AA?2?$AAc?$AAr?$AAt?$AA_?$AAb?$AAl?$AAd?$AA?2?$AAs?$AAe?$AAl?$AAf?$AA_?$AAx?$AA8?$AA6?$AA?2?$AAc@ 100a1f70     LIBCMTD:vsprintf.obj
 0002:00006fd4       ??_C@_1BI@IGILPKD@?$AA_?$AAv?$AAs?$AAp?$AAr?$AAi?$AAn?$AAt?$AAf?$AA_?$AAl?$AA?$AA@ 100a1fd4     LIBCMTD:vsprintf.obj
 0002:00006fec       ??_C@_1CC@OLIJCKA@?$AA?$CI?$AAs?$AAt?$AAr?$AAi?$AAn?$AAg?$AA?5?$AA?$CB?$AA?$DN?$AA?5?$AAN?$AAU?$AAL?$AAL?$AA?$CJ?$AA?$AA@ 100a1fec     LIBCMTD:vsprintf.obj
 0002:00007010       ??_C@_1CE@HMKDJHB@?$AA_?$AAv?$AAs?$AAc?$AAp?$AAr?$AAi?$AAn?$AAt?$AAf?$AA_?$AAh?$AAe?$AAl?$AAp?$AAe?$AAr?$AA?$AA@ 100a2010     LIBCMTD:vsprintf.obj
 0002:00007034       ??_C@_0CP@MKONOLCI@f?3?2dd?2vctools?2crt_bld?2self_x86?2c@ 100a2034     LIBCMTD:mlock.obj
 0002:00007068       ??_7exception@std@@6B@     100a2068     LIBCMTD:stdexcpt.obj
 0002:00007070       ??_C@_0BC@EOODALEL@Unknown?5exception?$AA@ 100a2070     LIBCMTD:stdexcpt.obj
 0002:00007088       ??_7bad_cast@std@@6B@      100a2088     LIBCMTD:stdexcpt.obj
 0002:00007094       ??_7bad_typeid@std@@6B@    100a2094     LIBCMTD:stdexcpt.obj
 0002:000070a0       ??_7__non_rtti_object@std@@6B@ 100a20a0     LIBCMTD:stdexcpt.obj
 0002:000070a8       ??_C@_1BK@MGMFAEKH@?$AAk?$AAe?$AAr?$AAn?$AAe?$AAl?$AA3?$AA2?$AA?4?$AAd?$AAl?$AAl?$AA?$AA@ 100a20a8     LIBCMTD:winapisupp.obj
 0002:000070c4       ??_C@_08KNHFBNJ@FlsAlloc?$AA@ 100a20c4     LIBCMTD:winapisupp.obj
 0002:000070d0       ??_C@_07PEJMOBNF@FlsFree?$AA@ 100a20d0     LIBCMTD:winapisupp.obj
 0002:000070d8       ??_C@_0M@GDNOONDI@FlsGetValue?$AA@ 100a20d8     LIBCMTD:winapisupp.obj
 0002:000070e4       ??_C@_0M@JCPCPOEF@FlsSetValue?$AA@ 100a20e4     LIBCMTD:winapisupp.obj
 0002:000070f0       ??_C@_0BM@HCFOFFN@InitializeCriticalSectionEx?$AA@ 100a20f0     LIBCMTD:winapisupp.obj
 0002:0000710c       ??_C@_0BD@KIEEOEEH@CreateSemaphoreExW?$AA@ 100a210c     LIBCMTD:winapisupp.obj
 0002:00007120       ??_C@_0BI@BKLFFAPO@SetThreadStackGuarantee?$AA@ 100a2120     LIBCMTD:winapisupp.obj
 0002:00007138       ??_C@_0BG@OGFAJCKC@CreateThreadpoolTimer?$AA@ 100a2138     LIBCMTD:winapisupp.obj
 0002:00007150       ??_C@_0BD@LPLEMMDI@SetThreadpoolTimer?$AA@ 100a2150     LIBCMTD:winapisupp.obj
 0002:00007164       ??_C@_0CA@FMNJENH@WaitForThreadpoolTimerCallbacks?$AA@ 100a2164     LIBCMTD:winapisupp.obj
 0002:00007184       ??_C@_0BF@DCFCCNOC@CloseThreadpoolTimer?$AA@ 100a2184     LIBCMTD:winapisupp.obj
 0002:0000719c       ??_C@_0BF@FLABGKKM@CreateThreadpoolWait?$AA@ 100a219c     LIBCMTD:winapisupp.obj
 0002:000071b4       ??_C@_0BC@MGCOHNA@SetThreadpoolWait?$AA@ 100a21b4     LIBCMTD:winapisupp.obj
 0002:000071c8       ??_C@_0BE@OCIOMIMP@CloseThreadpoolWait?$AA@ 100a21c8     LIBCMTD:winapisupp.obj
 0002:000071dc       ??_C@_0BJ@LKGHFHBO@FlushProcessWriteBuffers?$AA@ 100a21dc     LIBCMTD:winapisupp.obj
 0002:000071f8       ??_C@_0BP@KALKKPMO@FreeLibraryWhenCallbackReturns?$AA@ 100a21f8     LIBCMTD:winapisupp.obj
 0002:00007218       ??_C@_0BK@DFNBACLA@GetCurrentProcessorNumber?$AA@ 100a2218     LIBCMTD:winapisupp.obj
 0002:00007234       ??_C@_0BP@KHGALBC@GetLogicalProcessorInformation?$AA@ 100a2234     LIBCMTD:winapisupp.obj
 0002:00007254       ??_C@_0BE@FKKLLFLM@CreateSymbolicLinkW?$AA@ 100a2254     LIBCMTD:winapisupp.obj
 0002:00007268       ??_C@_0BJ@OHNKDLIJ@SetDefaultDllDirectories?$AA@ 100a2268     LIBCMTD:winapisupp.obj
 0002:00007284       ??_C@_0BE@LJANKFHF@EnumSystemLocalesEx?$AA@ 100a2284     LIBCMTD:winapisupp.obj
 0002:00007298       ??_C@_0BA@IHGNDAEB@CompareStringEx?$AA@ 100a2298     LIBCMTD:winapisupp.obj
 0002:000072a8       ??_C@_0BA@EPCJIIPD@GetDateFormatEx?$AA@ 100a22a8     LIBCMTD:winapisupp.obj
 0002:000072b8       ??_C@_0BA@ONOKGCMP@GetLocaleInfoEx?$AA@ 100a22b8     LIBCMTD:winapisupp.obj
 0002:000072c8       ??_C@_0BA@CIJJKCJJ@GetTimeFormatEx?$AA@ 100a22c8     LIBCMTD:winapisupp.obj
 0002:000072d8       ??_C@_0BJ@PBCCBIPI@GetUserDefaultLocaleName?$AA@ 100a22d8     LIBCMTD:winapisupp.obj
 0002:000072f4       ??_C@_0BC@CELBKLLA@IsValidLocaleName?$AA@ 100a22f4     LIBCMTD:winapisupp.obj
 0002:00007308       ??_C@_0O@KKBNKAPF@LCMapStringEx?$AA@ 100a2308     LIBCMTD:winapisupp.obj
 0002:00007318       ??_C@_0BE@JOGNEJCI@GetCurrentPackageId?$AA@ 100a2318     LIBCMTD:winapisupp.obj
 0002:00007330       __OP_ATAN2jmptab           100a2330     LIBCMTD:87triga.obj
 0002:000078b0       __infinity                 100a28b0     LIBCMTD:87tran.obj
 0002:000078ba       __minfinity                100a28ba     LIBCMTD:87tran.obj
 0002:000078c4       __logemax                  100a28c4     LIBCMTD:87tran.obj
 0002:000078ea       __OP_EXPjmptab             100a28ea     LIBCMTD:87tran.obj
 0002:0000790c       ??_C@_03KHJOGHMM@exp?$AA@  100a290c     LIBCMTD:fpexcept.obj
 0002:00007910       ??_C@_03JGHBODFD@pow?$AA@  100a2910     LIBCMTD:fpexcept.obj
 0002:00007914       ??_C@_03MGHMBJCF@log?$AA@  100a2914     LIBCMTD:fpexcept.obj
 0002:00007918       ??_C@_05HGHHAHAP@log10?$AA@ 100a2918     LIBCMTD:fpexcept.obj
 0002:00007920       ??_C@_04COOMCNPB@sinh?$AA@ 100a2920     LIBCMTD:fpexcept.obj
 0002:00007928       ??_C@_04HPJJNFIM@cosh?$AA@ 100a2928     LIBCMTD:fpexcept.obj
 0002:00007930       ??_C@_04FJHINJAO@tanh?$AA@ 100a2930     LIBCMTD:fpexcept.obj
 0002:00007938       ??_C@_04FIHNOPOL@asin?$AA@ 100a2938     LIBCMTD:fpexcept.obj
 0002:00007940       ??_C@_04PDIFKINK@acos?$AA@ 100a2940     LIBCMTD:fpexcept.obj
 0002:00007948       ??_C@_04MLLJIGOK@atan?$AA@ 100a2948     LIBCMTD:fpexcept.obj
 0002:00007950       ??_C@_05KNGEOGJB@atan2?$AA@ 100a2950     LIBCMTD:fpexcept.obj
 0002:00007958       ??_C@_04EIAKFFMI@sqrt?$AA@ 100a2958     LIBCMTD:fpexcept.obj
 0002:00007960       ??_C@_03BLEJJJBH@sin?$AA@  100a2960     LIBCMTD:fpexcept.obj
 0002:00007964       ??_C@_03LALBNOCG@cos?$AA@  100a2964     LIBCMTD:fpexcept.obj
 0002:00007968       ??_C@_03IIINPABG@tan?$AA@  100a2968     LIBCMTD:fpexcept.obj
 0002:0000796c       ??_C@_04GFPJNGEK@ceil?$AA@ 100a296c     LIBCMTD:fpexcept.obj
 0002:00007974       ??_C@_05PBJFFIGL@floor?$AA@ 100a2974     LIBCMTD:fpexcept.obj
 0002:0000797c       ??_C@_04ODHECPBC@fabs?$AA@ 100a297c     LIBCMTD:fpexcept.obj
 0002:00007984       ??_C@_04EHEDPDJG@modf?$AA@ 100a2984     LIBCMTD:fpexcept.obj
 0002:0000798c       ??_C@_05CEJMAHNP@ldexp?$AA@ 100a298c     LIBCMTD:fpexcept.obj
 0002:00007994       ??_C@_05KBKMEMPO@_cabs?$AA@ 100a2994     LIBCMTD:fpexcept.obj
 0002:0000799c       ??_C@_06MEIMCGCF@_hypot?$AA@ 100a299c     LIBCMTD:fpexcept.obj
 0002:000079a4       ??_C@_04KEPJIHGP@fmod?$AA@ 100a29a4     LIBCMTD:fpexcept.obj
 0002:000079ac       ??_C@_05GKKHEGJL@frexp?$AA@ 100a29ac     LIBCMTD:fpexcept.obj
 0002:000079b4       ??_C@_03MJLDFKDL@_y0?$AA@  100a29b4     LIBCMTD:fpexcept.obj
 0002:000079b8       ??_C@_03NAKIGLHK@_y1?$AA@  100a29b8     LIBCMTD:fpexcept.obj
 0002:000079bc       ??_C@_03ONILCKOB@_yn?$AA@  100a29bc     LIBCMTD:fpexcept.obj
 0002:000079c0       ??_C@_05JGDBENOH@_logb?$AA@ 100a29c0     LIBCMTD:fpexcept.obj
 0002:000079c8       ??_C@_0L@KDOEJCKC@_nextafter?$AA@ 100a29c8     LIBCMTD:fpexcept.obj
 0002:00008280       __indefinite               100a3280     LIBCMTD:87disp.obj
 0002:0000828a       __piby2                    100a328a     LIBCMTD:87disp.obj
 0002:000082b8       __DEFAULT_CW_in_mem        100a32b8     LIBCMTD:common.obj
 0002:000082ba       __pi_by_2_to_61            100a32ba     LIBCMTD:common.obj
 0002:00008390       ??_C@_0NN@NGPKDKPD@The?5value?5of?5ESP?5was?5not?5properl@ 100a3390     LIBCMTD:error.obj
 0002:00008470       ??_C@_0BBN@GPMLNJCF@A?5cast?5to?5a?5smaller?5data?5type?5ha@ 100a3470     LIBCMTD:error.obj
 0002:00008590       ??_C@_0BN@FFOINMNJ@Stack?5memory?5was?5corrupted?6?$AN?$AA@ 100a3590     LIBCMTD:error.obj
 0002:000085b0       ??_C@_0DG@HKJMLLLP@A?5local?5variable?5was?5used?5before@ 100a35b0     LIBCMTD:error.obj
 0002:000085e8       ??_C@_0CM@NGINOKPC@Stack?5memory?5around?5_alloca?5was?5@ 100a35e8     LIBCMTD:error.obj
 0002:00008614       ??_C@_0BO@GNIAFIKK@Unknown?5Runtime?5Check?5Error?6?$AN?$AA@ 100a3614     LIBCMTD:error.obj
 0002:00008638       ??_C@_1GM@OLMCBDMB@?$AAR?$AAu?$AAn?$AAt?$AAi?$AAm?$AAe?$AA?5?$AAC?$AAh?$AAe?$AAc?$AAk?$AA?5?$AAE?$AAr?$AAr?$AAo?$AAr?$AA?4?$AA?6?$AA?$AN?$AA?5?$AAU?$AAn?$AAa?$AAb?$AAl?$AAe?$AA?5?$AAt?$AAo@ 100a3638     LIBCMTD:error.obj
 0002:000086a8       ??_C@_1EA@NFKNIFJP@?$AAR?$AAu?$AAn?$AA?9?$AAT?$AAi?$AAm?$AAe?$AA?5?$AAC?$AAh?$AAe?$AAc?$AAk?$AA?5?$AAF?$AAa?$AAi?$AAl?$AAu?$AAr?$AAe?$AA?5?$AA?$CD?$AA?$CF?$AAd?$AA?5?$AA?9?$AA?5?$AA?$CF?$AAs?$AA?$AA@ 100a36a8     LIBCMTD:error.obj
 0002:000086e8       ??_C@_0BB@PFFGGCJP@Unknown?5Filename?$AA@ 100a36e8     LIBCMTD:error.obj
 0002:000086fc       ??_C@_0BE@GNBOBNCK@Unknown?5Module?5Name?$AA@ 100a36fc     LIBCMTD:error.obj
 0002:00008710       ??_C@_0CA@IODNCDPG@Run?9Time?5Check?5Failure?5?$CD?$CFd?5?9?5?$CFs?$AA@ 100a3710     LIBCMTD:error.obj
 0002:00008730       ??_C@_0CG@IAFNJNEE@Stack?5corrupted?5near?5unknown?5var@ 100a3730     LIBCMTD:error.obj
 0002:00008758       ??_C@_05MKKEDADM@?$CF?42X?5?$AA@ 100a3758     LIBCMTD:error.obj
 0002:00008760       ??_C@_1BG@OILDLIOJ@?$AAu?$AAs?$AAe?$AAr?$AA3?$AA2?$AA?4?$AAd?$AAl?$AAl?$AA?$AA@ 100a3760     LIBCMTD:error.obj
 0002:00008778       ??_C@_09FOPFMPEJ@wsprintfA?$AA@ 100a3778     LIBCMTD:error.obj
 0002:00008788       ??_C@_0EJ@LJKNEOLN@Stack?5area?5around?5_alloca?5memory@ 100a3788     LIBCMTD:error.obj
 0002:000087d4       ??_C@_08OMAHNMHJ@?6Data?3?5?$DM?$AA@ 100a37d4     LIBCMTD:error.obj
 0002:000087e0       ??_C@_0CK@DKGBICFE@?6Allocation?5number?5within?5this?5f@ 100a37e0     LIBCMTD:error.obj
 0002:0000880c       ??_C@_07DFDJCKFN@?6Size?3?5?$AA@ 100a380c     LIBCMTD:error.obj
 0002:00008814       ??_C@_0N@MHFFIMFG@?6Address?3?50x?$AA@ 100a3814     LIBCMTD:error.obj
 0002:00008828       ??_C@_0EI@CLEPFNGI@Stack?5area?5around?5_alloca?5memory@ 100a3828     LIBCMTD:error.obj
 0002:00008870       ??_C@_0BC@KIBAILCI@?$CFs?$CFs?$CFp?$CFs?$CFld?$CFs?$CFd?$CFs?$AA@ 100a3870     LIBCMTD:error.obj
 0002:00008884       ??_C@_01EEMJAFIK@?6?$AA@   100a3884     LIBCMTD:error.obj
 0002:00008888       ??_C@_02LLMPMKNF@?$DO?5?$AA@ 100a3888     LIBCMTD:error.obj
 0002:0000888c       ??_C@_08KJEDNCKC@?$CFs?$CFs?$CFs?$CFs?$AA@ 100a388c     LIBCMTD:error.obj
 0002:00008898       ??_C@_0DE@OHJBPMBP@A?5variable?5is?5being?5used?5without@ 100a3898     LIBCMTD:error.obj
 0002:000088e0       ??_C@_0BJ@HEGAHDFO@Stack?5pointer?5corruption?$AA@ 100a38e0     LIBCMTD:userapi.obj
 0002:000088fc       ??_C@_0CK@FEGOIOPB@Cast?5to?5smaller?5type?5causing?5los@ 100a38fc     LIBCMTD:userapi.obj
 0002:00008928       ??_C@_0BI@CIGMDCBH@Stack?5memory?5corruption?$AA@ 100a3928     LIBCMTD:userapi.obj
 0002:00008940       ??_C@_0CK@CNLNOEPB@Local?5variable?5used?5before?5initi@ 100a3940     LIBCMTD:userapi.obj
 0002:0000896c       ??_C@_0BP@OGBCLIBO@Stack?5around?5_alloca?5corrupted?$AA@ 100a396c     LIBCMTD:userapi.obj
 0002:00008990       ??_C@_0NM@DNEDKLDF@The?5value?5of?5ESP?5was?5not?5properl@ 100a3990     LIBCMTD:chkesp.obj
 0002:00008a6c       ??_C@_00CNPNBAHC@?$AA@     100a3a6c     LIBCMTD:chkesp.obj
 0002:00008a70       ??_C@_0DP@CBBAPGOP@f?3?2dd?2vctools?2crt_bld?2self_x86?2c@ 100a3a70     LIBCMTD:chkesp.obj
 0002:00008ab0       ??_C@_1BI@ICGGMGLK@?$AAb?$AAu?$AAf?$AA?5?$AA?$CB?$AA?$DN?$AA?5?$AAN?$AAU?$AAL?$AAL?$AA?$AA@ 100a3ab0     LIBCMTD:cvt.obj
 0002:00008ac8       ??_C@_1GO@NCCGBNKI@?$AAf?$AA?3?$AA?2?$AAd?$AAd?$AA?2?$AAv?$AAc?$AAt?$AAo?$AAo?$AAl?$AAs?$AA?2?$AAc?$AAr?$AAt?$AA_?$AAb?$AAl?$AAd?$AA?2?$AAs?$AAe?$AAl?$AAf?$AA_?$AAx?$AA8?$AA6?$AA?2?$AAc@ 100a3ac8     LIBCMTD:cvt.obj
 0002:00008b38       ??_C@_1BE@OLBNEILL@?$AA_?$AAc?$AAf?$AAt?$AAo?$AAe?$AA2?$AA_?$AAl?$AA?$AA@ 100a3b38     LIBCMTD:cvt.obj
 0002:00008b4c       ??_C@_1CA@CBMNPEO@?$AAs?$AAi?$AAz?$AAe?$AAI?$AAn?$AAB?$AAy?$AAt?$AAe?$AAs?$AA?5?$AA?$DO?$AA?5?$AA0?$AA?$AA@ 100a3b4c     LIBCMTD:cvt.obj
 0002:00008b70       ??_C@_1HE@NACBNDPP@?$AAs?$AAi?$AAz?$AAe?$AAI?$AAn?$AAB?$AAy?$AAt?$AAe?$AAs?$AA?5?$AA?$DO?$AA?5?$AA?$CI?$AAs?$AAi?$AAz?$AAe?$AA_?$AAt?$AA?$CJ?$AA?$CI?$AA3?$AA?5?$AA?$CL?$AA?5?$AA?$CI?$AAn?$AAd?$AAe?$AAc@ 100a3b70     LIBCMTD:cvt.obj
 0002:00008be8       ??_C@_1LE@EOIFGNCJ@?$AAs?$AAt?$AAr?$AAc?$AAp?$AAy?$AA_?$AAs?$AA?$CI?$AAp?$AA?0?$AA?5?$AA?$CI?$AAs?$AAi?$AAz?$AAe?$AAI?$AAn?$AAB?$AAy?$AAt?$AAe?$AAs?$AA?5?$AA?$DN?$AA?$DN?$AA?5?$AA?$CI?$AAs?$AAi?$AAz@ 100a3be8     LIBCMTD:cvt.obj
 0002:00008c9c       ??_C@_05KLBDPFGC@e?$CL000?$AA@ 100a3c9c     LIBCMTD:cvt.obj
 0002:00008ca4       ??_C@_1BC@INKAPMHI@?$AA_?$AAc?$AAf?$AAt?$AAo?$AAe?$AA_?$AAl?$AA?$AA@ 100a3ca4     LIBCMTD:cvt.obj
 0002:00008cb8       ??_C@_1BC@JOKPCIC@?$AA_?$AAc?$AAf?$AAt?$AAo?$AAa?$AA_?$AAl?$AA?$AA@ 100a3cb8     LIBCMTD:cvt.obj
 0002:00008cd0       ??_C@_1FC@IKIMAMJB@?$AAs?$AAi?$AAz?$AAe?$AAI?$AAn?$AAB?$AAy?$AAt?$AAe?$AAs?$AA?5?$AA?$DO?$AA?5?$AA?$CI?$AAs?$AAi?$AAz?$AAe?$AA_?$AAt?$AA?$CJ?$AA?$CI?$AA1?$AA?5?$AA?$CL?$AA?5?$AA4?$AA?5?$AA?$CL?$AA?5?$AAn@ 100a3cd0     LIBCMTD:cvt.obj
 0002:00008d24       ??_C@_1BE@CKPDLI@?$AA_?$AAc?$AAf?$AAt?$AAo?$AAf?$AA2?$AA_?$AAl?$AA?$AA@ 100a3d24     LIBCMTD:cvt.obj
 0002:00008d38       ??_C@_1BC@DCPPLJL@?$AA_?$AAc?$AAf?$AAt?$AAo?$AAf?$AA_?$AAl?$AA?$AA@ 100a3d38     LIBCMTD:cvt.obj
 0002:00008d4c       ??_C@_1BC@MPIFPLAF@?$AA_?$AAc?$AAf?$AAt?$AAo?$AAg?$AA_?$AAl?$AA?$AA@ 100a3d4c     LIBCMTD:cvt.obj
 0002:00008d60       ??_C@_1GG@PHGJJHBC@?$AAf?$AA?3?$AA?2?$AAd?$AAd?$AA?2?$AAv?$AAc?$AAt?$AAo?$AAo?$AAl?$AAs?$AA?2?$AAc?$AAr?$AAt?$AA_?$AAb?$AAl?$AAd?$AA?2?$AAs?$AAe?$AAl?$AAf?$AA_?$AAx?$AA8?$AA6?$AA?2?$AAc@ 100a3d60     LIBCMTD:fp8.obj
 0002:00008dc8       ??_C@_1CK@JMKHCBEI@?$AA_?$AAs?$AAe?$AAt?$AAd?$AAe?$AAf?$AAa?$AAu?$AAl?$AAt?$AAp?$AAr?$AAe?$AAc?$AAi?$AAs?$AAi?$AAo?$AAn?$AA?$AA@ 100a3dc8     LIBCMTD:fp8.obj
 0002:00008df8       ??_C@_1GE@KOCFNGPB@?$AA_?$AAc?$AAo?$AAn?$AAt?$AAr?$AAo?$AAl?$AAf?$AAp?$AA_?$AAs?$AA?$CI?$AA?$CI?$AA?$CI?$AAv?$AAo?$AAi?$AAd?$AA?5?$AA?$CK?$AA?$CJ?$AA0?$AA?$CJ?$AA?0?$AA?5?$AA0?$AAx?$AA0?$AA0?$AA0?$AA1@ 100a3df8     LIBCMTD:fp8.obj
 0002:00008e60       ??_C@_1GC@DHFFJKMC@?$AAf?$AA?3?$AA?2?$AAd?$AAd?$AA?2?$AAv?$AAc?$AAt?$AAo?$AAo?$AAl?$AAs?$AA?2?$AAc?$AAr?$AAt?$AA_?$AAb?$AAl?$AAd?$AA?2?$AAs?$AAe?$AAl?$AAf?$AA_?$AAx?$AA8?$AA6?$AA?2?$AAc@ 100a3e60     LIBCMTD:vprintf.obj
 0002:00008ec4       ??_C@_1BO@JGFPDJCP@?$AAv?$AAp?$AAr?$AAi?$AAn?$AAt?$AAf?$AA_?$AAh?$AAe?$AAl?$AAp?$AAe?$AAr?$AA?$AA@ 100a3ec4     LIBCMTD:vprintf.obj
 0002:00008ee4       ??_C@_1BI@MFCLPIBM@?$AAs?$AAt?$AAr?$AA?5?$AA?$CB?$AA?$DN?$AA?5?$AAN?$AAU?$AAL?$AAL?$AA?$AA@ 100a3ee4     LIBCMTD:_sftbuf.obj
 0002:00008f00       ??_C@_1GC@DGAFOCMO@?$AAf?$AA?3?$AA?2?$AAd?$AAd?$AA?2?$AAv?$AAc?$AAt?$AAo?$AAo?$AAl?$AAs?$AA?2?$AAc?$AAr?$AAt?$AA_?$AAb?$AAl?$AAd?$AA?2?$AAs?$AAe?$AAl?$AAf?$AA_?$AAx?$AA8?$AA6?$AA?2?$AAc@ 100a3f00     LIBCMTD:_sftbuf.obj
 0002:00008f64       ??_C@_0DB@OLNNDFNH@f?3?2dd?2vctools?2crt_bld?2self_x86?2c@ 100a3f64     LIBCMTD:_sftbuf.obj
 0002:00008f98       ??_C@_1CO@KCKAACMI@?$AAf?$AAl?$AAa?$AAg?$AA?5?$AA?$DN?$AA?$DN?$AA?5?$AA0?$AA?5?$AA?$HM?$AA?$HM?$AA?5?$AAf?$AAl?$AAa?$AAg?$AA?5?$AA?$DN?$AA?$DN?$AA?5?$AA1?$AA?$AA@ 100a3f98     LIBCMTD:_sftbuf.obj
 0002:00008fc8       ??_C@_06OJHGLDPL@?$CInull?$CJ?$AA@ 100a3fc8     LIBCMTD:output.obj
 0002:00008fd0       ??_C@_1O@CEDCILHN@?$AA?$CI?$AAn?$AAu?$AAl?$AAl?$AA?$CJ?$AA?$AA@ 100a3fd0     LIBCMTD:output.obj
 0002:00008fe0       ___lookuptable             100a3fe0     LIBCMTD:output.obj
 0002:0000903c       ??_C@_1CC@FADMNIL@?$AA?$CI?$AAs?$AAt?$AAr?$AAe?$AAa?$AAm?$AA?5?$AA?$CB?$AA?$DN?$AA?5?$AAN?$AAU?$AAL?$AAL?$AA?$CJ?$AA?$AA@ 100a403c     LIBCMTD:output.obj
 0002:00009060       ??_C@_1GA@HHFOFBLN@?$AAf?$AA?3?$AA?2?$AAd?$AAd?$AA?2?$AAv?$AAc?$AAt?$AAo?$AAo?$AAl?$AAs?$AA?2?$AAc?$AAr?$AAt?$AA_?$AAb?$AAl?$AAd?$AA?2?$AAs?$AAe?$AAl?$AAf?$AA_?$AAx?$AA8?$AA6?$AA?2?$AAc@ 100a4060     LIBCMTD:output.obj
 0002:000090c0       ??_C@_1BE@IONLIDNC@?$AA_?$AAo?$AAu?$AAt?$AAp?$AAu?$AAt?$AA_?$AAl?$AA?$AA@ 100a40c0     LIBCMTD:output.obj
 0002:000090d4       ??_C@_1CC@IFFHEMNF@?$AA?$CI?$AAc?$AAh?$AA?5?$AA?$CB?$AA?$DN?$AA?5?$AA_?$AAT?$AA?$CI?$AA?8?$AA?2?$AA0?$AA?8?$AA?$CJ?$AA?$CJ?$AA?$AA@ 100a40d4     LIBCMTD:output.obj
 0002:000090f8       ??_C@_1EK@PNGFDECN@?$AA?$CI?$AA?$CC?$AA?8?$AAn?$AA?8?$AA?5?$AAf?$AAo?$AAr?$AAm?$AAa?$AAt?$AA?5?$AAs?$AAp?$AAe?$AAc?$AAi?$AAf?$AAi?$AAe?$AAr?$AA?5?$AAd?$AAi?$AAs?$AAa?$AAb?$AAl?$AAe?$AAd?$AA?$CC@ 100a40f8     LIBCMTD:output.obj
 0002:00009144       ??_C@_0DA@NFBEBPEE@f?3?2dd?2vctools?2crt_bld?2self_x86?2c@ 100a4144     LIBCMTD:output.obj
 0002:00009178       ??_C@_1GA@MFGIMPNL@?$AAf?$AA?3?$AA?2?$AAd?$AAd?$AA?2?$AAv?$AAc?$AAt?$AAo?$AAo?$AAl?$AAs?$AA?2?$AAc?$AAr?$AAt?$AA_?$AAb?$AAl?$AAd?$AA?2?$AAs?$AAe?$AAl?$AAf?$AA_?$AAx?$AA8?$AA6?$AA?2?$AAc@ 100a4178     LIBCMTD:dosmap.obj
 0002:000091d8       ??_C@_1BG@KCMPBBDK@?$AA_?$AAg?$AAe?$AAt?$AA_?$AAe?$AAr?$AAr?$AAn?$AAo?$AA?$AA@ 100a41d8     LIBCMTD:dosmap.obj
 0002:000091f0       ??_C@_1BM@INIPHHDD@?$AA_?$AAg?$AAe?$AAt?$AA_?$AAd?$AAo?$AAs?$AAe?$AAr?$AAr?$AAn?$AAo?$AA?$AA@ 100a41f0     LIBCMTD:dosmap.obj
 0002:00009ac8       ??_C@_1GC@GNCCMPNN@?$AAf?$AA?3?$AA?2?$AAd?$AAd?$AA?2?$AAv?$AAc?$AAt?$AAo?$AAo?$AAl?$AAs?$AA?2?$AAc?$AAr?$AAt?$AA_?$AAb?$AAl?$AAd?$AA?2?$AAs?$AAe?$AAl?$AAf?$AA_?$AAx?$AA8?$AA6?$AA?2?$AAc@ 100a4ac8     LIBCMTD:_flsbuf.obj
 0002:00009b30       ??_C@_1HO@MLMGPAFH@?$AA?$CI?$AA?$CC?$AAi?$AAn?$AAc?$AAo?$AAn?$AAs?$AAi?$AAs?$AAt?$AAe?$AAn?$AAt?$AA?5?$AAI?$AAO?$AAB?$AA?5?$AAf?$AAi?$AAe?$AAl?$AAd?$AAs?$AA?$CC?$AA?0?$AA?5?$AAs?$AAt?$AAr?$AAe@ 100a4b30     LIBCMTD:_flsbuf.obj
 0002:00009bb0       ??_C@_1BK@FHMHFMNL@?$AA_?$AAv?$AAs?$AAn?$AAp?$AAr?$AAi?$AAn?$AAt?$AAf?$AA_?$AAl?$AA?$AA@ 100a4bb0     LIBCMTD:vsnprint.obj
 0002:00009bcc       ??_C@_0DC@LMJHGCKC@f?3?2dd?2vctools?2crt_bld?2self_x86?2c@ 100a4bcc     LIBCMTD:tidtable.obj
 0002:0000d4d0       __XcptActTab               100a84d0     LIBCMTD:winxfltr.obj
 0002:0000d560       __XcptActTabCount          100a8560     LIBCMTD:winxfltr.obj
 0002:0000d564       __XcptActTabSize           100a8564     LIBCMTD:winxfltr.obj
 0002:0000d568       __First_FPE_Indx           100a8568     LIBCMTD:winxfltr.obj
 0002:0000d56c       __Num_FPE                  100a856c     LIBCMTD:winxfltr.obj
 0002:0000d570       ??_C@_1BC@DENNNKIM@?$AA_?$AAc?$AAr?$AAt?$AAh?$AAe?$AAa?$AAp?$AA?$AA@ 100a8570     LIBCMTD:heapinit.obj
 0002:0000d588       ??_C@_1GE@JDDMFOID@?$AAf?$AA?3?$AA?2?$AAd?$AAd?$AA?2?$AAv?$AAc?$AAt?$AAo?$AAo?$AAl?$AAs?$AA?2?$AAc?$AAr?$AAt?$AA_?$AAb?$AAl?$AAd?$AA?2?$AAs?$AAe?$AAl?$AAf?$AA_?$AAx?$AA8?$AA6?$AA?2?$AAc@ 100a8588     LIBCMTD:heapinit.obj
 0002:0000d5ec       ??_C@_0DA@NBLAKPEL@f?3?2dd?2vctools?2crt_bld?2self_x86?2c@ 100a85ec     LIBCMTD:ioinit.obj
 0002:0000d61c       ??_C@_0DB@OEPBJOLC@f?3?2dd?2vctools?2crt_bld?2self_x86?2c@ 100a861c     LIBCMTD:stdargv.obj
 0002:0000d650       ??_C@_0DB@BMEBJJKP@f?3?2dd?2vctools?2crt_bld?2self_x86?2c@ 100a8650     LIBCMTD:stdenvp.obj
 0002:0000d688       ??_C@_1GC@DGBFLDBN@?$AAf?$AA?3?$AA?2?$AAd?$AAd?$AA?2?$AAv?$AAc?$AAt?$AAo?$AAo?$AAl?$AAs?$AA?2?$AAc?$AAr?$AAt?$AA_?$AAb?$AAl?$AAd?$AA?2?$AAs?$AAe?$AAl?$AAf?$AA_?$AAx?$AA8?$AA6?$AA?2?$AAc@ 100a8688     LIBCMTD:stdenvp.obj
 0002:0000d6ec       ??_C@_1BC@GHMCNHHL@?$AA_?$AAs?$AAe?$AAt?$AAe?$AAn?$AAv?$AAp?$AA?$AA@ 100a86ec     LIBCMTD:stdenvp.obj
 0002:0000d700       ??_C@_1DE@MMOGFGHF@?$AAs?$AAt?$AAr?$AAc?$AAp?$AAy?$AA_?$AAs?$AA?$CI?$AA?$CK?$AAe?$AAn?$AAv?$AA?0?$AA?5?$AAc?$AAc?$AAh?$AAa?$AAr?$AAs?$AA?0?$AA?5?$AAp?$AA?$CJ?$AA?$AA@ 100a8700     LIBCMTD:stdenvp.obj
 0002:0000d748       ??_C@_04HJMOFLDF@Free?$AA@ 100a8748     LIBCMTD:dbgheap.obj
 0002:0000d750       ??_C@_06EFAGIKOH@Normal?$AA@ 100a8750     LIBCMTD:dbgheap.obj
 0002:0000d758       ??_C@_03OGPFLFLO@CRT?$AA@  100a8758     LIBCMTD:dbgheap.obj
 0002:0000d75c       ??_C@_06KMEJCCGM@Ignore?$AA@ 100a875c     LIBCMTD:dbgheap.obj
 0002:0000d764       ??_C@_06PJIGMIJB@Client?$AA@ 100a8764     LIBCMTD:dbgheap.obj
 0002:0000d76c       ??_C@_1CE@LJFEPPMP@?$AA_?$AAC?$AAr?$AAt?$AAC?$AAh?$AAe?$AAc?$AAk?$AAM?$AAe?$AAm?$AAo?$AAr?$AAy?$AA?$CI?$AA?$CJ?$AA?$AA@ 100a876c     LIBCMTD:dbgheap.obj
 0002:0000d790       ??_C@_1GC@DNJKKEAA@?$AAf?$AA?3?$AA?2?$AAd?$AAd?$AA?2?$AAv?$AAc?$AAt?$AAo?$AAo?$AAl?$AAs?$AA?2?$AAc?$AAr?$AAt?$AA_?$AAb?$AAl?$AAd?$AA?2?$AAs?$AAe?$AAl?$AAf?$AA_?$AAx?$AA8?$AA6?$AA?2?$AAc@ 100a8790     LIBCMTD:dbgheap.obj
 0002:0000d7f4       ??_C@_0DF@BBEGIFEK@Client?5hook?5allocation?5failure?5a@ 100a87f4     LIBCMTD:dbgheap.obj
 0002:0000d82c       ??_C@_0CB@CCLOLAHO@Client?5hook?5allocation?5failure?4?6@ 100a882c     LIBCMTD:dbgheap.obj
 0002:0000d850       ??_C@_02DKCKIIND@?$CFs?$AA@ 100a8850     LIBCMTD:dbgheap.obj
 0002:0000d854       ??_C@_0CF@BICKFLAF@Invalid?5allocation?5size?3?5?$CFIu?5byt@ 100a8854     LIBCMTD:dbgheap.obj
 0002:0000d87c       ??_C@_0DC@JEMAGEKG@Error?3?5memory?5allocation?3?5bad?5me@ 100a887c     LIBCMTD:dbgheap.obj
 0002:0000d8b0       ??_C@_0DI@KKJPDPGM@Client?5hook?5re?9allocation?5failur@ 100a88b0     LIBCMTD:dbgheap.obj
 0002:0000d8e8       ??_C@_0CE@DOFMDOL@Client?5hook?5re?9allocation?5failur@ 100a88e8     LIBCMTD:dbgheap.obj
 0002:0000d910       ??_C@_0ED@GPCPBAGP@Invalid?5allocation?5size?3?5?$CFIu?5byt@ 100a8910     LIBCMTD:dbgheap.obj
 0002:0000d958       ??_C@_0FA@EFEIGJKG@Error?3?5memory?5allocation?3?5bad?5me@ 100a8958     LIBCMTD:dbgheap.obj
 0002:0000d9a8       ??_C@_0EM@LGFLMAGJ@The?5Block?5at?50x?$CFp?5was?5allocated?5@ 100a89a8     LIBCMTD:dbgheap.obj
 0002:0000d9f8       ??_C@_1EE@GFOPCECE@?$AA_?$AAC?$AAr?$AAt?$AAI?$AAs?$AAV?$AAa?$AAl?$AAi?$AAd?$AAH?$AAe?$AAa?$AAp?$AAP?$AAo?$AAi?$AAn?$AAt?$AAe?$AAr?$AA?$CI?$AAp?$AAU?$AAs?$AAe?$AAr?$AAD?$AAa?$AAt?$AAa@ 100a89f8     LIBCMTD:dbgheap.obj
 0002:0000da40       ??_C@_1IK@DCPKDGNH@?$AAp?$AAO?$AAl?$AAd?$AAB?$AAl?$AAo?$AAc?$AAk?$AA?9?$AA?$DO?$AAn?$AAL?$AAi?$AAn?$AAe?$AA?5?$AA?$DN?$AA?$DN?$AA?5?$AAI?$AAG?$AAN?$AAO?$AAR?$AAE?$AA_?$AAL?$AAI?$AAN?$AAE?$AA?5@ 100a8a40     LIBCMTD:dbgheap.obj
 0002:0000dacc       ??_C@_0DA@HFBKENN@Error?3?5possible?5heap?5corruption?5@ 100a8acc     LIBCMTD:dbgheap.obj
 0002:0000db00       ??_C@_1GE@PCKLOLAO@?$AAf?$AAR?$AAe?$AAa?$AAl?$AAl?$AAo?$AAc?$AA?5?$AA?$HM?$AA?$HM?$AA?5?$AA?$CI?$AA?$CB?$AAf?$AAR?$AAe?$AAa?$AAl?$AAl?$AAo?$AAc?$AA?5?$AA?$CG?$AA?$CG?$AA?5?$AAp?$AAN?$AAe?$AAw?$AAB?$AAl@ 100a8b00     LIBCMTD:dbgheap.obj
 0002:0000db64       ??_C@_1DC@GEFKNOOL@?$AA_?$AAp?$AAL?$AAa?$AAs?$AAt?$AAB?$AAl?$AAo?$AAc?$AAk?$AA?5?$AA?$DN?$AA?$DN?$AA?5?$AAp?$AAO?$AAl?$AAd?$AAB?$AAl?$AAo?$AAc?$AAk?$AA?$AA@ 100a8b64     LIBCMTD:dbgheap.obj
 0002:0000db98       ??_C@_1DE@KOOKLFBB@?$AA_?$AAp?$AAF?$AAi?$AAr?$AAs?$AAt?$AAB?$AAl?$AAo?$AAc?$AAk?$AA?5?$AA?$DN?$AA?$DN?$AA?5?$AAp?$AAO?$AAl?$AAd?$AAB?$AAl?$AAo?$AAc?$AAk?$AA?$AA@ 100a8b98     LIBCMTD:dbgheap.obj
 0002:0000dbcc       ??_C@_1CE@CJACEFBA@?$AAp?$AAU?$AAs?$AAe?$AAr?$AAD?$AAa?$AAt?$AAa?$AA?5?$AA?$CB?$AA?$DN?$AA?5?$AAN?$AAU?$AAL?$AAL?$AA?$AA@ 100a8bcc     LIBCMTD:dbgheap.obj
 0002:0000dbf0       ??_C@_1BI@HAPNGHDP@?$AA_?$AAe?$AAx?$AAp?$AAa?$AAn?$AAd?$AA_?$AAd?$AAb?$AAg?$AA?$AA@ 100a8bf0     LIBCMTD:dbgheap.obj
 0002:0000dc08       ??_C@_0EJ@HEIBCIMJ@The?5Block?5at?50x?$CFp?5was?5allocated?5@ 100a8c08     LIBCMTD:dbgheap.obj
 0002:0000dc54       ??_C@_0BL@KEIPLFAC@Client?5hook?5free?5failure?4?6?$AA@ 100a8c54     LIBCMTD:dbgheap.obj
 0002:0000dc70       ??_C@_0KI@JGFOHMEB@HEAP?5CORRUPTION?5DETECTED?3?5before@ 100a8c70     LIBCMTD:dbgheap.obj
 0002:0000dd18       ??_C@_0IK@PJCGLBOB@HEAP?5CORRUPTION?5DETECTED?3?5before@ 100a8d18     LIBCMTD:dbgheap.obj
 0002:0000dda8       ??_C@_0KE@MBMNHHHN@HEAP?5CORRUPTION?5DETECTED?3?5after?5@ 100a8da8     LIBCMTD:dbgheap.obj
 0002:0000de50       ??_C@_0IG@LEMBDCJK@HEAP?5CORRUPTION?5DETECTED?3?5after?5@ 100a8e50     LIBCMTD:dbgheap.obj
 0002:0000ded8       ??_C@_1HK@HPCBMDFG@?$AAp?$AAH?$AAe?$AAa?$AAd?$AA?9?$AA?$DO?$AAn?$AAL?$AAi?$AAn?$AAe?$AA?5?$AA?$DN?$AA?$DN?$AA?5?$AAI?$AAG?$AAN?$AAO?$AAR?$AAE?$AA_?$AAL?$AAI?$AAN?$AAE?$AA?5?$AA?$CG?$AA?$CG?$AA?5?$AAp@ 100a8ed8     LIBCMTD:dbgheap.obj
 0002:0000df54       ??_C@_1DM@ODCJIDCP@?$AAp?$AAH?$AAe?$AAa?$AAd?$AA?9?$AA?$DO?$AAn?$AAB?$AAl?$AAo?$AAc?$AAk?$AAU?$AAs?$AAe?$AA?5?$AA?$DN?$AA?$DN?$AA?5?$AAn?$AAB?$AAl?$AAo?$AAc?$AAk?$AAU?$AAs?$AAe?$AA?$AA@ 100a8f54     LIBCMTD:dbgheap.obj
 0002:0000df90       ??_C@_1CK@DMAGEMBG@?$AA_?$AAp?$AAL?$AAa?$AAs?$AAt?$AAB?$AAl?$AAo?$AAc?$AAk?$AA?5?$AA?$DN?$AA?$DN?$AA?5?$AAp?$AAH?$AAe?$AAa?$AAd?$AA?$AA@ 100a8f90     LIBCMTD:dbgheap.obj
 0002:0000dfbc       ??_C@_1CM@MMAADDMD@?$AA_?$AAp?$AAF?$AAi?$AAr?$AAs?$AAt?$AAB?$AAl?$AAo?$AAc?$AAk?$AA?5?$AA?$DN?$AA?$DN?$AA?5?$AAp?$AAH?$AAe?$AAa?$AAd?$AA?$AA@ 100a8fbc     LIBCMTD:dbgheap.obj
 0002:0000dfe8       ??_C@_1BG@MBKOGDLD@?$AA_?$AAm?$AAs?$AAi?$AAz?$AAe?$AA_?$AAd?$AAb?$AAg?$AA?$AA@ 100a8fe8     LIBCMTD:dbgheap.obj
 0002:0000e000       ??_C@_0CE@MKKHMBMK@_heapchk?5fails?5with?5_HEAPBADBEGI@ 100a9000     LIBCMTD:dbgheap.obj
 0002:0000e024       ??_C@_0CD@CPKEAPBD@_heapchk?5fails?5with?5_HEAPBADNODE@ 100a9024     LIBCMTD:dbgheap.obj
 0002:0000e048       ??_C@_0CC@MJGLGBDG@_heapchk?5fails?5with?5_HEAPBADEND?4@ 100a9048     LIBCMTD:dbgheap.obj
 0002:0000e06c       ??_C@_0CC@MFFCHFHO@_heapchk?5fails?5with?5_HEAPBADPTR?4@ 100a906c     LIBCMTD:dbgheap.obj
 0002:0000e090       ??_C@_0CL@HNNNMKMJ@_heapchk?5fails?5with?5unknown?5retu@ 100a9090     LIBCMTD:dbgheap.obj
 0002:0000e0bc       ??_C@_07OHKEFPKJ@DAMAGED?$AA@ 100a90bc     LIBCMTD:dbgheap.obj
 0002:0000e0c8       ??_C@_0KA@IHNJJKPL@HEAP?5CORRUPTION?5DETECTED?3?5on?5top@ 100a90c8     LIBCMTD:dbgheap.obj
 0002:0000e168       ??_C@_0IC@BBJIOOJH@HEAP?5CORRUPTION?5DETECTED?3?5on?5top@ 100a9168     LIBCMTD:dbgheap.obj
 0002:0000e1f0       ??_C@_0EG@DGJMPDBH@?$CFhs?5located?5at?50x?$CFp?5is?5?$CFIu?5bytes@ 100a91f0     LIBCMTD:dbgheap.obj
 0002:0000e238       ??_C@_0CI@JMLBEDHJ@?$CFhs?5located?5at?50x?$CFp?5is?5?$CFIu?5bytes@ 100a9238     LIBCMTD:dbgheap.obj
 0002:0000e260       ??_C@_1BHO@NNANJNF@?$AA?$CI?$AAf?$AAN?$AAe?$AAw?$AAB?$AAi?$AAt?$AAs?$AA?$DN?$AA?$DN?$AA_?$AAC?$AAR?$AAT?$AAD?$AAB?$AAG?$AA_?$AAR?$AAE?$AAP?$AAO?$AAR?$AAT?$AA_?$AAF?$AAL?$AAA?$AAG?$AA?$CJ?$AA?5@ 100a9260     LIBCMTD:dbgheap.obj
 0002:0000e3e0       ??_C@_1BO@GJFDNMNF@?$AA_?$AAC?$AAr?$AAt?$AAS?$AAe?$AAt?$AAD?$AAb?$AAg?$AAF?$AAl?$AAa?$AAg?$AA?$AA@ 100a93e0     LIBCMTD:dbgheap.obj
 0002:0000e400       ??_C@_1BI@CJGCEEDL@?$AAp?$AAf?$AAn?$AA?5?$AA?$CB?$AA?$DN?$AA?5?$AAN?$AAU?$AAL?$AAL?$AA?$AA@ 100a9400     LIBCMTD:dbgheap.obj
 0002:0000e418       ??_C@_1DE@GJCKCKEC@?$AA_?$AAC?$AAr?$AAt?$AAD?$AAo?$AAF?$AAo?$AAr?$AAA?$AAl?$AAl?$AAC?$AAl?$AAi?$AAe?$AAn?$AAt?$AAO?$AAb?$AAj?$AAe?$AAc?$AAt?$AAs?$AA?$AA@ 100a9418     LIBCMTD:dbgheap.obj
 0002:0000e44c       ??_C@_1BM@MIMANDHC@?$AAs?$AAt?$AAa?$AAt?$AAe?$AA?5?$AA?$CB?$AA?$DN?$AA?5?$AAN?$AAU?$AAL?$AAL?$AA?$AA@ 100a944c     LIBCMTD:dbgheap.obj
 0002:0000e468       ??_C@_1CE@NJJKELF@?$AA_?$AAC?$AAr?$AAt?$AAM?$AAe?$AAm?$AAC?$AAh?$AAe?$AAc?$AAk?$AAp?$AAo?$AAi?$AAn?$AAt?$AA?$AA@ 100a9468     LIBCMTD:dbgheap.obj
 0002:0000e48c       ??_C@_0DP@LEFMFBOD@Bad?5memory?5block?5found?5at?50x?$CFp?4?6@ 100a948c     LIBCMTD:dbgheap.obj
 0002:0000e4cc       ??_C@_0CB@EAAIGELO@Bad?5memory?5block?5found?5at?50x?$CFp?4?6@ 100a94cc     LIBCMTD:dbgheap.obj
 0002:0000e4f0       ??_C@_1CE@PDIENACM@?$AA_?$AAC?$AAr?$AAt?$AAM?$AAe?$AAm?$AAD?$AAi?$AAf?$AAf?$AAe?$AAr?$AAe?$AAn?$AAc?$AAe?$AA?$AA@ 100a94f0     LIBCMTD:dbgheap.obj
 0002:0000e514       ??_C@_1CC@DHPFEMMN@?$AAo?$AAl?$AAd?$AAS?$AAt?$AAa?$AAt?$AAe?$AA?5?$AA?$CB?$AA?$DN?$AA?5?$AAN?$AAU?$AAL?$AAL?$AA?$AA@ 100a9514     LIBCMTD:dbgheap.obj
 0002:0000e538       ??_C@_1CC@DFPEDFBP@?$AAn?$AAe?$AAw?$AAS?$AAt?$AAa?$AAt?$AAe?$AA?5?$AA?$CB?$AA?$DN?$AA?5?$AAN?$AAU?$AAL?$AAL?$AA?$AA@ 100a9538     LIBCMTD:dbgheap.obj
 0002:0000e55c       ??_C@_1CG@LPFIACGM@?$AA_?$AAp?$AAr?$AAi?$AAn?$AAt?$AAM?$AAe?$AAm?$AAB?$AAl?$AAo?$AAc?$AAk?$AAD?$AAa?$AAt?$AAa?$AA?$AA@ 100a955c     LIBCMTD:dbgheap.obj
 0002:0000e584       ??_C@_0BA@HJBKCELP@?5Data?3?5?$DM?$CFs?$DO?5?$CFs?6?$AA@ 100a9584     LIBCMTD:dbgheap.obj
 0002:0000e594       ??_C@_0BE@KCIPKCIA@Dumping?5objects?5?9?$DO?6?$AA@ 100a9594     LIBCMTD:dbgheap.obj
 0002:0000e5a8       ??_C@_0BE@OIEFNFL@?$CDFile?5Error?$CD?$CI?$CFd?$CJ?5?3?5?$AA@ 100a95a8     LIBCMTD:dbgheap.obj
 0002:0000e5bc       ??_C@_0L@JMEFFCCJ@?$CFhs?$CI?$CFd?$CJ?5?3?5?$AA@ 100a95bc     LIBCMTD:dbgheap.obj
 0002:0000e5c8       ??_C@_06PKLGBFGM@?$HL?$CFld?$HN?5?$AA@ 100a95c8     LIBCMTD:dbgheap.obj
 0002:0000e5d0       ??_C@_0DD@GHNAAKBB@client?5block?5at?50x?$CFp?0?5subtype?5?$CFx@ 100a95d0     LIBCMTD:dbgheap.obj
 0002:0000e604       ??_C@_0CH@FAGDDGPN@normal?5block?5at?50x?$CFp?0?5?$CFIu?5bytes?5@ 100a9604     LIBCMTD:dbgheap.obj
 0002:0000e62c       ??_C@_0DA@MDLBNIBM@crt?5block?5at?50x?$CFp?0?5subtype?5?$CFx?0?5?$CF@ 100a962c     LIBCMTD:dbgheap.obj
 0002:0000e65c       ??_C@_0BH@GFGKJDCO@Object?5dump?5complete?4?6?$AA@ 100a965c     LIBCMTD:dbgheap.obj
 0002:0000e674       ??_C@_0BI@JBFPOEJA@Detected?5memory?5leaks?$CB?6?$AA@ 100a9674     LIBCMTD:dbgheap.obj
 0002:0000e68c       ??_C@_1CM@MPNIBKGK@?$AA_?$AAC?$AAr?$AAt?$AAM?$AAe?$AAm?$AAD?$AAu?$AAm?$AAp?$AAS?$AAt?$AAa?$AAt?$AAi?$AAs?$AAt?$AAi?$AAc?$AAs?$AA?$AA@ 100a968c     LIBCMTD:dbgheap.obj
 0002:0000e6b8       ??_C@_0BO@DACNIABB@?$CFId?5bytes?5in?5?$CFId?5?$CFhs?5Blocks?4?6?$AA@ 100a96b8     LIBCMTD:dbgheap.obj
 0002:0000e6d8       ??_C@_0CB@BLHDAFNE@Largest?5number?5used?3?5?$CFId?5bytes?4?6@ 100a96d8     LIBCMTD:dbgheap.obj
 0002:0000e6fc       ??_C@_0BP@DEDHGGGI@Total?5allocations?3?5?$CFId?5bytes?4?6?$AA@ 100a96fc     LIBCMTD:dbgheap.obj
 0002:0000e71c       ??_C@_1CE@NPMGPNNP@?$AAI?$AAS?$AA_?$AA2?$AA_?$AAP?$AAO?$AAW?$AA_?$AAN?$AA?$CI?$AAa?$AAl?$AAi?$AAg?$AAn?$AA?$CJ?$AA?$AA@ 100a971c     LIBCMTD:dbgheap.obj
 0002:0000e740       ??_C@_1DG@DONCJBBJ@?$AA_?$AAa?$AAl?$AAi?$AAg?$AAn?$AAe?$AAd?$AA_?$AAo?$AAf?$AAf?$AAs?$AAe?$AAt?$AA_?$AAm?$AAa?$AAl?$AAl?$AAo?$AAc?$AA_?$AAd?$AAb?$AAg?$AA?$AA@ 100a9740     LIBCMTD:dbgheap.obj
 0002:0000e778       ??_C@_1DK@LFLKFPDA@?$AAo?$AAf?$AAf?$AAs?$AAe?$AAt?$AA?5?$AA?$DN?$AA?$DN?$AA?5?$AA0?$AA?5?$AA?$HM?$AA?$HM?$AA?5?$AAo?$AAf?$AAf?$AAs?$AAe?$AAt?$AA?5?$AA?$DM?$AA?5?$AAs?$AAi?$AAz?$AAe?$AA?$AA@ 100a9778     LIBCMTD:dbgheap.obj
 0002:0000e7b8       ??_C@_0EI@NDNJMAJK@The?5block?5at?50x?$CFp?5was?5not?5alloca@ 100a97b8     LIBCMTD:dbgheap.obj
 0002:0000e800       ??_C@_0DL@PGHMMKNE@Damage?5before?50x?$CFp?5which?5was?5all@ 100a9800     LIBCMTD:dbgheap.obj
 0002:0000e83c       ??_C@_1DI@NINIKFFK@?$AA_?$AAa?$AAl?$AAi?$AAg?$AAn?$AAe?$AAd?$AA_?$AAo?$AAf?$AAf?$AAs?$AAe?$AAt?$AA_?$AAr?$AAe?$AAa?$AAl?$AAl?$AAo?$AAc?$AA_?$AAd?$AAb?$AAg?$AA?$AA@ 100a983c     LIBCMTD:dbgheap.obj
 0002:0000e878       ??_C@_0EF@PGELACII@The?5block?5at?50x?$CFp?5was?5not?5alloca@ 100a9878     LIBCMTD:dbgheap.obj
 0002:0000e8c0       ??_C@_1CC@MOBIKHH@?$AAm?$AAe?$AAm?$AAb?$AAl?$AAo?$AAc?$AAk?$AA?5?$AA?$CB?$AA?$DN?$AA?5?$AAN?$AAU?$AAL?$AAL?$AA?$AA@ 100a98c0     LIBCMTD:dbgheap.obj
 0002:0000e8e4       ??_C@_1CG@CEGMHIMN@?$AA_?$AAa?$AAl?$AAi?$AAg?$AAn?$AAe?$AAd?$AA_?$AAm?$AAs?$AAi?$AAz?$AAe?$AA_?$AAd?$AAb?$AAg?$AA?$AA@ 100a98e4     LIBCMTD:dbgheap.obj
 0002:0000e90c       ??_C@_0CP@PPLBCJDN@f?3?2dd?2vctools?2crt_bld?2self_x86?2c@ 100a990c     LIBCMTD:a_env.obj
 0002:0000e9f8       ??_C@_1FK@PGACCAFB@?$AAR?$AA6?$AA0?$AA0?$AA2?$AA?$AN?$AA?6?$AA?9?$AA?5?$AAf?$AAl?$AAo?$AAa?$AAt?$AAi?$AAn?$AAg?$AA?5?$AAp?$AAo?$AAi?$AAn?$AAt?$AA?5?$AAs?$AAu?$AAp?$AAp?$AAo?$AAr?$AAt?$AA?5@ 100a99f8     LIBCMTD:crt0msg.obj
 0002:0000ea58       ??_C@_1FE@LLNEDJMD@?$AAR?$AA6?$AA0?$AA0?$AA8?$AA?$AN?$AA?6?$AA?9?$AA?5?$AAn?$AAo?$AAt?$AA?5?$AAe?$AAn?$AAo?$AAu?$AAg?$AAh?$AA?5?$AAs?$AAp?$AAa?$AAc?$AAe?$AA?5?$AAf?$AAo?$AAr?$AA?5?$AAa?$AAr@ 100a9a58     LIBCMTD:crt0msg.obj
 0002:0000eab0       ??_C@_1FI@HONFMGBI@?$AAR?$AA6?$AA0?$AA0?$AA9?$AA?$AN?$AA?6?$AA?9?$AA?5?$AAn?$AAo?$AAt?$AA?5?$AAe?$AAn?$AAo?$AAu?$AAg?$AAh?$AA?5?$AAs?$AAp?$AAa?$AAc?$AAe?$AA?5?$AAf?$AAo?$AAr?$AA?5?$AAe?$AAn@ 100a9ab0     LIBCMTD:crt0msg.obj
 0002:0000eb08       ??_C@_1EG@BEHAGFJD@?$AAR?$AA6?$AA0?$AA1?$AA0?$AA?$AN?$AA?6?$AA?9?$AA?5?$AAa?$AAb?$AAo?$AAr?$AAt?$AA?$CI?$AA?$CJ?$AA?5?$AAh?$AAa?$AAs?$AA?5?$AAb?$AAe?$AAe?$AAn?$AA?5?$AAc?$AAa?$AAl?$AAl?$AAe?$AAd@ 100a9b08     LIBCMTD:crt0msg.obj
 0002:0000eb50       ??_C@_1FI@LOGNIKDM@?$AAR?$AA6?$AA0?$AA1?$AA6?$AA?$AN?$AA?6?$AA?9?$AA?5?$AAn?$AAo?$AAt?$AA?5?$AAe?$AAn?$AAo?$AAu?$AAg?$AAh?$AA?5?$AAs?$AAp?$AAa?$AAc?$AAe?$AA?5?$AAf?$AAo?$AAr?$AA?5?$AAt?$AAh@ 100a9b50     LIBCMTD:crt0msg.obj
 0002:0000eba8       ??_C@_1FK@BEOGODMC@?$AAR?$AA6?$AA0?$AA1?$AA7?$AA?$AN?$AA?6?$AA?9?$AA?5?$AAu?$AAn?$AAe?$AAx?$AAp?$AAe?$AAc?$AAt?$AAe?$AAd?$AA?5?$AAm?$AAu?$AAl?$AAt?$AAi?$AAt?$AAh?$AAr?$AAe?$AAa?$AAd?$AA?5@ 100a9ba8     LIBCMTD:crt0msg.obj
 0002:0000ec08       ??_C@_1EC@JIBHAOPH@?$AAR?$AA6?$AA0?$AA1?$AA8?$AA?$AN?$AA?6?$AA?9?$AA?5?$AAu?$AAn?$AAe?$AAx?$AAp?$AAe?$AAc?$AAt?$AAe?$AAd?$AA?5?$AAh?$AAe?$AAa?$AAp?$AA?5?$AAe?$AAr?$AAr?$AAo?$AAr?$AA?$AN?$AA?6@ 100a9c08     LIBCMTD:crt0msg.obj
 0002:0000ec50       ??_C@_1FC@ECHBIFBC@?$AAR?$AA6?$AA0?$AA1?$AA9?$AA?$AN?$AA?6?$AA?9?$AA?5?$AAu?$AAn?$AAa?$AAb?$AAl?$AAe?$AA?5?$AAt?$AAo?$AA?5?$AAo?$AAp?$AAe?$AAn?$AA?5?$AAc?$AAo?$AAn?$AAs?$AAo?$AAl?$AAe?$AA?5@ 100a9c50     LIBCMTD:crt0msg.obj
 0002:0000eca8       ??_C@_1GK@FHCKBEFA@?$AAR?$AA6?$AA0?$AA2?$AA4?$AA?$AN?$AA?6?$AA?9?$AA?5?$AAn?$AAo?$AAt?$AA?5?$AAe?$AAn?$AAo?$AAu?$AAg?$AAh?$AA?5?$AAs?$AAp?$AAa?$AAc?$AAe?$AA?5?$AAf?$AAo?$AAr?$AA?5?$AA_?$AAo@ 100a9ca8     LIBCMTD:crt0msg.obj
 0002:0000ed18       ??_C@_1EM@MAADIHMB@?$AAR?$AA6?$AA0?$AA2?$AA5?$AA?$AN?$AA?6?$AA?9?$AA?5?$AAp?$AAu?$AAr?$AAe?$AA?5?$AAv?$AAi?$AAr?$AAt?$AAu?$AAa?$AAl?$AA?5?$AAf?$AAu?$AAn?$AAc?$AAt?$AAi?$AAo?$AAn?$AA?5?$AAc@ 100a9d18     LIBCMTD:crt0msg.obj
 0002:0000ed68       ??_C@_1GK@MCAAGJMO@?$AAR?$AA6?$AA0?$AA2?$AA6?$AA?$AN?$AA?6?$AA?9?$AA?5?$AAn?$AAo?$AAt?$AA?5?$AAe?$AAn?$AAo?$AAu?$AAg?$AAh?$AA?5?$AAs?$AAp?$AAa?$AAc?$AAe?$AA?5?$AAf?$AAo?$AAr?$AA?5?$AAs?$AAt@ 100a9d68     LIBCMTD:crt0msg.obj
 0002:0000edd8       ??_C@_1GK@MFGOKLAG@?$AAR?$AA6?$AA0?$AA2?$AA7?$AA?$AN?$AA?6?$AA?9?$AA?5?$AAn?$AAo?$AAt?$AA?5?$AAe?$AAn?$AAo?$AAu?$AAg?$AAh?$AA?5?$AAs?$AAp?$AAa?$AAc?$AAe?$AA?5?$AAf?$AAo?$AAr?$AA?5?$AAl?$AAo@ 100a9dd8     LIBCMTD:crt0msg.obj
 0002:0000ee48       ??_C@_1EK@HHFLMAOL@?$AAR?$AA6?$AA0?$AA2?$AA8?$AA?$AN?$AA?6?$AA?9?$AA?5?$AAu?$AAn?$AAa?$AAb?$AAl?$AAe?$AA?5?$AAt?$AAo?$AA?5?$AAi?$AAn?$AAi?$AAt?$AAi?$AAa?$AAl?$AAi?$AAz?$AAe?$AA?5?$AAh?$AAe@ 100a9e48     LIBCMTD:crt0msg.obj
 0002:0000ee94       ??_C@_1DO@BMFCDCD@?$AAR?$AA6?$AA0?$AA3?$AA0?$AA?$AN?$AA?6?$AA?9?$AA?5?$AAC?$AAR?$AAT?$AA?5?$AAn?$AAo?$AAt?$AA?5?$AAi?$AAn?$AAi?$AAt?$AAi?$AAa?$AAl?$AAi?$AAz?$AAe?$AAd?$AA?$AN?$AA?6?$AA?$AA@ 100a9e94     LIBCMTD:crt0msg.obj
 0002:0000eed8       ??_C@_1MG@ENCOOIDF@?$AAR?$AA6?$AA0?$AA3?$AA1?$AA?$AN?$AA?6?$AA?9?$AA?5?$AAA?$AAt?$AAt?$AAe?$AAm?$AAp?$AAt?$AA?5?$AAt?$AAo?$AA?5?$AAi?$AAn?$AAi?$AAt?$AAi?$AAa?$AAl?$AAi?$AAz?$AAe?$AA?5?$AAt@ 100a9ed8     LIBCMTD:crt0msg.obj
 0002:0000efa0       ??_C@_1GG@GOPILAJP@?$AAR?$AA6?$AA0?$AA3?$AA2?$AA?$AN?$AA?6?$AA?9?$AA?5?$AAn?$AAo?$AAt?$AA?5?$AAe?$AAn?$AAo?$AAu?$AAg?$AAh?$AA?5?$AAs?$AAp?$AAa?$AAc?$AAe?$AA?5?$AAf?$AAo?$AAr?$AA?5?$AAl?$AAo@ 100a9fa0     LIBCMTD:crt0msg.obj
 0002:0000f008       ??_C@_1BOO@KGEDBGAJ@?$AAR?$AA6?$AA0?$AA3?$AA3?$AA?$AN?$AA?6?$AA?9?$AA?5?$AAA?$AAt?$AAt?$AAe?$AAm?$AAp?$AAt?$AA?5?$AAt?$AAo?$AA?5?$AAu?$AAs?$AAe?$AA?5?$AAM?$AAS?$AAI?$AAL?$AA?5?$AAc?$AAo?$AAd@ 100aa008     LIBCMTD:crt0msg.obj
 0002:0000f1f8       ??_C@_1GG@MKFPEKFO@?$AAR?$AA6?$AA0?$AA3?$AA4?$AA?$AN?$AA?6?$AA?9?$AA?5?$AAi?$AAn?$AAc?$AAo?$AAn?$AAs?$AAi?$AAs?$AAt?$AAe?$AAn?$AAt?$AA?5?$AAo?$AAn?$AAe?$AAx?$AAi?$AAt?$AA?5?$AAb?$AAe?$AAg@ 100aa1f8     LIBCMTD:crt0msg.obj
 0002:0000f260       ??_C@_1BO@BFCDCGC@?$AAD?$AAO?$AAM?$AAA?$AAI?$AAN?$AA?5?$AAe?$AAr?$AAr?$AAo?$AAr?$AA?$AN?$AA?6?$AA?$AA@ 100aa260     LIBCMTD:crt0msg.obj
 0002:0000f280       ??_C@_1BK@KMOMNAAI@?$AAS?$AAI?$AAN?$AAG?$AA?5?$AAe?$AAr?$AAr?$AAo?$AAr?$AA?$AN?$AA?6?$AA?$AA@ 100aa280     LIBCMTD:crt0msg.obj
 0002:0000f29c       ??_C@_1BM@JBBEPPHI@?$AAT?$AAL?$AAO?$AAS?$AAS?$AA?5?$AAe?$AAr?$AAr?$AAo?$AAr?$AA?$AN?$AA?6?$AA?$AA@ 100aa29c     LIBCMTD:crt0msg.obj
 0002:0000f2b8       ??_C@_15JNBOKNOG@?$AA?$AN?$AA?6?$AA?$AA@ 100aa2b8     LIBCMTD:crt0msg.obj
 0002:0000f2c0       ??_C@_1BO@BKOMIGKJ@?$AAr?$AAu?$AAn?$AAt?$AAi?$AAm?$AAe?$AA?5?$AAe?$AAr?$AAr?$AAo?$AAr?$AA?5?$AA?$AA@ 100aa2c0     LIBCMTD:crt0msg.obj
 0002:0000f2e0       ??_C@_1GC@HKOJBOFF@?$AAf?$AA?3?$AA?2?$AAd?$AAd?$AA?2?$AAv?$AAc?$AAt?$AAo?$AAo?$AAl?$AAs?$AA?2?$AAc?$AAr?$AAt?$AA_?$AAb?$AAl?$AAd?$AA?2?$AAs?$AAe?$AAl?$AAf?$AA_?$AAx?$AA8?$AA6?$AA?2?$AAc@ 100aa2e0     LIBCMTD:crt0msg.obj
 0002:0000f344       ??_C@_1BI@EAHMBMEC@?$AA_?$AAN?$AAM?$AAS?$AAG?$AA_?$AAW?$AAR?$AAI?$AAT?$AAE?$AA?$AA@ 100aa344     LIBCMTD:crt0msg.obj
 0002:0000f360       ??_C@_1KO@BKLCKNFL@?$AAw?$AAc?$AAs?$AAc?$AAp?$AAy?$AA_?$AAs?$AA?$CI?$AAo?$AAu?$AAt?$AAm?$AAs?$AAg?$AA?0?$AA?5?$AA?$CI?$AAs?$AAi?$AAz?$AAe?$AAo?$AAf?$AA?$CI?$AAo?$AAu?$AAt?$AAm?$AAs?$AAg?$AA?$CJ@ 100aa360     LIBCMTD:crt0msg.obj
 0002:0000f410       ??_C@_1DE@JNGNBFGO@?$AAR?$AAu?$AAn?$AAt?$AAi?$AAm?$AAe?$AA?5?$AAE?$AAr?$AAr?$AAo?$AAr?$AA?$CB?$AA?6?$AA?6?$AAP?$AAr?$AAo?$AAg?$AAr?$AAa?$AAm?$AA?3?$AA?5?$AA?$AA@ 100aa410     LIBCMTD:crt0msg.obj
 0002:0000f448       ??_C@_1HK@FJJNAABO@?$AAw?$AAc?$AAs?$AAc?$AAp?$AAy?$AA_?$AAs?$AA?$CI?$AAp?$AAr?$AAo?$AAg?$AAn?$AAa?$AAm?$AAe?$AA?0?$AA?5?$AAp?$AAr?$AAo?$AAg?$AAn?$AAa?$AAm?$AAe?$AA_?$AAs?$AAi?$AAz?$AAe@ 100aa448     LIBCMTD:crt0msg.obj
 0002:0000f4c8       ??_C@_1HI@FLHKGEBE@?$AAw?$AAc?$AAs?$AAn?$AAc?$AAp?$AAy?$AA_?$AAs?$AA?$CI?$AAp?$AAc?$AAh?$AA?0?$AA?5?$AAp?$AAr?$AAo?$AAg?$AAn?$AAa?$AAm?$AAe?$AA_?$AAs?$AAi?$AAz?$AAe?$AA?5?$AA?9?$AA?5?$AA?$CI@ 100aa4c8     LIBCMTD:crt0msg.obj
 0002:0000f540       ??_C@_1IA@DCJGKHFO@?$AAw?$AAc?$AAs?$AAc?$AAa?$AAt?$AA_?$AAs?$AA?$CI?$AAo?$AAu?$AAt?$AAm?$AAs?$AAg?$AA?0?$AA?5?$AA?$CI?$AAs?$AAi?$AAz?$AAe?$AAo?$AAf?$AA?$CI?$AAo?$AAu?$AAt?$AAm?$AAs?$AAg?$AA?$CJ@ 100aa540     LIBCMTD:crt0msg.obj
 0002:0000f5c0       ??_C@_1IG@NMONDPP@?$AAw?$AAc?$AAs?$AAc?$AAa?$AAt?$AA_?$AAs?$AA?$CI?$AAo?$AAu?$AAt?$AAm?$AAs?$AAg?$AA?0?$AA?5?$AA?$CI?$AAs?$AAi?$AAz?$AAe?$AAo?$AAf?$AA?$CI?$AAo?$AAu?$AAt?$AAm?$AAs?$AAg?$AA?$CJ@ 100aa5c0     LIBCMTD:crt0msg.obj
 0002:0000f648       ??_C@_0DC@CFDMMFIG@f?3?2dd?2vctools?2crt_bld?2self_x86?2c@ 100aa648     LIBCMTD:inithelp.obj
 0002:0000f680       ??_C@_1GE@PLPIMDHG@?$AAf?$AA?3?$AA?2?$AAd?$AAd?$AA?2?$AAv?$AAc?$AAt?$AAo?$AAo?$AAl?$AAs?$AA?2?$AAc?$AAr?$AAt?$AA_?$AAb?$AAl?$AAd?$AA?2?$AAs?$AAe?$AAl?$AAf?$AA_?$AAx?$AA8?$AA6?$AA?2?$AAc@ 100aa680     LIBCMTD:inithelp.obj
 0002:0000f6e4       ??_C@_1CA@KHHCPEI@?$AA_?$AA_?$AAg?$AAe?$AAt?$AAl?$AAo?$AAc?$AAa?$AAl?$AAe?$AAi?$AAn?$AAf?$AAo?$AA?$AA@ 100aa6e4     LIBCMTD:inithelp.obj
 0002:0000f708       ??_C@_1GO@NGIGJNHH@?$AAs?$AAt?$AAr?$AAn?$AAc?$AAp?$AAy?$AA_?$AAs?$AA?$CI?$AA?$CK?$AAs?$AAt?$AAr?$AAa?$AAd?$AAd?$AAr?$AAe?$AAs?$AAs?$AA?0?$AA?5?$AAo?$AAu?$AAt?$AAs?$AAi?$AAz?$AAe?$AA?0?$AA?5@ 100aa708     LIBCMTD:inithelp.obj
 0002:0000f778       ??_C@_1BC@JLLICHIC@?$AAp?$AAn?$AAh?$AA?5?$AA?$DN?$AA?$DN?$AA?5?$AA0?$AA?$AA@ 100aa778     LIBCMTD:handler.obj
 0002:0000f790       ??_C@_1GG@CDHAPCGF@?$AAf?$AA?3?$AA?2?$AAd?$AAd?$AA?2?$AAv?$AAc?$AAt?$AAo?$AAo?$AAl?$AAs?$AA?2?$AAc?$AAr?$AAt?$AA_?$AAb?$AAl?$AAd?$AA?2?$AAs?$AAe?$AAl?$AAf?$AA_?$AAx?$AA8?$AA6?$AA?2?$AAc@ 100aa790     LIBCMTD:handler.obj
 0002:0000f7f8       ??_C@_1BI@GKKCBDMD@?$AAd?$AAs?$AAt?$AA?5?$AA?$CB?$AA?$DN?$AA?5?$AAN?$AAU?$AAL?$AAL?$AA?$AA@ 100aa7f8     LIBCMTD:memcpy_s.obj
 0002:0000f810       ??_C@_1GE@NEOPGGBM@?$AAf?$AA?3?$AA?2?$AAd?$AAd?$AA?2?$AAv?$AAc?$AAt?$AAo?$AAo?$AAl?$AAs?$AA?2?$AAc?$AAr?$AAt?$AA_?$AAb?$AAl?$AAd?$AA?2?$AAs?$AAe?$AAl?$AAf?$AA_?$AAx?$AA8?$AA6?$AA?2?$AAc@ 100aa810     LIBCMTD:memcpy_s.obj
 0002:0000f874       ??_C@_1BC@GKHDJMGB@?$AAm?$AAe?$AAm?$AAc?$AAp?$AAy?$AA_?$AAs?$AA?$AA@ 100aa874     LIBCMTD:memcpy_s.obj
 0002:0000f888       ??_C@_1BI@DCHLDCPP@?$AAs?$AAr?$AAc?$AA?5?$AA?$CB?$AA?$DN?$AA?5?$AAN?$AAU?$AAL?$AAL?$AA?$AA@ 100aa888     LIBCMTD:memcpy_s.obj
 0002:0000f8a0       ??_C@_1CK@DDKKOLAN@?$AAs?$AAi?$AAz?$AAe?$AAI?$AAn?$AAB?$AAy?$AAt?$AAe?$AAs?$AA?5?$AA?$DO?$AA?$DN?$AA?5?$AAc?$AAo?$AAu?$AAn?$AAt?$AA?$AA@ 100aa8a0     LIBCMTD:memcpy_s.obj
 0002:0000f8d0       ??_C@_1FC@PFMLEHKI@?$AA?$CI?$AA?$CI?$AA_?$AAD?$AAs?$AAt?$AA?$CJ?$AA?$CJ?$AA?5?$AA?$CB?$AA?$DN?$AA?5?$AAN?$AAU?$AAL?$AAL?$AA?5?$AA?$CG?$AA?$CG?$AA?5?$AA?$CI?$AA?$CI?$AA_?$AAS?$AAi?$AAz?$AAe?$AAI?$AAn?$AAW?$AAo?$AAr@ 100aa8d0     LIBCMTD:wcscpy_s.obj
 0002:0000f928       ??_C@_1GI@BGBNCIMA@?$AAf?$AA?3?$AA?2?$AAd?$AAd?$AA?2?$AAv?$AAc?$AAt?$AAo?$AAo?$AAl?$AAs?$AA?2?$AAc?$AAr?$AAt?$AA_?$AAb?$AAl?$AAd?$AA?2?$AAs?$AAe?$AAl?$AAf?$AA_?$AAx?$AA8?$AA6?$AA?2?$AAc@ 100aa928     LIBCMTD:wcscpy_s.obj
 0002:0000f990       ??_C@_1BC@KIONAFPO@?$AAw?$AAc?$AAs?$AAc?$AAp?$AAy?$AA_?$AAs?$AA?$AA@ 100aa990     LIBCMTD:wcscpy_s.obj
 0002:0000f9a4       ??_C@_1CG@OFBJMIGJ@?$AA?$CI?$AA?$CI?$AA?$CI?$AA_?$AAS?$AAr?$AAc?$AA?$CJ?$AA?$CJ?$AA?$CJ?$AA?5?$AA?$CB?$AA?$DN?$AA?5?$AAN?$AAU?$AAL?$AAL?$AA?$AA@ 100aa9a4     LIBCMTD:wcscpy_s.obj
 0002:0000f9cc       ??_C@_1CI@HCPHDDLE@?$AAB?$AAu?$AAf?$AAf?$AAe?$AAr?$AA?5?$AAi?$AAs?$AA?5?$AAt?$AAo?$AAo?$AA?5?$AAs?$AAm?$AAa?$AAl?$AAl?$AA?$AA@ 100aa9cc     LIBCMTD:wcscpy_s.obj
 0002:0000f9f4       ??_C@_1DM@MADKGDLO@?$AA?$CI?$AAL?$AA?$CC?$AAB?$AAu?$AAf?$AAf?$AAe?$AAr?$AA?5?$AAi?$AAs?$AA?5?$AAt?$AAo?$AAo?$AA?5?$AAs?$AAm?$AAa?$AAl?$AAl?$AA?$CC?$AA?5?$AA?$CG?$AA?$CG?$AA?5?$AA0?$AA?$CJ?$AA?$AA@ 100aa9f4     LIBCMTD:wcscpy_s.obj
 0002:0000fa30       ??_C@_1GE@DKGHLBLP@?$AAf?$AA?3?$AA?2?$AAd?$AAd?$AA?2?$AAv?$AAc?$AAt?$AAo?$AAo?$AAl?$AAs?$AA?2?$AAc?$AAr?$AAt?$AA_?$AAb?$AAl?$AAd?$AA?2?$AAs?$AAe?$AAl?$AAf?$AA_?$AAx?$AA8?$AA6?$AA?2?$AAc@ 100aaa30     LIBCMTD:swprintf.obj
 0002:0000fa94       ??_C@_1BE@BMIJMLDD@?$AA_?$AAs?$AAw?$AAp?$AAr?$AAi?$AAn?$AAt?$AAf?$AA?$AA@ 100aaa94     LIBCMTD:swprintf.obj
 0002:0000faa8       ??_C@_0DA@ELJOOIJF@f?3?2dd?2vctools?2crt_bld?2self_x86?2c@ 100aaaa8     LIBCMTD:winsig.obj
 0002:0000fad8       ??_C@_1DO@MLNEDKGB@?$AA?$CI?$AA?$CC?$AAI?$AAn?$AAv?$AAa?$AAl?$AAi?$AAd?$AA?5?$AAs?$AAi?$AAg?$AAn?$AAa?$AAl?$AA?5?$AAo?$AAr?$AA?5?$AAe?$AAr?$AAr?$AAo?$AAr?$AA?$CC?$AA?0?$AA?5?$AA0?$AA?$CJ?$AA?$AA@ 100aaad8     LIBCMTD:winsig.obj
 0002:0000fb18       ??_C@_1GA@DBECNFG@?$AAf?$AA?3?$AA?2?$AAd?$AAd?$AA?2?$AAv?$AAc?$AAt?$AAo?$AAo?$AAl?$AAs?$AA?2?$AAc?$AAr?$AAt?$AA_?$AAb?$AAl?$AAd?$AA?2?$AAs?$AAe?$AAl?$AAf?$AA_?$AAx?$AA8?$AA6?$AA?2?$AAc@ 100aab18     LIBCMTD:winsig.obj
 0002:0000fb78       ??_C@_1O@EJLDHPPL@?$AAs?$AAi?$AAg?$AAn?$AAa?$AAl?$AA?$AA@ 100aab78     LIBCMTD:winsig.obj
 0002:0000fb88       ??_C@_1M@DMJEIKHL@?$AAr?$AAa?$AAi?$AAs?$AAe?$AA?$AA@ 100aab88     LIBCMTD:winsig.obj
 0002:0000fb94       ??_C@_1BG@GOEBHBDC@?$AAU?$AAS?$AAE?$AAR?$AA3?$AA2?$AA?4?$AAD?$AAL?$AAL?$AA?$AA@ 100aab94     LIBCMTD:crtmboxw.obj
 0002:0000fbac       ??_C@_0M@DLDCCGNP@MessageBoxW?$AA@ 100aabac     LIBCMTD:crtmboxw.obj
 0002:0000fbb8       ??_C@_0BA@HNOPNCHB@GetActiveWindow?$AA@ 100aabb8     LIBCMTD:crtmboxw.obj
 0002:0000fbc8       ??_C@_0BD@HHGDFDBJ@GetLastActivePopup?$AA@ 100aabc8     LIBCMTD:crtmboxw.obj
 0002:0000fbdc       ??_C@_0BK@DEKFELLI@GetUserObjectInformationW?$AA@ 100aabdc     LIBCMTD:crtmboxw.obj
 0002:0000fbf8       ??_C@_0BI@DFKBFLJE@GetProcessWindowStation?$AA@ 100aabf8     LIBCMTD:crtmboxw.obj
 0002:0000fc10       ??_C@_1FA@IFFFOLDJ@?$AAn?$AAR?$AAp?$AAt?$AAT?$AAy?$AAp?$AAe?$AA?5?$AA?$DO?$AA?$DN?$AA?5?$AA0?$AA?5?$AA?$CG?$AA?$CG?$AA?5?$AAn?$AAR?$AAp?$AAt?$AAT?$AAy?$AAp?$AAe?$AA?5?$AA?$DM?$AA?5?$AA_?$AAC?$AAR?$AAT@ 100aac10     LIBCMTD:dbgrptt.obj
 0002:0000fc60       ??_C@_1GC@FIGJJMEN@?$AAf?$AA?3?$AA?2?$AAd?$AAd?$AA?2?$AAv?$AAc?$AAt?$AAo?$AAo?$AAl?$AAs?$AA?2?$AAc?$AAr?$AAt?$AA_?$AAb?$AAl?$AAd?$AA?2?$AAs?$AAe?$AAl?$AAf?$AA_?$AAx?$AA8?$AA6?$AA?2?$AAc@ 100aac60     LIBCMTD:dbgrptt.obj
 0002:0000fcc4       ??_C@_1CE@FIHIECNJ@?$AA_?$AAC?$AAr?$AAt?$AAS?$AAe?$AAt?$AAR?$AAe?$AAp?$AAo?$AAr?$AAt?$AAM?$AAo?$AAd?$AAe?$AA?$AA@ 100aacc4     LIBCMTD:dbgrptt.obj
 0002:0000fce8       ??_C@_1NK@LOFHIHFC@?$AAf?$AAM?$AAo?$AAd?$AAe?$AA?5?$AA?$DN?$AA?$DN?$AA?5?$AA_?$AAC?$AAR?$AAT?$AAD?$AAB?$AAG?$AA_?$AAR?$AAE?$AAP?$AAO?$AAR?$AAT?$AA_?$AAM?$AAO?$AAD?$AAE?$AA?5?$AA?$HM?$AA?$HM?$AA?5@ 100aace8     LIBCMTD:dbgrptt.obj
 0002:0000fdc4       ??_C@_1CE@IKKEDCME@?$AA_?$AAC?$AAr?$AAt?$AAS?$AAe?$AAt?$AAR?$AAe?$AAp?$AAo?$AAr?$AAt?$AAF?$AAi?$AAl?$AAe?$AA?$AA@ 100aadc4     LIBCMTD:dbgrptt.obj
 0002:0000fde8       ??_C@_1CA@KHJHLKA@?$AA_?$AAV?$AAC?$AAr?$AAt?$AAD?$AAb?$AAg?$AAR?$AAe?$AAp?$AAo?$AAr?$AAt?$AAA?$AA?$AA@ 100aade8     LIBCMTD:dbgrptt.obj
 0002:0000fe08       ??_C@_1FA@JPHJBHEM@?$AA_?$AAi?$AAt?$AAo?$AAa?$AA_?$AAs?$AA?$CI?$AAn?$AAL?$AAi?$AAn?$AAe?$AA?0?$AA?5?$AAs?$AAz?$AAL?$AAi?$AAn?$AAe?$AAM?$AAe?$AAs?$AAs?$AAa?$AAg?$AAe?$AA?0?$AA?5?$AA4?$AA0@ 100aae08     LIBCMTD:dbgrptt.obj
 0002:0000fe58       ??_C@_0CG@BNGLOCEO@Second?5Chance?5Assertion?5Failed?3?5@ 100aae58     LIBCMTD:dbgrptt.obj
 0002:0000fe80       ??_C@_0P@DFJNDPOP@?$DMfile?5unknown?$DO?$AA@ 100aae80     LIBCMTD:dbgrptt.obj
 0002:0000fe90       ??_C@_07BHGABMGB@?0?5Line?5?$AA@ 100aae90     LIBCMTD:dbgrptt.obj
 0002:0000fe98       ??_C@_1JI@GAALPGBM@?$AAs?$AAt?$AAr?$AAc?$AAp?$AAy?$AA_?$AAs?$AA?$CI?$AAs?$AAz?$AAU?$AAs?$AAe?$AAr?$AAM?$AAe?$AAs?$AAs?$AAa?$AAg?$AAe?$AA?0?$AA?5?$AA4?$AA0?$AA9?$AA6?$AA?0?$AA?5?$AA?$CC?$AA_@ 100aae98     LIBCMTD:dbgrptt.obj
 0002:0000ff30       ??_C@_0CL@EACFGMNB@_CrtDbgReport?3?5String?5too?5long?5o@ 100aaf30     LIBCMTD:dbgrptt.obj
 0002:0000ff60       ??_C@_1KK@GIGAEDMO@?$AAs?$AAt?$AAr?$AAc?$AAp?$AAy?$AA_?$AAs?$AA?$CI?$AAs?$AAz?$AAL?$AAi?$AAn?$AAe?$AAM?$AAe?$AAs?$AAs?$AAa?$AAg?$AAe?$AA?0?$AA?5?$AA4?$AA0?$AA9?$AA6?$AA?0?$AA?5?$AAs?$AAz@ 100aaf60     LIBCMTD:dbgrptt.obj
 0002:0001000c       ??_C@_0BD@CAENFOHP@Assertion?5failed?3?5?$AA@ 100ab00c     LIBCMTD:dbgrptt.obj
 0002:00010020       ??_C@_0BC@LAIDCHCH@Assertion?5failed?$CB?$AA@ 100ab020     LIBCMTD:dbgrptt.obj
 0002:00010038       ??_C@_1FK@NPGBPOFO@?$AAs?$AAt?$AAr?$AAc?$AAa?$AAt?$AA_?$AAs?$AA?$CI?$AAs?$AAz?$AAL?$AAi?$AAn?$AAe?$AAM?$AAe?$AAs?$AAs?$AAa?$AAg?$AAe?$AA?0?$AA?5?$AA4?$AA0?$AA9?$AA6?$AA?0?$AA?5?$AAs?$AAz@ 100ab038     LIBCMTD:dbgrptt.obj
 0002:00010098       ??_C@_1EI@CACDLAFK@?$AAs?$AAt?$AAr?$AAc?$AAa?$AAt?$AA_?$AAs?$AA?$CI?$AAs?$AAz?$AAL?$AAi?$AAn?$AAe?$AAM?$AAe?$AAs?$AAs?$AAa?$AAg?$AAe?$AA?0?$AA?5?$AA4?$AA0?$AA9?$AA6?$AA?0?$AA?5?$AA?$CC?$AA?2@ 100ab098     LIBCMTD:dbgrptt.obj
 0002:000100e0       ??_C@_01LIIJDEN@?$AN?$AA@  100ab0e0     LIBCMTD:dbgrptt.obj
 0002:000100e8       ??_C@_1EI@LDHJEDO@?$AAs?$AAt?$AAr?$AAc?$AAa?$AAt?$AA_?$AAs?$AA?$CI?$AAs?$AAz?$AAL?$AAi?$AAn?$AAe?$AAM?$AAe?$AAs?$AAs?$AAa?$AAg?$AAe?$AA?0?$AA?5?$AA4?$AA0?$AA9?$AA6?$AA?0?$AA?5?$AA?$CC?$AA?2@ 100ab0e8     LIBCMTD:dbgrptt.obj
 0002:00010130       ??_C@_0M@IPILFDFN@?$CFs?$CI?$CFd?$CJ?5?3?5?$CFs?$AA@ 100ab130     LIBCMTD:dbgrptt.obj
 0002:00010140       ??_C@_1JG@CPKCIOEE@?$AAs?$AAt?$AAr?$AAc?$AAp?$AAy?$AA_?$AAs?$AA?$CI?$AAs?$AAz?$AAO?$AAu?$AAt?$AAM?$AAe?$AAs?$AAs?$AAa?$AAg?$AAe?$AA?0?$AA?5?$AA4?$AA0?$AA9?$AA6?$AA?0?$AA?5?$AA?$CC?$AA_?$AAC@ 100ab140     LIBCMTD:dbgrptt.obj
 0002:000101d8       ??_C@_1FI@IBIOIHEG@?$AAs?$AAt?$AAr?$AAc?$AAp?$AAy?$AA_?$AAs?$AA?$CI?$AAs?$AAz?$AAO?$AAu?$AAt?$AAM?$AAe?$AAs?$AAs?$AAa?$AAg?$AAe?$AA?0?$AA?5?$AA4?$AA0?$AA9?$AA6?$AA?0?$AA?5?$AAs?$AAz?$AAL@ 100ab1d8     LIBCMTD:dbgrptt.obj
 0002:00010230       ??_C@_1IM@OOKIFKOH@?$AAe?$AA?5?$AA?$DN?$AA?5?$AAm?$AAb?$AAs?$AAt?$AAo?$AAw?$AAc?$AAs?$AA_?$AAs?$AA?$CI?$AA?$CG?$AAr?$AAe?$AAt?$AA?0?$AA?5?$AAs?$AAz?$AAO?$AAu?$AAt?$AAM?$AAe?$AAs?$AAs?$AAa?$AAg@ 100ab230     LIBCMTD:dbgrptt.obj
 0002:000102c0       ??_C@_1MC@IGEECMDB@?$AAw?$AAc?$AAs?$AAc?$AAp?$AAy?$AA_?$AAs?$AA?$CI?$AAs?$AAz?$AAO?$AAu?$AAt?$AAM?$AAe?$AAs?$AAs?$AAa?$AAg?$AAe?$AA2?$AA?0?$AA?5?$AA4?$AA0?$AA9?$AA6?$AA?0?$AA?5?$AAL?$AA?$CC@ 100ab2c0     LIBCMTD:dbgrptt.obj
 0002:00010388       ??_C@_1HO@PJOFIKFE@?$AA_?$AAC?$AAr?$AAt?$AAD?$AAb?$AAg?$AAR?$AAe?$AAp?$AAo?$AAr?$AAt?$AA?3?$AA?5?$AAS?$AAt?$AAr?$AAi?$AAn?$AAg?$AA?5?$AAt?$AAo?$AAo?$AA?5?$AAl?$AAo?$AAn?$AAg?$AA?5?$AAo@ 100ab388     LIBCMTD:dbgrptt.obj
 0002:00010408       ??_C@_1CA@HPALHDOD@?$AA_?$AAV?$AAC?$AAr?$AAt?$AAD?$AAb?$AAg?$AAR?$AAe?$AAp?$AAo?$AAr?$AAt?$AAW?$AA?$AA@ 100ab408     LIBCMTD:dbgrptt.obj
 0002:00010428       ??_C@_1FA@CNLLOMHI@?$AA_?$AAi?$AAt?$AAo?$AAw?$AA_?$AAs?$AA?$CI?$AAn?$AAL?$AAi?$AAn?$AAe?$AA?0?$AA?5?$AAs?$AAz?$AAL?$AAi?$AAn?$AAe?$AAM?$AAe?$AAs?$AAs?$AAa?$AAg?$AAe?$AA?0?$AA?5?$AA4?$AA0@ 100ab428     LIBCMTD:dbgrptt.obj
 0002:00010478       ??_C@_1EM@MJFLEDMB@?$AAS?$AAe?$AAc?$AAo?$AAn?$AAd?$AA?5?$AAC?$AAh?$AAa?$AAn?$AAc?$AAe?$AA?5?$AAA?$AAs?$AAs?$AAe?$AAr?$AAt?$AAi?$AAo?$AAn?$AA?5?$AAF?$AAa?$AAi?$AAl?$AAe?$AAd?$AA?3?$AA?5@ 100ab478     LIBCMTD:dbgrptt.obj
 0002:000104c4       ??_C@_1BO@OCHMLCAG@?$AA?$DM?$AAf?$AAi?$AAl?$AAe?$AA?5?$AAu?$AAn?$AAk?$AAn?$AAo?$AAw?$AAn?$AA?$DO?$AA?$AA@ 100ab4c4     LIBCMTD:dbgrptt.obj
 0002:000104e4       ??_C@_1BA@ELMMDCFC@?$AA?0?$AA?5?$AAL?$AAi?$AAn?$AAe?$AA?5?$AA?$AA@ 100ab4e4     LIBCMTD:dbgrptt.obj
 0002:000104f8       ??_C@_1JK@KHFABAEO@?$AAw?$AAc?$AAs?$AAc?$AAp?$AAy?$AA_?$AAs?$AA?$CI?$AAs?$AAz?$AAU?$AAs?$AAe?$AAr?$AAM?$AAe?$AAs?$AAs?$AAa?$AAg?$AAe?$AA?0?$AA?5?$AA4?$AA0?$AA9?$AA6?$AA?0?$AA?5?$AAL?$AA?$CC@ 100ab4f8     LIBCMTD:dbgrptt.obj
 0002:00010598       ??_C@_1KO@DGAHENCH@?$AAw?$AAc?$AAs?$AAc?$AAp?$AAy?$AA_?$AAs?$AA?$CI?$AAs?$AAz?$AAL?$AAi?$AAn?$AAe?$AAM?$AAe?$AAs?$AAs?$AAa?$AAg?$AAe?$AA?0?$AA?5?$AA4?$AA0?$AA9?$AA6?$AA?0?$AA?5?$AAs?$AAz@ 100ab598     LIBCMTD:dbgrptt.obj
 0002:00010648       ??_C@_1CG@FFFGGODN@?$AAA?$AAs?$AAs?$AAe?$AAr?$AAt?$AAi?$AAo?$AAn?$AA?5?$AAf?$AAa?$AAi?$AAl?$AAe?$AAd?$AA?3?$AA?5?$AA?$AA@ 100ab648     LIBCMTD:dbgrptt.obj
 0002:00010670       ??_C@_1FK@HPADHBBD@?$AAw?$AAc?$AAs?$AAc?$AAa?$AAt?$AA_?$AAs?$AA?$CI?$AAs?$AAz?$AAL?$AAi?$AAn?$AAe?$AAM?$AAe?$AAs?$AAs?$AAa?$AAg?$AAe?$AA?0?$AA?5?$AA4?$AA0?$AA9?$AA6?$AA?0?$AA?5?$AAs?$AAz@ 100ab670     LIBCMTD:dbgrptt.obj
 0002:000106d0       ??_C@_1EK@NMDFGHMF@?$AAw?$AAc?$AAs?$AAc?$AAa?$AAt?$AA_?$AAs?$AA?$CI?$AAs?$AAz?$AAL?$AAi?$AAn?$AAe?$AAM?$AAe?$AAs?$AAs?$AAa?$AAg?$AAe?$AA?0?$AA?5?$AA4?$AA0?$AA9?$AA6?$AA?0?$AA?5?$AAL?$AA?$CC@ 100ab6d0     LIBCMTD:dbgrptt.obj
 0002:0001071c       ??_C@_13CMNBPIDO@?$AA?$AN?$AA?$AA@ 100ab71c     LIBCMTD:dbgrptt.obj
 0002:00010720       ??_C@_1EK@PHCBEDKB@?$AAw?$AAc?$AAs?$AAc?$AAa?$AAt?$AA_?$AAs?$AA?$CI?$AAs?$AAz?$AAL?$AAi?$AAn?$AAe?$AAM?$AAe?$AAs?$AAs?$AAa?$AAg?$AAe?$AA?0?$AA?5?$AA4?$AA0?$AA9?$AA6?$AA?0?$AA?5?$AAL?$AA?$CC@ 100ab720     LIBCMTD:dbgrptt.obj
 0002:0001076c       ??_C@_1BI@JIDBEPIG@?$AA?$CF?$AAs?$AA?$CI?$AA?$CF?$AAd?$AA?$CJ?$AA?5?$AA?3?$AA?5?$AA?$CF?$AAs?$AA?$AA@ 100ab76c     LIBCMTD:dbgrptt.obj
 0002:00010788       ??_C@_1FI@DBAIJPJE@?$AAw?$AAc?$AAs?$AAc?$AAp?$AAy?$AA_?$AAs?$AA?$CI?$AAs?$AAz?$AAO?$AAu?$AAt?$AAM?$AAe?$AAs?$AAs?$AAa?$AAg?$AAe?$AA?0?$AA?5?$AA4?$AA0?$AA9?$AA6?$AA?0?$AA?5?$AAs?$AAz?$AAL@ 100ab788     LIBCMTD:dbgrptt.obj
 0002:000107e0       ??_C@_1JC@EOAPFDLN@?$AAw?$AAc?$AAs?$AAt?$AAo?$AAm?$AAb?$AAs?$AA_?$AAs?$AA?$CI?$AA?$CI?$AA?$CI?$AAv?$AAo?$AAi?$AAd?$AA?5?$AA?$CK?$AA?$CJ?$AA0?$AA?$CJ?$AA?0?$AA?5?$AAs?$AAz?$AAO?$AAu?$AAt?$AAM?$AAe?$AAs@ 100ab7e0     LIBCMTD:dbgrptt.obj
 0002:00010878       ??_C@_1MA@LBAMNNOB@?$AAs?$AAt?$AAr?$AAc?$AAp?$AAy?$AA_?$AAs?$AA?$CI?$AAs?$AAz?$AAO?$AAu?$AAt?$AAM?$AAe?$AAs?$AAs?$AAa?$AAg?$AAe?$AA2?$AA?0?$AA?5?$AA4?$AA0?$AA9?$AA6?$AA?0?$AA?5?$AA?$CC?$AA_@ 100ab878     LIBCMTD:dbgrptt.obj
 0002:00010938       ??_C@_0DP@GNPEPHJD@_CrtDbgReport?3?5String?5too?5long?5o@ 100ab938     LIBCMTD:dbgrptt.obj
 0002:00010978       ??_C@_1IE@CPGKIAGP@?$AAw?$AAc?$AAs?$AAt?$AAo?$AAm?$AAb?$AAs?$AA_?$AAs?$AA?$CI?$AA?$CG?$AAr?$AAe?$AAt?$AA?0?$AA?5?$AAs?$AAz?$AAa?$AAO?$AAu?$AAt?$AAM?$AAe?$AAs?$AAs?$AAa?$AAg?$AAe?$AA?0?$AA?5@ 100ab978     LIBCMTD:dbgrptt.obj
 0002:000109fc       __pDestructExceptionObject 100ab9fc     LIBCMTD:frame.obj
 0002:00010a04       ??_7bad_exception@std@@6B@ 100aba04     LIBCMTD:frame.obj
 0002:00010a0c       ??_C@_0O@DPKOEFFH@bad?5exception?$AA@ 100aba0c     LIBCMTD:frame.obj
 0002:00010a1c       ??_C@_1CK@GELGGBDK@?$AAp?$AAN?$AAo?$AAd?$AAe?$AA?9?$AA?$DO?$AA_?$AAN?$AAe?$AAx?$AAt?$AA?5?$AA?$CB?$AA?$DN?$AA?5?$AAN?$AAU?$AAL?$AAL?$AA?$AA@ 100aba1c     LIBCMTD:typname.obj
 0002:00010a48       ??_C@_1HG@KNCBMCDD@?$AAf?$AA?3?$AA?2?$AAd?$AAd?$AA?2?$AAv?$AAc?$AAt?$AAo?$AAo?$AAl?$AAs?$AA?2?$AAc?$AAr?$AAt?$AA_?$AAb?$AAl?$AAd?$AA?2?$AAs?$AAe?$AAl?$AAf?$AA_?$AAx?$AA8?$AA6?$AA?2?$AAc@ 100aba48     LIBCMTD:typname.obj
 0002:00010ac0       ??_C@_1CM@OOICDMK@?$AAt?$AAy?$AAp?$AAe?$AA_?$AAi?$AAn?$AAf?$AAo?$AA?3?$AA?3?$AA_?$AAN?$AAa?$AAm?$AAe?$AA_?$AAb?$AAa?$AAs?$AAe?$AA?$AA@ 100abac0     LIBCMTD:typname.obj
 0002:00010af0       ??_C@_1JK@NAFNEPGC@?$AAs?$AAt?$AAr?$AAc?$AAp?$AAy?$AA_?$AAs?$AA?5?$AA?$CI?$AA?$CI?$AAc?$AAh?$AAa?$AAr?$AA?5?$AA?$CK?$AA?$CJ?$AA?$CI?$AA?$CI?$AAt?$AAy?$AAp?$AAe?$AA_?$AAi?$AAn?$AAf?$AAo?$AA?5?$AA?$CK?$AA?$CJ@ 100abaf0     LIBCMTD:typname.obj
 0002:00010b8c       ??_C@_1DO@OJJLFJPE@?$AAt?$AAy?$AAp?$AAe?$AA_?$AAi?$AAn?$AAf?$AAo?$AA?3?$AA?3?$AA_?$AAN?$AAa?$AAm?$AAe?$AA_?$AAb?$AAa?$AAs?$AAe?$AA_?$AAi?$AAn?$AAt?$AAe?$AAr?$AAn?$AAa?$AAl?$AA?$AA@ 100abb8c     LIBCMTD:typname.obj
 0002:00010bd0       ??_C@_1GI@EAJKJPED@?$AAs?$AAt?$AAr?$AAc?$AAp?$AAy?$AA_?$AAs?$AA?5?$AA?$CI?$AAp?$AAT?$AAm?$AAp?$AAT?$AAy?$AAp?$AAe?$AAN?$AAa?$AAm?$AAe?$AA?0?$AA?5?$AAl?$AAe?$AAn?$AA?$CL?$AA2?$AA?0?$AA?5?$AA?$CI@ 100abbd0     LIBCMTD:typname.obj
 0002:00010c38       ??_C@_1GI@NOKGIAGA@?$AAf?$AA?3?$AA?2?$AAd?$AAd?$AA?2?$AAv?$AAc?$AAt?$AAo?$AAo?$AAl?$AAs?$AA?2?$AAc?$AAr?$AAt?$AA_?$AAb?$AAl?$AAd?$AA?2?$AAs?$AAe?$AAl?$AAf?$AA_?$AAx?$AA8?$AA6?$AA?2?$AAc@ 100abc38     LIBCMTD:wcscat_s.obj
 0002:00010ca0       ??_C@_1BC@PLIEPKPJ@?$AAw?$AAc?$AAs?$AAc?$AAa?$AAt?$AA_?$AAs?$AA?$AA@ 100abca0     LIBCMTD:wcscat_s.obj
 0002:00010cb4       ??_C@_1DM@FHLMIEG@?$AAS?$AAt?$AAr?$AAi?$AAn?$AAg?$AA?5?$AAi?$AAs?$AA?5?$AAn?$AAo?$AAt?$AA?5?$AAn?$AAu?$AAl?$AAl?$AA?5?$AAt?$AAe?$AAr?$AAm?$AAi?$AAn?$AAa?$AAt?$AAe?$AAd?$AA?$AA@ 100abcb4     LIBCMTD:wcscat_s.obj
 0002:00010cf0       ??_C@_1FA@MJKDNFFB@?$AA?$CI?$AAL?$AA?$CC?$AAS?$AAt?$AAr?$AAi?$AAn?$AAg?$AA?5?$AAi?$AAs?$AA?5?$AAn?$AAo?$AAt?$AA?5?$AAn?$AAu?$AAl?$AAl?$AA?5?$AAt?$AAe?$AAr?$AAm?$AAi?$AAn?$AAa?$AAt?$AAe?$AAd@ 100abcf0     LIBCMTD:wcscat_s.obj
 0002:00010d40       ??_C@_1GK@DICCLCDF@?$AAf?$AA?3?$AA?2?$AAd?$AAd?$AA?2?$AAv?$AAc?$AAt?$AAo?$AAo?$AAl?$AAs?$AA?2?$AAc?$AAr?$AAt?$AA_?$AAb?$AAl?$AAd?$AA?2?$AAs?$AAe?$AAl?$AAf?$AA_?$AAx?$AA8?$AA6?$AA?2?$AAc@ 100abd40     LIBCMTD:wcsncat_s.obj
 0002:00010dac       ??_C@_1BE@KPKIKKCF@?$AAw?$AAc?$AAs?$AAn?$AAc?$AAa?$AAt?$AA_?$AAs?$AA?$AA@ 100abdac     LIBCMTD:wcsncat_s.obj
 0002:00010dc0       ??_C@_1DE@BCNCAIK@?$AA?$CI?$AA?$CC?$AAI?$AAn?$AAv?$AAa?$AAl?$AAi?$AAd?$AA?5?$AAe?$AAr?$AAr?$AAo?$AAr?$AA_?$AAm?$AAo?$AAd?$AAe?$AA?$CC?$AA?0?$AA?5?$AA0?$AA?$CJ?$AA?$AA@ 100abdc0     LIBCMTD:errmode.obj
 0002:00010df8       ??_C@_1GC@FGMGFCNB@?$AAf?$AA?3?$AA?2?$AAd?$AAd?$AA?2?$AAv?$AAc?$AAt?$AAo?$AAo?$AAl?$AAs?$AA?2?$AAc?$AAr?$AAt?$AA_?$AAb?$AAl?$AAd?$AA?2?$AAs?$AAe?$AAl?$AAf?$AA_?$AAx?$AA8?$AA6?$AA?2?$AAc@ 100abdf8     LIBCMTD:errmode.obj
 0002:00010e5c       ??_C@_1CA@LFDHAMEM@?$AA_?$AAs?$AAe?$AAt?$AA_?$AAe?$AAr?$AAr?$AAo?$AAr?$AA_?$AAm?$AAo?$AAd?$AAe?$AA?$AA@ 100abe5c     LIBCMTD:errmode.obj
 0002:00010e80       ??_C@_1FM@MFCBFCGB@?$AAf?$AA?3?$AA?2?$AAd?$AAd?$AA?2?$AAv?$AAc?$AAt?$AAo?$AAo?$AAl?$AAs?$AA?2?$AAc?$AAr?$AAt?$AA_?$AAb?$AAl?$AAd?$AA?2?$AAs?$AAe?$AAl?$AAf?$AA_?$AAx?$AA8?$AA6?$AA?2?$AAc@ 100abe80     LIBCMTD:xtows.obj
 0002:00010edc       ??_C@_1O@NCBFODOE@?$AAx?$AAt?$AAo?$AAw?$AA_?$AAs?$AA?$AA@ 100abedc     LIBCMTD:xtows.obj
 0002:00010eec       ??_C@_1CC@JNJFIMGE@?$AAs?$AAi?$AAz?$AAe?$AAI?$AAn?$AAT?$AAC?$AAh?$AAa?$AAr?$AAs?$AA?5?$AA?$DO?$AA?5?$AA0?$AA?$AA@ 100abeec     LIBCMTD:xtows.obj
 0002:00010f10       ??_C@_1FA@MKGGAGEI@?$AAs?$AAi?$AAz?$AAe?$AAI?$AAn?$AAT?$AAC?$AAh?$AAa?$AAr?$AAs?$AA?5?$AA?$DO?$AA?5?$AA?$CI?$AAs?$AAi?$AAz?$AAe?$AA_?$AAt?$AA?$CJ?$AA?$CI?$AAi?$AAs?$AA_?$AAn?$AAe?$AAg?$AA?5?$AA?$DP@ 100abf10     LIBCMTD:xtows.obj
 0002:00010f60       ??_C@_1DE@PCJGDBBD@?$AA2?$AA?5?$AA?$DM?$AA?$DN?$AA?5?$AAr?$AAa?$AAd?$AAi?$AAx?$AA?5?$AA?$CG?$AA?$CG?$AA?5?$AAr?$AAa?$AAd?$AAi?$AAx?$AA?5?$AA?$DM?$AA?$DN?$AA?5?$AA3?$AA6?$AA?$AA@ 100abf60     LIBCMTD:xtows.obj
 0002:00010f94       ??_C@_1CM@HABGDNLJ@?$AAl?$AAe?$AAn?$AAg?$AAt?$AAh?$AA?5?$AA?$DM?$AA?5?$AAs?$AAi?$AAz?$AAe?$AAI?$AAn?$AAT?$AAC?$AAh?$AAa?$AAr?$AAs?$AA?$AA@ 100abf94     LIBCMTD:xtows.obj
 0002:00010fc0       ??_C@_1BC@HDEJCFPB@?$AAx?$AA6?$AA4?$AAt?$AAo?$AAw?$AA_?$AAs?$AA?$AA@ 100abfc0     LIBCMTD:xtows.obj
 0002:00010fd8       ??_C@_1GC@FPPJLAOD@?$AAf?$AA?3?$AA?2?$AAd?$AAd?$AA?2?$AAv?$AAc?$AAt?$AAo?$AAo?$AAl?$AAs?$AA?2?$AAc?$AAr?$AAt?$AA_?$AAb?$AAl?$AAd?$AA?2?$AAs?$AAe?$AAl?$AAf?$AA_?$AAx?$AA8?$AA6?$AA?2?$AAc@ 100abfd8     LIBCMTD:setvbuf.obj
 0002:0001103c       ??_C@_1BA@OGODIODK@?$AAs?$AAe?$AAt?$AAv?$AAb?$AAu?$AAf?$AA?$AA@ 100ac03c     LIBCMTD:setvbuf.obj
 0002:00011050       ??_C@_1HC@CBFEDAGG@?$AA?$CI?$AAt?$AAy?$AAp?$AAe?$AA?5?$AA?$DN?$AA?$DN?$AA?5?$AA_?$AAI?$AAO?$AAN?$AAB?$AAF?$AA?$CJ?$AA?5?$AA?$HM?$AA?$HM?$AA?5?$AA?$CI?$AAt?$AAy?$AAp?$AAe?$AA?5?$AA?$DN?$AA?$DN?$AA?5?$AA_?$AAI?$AAO@ 100ac050     LIBCMTD:setvbuf.obj
 0002:000110c8       ??_C@_1EG@IJNJIDNB@?$AA?$CI?$AA?$CI?$AA2?$AA?5?$AA?$DM?$AA?$DN?$AA?5?$AAs?$AAi?$AAz?$AAe?$AA?$CJ?$AA?5?$AA?$CG?$AA?$CG?$AA?5?$AA?$CI?$AAs?$AAi?$AAz?$AAe?$AA?5?$AA?$DM?$AA?$DN?$AA?5?$AAI?$AAN?$AAT?$AA_?$AAM?$AAA?$AAX@ 100ac0c8     LIBCMTD:setvbuf.obj
 0002:00011110       ??_C@_0DB@MIGHMKAN@f?3?2dd?2vctools?2crt_bld?2self_x86?2c@ 100ac110     LIBCMTD:setvbuf.obj
 0002:00011148       ??_C@_1GE@NIBJAMDO@?$AAf?$AA?3?$AA?2?$AAd?$AAd?$AA?2?$AAv?$AAc?$AAt?$AAo?$AAo?$AAl?$AAs?$AA?2?$AAc?$AAr?$AAt?$AA_?$AAb?$AAl?$AAd?$AA?2?$AAs?$AAe?$AAl?$AAf?$AA_?$AAx?$AA8?$AA6?$AA?2?$AAc@ 100ac148     LIBCMTD:fwprintf.obj
 0002:000111ac       ??_C@_1BC@BHLPNJBO@?$AAf?$AAw?$AAp?$AAr?$AAi?$AAn?$AAt?$AAf?$AA?$AA@ 100ac1ac     LIBCMTD:fwprintf.obj
 0002:000111c0       ??_C@_1GE@KINELFI@?$AAf?$AA?3?$AA?2?$AAd?$AAd?$AA?2?$AAv?$AAc?$AAt?$AAo?$AAo?$AAl?$AAs?$AA?2?$AAc?$AAr?$AAt?$AA_?$AAb?$AAl?$AAd?$AA?2?$AAs?$AAe?$AAl?$AAf?$AA_?$AAx?$AA8?$AA6?$AA?2?$AAc@ 100ac1c0     LIBCMTD:vswprnc.obj
 0002:00011224       ??_C@_1CE@IGKFIJFD@?$AA_?$AAv?$AAs?$AAw?$AAp?$AAr?$AAi?$AAn?$AAt?$AAf?$AA_?$AAh?$AAe?$AAl?$AAp?$AAe?$AAr?$AA?$AA@ 100ac224     LIBCMTD:vswprnc.obj
 0002:00011248       ??_C@_1BO@MLMCMBKN@?$AAf?$AAo?$AAr?$AAm?$AAa?$AAt?$AA?5?$AA?$CB?$AA?$DN?$AA?5?$AAN?$AAU?$AAL?$AAL?$AA?$AA@ 100ac248     LIBCMTD:vswprnc.obj
 0002:00011268       ??_C@_1BO@OALHJLCI@?$AA_?$AAv?$AAs?$AAw?$AAp?$AAr?$AAi?$AAn?$AAt?$AAf?$AA_?$AAs?$AA_?$AAl?$AA?$AA@ 100ac268     LIBCMTD:vswprnc.obj
 0002:00011288       ??_C@_1EE@MPCHJFGP@?$AAs?$AAt?$AAr?$AAi?$AAn?$AAg?$AA?5?$AA?$CB?$AA?$DN?$AA?5?$AAN?$AAU?$AAL?$AAL?$AA?5?$AA?$CG?$AA?$CG?$AA?5?$AAs?$AAi?$AAz?$AAe?$AAI?$AAn?$AAW?$AAo?$AAr?$AAd?$AAs?$AA?5?$AA?$DO?$AA?5@ 100ac288     LIBCMTD:vswprnc.obj
 0002:000112cc       ??_C@_1DA@HPBFKMEB@?$AA?$CI?$AA?$CC?$AAB?$AAu?$AAf?$AAf?$AAe?$AAr?$AA?5?$AAt?$AAo?$AAo?$AA?5?$AAs?$AAm?$AAa?$AAl?$AAl?$AA?$CC?$AA?0?$AA?5?$AA0?$AA?$CJ?$AA?$AA@ 100ac2cc     LIBCMTD:vswprnc.obj
 0002:000112fc       ??_C@_1CA@BKFKMJFF@?$AA_?$AAv?$AAs?$AAn?$AAw?$AAp?$AAr?$AAi?$AAn?$AAt?$AAf?$AA_?$AAs?$AA_?$AAl?$AA?$AA@ 100ac2fc     LIBCMTD:vswprnc.obj
 0002:00012b40       ??_C@_1CK@GFDNDKK@?$AA_?$AAR?$AAa?$AAn?$AAd?$AAo?$AAm?$AAV?$AAa?$AAl?$AAu?$AAe?$AA?5?$AA?$CB?$AA?$DN?$AA?5?$AAN?$AAU?$AAL?$AAL?$AA?$AA@ 100adb40     LIBCMTD:rand_s.obj
 0002:00012b70       ??_C@_1GA@HBGBBKCD@?$AAf?$AA?3?$AA?2?$AAd?$AAd?$AA?2?$AAv?$AAc?$AAt?$AAo?$AAo?$AAl?$AAs?$AA?2?$AAc?$AAr?$AAt?$AA_?$AAb?$AAl?$AAd?$AA?2?$AAs?$AAe?$AAl?$AAf?$AA_?$AAx?$AA8?$AA6?$AA?2?$AAc@ 100adb70     LIBCMTD:rand_s.obj
 0002:00012bd0       ??_C@_1O@IJGPPOGF@?$AAr?$AAa?$AAn?$AAd?$AA_?$AAs?$AA?$AA@ 100adbd0     LIBCMTD:rand_s.obj
 0002:00012be0       ??_C@_1BK@GAEMIDIL@?$AAA?$AAD?$AAV?$AAA?$AAP?$AAI?$AA3?$AA2?$AA?4?$AAD?$AAL?$AAL?$AA?$AA@ 100adbe0     LIBCMTD:rand_s.obj
 0002:00012c00       ??_C@_1GA@EBEDGGGB@?$AA?$CI?$AA?$CC?$AAr?$AAa?$AAn?$AAd?$AA_?$AAs?$AA?5?$AAi?$AAs?$AA?5?$AAn?$AAo?$AAt?$AA?5?$AAa?$AAv?$AAa?$AAi?$AAl?$AAa?$AAb?$AAl?$AAe?$AA?5?$AAo?$AAn?$AA?5?$AAt?$AAh?$AAi@ 100adc00     LIBCMTD:rand_s.obj
 0002:00012c60       ??_C@_0BC@JEAENNKH@SystemFunction036?$AA@ 100adc60     LIBCMTD:rand_s.obj
 0002:00012c84       ??_C@_1M@HPNHIDJI@?$AAj?$AAa?$AA?9?$AAJ?$AAP?$AA?$AA@ 100adc84     LIBCMTD:mbctype.obj
 0002:00012c90       ??_C@_1M@BIBDDEMK@?$AAz?$AAh?$AA?9?$AAC?$AAN?$AA?$AA@ 100adc90     LIBCMTD:mbctype.obj
 0002:00012c9c       ??_C@_1M@JLOOOEGK@?$AAk?$AAo?$AA?9?$AAK?$AAR?$AA?$AA@ 100adc9c     LIBCMTD:mbctype.obj
 0002:00012ca8       ??_C@_1M@CLNBBOPM@?$AAz?$AAh?$AA?9?$AAT?$AAW?$AA?$AA@ 100adca8     LIBCMTD:mbctype.obj
 0002:00012cb4       ??_C@_0DB@MHMEONEC@f?3?2dd?2vctools?2crt_bld?2self_x86?2c@ 100adcb4     LIBCMTD:mbctype.obj
